ARM GAS  /tmp/ccipu0lT.s 			page 1


   1              		.cpu cortex-m7
   2              		.eabi_attribute 28, 1
   3              		.eabi_attribute 20, 1
   4              		.eabi_attribute 21, 1
   5              		.eabi_attribute 23, 3
   6              		.eabi_attribute 24, 1
   7              		.eabi_attribute 25, 1
   8              		.eabi_attribute 26, 1
   9              		.eabi_attribute 30, 6
  10              		.eabi_attribute 34, 1
  11              		.eabi_attribute 18, 4
  12              		.file	"adv7533.c"
  13              		.text
  14              	.Ltext0:
  15              		.cfi_sections	.debug_frame
  16              		.global	ADV7533_Driver
  17              		.section	.data.ADV7533_Driver,"aw"
  18              		.align	2
  21              	ADV7533_Driver:
  22 0000 00000000 		.word	ADV7533_AudioInit
  23 0004 00000000 		.word	ADV7533_DeInit
  24 0008 00000000 		.word	ADV7533_ReadID
  25 000c 00000000 		.word	ADV7533_Play
  26 0010 00000000 		.word	ADV7533_Pause
  27 0014 00000000 		.word	ADV7533_Resume
  28 0018 00000000 		.word	ADV7533_Stop
  29 001c 00000000 		.word	ADV7533_SetFrequency
  30 0020 00000000 		.word	ADV7533_GetFrequency
  31 0024 00000000 		.word	ADV7533_SetVolume
  32 0028 00000000 		.word	ADV7533_GetVolume
  33 002c 00000000 		.word	ADV7533_SetMute
  34 0030 00000000 		.word	ADV7533_SetOutputMode
  35 0034 00000000 		.word	ADV7533_SetResolution
  36 0038 00000000 		.word	ADV7533_GetResolution
  37 003c 00000000 		.word	ADV7533_SetProtocol
  38 0040 00000000 		.word	ADV7533_GetProtocol
  39 0044 00000000 		.word	ADV7533_Reset
  40              		.global	ADV7533_LCD_Driver
  41              		.section	.data.ADV7533_LCD_Driver,"aw"
  42              		.align	2
  45              	ADV7533_LCD_Driver:
  46 0000 00000000 		.word	ADV7533_Init
  47 0004 00000000 		.word	ADV7533_DeInit
  48 0008 00000000 		.word	ADV7533_ReadID
  49 000c 00000000 		.word	ADV7533_DisplayOn
  50 0010 00000000 		.word	ADV7533_DisplayOff
  51 0014 00000000 		.word	ADV7533_SetBrightness
  52 0018 00000000 		.word	ADV7533_GetBrightness
  53 001c 00000000 		.word	ADV7533_SetOrientation
  54 0020 00000000 		.word	ADV7533_GetOrientation
  55 0024 00000000 		.word	ADV7533_SetCursor
  56 0028 00000000 		.word	ADV7533_DrawBitmap
  57 002c 00000000 		.word	ADV7533_FillRGBRect
  58 0030 00000000 		.word	ADV7533_DrawHLine
  59 0034 00000000 		.word	ADV7533_DrawVLine
  60 0038 00000000 		.word	ADV7533_FillRect
  61 003c 00000000 		.word	ADV7533_GetPixel
ARM GAS  /tmp/ccipu0lT.s 			page 2


  62 0040 00000000 		.word	ADV7533_SetPixel
  63 0044 00000000 		.word	ADV7533_GetXSize
  64 0048 00000000 		.word	ADV7533_GetYSize
  65              		.section	.text.ADV7533_RegisterBusIO,"ax",%progbits
  66              		.align	1
  67              		.global	ADV7533_RegisterBusIO
  68              		.arch armv7e-m
  69              		.syntax unified
  70              		.thumb
  71              		.thumb_func
  72              		.fpu fpv5-d16
  74              	ADV7533_RegisterBusIO:
  75              	.LFB0:
  76              		.file 1 "./BSP/components/adv7533/adv7533.c"
   1:./BSP/components/adv7533/adv7533.c **** /**
   2:./BSP/components/adv7533/adv7533.c ****   ******************************************************************************
   3:./BSP/components/adv7533/adv7533.c ****   * @file    adv7533.c
   4:./BSP/components/adv7533/adv7533.c ****   * @author  MCD Application Team
   5:./BSP/components/adv7533/adv7533.c ****   * @brief   This file provides the ADV7533 DSI to HDMI bridge driver 
   6:./BSP/components/adv7533/adv7533.c ****   ******************************************************************************
   7:./BSP/components/adv7533/adv7533.c ****   * @attention
   8:./BSP/components/adv7533/adv7533.c ****   *
   9:./BSP/components/adv7533/adv7533.c ****   * <h2><center>&copy; Copyright (c) 2016 STMicroelectronics.
  10:./BSP/components/adv7533/adv7533.c ****   * All rights reserved.</center></h2>
  11:./BSP/components/adv7533/adv7533.c ****   *
  12:./BSP/components/adv7533/adv7533.c ****   * This software component is licensed by ST under BSD 3-Clause license,
  13:./BSP/components/adv7533/adv7533.c ****   * the "License"; You may not use this file except in compliance with the
  14:./BSP/components/adv7533/adv7533.c ****   * License. You may obtain a copy of the License at:
  15:./BSP/components/adv7533/adv7533.c ****   *                        opensource.org/licenses/BSD-3-Clause
  16:./BSP/components/adv7533/adv7533.c ****   *
  17:./BSP/components/adv7533/adv7533.c ****   ******************************************************************************
  18:./BSP/components/adv7533/adv7533.c ****   */
  19:./BSP/components/adv7533/adv7533.c **** 
  20:./BSP/components/adv7533/adv7533.c **** /* Includes ------------------------------------------------------------------*/
  21:./BSP/components/adv7533/adv7533.c **** #include "adv7533.h"
  22:./BSP/components/adv7533/adv7533.c **** 
  23:./BSP/components/adv7533/adv7533.c **** /** @addtogroup BSP
  24:./BSP/components/adv7533/adv7533.c ****   * @{
  25:./BSP/components/adv7533/adv7533.c ****   */
  26:./BSP/components/adv7533/adv7533.c ****   
  27:./BSP/components/adv7533/adv7533.c **** /** @addtogroup Components
  28:./BSP/components/adv7533/adv7533.c ****   * @{
  29:./BSP/components/adv7533/adv7533.c ****   */ 
  30:./BSP/components/adv7533/adv7533.c **** 
  31:./BSP/components/adv7533/adv7533.c **** /** @defgroup ADV7533 ADV7533
  32:./BSP/components/adv7533/adv7533.c ****   * @brief     This file provides a set of functions needed to drive the 
  33:./BSP/components/adv7533/adv7533.c ****   *            adv7533 DSI-HDMI bridge.
  34:./BSP/components/adv7533/adv7533.c ****   * @{
  35:./BSP/components/adv7533/adv7533.c ****   */
  36:./BSP/components/adv7533/adv7533.c ****     
  37:./BSP/components/adv7533/adv7533.c **** /* Private types -------------------------------------------------------------*/
  38:./BSP/components/adv7533/adv7533.c **** /* Private variables ---------------------------------------------------------*/
  39:./BSP/components/adv7533/adv7533.c **** /* Private constants ---------------------------------------------------------*/
  40:./BSP/components/adv7533/adv7533.c **** /** @defgroup ADV7533_Private_Constants ADV7533 Private Constants
  41:./BSP/components/adv7533/adv7533.c ****   * @{
  42:./BSP/components/adv7533/adv7533.c ****   */
  43:./BSP/components/adv7533/adv7533.c **** 
ARM GAS  /tmp/ccipu0lT.s 			page 3


  44:./BSP/components/adv7533/adv7533.c **** /**
  45:./BSP/components/adv7533/adv7533.c ****   * @}
  46:./BSP/components/adv7533/adv7533.c ****   */
  47:./BSP/components/adv7533/adv7533.c **** 
  48:./BSP/components/adv7533/adv7533.c **** /* Private macros ------------------------------------------------------------*/
  49:./BSP/components/adv7533/adv7533.c **** /* Private functions ---------------------------------------------------------*/
  50:./BSP/components/adv7533/adv7533.c **** /** @defgroup ADV7533_Exported_Variables ADV7533 Exported Variables
  51:./BSP/components/adv7533/adv7533.c ****   * @{
  52:./BSP/components/adv7533/adv7533.c ****   */
  53:./BSP/components/adv7533/adv7533.c **** 
  54:./BSP/components/adv7533/adv7533.c **** /* Audio codec driver structure initialization */  
  55:./BSP/components/adv7533/adv7533.c **** ADV7533_Drv_t ADV7533_Driver = 
  56:./BSP/components/adv7533/adv7533.c **** {
  57:./BSP/components/adv7533/adv7533.c ****   ADV7533_AudioInit,
  58:./BSP/components/adv7533/adv7533.c ****   ADV7533_DeInit,
  59:./BSP/components/adv7533/adv7533.c ****   ADV7533_ReadID,
  60:./BSP/components/adv7533/adv7533.c ****   ADV7533_Play,
  61:./BSP/components/adv7533/adv7533.c ****   ADV7533_Pause,
  62:./BSP/components/adv7533/adv7533.c ****   ADV7533_Resume,
  63:./BSP/components/adv7533/adv7533.c ****   ADV7533_Stop,
  64:./BSP/components/adv7533/adv7533.c ****   ADV7533_SetFrequency,
  65:./BSP/components/adv7533/adv7533.c ****   ADV7533_GetFrequency,  
  66:./BSP/components/adv7533/adv7533.c ****   ADV7533_SetVolume,     /* Not supported, added for compatibility */
  67:./BSP/components/adv7533/adv7533.c ****   ADV7533_GetVolume,     /* Not supported, added for compatibility */
  68:./BSP/components/adv7533/adv7533.c ****   ADV7533_SetMute,
  69:./BSP/components/adv7533/adv7533.c ****   ADV7533_SetOutputMode, /* Not supported, added for compatibility */
  70:./BSP/components/adv7533/adv7533.c ****   ADV7533_SetResolution, /* Not supported, added for compatibility */
  71:./BSP/components/adv7533/adv7533.c ****   ADV7533_GetResolution, /* Not supported, added for compatibility */ 
  72:./BSP/components/adv7533/adv7533.c ****   ADV7533_SetProtocol,   /* Not supported, added for compatibility */
  73:./BSP/components/adv7533/adv7533.c ****   ADV7533_GetProtocol,   /* Not supported, added for compatibility */
  74:./BSP/components/adv7533/adv7533.c ****   ADV7533_Reset          /* Not supported, added for compatibility */
  75:./BSP/components/adv7533/adv7533.c **** };
  76:./BSP/components/adv7533/adv7533.c **** 
  77:./BSP/components/adv7533/adv7533.c **** ADV7533_LcdDrv_t ADV7533_LCD_Driver =
  78:./BSP/components/adv7533/adv7533.c **** {
  79:./BSP/components/adv7533/adv7533.c ****   ADV7533_Init,
  80:./BSP/components/adv7533/adv7533.c ****   ADV7533_DeInit,
  81:./BSP/components/adv7533/adv7533.c ****   ADV7533_ReadID,
  82:./BSP/components/adv7533/adv7533.c ****   ADV7533_DisplayOn,
  83:./BSP/components/adv7533/adv7533.c ****   ADV7533_DisplayOff,
  84:./BSP/components/adv7533/adv7533.c ****   ADV7533_SetBrightness,
  85:./BSP/components/adv7533/adv7533.c ****   ADV7533_GetBrightness,  
  86:./BSP/components/adv7533/adv7533.c ****   ADV7533_SetOrientation,
  87:./BSP/components/adv7533/adv7533.c ****   ADV7533_GetOrientation,
  88:./BSP/components/adv7533/adv7533.c ****   ADV7533_SetCursor,
  89:./BSP/components/adv7533/adv7533.c ****   ADV7533_DrawBitmap,
  90:./BSP/components/adv7533/adv7533.c ****   ADV7533_FillRGBRect,
  91:./BSP/components/adv7533/adv7533.c ****   ADV7533_DrawHLine,
  92:./BSP/components/adv7533/adv7533.c ****   ADV7533_DrawVLine,
  93:./BSP/components/adv7533/adv7533.c ****   ADV7533_FillRect,
  94:./BSP/components/adv7533/adv7533.c ****   ADV7533_GetPixel,
  95:./BSP/components/adv7533/adv7533.c ****   ADV7533_SetPixel,
  96:./BSP/components/adv7533/adv7533.c ****   ADV7533_GetXSize,
  97:./BSP/components/adv7533/adv7533.c ****   ADV7533_GetYSize,
  98:./BSP/components/adv7533/adv7533.c **** };
  99:./BSP/components/adv7533/adv7533.c **** 
 100:./BSP/components/adv7533/adv7533.c **** /**
ARM GAS  /tmp/ccipu0lT.s 			page 4


 101:./BSP/components/adv7533/adv7533.c ****   * @}
 102:./BSP/components/adv7533/adv7533.c ****   */
 103:./BSP/components/adv7533/adv7533.c **** 
 104:./BSP/components/adv7533/adv7533.c **** /** @defgroup ADV7533_Function_Prototypes ADV7533 Function Prototypes
 105:./BSP/components/adv7533/adv7533.c ****   * @{
 106:./BSP/components/adv7533/adv7533.c ****   */
 107:./BSP/components/adv7533/adv7533.c **** static int32_t ADV7533_ReadRegWrap(void *handle, uint16_t Reg, uint8_t* Data, uint16_t Length);
 108:./BSP/components/adv7533/adv7533.c **** static int32_t ADV7533_WriteRegWrap(void *handle, uint16_t Reg, uint8_t* Data, uint16_t Length);
 109:./BSP/components/adv7533/adv7533.c **** static void ADV7533_SetI2C_Address(ADV7533_Object_t *pObj, uint8_t Address);
 110:./BSP/components/adv7533/adv7533.c **** /**
 111:./BSP/components/adv7533/adv7533.c ****   * @}
 112:./BSP/components/adv7533/adv7533.c ****   */ 
 113:./BSP/components/adv7533/adv7533.c **** 
 114:./BSP/components/adv7533/adv7533.c **** /* Exported functions --------------------------------------------------------*/
 115:./BSP/components/adv7533/adv7533.c **** /** @defgroup ADV7533_Exported_Functions ADV7533 Exported Functions
 116:./BSP/components/adv7533/adv7533.c ****   * @{
 117:./BSP/components/adv7533/adv7533.c ****   */
 118:./BSP/components/adv7533/adv7533.c **** /**
 119:./BSP/components/adv7533/adv7533.c ****   * @brief  Function
 120:./BSP/components/adv7533/adv7533.c ****   * @param  Component object pointer
 121:./BSP/components/adv7533/adv7533.c ****   * @retval error status
 122:./BSP/components/adv7533/adv7533.c ****   */
 123:./BSP/components/adv7533/adv7533.c **** int32_t ADV7533_RegisterBusIO (ADV7533_Object_t *pObj, ADV7533_IO_t *pIO)
 124:./BSP/components/adv7533/adv7533.c **** {
  77              		.loc 1 124 1
  78              		.cfi_startproc
  79              		@ args = 0, pretend = 0, frame = 16
  80              		@ frame_needed = 1, uses_anonymous_args = 0
  81 0000 80B5     		push	{r7, lr}
  82              	.LCFI0:
  83              		.cfi_def_cfa_offset 8
  84              		.cfi_offset 7, -8
  85              		.cfi_offset 14, -4
  86 0002 84B0     		sub	sp, sp, #16
  87              	.LCFI1:
  88              		.cfi_def_cfa_offset 24
  89 0004 00AF     		add	r7, sp, #0
  90              	.LCFI2:
  91              		.cfi_def_cfa_register 7
  92 0006 7860     		str	r0, [r7, #4]
  93 0008 3960     		str	r1, [r7]
 125:./BSP/components/adv7533/adv7533.c ****   int32_t ret;
 126:./BSP/components/adv7533/adv7533.c ****   
 127:./BSP/components/adv7533/adv7533.c ****   if (pObj == NULL)
  94              		.loc 1 127 6
  95 000a 7B68     		ldr	r3, [r7, #4]
  96 000c 002B     		cmp	r3, #0
  97 000e 03D1     		bne	.L2
 128:./BSP/components/adv7533/adv7533.c ****   {
 129:./BSP/components/adv7533/adv7533.c ****     ret = ADV7533_ERROR;
  98              		.loc 1 129 9
  99 0010 4FF0FF33 		mov	r3, #-1
 100 0014 FB60     		str	r3, [r7, #12]
 101 0016 2CE0     		b	.L3
 102              	.L2:
 130:./BSP/components/adv7533/adv7533.c ****   }
 131:./BSP/components/adv7533/adv7533.c ****   else
ARM GAS  /tmp/ccipu0lT.s 			page 5


 132:./BSP/components/adv7533/adv7533.c ****   {
 133:./BSP/components/adv7533/adv7533.c ****     pObj->IO.Init      = pIO->Init;
 103              		.loc 1 133 29
 104 0018 3B68     		ldr	r3, [r7]
 105 001a 1A68     		ldr	r2, [r3]
 106              		.loc 1 133 24
 107 001c 7B68     		ldr	r3, [r7, #4]
 108 001e 1A60     		str	r2, [r3]
 134:./BSP/components/adv7533/adv7533.c ****     pObj->IO.DeInit    = pIO->DeInit;
 109              		.loc 1 134 29
 110 0020 3B68     		ldr	r3, [r7]
 111 0022 5A68     		ldr	r2, [r3, #4]
 112              		.loc 1 134 24
 113 0024 7B68     		ldr	r3, [r7, #4]
 114 0026 5A60     		str	r2, [r3, #4]
 135:./BSP/components/adv7533/adv7533.c ****     pObj->IO.Address   = pIO->Address;
 115              		.loc 1 135 29
 116 0028 3B68     		ldr	r3, [r7]
 117 002a 1A89     		ldrh	r2, [r3, #8]
 118              		.loc 1 135 24
 119 002c 7B68     		ldr	r3, [r7, #4]
 120 002e 1A81     		strh	r2, [r3, #8]	@ movhi
 136:./BSP/components/adv7533/adv7533.c ****     pObj->IO.WriteReg  = pIO->WriteReg;
 121              		.loc 1 136 29
 122 0030 3B68     		ldr	r3, [r7]
 123 0032 DA68     		ldr	r2, [r3, #12]
 124              		.loc 1 136 24
 125 0034 7B68     		ldr	r3, [r7, #4]
 126 0036 DA60     		str	r2, [r3, #12]
 137:./BSP/components/adv7533/adv7533.c ****     pObj->IO.ReadReg   = pIO->ReadReg;
 127              		.loc 1 137 29
 128 0038 3B68     		ldr	r3, [r7]
 129 003a 1A69     		ldr	r2, [r3, #16]
 130              		.loc 1 137 24
 131 003c 7B68     		ldr	r3, [r7, #4]
 132 003e 1A61     		str	r2, [r3, #16]
 138:./BSP/components/adv7533/adv7533.c ****     pObj->IO.GetTick   = pIO->GetTick;
 133              		.loc 1 138 29
 134 0040 3B68     		ldr	r3, [r7]
 135 0042 5A69     		ldr	r2, [r3, #20]
 136              		.loc 1 138 24
 137 0044 7B68     		ldr	r3, [r7, #4]
 138 0046 5A61     		str	r2, [r3, #20]
 139:./BSP/components/adv7533/adv7533.c ****     
 140:./BSP/components/adv7533/adv7533.c ****     pObj->Ctx.ReadReg  = ADV7533_ReadRegWrap;
 139              		.loc 1 140 24
 140 0048 7B68     		ldr	r3, [r7, #4]
 141 004a 0C4A     		ldr	r2, .L6
 142 004c DA61     		str	r2, [r3, #28]
 141:./BSP/components/adv7533/adv7533.c ****     pObj->Ctx.WriteReg = ADV7533_WriteRegWrap;
 143              		.loc 1 141 24
 144 004e 7B68     		ldr	r3, [r7, #4]
 145 0050 0B4A     		ldr	r2, .L6+4
 146 0052 9A61     		str	r2, [r3, #24]
 142:./BSP/components/adv7533/adv7533.c ****     pObj->Ctx.handle   = pObj;
 147              		.loc 1 142 24
 148 0054 7B68     		ldr	r3, [r7, #4]
ARM GAS  /tmp/ccipu0lT.s 			page 6


 149 0056 7A68     		ldr	r2, [r7, #4]
 150 0058 1A62     		str	r2, [r3, #32]
 143:./BSP/components/adv7533/adv7533.c ****     
 144:./BSP/components/adv7533/adv7533.c ****     if(pObj->IO.Init != NULL)
 151              		.loc 1 144 16
 152 005a 7B68     		ldr	r3, [r7, #4]
 153 005c 1B68     		ldr	r3, [r3]
 154              		.loc 1 144 7
 155 005e 002B     		cmp	r3, #0
 156 0060 04D0     		beq	.L4
 145:./BSP/components/adv7533/adv7533.c ****     {
 146:./BSP/components/adv7533/adv7533.c ****       ret = pObj->IO.Init();
 157              		.loc 1 146 21
 158 0062 7B68     		ldr	r3, [r7, #4]
 159 0064 1B68     		ldr	r3, [r3]
 160              		.loc 1 146 13
 161 0066 9847     		blx	r3
 162              	.LVL0:
 163 0068 F860     		str	r0, [r7, #12]
 164 006a 02E0     		b	.L3
 165              	.L4:
 147:./BSP/components/adv7533/adv7533.c ****     }
 148:./BSP/components/adv7533/adv7533.c ****     else
 149:./BSP/components/adv7533/adv7533.c ****     {
 150:./BSP/components/adv7533/adv7533.c ****       ret = ADV7533_ERROR;
 166              		.loc 1 150 11
 167 006c 4FF0FF33 		mov	r3, #-1
 168 0070 FB60     		str	r3, [r7, #12]
 169              	.L3:
 151:./BSP/components/adv7533/adv7533.c ****     }
 152:./BSP/components/adv7533/adv7533.c ****   }
 153:./BSP/components/adv7533/adv7533.c ****   
 154:./BSP/components/adv7533/adv7533.c ****   return ret;
 170              		.loc 1 154 10
 171 0072 FB68     		ldr	r3, [r7, #12]
 155:./BSP/components/adv7533/adv7533.c **** }
 172              		.loc 1 155 1
 173 0074 1846     		mov	r0, r3
 174 0076 1037     		adds	r7, r7, #16
 175              	.LCFI3:
 176              		.cfi_def_cfa_offset 8
 177 0078 BD46     		mov	sp, r7
 178              	.LCFI4:
 179              		.cfi_def_cfa_register 13
 180              		@ sp needed
 181 007a 80BD     		pop	{r7, pc}
 182              	.L7:
 183              		.align	2
 184              	.L6:
 185 007c 00000000 		.word	ADV7533_ReadRegWrap
 186 0080 00000000 		.word	ADV7533_WriteRegWrap
 187              		.cfi_endproc
 188              	.LFE0:
 190              		.section	.text.ADV7533_Init,"ax",%progbits
 191              		.align	1
 192              		.global	ADV7533_Init
 193              		.syntax unified
ARM GAS  /tmp/ccipu0lT.s 			page 7


 194              		.thumb
 195              		.thumb_func
 196              		.fpu fpv5-d16
 198              	ADV7533_Init:
 199              	.LFB1:
 156:./BSP/components/adv7533/adv7533.c **** 
 157:./BSP/components/adv7533/adv7533.c **** /*------------------------------------------------------------------------------
 158:./BSP/components/adv7533/adv7533.c ****                            HDMI video functions 
 159:./BSP/components/adv7533/adv7533.c **** ------------------------------------------------------------------------------*/ 
 160:./BSP/components/adv7533/adv7533.c **** /**
 161:./BSP/components/adv7533/adv7533.c ****   * @brief Initializes the audio codec and the control interface.
 162:./BSP/components/adv7533/adv7533.c ****   * @param  pObj  pointer to component object
 163:./BSP/components/adv7533/adv7533.c ****   * @param  ColorCoding   Color Code
 164:./BSP/components/adv7533/adv7533.c ****   * @param  Orientation   Display orientation
 165:./BSP/components/adv7533/adv7533.c ****   * @retval Component status
 166:./BSP/components/adv7533/adv7533.c ****   */
 167:./BSP/components/adv7533/adv7533.c **** int32_t ADV7533_Init(ADV7533_Object_t *pObj, uint32_t ColorCoding, uint32_t Orientation)
 168:./BSP/components/adv7533/adv7533.c **** {
 200              		.loc 1 168 1
 201              		.cfi_startproc
 202              		@ args = 0, pretend = 0, frame = 24
 203              		@ frame_needed = 1, uses_anonymous_args = 0
 204 0000 80B5     		push	{r7, lr}
 205              	.LCFI5:
 206              		.cfi_def_cfa_offset 8
 207              		.cfi_offset 7, -8
 208              		.cfi_offset 14, -4
 209 0002 86B0     		sub	sp, sp, #24
 210              	.LCFI6:
 211              		.cfi_def_cfa_offset 32
 212 0004 00AF     		add	r7, sp, #0
 213              	.LCFI7:
 214              		.cfi_def_cfa_register 7
 215 0006 F860     		str	r0, [r7, #12]
 216 0008 B960     		str	r1, [r7, #8]
 217 000a 7A60     		str	r2, [r7, #4]
 169:./BSP/components/adv7533/adv7533.c ****   int32_t ret = ADV7533_OK;
 218              		.loc 1 169 11
 219 000c 0023     		movs	r3, #0
 220 000e 7B61     		str	r3, [r7, #20]
 170:./BSP/components/adv7533/adv7533.c ****   uint8_t tmp;
 171:./BSP/components/adv7533/adv7533.c ****   
 172:./BSP/components/adv7533/adv7533.c ****   /* Prevent unused argument(s) compilation warning */
 173:./BSP/components/adv7533/adv7533.c ****   (void)(ColorCoding);
 174:./BSP/components/adv7533/adv7533.c ****   (void)(Orientation);
 175:./BSP/components/adv7533/adv7533.c ****   
 176:./BSP/components/adv7533/adv7533.c ****   if(pObj->IsInitialized == 0U)
 221              		.loc 1 176 10
 222 0010 FB68     		ldr	r3, [r7, #12]
 223 0012 93F82430 		ldrb	r3, [r3, #36]	@ zero_extendqisi2
 224              		.loc 1 176 5
 225 0016 002B     		cmp	r3, #0
 226 0018 1CD1     		bne	.L9
 177:./BSP/components/adv7533/adv7533.c ****   {
 178:./BSP/components/adv7533/adv7533.c ****     pObj->IO.Init();
 227              		.loc 1 178 13
 228 001a FB68     		ldr	r3, [r7, #12]
ARM GAS  /tmp/ccipu0lT.s 			page 8


 229 001c 1B68     		ldr	r3, [r3]
 230              		.loc 1 178 5
 231 001e 9847     		blx	r3
 232              	.LVL1:
 179:./BSP/components/adv7533/adv7533.c ****     
 180:./BSP/components/adv7533/adv7533.c ****     ADV7533_SetI2C_Address(pObj, ADV7533_MAIN_I2C_ADDR);
 233              		.loc 1 180 5
 234 0020 7A21     		movs	r1, #122
 235 0022 F868     		ldr	r0, [r7, #12]
 236 0024 FFF7FEFF 		bl	ADV7533_SetI2C_Address
 181:./BSP/components/adv7533/adv7533.c ****     
 182:./BSP/components/adv7533/adv7533.c ****     /* Configure the IC2 address for CEC_DSI interface */
 183:./BSP/components/adv7533/adv7533.c ****     tmp = ADV7533_CEC_DSI_I2C_ADDR;
 237              		.loc 1 183 9
 238 0028 7823     		movs	r3, #120
 239 002a FB74     		strb	r3, [r7, #19]
 184:./BSP/components/adv7533/adv7533.c ****     if(adv7533_write_reg(&pObj->Ctx, 0xE1, &tmp, 1) != ADV7533_OK)
 240              		.loc 1 184 8
 241 002c FB68     		ldr	r3, [r7, #12]
 242 002e 03F11800 		add	r0, r3, #24
 243 0032 07F11302 		add	r2, r7, #19
 244 0036 0123     		movs	r3, #1
 245 0038 E121     		movs	r1, #225
 246 003a FFF7FEFF 		bl	adv7533_write_reg
 247 003e 0346     		mov	r3, r0
 248              		.loc 1 184 7
 249 0040 002B     		cmp	r3, #0
 250 0042 03D0     		beq	.L10
 185:./BSP/components/adv7533/adv7533.c ****     {
 186:./BSP/components/adv7533/adv7533.c ****       ret = ADV7533_ERROR;
 251              		.loc 1 186 11
 252 0044 4FF0FF33 		mov	r3, #-1
 253 0048 7B61     		str	r3, [r7, #20]
 254 004a 03E0     		b	.L9
 255              	.L10:
 187:./BSP/components/adv7533/adv7533.c ****     }
 188:./BSP/components/adv7533/adv7533.c ****     else
 189:./BSP/components/adv7533/adv7533.c ****     {
 190:./BSP/components/adv7533/adv7533.c ****       pObj->IsInitialized = 1;
 256              		.loc 1 190 27
 257 004c FB68     		ldr	r3, [r7, #12]
 258 004e 0122     		movs	r2, #1
 259 0050 83F82420 		strb	r2, [r3, #36]
 260              	.L9:
 191:./BSP/components/adv7533/adv7533.c ****     }
 192:./BSP/components/adv7533/adv7533.c ****   }
 193:./BSP/components/adv7533/adv7533.c ****   
 194:./BSP/components/adv7533/adv7533.c ****   return ret;
 261              		.loc 1 194 10
 262 0054 7B69     		ldr	r3, [r7, #20]
 195:./BSP/components/adv7533/adv7533.c **** }
 263              		.loc 1 195 1
 264 0056 1846     		mov	r0, r3
 265 0058 1837     		adds	r7, r7, #24
 266              	.LCFI8:
 267              		.cfi_def_cfa_offset 8
 268 005a BD46     		mov	sp, r7
ARM GAS  /tmp/ccipu0lT.s 			page 9


 269              	.LCFI9:
 270              		.cfi_def_cfa_register 13
 271              		@ sp needed
 272 005c 80BD     		pop	{r7, pc}
 273              		.cfi_endproc
 274              	.LFE1:
 276              		.section	.text.ADV7533_DeInit,"ax",%progbits
 277              		.align	1
 278              		.global	ADV7533_DeInit
 279              		.syntax unified
 280              		.thumb
 281              		.thumb_func
 282              		.fpu fpv5-d16
 284              	ADV7533_DeInit:
 285              	.LFB2:
 196:./BSP/components/adv7533/adv7533.c **** 
 197:./BSP/components/adv7533/adv7533.c **** /**
 198:./BSP/components/adv7533/adv7533.c ****   * @brief  Deinitializes the adv7533
 199:./BSP/components/adv7533/adv7533.c ****   * @param  pObj pointer to component object
 200:./BSP/components/adv7533/adv7533.c ****   * @retval  None
 201:./BSP/components/adv7533/adv7533.c ****   */
 202:./BSP/components/adv7533/adv7533.c **** int32_t ADV7533_DeInit(ADV7533_Object_t *pObj)
 203:./BSP/components/adv7533/adv7533.c **** {
 286              		.loc 1 203 1
 287              		.cfi_startproc
 288              		@ args = 0, pretend = 0, frame = 8
 289              		@ frame_needed = 1, uses_anonymous_args = 0
 290 0000 80B5     		push	{r7, lr}
 291              	.LCFI10:
 292              		.cfi_def_cfa_offset 8
 293              		.cfi_offset 7, -8
 294              		.cfi_offset 14, -4
 295 0002 82B0     		sub	sp, sp, #8
 296              	.LCFI11:
 297              		.cfi_def_cfa_offset 16
 298 0004 00AF     		add	r7, sp, #0
 299              	.LCFI12:
 300              		.cfi_def_cfa_register 7
 301 0006 7860     		str	r0, [r7, #4]
 204:./BSP/components/adv7533/adv7533.c ****   if(pObj->IsInitialized == 1U)
 302              		.loc 1 204 10
 303 0008 7B68     		ldr	r3, [r7, #4]
 304 000a 93F82430 		ldrb	r3, [r3, #36]	@ zero_extendqisi2
 305              		.loc 1 204 5
 306 000e 012B     		cmp	r3, #1
 307 0010 06D1     		bne	.L13
 205:./BSP/components/adv7533/adv7533.c ****   {  
 206:./BSP/components/adv7533/adv7533.c ****     /* Deinitialize Audio adv7533 interface */
 207:./BSP/components/adv7533/adv7533.c ****     pObj->IO.DeInit();
 308              		.loc 1 207 13
 309 0012 7B68     		ldr	r3, [r7, #4]
 310 0014 5B68     		ldr	r3, [r3, #4]
 311              		.loc 1 207 5
 312 0016 9847     		blx	r3
 313              	.LVL2:
 208:./BSP/components/adv7533/adv7533.c ****     
 209:./BSP/components/adv7533/adv7533.c ****     /* Set IsInitialized to 0 */
ARM GAS  /tmp/ccipu0lT.s 			page 10


 210:./BSP/components/adv7533/adv7533.c ****     pObj->IsInitialized = 0;
 314              		.loc 1 210 25
 315 0018 7B68     		ldr	r3, [r7, #4]
 316 001a 0022     		movs	r2, #0
 317 001c 83F82420 		strb	r2, [r3, #36]
 318              	.L13:
 211:./BSP/components/adv7533/adv7533.c ****   }
 212:./BSP/components/adv7533/adv7533.c ****   
 213:./BSP/components/adv7533/adv7533.c ****   return ADV7533_OK;
 319              		.loc 1 213 10
 320 0020 0023     		movs	r3, #0
 214:./BSP/components/adv7533/adv7533.c **** }
 321              		.loc 1 214 1
 322 0022 1846     		mov	r0, r3
 323 0024 0837     		adds	r7, r7, #8
 324              	.LCFI13:
 325              		.cfi_def_cfa_offset 8
 326 0026 BD46     		mov	sp, r7
 327              	.LCFI14:
 328              		.cfi_def_cfa_register 13
 329              		@ sp needed
 330 0028 80BD     		pop	{r7, pc}
 331              		.cfi_endproc
 332              	.LFE2:
 334              		.section	.text.ADV7533_ReadID,"ax",%progbits
 335              		.align	1
 336              		.global	ADV7533_ReadID
 337              		.syntax unified
 338              		.thumb
 339              		.thumb_func
 340              		.fpu fpv5-d16
 342              	ADV7533_ReadID:
 343              	.LFB3:
 215:./BSP/components/adv7533/adv7533.c **** 
 216:./BSP/components/adv7533/adv7533.c **** /**
 217:./BSP/components/adv7533/adv7533.c ****   * @brief  Get the adv7533 ID.
 218:./BSP/components/adv7533/adv7533.c ****   * @param  pObj  pointer to component object
 219:./BSP/components/adv7533/adv7533.c ****   * @retval The adv7533 ID 
 220:./BSP/components/adv7533/adv7533.c ****   */
 221:./BSP/components/adv7533/adv7533.c **** int32_t ADV7533_ReadID(ADV7533_Object_t *pObj, uint32_t *Id)
 222:./BSP/components/adv7533/adv7533.c **** {
 344              		.loc 1 222 1
 345              		.cfi_startproc
 346              		@ args = 0, pretend = 0, frame = 16
 347              		@ frame_needed = 1, uses_anonymous_args = 0
 348 0000 80B5     		push	{r7, lr}
 349              	.LCFI15:
 350              		.cfi_def_cfa_offset 8
 351              		.cfi_offset 7, -8
 352              		.cfi_offset 14, -4
 353 0002 84B0     		sub	sp, sp, #16
 354              	.LCFI16:
 355              		.cfi_def_cfa_offset 24
 356 0004 00AF     		add	r7, sp, #0
 357              	.LCFI17:
 358              		.cfi_def_cfa_register 7
 359 0006 7860     		str	r0, [r7, #4]
ARM GAS  /tmp/ccipu0lT.s 			page 11


 360 0008 3960     		str	r1, [r7]
 223:./BSP/components/adv7533/adv7533.c ****   int32_t ret = ADV7533_OK;  
 361              		.loc 1 223 11
 362 000a 0023     		movs	r3, #0
 363 000c FB60     		str	r3, [r7, #12]
 224:./BSP/components/adv7533/adv7533.c ****   uint8_t tmp1, tmp2;
 225:./BSP/components/adv7533/adv7533.c ****   
 226:./BSP/components/adv7533/adv7533.c ****   /* Set I2C address to ADV7533_CEC_DSI_I2C_ADDR */
 227:./BSP/components/adv7533/adv7533.c ****   ADV7533_SetI2C_Address(pObj, ADV7533_CEC_DSI_I2C_ADDR);
 364              		.loc 1 227 3
 365 000e 7821     		movs	r1, #120
 366 0010 7868     		ldr	r0, [r7, #4]
 367 0012 FFF7FEFF 		bl	ADV7533_SetI2C_Address
 228:./BSP/components/adv7533/adv7533.c ****   
 229:./BSP/components/adv7533/adv7533.c ****   if(adv7533_read_reg(&pObj->Ctx, ADV7533_CHIPID_ADDR0, &tmp1, 1) != ADV7533_OK)
 368              		.loc 1 229 6
 369 0016 7B68     		ldr	r3, [r7, #4]
 370 0018 03F11800 		add	r0, r3, #24
 371 001c 07F10B02 		add	r2, r7, #11
 372 0020 0123     		movs	r3, #1
 373 0022 0021     		movs	r1, #0
 374 0024 FFF7FEFF 		bl	adv7533_read_reg
 375 0028 0346     		mov	r3, r0
 376              		.loc 1 229 5
 377 002a 002B     		cmp	r3, #0
 378 002c 03D0     		beq	.L16
 230:./BSP/components/adv7533/adv7533.c ****   {
 231:./BSP/components/adv7533/adv7533.c ****     ret = ADV7533_ERROR;
 379              		.loc 1 231 9
 380 002e 4FF0FF33 		mov	r3, #-1
 381 0032 FB60     		str	r3, [r7, #12]
 382 0034 1AE0     		b	.L17
 383              	.L16:
 232:./BSP/components/adv7533/adv7533.c ****   }
 233:./BSP/components/adv7533/adv7533.c ****   else if(adv7533_read_reg(&pObj->Ctx, ADV7533_CHIPID_ADDR1, &tmp2, 1) != ADV7533_OK)
 384              		.loc 1 233 11
 385 0036 7B68     		ldr	r3, [r7, #4]
 386 0038 03F11800 		add	r0, r3, #24
 387 003c 07F10A02 		add	r2, r7, #10
 388 0040 0123     		movs	r3, #1
 389 0042 0121     		movs	r1, #1
 390 0044 FFF7FEFF 		bl	adv7533_read_reg
 391 0048 0346     		mov	r3, r0
 392              		.loc 1 233 10
 393 004a 002B     		cmp	r3, #0
 394 004c 03D0     		beq	.L18
 234:./BSP/components/adv7533/adv7533.c ****   {
 235:./BSP/components/adv7533/adv7533.c ****     ret = ADV7533_ERROR;
 395              		.loc 1 235 9
 396 004e 4FF0FF33 		mov	r3, #-1
 397 0052 FB60     		str	r3, [r7, #12]
 398 0054 0AE0     		b	.L17
 399              	.L18:
 236:./BSP/components/adv7533/adv7533.c ****   }
 237:./BSP/components/adv7533/adv7533.c ****   else
 238:./BSP/components/adv7533/adv7533.c ****   {
 239:./BSP/components/adv7533/adv7533.c ****     *Id = (uint16_t)(((uint16_t)tmp1 << 8) | tmp2); 
ARM GAS  /tmp/ccipu0lT.s 			page 12


 400              		.loc 1 239 23
 401 0056 FB7A     		ldrb	r3, [r7, #11]	@ zero_extendqisi2
 402              		.loc 1 239 38
 403 0058 1B02     		lsls	r3, r3, #8
 404              		.loc 1 239 44
 405 005a 1AB2     		sxth	r2, r3
 406 005c BB7A     		ldrb	r3, [r7, #10]	@ zero_extendqisi2
 407 005e 1BB2     		sxth	r3, r3
 408 0060 1343     		orrs	r3, r3, r2
 409 0062 1BB2     		sxth	r3, r3
 410              		.loc 1 239 11
 411 0064 9BB2     		uxth	r3, r3
 412 0066 1A46     		mov	r2, r3
 413              		.loc 1 239 9
 414 0068 3B68     		ldr	r3, [r7]
 415 006a 1A60     		str	r2, [r3]
 416              	.L17:
 240:./BSP/components/adv7533/adv7533.c ****   }
 241:./BSP/components/adv7533/adv7533.c ****   
 242:./BSP/components/adv7533/adv7533.c ****   return ret;
 417              		.loc 1 242 10
 418 006c FB68     		ldr	r3, [r7, #12]
 243:./BSP/components/adv7533/adv7533.c **** }
 419              		.loc 1 243 1
 420 006e 1846     		mov	r0, r3
 421 0070 1037     		adds	r7, r7, #16
 422              	.LCFI18:
 423              		.cfi_def_cfa_offset 8
 424 0072 BD46     		mov	sp, r7
 425              	.LCFI19:
 426              		.cfi_def_cfa_register 13
 427              		@ sp needed
 428 0074 80BD     		pop	{r7, pc}
 429              		.cfi_endproc
 430              	.LFE3:
 432              		.section	.text.ADV7533_DisplayOn,"ax",%progbits
 433              		.align	1
 434              		.global	ADV7533_DisplayOn
 435              		.syntax unified
 436              		.thumb
 437              		.thumb_func
 438              		.fpu fpv5-d16
 440              	ADV7533_DisplayOn:
 441              	.LFB4:
 244:./BSP/components/adv7533/adv7533.c **** 
 245:./BSP/components/adv7533/adv7533.c **** /**
 246:./BSP/components/adv7533/adv7533.c ****   * @brief  Power on the ADV7533 bridge.
 247:./BSP/components/adv7533/adv7533.c ****   * @param  pObj pointer to component object
 248:./BSP/components/adv7533/adv7533.c ****   * @retval Component status
 249:./BSP/components/adv7533/adv7533.c ****   */
 250:./BSP/components/adv7533/adv7533.c **** int32_t ADV7533_DisplayOn(ADV7533_Object_t *pObj)
 251:./BSP/components/adv7533/adv7533.c **** {
 442              		.loc 1 251 1
 443              		.cfi_startproc
 444              		@ args = 0, pretend = 0, frame = 16
 445              		@ frame_needed = 1, uses_anonymous_args = 0
 446 0000 80B5     		push	{r7, lr}
ARM GAS  /tmp/ccipu0lT.s 			page 13


 447              	.LCFI20:
 448              		.cfi_def_cfa_offset 8
 449              		.cfi_offset 7, -8
 450              		.cfi_offset 14, -4
 451 0002 84B0     		sub	sp, sp, #16
 452              	.LCFI21:
 453              		.cfi_def_cfa_offset 24
 454 0004 00AF     		add	r7, sp, #0
 455              	.LCFI22:
 456              		.cfi_def_cfa_register 7
 457 0006 7860     		str	r0, [r7, #4]
 252:./BSP/components/adv7533/adv7533.c ****   int32_t ret = ADV7533_OK;  
 458              		.loc 1 252 11
 459 0008 0023     		movs	r3, #0
 460 000a FB60     		str	r3, [r7, #12]
 253:./BSP/components/adv7533/adv7533.c ****   uint8_t tmp;
 254:./BSP/components/adv7533/adv7533.c ****   
 255:./BSP/components/adv7533/adv7533.c ****   ADV7533_SetI2C_Address(pObj, ADV7533_MAIN_I2C_ADDR);
 461              		.loc 1 255 3
 462 000c 7A21     		movs	r1, #122
 463 000e 7868     		ldr	r0, [r7, #4]
 464 0010 FFF7FEFF 		bl	ADV7533_SetI2C_Address
 256:./BSP/components/adv7533/adv7533.c ****   /* Power on */
 257:./BSP/components/adv7533/adv7533.c ****   if(adv7533_read_reg(&pObj->Ctx, ADV7533_MAIN_POWER_DOWN_REG, &tmp, 1) != ADV7533_OK)
 465              		.loc 1 257 6
 466 0014 7B68     		ldr	r3, [r7, #4]
 467 0016 03F11800 		add	r0, r3, #24
 468 001a 07F10B02 		add	r2, r7, #11
 469 001e 0123     		movs	r3, #1
 470 0020 4121     		movs	r1, #65
 471 0022 FFF7FEFF 		bl	adv7533_read_reg
 472 0026 0346     		mov	r3, r0
 473              		.loc 1 257 5
 474 0028 002B     		cmp	r3, #0
 475 002a 03D0     		beq	.L21
 258:./BSP/components/adv7533/adv7533.c ****   {
 259:./BSP/components/adv7533/adv7533.c ****     ret = ADV7533_ERROR;
 476              		.loc 1 259 9
 477 002c 4FF0FF33 		mov	r3, #-1
 478 0030 FB60     		str	r3, [r7, #12]
 479 0032 13E0     		b	.L22
 480              	.L21:
 260:./BSP/components/adv7533/adv7533.c ****   }
 261:./BSP/components/adv7533/adv7533.c ****   else
 262:./BSP/components/adv7533/adv7533.c ****   {
 263:./BSP/components/adv7533/adv7533.c ****     tmp &= ~0x40U;
 481              		.loc 1 263 9
 482 0034 FB7A     		ldrb	r3, [r7, #11]	@ zero_extendqisi2
 483 0036 23F04003 		bic	r3, r3, #64
 484 003a DBB2     		uxtb	r3, r3
 485 003c FB72     		strb	r3, [r7, #11]
 264:./BSP/components/adv7533/adv7533.c ****     if(adv7533_write_reg(&pObj->Ctx, ADV7533_MAIN_POWER_DOWN_REG, &tmp, 1) != ADV7533_OK)
 486              		.loc 1 264 8
 487 003e 7B68     		ldr	r3, [r7, #4]
 488 0040 03F11800 		add	r0, r3, #24
 489 0044 07F10B02 		add	r2, r7, #11
 490 0048 0123     		movs	r3, #1
ARM GAS  /tmp/ccipu0lT.s 			page 14


 491 004a 4121     		movs	r1, #65
 492 004c FFF7FEFF 		bl	adv7533_write_reg
 493 0050 0346     		mov	r3, r0
 494              		.loc 1 264 7
 495 0052 002B     		cmp	r3, #0
 496 0054 02D0     		beq	.L22
 265:./BSP/components/adv7533/adv7533.c ****     {
 266:./BSP/components/adv7533/adv7533.c ****       ret = ADV7533_ERROR;
 497              		.loc 1 266 11
 498 0056 4FF0FF33 		mov	r3, #-1
 499 005a FB60     		str	r3, [r7, #12]
 500              	.L22:
 267:./BSP/components/adv7533/adv7533.c ****     }
 268:./BSP/components/adv7533/adv7533.c ****   }
 269:./BSP/components/adv7533/adv7533.c ****   
 270:./BSP/components/adv7533/adv7533.c ****   return ret;
 501              		.loc 1 270 10
 502 005c FB68     		ldr	r3, [r7, #12]
 271:./BSP/components/adv7533/adv7533.c **** }
 503              		.loc 1 271 1
 504 005e 1846     		mov	r0, r3
 505 0060 1037     		adds	r7, r7, #16
 506              	.LCFI23:
 507              		.cfi_def_cfa_offset 8
 508 0062 BD46     		mov	sp, r7
 509              	.LCFI24:
 510              		.cfi_def_cfa_register 13
 511              		@ sp needed
 512 0064 80BD     		pop	{r7, pc}
 513              		.cfi_endproc
 514              	.LFE4:
 516              		.section	.text.ADV7533_DisplayOff,"ax",%progbits
 517              		.align	1
 518              		.global	ADV7533_DisplayOff
 519              		.syntax unified
 520              		.thumb
 521              		.thumb_func
 522              		.fpu fpv5-d16
 524              	ADV7533_DisplayOff:
 525              	.LFB5:
 272:./BSP/components/adv7533/adv7533.c **** 
 273:./BSP/components/adv7533/adv7533.c **** /**
 274:./BSP/components/adv7533/adv7533.c ****   * @brief  Power off the ADV7533 bridge.
 275:./BSP/components/adv7533/adv7533.c ****   * @param  pObj pointer to component object
 276:./BSP/components/adv7533/adv7533.c ****   * @retval Component status
 277:./BSP/components/adv7533/adv7533.c ****   */
 278:./BSP/components/adv7533/adv7533.c **** int32_t ADV7533_DisplayOff(ADV7533_Object_t *pObj)
 279:./BSP/components/adv7533/adv7533.c **** {
 526              		.loc 1 279 1
 527              		.cfi_startproc
 528              		@ args = 0, pretend = 0, frame = 16
 529              		@ frame_needed = 1, uses_anonymous_args = 0
 530 0000 80B5     		push	{r7, lr}
 531              	.LCFI25:
 532              		.cfi_def_cfa_offset 8
 533              		.cfi_offset 7, -8
 534              		.cfi_offset 14, -4
ARM GAS  /tmp/ccipu0lT.s 			page 15


 535 0002 84B0     		sub	sp, sp, #16
 536              	.LCFI26:
 537              		.cfi_def_cfa_offset 24
 538 0004 00AF     		add	r7, sp, #0
 539              	.LCFI27:
 540              		.cfi_def_cfa_register 7
 541 0006 7860     		str	r0, [r7, #4]
 280:./BSP/components/adv7533/adv7533.c ****   int32_t ret = ADV7533_OK;  
 542              		.loc 1 280 11
 543 0008 0023     		movs	r3, #0
 544 000a FB60     		str	r3, [r7, #12]
 281:./BSP/components/adv7533/adv7533.c ****   uint8_t tmp;
 282:./BSP/components/adv7533/adv7533.c ****   
 283:./BSP/components/adv7533/adv7533.c ****   ADV7533_SetI2C_Address(pObj, ADV7533_MAIN_I2C_ADDR);
 545              		.loc 1 283 3
 546 000c 7A21     		movs	r1, #122
 547 000e 7868     		ldr	r0, [r7, #4]
 548 0010 FFF7FEFF 		bl	ADV7533_SetI2C_Address
 284:./BSP/components/adv7533/adv7533.c ****   /* Power down */
 285:./BSP/components/adv7533/adv7533.c ****   if(adv7533_read_reg(&pObj->Ctx, ADV7533_MAIN_POWER_DOWN_REG, &tmp, 1) != ADV7533_OK)
 549              		.loc 1 285 6
 550 0014 7B68     		ldr	r3, [r7, #4]
 551 0016 03F11800 		add	r0, r3, #24
 552 001a 07F10B02 		add	r2, r7, #11
 553 001e 0123     		movs	r3, #1
 554 0020 4121     		movs	r1, #65
 555 0022 FFF7FEFF 		bl	adv7533_read_reg
 556 0026 0346     		mov	r3, r0
 557              		.loc 1 285 5
 558 0028 002B     		cmp	r3, #0
 559 002a 03D0     		beq	.L25
 286:./BSP/components/adv7533/adv7533.c ****   {
 287:./BSP/components/adv7533/adv7533.c ****     ret = ADV7533_ERROR;
 560              		.loc 1 287 9
 561 002c 4FF0FF33 		mov	r3, #-1
 562 0030 FB60     		str	r3, [r7, #12]
 563 0032 13E0     		b	.L26
 564              	.L25:
 288:./BSP/components/adv7533/adv7533.c ****   }
 289:./BSP/components/adv7533/adv7533.c ****   else
 290:./BSP/components/adv7533/adv7533.c ****   {
 291:./BSP/components/adv7533/adv7533.c ****     tmp |= 0x40U;
 565              		.loc 1 291 9
 566 0034 FB7A     		ldrb	r3, [r7, #11]	@ zero_extendqisi2
 567 0036 43F04003 		orr	r3, r3, #64
 568 003a DBB2     		uxtb	r3, r3
 569 003c FB72     		strb	r3, [r7, #11]
 292:./BSP/components/adv7533/adv7533.c ****     if(adv7533_write_reg(&pObj->Ctx, ADV7533_MAIN_POWER_DOWN_REG, &tmp, 1) != ADV7533_OK)
 570              		.loc 1 292 8
 571 003e 7B68     		ldr	r3, [r7, #4]
 572 0040 03F11800 		add	r0, r3, #24
 573 0044 07F10B02 		add	r2, r7, #11
 574 0048 0123     		movs	r3, #1
 575 004a 4121     		movs	r1, #65
 576 004c FFF7FEFF 		bl	adv7533_write_reg
 577 0050 0346     		mov	r3, r0
 578              		.loc 1 292 7
ARM GAS  /tmp/ccipu0lT.s 			page 16


 579 0052 002B     		cmp	r3, #0
 580 0054 02D0     		beq	.L26
 293:./BSP/components/adv7533/adv7533.c ****     {
 294:./BSP/components/adv7533/adv7533.c ****       ret = ADV7533_ERROR;
 581              		.loc 1 294 11
 582 0056 4FF0FF33 		mov	r3, #-1
 583 005a FB60     		str	r3, [r7, #12]
 584              	.L26:
 295:./BSP/components/adv7533/adv7533.c ****     }
 296:./BSP/components/adv7533/adv7533.c ****   }
 297:./BSP/components/adv7533/adv7533.c ****   
 298:./BSP/components/adv7533/adv7533.c ****   return ret;
 585              		.loc 1 298 10
 586 005c FB68     		ldr	r3, [r7, #12]
 299:./BSP/components/adv7533/adv7533.c **** }
 587              		.loc 1 299 1
 588 005e 1846     		mov	r0, r3
 589 0060 1037     		adds	r7, r7, #16
 590              	.LCFI28:
 591              		.cfi_def_cfa_offset 8
 592 0062 BD46     		mov	sp, r7
 593              	.LCFI29:
 594              		.cfi_def_cfa_register 13
 595              		@ sp needed
 596 0064 80BD     		pop	{r7, pc}
 597              		.cfi_endproc
 598              	.LFE5:
 600              		.section	.text.ADV7533_Configure,"ax",%progbits
 601              		.align	1
 602              		.global	ADV7533_Configure
 603              		.syntax unified
 604              		.thumb
 605              		.thumb_func
 606              		.fpu fpv5-d16
 608              	ADV7533_Configure:
 609              	.LFB6:
 300:./BSP/components/adv7533/adv7533.c **** 
 301:./BSP/components/adv7533/adv7533.c **** /**
 302:./BSP/components/adv7533/adv7533.c ****   * @brief  Configure the DSI-HDMI ADV7533 bridge for video.
 303:./BSP/components/adv7533/adv7533.c ****   * @param  pObj pointer to component object
 304:./BSP/components/adv7533/adv7533.c ****   * @param  LaneNumber Number of lanes to be configured
 305:./BSP/components/adv7533/adv7533.c ****   * @retval Component status
 306:./BSP/components/adv7533/adv7533.c ****   */
 307:./BSP/components/adv7533/adv7533.c **** int32_t ADV7533_Configure(ADV7533_Object_t *pObj, uint8_t LaneNumber)
 308:./BSP/components/adv7533/adv7533.c **** {
 610              		.loc 1 308 1
 611              		.cfi_startproc
 612              		@ args = 0, pretend = 0, frame = 16
 613              		@ frame_needed = 1, uses_anonymous_args = 0
 614 0000 80B5     		push	{r7, lr}
 615              	.LCFI30:
 616              		.cfi_def_cfa_offset 8
 617              		.cfi_offset 7, -8
 618              		.cfi_offset 14, -4
 619 0002 84B0     		sub	sp, sp, #16
 620              	.LCFI31:
 621              		.cfi_def_cfa_offset 24
ARM GAS  /tmp/ccipu0lT.s 			page 17


 622 0004 00AF     		add	r7, sp, #0
 623              	.LCFI32:
 624              		.cfi_def_cfa_register 7
 625 0006 7860     		str	r0, [r7, #4]
 626 0008 0B46     		mov	r3, r1
 627 000a FB70     		strb	r3, [r7, #3]
 309:./BSP/components/adv7533/adv7533.c ****   int32_t ret;  
 310:./BSP/components/adv7533/adv7533.c ****   uint8_t tmp, val;
 311:./BSP/components/adv7533/adv7533.c ****   
 312:./BSP/components/adv7533/adv7533.c ****   /* ADV7533 Power Settings */
 313:./BSP/components/adv7533/adv7533.c ****   /* Set I2C address to ADV7533_MAIN_I2C_ADDR */
 314:./BSP/components/adv7533/adv7533.c ****   ADV7533_SetI2C_Address(pObj, ADV7533_MAIN_I2C_ADDR);
 628              		.loc 1 314 3
 629 000c 7A21     		movs	r1, #122
 630 000e 7868     		ldr	r0, [r7, #4]
 631 0010 FFF7FEFF 		bl	ADV7533_SetI2C_Address
 315:./BSP/components/adv7533/adv7533.c ****   
 316:./BSP/components/adv7533/adv7533.c ****   /* Power down */
 317:./BSP/components/adv7533/adv7533.c ****   ret = adv7533_read_reg(&pObj->Ctx, 0x41, &tmp, 1);
 632              		.loc 1 317 9
 633 0014 7B68     		ldr	r3, [r7, #4]
 634 0016 03F11800 		add	r0, r3, #24
 635 001a 07F10B02 		add	r2, r7, #11
 636 001e 0123     		movs	r3, #1
 637 0020 4121     		movs	r1, #65
 638 0022 FFF7FEFF 		bl	adv7533_read_reg
 639 0026 F860     		str	r0, [r7, #12]
 318:./BSP/components/adv7533/adv7533.c ****   tmp &= ~0x40U;
 640              		.loc 1 318 7
 641 0028 FB7A     		ldrb	r3, [r7, #11]	@ zero_extendqisi2
 642 002a 23F04003 		bic	r3, r3, #64
 643 002e DBB2     		uxtb	r3, r3
 644 0030 FB72     		strb	r3, [r7, #11]
 319:./BSP/components/adv7533/adv7533.c ****   ret += adv7533_write_reg(&pObj->Ctx, 0x41, &tmp, 1);
 645              		.loc 1 319 10
 646 0032 7B68     		ldr	r3, [r7, #4]
 647 0034 03F11800 		add	r0, r3, #24
 648 0038 07F10B02 		add	r2, r7, #11
 649 003c 0123     		movs	r3, #1
 650 003e 4121     		movs	r1, #65
 651 0040 FFF7FEFF 		bl	adv7533_write_reg
 652 0044 0246     		mov	r2, r0
 653              		.loc 1 319 7
 654 0046 FB68     		ldr	r3, [r7, #12]
 655 0048 1344     		add	r3, r3, r2
 656 004a FB60     		str	r3, [r7, #12]
 320:./BSP/components/adv7533/adv7533.c ****   /* HPD Override */
 321:./BSP/components/adv7533/adv7533.c ****   ret += adv7533_read_reg(&pObj->Ctx, 0xD6, &tmp, 1);
 657              		.loc 1 321 10
 658 004c 7B68     		ldr	r3, [r7, #4]
 659 004e 03F11800 		add	r0, r3, #24
 660 0052 07F10B02 		add	r2, r7, #11
 661 0056 0123     		movs	r3, #1
 662 0058 D621     		movs	r1, #214
 663 005a FFF7FEFF 		bl	adv7533_read_reg
 664 005e 0246     		mov	r2, r0
 665              		.loc 1 321 7
ARM GAS  /tmp/ccipu0lT.s 			page 18


 666 0060 FB68     		ldr	r3, [r7, #12]
 667 0062 1344     		add	r3, r3, r2
 668 0064 FB60     		str	r3, [r7, #12]
 322:./BSP/components/adv7533/adv7533.c ****   tmp |= 0x40U;
 669              		.loc 1 322 7
 670 0066 FB7A     		ldrb	r3, [r7, #11]	@ zero_extendqisi2
 671 0068 43F04003 		orr	r3, r3, #64
 672 006c DBB2     		uxtb	r3, r3
 673 006e FB72     		strb	r3, [r7, #11]
 323:./BSP/components/adv7533/adv7533.c ****   ret += adv7533_write_reg(&pObj->Ctx, 0xD6, &tmp, 1);
 674              		.loc 1 323 10
 675 0070 7B68     		ldr	r3, [r7, #4]
 676 0072 03F11800 		add	r0, r3, #24
 677 0076 07F10B02 		add	r2, r7, #11
 678 007a 0123     		movs	r3, #1
 679 007c D621     		movs	r1, #214
 680 007e FFF7FEFF 		bl	adv7533_write_reg
 681 0082 0246     		mov	r2, r0
 682              		.loc 1 323 7
 683 0084 FB68     		ldr	r3, [r7, #12]
 684 0086 1344     		add	r3, r3, r2
 685 0088 FB60     		str	r3, [r7, #12]
 324:./BSP/components/adv7533/adv7533.c ****   
 325:./BSP/components/adv7533/adv7533.c ****   /* Set I2C address to ADV7533_CEC_DSI_I2C_ADDR */
 326:./BSP/components/adv7533/adv7533.c ****   ADV7533_SetI2C_Address(pObj, ADV7533_CEC_DSI_I2C_ADDR);
 686              		.loc 1 326 3
 687 008a 7821     		movs	r1, #120
 688 008c 7868     		ldr	r0, [r7, #4]
 689 008e FFF7FEFF 		bl	ADV7533_SetI2C_Address
 327:./BSP/components/adv7533/adv7533.c ****   
 328:./BSP/components/adv7533/adv7533.c ****   /* Gate DSI LP Oscillator and DSI Bias Clock Powerdown */
 329:./BSP/components/adv7533/adv7533.c ****   ret += adv7533_read_reg(&pObj->Ctx, 0x03, &tmp, 1);
 690              		.loc 1 329 10
 691 0092 7B68     		ldr	r3, [r7, #4]
 692 0094 03F11800 		add	r0, r3, #24
 693 0098 07F10B02 		add	r2, r7, #11
 694 009c 0123     		movs	r3, #1
 695 009e 0321     		movs	r1, #3
 696 00a0 FFF7FEFF 		bl	adv7533_read_reg
 697 00a4 0246     		mov	r2, r0
 698              		.loc 1 329 7
 699 00a6 FB68     		ldr	r3, [r7, #12]
 700 00a8 1344     		add	r3, r3, r2
 701 00aa FB60     		str	r3, [r7, #12]
 330:./BSP/components/adv7533/adv7533.c ****   tmp &= ~0x02U;
 702              		.loc 1 330 7
 703 00ac FB7A     		ldrb	r3, [r7, #11]	@ zero_extendqisi2
 704 00ae 23F00203 		bic	r3, r3, #2
 705 00b2 DBB2     		uxtb	r3, r3
 706 00b4 FB72     		strb	r3, [r7, #11]
 331:./BSP/components/adv7533/adv7533.c ****   ret += adv7533_write_reg(&pObj->Ctx, 0x03, &tmp, 1);
 707              		.loc 1 331 10
 708 00b6 7B68     		ldr	r3, [r7, #4]
 709 00b8 03F11800 		add	r0, r3, #24
 710 00bc 07F10B02 		add	r2, r7, #11
 711 00c0 0123     		movs	r3, #1
 712 00c2 0321     		movs	r1, #3
ARM GAS  /tmp/ccipu0lT.s 			page 19


 713 00c4 FFF7FEFF 		bl	adv7533_write_reg
 714 00c8 0246     		mov	r2, r0
 715              		.loc 1 331 7
 716 00ca FB68     		ldr	r3, [r7, #12]
 717 00cc 1344     		add	r3, r3, r2
 718 00ce FB60     		str	r3, [r7, #12]
 332:./BSP/components/adv7533/adv7533.c **** 
 333:./BSP/components/adv7533/adv7533.c ****   /* Set I2C address to ADV7533_MAIN_I2C_ADDR */
 334:./BSP/components/adv7533/adv7533.c ****   ADV7533_SetI2C_Address(pObj, ADV7533_MAIN_I2C_ADDR);  
 719              		.loc 1 334 3
 720 00d0 7A21     		movs	r1, #122
 721 00d2 7868     		ldr	r0, [r7, #4]
 722 00d4 FFF7FEFF 		bl	ADV7533_SetI2C_Address
 335:./BSP/components/adv7533/adv7533.c ****   /* Fixed registers that must be set on power-up */
 336:./BSP/components/adv7533/adv7533.c ****   ret += adv7533_read_reg(&pObj->Ctx, 0x16, &tmp, 1);
 723              		.loc 1 336 10
 724 00d8 7B68     		ldr	r3, [r7, #4]
 725 00da 03F11800 		add	r0, r3, #24
 726 00de 07F10B02 		add	r2, r7, #11
 727 00e2 0123     		movs	r3, #1
 728 00e4 1621     		movs	r1, #22
 729 00e6 FFF7FEFF 		bl	adv7533_read_reg
 730 00ea 0246     		mov	r2, r0
 731              		.loc 1 336 7
 732 00ec FB68     		ldr	r3, [r7, #12]
 733 00ee 1344     		add	r3, r3, r2
 734 00f0 FB60     		str	r3, [r7, #12]
 337:./BSP/components/adv7533/adv7533.c ****   tmp &= ~0x3EU;
 735              		.loc 1 337 7
 736 00f2 FB7A     		ldrb	r3, [r7, #11]	@ zero_extendqisi2
 737 00f4 23F03E03 		bic	r3, r3, #62
 738 00f8 DBB2     		uxtb	r3, r3
 739 00fa FB72     		strb	r3, [r7, #11]
 338:./BSP/components/adv7533/adv7533.c ****   tmp |= 0x20U; 
 740              		.loc 1 338 7
 741 00fc FB7A     		ldrb	r3, [r7, #11]	@ zero_extendqisi2
 742 00fe 43F02003 		orr	r3, r3, #32
 743 0102 DBB2     		uxtb	r3, r3
 744 0104 FB72     		strb	r3, [r7, #11]
 339:./BSP/components/adv7533/adv7533.c ****   ret += adv7533_write_reg(&pObj->Ctx, 0x16, &tmp, 1);
 745              		.loc 1 339 10
 746 0106 7B68     		ldr	r3, [r7, #4]
 747 0108 03F11800 		add	r0, r3, #24
 748 010c 07F10B02 		add	r2, r7, #11
 749 0110 0123     		movs	r3, #1
 750 0112 1621     		movs	r1, #22
 751 0114 FFF7FEFF 		bl	adv7533_write_reg
 752 0118 0246     		mov	r2, r0
 753              		.loc 1 339 7
 754 011a FB68     		ldr	r3, [r7, #12]
 755 011c 1344     		add	r3, r3, r2
 756 011e FB60     		str	r3, [r7, #12]
 340:./BSP/components/adv7533/adv7533.c ****   val = 0xE0;
 757              		.loc 1 340 7
 758 0120 E023     		movs	r3, #224
 759 0122 BB72     		strb	r3, [r7, #10]
 341:./BSP/components/adv7533/adv7533.c ****   ret += adv7533_write_reg(&pObj->Ctx, 0x9A, &val, 1);
ARM GAS  /tmp/ccipu0lT.s 			page 20


 760              		.loc 1 341 10
 761 0124 7B68     		ldr	r3, [r7, #4]
 762 0126 03F11800 		add	r0, r3, #24
 763 012a 07F10A02 		add	r2, r7, #10
 764 012e 0123     		movs	r3, #1
 765 0130 9A21     		movs	r1, #154
 766 0132 FFF7FEFF 		bl	adv7533_write_reg
 767 0136 0246     		mov	r2, r0
 768              		.loc 1 341 7
 769 0138 FB68     		ldr	r3, [r7, #12]
 770 013a 1344     		add	r3, r3, r2
 771 013c FB60     		str	r3, [r7, #12]
 342:./BSP/components/adv7533/adv7533.c ****   ret += adv7533_read_reg(&pObj->Ctx, 0xBA, &tmp, 1);
 772              		.loc 1 342 10
 773 013e 7B68     		ldr	r3, [r7, #4]
 774 0140 03F11800 		add	r0, r3, #24
 775 0144 07F10B02 		add	r2, r7, #11
 776 0148 0123     		movs	r3, #1
 777 014a BA21     		movs	r1, #186
 778 014c FFF7FEFF 		bl	adv7533_read_reg
 779 0150 0246     		mov	r2, r0
 780              		.loc 1 342 7
 781 0152 FB68     		ldr	r3, [r7, #12]
 782 0154 1344     		add	r3, r3, r2
 783 0156 FB60     		str	r3, [r7, #12]
 343:./BSP/components/adv7533/adv7533.c ****   tmp &= ~0xF8U;
 784              		.loc 1 343 7
 785 0158 FB7A     		ldrb	r3, [r7, #11]	@ zero_extendqisi2
 786 015a 03F00703 		and	r3, r3, #7
 787 015e DBB2     		uxtb	r3, r3
 788 0160 FB72     		strb	r3, [r7, #11]
 344:./BSP/components/adv7533/adv7533.c ****   tmp |= 0x70U; 
 789              		.loc 1 344 7
 790 0162 FB7A     		ldrb	r3, [r7, #11]	@ zero_extendqisi2
 791 0164 43F07003 		orr	r3, r3, #112
 792 0168 DBB2     		uxtb	r3, r3
 793 016a FB72     		strb	r3, [r7, #11]
 345:./BSP/components/adv7533/adv7533.c ****   ret += adv7533_write_reg(&pObj->Ctx, 0xBA, &tmp, 1);
 794              		.loc 1 345 10
 795 016c 7B68     		ldr	r3, [r7, #4]
 796 016e 03F11800 		add	r0, r3, #24
 797 0172 07F10B02 		add	r2, r7, #11
 798 0176 0123     		movs	r3, #1
 799 0178 BA21     		movs	r1, #186
 800 017a FFF7FEFF 		bl	adv7533_write_reg
 801 017e 0246     		mov	r2, r0
 802              		.loc 1 345 7
 803 0180 FB68     		ldr	r3, [r7, #12]
 804 0182 1344     		add	r3, r3, r2
 805 0184 FB60     		str	r3, [r7, #12]
 346:./BSP/components/adv7533/adv7533.c ****   val = 0x82;
 806              		.loc 1 346 7
 807 0186 8223     		movs	r3, #130
 808 0188 BB72     		strb	r3, [r7, #10]
 347:./BSP/components/adv7533/adv7533.c ****   ret += adv7533_write_reg(&pObj->Ctx, 0xDE, &val, 1);
 809              		.loc 1 347 10
 810 018a 7B68     		ldr	r3, [r7, #4]
ARM GAS  /tmp/ccipu0lT.s 			page 21


 811 018c 03F11800 		add	r0, r3, #24
 812 0190 07F10A02 		add	r2, r7, #10
 813 0194 0123     		movs	r3, #1
 814 0196 DE21     		movs	r1, #222
 815 0198 FFF7FEFF 		bl	adv7533_write_reg
 816 019c 0246     		mov	r2, r0
 817              		.loc 1 347 7
 818 019e FB68     		ldr	r3, [r7, #12]
 819 01a0 1344     		add	r3, r3, r2
 820 01a2 FB60     		str	r3, [r7, #12]
 348:./BSP/components/adv7533/adv7533.c ****   
 349:./BSP/components/adv7533/adv7533.c ****   ret += adv7533_read_reg(&pObj->Ctx, 0xE4, &tmp, 1); 
 821              		.loc 1 349 10
 822 01a4 7B68     		ldr	r3, [r7, #4]
 823 01a6 03F11800 		add	r0, r3, #24
 824 01aa 07F10B02 		add	r2, r7, #11
 825 01ae 0123     		movs	r3, #1
 826 01b0 E421     		movs	r1, #228
 827 01b2 FFF7FEFF 		bl	adv7533_read_reg
 828 01b6 0246     		mov	r2, r0
 829              		.loc 1 349 7
 830 01b8 FB68     		ldr	r3, [r7, #12]
 831 01ba 1344     		add	r3, r3, r2
 832 01bc FB60     		str	r3, [r7, #12]
 350:./BSP/components/adv7533/adv7533.c ****   tmp |= 0x40U;
 833              		.loc 1 350 7
 834 01be FB7A     		ldrb	r3, [r7, #11]	@ zero_extendqisi2
 835 01c0 43F04003 		orr	r3, r3, #64
 836 01c4 DBB2     		uxtb	r3, r3
 837 01c6 FB72     		strb	r3, [r7, #11]
 351:./BSP/components/adv7533/adv7533.c ****   ret += adv7533_write_reg(&pObj->Ctx, 0xE4, &tmp, 1);
 838              		.loc 1 351 10
 839 01c8 7B68     		ldr	r3, [r7, #4]
 840 01ca 03F11800 		add	r0, r3, #24
 841 01ce 07F10B02 		add	r2, r7, #11
 842 01d2 0123     		movs	r3, #1
 843 01d4 E421     		movs	r1, #228
 844 01d6 FFF7FEFF 		bl	adv7533_write_reg
 845 01da 0246     		mov	r2, r0
 846              		.loc 1 351 7
 847 01dc FB68     		ldr	r3, [r7, #12]
 848 01de 1344     		add	r3, r3, r2
 849 01e0 FB60     		str	r3, [r7, #12]
 352:./BSP/components/adv7533/adv7533.c ****   val = 0x80;
 850              		.loc 1 352 7
 851 01e2 8023     		movs	r3, #128
 852 01e4 BB72     		strb	r3, [r7, #10]
 353:./BSP/components/adv7533/adv7533.c ****   ret += adv7533_write_reg(&pObj->Ctx, 0xE5, &val, 1);
 853              		.loc 1 353 10
 854 01e6 7B68     		ldr	r3, [r7, #4]
 855 01e8 03F11800 		add	r0, r3, #24
 856 01ec 07F10A02 		add	r2, r7, #10
 857 01f0 0123     		movs	r3, #1
 858 01f2 E521     		movs	r1, #229
 859 01f4 FFF7FEFF 		bl	adv7533_write_reg
 860 01f8 0246     		mov	r2, r0
 861              		.loc 1 353 7
ARM GAS  /tmp/ccipu0lT.s 			page 22


 862 01fa FB68     		ldr	r3, [r7, #12]
 863 01fc 1344     		add	r3, r3, r2
 864 01fe FB60     		str	r3, [r7, #12]
 354:./BSP/components/adv7533/adv7533.c ****   
 355:./BSP/components/adv7533/adv7533.c ****   /* Set I2C address to ADV7533_CEC_DSI_I2C_ADDR */
 356:./BSP/components/adv7533/adv7533.c ****   ADV7533_SetI2C_Address(pObj, ADV7533_CEC_DSI_I2C_ADDR);
 865              		.loc 1 356 3
 866 0200 7821     		movs	r1, #120
 867 0202 7868     		ldr	r0, [r7, #4]
 868 0204 FFF7FEFF 		bl	ADV7533_SetI2C_Address
 357:./BSP/components/adv7533/adv7533.c ****   
 358:./BSP/components/adv7533/adv7533.c ****   ret += adv7533_read_reg(&pObj->Ctx, 0x15, &tmp, 1);
 869              		.loc 1 358 10
 870 0208 7B68     		ldr	r3, [r7, #4]
 871 020a 03F11800 		add	r0, r3, #24
 872 020e 07F10B02 		add	r2, r7, #11
 873 0212 0123     		movs	r3, #1
 874 0214 1521     		movs	r1, #21
 875 0216 FFF7FEFF 		bl	adv7533_read_reg
 876 021a 0246     		mov	r2, r0
 877              		.loc 1 358 7
 878 021c FB68     		ldr	r3, [r7, #12]
 879 021e 1344     		add	r3, r3, r2
 880 0220 FB60     		str	r3, [r7, #12]
 359:./BSP/components/adv7533/adv7533.c ****   tmp &= ~0x30U;
 881              		.loc 1 359 7
 882 0222 FB7A     		ldrb	r3, [r7, #11]	@ zero_extendqisi2
 883 0224 23F03003 		bic	r3, r3, #48
 884 0228 DBB2     		uxtb	r3, r3
 885 022a FB72     		strb	r3, [r7, #11]
 360:./BSP/components/adv7533/adv7533.c ****   tmp |= 0x10U; 
 886              		.loc 1 360 7
 887 022c FB7A     		ldrb	r3, [r7, #11]	@ zero_extendqisi2
 888 022e 43F01003 		orr	r3, r3, #16
 889 0232 DBB2     		uxtb	r3, r3
 890 0234 FB72     		strb	r3, [r7, #11]
 361:./BSP/components/adv7533/adv7533.c ****   ret += adv7533_read_reg(&pObj->Ctx, 0x17, &tmp, 1);
 891              		.loc 1 361 10
 892 0236 7B68     		ldr	r3, [r7, #4]
 893 0238 03F11800 		add	r0, r3, #24
 894 023c 07F10B02 		add	r2, r7, #11
 895 0240 0123     		movs	r3, #1
 896 0242 1721     		movs	r1, #23
 897 0244 FFF7FEFF 		bl	adv7533_read_reg
 898 0248 0246     		mov	r2, r0
 899              		.loc 1 361 7
 900 024a FB68     		ldr	r3, [r7, #12]
 901 024c 1344     		add	r3, r3, r2
 902 024e FB60     		str	r3, [r7, #12]
 362:./BSP/components/adv7533/adv7533.c ****   tmp &= ~0xF0U;
 903              		.loc 1 362 7
 904 0250 FB7A     		ldrb	r3, [r7, #11]	@ zero_extendqisi2
 905 0252 03F00F03 		and	r3, r3, #15
 906 0256 DBB2     		uxtb	r3, r3
 907 0258 FB72     		strb	r3, [r7, #11]
 363:./BSP/components/adv7533/adv7533.c ****   tmp |= 0xD0U; 
 908              		.loc 1 363 7
ARM GAS  /tmp/ccipu0lT.s 			page 23


 909 025a FB7A     		ldrb	r3, [r7, #11]	@ zero_extendqisi2
 910 025c 63F02F03 		orn	r3, r3, #47
 911 0260 DBB2     		uxtb	r3, r3
 912 0262 FB72     		strb	r3, [r7, #11]
 364:./BSP/components/adv7533/adv7533.c ****   ret += adv7533_write_reg(&pObj->Ctx, 0x17, &tmp, 1);
 913              		.loc 1 364 10
 914 0264 7B68     		ldr	r3, [r7, #4]
 915 0266 03F11800 		add	r0, r3, #24
 916 026a 07F10B02 		add	r2, r7, #11
 917 026e 0123     		movs	r3, #1
 918 0270 1721     		movs	r1, #23
 919 0272 FFF7FEFF 		bl	adv7533_write_reg
 920 0276 0246     		mov	r2, r0
 921              		.loc 1 364 7
 922 0278 FB68     		ldr	r3, [r7, #12]
 923 027a 1344     		add	r3, r3, r2
 924 027c FB60     		str	r3, [r7, #12]
 365:./BSP/components/adv7533/adv7533.c ****   ret += adv7533_read_reg(&pObj->Ctx, 0x24, &tmp, 1);
 925              		.loc 1 365 10
 926 027e 7B68     		ldr	r3, [r7, #4]
 927 0280 03F11800 		add	r0, r3, #24
 928 0284 07F10B02 		add	r2, r7, #11
 929 0288 0123     		movs	r3, #1
 930 028a 2421     		movs	r1, #36
 931 028c FFF7FEFF 		bl	adv7533_read_reg
 932 0290 0246     		mov	r2, r0
 933              		.loc 1 365 7
 934 0292 FB68     		ldr	r3, [r7, #12]
 935 0294 1344     		add	r3, r3, r2
 936 0296 FB60     		str	r3, [r7, #12]
 366:./BSP/components/adv7533/adv7533.c ****   tmp &= ~0x10U;
 937              		.loc 1 366 7
 938 0298 FB7A     		ldrb	r3, [r7, #11]	@ zero_extendqisi2
 939 029a 23F01003 		bic	r3, r3, #16
 940 029e DBB2     		uxtb	r3, r3
 941 02a0 FB72     		strb	r3, [r7, #11]
 367:./BSP/components/adv7533/adv7533.c ****   ret += adv7533_write_reg(&pObj->Ctx, 0x24, &tmp, 1);
 942              		.loc 1 367 10
 943 02a2 7B68     		ldr	r3, [r7, #4]
 944 02a4 03F11800 		add	r0, r3, #24
 945 02a8 07F10B02 		add	r2, r7, #11
 946 02ac 0123     		movs	r3, #1
 947 02ae 2421     		movs	r1, #36
 948 02b0 FFF7FEFF 		bl	adv7533_write_reg
 949 02b4 0246     		mov	r2, r0
 950              		.loc 1 367 7
 951 02b6 FB68     		ldr	r3, [r7, #12]
 952 02b8 1344     		add	r3, r3, r2
 953 02ba FB60     		str	r3, [r7, #12]
 368:./BSP/components/adv7533/adv7533.c ****   ret += adv7533_read_reg(&pObj->Ctx, 0x57, &tmp, 1);
 954              		.loc 1 368 10
 955 02bc 7B68     		ldr	r3, [r7, #4]
 956 02be 03F11800 		add	r0, r3, #24
 957 02c2 07F10B02 		add	r2, r7, #11
 958 02c6 0123     		movs	r3, #1
 959 02c8 5721     		movs	r1, #87
 960 02ca FFF7FEFF 		bl	adv7533_read_reg
ARM GAS  /tmp/ccipu0lT.s 			page 24


 961 02ce 0246     		mov	r2, r0
 962              		.loc 1 368 7
 963 02d0 FB68     		ldr	r3, [r7, #12]
 964 02d2 1344     		add	r3, r3, r2
 965 02d4 FB60     		str	r3, [r7, #12]
 369:./BSP/components/adv7533/adv7533.c ****   tmp |= 0x01U;
 966              		.loc 1 369 7
 967 02d6 FB7A     		ldrb	r3, [r7, #11]	@ zero_extendqisi2
 968 02d8 43F00103 		orr	r3, r3, #1
 969 02dc DBB2     		uxtb	r3, r3
 970 02de FB72     		strb	r3, [r7, #11]
 370:./BSP/components/adv7533/adv7533.c ****   tmp |= 0x10U;
 971              		.loc 1 370 7
 972 02e0 FB7A     		ldrb	r3, [r7, #11]	@ zero_extendqisi2
 973 02e2 43F01003 		orr	r3, r3, #16
 974 02e6 DBB2     		uxtb	r3, r3
 975 02e8 FB72     		strb	r3, [r7, #11]
 371:./BSP/components/adv7533/adv7533.c ****   ret += adv7533_write_reg(&pObj->Ctx, 0x57, &tmp, 1);
 976              		.loc 1 371 10
 977 02ea 7B68     		ldr	r3, [r7, #4]
 978 02ec 03F11800 		add	r0, r3, #24
 979 02f0 07F10B02 		add	r2, r7, #11
 980 02f4 0123     		movs	r3, #1
 981 02f6 5721     		movs	r1, #87
 982 02f8 FFF7FEFF 		bl	adv7533_write_reg
 983 02fc 0246     		mov	r2, r0
 984              		.loc 1 371 7
 985 02fe FB68     		ldr	r3, [r7, #12]
 986 0300 1344     		add	r3, r3, r2
 987 0302 FB60     		str	r3, [r7, #12]
 372:./BSP/components/adv7533/adv7533.c ****   
 373:./BSP/components/adv7533/adv7533.c ****   /* Configure the number of DSI lanes */
 374:./BSP/components/adv7533/adv7533.c ****   val = (LaneNumber << 4);
 988              		.loc 1 374 21
 989 0304 FB78     		ldrb	r3, [r7, #3]
 990 0306 1B01     		lsls	r3, r3, #4
 991 0308 DBB2     		uxtb	r3, r3
 992              		.loc 1 374 7
 993 030a BB72     		strb	r3, [r7, #10]
 375:./BSP/components/adv7533/adv7533.c ****   ret += adv7533_write_reg(&pObj->Ctx, 0x1C, &val, 1);
 994              		.loc 1 375 10
 995 030c 7B68     		ldr	r3, [r7, #4]
 996 030e 03F11800 		add	r0, r3, #24
 997 0312 07F10A02 		add	r2, r7, #10
 998 0316 0123     		movs	r3, #1
 999 0318 1C21     		movs	r1, #28
 1000 031a FFF7FEFF 		bl	adv7533_write_reg
 1001 031e 0246     		mov	r2, r0
 1002              		.loc 1 375 7
 1003 0320 FB68     		ldr	r3, [r7, #12]
 1004 0322 1344     		add	r3, r3, r2
 1005 0324 FB60     		str	r3, [r7, #12]
 376:./BSP/components/adv7533/adv7533.c ****   
 377:./BSP/components/adv7533/adv7533.c ****   /* Setup video output mode */
 378:./BSP/components/adv7533/adv7533.c ****   /* Set I2C address to ADV7533_MAIN_I2C_ADDR */
 379:./BSP/components/adv7533/adv7533.c ****   ADV7533_SetI2C_Address(pObj, ADV7533_MAIN_I2C_ADDR);
 1006              		.loc 1 379 3
ARM GAS  /tmp/ccipu0lT.s 			page 25


 1007 0326 7A21     		movs	r1, #122
 1008 0328 7868     		ldr	r0, [r7, #4]
 1009 032a FFF7FEFF 		bl	ADV7533_SetI2C_Address
 380:./BSP/components/adv7533/adv7533.c ****   
 381:./BSP/components/adv7533/adv7533.c ****   /* Select HDMI mode */
 382:./BSP/components/adv7533/adv7533.c ****   ret += adv7533_read_reg(&pObj->Ctx, 0xAF, &tmp, 1);
 1010              		.loc 1 382 10
 1011 032e 7B68     		ldr	r3, [r7, #4]
 1012 0330 03F11800 		add	r0, r3, #24
 1013 0334 07F10B02 		add	r2, r7, #11
 1014 0338 0123     		movs	r3, #1
 1015 033a AF21     		movs	r1, #175
 1016 033c FFF7FEFF 		bl	adv7533_read_reg
 1017 0340 0246     		mov	r2, r0
 1018              		.loc 1 382 7
 1019 0342 FB68     		ldr	r3, [r7, #12]
 1020 0344 1344     		add	r3, r3, r2
 1021 0346 FB60     		str	r3, [r7, #12]
 383:./BSP/components/adv7533/adv7533.c ****   tmp |= 0x02U;
 1022              		.loc 1 383 7
 1023 0348 FB7A     		ldrb	r3, [r7, #11]	@ zero_extendqisi2
 1024 034a 43F00203 		orr	r3, r3, #2
 1025 034e DBB2     		uxtb	r3, r3
 1026 0350 FB72     		strb	r3, [r7, #11]
 384:./BSP/components/adv7533/adv7533.c ****   ret += adv7533_write_reg(&pObj->Ctx, 0xAF, &tmp, 1);
 1027              		.loc 1 384 10
 1028 0352 7B68     		ldr	r3, [r7, #4]
 1029 0354 03F11800 		add	r0, r3, #24
 1030 0358 07F10B02 		add	r2, r7, #11
 1031 035c 0123     		movs	r3, #1
 1032 035e AF21     		movs	r1, #175
 1033 0360 FFF7FEFF 		bl	adv7533_write_reg
 1034 0364 0246     		mov	r2, r0
 1035              		.loc 1 384 7
 1036 0366 FB68     		ldr	r3, [r7, #12]
 1037 0368 1344     		add	r3, r3, r2
 1038 036a FB60     		str	r3, [r7, #12]
 385:./BSP/components/adv7533/adv7533.c **** 
 386:./BSP/components/adv7533/adv7533.c ****   /* Set I2C address to ADV7533_CEC_DSI_I2C_ADDR */
 387:./BSP/components/adv7533/adv7533.c ****   ADV7533_SetI2C_Address(pObj, ADV7533_CEC_DSI_I2C_ADDR); 
 1039              		.loc 1 387 3
 1040 036c 7821     		movs	r1, #120
 1041 036e 7868     		ldr	r0, [r7, #4]
 1042 0370 FFF7FEFF 		bl	ADV7533_SetI2C_Address
 388:./BSP/components/adv7533/adv7533.c **** 
 389:./BSP/components/adv7533/adv7533.c ****   /* HDMI Output Enable */
 390:./BSP/components/adv7533/adv7533.c ****   ret += adv7533_read_reg(&pObj->Ctx, 0x03, &tmp, 1);
 1043              		.loc 1 390 10
 1044 0374 7B68     		ldr	r3, [r7, #4]
 1045 0376 03F11800 		add	r0, r3, #24
 1046 037a 07F10B02 		add	r2, r7, #11
 1047 037e 0123     		movs	r3, #1
 1048 0380 0321     		movs	r1, #3
 1049 0382 FFF7FEFF 		bl	adv7533_read_reg
 1050 0386 0246     		mov	r2, r0
 1051              		.loc 1 390 7
 1052 0388 FB68     		ldr	r3, [r7, #12]
ARM GAS  /tmp/ccipu0lT.s 			page 26


 1053 038a 1344     		add	r3, r3, r2
 1054 038c FB60     		str	r3, [r7, #12]
 391:./BSP/components/adv7533/adv7533.c ****   tmp |= 0x80U;
 1055              		.loc 1 391 7
 1056 038e FB7A     		ldrb	r3, [r7, #11]	@ zero_extendqisi2
 1057 0390 63F07F03 		orn	r3, r3, #127
 1058 0394 DBB2     		uxtb	r3, r3
 1059 0396 FB72     		strb	r3, [r7, #11]
 392:./BSP/components/adv7533/adv7533.c ****   ret += adv7533_write_reg(&pObj->Ctx, 0x03, &tmp, 1);
 1060              		.loc 1 392 10
 1061 0398 7B68     		ldr	r3, [r7, #4]
 1062 039a 03F11800 		add	r0, r3, #24
 1063 039e 07F10B02 		add	r2, r7, #11
 1064 03a2 0123     		movs	r3, #1
 1065 03a4 0321     		movs	r1, #3
 1066 03a6 FFF7FEFF 		bl	adv7533_write_reg
 1067 03aa 0246     		mov	r2, r0
 1068              		.loc 1 392 7
 1069 03ac FB68     		ldr	r3, [r7, #12]
 1070 03ae 1344     		add	r3, r3, r2
 1071 03b0 FB60     		str	r3, [r7, #12]
 393:./BSP/components/adv7533/adv7533.c **** 
 394:./BSP/components/adv7533/adv7533.c ****   /* Set I2C address to ADV7533_MAIN_I2C_ADDR */
 395:./BSP/components/adv7533/adv7533.c ****   ADV7533_SetI2C_Address(pObj, ADV7533_MAIN_I2C_ADDR);
 1072              		.loc 1 395 3
 1073 03b2 7A21     		movs	r1, #122
 1074 03b4 7868     		ldr	r0, [r7, #4]
 1075 03b6 FFF7FEFF 		bl	ADV7533_SetI2C_Address
 396:./BSP/components/adv7533/adv7533.c ****   
 397:./BSP/components/adv7533/adv7533.c ****   /* GC packet enable */
 398:./BSP/components/adv7533/adv7533.c ****   ret += adv7533_read_reg(&pObj->Ctx, 0x40, &tmp, 1);
 1076              		.loc 1 398 10
 1077 03ba 7B68     		ldr	r3, [r7, #4]
 1078 03bc 03F11800 		add	r0, r3, #24
 1079 03c0 07F10B02 		add	r2, r7, #11
 1080 03c4 0123     		movs	r3, #1
 1081 03c6 4021     		movs	r1, #64
 1082 03c8 FFF7FEFF 		bl	adv7533_read_reg
 1083 03cc 0246     		mov	r2, r0
 1084              		.loc 1 398 7
 1085 03ce FB68     		ldr	r3, [r7, #12]
 1086 03d0 1344     		add	r3, r3, r2
 1087 03d2 FB60     		str	r3, [r7, #12]
 399:./BSP/components/adv7533/adv7533.c ****   tmp |= 0x80U;
 1088              		.loc 1 399 7
 1089 03d4 FB7A     		ldrb	r3, [r7, #11]	@ zero_extendqisi2
 1090 03d6 63F07F03 		orn	r3, r3, #127
 1091 03da DBB2     		uxtb	r3, r3
 1092 03dc FB72     		strb	r3, [r7, #11]
 400:./BSP/components/adv7533/adv7533.c ****   ret += adv7533_write_reg(&pObj->Ctx, 0x40, &tmp, 1);
 1093              		.loc 1 400 10
 1094 03de 7B68     		ldr	r3, [r7, #4]
 1095 03e0 03F11800 		add	r0, r3, #24
 1096 03e4 07F10B02 		add	r2, r7, #11
 1097 03e8 0123     		movs	r3, #1
 1098 03ea 4021     		movs	r1, #64
 1099 03ec FFF7FEFF 		bl	adv7533_write_reg
ARM GAS  /tmp/ccipu0lT.s 			page 27


 1100 03f0 0246     		mov	r2, r0
 1101              		.loc 1 400 7
 1102 03f2 FB68     		ldr	r3, [r7, #12]
 1103 03f4 1344     		add	r3, r3, r2
 1104 03f6 FB60     		str	r3, [r7, #12]
 401:./BSP/components/adv7533/adv7533.c ****   /* Input color depth 24-bit per pixel */
 402:./BSP/components/adv7533/adv7533.c ****   ret += adv7533_read_reg(&pObj->Ctx, 0x4C, &tmp, 1);
 1105              		.loc 1 402 10
 1106 03f8 7B68     		ldr	r3, [r7, #4]
 1107 03fa 03F11800 		add	r0, r3, #24
 1108 03fe 07F10B02 		add	r2, r7, #11
 1109 0402 0123     		movs	r3, #1
 1110 0404 4C21     		movs	r1, #76
 1111 0406 FFF7FEFF 		bl	adv7533_read_reg
 1112 040a 0246     		mov	r2, r0
 1113              		.loc 1 402 7
 1114 040c FB68     		ldr	r3, [r7, #12]
 1115 040e 1344     		add	r3, r3, r2
 1116 0410 FB60     		str	r3, [r7, #12]
 403:./BSP/components/adv7533/adv7533.c ****   tmp &= ~0x0FU;
 1117              		.loc 1 403 7
 1118 0412 FB7A     		ldrb	r3, [r7, #11]	@ zero_extendqisi2
 1119 0414 23F00F03 		bic	r3, r3, #15
 1120 0418 DBB2     		uxtb	r3, r3
 1121 041a FB72     		strb	r3, [r7, #11]
 404:./BSP/components/adv7533/adv7533.c ****   tmp |= 0x03U;
 1122              		.loc 1 404 7
 1123 041c FB7A     		ldrb	r3, [r7, #11]	@ zero_extendqisi2
 1124 041e 43F00303 		orr	r3, r3, #3
 1125 0422 DBB2     		uxtb	r3, r3
 1126 0424 FB72     		strb	r3, [r7, #11]
 405:./BSP/components/adv7533/adv7533.c ****   ret += adv7533_write_reg(&pObj->Ctx, 0x4C, &tmp, 1);
 1127              		.loc 1 405 10
 1128 0426 7B68     		ldr	r3, [r7, #4]
 1129 0428 03F11800 		add	r0, r3, #24
 1130 042c 07F10B02 		add	r2, r7, #11
 1131 0430 0123     		movs	r3, #1
 1132 0432 4C21     		movs	r1, #76
 1133 0434 FFF7FEFF 		bl	adv7533_write_reg
 1134 0438 0246     		mov	r2, r0
 1135              		.loc 1 405 7
 1136 043a FB68     		ldr	r3, [r7, #12]
 1137 043c 1344     		add	r3, r3, r2
 1138 043e FB60     		str	r3, [r7, #12]
 406:./BSP/components/adv7533/adv7533.c ****   /* Down dither output color depth */
 407:./BSP/components/adv7533/adv7533.c ****   val = 0xFC;
 1139              		.loc 1 407 7
 1140 0440 FC23     		movs	r3, #252
 1141 0442 BB72     		strb	r3, [r7, #10]
 408:./BSP/components/adv7533/adv7533.c ****   ret += adv7533_write_reg(&pObj->Ctx, 0x49, &val, 1);
 1142              		.loc 1 408 10
 1143 0444 7B68     		ldr	r3, [r7, #4]
 1144 0446 03F11800 		add	r0, r3, #24
 1145 044a 07F10A02 		add	r2, r7, #10
 1146 044e 0123     		movs	r3, #1
 1147 0450 4921     		movs	r1, #73
 1148 0452 FFF7FEFF 		bl	adv7533_write_reg
ARM GAS  /tmp/ccipu0lT.s 			page 28


 1149 0456 0246     		mov	r2, r0
 1150              		.loc 1 408 7
 1151 0458 FB68     		ldr	r3, [r7, #12]
 1152 045a 1344     		add	r3, r3, r2
 1153 045c FB60     		str	r3, [r7, #12]
 409:./BSP/components/adv7533/adv7533.c **** 
 410:./BSP/components/adv7533/adv7533.c ****   /* Set I2C address to ADV7533_CEC_DSI_I2C_ADDR */
 411:./BSP/components/adv7533/adv7533.c ****   ADV7533_SetI2C_Address(pObj, ADV7533_CEC_DSI_I2C_ADDR);
 1154              		.loc 1 411 3
 1155 045e 7821     		movs	r1, #120
 1156 0460 7868     		ldr	r0, [r7, #4]
 1157 0462 FFF7FEFF 		bl	ADV7533_SetI2C_Address
 412:./BSP/components/adv7533/adv7533.c ****   
 413:./BSP/components/adv7533/adv7533.c ****   /* Internal timing disabled */
 414:./BSP/components/adv7533/adv7533.c ****   ret += adv7533_read_reg(&pObj->Ctx, 0x27, &tmp, 1);
 1158              		.loc 1 414 10
 1159 0466 7B68     		ldr	r3, [r7, #4]
 1160 0468 03F11800 		add	r0, r3, #24
 1161 046c 07F10B02 		add	r2, r7, #11
 1162 0470 0123     		movs	r3, #1
 1163 0472 2721     		movs	r1, #39
 1164 0474 FFF7FEFF 		bl	adv7533_read_reg
 1165 0478 0246     		mov	r2, r0
 1166              		.loc 1 414 7
 1167 047a FB68     		ldr	r3, [r7, #12]
 1168 047c 1344     		add	r3, r3, r2
 1169 047e FB60     		str	r3, [r7, #12]
 415:./BSP/components/adv7533/adv7533.c ****   tmp &= ~0x80U;
 1170              		.loc 1 415 7
 1171 0480 FB7A     		ldrb	r3, [r7, #11]	@ zero_extendqisi2
 1172 0482 03F07F03 		and	r3, r3, #127
 1173 0486 DBB2     		uxtb	r3, r3
 1174 0488 FB72     		strb	r3, [r7, #11]
 416:./BSP/components/adv7533/adv7533.c ****   ret += adv7533_write_reg(&pObj->Ctx, 0x27, &tmp, 1);
 1175              		.loc 1 416 10
 1176 048a 7B68     		ldr	r3, [r7, #4]
 1177 048c 03F11800 		add	r0, r3, #24
 1178 0490 07F10B02 		add	r2, r7, #11
 1179 0494 0123     		movs	r3, #1
 1180 0496 2721     		movs	r1, #39
 1181 0498 FFF7FEFF 		bl	adv7533_write_reg
 1182 049c 0246     		mov	r2, r0
 1183              		.loc 1 416 7
 1184 049e FB68     		ldr	r3, [r7, #12]
 1185 04a0 1344     		add	r3, r3, r2
 1186 04a2 FB60     		str	r3, [r7, #12]
 417:./BSP/components/adv7533/adv7533.c ****   
 418:./BSP/components/adv7533/adv7533.c ****   if(ret != ADV7533_OK)
 1187              		.loc 1 418 5
 1188 04a4 FB68     		ldr	r3, [r7, #12]
 1189 04a6 002B     		cmp	r3, #0
 1190 04a8 02D0     		beq	.L29
 419:./BSP/components/adv7533/adv7533.c ****   {
 420:./BSP/components/adv7533/adv7533.c ****     ret = ADV7533_ERROR;
 1191              		.loc 1 420 9
 1192 04aa 4FF0FF33 		mov	r3, #-1
 1193 04ae FB60     		str	r3, [r7, #12]
ARM GAS  /tmp/ccipu0lT.s 			page 29


 1194              	.L29:
 421:./BSP/components/adv7533/adv7533.c ****   }
 422:./BSP/components/adv7533/adv7533.c ****   
 423:./BSP/components/adv7533/adv7533.c ****   return ret;  
 1195              		.loc 1 423 10
 1196 04b0 FB68     		ldr	r3, [r7, #12]
 424:./BSP/components/adv7533/adv7533.c **** }
 1197              		.loc 1 424 1
 1198 04b2 1846     		mov	r0, r3
 1199 04b4 1037     		adds	r7, r7, #16
 1200              	.LCFI33:
 1201              		.cfi_def_cfa_offset 8
 1202 04b6 BD46     		mov	sp, r7
 1203              	.LCFI34:
 1204              		.cfi_def_cfa_register 13
 1205              		@ sp needed
 1206 04b8 80BD     		pop	{r7, pc}
 1207              		.cfi_endproc
 1208              	.LFE6:
 1210              		.section	.text.ADV7533_PatternEnable,"ax",%progbits
 1211              		.align	1
 1212              		.global	ADV7533_PatternEnable
 1213              		.syntax unified
 1214              		.thumb
 1215              		.thumb_func
 1216              		.fpu fpv5-d16
 1218              	ADV7533_PatternEnable:
 1219              	.LFB7:
 425:./BSP/components/adv7533/adv7533.c **** 
 426:./BSP/components/adv7533/adv7533.c **** /**
 427:./BSP/components/adv7533/adv7533.c ****   * @brief  Enable video pattern generation.
 428:./BSP/components/adv7533/adv7533.c ****   * @param  pObj pointer to component object
 429:./BSP/components/adv7533/adv7533.c ****   * @retval Component status
 430:./BSP/components/adv7533/adv7533.c ****   */
 431:./BSP/components/adv7533/adv7533.c **** int32_t ADV7533_PatternEnable(ADV7533_Object_t *pObj)
 432:./BSP/components/adv7533/adv7533.c **** {
 1220              		.loc 1 432 1
 1221              		.cfi_startproc
 1222              		@ args = 0, pretend = 0, frame = 16
 1223              		@ frame_needed = 1, uses_anonymous_args = 0
 1224 0000 80B5     		push	{r7, lr}
 1225              	.LCFI35:
 1226              		.cfi_def_cfa_offset 8
 1227              		.cfi_offset 7, -8
 1228              		.cfi_offset 14, -4
 1229 0002 84B0     		sub	sp, sp, #16
 1230              	.LCFI36:
 1231              		.cfi_def_cfa_offset 24
 1232 0004 00AF     		add	r7, sp, #0
 1233              	.LCFI37:
 1234              		.cfi_def_cfa_register 7
 1235 0006 7860     		str	r0, [r7, #4]
 433:./BSP/components/adv7533/adv7533.c ****   int32_t ret;
 434:./BSP/components/adv7533/adv7533.c ****   uint8_t tmp;
 435:./BSP/components/adv7533/adv7533.c ****   
 436:./BSP/components/adv7533/adv7533.c ****   /* Set I2C address to ADV7533_CEC_DSI_I2C_ADDR */
 437:./BSP/components/adv7533/adv7533.c ****   ADV7533_SetI2C_Address(pObj, ADV7533_CEC_DSI_I2C_ADDR);
ARM GAS  /tmp/ccipu0lT.s 			page 30


 1236              		.loc 1 437 3
 1237 0008 7821     		movs	r1, #120
 1238 000a 7868     		ldr	r0, [r7, #4]
 1239 000c FFF7FEFF 		bl	ADV7533_SetI2C_Address
 438:./BSP/components/adv7533/adv7533.c ****   
 439:./BSP/components/adv7533/adv7533.c ****   /* Timing generator enable */
 440:./BSP/components/adv7533/adv7533.c ****   /* Color bar */
 441:./BSP/components/adv7533/adv7533.c ****   tmp = 0x80;
 1240              		.loc 1 441 7
 1241 0010 8023     		movs	r3, #128
 1242 0012 FB72     		strb	r3, [r7, #11]
 442:./BSP/components/adv7533/adv7533.c ****   ret = adv7533_write_reg(&pObj->Ctx, 0x55, &tmp, 1);
 1243              		.loc 1 442 9
 1244 0014 7B68     		ldr	r3, [r7, #4]
 1245 0016 03F11800 		add	r0, r3, #24
 1246 001a 07F10B02 		add	r2, r7, #11
 1247 001e 0123     		movs	r3, #1
 1248 0020 5521     		movs	r1, #85
 1249 0022 FFF7FEFF 		bl	adv7533_write_reg
 1250 0026 F860     		str	r0, [r7, #12]
 443:./BSP/components/adv7533/adv7533.c ****   
 444:./BSP/components/adv7533/adv7533.c ****   if(ret == ADV7533_OK)
 1251              		.loc 1 444 5
 1252 0028 FB68     		ldr	r3, [r7, #12]
 1253 002a 002B     		cmp	r3, #0
 1254 002c 0ED1     		bne	.L32
 445:./BSP/components/adv7533/adv7533.c ****   {
 446:./BSP/components/adv7533/adv7533.c ****     tmp = 0xA0;
 1255              		.loc 1 446 9
 1256 002e A023     		movs	r3, #160
 1257 0030 FB72     		strb	r3, [r7, #11]
 447:./BSP/components/adv7533/adv7533.c ****     ret += adv7533_write_reg(&pObj->Ctx, 0x55, &tmp, 1);
 1258              		.loc 1 447 12
 1259 0032 7B68     		ldr	r3, [r7, #4]
 1260 0034 03F11800 		add	r0, r3, #24
 1261 0038 07F10B02 		add	r2, r7, #11
 1262 003c 0123     		movs	r3, #1
 1263 003e 5521     		movs	r1, #85
 1264 0040 FFF7FEFF 		bl	adv7533_write_reg
 1265 0044 0246     		mov	r2, r0
 1266              		.loc 1 447 9
 1267 0046 FB68     		ldr	r3, [r7, #12]
 1268 0048 1344     		add	r3, r3, r2
 1269 004a FB60     		str	r3, [r7, #12]
 1270              	.L32:
 448:./BSP/components/adv7533/adv7533.c ****   }
 449:./BSP/components/adv7533/adv7533.c ****   if(ret == ADV7533_OK)
 1271              		.loc 1 449 5
 1272 004c FB68     		ldr	r3, [r7, #12]
 1273 004e 002B     		cmp	r3, #0
 1274 0050 0ED1     		bne	.L33
 450:./BSP/components/adv7533/adv7533.c ****   {
 451:./BSP/components/adv7533/adv7533.c ****     tmp = 0x89;
 1275              		.loc 1 451 9
 1276 0052 8923     		movs	r3, #137
 1277 0054 FB72     		strb	r3, [r7, #11]
 452:./BSP/components/adv7533/adv7533.c ****     ret += adv7533_write_reg(&pObj->Ctx, 0x03, &tmp, 1);
ARM GAS  /tmp/ccipu0lT.s 			page 31


 1278              		.loc 1 452 12
 1279 0056 7B68     		ldr	r3, [r7, #4]
 1280 0058 03F11800 		add	r0, r3, #24
 1281 005c 07F10B02 		add	r2, r7, #11
 1282 0060 0123     		movs	r3, #1
 1283 0062 0321     		movs	r1, #3
 1284 0064 FFF7FEFF 		bl	adv7533_write_reg
 1285 0068 0246     		mov	r2, r0
 1286              		.loc 1 452 9
 1287 006a FB68     		ldr	r3, [r7, #12]
 1288 006c 1344     		add	r3, r3, r2
 1289 006e FB60     		str	r3, [r7, #12]
 1290              	.L33:
 453:./BSP/components/adv7533/adv7533.c ****   }
 454:./BSP/components/adv7533/adv7533.c ****   if(ret == ADV7533_OK)
 1291              		.loc 1 454 5
 1292 0070 FB68     		ldr	r3, [r7, #12]
 1293 0072 002B     		cmp	r3, #0
 1294 0074 0ED1     		bne	.L34
 455:./BSP/components/adv7533/adv7533.c ****   {
 456:./BSP/components/adv7533/adv7533.c ****     tmp = 0x16;
 1295              		.loc 1 456 9
 1296 0076 1623     		movs	r3, #22
 1297 0078 FB72     		strb	r3, [r7, #11]
 457:./BSP/components/adv7533/adv7533.c ****     ret += adv7533_write_reg(&pObj->Ctx, 0xAF, &tmp, 1);
 1298              		.loc 1 457 12
 1299 007a 7B68     		ldr	r3, [r7, #4]
 1300 007c 03F11800 		add	r0, r3, #24
 1301 0080 07F10B02 		add	r2, r7, #11
 1302 0084 0123     		movs	r3, #1
 1303 0086 AF21     		movs	r1, #175
 1304 0088 FFF7FEFF 		bl	adv7533_write_reg
 1305 008c 0246     		mov	r2, r0
 1306              		.loc 1 457 9
 1307 008e FB68     		ldr	r3, [r7, #12]
 1308 0090 1344     		add	r3, r3, r2
 1309 0092 FB60     		str	r3, [r7, #12]
 1310              	.L34:
 458:./BSP/components/adv7533/adv7533.c ****   }
 459:./BSP/components/adv7533/adv7533.c ****   
 460:./BSP/components/adv7533/adv7533.c ****   if(ret != ADV7533_OK)
 1311              		.loc 1 460 5
 1312 0094 FB68     		ldr	r3, [r7, #12]
 1313 0096 002B     		cmp	r3, #0
 1314 0098 02D0     		beq	.L35
 461:./BSP/components/adv7533/adv7533.c ****   {
 462:./BSP/components/adv7533/adv7533.c ****     ret = ADV7533_ERROR;
 1315              		.loc 1 462 9
 1316 009a 4FF0FF33 		mov	r3, #-1
 1317 009e FB60     		str	r3, [r7, #12]
 1318              	.L35:
 463:./BSP/components/adv7533/adv7533.c ****   }
 464:./BSP/components/adv7533/adv7533.c ****   
 465:./BSP/components/adv7533/adv7533.c ****   return ret;  
 1319              		.loc 1 465 10
 1320 00a0 FB68     		ldr	r3, [r7, #12]
 466:./BSP/components/adv7533/adv7533.c **** }
ARM GAS  /tmp/ccipu0lT.s 			page 32


 1321              		.loc 1 466 1
 1322 00a2 1846     		mov	r0, r3
 1323 00a4 1037     		adds	r7, r7, #16
 1324              	.LCFI38:
 1325              		.cfi_def_cfa_offset 8
 1326 00a6 BD46     		mov	sp, r7
 1327              	.LCFI39:
 1328              		.cfi_def_cfa_register 13
 1329              		@ sp needed
 1330 00a8 80BD     		pop	{r7, pc}
 1331              		.cfi_endproc
 1332              	.LFE7:
 1334              		.section	.text.ADV7533_PatternDisable,"ax",%progbits
 1335              		.align	1
 1336              		.global	ADV7533_PatternDisable
 1337              		.syntax unified
 1338              		.thumb
 1339              		.thumb_func
 1340              		.fpu fpv5-d16
 1342              	ADV7533_PatternDisable:
 1343              	.LFB8:
 467:./BSP/components/adv7533/adv7533.c **** 
 468:./BSP/components/adv7533/adv7533.c **** /**
 469:./BSP/components/adv7533/adv7533.c ****   * @brief  Disable video pattern generation.
 470:./BSP/components/adv7533/adv7533.c ****   * @param  pObj pointer to component object
 471:./BSP/components/adv7533/adv7533.c ****   * @retval Component status
 472:./BSP/components/adv7533/adv7533.c ****   */
 473:./BSP/components/adv7533/adv7533.c **** int32_t ADV7533_PatternDisable(ADV7533_Object_t *pObj)
 474:./BSP/components/adv7533/adv7533.c **** {
 1344              		.loc 1 474 1
 1345              		.cfi_startproc
 1346              		@ args = 0, pretend = 0, frame = 16
 1347              		@ frame_needed = 1, uses_anonymous_args = 0
 1348 0000 80B5     		push	{r7, lr}
 1349              	.LCFI40:
 1350              		.cfi_def_cfa_offset 8
 1351              		.cfi_offset 7, -8
 1352              		.cfi_offset 14, -4
 1353 0002 84B0     		sub	sp, sp, #16
 1354              	.LCFI41:
 1355              		.cfi_def_cfa_offset 24
 1356 0004 00AF     		add	r7, sp, #0
 1357              	.LCFI42:
 1358              		.cfi_def_cfa_register 7
 1359 0006 7860     		str	r0, [r7, #4]
 475:./BSP/components/adv7533/adv7533.c ****   int32_t ret = ADV7533_OK;
 1360              		.loc 1 475 11
 1361 0008 0023     		movs	r3, #0
 1362 000a FB60     		str	r3, [r7, #12]
 476:./BSP/components/adv7533/adv7533.c ****   uint8_t tmp = 0x00;
 1363              		.loc 1 476 11
 1364 000c 0023     		movs	r3, #0
 1365 000e FB72     		strb	r3, [r7, #11]
 477:./BSP/components/adv7533/adv7533.c ****   
 478:./BSP/components/adv7533/adv7533.c ****   /* Set I2C address to ADV7533_CEC_DSI_I2C_ADDR */
 479:./BSP/components/adv7533/adv7533.c ****   ADV7533_SetI2C_Address(pObj, ADV7533_CEC_DSI_I2C_ADDR);
 1366              		.loc 1 479 3
ARM GAS  /tmp/ccipu0lT.s 			page 33


 1367 0010 7821     		movs	r1, #120
 1368 0012 7868     		ldr	r0, [r7, #4]
 1369 0014 FFF7FEFF 		bl	ADV7533_SetI2C_Address
 480:./BSP/components/adv7533/adv7533.c ****   
 481:./BSP/components/adv7533/adv7533.c ****   /* Timing generator enable */
 482:./BSP/components/adv7533/adv7533.c ****   if(adv7533_write_reg(&pObj->Ctx, 0x55, &tmp, 1) != ADV7533_OK)
 1370              		.loc 1 482 6
 1371 0018 7B68     		ldr	r3, [r7, #4]
 1372 001a 03F11800 		add	r0, r3, #24
 1373 001e 07F10B02 		add	r2, r7, #11
 1374 0022 0123     		movs	r3, #1
 1375 0024 5521     		movs	r1, #85
 1376 0026 FFF7FEFF 		bl	adv7533_write_reg
 1377 002a 0346     		mov	r3, r0
 1378              		.loc 1 482 5
 1379 002c 002B     		cmp	r3, #0
 1380 002e 02D0     		beq	.L38
 483:./BSP/components/adv7533/adv7533.c ****   {
 484:./BSP/components/adv7533/adv7533.c ****     ret = ADV7533_ERROR;
 1381              		.loc 1 484 9
 1382 0030 4FF0FF33 		mov	r3, #-1
 1383 0034 FB60     		str	r3, [r7, #12]
 1384              	.L38:
 485:./BSP/components/adv7533/adv7533.c ****   }
 486:./BSP/components/adv7533/adv7533.c ****   
 487:./BSP/components/adv7533/adv7533.c ****   return ret;
 1385              		.loc 1 487 10
 1386 0036 FB68     		ldr	r3, [r7, #12]
 488:./BSP/components/adv7533/adv7533.c **** }
 1387              		.loc 1 488 1
 1388 0038 1846     		mov	r0, r3
 1389 003a 1037     		adds	r7, r7, #16
 1390              	.LCFI43:
 1391              		.cfi_def_cfa_offset 8
 1392 003c BD46     		mov	sp, r7
 1393              	.LCFI44:
 1394              		.cfi_def_cfa_register 13
 1395              		@ sp needed
 1396 003e 80BD     		pop	{r7, pc}
 1397              		.cfi_endproc
 1398              	.LFE8:
 1400              		.section	.text.ADV7533_SetBrightness,"ax",%progbits
 1401              		.align	1
 1402              		.global	ADV7533_SetBrightness
 1403              		.syntax unified
 1404              		.thumb
 1405              		.thumb_func
 1406              		.fpu fpv5-d16
 1408              	ADV7533_SetBrightness:
 1409              	.LFB9:
 489:./BSP/components/adv7533/adv7533.c **** 
 490:./BSP/components/adv7533/adv7533.c **** /**
 491:./BSP/components/adv7533/adv7533.c ****   * @brief  Set the display brightness.
 492:./BSP/components/adv7533/adv7533.c ****   * @param  pObj Component object
 493:./BSP/components/adv7533/adv7533.c ****   * @param  Brightness   display brightness to be set
 494:./BSP/components/adv7533/adv7533.c ****   * @retval Component status
 495:./BSP/components/adv7533/adv7533.c ****   */
ARM GAS  /tmp/ccipu0lT.s 			page 34


 496:./BSP/components/adv7533/adv7533.c **** int32_t ADV7533_SetBrightness(ADV7533_Object_t *pObj, uint32_t Brightness)
 497:./BSP/components/adv7533/adv7533.c **** {
 1410              		.loc 1 497 1
 1411              		.cfi_startproc
 1412              		@ args = 0, pretend = 0, frame = 8
 1413              		@ frame_needed = 1, uses_anonymous_args = 0
 1414              		@ link register save eliminated.
 1415 0000 80B4     		push	{r7}
 1416              	.LCFI45:
 1417              		.cfi_def_cfa_offset 4
 1418              		.cfi_offset 7, -4
 1419 0002 83B0     		sub	sp, sp, #12
 1420              	.LCFI46:
 1421              		.cfi_def_cfa_offset 16
 1422 0004 00AF     		add	r7, sp, #0
 1423              	.LCFI47:
 1424              		.cfi_def_cfa_register 7
 1425 0006 7860     		str	r0, [r7, #4]
 1426 0008 3960     		str	r1, [r7]
 498:./BSP/components/adv7533/adv7533.c ****   /* Prevent unused argument(s) compilation warning */  
 499:./BSP/components/adv7533/adv7533.c ****   (void)(pObj);
 500:./BSP/components/adv7533/adv7533.c ****   
 501:./BSP/components/adv7533/adv7533.c ****   return ADV7533_ERROR;  
 1427              		.loc 1 501 10
 1428 000a 4FF0FF33 		mov	r3, #-1
 502:./BSP/components/adv7533/adv7533.c **** }
 1429              		.loc 1 502 1
 1430 000e 1846     		mov	r0, r3
 1431 0010 0C37     		adds	r7, r7, #12
 1432              	.LCFI48:
 1433              		.cfi_def_cfa_offset 4
 1434 0012 BD46     		mov	sp, r7
 1435              	.LCFI49:
 1436              		.cfi_def_cfa_register 13
 1437              		@ sp needed
 1438 0014 5DF8047B 		ldr	r7, [sp], #4
 1439              	.LCFI50:
 1440              		.cfi_restore 7
 1441              		.cfi_def_cfa_offset 0
 1442 0018 7047     		bx	lr
 1443              		.cfi_endproc
 1444              	.LFE9:
 1446              		.section	.text.ADV7533_GetBrightness,"ax",%progbits
 1447              		.align	1
 1448              		.global	ADV7533_GetBrightness
 1449              		.syntax unified
 1450              		.thumb
 1451              		.thumb_func
 1452              		.fpu fpv5-d16
 1454              	ADV7533_GetBrightness:
 1455              	.LFB10:
 503:./BSP/components/adv7533/adv7533.c **** 
 504:./BSP/components/adv7533/adv7533.c **** /**
 505:./BSP/components/adv7533/adv7533.c ****   * @brief  Get the display brightness.
 506:./BSP/components/adv7533/adv7533.c ****   * @param  pObj Component object
 507:./BSP/components/adv7533/adv7533.c ****   * @param  Brightness   display brightness to be returned
 508:./BSP/components/adv7533/adv7533.c ****   * @retval Component status
ARM GAS  /tmp/ccipu0lT.s 			page 35


 509:./BSP/components/adv7533/adv7533.c ****   */
 510:./BSP/components/adv7533/adv7533.c **** int32_t ADV7533_GetBrightness(ADV7533_Object_t *pObj, uint32_t *Brightness)
 511:./BSP/components/adv7533/adv7533.c **** {
 1456              		.loc 1 511 1
 1457              		.cfi_startproc
 1458              		@ args = 0, pretend = 0, frame = 8
 1459              		@ frame_needed = 1, uses_anonymous_args = 0
 1460              		@ link register save eliminated.
 1461 0000 80B4     		push	{r7}
 1462              	.LCFI51:
 1463              		.cfi_def_cfa_offset 4
 1464              		.cfi_offset 7, -4
 1465 0002 83B0     		sub	sp, sp, #12
 1466              	.LCFI52:
 1467              		.cfi_def_cfa_offset 16
 1468 0004 00AF     		add	r7, sp, #0
 1469              	.LCFI53:
 1470              		.cfi_def_cfa_register 7
 1471 0006 7860     		str	r0, [r7, #4]
 1472 0008 3960     		str	r1, [r7]
 512:./BSP/components/adv7533/adv7533.c ****   /* Prevent unused argument(s) compilation warning */  
 513:./BSP/components/adv7533/adv7533.c ****   (void)(pObj);
 514:./BSP/components/adv7533/adv7533.c ****   
 515:./BSP/components/adv7533/adv7533.c ****   return ADV7533_ERROR;  
 1473              		.loc 1 515 10
 1474 000a 4FF0FF33 		mov	r3, #-1
 516:./BSP/components/adv7533/adv7533.c **** }
 1475              		.loc 1 516 1
 1476 000e 1846     		mov	r0, r3
 1477 0010 0C37     		adds	r7, r7, #12
 1478              	.LCFI54:
 1479              		.cfi_def_cfa_offset 4
 1480 0012 BD46     		mov	sp, r7
 1481              	.LCFI55:
 1482              		.cfi_def_cfa_register 13
 1483              		@ sp needed
 1484 0014 5DF8047B 		ldr	r7, [sp], #4
 1485              	.LCFI56:
 1486              		.cfi_restore 7
 1487              		.cfi_def_cfa_offset 0
 1488 0018 7047     		bx	lr
 1489              		.cfi_endproc
 1490              	.LFE10:
 1492              		.section	.text.ADV7533_SetOrientation,"ax",%progbits
 1493              		.align	1
 1494              		.global	ADV7533_SetOrientation
 1495              		.syntax unified
 1496              		.thumb
 1497              		.thumb_func
 1498              		.fpu fpv5-d16
 1500              	ADV7533_SetOrientation:
 1501              	.LFB11:
 517:./BSP/components/adv7533/adv7533.c **** 
 518:./BSP/components/adv7533/adv7533.c **** 
 519:./BSP/components/adv7533/adv7533.c **** /**
 520:./BSP/components/adv7533/adv7533.c **** * @brief  Set the display Orientation.
 521:./BSP/components/adv7533/adv7533.c **** * @param  pObj Component object
ARM GAS  /tmp/ccipu0lT.s 			page 36


 522:./BSP/components/adv7533/adv7533.c **** * @param  Orientation   display Orientation to be set
 523:./BSP/components/adv7533/adv7533.c **** * @retval Component status
 524:./BSP/components/adv7533/adv7533.c **** */
 525:./BSP/components/adv7533/adv7533.c **** int32_t ADV7533_SetOrientation(ADV7533_Object_t *pObj, uint32_t Orientation)
 526:./BSP/components/adv7533/adv7533.c **** {
 1502              		.loc 1 526 1
 1503              		.cfi_startproc
 1504              		@ args = 0, pretend = 0, frame = 8
 1505              		@ frame_needed = 1, uses_anonymous_args = 0
 1506              		@ link register save eliminated.
 1507 0000 80B4     		push	{r7}
 1508              	.LCFI57:
 1509              		.cfi_def_cfa_offset 4
 1510              		.cfi_offset 7, -4
 1511 0002 83B0     		sub	sp, sp, #12
 1512              	.LCFI58:
 1513              		.cfi_def_cfa_offset 16
 1514 0004 00AF     		add	r7, sp, #0
 1515              	.LCFI59:
 1516              		.cfi_def_cfa_register 7
 1517 0006 7860     		str	r0, [r7, #4]
 1518 0008 3960     		str	r1, [r7]
 527:./BSP/components/adv7533/adv7533.c ****   /* Prevent unused argument(s) compilation warning */  
 528:./BSP/components/adv7533/adv7533.c ****   (void)(pObj);
 529:./BSP/components/adv7533/adv7533.c ****   
 530:./BSP/components/adv7533/adv7533.c ****   return ADV7533_ERROR;
 1519              		.loc 1 530 10
 1520 000a 4FF0FF33 		mov	r3, #-1
 531:./BSP/components/adv7533/adv7533.c **** }
 1521              		.loc 1 531 1
 1522 000e 1846     		mov	r0, r3
 1523 0010 0C37     		adds	r7, r7, #12
 1524              	.LCFI60:
 1525              		.cfi_def_cfa_offset 4
 1526 0012 BD46     		mov	sp, r7
 1527              	.LCFI61:
 1528              		.cfi_def_cfa_register 13
 1529              		@ sp needed
 1530 0014 5DF8047B 		ldr	r7, [sp], #4
 1531              	.LCFI62:
 1532              		.cfi_restore 7
 1533              		.cfi_def_cfa_offset 0
 1534 0018 7047     		bx	lr
 1535              		.cfi_endproc
 1536              	.LFE11:
 1538              		.section	.text.ADV7533_GetOrientation,"ax",%progbits
 1539              		.align	1
 1540              		.global	ADV7533_GetOrientation
 1541              		.syntax unified
 1542              		.thumb
 1543              		.thumb_func
 1544              		.fpu fpv5-d16
 1546              	ADV7533_GetOrientation:
 1547              	.LFB12:
 532:./BSP/components/adv7533/adv7533.c **** 
 533:./BSP/components/adv7533/adv7533.c **** /**
 534:./BSP/components/adv7533/adv7533.c ****   * @brief  Set the display Orientation.
ARM GAS  /tmp/ccipu0lT.s 			page 37


 535:./BSP/components/adv7533/adv7533.c ****   * @param  pObj Component object
 536:./BSP/components/adv7533/adv7533.c ****   * @param  Orientation   display Orientation to be returned
 537:./BSP/components/adv7533/adv7533.c ****   * @retval Component status
 538:./BSP/components/adv7533/adv7533.c ****   */
 539:./BSP/components/adv7533/adv7533.c **** int32_t ADV7533_GetOrientation(ADV7533_Object_t *pObj, uint32_t *Orientation)
 540:./BSP/components/adv7533/adv7533.c **** {
 1548              		.loc 1 540 1
 1549              		.cfi_startproc
 1550              		@ args = 0, pretend = 0, frame = 8
 1551              		@ frame_needed = 1, uses_anonymous_args = 0
 1552              		@ link register save eliminated.
 1553 0000 80B4     		push	{r7}
 1554              	.LCFI63:
 1555              		.cfi_def_cfa_offset 4
 1556              		.cfi_offset 7, -4
 1557 0002 83B0     		sub	sp, sp, #12
 1558              	.LCFI64:
 1559              		.cfi_def_cfa_offset 16
 1560 0004 00AF     		add	r7, sp, #0
 1561              	.LCFI65:
 1562              		.cfi_def_cfa_register 7
 1563 0006 7860     		str	r0, [r7, #4]
 1564 0008 3960     		str	r1, [r7]
 541:./BSP/components/adv7533/adv7533.c ****   /* Prevent unused argument(s) compilation warning */  
 542:./BSP/components/adv7533/adv7533.c ****   (void)(pObj);
 543:./BSP/components/adv7533/adv7533.c ****   
 544:./BSP/components/adv7533/adv7533.c ****   return ADV7533_ERROR;
 1565              		.loc 1 544 10
 1566 000a 4FF0FF33 		mov	r3, #-1
 545:./BSP/components/adv7533/adv7533.c **** }
 1567              		.loc 1 545 1
 1568 000e 1846     		mov	r0, r3
 1569 0010 0C37     		adds	r7, r7, #12
 1570              	.LCFI66:
 1571              		.cfi_def_cfa_offset 4
 1572 0012 BD46     		mov	sp, r7
 1573              	.LCFI67:
 1574              		.cfi_def_cfa_register 13
 1575              		@ sp needed
 1576 0014 5DF8047B 		ldr	r7, [sp], #4
 1577              	.LCFI68:
 1578              		.cfi_restore 7
 1579              		.cfi_def_cfa_offset 0
 1580 0018 7047     		bx	lr
 1581              		.cfi_endproc
 1582              	.LFE12:
 1584              		.section	.text.ADV7533_GetXSize,"ax",%progbits
 1585              		.align	1
 1586              		.global	ADV7533_GetXSize
 1587              		.syntax unified
 1588              		.thumb
 1589              		.thumb_func
 1590              		.fpu fpv5-d16
 1592              	ADV7533_GetXSize:
 1593              	.LFB13:
 546:./BSP/components/adv7533/adv7533.c **** 
 547:./BSP/components/adv7533/adv7533.c **** /**
ARM GAS  /tmp/ccipu0lT.s 			page 38


 548:./BSP/components/adv7533/adv7533.c ****   * @brief  Set the display Width.
 549:./BSP/components/adv7533/adv7533.c ****   * @param  pObj Component object
 550:./BSP/components/adv7533/adv7533.c ****   * @param  Xsize   display Width to be set
 551:./BSP/components/adv7533/adv7533.c ****   * @retval Component status
 552:./BSP/components/adv7533/adv7533.c ****   */
 553:./BSP/components/adv7533/adv7533.c **** int32_t ADV7533_GetXSize(ADV7533_Object_t *pObj, uint32_t *Xsize)
 554:./BSP/components/adv7533/adv7533.c **** {
 1594              		.loc 1 554 1
 1595              		.cfi_startproc
 1596              		@ args = 0, pretend = 0, frame = 8
 1597              		@ frame_needed = 1, uses_anonymous_args = 0
 1598              		@ link register save eliminated.
 1599 0000 80B4     		push	{r7}
 1600              	.LCFI69:
 1601              		.cfi_def_cfa_offset 4
 1602              		.cfi_offset 7, -4
 1603 0002 83B0     		sub	sp, sp, #12
 1604              	.LCFI70:
 1605              		.cfi_def_cfa_offset 16
 1606 0004 00AF     		add	r7, sp, #0
 1607              	.LCFI71:
 1608              		.cfi_def_cfa_register 7
 1609 0006 7860     		str	r0, [r7, #4]
 1610 0008 3960     		str	r1, [r7]
 555:./BSP/components/adv7533/adv7533.c ****   /* Prevent unused argument(s) compilation warning */  
 556:./BSP/components/adv7533/adv7533.c ****   (void)(pObj);
 557:./BSP/components/adv7533/adv7533.c **** 
 558:./BSP/components/adv7533/adv7533.c ****   
 559:./BSP/components/adv7533/adv7533.c ****   return ADV7533_ERROR;
 1611              		.loc 1 559 10
 1612 000a 4FF0FF33 		mov	r3, #-1
 560:./BSP/components/adv7533/adv7533.c **** }
 1613              		.loc 1 560 1
 1614 000e 1846     		mov	r0, r3
 1615 0010 0C37     		adds	r7, r7, #12
 1616              	.LCFI72:
 1617              		.cfi_def_cfa_offset 4
 1618 0012 BD46     		mov	sp, r7
 1619              	.LCFI73:
 1620              		.cfi_def_cfa_register 13
 1621              		@ sp needed
 1622 0014 5DF8047B 		ldr	r7, [sp], #4
 1623              	.LCFI74:
 1624              		.cfi_restore 7
 1625              		.cfi_def_cfa_offset 0
 1626 0018 7047     		bx	lr
 1627              		.cfi_endproc
 1628              	.LFE13:
 1630              		.section	.text.ADV7533_GetYSize,"ax",%progbits
 1631              		.align	1
 1632              		.global	ADV7533_GetYSize
 1633              		.syntax unified
 1634              		.thumb
 1635              		.thumb_func
 1636              		.fpu fpv5-d16
 1638              	ADV7533_GetYSize:
 1639              	.LFB14:
ARM GAS  /tmp/ccipu0lT.s 			page 39


 561:./BSP/components/adv7533/adv7533.c **** 
 562:./BSP/components/adv7533/adv7533.c **** /**
 563:./BSP/components/adv7533/adv7533.c ****   * @brief  Set the display Height.
 564:./BSP/components/adv7533/adv7533.c ****   * @param  pObj Component object
 565:./BSP/components/adv7533/adv7533.c ****   * @param  Ysize   display Height to be set
 566:./BSP/components/adv7533/adv7533.c ****   * @retval Component status
 567:./BSP/components/adv7533/adv7533.c ****   */
 568:./BSP/components/adv7533/adv7533.c **** int32_t ADV7533_GetYSize(ADV7533_Object_t *pObj, uint32_t *Ysize)
 569:./BSP/components/adv7533/adv7533.c **** {
 1640              		.loc 1 569 1
 1641              		.cfi_startproc
 1642              		@ args = 0, pretend = 0, frame = 8
 1643              		@ frame_needed = 1, uses_anonymous_args = 0
 1644              		@ link register save eliminated.
 1645 0000 80B4     		push	{r7}
 1646              	.LCFI75:
 1647              		.cfi_def_cfa_offset 4
 1648              		.cfi_offset 7, -4
 1649 0002 83B0     		sub	sp, sp, #12
 1650              	.LCFI76:
 1651              		.cfi_def_cfa_offset 16
 1652 0004 00AF     		add	r7, sp, #0
 1653              	.LCFI77:
 1654              		.cfi_def_cfa_register 7
 1655 0006 7860     		str	r0, [r7, #4]
 1656 0008 3960     		str	r1, [r7]
 570:./BSP/components/adv7533/adv7533.c ****   /* Prevent unused argument(s) compilation warning */  
 571:./BSP/components/adv7533/adv7533.c ****   (void)(pObj);
 572:./BSP/components/adv7533/adv7533.c ****     
 573:./BSP/components/adv7533/adv7533.c ****   return ADV7533_ERROR;
 1657              		.loc 1 573 10
 1658 000a 4FF0FF33 		mov	r3, #-1
 574:./BSP/components/adv7533/adv7533.c **** }
 1659              		.loc 1 574 1
 1660 000e 1846     		mov	r0, r3
 1661 0010 0C37     		adds	r7, r7, #12
 1662              	.LCFI78:
 1663              		.cfi_def_cfa_offset 4
 1664 0012 BD46     		mov	sp, r7
 1665              	.LCFI79:
 1666              		.cfi_def_cfa_register 13
 1667              		@ sp needed
 1668 0014 5DF8047B 		ldr	r7, [sp], #4
 1669              	.LCFI80:
 1670              		.cfi_restore 7
 1671              		.cfi_def_cfa_offset 0
 1672 0018 7047     		bx	lr
 1673              		.cfi_endproc
 1674              	.LFE14:
 1676              		.section	.text.ADV7533_SetCursor,"ax",%progbits
 1677              		.align	1
 1678              		.global	ADV7533_SetCursor
 1679              		.syntax unified
 1680              		.thumb
 1681              		.thumb_func
 1682              		.fpu fpv5-d16
 1684              	ADV7533_SetCursor:
ARM GAS  /tmp/ccipu0lT.s 			page 40


 1685              	.LFB15:
 575:./BSP/components/adv7533/adv7533.c **** 
 576:./BSP/components/adv7533/adv7533.c **** /**
 577:./BSP/components/adv7533/adv7533.c ****   * @brief  Set the display cursor.
 578:./BSP/components/adv7533/adv7533.c ****   * @param  pObj Component object
 579:./BSP/components/adv7533/adv7533.c ****   * @param  Xpos X position
 580:./BSP/components/adv7533/adv7533.c ****   * @param  Ypos Y position
 581:./BSP/components/adv7533/adv7533.c ****   * @retval Component status
 582:./BSP/components/adv7533/adv7533.c ****   */
 583:./BSP/components/adv7533/adv7533.c **** int32_t ADV7533_SetCursor(ADV7533_Object_t *pObj, uint32_t Xpos, uint32_t Ypos)
 584:./BSP/components/adv7533/adv7533.c **** {
 1686              		.loc 1 584 1
 1687              		.cfi_startproc
 1688              		@ args = 0, pretend = 0, frame = 16
 1689              		@ frame_needed = 1, uses_anonymous_args = 0
 1690              		@ link register save eliminated.
 1691 0000 80B4     		push	{r7}
 1692              	.LCFI81:
 1693              		.cfi_def_cfa_offset 4
 1694              		.cfi_offset 7, -4
 1695 0002 85B0     		sub	sp, sp, #20
 1696              	.LCFI82:
 1697              		.cfi_def_cfa_offset 24
 1698 0004 00AF     		add	r7, sp, #0
 1699              	.LCFI83:
 1700              		.cfi_def_cfa_register 7
 1701 0006 F860     		str	r0, [r7, #12]
 1702 0008 B960     		str	r1, [r7, #8]
 1703 000a 7A60     		str	r2, [r7, #4]
 585:./BSP/components/adv7533/adv7533.c ****   /* Prevent unused argument(s) compilation warning */  
 586:./BSP/components/adv7533/adv7533.c ****   (void)(pObj);
 587:./BSP/components/adv7533/adv7533.c ****   
 588:./BSP/components/adv7533/adv7533.c ****   return ADV7533_ERROR;
 1704              		.loc 1 588 10
 1705 000c 4FF0FF33 		mov	r3, #-1
 589:./BSP/components/adv7533/adv7533.c **** }
 1706              		.loc 1 589 1
 1707 0010 1846     		mov	r0, r3
 1708 0012 1437     		adds	r7, r7, #20
 1709              	.LCFI84:
 1710              		.cfi_def_cfa_offset 4
 1711 0014 BD46     		mov	sp, r7
 1712              	.LCFI85:
 1713              		.cfi_def_cfa_register 13
 1714              		@ sp needed
 1715 0016 5DF8047B 		ldr	r7, [sp], #4
 1716              	.LCFI86:
 1717              		.cfi_restore 7
 1718              		.cfi_def_cfa_offset 0
 1719 001a 7047     		bx	lr
 1720              		.cfi_endproc
 1721              	.LFE15:
 1723              		.section	.text.ADV7533_DrawBitmap,"ax",%progbits
 1724              		.align	1
 1725              		.global	ADV7533_DrawBitmap
 1726              		.syntax unified
 1727              		.thumb
ARM GAS  /tmp/ccipu0lT.s 			page 41


 1728              		.thumb_func
 1729              		.fpu fpv5-d16
 1731              	ADV7533_DrawBitmap:
 1732              	.LFB16:
 590:./BSP/components/adv7533/adv7533.c **** 
 591:./BSP/components/adv7533/adv7533.c **** /**
 592:./BSP/components/adv7533/adv7533.c ****   * @brief  Draw Bitmap image
 593:./BSP/components/adv7533/adv7533.c ****   * @param  pObj Component object
 594:./BSP/components/adv7533/adv7533.c ****   * @param  Xpos X position
 595:./BSP/components/adv7533/adv7533.c ****   * @param  Ypos Y position
 596:./BSP/components/adv7533/adv7533.c ****   * @param  pBmp pointer to bmp data
 597:./BSP/components/adv7533/adv7533.c ****   * @retval Component status
 598:./BSP/components/adv7533/adv7533.c ****   */
 599:./BSP/components/adv7533/adv7533.c **** int32_t ADV7533_DrawBitmap(ADV7533_Object_t *pObj, uint32_t Xpos, uint32_t Ypos, uint8_t *pBmp)
 600:./BSP/components/adv7533/adv7533.c **** {
 1733              		.loc 1 600 1
 1734              		.cfi_startproc
 1735              		@ args = 0, pretend = 0, frame = 16
 1736              		@ frame_needed = 1, uses_anonymous_args = 0
 1737              		@ link register save eliminated.
 1738 0000 80B4     		push	{r7}
 1739              	.LCFI87:
 1740              		.cfi_def_cfa_offset 4
 1741              		.cfi_offset 7, -4
 1742 0002 85B0     		sub	sp, sp, #20
 1743              	.LCFI88:
 1744              		.cfi_def_cfa_offset 24
 1745 0004 00AF     		add	r7, sp, #0
 1746              	.LCFI89:
 1747              		.cfi_def_cfa_register 7
 1748 0006 F860     		str	r0, [r7, #12]
 1749 0008 B960     		str	r1, [r7, #8]
 1750 000a 7A60     		str	r2, [r7, #4]
 1751 000c 3B60     		str	r3, [r7]
 601:./BSP/components/adv7533/adv7533.c ****   /* Prevent unused argument(s) compilation warning */  
 602:./BSP/components/adv7533/adv7533.c ****   (void)(pObj);
 603:./BSP/components/adv7533/adv7533.c ****   
 604:./BSP/components/adv7533/adv7533.c ****   return ADV7533_ERROR;
 1752              		.loc 1 604 10
 1753 000e 4FF0FF33 		mov	r3, #-1
 605:./BSP/components/adv7533/adv7533.c **** }
 1754              		.loc 1 605 1
 1755 0012 1846     		mov	r0, r3
 1756 0014 1437     		adds	r7, r7, #20
 1757              	.LCFI90:
 1758              		.cfi_def_cfa_offset 4
 1759 0016 BD46     		mov	sp, r7
 1760              	.LCFI91:
 1761              		.cfi_def_cfa_register 13
 1762              		@ sp needed
 1763 0018 5DF8047B 		ldr	r7, [sp], #4
 1764              	.LCFI92:
 1765              		.cfi_restore 7
 1766              		.cfi_def_cfa_offset 0
 1767 001c 7047     		bx	lr
 1768              		.cfi_endproc
 1769              	.LFE16:
ARM GAS  /tmp/ccipu0lT.s 			page 42


 1771              		.section	.text.ADV7533_FillRGBRect,"ax",%progbits
 1772              		.align	1
 1773              		.global	ADV7533_FillRGBRect
 1774              		.syntax unified
 1775              		.thumb
 1776              		.thumb_func
 1777              		.fpu fpv5-d16
 1779              	ADV7533_FillRGBRect:
 1780              	.LFB17:
 606:./BSP/components/adv7533/adv7533.c **** 
 607:./BSP/components/adv7533/adv7533.c **** int32_t ADV7533_FillRGBRect(ADV7533_Object_t *pObj, uint32_t Xpos, uint32_t Ypos, uint8_t *pData, u
 608:./BSP/components/adv7533/adv7533.c **** {
 1781              		.loc 1 608 1
 1782              		.cfi_startproc
 1783              		@ args = 8, pretend = 0, frame = 16
 1784              		@ frame_needed = 1, uses_anonymous_args = 0
 1785              		@ link register save eliminated.
 1786 0000 80B4     		push	{r7}
 1787              	.LCFI93:
 1788              		.cfi_def_cfa_offset 4
 1789              		.cfi_offset 7, -4
 1790 0002 85B0     		sub	sp, sp, #20
 1791              	.LCFI94:
 1792              		.cfi_def_cfa_offset 24
 1793 0004 00AF     		add	r7, sp, #0
 1794              	.LCFI95:
 1795              		.cfi_def_cfa_register 7
 1796 0006 F860     		str	r0, [r7, #12]
 1797 0008 B960     		str	r1, [r7, #8]
 1798 000a 7A60     		str	r2, [r7, #4]
 1799 000c 3B60     		str	r3, [r7]
 609:./BSP/components/adv7533/adv7533.c ****   /* Prevent unused argument(s) compilation warning */  
 610:./BSP/components/adv7533/adv7533.c ****   (void)(pObj);
 611:./BSP/components/adv7533/adv7533.c ****   
 612:./BSP/components/adv7533/adv7533.c ****   return ADV7533_ERROR;
 1800              		.loc 1 612 10
 1801 000e 4FF0FF33 		mov	r3, #-1
 613:./BSP/components/adv7533/adv7533.c **** }
 1802              		.loc 1 613 1
 1803 0012 1846     		mov	r0, r3
 1804 0014 1437     		adds	r7, r7, #20
 1805              	.LCFI96:
 1806              		.cfi_def_cfa_offset 4
 1807 0016 BD46     		mov	sp, r7
 1808              	.LCFI97:
 1809              		.cfi_def_cfa_register 13
 1810              		@ sp needed
 1811 0018 5DF8047B 		ldr	r7, [sp], #4
 1812              	.LCFI98:
 1813              		.cfi_restore 7
 1814              		.cfi_def_cfa_offset 0
 1815 001c 7047     		bx	lr
 1816              		.cfi_endproc
 1817              	.LFE17:
 1819              		.section	.text.ADV7533_DrawHLine,"ax",%progbits
 1820              		.align	1
 1821              		.global	ADV7533_DrawHLine
ARM GAS  /tmp/ccipu0lT.s 			page 43


 1822              		.syntax unified
 1823              		.thumb
 1824              		.thumb_func
 1825              		.fpu fpv5-d16
 1827              	ADV7533_DrawHLine:
 1828              	.LFB18:
 614:./BSP/components/adv7533/adv7533.c **** /**
 615:./BSP/components/adv7533/adv7533.c ****   * @brief  Draw Horizontal Line
 616:./BSP/components/adv7533/adv7533.c ****   * @param  pObj Component object
 617:./BSP/components/adv7533/adv7533.c ****   * @param  Xpos X position
 618:./BSP/components/adv7533/adv7533.c ****   * @param  Ypos Y position
 619:./BSP/components/adv7533/adv7533.c ****   * @param  Length Line length
 620:./BSP/components/adv7533/adv7533.c ****   * @param  Color Draw color
 621:./BSP/components/adv7533/adv7533.c ****   * @retval Component status
 622:./BSP/components/adv7533/adv7533.c ****   */
 623:./BSP/components/adv7533/adv7533.c **** int32_t ADV7533_DrawHLine(ADV7533_Object_t *pObj, uint32_t Xpos, uint32_t Ypos, uint32_t Length, ui
 624:./BSP/components/adv7533/adv7533.c **** {
 1829              		.loc 1 624 1
 1830              		.cfi_startproc
 1831              		@ args = 4, pretend = 0, frame = 16
 1832              		@ frame_needed = 1, uses_anonymous_args = 0
 1833              		@ link register save eliminated.
 1834 0000 80B4     		push	{r7}
 1835              	.LCFI99:
 1836              		.cfi_def_cfa_offset 4
 1837              		.cfi_offset 7, -4
 1838 0002 85B0     		sub	sp, sp, #20
 1839              	.LCFI100:
 1840              		.cfi_def_cfa_offset 24
 1841 0004 00AF     		add	r7, sp, #0
 1842              	.LCFI101:
 1843              		.cfi_def_cfa_register 7
 1844 0006 F860     		str	r0, [r7, #12]
 1845 0008 B960     		str	r1, [r7, #8]
 1846 000a 7A60     		str	r2, [r7, #4]
 1847 000c 3B60     		str	r3, [r7]
 625:./BSP/components/adv7533/adv7533.c ****   /* Prevent unused argument(s) compilation warning */  
 626:./BSP/components/adv7533/adv7533.c ****   (void)(pObj);
 627:./BSP/components/adv7533/adv7533.c ****   
 628:./BSP/components/adv7533/adv7533.c ****   return ADV7533_ERROR;
 1848              		.loc 1 628 10
 1849 000e 4FF0FF33 		mov	r3, #-1
 629:./BSP/components/adv7533/adv7533.c **** }
 1850              		.loc 1 629 1
 1851 0012 1846     		mov	r0, r3
 1852 0014 1437     		adds	r7, r7, #20
 1853              	.LCFI102:
 1854              		.cfi_def_cfa_offset 4
 1855 0016 BD46     		mov	sp, r7
 1856              	.LCFI103:
 1857              		.cfi_def_cfa_register 13
 1858              		@ sp needed
 1859 0018 5DF8047B 		ldr	r7, [sp], #4
 1860              	.LCFI104:
 1861              		.cfi_restore 7
 1862              		.cfi_def_cfa_offset 0
 1863 001c 7047     		bx	lr
ARM GAS  /tmp/ccipu0lT.s 			page 44


 1864              		.cfi_endproc
 1865              	.LFE18:
 1867              		.section	.text.ADV7533_DrawVLine,"ax",%progbits
 1868              		.align	1
 1869              		.global	ADV7533_DrawVLine
 1870              		.syntax unified
 1871              		.thumb
 1872              		.thumb_func
 1873              		.fpu fpv5-d16
 1875              	ADV7533_DrawVLine:
 1876              	.LFB19:
 630:./BSP/components/adv7533/adv7533.c **** 
 631:./BSP/components/adv7533/adv7533.c **** /**
 632:./BSP/components/adv7533/adv7533.c ****   * @brief  Draw Vertical line
 633:./BSP/components/adv7533/adv7533.c ****   * @param  pObj Component object
 634:./BSP/components/adv7533/adv7533.c ****   * @param  Xpos X position
 635:./BSP/components/adv7533/adv7533.c ****   * @param  Ypos Y position
 636:./BSP/components/adv7533/adv7533.c ****   * @param  Length Line length
 637:./BSP/components/adv7533/adv7533.c ****   * @param  Color Draw color
 638:./BSP/components/adv7533/adv7533.c ****   * @retval Component status
 639:./BSP/components/adv7533/adv7533.c ****   */
 640:./BSP/components/adv7533/adv7533.c **** int32_t ADV7533_DrawVLine(ADV7533_Object_t *pObj, uint32_t Xpos, uint32_t Ypos, uint32_t Length, ui
 641:./BSP/components/adv7533/adv7533.c **** {
 1877              		.loc 1 641 1
 1878              		.cfi_startproc
 1879              		@ args = 4, pretend = 0, frame = 16
 1880              		@ frame_needed = 1, uses_anonymous_args = 0
 1881              		@ link register save eliminated.
 1882 0000 80B4     		push	{r7}
 1883              	.LCFI105:
 1884              		.cfi_def_cfa_offset 4
 1885              		.cfi_offset 7, -4
 1886 0002 85B0     		sub	sp, sp, #20
 1887              	.LCFI106:
 1888              		.cfi_def_cfa_offset 24
 1889 0004 00AF     		add	r7, sp, #0
 1890              	.LCFI107:
 1891              		.cfi_def_cfa_register 7
 1892 0006 F860     		str	r0, [r7, #12]
 1893 0008 B960     		str	r1, [r7, #8]
 1894 000a 7A60     		str	r2, [r7, #4]
 1895 000c 3B60     		str	r3, [r7]
 642:./BSP/components/adv7533/adv7533.c ****   /* Prevent unused argument(s) compilation warning */  
 643:./BSP/components/adv7533/adv7533.c ****   (void)(pObj);
 644:./BSP/components/adv7533/adv7533.c ****   
 645:./BSP/components/adv7533/adv7533.c ****   return ADV7533_ERROR;
 1896              		.loc 1 645 10
 1897 000e 4FF0FF33 		mov	r3, #-1
 646:./BSP/components/adv7533/adv7533.c **** }
 1898              		.loc 1 646 1
 1899 0012 1846     		mov	r0, r3
 1900 0014 1437     		adds	r7, r7, #20
 1901              	.LCFI108:
 1902              		.cfi_def_cfa_offset 4
 1903 0016 BD46     		mov	sp, r7
 1904              	.LCFI109:
 1905              		.cfi_def_cfa_register 13
ARM GAS  /tmp/ccipu0lT.s 			page 45


 1906              		@ sp needed
 1907 0018 5DF8047B 		ldr	r7, [sp], #4
 1908              	.LCFI110:
 1909              		.cfi_restore 7
 1910              		.cfi_def_cfa_offset 0
 1911 001c 7047     		bx	lr
 1912              		.cfi_endproc
 1913              	.LFE19:
 1915              		.section	.text.ADV7533_FillRect,"ax",%progbits
 1916              		.align	1
 1917              		.global	ADV7533_FillRect
 1918              		.syntax unified
 1919              		.thumb
 1920              		.thumb_func
 1921              		.fpu fpv5-d16
 1923              	ADV7533_FillRect:
 1924              	.LFB20:
 647:./BSP/components/adv7533/adv7533.c **** 
 648:./BSP/components/adv7533/adv7533.c **** /**
 649:./BSP/components/adv7533/adv7533.c ****   * @brief  Fill rectangle
 650:./BSP/components/adv7533/adv7533.c ****   * @param  pObj Component object
 651:./BSP/components/adv7533/adv7533.c ****   * @param  Xpos X position
 652:./BSP/components/adv7533/adv7533.c ****   * @param  Ypos Y position
 653:./BSP/components/adv7533/adv7533.c ****   * @param  Width Rectangle width
 654:./BSP/components/adv7533/adv7533.c ****   * @param  Height Rectangle height
 655:./BSP/components/adv7533/adv7533.c ****   * @param  Color Draw color
 656:./BSP/components/adv7533/adv7533.c ****   * @retval Component status
 657:./BSP/components/adv7533/adv7533.c ****   */
 658:./BSP/components/adv7533/adv7533.c **** int32_t ADV7533_FillRect(ADV7533_Object_t *pObj, uint32_t Xpos, uint32_t Ypos, uint32_t Width, uint
 659:./BSP/components/adv7533/adv7533.c **** {
 1925              		.loc 1 659 1
 1926              		.cfi_startproc
 1927              		@ args = 8, pretend = 0, frame = 16
 1928              		@ frame_needed = 1, uses_anonymous_args = 0
 1929              		@ link register save eliminated.
 1930 0000 80B4     		push	{r7}
 1931              	.LCFI111:
 1932              		.cfi_def_cfa_offset 4
 1933              		.cfi_offset 7, -4
 1934 0002 85B0     		sub	sp, sp, #20
 1935              	.LCFI112:
 1936              		.cfi_def_cfa_offset 24
 1937 0004 00AF     		add	r7, sp, #0
 1938              	.LCFI113:
 1939              		.cfi_def_cfa_register 7
 1940 0006 F860     		str	r0, [r7, #12]
 1941 0008 B960     		str	r1, [r7, #8]
 1942 000a 7A60     		str	r2, [r7, #4]
 1943 000c 3B60     		str	r3, [r7]
 660:./BSP/components/adv7533/adv7533.c ****   /* Prevent unused argument(s) compilation warning */  
 661:./BSP/components/adv7533/adv7533.c ****   (void)(pObj);
 662:./BSP/components/adv7533/adv7533.c ****   
 663:./BSP/components/adv7533/adv7533.c ****   return ADV7533_ERROR;
 1944              		.loc 1 663 10
 1945 000e 4FF0FF33 		mov	r3, #-1
 664:./BSP/components/adv7533/adv7533.c **** }
 1946              		.loc 1 664 1
ARM GAS  /tmp/ccipu0lT.s 			page 46


 1947 0012 1846     		mov	r0, r3
 1948 0014 1437     		adds	r7, r7, #20
 1949              	.LCFI114:
 1950              		.cfi_def_cfa_offset 4
 1951 0016 BD46     		mov	sp, r7
 1952              	.LCFI115:
 1953              		.cfi_def_cfa_register 13
 1954              		@ sp needed
 1955 0018 5DF8047B 		ldr	r7, [sp], #4
 1956              	.LCFI116:
 1957              		.cfi_restore 7
 1958              		.cfi_def_cfa_offset 0
 1959 001c 7047     		bx	lr
 1960              		.cfi_endproc
 1961              	.LFE20:
 1963              		.section	.text.ADV7533_GetPixel,"ax",%progbits
 1964              		.align	1
 1965              		.global	ADV7533_GetPixel
 1966              		.syntax unified
 1967              		.thumb
 1968              		.thumb_func
 1969              		.fpu fpv5-d16
 1971              	ADV7533_GetPixel:
 1972              	.LFB21:
 665:./BSP/components/adv7533/adv7533.c **** 
 666:./BSP/components/adv7533/adv7533.c **** /**
 667:./BSP/components/adv7533/adv7533.c ****   * @brief  Get pixel color
 668:./BSP/components/adv7533/adv7533.c ****   * @param  pObj Component object
 669:./BSP/components/adv7533/adv7533.c ****   * @param  Xpos X position
 670:./BSP/components/adv7533/adv7533.c ****   * @param  Ypos Y position
 671:./BSP/components/adv7533/adv7533.c ****   * @param  Color Color to be returned
 672:./BSP/components/adv7533/adv7533.c ****   * @retval Component status
 673:./BSP/components/adv7533/adv7533.c ****   */
 674:./BSP/components/adv7533/adv7533.c **** int32_t ADV7533_GetPixel(ADV7533_Object_t *pObj, uint32_t Xpos, uint32_t Ypos, uint32_t *Color)
 675:./BSP/components/adv7533/adv7533.c **** {
 1973              		.loc 1 675 1
 1974              		.cfi_startproc
 1975              		@ args = 0, pretend = 0, frame = 16
 1976              		@ frame_needed = 1, uses_anonymous_args = 0
 1977              		@ link register save eliminated.
 1978 0000 80B4     		push	{r7}
 1979              	.LCFI117:
 1980              		.cfi_def_cfa_offset 4
 1981              		.cfi_offset 7, -4
 1982 0002 85B0     		sub	sp, sp, #20
 1983              	.LCFI118:
 1984              		.cfi_def_cfa_offset 24
 1985 0004 00AF     		add	r7, sp, #0
 1986              	.LCFI119:
 1987              		.cfi_def_cfa_register 7
 1988 0006 F860     		str	r0, [r7, #12]
 1989 0008 B960     		str	r1, [r7, #8]
 1990 000a 7A60     		str	r2, [r7, #4]
 1991 000c 3B60     		str	r3, [r7]
 676:./BSP/components/adv7533/adv7533.c ****   /* Prevent unused argument(s) compilation warning */  
 677:./BSP/components/adv7533/adv7533.c ****   (void)(pObj);
 678:./BSP/components/adv7533/adv7533.c ****   
ARM GAS  /tmp/ccipu0lT.s 			page 47


 679:./BSP/components/adv7533/adv7533.c ****   return ADV7533_ERROR;
 1992              		.loc 1 679 10
 1993 000e 4FF0FF33 		mov	r3, #-1
 680:./BSP/components/adv7533/adv7533.c **** }
 1994              		.loc 1 680 1
 1995 0012 1846     		mov	r0, r3
 1996 0014 1437     		adds	r7, r7, #20
 1997              	.LCFI120:
 1998              		.cfi_def_cfa_offset 4
 1999 0016 BD46     		mov	sp, r7
 2000              	.LCFI121:
 2001              		.cfi_def_cfa_register 13
 2002              		@ sp needed
 2003 0018 5DF8047B 		ldr	r7, [sp], #4
 2004              	.LCFI122:
 2005              		.cfi_restore 7
 2006              		.cfi_def_cfa_offset 0
 2007 001c 7047     		bx	lr
 2008              		.cfi_endproc
 2009              	.LFE21:
 2011              		.section	.text.ADV7533_SetPixel,"ax",%progbits
 2012              		.align	1
 2013              		.global	ADV7533_SetPixel
 2014              		.syntax unified
 2015              		.thumb
 2016              		.thumb_func
 2017              		.fpu fpv5-d16
 2019              	ADV7533_SetPixel:
 2020              	.LFB22:
 681:./BSP/components/adv7533/adv7533.c **** 
 682:./BSP/components/adv7533/adv7533.c **** /**
 683:./BSP/components/adv7533/adv7533.c ****   * @brief  Set pixel color
 684:./BSP/components/adv7533/adv7533.c ****   * @param  pObj Component object
 685:./BSP/components/adv7533/adv7533.c ****   * @param  Xpos X position
 686:./BSP/components/adv7533/adv7533.c ****   * @param  Ypos Y position
 687:./BSP/components/adv7533/adv7533.c ****   * @param  Color Color to be returned
 688:./BSP/components/adv7533/adv7533.c ****   * @retval Component status
 689:./BSP/components/adv7533/adv7533.c ****   */
 690:./BSP/components/adv7533/adv7533.c **** int32_t ADV7533_SetPixel(ADV7533_Object_t *pObj, uint32_t Xpos, uint32_t Ypos, uint32_t Color)
 691:./BSP/components/adv7533/adv7533.c **** {
 2021              		.loc 1 691 1
 2022              		.cfi_startproc
 2023              		@ args = 0, pretend = 0, frame = 16
 2024              		@ frame_needed = 1, uses_anonymous_args = 0
 2025              		@ link register save eliminated.
 2026 0000 80B4     		push	{r7}
 2027              	.LCFI123:
 2028              		.cfi_def_cfa_offset 4
 2029              		.cfi_offset 7, -4
 2030 0002 85B0     		sub	sp, sp, #20
 2031              	.LCFI124:
 2032              		.cfi_def_cfa_offset 24
 2033 0004 00AF     		add	r7, sp, #0
 2034              	.LCFI125:
 2035              		.cfi_def_cfa_register 7
 2036 0006 F860     		str	r0, [r7, #12]
 2037 0008 B960     		str	r1, [r7, #8]
ARM GAS  /tmp/ccipu0lT.s 			page 48


 2038 000a 7A60     		str	r2, [r7, #4]
 2039 000c 3B60     		str	r3, [r7]
 692:./BSP/components/adv7533/adv7533.c ****   /* Prevent unused argument(s) compilation warning */  
 693:./BSP/components/adv7533/adv7533.c ****   (void)(pObj);
 694:./BSP/components/adv7533/adv7533.c ****   
 695:./BSP/components/adv7533/adv7533.c ****   return ADV7533_ERROR;
 2040              		.loc 1 695 10
 2041 000e 4FF0FF33 		mov	r3, #-1
 696:./BSP/components/adv7533/adv7533.c **** }
 2042              		.loc 1 696 1
 2043 0012 1846     		mov	r0, r3
 2044 0014 1437     		adds	r7, r7, #20
 2045              	.LCFI126:
 2046              		.cfi_def_cfa_offset 4
 2047 0016 BD46     		mov	sp, r7
 2048              	.LCFI127:
 2049              		.cfi_def_cfa_register 13
 2050              		@ sp needed
 2051 0018 5DF8047B 		ldr	r7, [sp], #4
 2052              	.LCFI128:
 2053              		.cfi_restore 7
 2054              		.cfi_def_cfa_offset 0
 2055 001c 7047     		bx	lr
 2056              		.cfi_endproc
 2057              	.LFE22:
 2059              		.section	.text.ADV7533_AudioInit,"ax",%progbits
 2060              		.align	1
 2061              		.global	ADV7533_AudioInit
 2062              		.syntax unified
 2063              		.thumb
 2064              		.thumb_func
 2065              		.fpu fpv5-d16
 2067              	ADV7533_AudioInit:
 2068              	.LFB23:
 697:./BSP/components/adv7533/adv7533.c **** 
 698:./BSP/components/adv7533/adv7533.c **** /*------------------------------------------------------------------------------
 699:./BSP/components/adv7533/adv7533.c ****                            HDMI Audio functions 
 700:./BSP/components/adv7533/adv7533.c **** ------------------------------------------------------------------------------*/
 701:./BSP/components/adv7533/adv7533.c **** /**
 702:./BSP/components/adv7533/adv7533.c ****   * @brief Initializes the audio codec and the control interface.
 703:./BSP/components/adv7533/adv7533.c ****   * @param  pObj pointer to component object
 704:./BSP/components/adv7533/adv7533.c ****   * @param  pInit  pointer de component init structure
 705:./BSP/components/adv7533/adv7533.c ****   * @retval Component status
 706:./BSP/components/adv7533/adv7533.c ****   */
 707:./BSP/components/adv7533/adv7533.c **** int32_t ADV7533_AudioInit(ADV7533_Object_t *pObj, ADV7533_Init_t *pInit)
 708:./BSP/components/adv7533/adv7533.c **** {
 2069              		.loc 1 708 1
 2070              		.cfi_startproc
 2071              		@ args = 0, pretend = 0, frame = 24
 2072              		@ frame_needed = 1, uses_anonymous_args = 0
 2073 0000 80B5     		push	{r7, lr}
 2074              	.LCFI129:
 2075              		.cfi_def_cfa_offset 8
 2076              		.cfi_offset 7, -8
 2077              		.cfi_offset 14, -4
 2078 0002 86B0     		sub	sp, sp, #24
 2079              	.LCFI130:
ARM GAS  /tmp/ccipu0lT.s 			page 49


 2080              		.cfi_def_cfa_offset 32
 2081 0004 00AF     		add	r7, sp, #0
 2082              	.LCFI131:
 2083              		.cfi_def_cfa_register 7
 2084 0006 7860     		str	r0, [r7, #4]
 2085 0008 3960     		str	r1, [r7]
 709:./BSP/components/adv7533/adv7533.c ****   int32_t ret = ADV7533_OK;
 2086              		.loc 1 709 11
 2087 000a 0023     		movs	r3, #0
 2088 000c 7B61     		str	r3, [r7, #20]
 710:./BSP/components/adv7533/adv7533.c ****   uint32_t val = 4096U;
 2089              		.loc 1 710 12
 2090 000e 4FF48053 		mov	r3, #4096
 2091 0012 3B61     		str	r3, [r7, #16]
 711:./BSP/components/adv7533/adv7533.c ****   uint8_t  tmp;
 712:./BSP/components/adv7533/adv7533.c ****   
 713:./BSP/components/adv7533/adv7533.c ****   if(pObj->IsInitialized == 0U)
 2092              		.loc 1 713 10
 2093 0014 7B68     		ldr	r3, [r7, #4]
 2094 0016 93F82430 		ldrb	r3, [r3, #36]	@ zero_extendqisi2
 2095              		.loc 1 713 5
 2096 001a 002B     		cmp	r3, #0
 2097 001c 40F0E380 		bne	.L69
 714:./BSP/components/adv7533/adv7533.c ****   {    
 715:./BSP/components/adv7533/adv7533.c ****     /* Set I2C address to ADV7533_CEC_DSI_I2C_ADDR */
 716:./BSP/components/adv7533/adv7533.c ****     ADV7533_SetI2C_Address(pObj, ADV7533_CEC_DSI_I2C_ADDR);
 2098              		.loc 1 716 5
 2099 0020 7821     		movs	r1, #120
 2100 0022 7868     		ldr	r0, [r7, #4]
 2101 0024 FFF7FEFF 		bl	ADV7533_SetI2C_Address
 717:./BSP/components/adv7533/adv7533.c ****     
 718:./BSP/components/adv7533/adv7533.c ****     /* Audio data enable*/
 719:./BSP/components/adv7533/adv7533.c ****     ret = adv7533_read_reg(&pObj->Ctx, 0x05, &tmp, 1);
 2102              		.loc 1 719 11
 2103 0028 7B68     		ldr	r3, [r7, #4]
 2104 002a 03F11800 		add	r0, r3, #24
 2105 002e 07F10F02 		add	r2, r7, #15
 2106 0032 0123     		movs	r3, #1
 2107 0034 0521     		movs	r1, #5
 2108 0036 FFF7FEFF 		bl	adv7533_read_reg
 2109 003a 7861     		str	r0, [r7, #20]
 720:./BSP/components/adv7533/adv7533.c ****     tmp &= ~0x20U;
 2110              		.loc 1 720 9
 2111 003c FB7B     		ldrb	r3, [r7, #15]	@ zero_extendqisi2
 2112 003e 23F02003 		bic	r3, r3, #32
 2113 0042 DBB2     		uxtb	r3, r3
 2114 0044 FB73     		strb	r3, [r7, #15]
 721:./BSP/components/adv7533/adv7533.c ****     ret += adv7533_write_reg(&pObj->Ctx, 0x05, &tmp, 1);
 2115              		.loc 1 721 12
 2116 0046 7B68     		ldr	r3, [r7, #4]
 2117 0048 03F11800 		add	r0, r3, #24
 2118 004c 07F10F02 		add	r2, r7, #15
 2119 0050 0123     		movs	r3, #1
 2120 0052 0521     		movs	r1, #5
 2121 0054 FFF7FEFF 		bl	adv7533_write_reg
 2122 0058 0246     		mov	r2, r0
 2123              		.loc 1 721 9
ARM GAS  /tmp/ccipu0lT.s 			page 50


 2124 005a 7B69     		ldr	r3, [r7, #20]
 2125 005c 1344     		add	r3, r3, r2
 2126 005e 7B61     		str	r3, [r7, #20]
 722:./BSP/components/adv7533/adv7533.c ****     
 723:./BSP/components/adv7533/adv7533.c ****     /* Set I2C address to ADV7533_MAIN_I2C_ADDR */
 724:./BSP/components/adv7533/adv7533.c ****     ADV7533_SetI2C_Address(pObj, ADV7533_MAIN_I2C_ADDR);
 2127              		.loc 1 724 5
 2128 0060 7A21     		movs	r1, #122
 2129 0062 7868     		ldr	r0, [r7, #4]
 2130 0064 FFF7FEFF 		bl	ADV7533_SetI2C_Address
 725:./BSP/components/adv7533/adv7533.c ****     
 726:./BSP/components/adv7533/adv7533.c ****     /* HDMI statup */
 727:./BSP/components/adv7533/adv7533.c ****     tmp = (uint8_t)((val & 0xF0000U)>>16);
 2131              		.loc 1 727 37
 2132 0068 3B69     		ldr	r3, [r7, #16]
 2133 006a 1B0C     		lsrs	r3, r3, #16
 2134              		.loc 1 727 11
 2135 006c DBB2     		uxtb	r3, r3
 2136 006e 03F00F03 		and	r3, r3, #15
 2137 0072 DBB2     		uxtb	r3, r3
 2138              		.loc 1 727 9
 2139 0074 FB73     		strb	r3, [r7, #15]
 728:./BSP/components/adv7533/adv7533.c ****     ret += adv7533_write_reg(&pObj->Ctx, 0x01, &tmp, 1);
 2140              		.loc 1 728 12
 2141 0076 7B68     		ldr	r3, [r7, #4]
 2142 0078 03F11800 		add	r0, r3, #24
 2143 007c 07F10F02 		add	r2, r7, #15
 2144 0080 0123     		movs	r3, #1
 2145 0082 0121     		movs	r1, #1
 2146 0084 FFF7FEFF 		bl	adv7533_write_reg
 2147 0088 0246     		mov	r2, r0
 2148              		.loc 1 728 9
 2149 008a 7B69     		ldr	r3, [r7, #20]
 2150 008c 1344     		add	r3, r3, r2
 2151 008e 7B61     		str	r3, [r7, #20]
 729:./BSP/components/adv7533/adv7533.c ****     
 730:./BSP/components/adv7533/adv7533.c ****     tmp= (uint8_t)((val & 0xFF00U)>>8);
 2152              		.loc 1 730 35
 2153 0090 3B69     		ldr	r3, [r7, #16]
 2154 0092 1B0A     		lsrs	r3, r3, #8
 2155              		.loc 1 730 10
 2156 0094 DBB2     		uxtb	r3, r3
 2157              		.loc 1 730 8
 2158 0096 FB73     		strb	r3, [r7, #15]
 731:./BSP/components/adv7533/adv7533.c ****     ret += adv7533_write_reg(&pObj->Ctx, 0x02, &tmp, 1);
 2159              		.loc 1 731 12
 2160 0098 7B68     		ldr	r3, [r7, #4]
 2161 009a 03F11800 		add	r0, r3, #24
 2162 009e 07F10F02 		add	r2, r7, #15
 2163 00a2 0123     		movs	r3, #1
 2164 00a4 0221     		movs	r1, #2
 2165 00a6 FFF7FEFF 		bl	adv7533_write_reg
 2166 00aa 0246     		mov	r2, r0
 2167              		.loc 1 731 9
 2168 00ac 7B69     		ldr	r3, [r7, #20]
 2169 00ae 1344     		add	r3, r3, r2
 2170 00b0 7B61     		str	r3, [r7, #20]
ARM GAS  /tmp/ccipu0lT.s 			page 51


 732:./BSP/components/adv7533/adv7533.c ****     
 733:./BSP/components/adv7533/adv7533.c ****     tmp= (uint8_t)((val & 0xFFU));
 2171              		.loc 1 733 10
 2172 00b2 3B69     		ldr	r3, [r7, #16]
 2173 00b4 DBB2     		uxtb	r3, r3
 2174              		.loc 1 733 8
 2175 00b6 FB73     		strb	r3, [r7, #15]
 734:./BSP/components/adv7533/adv7533.c ****     ret += adv7533_write_reg(&pObj->Ctx, 0x03, &tmp, 1);
 2176              		.loc 1 734 12
 2177 00b8 7B68     		ldr	r3, [r7, #4]
 2178 00ba 03F11800 		add	r0, r3, #24
 2179 00be 07F10F02 		add	r2, r7, #15
 2180 00c2 0123     		movs	r3, #1
 2181 00c4 0321     		movs	r1, #3
 2182 00c6 FFF7FEFF 		bl	adv7533_write_reg
 2183 00ca 0246     		mov	r2, r0
 2184              		.loc 1 734 9
 2185 00cc 7B69     		ldr	r3, [r7, #20]
 2186 00ce 1344     		add	r3, r3, r2
 2187 00d0 7B61     		str	r3, [r7, #20]
 735:./BSP/components/adv7533/adv7533.c ****     
 736:./BSP/components/adv7533/adv7533.c ****     /* Enable spdif */
 737:./BSP/components/adv7533/adv7533.c ****     ret += adv7533_read_reg(&pObj->Ctx, 0x0B, &tmp, 1);
 2188              		.loc 1 737 12
 2189 00d2 7B68     		ldr	r3, [r7, #4]
 2190 00d4 03F11800 		add	r0, r3, #24
 2191 00d8 07F10F02 		add	r2, r7, #15
 2192 00dc 0123     		movs	r3, #1
 2193 00de 0B21     		movs	r1, #11
 2194 00e0 FFF7FEFF 		bl	adv7533_read_reg
 2195 00e4 0246     		mov	r2, r0
 2196              		.loc 1 737 9
 2197 00e6 7B69     		ldr	r3, [r7, #20]
 2198 00e8 1344     		add	r3, r3, r2
 2199 00ea 7B61     		str	r3, [r7, #20]
 738:./BSP/components/adv7533/adv7533.c ****     tmp |= 0x80U;
 2200              		.loc 1 738 9
 2201 00ec FB7B     		ldrb	r3, [r7, #15]	@ zero_extendqisi2
 2202 00ee 63F07F03 		orn	r3, r3, #127
 2203 00f2 DBB2     		uxtb	r3, r3
 2204 00f4 FB73     		strb	r3, [r7, #15]
 739:./BSP/components/adv7533/adv7533.c ****     ret += adv7533_write_reg(&pObj->Ctx, 0x0B, &tmp, 1);
 2205              		.loc 1 739 12
 2206 00f6 7B68     		ldr	r3, [r7, #4]
 2207 00f8 03F11800 		add	r0, r3, #24
 2208 00fc 07F10F02 		add	r2, r7, #15
 2209 0100 0123     		movs	r3, #1
 2210 0102 0B21     		movs	r1, #11
 2211 0104 FFF7FEFF 		bl	adv7533_write_reg
 2212 0108 0246     		mov	r2, r0
 2213              		.loc 1 739 9
 2214 010a 7B69     		ldr	r3, [r7, #20]
 2215 010c 1344     		add	r3, r3, r2
 2216 010e 7B61     		str	r3, [r7, #20]
 740:./BSP/components/adv7533/adv7533.c ****     
 741:./BSP/components/adv7533/adv7533.c ****     /* Enable I2S */
 742:./BSP/components/adv7533/adv7533.c ****     ret += adv7533_read_reg(&pObj->Ctx, 0x0C, &tmp, 1);
ARM GAS  /tmp/ccipu0lT.s 			page 52


 2217              		.loc 1 742 12
 2218 0110 7B68     		ldr	r3, [r7, #4]
 2219 0112 03F11800 		add	r0, r3, #24
 2220 0116 07F10F02 		add	r2, r7, #15
 2221 011a 0123     		movs	r3, #1
 2222 011c 0C21     		movs	r1, #12
 2223 011e FFF7FEFF 		bl	adv7533_read_reg
 2224 0122 0246     		mov	r2, r0
 2225              		.loc 1 742 9
 2226 0124 7B69     		ldr	r3, [r7, #20]
 2227 0126 1344     		add	r3, r3, r2
 2228 0128 7B61     		str	r3, [r7, #20]
 743:./BSP/components/adv7533/adv7533.c ****     tmp |=0x04U;
 2229              		.loc 1 743 9
 2230 012a FB7B     		ldrb	r3, [r7, #15]	@ zero_extendqisi2
 2231 012c 43F00403 		orr	r3, r3, #4
 2232 0130 DBB2     		uxtb	r3, r3
 2233 0132 FB73     		strb	r3, [r7, #15]
 744:./BSP/components/adv7533/adv7533.c ****     ret += adv7533_write_reg(&pObj->Ctx, 0x0C, &tmp, 1);
 2234              		.loc 1 744 12
 2235 0134 7B68     		ldr	r3, [r7, #4]
 2236 0136 03F11800 		add	r0, r3, #24
 2237 013a 07F10F02 		add	r2, r7, #15
 2238 013e 0123     		movs	r3, #1
 2239 0140 0C21     		movs	r1, #12
 2240 0142 FFF7FEFF 		bl	adv7533_write_reg
 2241 0146 0246     		mov	r2, r0
 2242              		.loc 1 744 9
 2243 0148 7B69     		ldr	r3, [r7, #20]
 2244 014a 1344     		add	r3, r3, r2
 2245 014c 7B61     		str	r3, [r7, #20]
 745:./BSP/components/adv7533/adv7533.c ****     
 746:./BSP/components/adv7533/adv7533.c ****     /* Set audio sampling frequency */
 747:./BSP/components/adv7533/adv7533.c ****     ret += ADV7533_SetFrequency(pObj, pInit->Frequency);
 2246              		.loc 1 747 12
 2247 014e 3B68     		ldr	r3, [r7]
 2248 0150 1B68     		ldr	r3, [r3]
 2249 0152 1946     		mov	r1, r3
 2250 0154 7868     		ldr	r0, [r7, #4]
 2251 0156 FFF7FEFF 		bl	ADV7533_SetFrequency
 2252 015a 0246     		mov	r2, r0
 2253              		.loc 1 747 9
 2254 015c 7B69     		ldr	r3, [r7, #20]
 2255 015e 1344     		add	r3, r3, r2
 2256 0160 7B61     		str	r3, [r7, #20]
 748:./BSP/components/adv7533/adv7533.c ****     
 749:./BSP/components/adv7533/adv7533.c ****     /* Select SPDIF is 0x10 , I2S=0x00  */
 750:./BSP/components/adv7533/adv7533.c ****     ret += adv7533_read_reg(&pObj->Ctx, 0x0A, &tmp, 1);
 2257              		.loc 1 750 12
 2258 0162 7B68     		ldr	r3, [r7, #4]
 2259 0164 03F11800 		add	r0, r3, #24
 2260 0168 07F10F02 		add	r2, r7, #15
 2261 016c 0123     		movs	r3, #1
 2262 016e 0A21     		movs	r1, #10
 2263 0170 FFF7FEFF 		bl	adv7533_read_reg
 2264 0174 0246     		mov	r2, r0
 2265              		.loc 1 750 9
ARM GAS  /tmp/ccipu0lT.s 			page 53


 2266 0176 7B69     		ldr	r3, [r7, #20]
 2267 0178 1344     		add	r3, r3, r2
 2268 017a 7B61     		str	r3, [r7, #20]
 751:./BSP/components/adv7533/adv7533.c ****     tmp &=~ 0x10U;
 2269              		.loc 1 751 9
 2270 017c FB7B     		ldrb	r3, [r7, #15]	@ zero_extendqisi2
 2271 017e 23F01003 		bic	r3, r3, #16
 2272 0182 DBB2     		uxtb	r3, r3
 2273 0184 FB73     		strb	r3, [r7, #15]
 752:./BSP/components/adv7533/adv7533.c ****     ret += adv7533_write_reg(&pObj->Ctx, 0x0A, &tmp, 1);
 2274              		.loc 1 752 12
 2275 0186 7B68     		ldr	r3, [r7, #4]
 2276 0188 03F11800 		add	r0, r3, #24
 2277 018c 07F10F02 		add	r2, r7, #15
 2278 0190 0123     		movs	r3, #1
 2279 0192 0A21     		movs	r1, #10
 2280 0194 FFF7FEFF 		bl	adv7533_write_reg
 2281 0198 0246     		mov	r2, r0
 2282              		.loc 1 752 9
 2283 019a 7B69     		ldr	r3, [r7, #20]
 2284 019c 1344     		add	r3, r3, r2
 2285 019e 7B61     		str	r3, [r7, #20]
 753:./BSP/components/adv7533/adv7533.c ****     
 754:./BSP/components/adv7533/adv7533.c ****     /* Set v1P2 enable */
 755:./BSP/components/adv7533/adv7533.c ****     ret += adv7533_read_reg(&pObj->Ctx, 0xE4, &tmp, 1);
 2286              		.loc 1 755 12
 2287 01a0 7B68     		ldr	r3, [r7, #4]
 2288 01a2 03F11800 		add	r0, r3, #24
 2289 01a6 07F10F02 		add	r2, r7, #15
 2290 01aa 0123     		movs	r3, #1
 2291 01ac E421     		movs	r1, #228
 2292 01ae FFF7FEFF 		bl	adv7533_read_reg
 2293 01b2 0246     		mov	r2, r0
 2294              		.loc 1 755 9
 2295 01b4 7B69     		ldr	r3, [r7, #20]
 2296 01b6 1344     		add	r3, r3, r2
 2297 01b8 7B61     		str	r3, [r7, #20]
 756:./BSP/components/adv7533/adv7533.c ****     tmp |= 0x80U;
 2298              		.loc 1 756 9
 2299 01ba FB7B     		ldrb	r3, [r7, #15]	@ zero_extendqisi2
 2300 01bc 63F07F03 		orn	r3, r3, #127
 2301 01c0 DBB2     		uxtb	r3, r3
 2302 01c2 FB73     		strb	r3, [r7, #15]
 757:./BSP/components/adv7533/adv7533.c ****     ret += adv7533_write_reg(&pObj->Ctx, 0xE4, &tmp, 1);
 2303              		.loc 1 757 12
 2304 01c4 7B68     		ldr	r3, [r7, #4]
 2305 01c6 03F11800 		add	r0, r3, #24
 2306 01ca 07F10F02 		add	r2, r7, #15
 2307 01ce 0123     		movs	r3, #1
 2308 01d0 E421     		movs	r1, #228
 2309 01d2 FFF7FEFF 		bl	adv7533_write_reg
 2310 01d6 0246     		mov	r2, r0
 2311              		.loc 1 757 9
 2312 01d8 7B69     		ldr	r3, [r7, #20]
 2313 01da 1344     		add	r3, r3, r2
 2314 01dc 7B61     		str	r3, [r7, #20]
 758:./BSP/components/adv7533/adv7533.c ****     
ARM GAS  /tmp/ccipu0lT.s 			page 54


 759:./BSP/components/adv7533/adv7533.c ****     pObj->IsInitialized = 1;
 2315              		.loc 1 759 25
 2316 01de 7B68     		ldr	r3, [r7, #4]
 2317 01e0 0122     		movs	r2, #1
 2318 01e2 83F82420 		strb	r2, [r3, #36]
 2319              	.L69:
 760:./BSP/components/adv7533/adv7533.c ****   }
 761:./BSP/components/adv7533/adv7533.c **** 
 762:./BSP/components/adv7533/adv7533.c ****   return ret;
 2320              		.loc 1 762 10
 2321 01e6 7B69     		ldr	r3, [r7, #20]
 763:./BSP/components/adv7533/adv7533.c **** }
 2322              		.loc 1 763 1
 2323 01e8 1846     		mov	r0, r3
 2324 01ea 1837     		adds	r7, r7, #24
 2325              	.LCFI132:
 2326              		.cfi_def_cfa_offset 8
 2327 01ec BD46     		mov	sp, r7
 2328              	.LCFI133:
 2329              		.cfi_def_cfa_register 13
 2330              		@ sp needed
 2331 01ee 80BD     		pop	{r7, pc}
 2332              		.cfi_endproc
 2333              	.LFE23:
 2335              		.section	.text.ADV7533_Pause,"ax",%progbits
 2336              		.align	1
 2337              		.global	ADV7533_Pause
 2338              		.syntax unified
 2339              		.thumb
 2340              		.thumb_func
 2341              		.fpu fpv5-d16
 2343              	ADV7533_Pause:
 2344              	.LFB24:
 764:./BSP/components/adv7533/adv7533.c **** 
 765:./BSP/components/adv7533/adv7533.c **** /**
 766:./BSP/components/adv7533/adv7533.c ****   * @brief Pauses playing on the audio hdmi
 767:./BSP/components/adv7533/adv7533.c ****   * @param  pObj pointer to component object 
 768:./BSP/components/adv7533/adv7533.c ****   * @retval Component status
 769:./BSP/components/adv7533/adv7533.c ****   */
 770:./BSP/components/adv7533/adv7533.c **** int32_t ADV7533_Pause(ADV7533_Object_t *pObj)
 771:./BSP/components/adv7533/adv7533.c **** { 
 2345              		.loc 1 771 1
 2346              		.cfi_startproc
 2347              		@ args = 0, pretend = 0, frame = 8
 2348              		@ frame_needed = 1, uses_anonymous_args = 0
 2349 0000 80B5     		push	{r7, lr}
 2350              	.LCFI134:
 2351              		.cfi_def_cfa_offset 8
 2352              		.cfi_offset 7, -8
 2353              		.cfi_offset 14, -4
 2354 0002 82B0     		sub	sp, sp, #8
 2355              	.LCFI135:
 2356              		.cfi_def_cfa_offset 16
 2357 0004 00AF     		add	r7, sp, #0
 2358              	.LCFI136:
 2359              		.cfi_def_cfa_register 7
 2360 0006 7860     		str	r0, [r7, #4]
ARM GAS  /tmp/ccipu0lT.s 			page 55


 772:./BSP/components/adv7533/adv7533.c ****   return(ADV7533_SetMute(pObj, ADV7533_MUTE_ON));
 2361              		.loc 1 772 10
 2362 0008 0121     		movs	r1, #1
 2363 000a 7868     		ldr	r0, [r7, #4]
 2364 000c FFF7FEFF 		bl	ADV7533_SetMute
 2365 0010 0346     		mov	r3, r0
 773:./BSP/components/adv7533/adv7533.c **** }       
 2366              		.loc 1 773 1
 2367 0012 1846     		mov	r0, r3
 2368 0014 0837     		adds	r7, r7, #8
 2369              	.LCFI137:
 2370              		.cfi_def_cfa_offset 8
 2371 0016 BD46     		mov	sp, r7
 2372              	.LCFI138:
 2373              		.cfi_def_cfa_register 13
 2374              		@ sp needed
 2375 0018 80BD     		pop	{r7, pc}
 2376              		.cfi_endproc
 2377              	.LFE24:
 2379              		.section	.text.ADV7533_Resume,"ax",%progbits
 2380              		.align	1
 2381              		.global	ADV7533_Resume
 2382              		.syntax unified
 2383              		.thumb
 2384              		.thumb_func
 2385              		.fpu fpv5-d16
 2387              	ADV7533_Resume:
 2388              	.LFB25:
 774:./BSP/components/adv7533/adv7533.c ****             
 775:./BSP/components/adv7533/adv7533.c **** /**
 776:./BSP/components/adv7533/adv7533.c ****   * @brief Resumes playing on the audio hdmi.
 777:./BSP/components/adv7533/adv7533.c ****   * @param  pObj pointer to component object 
 778:./BSP/components/adv7533/adv7533.c ****   * @retval Component status
 779:./BSP/components/adv7533/adv7533.c ****   */   
 780:./BSP/components/adv7533/adv7533.c **** int32_t ADV7533_Resume(ADV7533_Object_t *pObj)
 781:./BSP/components/adv7533/adv7533.c **** { 
 2389              		.loc 1 781 1
 2390              		.cfi_startproc
 2391              		@ args = 0, pretend = 0, frame = 8
 2392              		@ frame_needed = 1, uses_anonymous_args = 0
 2393 0000 80B5     		push	{r7, lr}
 2394              	.LCFI139:
 2395              		.cfi_def_cfa_offset 8
 2396              		.cfi_offset 7, -8
 2397              		.cfi_offset 14, -4
 2398 0002 82B0     		sub	sp, sp, #8
 2399              	.LCFI140:
 2400              		.cfi_def_cfa_offset 16
 2401 0004 00AF     		add	r7, sp, #0
 2402              	.LCFI141:
 2403              		.cfi_def_cfa_register 7
 2404 0006 7860     		str	r0, [r7, #4]
 782:./BSP/components/adv7533/adv7533.c ****   return(ADV7533_SetMute(pObj, ADV7533_MUTE_OFF));
 2405              		.loc 1 782 10
 2406 0008 0021     		movs	r1, #0
 2407 000a 7868     		ldr	r0, [r7, #4]
 2408 000c FFF7FEFF 		bl	ADV7533_SetMute
ARM GAS  /tmp/ccipu0lT.s 			page 56


 2409 0010 0346     		mov	r3, r0
 783:./BSP/components/adv7533/adv7533.c **** } 
 2410              		.loc 1 783 1
 2411 0012 1846     		mov	r0, r3
 2412 0014 0837     		adds	r7, r7, #8
 2413              	.LCFI142:
 2414              		.cfi_def_cfa_offset 8
 2415 0016 BD46     		mov	sp, r7
 2416              	.LCFI143:
 2417              		.cfi_def_cfa_register 13
 2418              		@ sp needed
 2419 0018 80BD     		pop	{r7, pc}
 2420              		.cfi_endproc
 2421              	.LFE25:
 2423              		.section	.text.ADV7533_Play,"ax",%progbits
 2424              		.align	1
 2425              		.global	ADV7533_Play
 2426              		.syntax unified
 2427              		.thumb
 2428              		.thumb_func
 2429              		.fpu fpv5-d16
 2431              	ADV7533_Play:
 2432              	.LFB26:
 784:./BSP/components/adv7533/adv7533.c **** 
 785:./BSP/components/adv7533/adv7533.c **** /**
 786:./BSP/components/adv7533/adv7533.c ****   * @brief Start the audio hdmi play feature.
 787:./BSP/components/adv7533/adv7533.c ****   * @note  For this codec no Play options are required.
 788:./BSP/components/adv7533/adv7533.c ****   * @param  pObj pointer to component object   
 789:./BSP/components/adv7533/adv7533.c ****   * @retval Component status
 790:./BSP/components/adv7533/adv7533.c ****   */
 791:./BSP/components/adv7533/adv7533.c **** int32_t ADV7533_Play(ADV7533_Object_t *pObj)
 792:./BSP/components/adv7533/adv7533.c **** {
 2433              		.loc 1 792 1
 2434              		.cfi_startproc
 2435              		@ args = 0, pretend = 0, frame = 8
 2436              		@ frame_needed = 1, uses_anonymous_args = 0
 2437 0000 80B5     		push	{r7, lr}
 2438              	.LCFI144:
 2439              		.cfi_def_cfa_offset 8
 2440              		.cfi_offset 7, -8
 2441              		.cfi_offset 14, -4
 2442 0002 82B0     		sub	sp, sp, #8
 2443              	.LCFI145:
 2444              		.cfi_def_cfa_offset 16
 2445 0004 00AF     		add	r7, sp, #0
 2446              	.LCFI146:
 2447              		.cfi_def_cfa_register 7
 2448 0006 7860     		str	r0, [r7, #4]
 793:./BSP/components/adv7533/adv7533.c ****   return(ADV7533_SetMute(pObj, ADV7533_MUTE_OFF));
 2449              		.loc 1 793 10
 2450 0008 0021     		movs	r1, #0
 2451 000a 7868     		ldr	r0, [r7, #4]
 2452 000c FFF7FEFF 		bl	ADV7533_SetMute
 2453 0010 0346     		mov	r3, r0
 794:./BSP/components/adv7533/adv7533.c **** }
 2454              		.loc 1 794 1
 2455 0012 1846     		mov	r0, r3
ARM GAS  /tmp/ccipu0lT.s 			page 57


 2456 0014 0837     		adds	r7, r7, #8
 2457              	.LCFI147:
 2458              		.cfi_def_cfa_offset 8
 2459 0016 BD46     		mov	sp, r7
 2460              	.LCFI148:
 2461              		.cfi_def_cfa_register 13
 2462              		@ sp needed
 2463 0018 80BD     		pop	{r7, pc}
 2464              		.cfi_endproc
 2465              	.LFE26:
 2467              		.section	.text.ADV7533_Stop,"ax",%progbits
 2468              		.align	1
 2469              		.global	ADV7533_Stop
 2470              		.syntax unified
 2471              		.thumb
 2472              		.thumb_func
 2473              		.fpu fpv5-d16
 2475              	ADV7533_Stop:
 2476              	.LFB27:
 795:./BSP/components/adv7533/adv7533.c ****             
 796:./BSP/components/adv7533/adv7533.c **** /**
 797:./BSP/components/adv7533/adv7533.c ****   * @brief Stop playing on the audio hdmi
 798:./BSP/components/adv7533/adv7533.c ****   * @param  pObj pointer to component object 
 799:./BSP/components/adv7533/adv7533.c ****   * @retval Component status
 800:./BSP/components/adv7533/adv7533.c ****   */
 801:./BSP/components/adv7533/adv7533.c **** int32_t ADV7533_Stop(ADV7533_Object_t *pObj, uint32_t CodecPdwnMode)
 802:./BSP/components/adv7533/adv7533.c **** {
 2477              		.loc 1 802 1
 2478              		.cfi_startproc
 2479              		@ args = 0, pretend = 0, frame = 8
 2480              		@ frame_needed = 1, uses_anonymous_args = 0
 2481 0000 80B5     		push	{r7, lr}
 2482              	.LCFI149:
 2483              		.cfi_def_cfa_offset 8
 2484              		.cfi_offset 7, -8
 2485              		.cfi_offset 14, -4
 2486 0002 82B0     		sub	sp, sp, #8
 2487              	.LCFI150:
 2488              		.cfi_def_cfa_offset 16
 2489 0004 00AF     		add	r7, sp, #0
 2490              	.LCFI151:
 2491              		.cfi_def_cfa_register 7
 2492 0006 7860     		str	r0, [r7, #4]
 2493 0008 3960     		str	r1, [r7]
 803:./BSP/components/adv7533/adv7533.c ****   /* Prevent unused argument(s) compilation warning */  
 804:./BSP/components/adv7533/adv7533.c ****   (void)(CodecPdwnMode);
 805:./BSP/components/adv7533/adv7533.c ****   
 806:./BSP/components/adv7533/adv7533.c ****   return(ADV7533_SetMute(pObj, ADV7533_MUTE_ON));
 2494              		.loc 1 806 10
 2495 000a 0121     		movs	r1, #1
 2496 000c 7868     		ldr	r0, [r7, #4]
 2497 000e FFF7FEFF 		bl	ADV7533_SetMute
 2498 0012 0346     		mov	r3, r0
 807:./BSP/components/adv7533/adv7533.c **** }               
 2499              		.loc 1 807 1
 2500 0014 1846     		mov	r0, r3
 2501 0016 0837     		adds	r7, r7, #8
ARM GAS  /tmp/ccipu0lT.s 			page 58


 2502              	.LCFI152:
 2503              		.cfi_def_cfa_offset 8
 2504 0018 BD46     		mov	sp, r7
 2505              	.LCFI153:
 2506              		.cfi_def_cfa_register 13
 2507              		@ sp needed
 2508 001a 80BD     		pop	{r7, pc}
 2509              		.cfi_endproc
 2510              	.LFE27:
 2512              		.section	.text.ADV7533_SetMute,"ax",%progbits
 2513              		.align	1
 2514              		.global	ADV7533_SetMute
 2515              		.syntax unified
 2516              		.thumb
 2517              		.thumb_func
 2518              		.fpu fpv5-d16
 2520              	ADV7533_SetMute:
 2521              	.LFB28:
 808:./BSP/components/adv7533/adv7533.c ****             
 809:./BSP/components/adv7533/adv7533.c **** /**
 810:./BSP/components/adv7533/adv7533.c ****   * @brief Enables or disables the mute feature on the audio hdmi.
 811:./BSP/components/adv7533/adv7533.c ****   * @param  pObj pointer to component object   
 812:./BSP/components/adv7533/adv7533.c ****   * @param Cmd: AUDIO_MUTE_ON to enable the mute or AUDIO_MUTE_OFF to disable the
 813:./BSP/components/adv7533/adv7533.c ****   *             mute mode.
 814:./BSP/components/adv7533/adv7533.c ****   * @retval Component status
 815:./BSP/components/adv7533/adv7533.c ****   */
 816:./BSP/components/adv7533/adv7533.c **** int32_t ADV7533_SetMute(ADV7533_Object_t *pObj, uint16_t Cmd)
 817:./BSP/components/adv7533/adv7533.c **** {
 2522              		.loc 1 817 1
 2523              		.cfi_startproc
 2524              		@ args = 0, pretend = 0, frame = 16
 2525              		@ frame_needed = 1, uses_anonymous_args = 0
 2526 0000 80B5     		push	{r7, lr}
 2527              	.LCFI154:
 2528              		.cfi_def_cfa_offset 8
 2529              		.cfi_offset 7, -8
 2530              		.cfi_offset 14, -4
 2531 0002 84B0     		sub	sp, sp, #16
 2532              	.LCFI155:
 2533              		.cfi_def_cfa_offset 24
 2534 0004 00AF     		add	r7, sp, #0
 2535              	.LCFI156:
 2536              		.cfi_def_cfa_register 7
 2537 0006 7860     		str	r0, [r7, #4]
 2538 0008 0B46     		mov	r3, r1
 2539 000a 7B80     		strh	r3, [r7, #2]	@ movhi
 818:./BSP/components/adv7533/adv7533.c ****   int32_t ret;  
 819:./BSP/components/adv7533/adv7533.c ****   uint8_t tmp = 0;
 2540              		.loc 1 819 11
 2541 000c 0023     		movs	r3, #0
 2542 000e FB72     		strb	r3, [r7, #11]
 820:./BSP/components/adv7533/adv7533.c ****   
 821:./BSP/components/adv7533/adv7533.c ****   /* Set I2C address to ADV7533_MAIN_I2C_ADDR */
 822:./BSP/components/adv7533/adv7533.c ****   ADV7533_SetI2C_Address(pObj, ADV7533_MAIN_I2C_ADDR);
 2543              		.loc 1 822 3
 2544 0010 7A21     		movs	r1, #122
 2545 0012 7868     		ldr	r0, [r7, #4]
ARM GAS  /tmp/ccipu0lT.s 			page 59


 2546 0014 FFF7FEFF 		bl	ADV7533_SetI2C_Address
 823:./BSP/components/adv7533/adv7533.c ****   
 824:./BSP/components/adv7533/adv7533.c ****   ret = adv7533_read_reg(&pObj->Ctx, 0x0D, &tmp, 1);
 2547              		.loc 1 824 9
 2548 0018 7B68     		ldr	r3, [r7, #4]
 2549 001a 03F11800 		add	r0, r3, #24
 2550 001e 07F10B02 		add	r2, r7, #11
 2551 0022 0123     		movs	r3, #1
 2552 0024 0D21     		movs	r1, #13
 2553 0026 FFF7FEFF 		bl	adv7533_read_reg
 2554 002a F860     		str	r0, [r7, #12]
 825:./BSP/components/adv7533/adv7533.c ****   if (Cmd == ADV7533_MUTE_ON)  
 2555              		.loc 1 825 6
 2556 002c 7B88     		ldrh	r3, [r7, #2]
 2557 002e 012B     		cmp	r3, #1
 2558 0030 14D1     		bne	.L80
 826:./BSP/components/adv7533/adv7533.c ****   {
 827:./BSP/components/adv7533/adv7533.c ****     /* enable audio mute*/ 
 828:./BSP/components/adv7533/adv7533.c ****     tmp |= 0x40U;
 2559              		.loc 1 828 9
 2560 0032 FB7A     		ldrb	r3, [r7, #11]	@ zero_extendqisi2
 2561 0034 43F04003 		orr	r3, r3, #64
 2562 0038 DBB2     		uxtb	r3, r3
 2563 003a FB72     		strb	r3, [r7, #11]
 829:./BSP/components/adv7533/adv7533.c ****     if(adv7533_write_reg(&pObj->Ctx, 0x0D, &tmp, 1) != ADV7533_OK)
 2564              		.loc 1 829 8
 2565 003c 7B68     		ldr	r3, [r7, #4]
 2566 003e 03F11800 		add	r0, r3, #24
 2567 0042 07F10B02 		add	r2, r7, #11
 2568 0046 0123     		movs	r3, #1
 2569 0048 0D21     		movs	r1, #13
 2570 004a FFF7FEFF 		bl	adv7533_write_reg
 2571 004e 0346     		mov	r3, r0
 2572              		.loc 1 829 7
 2573 0050 002B     		cmp	r3, #0
 2574 0052 17D0     		beq	.L81
 830:./BSP/components/adv7533/adv7533.c ****     {
 831:./BSP/components/adv7533/adv7533.c ****       ret = ADV7533_ERROR;
 2575              		.loc 1 831 11
 2576 0054 4FF0FF33 		mov	r3, #-1
 2577 0058 FB60     		str	r3, [r7, #12]
 2578 005a 13E0     		b	.L81
 2579              	.L80:
 832:./BSP/components/adv7533/adv7533.c ****     }
 833:./BSP/components/adv7533/adv7533.c ****   }
 834:./BSP/components/adv7533/adv7533.c ****   else
 835:./BSP/components/adv7533/adv7533.c ****   {
 836:./BSP/components/adv7533/adv7533.c ****     /*audio mute off disable the mute */
 837:./BSP/components/adv7533/adv7533.c ****     tmp &= ~0x40U;
 2580              		.loc 1 837 9
 2581 005c FB7A     		ldrb	r3, [r7, #11]	@ zero_extendqisi2
 2582 005e 23F04003 		bic	r3, r3, #64
 2583 0062 DBB2     		uxtb	r3, r3
 2584 0064 FB72     		strb	r3, [r7, #11]
 838:./BSP/components/adv7533/adv7533.c ****     if(adv7533_write_reg(&pObj->Ctx, 0x0D, &tmp, 1) != ADV7533_OK)
 2585              		.loc 1 838 8
 2586 0066 7B68     		ldr	r3, [r7, #4]
ARM GAS  /tmp/ccipu0lT.s 			page 60


 2587 0068 03F11800 		add	r0, r3, #24
 2588 006c 07F10B02 		add	r2, r7, #11
 2589 0070 0123     		movs	r3, #1
 2590 0072 0D21     		movs	r1, #13
 2591 0074 FFF7FEFF 		bl	adv7533_write_reg
 2592 0078 0346     		mov	r3, r0
 2593              		.loc 1 838 7
 2594 007a 002B     		cmp	r3, #0
 2595 007c 02D0     		beq	.L81
 839:./BSP/components/adv7533/adv7533.c ****     {
 840:./BSP/components/adv7533/adv7533.c ****       ret = ADV7533_ERROR;
 2596              		.loc 1 840 11
 2597 007e 4FF0FF33 		mov	r3, #-1
 2598 0082 FB60     		str	r3, [r7, #12]
 2599              	.L81:
 841:./BSP/components/adv7533/adv7533.c ****     }
 842:./BSP/components/adv7533/adv7533.c ****   }
 843:./BSP/components/adv7533/adv7533.c ****   
 844:./BSP/components/adv7533/adv7533.c ****   return ret;
 2600              		.loc 1 844 10
 2601 0084 FB68     		ldr	r3, [r7, #12]
 845:./BSP/components/adv7533/adv7533.c **** }
 2602              		.loc 1 845 1
 2603 0086 1846     		mov	r0, r3
 2604 0088 1037     		adds	r7, r7, #16
 2605              	.LCFI157:
 2606              		.cfi_def_cfa_offset 8
 2607 008a BD46     		mov	sp, r7
 2608              	.LCFI158:
 2609              		.cfi_def_cfa_register 13
 2610              		@ sp needed
 2611 008c 80BD     		pop	{r7, pc}
 2612              		.cfi_endproc
 2613              	.LFE28:
 2615              		.section	.text.ADV7533_SetOutputMode,"ax",%progbits
 2616              		.align	1
 2617              		.global	ADV7533_SetOutputMode
 2618              		.syntax unified
 2619              		.thumb
 2620              		.thumb_func
 2621              		.fpu fpv5-d16
 2623              	ADV7533_SetOutputMode:
 2624              	.LFB29:
 846:./BSP/components/adv7533/adv7533.c **** 
 847:./BSP/components/adv7533/adv7533.c **** /**
 848:./BSP/components/adv7533/adv7533.c ****   * @brief Sets output mode.
 849:./BSP/components/adv7533/adv7533.c ****   * @param  pObj  pointer to component object
 850:./BSP/components/adv7533/adv7533.c ****   * @param  Output   hdmi output.
 851:./BSP/components/adv7533/adv7533.c ****   * @retval Component status
 852:./BSP/components/adv7533/adv7533.c ****   */
 853:./BSP/components/adv7533/adv7533.c **** int32_t ADV7533_SetOutputMode(ADV7533_Object_t *pObj, uint16_t Output)
 854:./BSP/components/adv7533/adv7533.c **** {
 2625              		.loc 1 854 1
 2626              		.cfi_startproc
 2627              		@ args = 0, pretend = 0, frame = 8
 2628              		@ frame_needed = 1, uses_anonymous_args = 0
 2629              		@ link register save eliminated.
ARM GAS  /tmp/ccipu0lT.s 			page 61


 2630 0000 80B4     		push	{r7}
 2631              	.LCFI159:
 2632              		.cfi_def_cfa_offset 4
 2633              		.cfi_offset 7, -4
 2634 0002 83B0     		sub	sp, sp, #12
 2635              	.LCFI160:
 2636              		.cfi_def_cfa_offset 16
 2637 0004 00AF     		add	r7, sp, #0
 2638              	.LCFI161:
 2639              		.cfi_def_cfa_register 7
 2640 0006 7860     		str	r0, [r7, #4]
 2641 0008 0B46     		mov	r3, r1
 2642 000a 7B80     		strh	r3, [r7, #2]	@ movhi
 855:./BSP/components/adv7533/adv7533.c ****   /* Prevent unused argument(s) compilation warning */
 856:./BSP/components/adv7533/adv7533.c ****   (void)(pObj);
 857:./BSP/components/adv7533/adv7533.c ****   (void)(Output);
 858:./BSP/components/adv7533/adv7533.c ****   
 859:./BSP/components/adv7533/adv7533.c ****   /* Not supported */  
 860:./BSP/components/adv7533/adv7533.c ****   return ADV7533_ERROR;
 2643              		.loc 1 860 10
 2644 000c 4FF0FF33 		mov	r3, #-1
 861:./BSP/components/adv7533/adv7533.c **** }    
 2645              		.loc 1 861 1
 2646 0010 1846     		mov	r0, r3
 2647 0012 0C37     		adds	r7, r7, #12
 2648              	.LCFI162:
 2649              		.cfi_def_cfa_offset 4
 2650 0014 BD46     		mov	sp, r7
 2651              	.LCFI163:
 2652              		.cfi_def_cfa_register 13
 2653              		@ sp needed
 2654 0016 5DF8047B 		ldr	r7, [sp], #4
 2655              	.LCFI164:
 2656              		.cfi_restore 7
 2657              		.cfi_def_cfa_offset 0
 2658 001a 7047     		bx	lr
 2659              		.cfi_endproc
 2660              	.LFE29:
 2662              		.section	.text.ADV7533_SetVolume,"ax",%progbits
 2663              		.align	1
 2664              		.global	ADV7533_SetVolume
 2665              		.syntax unified
 2666              		.thumb
 2667              		.thumb_func
 2668              		.fpu fpv5-d16
 2670              	ADV7533_SetVolume:
 2671              	.LFB30:
 862:./BSP/components/adv7533/adv7533.c ****             
 863:./BSP/components/adv7533/adv7533.c **** /**
 864:./BSP/components/adv7533/adv7533.c ****   * @brief Sets volumee.
 865:./BSP/components/adv7533/adv7533.c ****   * @param  pObj pointer to component object
 866:./BSP/components/adv7533/adv7533.c ****   * @param  Volume : volume value.
 867:./BSP/components/adv7533/adv7533.c ****   * @retval Component status
 868:./BSP/components/adv7533/adv7533.c ****   */           
 869:./BSP/components/adv7533/adv7533.c **** int32_t ADV7533_SetVolume(ADV7533_Object_t *pObj, uint8_t Volume, uint8_t InputOutput)
 870:./BSP/components/adv7533/adv7533.c **** {
 2672              		.loc 1 870 1
ARM GAS  /tmp/ccipu0lT.s 			page 62


 2673              		.cfi_startproc
 2674              		@ args = 0, pretend = 0, frame = 8
 2675              		@ frame_needed = 1, uses_anonymous_args = 0
 2676              		@ link register save eliminated.
 2677 0000 80B4     		push	{r7}
 2678              	.LCFI165:
 2679              		.cfi_def_cfa_offset 4
 2680              		.cfi_offset 7, -4
 2681 0002 83B0     		sub	sp, sp, #12
 2682              	.LCFI166:
 2683              		.cfi_def_cfa_offset 16
 2684 0004 00AF     		add	r7, sp, #0
 2685              	.LCFI167:
 2686              		.cfi_def_cfa_register 7
 2687 0006 7860     		str	r0, [r7, #4]
 2688 0008 0B46     		mov	r3, r1
 2689 000a FB70     		strb	r3, [r7, #3]
 2690 000c 1346     		mov	r3, r2
 2691 000e BB70     		strb	r3, [r7, #2]
 871:./BSP/components/adv7533/adv7533.c ****   /* Prevent unused argument(s) compilation warning */
 872:./BSP/components/adv7533/adv7533.c ****   (void)(pObj);
 873:./BSP/components/adv7533/adv7533.c ****   (void)(Volume);
 874:./BSP/components/adv7533/adv7533.c ****   (void)(InputOutput);
 875:./BSP/components/adv7533/adv7533.c ****   
 876:./BSP/components/adv7533/adv7533.c ****   /* Not supported */  
 877:./BSP/components/adv7533/adv7533.c ****   return ADV7533_ERROR;
 2692              		.loc 1 877 10
 2693 0010 4FF0FF33 		mov	r3, #-1
 878:./BSP/components/adv7533/adv7533.c **** }
 2694              		.loc 1 878 1
 2695 0014 1846     		mov	r0, r3
 2696 0016 0C37     		adds	r7, r7, #12
 2697              	.LCFI168:
 2698              		.cfi_def_cfa_offset 4
 2699 0018 BD46     		mov	sp, r7
 2700              	.LCFI169:
 2701              		.cfi_def_cfa_register 13
 2702              		@ sp needed
 2703 001a 5DF8047B 		ldr	r7, [sp], #4
 2704              	.LCFI170:
 2705              		.cfi_restore 7
 2706              		.cfi_def_cfa_offset 0
 2707 001e 7047     		bx	lr
 2708              		.cfi_endproc
 2709              	.LFE30:
 2711              		.section	.text.ADV7533_GetVolume,"ax",%progbits
 2712              		.align	1
 2713              		.global	ADV7533_GetVolume
 2714              		.syntax unified
 2715              		.thumb
 2716              		.thumb_func
 2717              		.fpu fpv5-d16
 2719              	ADV7533_GetVolume:
 2720              	.LFB31:
 879:./BSP/components/adv7533/adv7533.c **** 
 880:./BSP/components/adv7533/adv7533.c **** /**
 881:./BSP/components/adv7533/adv7533.c ****   * @brief Sets volumee.
ARM GAS  /tmp/ccipu0lT.s 			page 63


 882:./BSP/components/adv7533/adv7533.c ****   * @param  pObj pointer to component object
 883:./BSP/components/adv7533/adv7533.c ****   * @param  Volume : volume value.
 884:./BSP/components/adv7533/adv7533.c ****   * @retval Component status
 885:./BSP/components/adv7533/adv7533.c ****   */           
 886:./BSP/components/adv7533/adv7533.c **** int32_t ADV7533_GetVolume(ADV7533_Object_t *pObj, uint8_t Volume)
 887:./BSP/components/adv7533/adv7533.c **** {
 2721              		.loc 1 887 1
 2722              		.cfi_startproc
 2723              		@ args = 0, pretend = 0, frame = 8
 2724              		@ frame_needed = 1, uses_anonymous_args = 0
 2725              		@ link register save eliminated.
 2726 0000 80B4     		push	{r7}
 2727              	.LCFI171:
 2728              		.cfi_def_cfa_offset 4
 2729              		.cfi_offset 7, -4
 2730 0002 83B0     		sub	sp, sp, #12
 2731              	.LCFI172:
 2732              		.cfi_def_cfa_offset 16
 2733 0004 00AF     		add	r7, sp, #0
 2734              	.LCFI173:
 2735              		.cfi_def_cfa_register 7
 2736 0006 7860     		str	r0, [r7, #4]
 2737 0008 0B46     		mov	r3, r1
 2738 000a FB70     		strb	r3, [r7, #3]
 888:./BSP/components/adv7533/adv7533.c ****   /* Prevent unused argument(s) compilation warning */
 889:./BSP/components/adv7533/adv7533.c ****   (void)(pObj);
 890:./BSP/components/adv7533/adv7533.c ****   (void)(Volume);
 891:./BSP/components/adv7533/adv7533.c ****   
 892:./BSP/components/adv7533/adv7533.c ****   /* Not supported */  
 893:./BSP/components/adv7533/adv7533.c ****   return ADV7533_ERROR;
 2739              		.loc 1 893 10
 2740 000c 4FF0FF33 		mov	r3, #-1
 894:./BSP/components/adv7533/adv7533.c **** }
 2741              		.loc 1 894 1
 2742 0010 1846     		mov	r0, r3
 2743 0012 0C37     		adds	r7, r7, #12
 2744              	.LCFI174:
 2745              		.cfi_def_cfa_offset 4
 2746 0014 BD46     		mov	sp, r7
 2747              	.LCFI175:
 2748              		.cfi_def_cfa_register 13
 2749              		@ sp needed
 2750 0016 5DF8047B 		ldr	r7, [sp], #4
 2751              	.LCFI176:
 2752              		.cfi_restore 7
 2753              		.cfi_def_cfa_offset 0
 2754 001a 7047     		bx	lr
 2755              		.cfi_endproc
 2756              	.LFE31:
 2758              		.section	.text.ADV7533_SetResolution,"ax",%progbits
 2759              		.align	1
 2760              		.global	ADV7533_SetResolution
 2761              		.syntax unified
 2762              		.thumb
 2763              		.thumb_func
 2764              		.fpu fpv5-d16
 2766              	ADV7533_SetResolution:
ARM GAS  /tmp/ccipu0lT.s 			page 64


 2767              	.LFB32:
 895:./BSP/components/adv7533/adv7533.c **** 
 896:./BSP/components/adv7533/adv7533.c **** /**
 897:./BSP/components/adv7533/adv7533.c ****   * @brief Set Audio resolution.
 898:./BSP/components/adv7533/adv7533.c ****   * @param  pObj pointer to component object
 899:./BSP/components/adv7533/adv7533.c ****   * @param Resolution: Audio resolution.
 900:./BSP/components/adv7533/adv7533.c ****   * @retval ADV7533_OK
 901:./BSP/components/adv7533/adv7533.c ****   */
 902:./BSP/components/adv7533/adv7533.c **** int32_t ADV7533_SetResolution(ADV7533_Object_t *pObj, uint32_t Resolution)
 903:./BSP/components/adv7533/adv7533.c **** {
 2768              		.loc 1 903 1
 2769              		.cfi_startproc
 2770              		@ args = 0, pretend = 0, frame = 8
 2771              		@ frame_needed = 1, uses_anonymous_args = 0
 2772              		@ link register save eliminated.
 2773 0000 80B4     		push	{r7}
 2774              	.LCFI177:
 2775              		.cfi_def_cfa_offset 4
 2776              		.cfi_offset 7, -4
 2777 0002 83B0     		sub	sp, sp, #12
 2778              	.LCFI178:
 2779              		.cfi_def_cfa_offset 16
 2780 0004 00AF     		add	r7, sp, #0
 2781              	.LCFI179:
 2782              		.cfi_def_cfa_register 7
 2783 0006 7860     		str	r0, [r7, #4]
 2784 0008 3960     		str	r1, [r7]
 904:./BSP/components/adv7533/adv7533.c ****   /* Prevent unused argument(s) compilation warning */
 905:./BSP/components/adv7533/adv7533.c ****   (void)(pObj);
 906:./BSP/components/adv7533/adv7533.c ****   (void)(Resolution);
 907:./BSP/components/adv7533/adv7533.c ****   
 908:./BSP/components/adv7533/adv7533.c ****   /* Not supported */  
 909:./BSP/components/adv7533/adv7533.c ****   return ADV7533_ERROR;
 2785              		.loc 1 909 10
 2786 000a 4FF0FF33 		mov	r3, #-1
 910:./BSP/components/adv7533/adv7533.c **** }
 2787              		.loc 1 910 1
 2788 000e 1846     		mov	r0, r3
 2789 0010 0C37     		adds	r7, r7, #12
 2790              	.LCFI180:
 2791              		.cfi_def_cfa_offset 4
 2792 0012 BD46     		mov	sp, r7
 2793              	.LCFI181:
 2794              		.cfi_def_cfa_register 13
 2795              		@ sp needed
 2796 0014 5DF8047B 		ldr	r7, [sp], #4
 2797              	.LCFI182:
 2798              		.cfi_restore 7
 2799              		.cfi_def_cfa_offset 0
 2800 0018 7047     		bx	lr
 2801              		.cfi_endproc
 2802              	.LFE32:
 2804              		.section	.text.ADV7533_GetResolution,"ax",%progbits
 2805              		.align	1
 2806              		.global	ADV7533_GetResolution
 2807              		.syntax unified
 2808              		.thumb
ARM GAS  /tmp/ccipu0lT.s 			page 65


 2809              		.thumb_func
 2810              		.fpu fpv5-d16
 2812              	ADV7533_GetResolution:
 2813              	.LFB33:
 911:./BSP/components/adv7533/adv7533.c **** 
 912:./BSP/components/adv7533/adv7533.c **** /**
 913:./BSP/components/adv7533/adv7533.c ****   * @brief Get Audio resolution.
 914:./BSP/components/adv7533/adv7533.c ****   * @param  pObj pointer to component object
 915:./BSP/components/adv7533/adv7533.c ****   * @retval Audio resolution
 916:./BSP/components/adv7533/adv7533.c ****   */
 917:./BSP/components/adv7533/adv7533.c **** int32_t ADV7533_GetResolution(ADV7533_Object_t *pObj, uint32_t *Resolution)
 918:./BSP/components/adv7533/adv7533.c **** {
 2814              		.loc 1 918 1
 2815              		.cfi_startproc
 2816              		@ args = 0, pretend = 0, frame = 8
 2817              		@ frame_needed = 1, uses_anonymous_args = 0
 2818              		@ link register save eliminated.
 2819 0000 80B4     		push	{r7}
 2820              	.LCFI183:
 2821              		.cfi_def_cfa_offset 4
 2822              		.cfi_offset 7, -4
 2823 0002 83B0     		sub	sp, sp, #12
 2824              	.LCFI184:
 2825              		.cfi_def_cfa_offset 16
 2826 0004 00AF     		add	r7, sp, #0
 2827              	.LCFI185:
 2828              		.cfi_def_cfa_register 7
 2829 0006 7860     		str	r0, [r7, #4]
 2830 0008 3960     		str	r1, [r7]
 919:./BSP/components/adv7533/adv7533.c ****   /* Prevent unused argument(s) compilation warning */
 920:./BSP/components/adv7533/adv7533.c ****   (void)(pObj);
 921:./BSP/components/adv7533/adv7533.c ****   (void)(Resolution);
 922:./BSP/components/adv7533/adv7533.c ****   
 923:./BSP/components/adv7533/adv7533.c ****   /* Not supported */  
 924:./BSP/components/adv7533/adv7533.c ****   return ADV7533_ERROR;
 2831              		.loc 1 924 10
 2832 000a 4FF0FF33 		mov	r3, #-1
 925:./BSP/components/adv7533/adv7533.c **** }
 2833              		.loc 1 925 1
 2834 000e 1846     		mov	r0, r3
 2835 0010 0C37     		adds	r7, r7, #12
 2836              	.LCFI186:
 2837              		.cfi_def_cfa_offset 4
 2838 0012 BD46     		mov	sp, r7
 2839              	.LCFI187:
 2840              		.cfi_def_cfa_register 13
 2841              		@ sp needed
 2842 0014 5DF8047B 		ldr	r7, [sp], #4
 2843              	.LCFI188:
 2844              		.cfi_restore 7
 2845              		.cfi_def_cfa_offset 0
 2846 0018 7047     		bx	lr
 2847              		.cfi_endproc
 2848              	.LFE33:
 2850              		.section	.text.ADV7533_SetProtocol,"ax",%progbits
 2851              		.align	1
 2852              		.global	ADV7533_SetProtocol
ARM GAS  /tmp/ccipu0lT.s 			page 66


 2853              		.syntax unified
 2854              		.thumb
 2855              		.thumb_func
 2856              		.fpu fpv5-d16
 2858              	ADV7533_SetProtocol:
 2859              	.LFB34:
 926:./BSP/components/adv7533/adv7533.c **** 
 927:./BSP/components/adv7533/adv7533.c **** /**
 928:./BSP/components/adv7533/adv7533.c ****   * @brief Set Audio Protocol.
 929:./BSP/components/adv7533/adv7533.c ****   * @param  pObj pointer to component object
 930:./BSP/components/adv7533/adv7533.c ****   * @param Protocol: Audio Protocol
 931:./BSP/components/adv7533/adv7533.c ****   * @retval ADV7533_OK
 932:./BSP/components/adv7533/adv7533.c ****   */
 933:./BSP/components/adv7533/adv7533.c **** int32_t ADV7533_SetProtocol(ADV7533_Object_t *pObj, uint16_t Protocol)
 934:./BSP/components/adv7533/adv7533.c **** {
 2860              		.loc 1 934 1
 2861              		.cfi_startproc
 2862              		@ args = 0, pretend = 0, frame = 8
 2863              		@ frame_needed = 1, uses_anonymous_args = 0
 2864              		@ link register save eliminated.
 2865 0000 80B4     		push	{r7}
 2866              	.LCFI189:
 2867              		.cfi_def_cfa_offset 4
 2868              		.cfi_offset 7, -4
 2869 0002 83B0     		sub	sp, sp, #12
 2870              	.LCFI190:
 2871              		.cfi_def_cfa_offset 16
 2872 0004 00AF     		add	r7, sp, #0
 2873              	.LCFI191:
 2874              		.cfi_def_cfa_register 7
 2875 0006 7860     		str	r0, [r7, #4]
 2876 0008 0B46     		mov	r3, r1
 2877 000a 7B80     		strh	r3, [r7, #2]	@ movhi
 935:./BSP/components/adv7533/adv7533.c ****   /* Prevent unused argument(s) compilation warning */
 936:./BSP/components/adv7533/adv7533.c ****   (void)(pObj);
 937:./BSP/components/adv7533/adv7533.c ****   (void)(Protocol);
 938:./BSP/components/adv7533/adv7533.c ****          
 939:./BSP/components/adv7533/adv7533.c ****   /* Not supported */  
 940:./BSP/components/adv7533/adv7533.c ****   return ADV7533_ERROR;
 2878              		.loc 1 940 10
 2879 000c 4FF0FF33 		mov	r3, #-1
 941:./BSP/components/adv7533/adv7533.c **** }
 2880              		.loc 1 941 1
 2881 0010 1846     		mov	r0, r3
 2882 0012 0C37     		adds	r7, r7, #12
 2883              	.LCFI192:
 2884              		.cfi_def_cfa_offset 4
 2885 0014 BD46     		mov	sp, r7
 2886              	.LCFI193:
 2887              		.cfi_def_cfa_register 13
 2888              		@ sp needed
 2889 0016 5DF8047B 		ldr	r7, [sp], #4
 2890              	.LCFI194:
 2891              		.cfi_restore 7
 2892              		.cfi_def_cfa_offset 0
 2893 001a 7047     		bx	lr
 2894              		.cfi_endproc
ARM GAS  /tmp/ccipu0lT.s 			page 67


 2895              	.LFE34:
 2897              		.section	.text.ADV7533_GetProtocol,"ax",%progbits
 2898              		.align	1
 2899              		.global	ADV7533_GetProtocol
 2900              		.syntax unified
 2901              		.thumb
 2902              		.thumb_func
 2903              		.fpu fpv5-d16
 2905              	ADV7533_GetProtocol:
 2906              	.LFB35:
 942:./BSP/components/adv7533/adv7533.c **** 
 943:./BSP/components/adv7533/adv7533.c **** /**
 944:./BSP/components/adv7533/adv7533.c ****   * @brief Get Audio Protocol.
 945:./BSP/components/adv7533/adv7533.c ****   * @param  pObj pointer to component object
 946:./BSP/components/adv7533/adv7533.c ****   * @retval Audio Protocol
 947:./BSP/components/adv7533/adv7533.c ****   */
 948:./BSP/components/adv7533/adv7533.c **** int32_t ADV7533_GetProtocol(ADV7533_Object_t *pObj)
 949:./BSP/components/adv7533/adv7533.c **** {
 2907              		.loc 1 949 1
 2908              		.cfi_startproc
 2909              		@ args = 0, pretend = 0, frame = 8
 2910              		@ frame_needed = 1, uses_anonymous_args = 0
 2911              		@ link register save eliminated.
 2912 0000 80B4     		push	{r7}
 2913              	.LCFI195:
 2914              		.cfi_def_cfa_offset 4
 2915              		.cfi_offset 7, -4
 2916 0002 83B0     		sub	sp, sp, #12
 2917              	.LCFI196:
 2918              		.cfi_def_cfa_offset 16
 2919 0004 00AF     		add	r7, sp, #0
 2920              	.LCFI197:
 2921              		.cfi_def_cfa_register 7
 2922 0006 7860     		str	r0, [r7, #4]
 950:./BSP/components/adv7533/adv7533.c ****   /* Prevent unused argument(s) compilation warning */
 951:./BSP/components/adv7533/adv7533.c ****   (void)(pObj);
 952:./BSP/components/adv7533/adv7533.c ****   
 953:./BSP/components/adv7533/adv7533.c ****   /* Not supported */  
 954:./BSP/components/adv7533/adv7533.c ****   return ADV7533_ERROR;
 2923              		.loc 1 954 10
 2924 0008 4FF0FF33 		mov	r3, #-1
 955:./BSP/components/adv7533/adv7533.c **** }
 2925              		.loc 1 955 1
 2926 000c 1846     		mov	r0, r3
 2927 000e 0C37     		adds	r7, r7, #12
 2928              	.LCFI198:
 2929              		.cfi_def_cfa_offset 4
 2930 0010 BD46     		mov	sp, r7
 2931              	.LCFI199:
 2932              		.cfi_def_cfa_register 13
 2933              		@ sp needed
 2934 0012 5DF8047B 		ldr	r7, [sp], #4
 2935              	.LCFI200:
 2936              		.cfi_restore 7
 2937              		.cfi_def_cfa_offset 0
 2938 0016 7047     		bx	lr
 2939              		.cfi_endproc
ARM GAS  /tmp/ccipu0lT.s 			page 68


 2940              	.LFE35:
 2942              		.section	.text.ADV7533_SetFrequency,"ax",%progbits
 2943              		.align	1
 2944              		.global	ADV7533_SetFrequency
 2945              		.syntax unified
 2946              		.thumb
 2947              		.thumb_func
 2948              		.fpu fpv5-d16
 2950              	ADV7533_SetFrequency:
 2951              	.LFB36:
 956:./BSP/components/adv7533/adv7533.c **** 
 957:./BSP/components/adv7533/adv7533.c **** /**
 958:./BSP/components/adv7533/adv7533.c ****   * @brief Sets new frequency.
 959:./BSP/components/adv7533/adv7533.c ****   * @param  pObj pointer to component object
 960:./BSP/components/adv7533/adv7533.c ****   * @param AudioFreq: Audio frequency used to play the audio stream.
 961:./BSP/components/adv7533/adv7533.c ****   * @retval Component status
 962:./BSP/components/adv7533/adv7533.c ****   */
 963:./BSP/components/adv7533/adv7533.c **** int32_t ADV7533_SetFrequency(ADV7533_Object_t *pObj, uint32_t AudioFreq)
 964:./BSP/components/adv7533/adv7533.c **** {
 2952              		.loc 1 964 1
 2953              		.cfi_startproc
 2954              		@ args = 0, pretend = 0, frame = 16
 2955              		@ frame_needed = 1, uses_anonymous_args = 0
 2956 0000 80B5     		push	{r7, lr}
 2957              	.LCFI201:
 2958              		.cfi_def_cfa_offset 8
 2959              		.cfi_offset 7, -8
 2960              		.cfi_offset 14, -4
 2961 0002 84B0     		sub	sp, sp, #16
 2962              	.LCFI202:
 2963              		.cfi_def_cfa_offset 24
 2964 0004 00AF     		add	r7, sp, #0
 2965              	.LCFI203:
 2966              		.cfi_def_cfa_register 7
 2967 0006 7860     		str	r0, [r7, #4]
 2968 0008 3960     		str	r1, [r7]
 965:./BSP/components/adv7533/adv7533.c ****   int32_t ret;  
 966:./BSP/components/adv7533/adv7533.c ****   uint8_t tmp;
 967:./BSP/components/adv7533/adv7533.c ****   
 968:./BSP/components/adv7533/adv7533.c ****   /* Set I2C address to ADV7533_MAIN_I2C_ADDR */
 969:./BSP/components/adv7533/adv7533.c ****   ADV7533_SetI2C_Address(pObj, ADV7533_MAIN_I2C_ADDR);
 2969              		.loc 1 969 3
 2970 000a 7A21     		movs	r1, #122
 2971 000c 7868     		ldr	r0, [r7, #4]
 2972 000e FFF7FEFF 		bl	ADV7533_SetI2C_Address
 970:./BSP/components/adv7533/adv7533.c ****   
 971:./BSP/components/adv7533/adv7533.c ****   ret = adv7533_read_reg(&pObj->Ctx, 0x15, &tmp, 1);
 2973              		.loc 1 971 9
 2974 0012 7B68     		ldr	r3, [r7, #4]
 2975 0014 03F11800 		add	r0, r3, #24
 2976 0018 07F10B02 		add	r2, r7, #11
 2977 001c 0123     		movs	r3, #1
 2978 001e 1521     		movs	r1, #21
 2979 0020 FFF7FEFF 		bl	adv7533_read_reg
 2980 0024 F860     		str	r0, [r7, #12]
 972:./BSP/components/adv7533/adv7533.c ****   tmp &= (~0xF0U);
 2981              		.loc 1 972 7
ARM GAS  /tmp/ccipu0lT.s 			page 69


 2982 0026 FB7A     		ldrb	r3, [r7, #11]	@ zero_extendqisi2
 2983 0028 03F00F03 		and	r3, r3, #15
 2984 002c DBB2     		uxtb	r3, r3
 2985 002e FB72     		strb	r3, [r7, #11]
 973:./BSP/components/adv7533/adv7533.c ****   /*  Clock Configurations */
 974:./BSP/components/adv7533/adv7533.c ****   switch (AudioFreq)
 2986              		.loc 1 974 3
 2987 0030 3B68     		ldr	r3, [r7]
 2988 0032 614A     		ldr	r2, .L109
 2989 0034 9342     		cmp	r3, r2
 2990 0036 00F0A580 		beq	.L98
 2991 003a 3B68     		ldr	r3, [r7]
 2992 003c 5E4A     		ldr	r2, .L109
 2993 003e 9342     		cmp	r3, r2
 2994 0040 00F2B380 		bhi	.L108
 2995 0044 3B68     		ldr	r3, [r7]
 2996 0046 5D4A     		ldr	r2, .L109+4
 2997 0048 9342     		cmp	r3, r2
 2998 004a 00F08880 		beq	.L100
 2999 004e 3B68     		ldr	r3, [r7]
 3000 0050 5A4A     		ldr	r2, .L109+4
 3001 0052 9342     		cmp	r3, r2
 3002 0054 00F2A980 		bhi	.L108
 3003 0058 3B68     		ldr	r3, [r7]
 3004 005a 594A     		ldr	r2, .L109+8
 3005 005c 9342     		cmp	r3, r2
 3006 005e 58D0     		beq	.L101
 3007 0060 3B68     		ldr	r3, [r7]
 3008 0062 574A     		ldr	r2, .L109+8
 3009 0064 9342     		cmp	r3, r2
 3010 0066 00F2A080 		bhi	.L108
 3011 006a 3B68     		ldr	r3, [r7]
 3012 006c 554A     		ldr	r2, .L109+12
 3013 006e 9342     		cmp	r3, r2
 3014 0070 62D0     		beq	.L102
 3015 0072 3B68     		ldr	r3, [r7]
 3016 0074 534A     		ldr	r2, .L109+12
 3017 0076 9342     		cmp	r3, r2
 3018 0078 00F29780 		bhi	.L108
 3019 007c 3B68     		ldr	r3, [r7]
 3020 007e 4BF68032 		movw	r2, #48000
 3021 0082 9342     		cmp	r3, r2
 3022 0084 32D0     		beq	.L103
 3023 0086 3B68     		ldr	r3, [r7]
 3024 0088 4BF68032 		movw	r2, #48000
 3025 008c 9342     		cmp	r3, r2
 3026 008e 00F28C80 		bhi	.L108
 3027 0092 3B68     		ldr	r3, [r7]
 3028 0094 B3F5FA4F 		cmp	r3, #32000
 3029 0098 05D0     		beq	.L104
 3030 009a 3B68     		ldr	r3, [r7]
 3031 009c 4AF64442 		movw	r2, #44100
 3032 00a0 9342     		cmp	r3, r2
 3033 00a2 13D0     		beq	.L105
 975:./BSP/components/adv7533/adv7533.c ****   {
 976:./BSP/components/adv7533/adv7533.c ****   case  ADV7533_FREQUENCY_32K:
 977:./BSP/components/adv7533/adv7533.c ****     /* Sampling Frequency =32 KHZ*/
ARM GAS  /tmp/ccipu0lT.s 			page 70


 978:./BSP/components/adv7533/adv7533.c ****     tmp |= 0x30U;
 979:./BSP/components/adv7533/adv7533.c ****     ret += adv7533_write_reg(&pObj->Ctx, 0x15, &tmp, 1);
 980:./BSP/components/adv7533/adv7533.c ****     break;
 981:./BSP/components/adv7533/adv7533.c ****   case  ADV7533_FREQUENCY_44K: 
 982:./BSP/components/adv7533/adv7533.c ****     /* Sampling Frequency =44,1 KHZ*/
 983:./BSP/components/adv7533/adv7533.c ****     tmp |= 0x00U;
 984:./BSP/components/adv7533/adv7533.c ****     ret += adv7533_write_reg(&pObj->Ctx, 0x15, &tmp, 1);
 985:./BSP/components/adv7533/adv7533.c ****     break;
 986:./BSP/components/adv7533/adv7533.c ****     
 987:./BSP/components/adv7533/adv7533.c ****   case  ADV7533_FREQUENCY_48K: 
 988:./BSP/components/adv7533/adv7533.c ****     /* Sampling Frequency =48KHZ*/
 989:./BSP/components/adv7533/adv7533.c ****     tmp |= 0x20U;
 990:./BSP/components/adv7533/adv7533.c ****     ret += adv7533_write_reg(&pObj->Ctx, 0x15, &tmp, 1);
 991:./BSP/components/adv7533/adv7533.c ****     break;
 992:./BSP/components/adv7533/adv7533.c ****     
 993:./BSP/components/adv7533/adv7533.c ****   case  ADV7533_FREQUENCY_96K: 
 994:./BSP/components/adv7533/adv7533.c ****     /* Sampling Frequency =96 KHZ*/
 995:./BSP/components/adv7533/adv7533.c ****     tmp |= 0xA0U;
 996:./BSP/components/adv7533/adv7533.c ****     ret += adv7533_write_reg(&pObj->Ctx, 0x15, &tmp, 1);
 997:./BSP/components/adv7533/adv7533.c ****     break;
 998:./BSP/components/adv7533/adv7533.c ****     
 999:./BSP/components/adv7533/adv7533.c ****   case  ADV7533_FREQUENCY_88K: 
1000:./BSP/components/adv7533/adv7533.c ****     /* Sampling Frequency =88,2 KHZ*/
1001:./BSP/components/adv7533/adv7533.c ****     tmp |= 0x80U;
1002:./BSP/components/adv7533/adv7533.c ****     ret += adv7533_write_reg(&pObj->Ctx, 0x15, &tmp, 1);
1003:./BSP/components/adv7533/adv7533.c ****     break;
1004:./BSP/components/adv7533/adv7533.c ****     
1005:./BSP/components/adv7533/adv7533.c ****   case  ADV7533_FREQUENCY_176K: 
1006:./BSP/components/adv7533/adv7533.c ****     /* Sampling Frequency =176,4 KHZ*/
1007:./BSP/components/adv7533/adv7533.c ****     tmp |= 0xC0U;
1008:./BSP/components/adv7533/adv7533.c ****     ret += adv7533_write_reg(&pObj->Ctx, 0x15, &tmp, 1);
1009:./BSP/components/adv7533/adv7533.c ****     break;
1010:./BSP/components/adv7533/adv7533.c ****     
1011:./BSP/components/adv7533/adv7533.c ****   case  ADV7533_FREQUENCY_192K: 
1012:./BSP/components/adv7533/adv7533.c ****     /* Sampling Frequency =192KHZ*/
1013:./BSP/components/adv7533/adv7533.c ****     tmp |= 0xE0U;
1014:./BSP/components/adv7533/adv7533.c ****     ret += adv7533_write_reg(&pObj->Ctx, 0x15, &tmp, 1);
1015:./BSP/components/adv7533/adv7533.c ****     break;
1016:./BSP/components/adv7533/adv7533.c ****   default:
1017:./BSP/components/adv7533/adv7533.c ****     break;
 3034              		.loc 1 1017 5
 3035 00a4 81E0     		b	.L108
 3036              	.L104:
 978:./BSP/components/adv7533/adv7533.c ****     ret += adv7533_write_reg(&pObj->Ctx, 0x15, &tmp, 1);
 3037              		.loc 1 978 9
 3038 00a6 FB7A     		ldrb	r3, [r7, #11]	@ zero_extendqisi2
 3039 00a8 43F03003 		orr	r3, r3, #48
 3040 00ac DBB2     		uxtb	r3, r3
 3041 00ae FB72     		strb	r3, [r7, #11]
 979:./BSP/components/adv7533/adv7533.c ****     break;
 3042              		.loc 1 979 12
 3043 00b0 7B68     		ldr	r3, [r7, #4]
 3044 00b2 03F11800 		add	r0, r3, #24
 3045 00b6 07F10B02 		add	r2, r7, #11
 3046 00ba 0123     		movs	r3, #1
 3047 00bc 1521     		movs	r1, #21
 3048 00be FFF7FEFF 		bl	adv7533_write_reg
ARM GAS  /tmp/ccipu0lT.s 			page 71


 3049 00c2 0246     		mov	r2, r0
 979:./BSP/components/adv7533/adv7533.c ****     break;
 3050              		.loc 1 979 9
 3051 00c4 FB68     		ldr	r3, [r7, #12]
 3052 00c6 1344     		add	r3, r3, r2
 3053 00c8 FB60     		str	r3, [r7, #12]
 980:./BSP/components/adv7533/adv7533.c ****   case  ADV7533_FREQUENCY_44K: 
 3054              		.loc 1 980 5
 3055 00ca 6FE0     		b	.L106
 3056              	.L105:
 983:./BSP/components/adv7533/adv7533.c ****     ret += adv7533_write_reg(&pObj->Ctx, 0x15, &tmp, 1);
 3057              		.loc 1 983 9
 3058 00cc FB7A     		ldrb	r3, [r7, #11]	@ zero_extendqisi2
 3059 00ce FB72     		strb	r3, [r7, #11]
 984:./BSP/components/adv7533/adv7533.c ****     break;
 3060              		.loc 1 984 12
 3061 00d0 7B68     		ldr	r3, [r7, #4]
 3062 00d2 03F11800 		add	r0, r3, #24
 3063 00d6 07F10B02 		add	r2, r7, #11
 3064 00da 0123     		movs	r3, #1
 3065 00dc 1521     		movs	r1, #21
 3066 00de FFF7FEFF 		bl	adv7533_write_reg
 3067 00e2 0246     		mov	r2, r0
 984:./BSP/components/adv7533/adv7533.c ****     break;
 3068              		.loc 1 984 9
 3069 00e4 FB68     		ldr	r3, [r7, #12]
 3070 00e6 1344     		add	r3, r3, r2
 3071 00e8 FB60     		str	r3, [r7, #12]
 985:./BSP/components/adv7533/adv7533.c ****     
 3072              		.loc 1 985 5
 3073 00ea 5FE0     		b	.L106
 3074              	.L103:
 989:./BSP/components/adv7533/adv7533.c ****     ret += adv7533_write_reg(&pObj->Ctx, 0x15, &tmp, 1);
 3075              		.loc 1 989 9
 3076 00ec FB7A     		ldrb	r3, [r7, #11]	@ zero_extendqisi2
 3077 00ee 43F02003 		orr	r3, r3, #32
 3078 00f2 DBB2     		uxtb	r3, r3
 3079 00f4 FB72     		strb	r3, [r7, #11]
 990:./BSP/components/adv7533/adv7533.c ****     break;
 3080              		.loc 1 990 12
 3081 00f6 7B68     		ldr	r3, [r7, #4]
 3082 00f8 03F11800 		add	r0, r3, #24
 3083 00fc 07F10B02 		add	r2, r7, #11
 3084 0100 0123     		movs	r3, #1
 3085 0102 1521     		movs	r1, #21
 3086 0104 FFF7FEFF 		bl	adv7533_write_reg
 3087 0108 0246     		mov	r2, r0
 990:./BSP/components/adv7533/adv7533.c ****     break;
 3088              		.loc 1 990 9
 3089 010a FB68     		ldr	r3, [r7, #12]
 3090 010c 1344     		add	r3, r3, r2
 3091 010e FB60     		str	r3, [r7, #12]
 991:./BSP/components/adv7533/adv7533.c ****     
 3092              		.loc 1 991 5
 3093 0110 4CE0     		b	.L106
 3094              	.L101:
 995:./BSP/components/adv7533/adv7533.c ****     ret += adv7533_write_reg(&pObj->Ctx, 0x15, &tmp, 1);
ARM GAS  /tmp/ccipu0lT.s 			page 72


 3095              		.loc 1 995 9
 3096 0112 FB7A     		ldrb	r3, [r7, #11]	@ zero_extendqisi2
 3097 0114 63F05F03 		orn	r3, r3, #95
 3098 0118 DBB2     		uxtb	r3, r3
 3099 011a FB72     		strb	r3, [r7, #11]
 996:./BSP/components/adv7533/adv7533.c ****     break;
 3100              		.loc 1 996 12
 3101 011c 7B68     		ldr	r3, [r7, #4]
 3102 011e 03F11800 		add	r0, r3, #24
 3103 0122 07F10B02 		add	r2, r7, #11
 3104 0126 0123     		movs	r3, #1
 3105 0128 1521     		movs	r1, #21
 3106 012a FFF7FEFF 		bl	adv7533_write_reg
 3107 012e 0246     		mov	r2, r0
 996:./BSP/components/adv7533/adv7533.c ****     break;
 3108              		.loc 1 996 9
 3109 0130 FB68     		ldr	r3, [r7, #12]
 3110 0132 1344     		add	r3, r3, r2
 3111 0134 FB60     		str	r3, [r7, #12]
 997:./BSP/components/adv7533/adv7533.c ****     
 3112              		.loc 1 997 5
 3113 0136 39E0     		b	.L106
 3114              	.L102:
1001:./BSP/components/adv7533/adv7533.c ****     ret += adv7533_write_reg(&pObj->Ctx, 0x15, &tmp, 1);
 3115              		.loc 1 1001 9
 3116 0138 FB7A     		ldrb	r3, [r7, #11]	@ zero_extendqisi2
 3117 013a 63F07F03 		orn	r3, r3, #127
 3118 013e DBB2     		uxtb	r3, r3
 3119 0140 FB72     		strb	r3, [r7, #11]
1002:./BSP/components/adv7533/adv7533.c ****     break;
 3120              		.loc 1 1002 12
 3121 0142 7B68     		ldr	r3, [r7, #4]
 3122 0144 03F11800 		add	r0, r3, #24
 3123 0148 07F10B02 		add	r2, r7, #11
 3124 014c 0123     		movs	r3, #1
 3125 014e 1521     		movs	r1, #21
 3126 0150 FFF7FEFF 		bl	adv7533_write_reg
 3127 0154 0246     		mov	r2, r0
1002:./BSP/components/adv7533/adv7533.c ****     break;
 3128              		.loc 1 1002 9
 3129 0156 FB68     		ldr	r3, [r7, #12]
 3130 0158 1344     		add	r3, r3, r2
 3131 015a FB60     		str	r3, [r7, #12]
1003:./BSP/components/adv7533/adv7533.c ****     
 3132              		.loc 1 1003 5
 3133 015c 26E0     		b	.L106
 3134              	.L100:
1007:./BSP/components/adv7533/adv7533.c ****     ret += adv7533_write_reg(&pObj->Ctx, 0x15, &tmp, 1);
 3135              		.loc 1 1007 9
 3136 015e FB7A     		ldrb	r3, [r7, #11]	@ zero_extendqisi2
 3137 0160 63F03F03 		orn	r3, r3, #63
 3138 0164 DBB2     		uxtb	r3, r3
 3139 0166 FB72     		strb	r3, [r7, #11]
1008:./BSP/components/adv7533/adv7533.c ****     break;
 3140              		.loc 1 1008 12
 3141 0168 7B68     		ldr	r3, [r7, #4]
 3142 016a 03F11800 		add	r0, r3, #24
ARM GAS  /tmp/ccipu0lT.s 			page 73


 3143 016e 07F10B02 		add	r2, r7, #11
 3144 0172 0123     		movs	r3, #1
 3145 0174 1521     		movs	r1, #21
 3146 0176 FFF7FEFF 		bl	adv7533_write_reg
 3147 017a 0246     		mov	r2, r0
1008:./BSP/components/adv7533/adv7533.c ****     break;
 3148              		.loc 1 1008 9
 3149 017c FB68     		ldr	r3, [r7, #12]
 3150 017e 1344     		add	r3, r3, r2
 3151 0180 FB60     		str	r3, [r7, #12]
1009:./BSP/components/adv7533/adv7533.c ****     
 3152              		.loc 1 1009 5
 3153 0182 13E0     		b	.L106
 3154              	.L98:
1013:./BSP/components/adv7533/adv7533.c ****     ret += adv7533_write_reg(&pObj->Ctx, 0x15, &tmp, 1);
 3155              		.loc 1 1013 9
 3156 0184 FB7A     		ldrb	r3, [r7, #11]	@ zero_extendqisi2
 3157 0186 63F01F03 		orn	r3, r3, #31
 3158 018a DBB2     		uxtb	r3, r3
 3159 018c FB72     		strb	r3, [r7, #11]
1014:./BSP/components/adv7533/adv7533.c ****     break;
 3160              		.loc 1 1014 12
 3161 018e 7B68     		ldr	r3, [r7, #4]
 3162 0190 03F11800 		add	r0, r3, #24
 3163 0194 07F10B02 		add	r2, r7, #11
 3164 0198 0123     		movs	r3, #1
 3165 019a 1521     		movs	r1, #21
 3166 019c FFF7FEFF 		bl	adv7533_write_reg
 3167 01a0 0246     		mov	r2, r0
1014:./BSP/components/adv7533/adv7533.c ****     break;
 3168              		.loc 1 1014 9
 3169 01a2 FB68     		ldr	r3, [r7, #12]
 3170 01a4 1344     		add	r3, r3, r2
 3171 01a6 FB60     		str	r3, [r7, #12]
1015:./BSP/components/adv7533/adv7533.c ****   default:
 3172              		.loc 1 1015 5
 3173 01a8 00E0     		b	.L106
 3174              	.L108:
 3175              		.loc 1 1017 5
 3176 01aa 00BF     		nop
 3177              	.L106:
1018:./BSP/components/adv7533/adv7533.c ****   }
1019:./BSP/components/adv7533/adv7533.c ****   
1020:./BSP/components/adv7533/adv7533.c ****   return ret;
 3178              		.loc 1 1020 10
 3179 01ac FB68     		ldr	r3, [r7, #12]
1021:./BSP/components/adv7533/adv7533.c **** }
 3180              		.loc 1 1021 1
 3181 01ae 1846     		mov	r0, r3
 3182 01b0 1037     		adds	r7, r7, #16
 3183              	.LCFI204:
 3184              		.cfi_def_cfa_offset 8
 3185 01b2 BD46     		mov	sp, r7
 3186              	.LCFI205:
 3187              		.cfi_def_cfa_register 13
 3188              		@ sp needed
 3189 01b4 80BD     		pop	{r7, pc}
ARM GAS  /tmp/ccipu0lT.s 			page 74


 3190              	.L110:
 3191 01b6 00BF     		.align	2
 3192              	.L109:
 3193 01b8 00EE0200 		.word	192000
 3194 01bc 10B10200 		.word	176400
 3195 01c0 00770100 		.word	96000
 3196 01c4 88580100 		.word	88200
 3197              		.cfi_endproc
 3198              	.LFE36:
 3200              		.section	.text.ADV7533_GetFrequency,"ax",%progbits
 3201              		.align	1
 3202              		.global	ADV7533_GetFrequency
 3203              		.syntax unified
 3204              		.thumb
 3205              		.thumb_func
 3206              		.fpu fpv5-d16
 3208              	ADV7533_GetFrequency:
 3209              	.LFB37:
1022:./BSP/components/adv7533/adv7533.c **** 
1023:./BSP/components/adv7533/adv7533.c **** /**
1024:./BSP/components/adv7533/adv7533.c ****   * @brief Sets new frequency.
1025:./BSP/components/adv7533/adv7533.c ****   * @param  pObj pointer to component object
1026:./BSP/components/adv7533/adv7533.c ****   * @param AudioFreq: Audio frequency used to play the audio stream.
1027:./BSP/components/adv7533/adv7533.c ****   * @retval Component status
1028:./BSP/components/adv7533/adv7533.c ****   */
1029:./BSP/components/adv7533/adv7533.c **** int32_t ADV7533_GetFrequency(ADV7533_Object_t *pObj, uint32_t *Frequency)
1030:./BSP/components/adv7533/adv7533.c **** {
 3210              		.loc 1 1030 1
 3211              		.cfi_startproc
 3212              		@ args = 0, pretend = 0, frame = 16
 3213              		@ frame_needed = 1, uses_anonymous_args = 0
 3214 0000 80B5     		push	{r7, lr}
 3215              	.LCFI206:
 3216              		.cfi_def_cfa_offset 8
 3217              		.cfi_offset 7, -8
 3218              		.cfi_offset 14, -4
 3219 0002 84B0     		sub	sp, sp, #16
 3220              	.LCFI207:
 3221              		.cfi_def_cfa_offset 24
 3222 0004 00AF     		add	r7, sp, #0
 3223              	.LCFI208:
 3224              		.cfi_def_cfa_register 7
 3225 0006 7860     		str	r0, [r7, #4]
 3226 0008 3960     		str	r1, [r7]
1031:./BSP/components/adv7533/adv7533.c ****   int32_t ret;
1032:./BSP/components/adv7533/adv7533.c ****   uint8_t  freq;
1033:./BSP/components/adv7533/adv7533.c **** 
1034:./BSP/components/adv7533/adv7533.c ****   /* Set I2C address to ADV7533_MAIN_I2C_ADDR */
1035:./BSP/components/adv7533/adv7533.c ****   ADV7533_SetI2C_Address(pObj, ADV7533_MAIN_I2C_ADDR);
 3227              		.loc 1 1035 3
 3228 000a 7A21     		movs	r1, #122
 3229 000c 7868     		ldr	r0, [r7, #4]
 3230 000e FFF7FEFF 		bl	ADV7533_SetI2C_Address
1036:./BSP/components/adv7533/adv7533.c ****   
1037:./BSP/components/adv7533/adv7533.c ****   ret = adv7533_read_reg(&pObj->Ctx, 0x15, &freq, 1);
 3231              		.loc 1 1037 9
 3232 0012 7B68     		ldr	r3, [r7, #4]
ARM GAS  /tmp/ccipu0lT.s 			page 75


 3233 0014 03F11800 		add	r0, r3, #24
 3234 0018 07F10B02 		add	r2, r7, #11
 3235 001c 0123     		movs	r3, #1
 3236 001e 1521     		movs	r1, #21
 3237 0020 FFF7FEFF 		bl	adv7533_read_reg
 3238 0024 F860     		str	r0, [r7, #12]
1038:./BSP/components/adv7533/adv7533.c ****   freq &= 0xF0U;
 3239              		.loc 1 1038 8
 3240 0026 FB7A     		ldrb	r3, [r7, #11]	@ zero_extendqisi2
 3241 0028 23F00F03 		bic	r3, r3, #15
 3242 002c DBB2     		uxtb	r3, r3
 3243 002e FB72     		strb	r3, [r7, #11]
1039:./BSP/components/adv7533/adv7533.c ****   
1040:./BSP/components/adv7533/adv7533.c ****   /*  Clock Configurations */
1041:./BSP/components/adv7533/adv7533.c ****   switch (freq)
 3244              		.loc 1 1041 3
 3245 0030 FB7A     		ldrb	r3, [r7, #11]	@ zero_extendqisi2
 3246 0032 E02B     		cmp	r3, #224
 3247 0034 31D0     		beq	.L112
 3248 0036 E02B     		cmp	r3, #224
 3249 0038 33DC     		bgt	.L122
 3250 003a C02B     		cmp	r3, #192
 3251 003c 29D0     		beq	.L114
 3252 003e C02B     		cmp	r3, #192
 3253 0040 2FDC     		bgt	.L122
 3254 0042 A02B     		cmp	r3, #160
 3255 0044 1DD0     		beq	.L115
 3256 0046 A02B     		cmp	r3, #160
 3257 0048 2BDC     		bgt	.L122
 3258 004a 802B     		cmp	r3, #128
 3259 004c 1DD0     		beq	.L116
 3260 004e 802B     		cmp	r3, #128
 3261 0050 27DC     		bgt	.L122
 3262 0052 302B     		cmp	r3, #48
 3263 0054 06D0     		beq	.L117
 3264 0056 302B     		cmp	r3, #48
 3265 0058 23DC     		bgt	.L122
 3266 005a 002B     		cmp	r3, #0
 3267 005c 07D0     		beq	.L118
 3268 005e 202B     		cmp	r3, #32
 3269 0060 0AD0     		beq	.L119
1042:./BSP/components/adv7533/adv7533.c ****   {
1043:./BSP/components/adv7533/adv7533.c ****   case  0x30:
1044:./BSP/components/adv7533/adv7533.c ****     /* Sampling Frequency =32 KHZ*/
1045:./BSP/components/adv7533/adv7533.c ****     *Frequency = ADV7533_FREQUENCY_32K;
1046:./BSP/components/adv7533/adv7533.c ****     break;
1047:./BSP/components/adv7533/adv7533.c ****   case  0x00: 
1048:./BSP/components/adv7533/adv7533.c ****     /* Sampling Frequency =44,1 KHZ*/
1049:./BSP/components/adv7533/adv7533.c ****     *Frequency = ADV7533_FREQUENCY_44K;
1050:./BSP/components/adv7533/adv7533.c ****     break;
1051:./BSP/components/adv7533/adv7533.c ****     
1052:./BSP/components/adv7533/adv7533.c ****   case  0x20: 
1053:./BSP/components/adv7533/adv7533.c ****     /* Sampling Frequency =48KHZ*/
1054:./BSP/components/adv7533/adv7533.c ****     *Frequency = ADV7533_FREQUENCY_48K;
1055:./BSP/components/adv7533/adv7533.c ****     break;
1056:./BSP/components/adv7533/adv7533.c ****     
1057:./BSP/components/adv7533/adv7533.c ****   case  0xA0: 
ARM GAS  /tmp/ccipu0lT.s 			page 76


1058:./BSP/components/adv7533/adv7533.c ****     /* Sampling Frequency =96 KHZ*/
1059:./BSP/components/adv7533/adv7533.c ****     *Frequency = ADV7533_FREQUENCY_96K;
1060:./BSP/components/adv7533/adv7533.c ****     break;
1061:./BSP/components/adv7533/adv7533.c ****     
1062:./BSP/components/adv7533/adv7533.c ****   case  0x80: 
1063:./BSP/components/adv7533/adv7533.c ****     /* Sampling Frequency =88,2 KHZ*/
1064:./BSP/components/adv7533/adv7533.c ****     *Frequency = ADV7533_FREQUENCY_88K;
1065:./BSP/components/adv7533/adv7533.c ****     break;
1066:./BSP/components/adv7533/adv7533.c ****     
1067:./BSP/components/adv7533/adv7533.c ****   case  0xC0: 
1068:./BSP/components/adv7533/adv7533.c ****     /* Sampling Frequency =176,4 KHZ*/
1069:./BSP/components/adv7533/adv7533.c ****     *Frequency = ADV7533_FREQUENCY_176K;
1070:./BSP/components/adv7533/adv7533.c ****     break;
1071:./BSP/components/adv7533/adv7533.c ****     
1072:./BSP/components/adv7533/adv7533.c ****   case  0xE0: 
1073:./BSP/components/adv7533/adv7533.c ****     /* Sampling Frequency =192KHZ*/
1074:./BSP/components/adv7533/adv7533.c ****     *Frequency = ADV7533_FREQUENCY_192K;
1075:./BSP/components/adv7533/adv7533.c ****     break;
1076:./BSP/components/adv7533/adv7533.c ****     
1077:./BSP/components/adv7533/adv7533.c ****   default:
1078:./BSP/components/adv7533/adv7533.c ****     break;    
 3270              		.loc 1 1078 5
 3271 0062 1EE0     		b	.L122
 3272              	.L117:
1045:./BSP/components/adv7533/adv7533.c ****     break;
 3273              		.loc 1 1045 16
 3274 0064 3B68     		ldr	r3, [r7]
 3275 0066 4FF4FA42 		mov	r2, #32000
 3276 006a 1A60     		str	r2, [r3]
1046:./BSP/components/adv7533/adv7533.c ****   case  0x00: 
 3277              		.loc 1 1046 5
 3278 006c 1AE0     		b	.L120
 3279              	.L118:
1049:./BSP/components/adv7533/adv7533.c ****     break;
 3280              		.loc 1 1049 16
 3281 006e 3B68     		ldr	r3, [r7]
 3282 0070 4AF64442 		movw	r2, #44100
 3283 0074 1A60     		str	r2, [r3]
1050:./BSP/components/adv7533/adv7533.c ****     
 3284              		.loc 1 1050 5
 3285 0076 15E0     		b	.L120
 3286              	.L119:
1054:./BSP/components/adv7533/adv7533.c ****     break;
 3287              		.loc 1 1054 16
 3288 0078 3B68     		ldr	r3, [r7]
 3289 007a 4BF68032 		movw	r2, #48000
 3290 007e 1A60     		str	r2, [r3]
1055:./BSP/components/adv7533/adv7533.c ****     
 3291              		.loc 1 1055 5
 3292 0080 10E0     		b	.L120
 3293              	.L115:
1059:./BSP/components/adv7533/adv7533.c ****     break;
 3294              		.loc 1 1059 16
 3295 0082 3B68     		ldr	r3, [r7]
 3296 0084 0A4A     		ldr	r2, .L123
 3297 0086 1A60     		str	r2, [r3]
1060:./BSP/components/adv7533/adv7533.c ****     
ARM GAS  /tmp/ccipu0lT.s 			page 77


 3298              		.loc 1 1060 5
 3299 0088 0CE0     		b	.L120
 3300              	.L116:
1064:./BSP/components/adv7533/adv7533.c ****     break;
 3301              		.loc 1 1064 16
 3302 008a 3B68     		ldr	r3, [r7]
 3303 008c 094A     		ldr	r2, .L123+4
 3304 008e 1A60     		str	r2, [r3]
1065:./BSP/components/adv7533/adv7533.c ****     
 3305              		.loc 1 1065 5
 3306 0090 08E0     		b	.L120
 3307              	.L114:
1069:./BSP/components/adv7533/adv7533.c ****     break;
 3308              		.loc 1 1069 16
 3309 0092 3B68     		ldr	r3, [r7]
 3310 0094 084A     		ldr	r2, .L123+8
 3311 0096 1A60     		str	r2, [r3]
1070:./BSP/components/adv7533/adv7533.c ****     
 3312              		.loc 1 1070 5
 3313 0098 04E0     		b	.L120
 3314              	.L112:
1074:./BSP/components/adv7533/adv7533.c ****     break;
 3315              		.loc 1 1074 16
 3316 009a 3B68     		ldr	r3, [r7]
 3317 009c 074A     		ldr	r2, .L123+12
 3318 009e 1A60     		str	r2, [r3]
1075:./BSP/components/adv7533/adv7533.c ****     
 3319              		.loc 1 1075 5
 3320 00a0 00E0     		b	.L120
 3321              	.L122:
 3322              		.loc 1 1078 5
 3323 00a2 00BF     		nop
 3324              	.L120:
1079:./BSP/components/adv7533/adv7533.c ****   }
1080:./BSP/components/adv7533/adv7533.c ****   
1081:./BSP/components/adv7533/adv7533.c ****   return ret;
 3325              		.loc 1 1081 10
 3326 00a4 FB68     		ldr	r3, [r7, #12]
1082:./BSP/components/adv7533/adv7533.c **** }
 3327              		.loc 1 1082 1
 3328 00a6 1846     		mov	r0, r3
 3329 00a8 1037     		adds	r7, r7, #16
 3330              	.LCFI209:
 3331              		.cfi_def_cfa_offset 8
 3332 00aa BD46     		mov	sp, r7
 3333              	.LCFI210:
 3334              		.cfi_def_cfa_register 13
 3335              		@ sp needed
 3336 00ac 80BD     		pop	{r7, pc}
 3337              	.L124:
 3338 00ae 00BF     		.align	2
 3339              	.L123:
 3340 00b0 00770100 		.word	96000
 3341 00b4 88580100 		.word	88200
 3342 00b8 10B10200 		.word	176400
 3343 00bc 00EE0200 		.word	192000
 3344              		.cfi_endproc
ARM GAS  /tmp/ccipu0lT.s 			page 78


 3345              	.LFE37:
 3347              		.section	.text.ADV7533_Reset,"ax",%progbits
 3348              		.align	1
 3349              		.global	ADV7533_Reset
 3350              		.syntax unified
 3351              		.thumb
 3352              		.thumb_func
 3353              		.fpu fpv5-d16
 3355              	ADV7533_Reset:
 3356              	.LFB38:
1083:./BSP/components/adv7533/adv7533.c **** 
1084:./BSP/components/adv7533/adv7533.c **** /**
1085:./BSP/components/adv7533/adv7533.c ****   * @brief Resets adv7533 registers.
1086:./BSP/components/adv7533/adv7533.c ****   * @param  pObj pointer to component object 
1087:./BSP/components/adv7533/adv7533.c ****   * @retval Component status
1088:./BSP/components/adv7533/adv7533.c ****   */
1089:./BSP/components/adv7533/adv7533.c **** int32_t ADV7533_Reset(ADV7533_Object_t *pObj)
1090:./BSP/components/adv7533/adv7533.c **** {
 3357              		.loc 1 1090 1
 3358              		.cfi_startproc
 3359              		@ args = 0, pretend = 0, frame = 8
 3360              		@ frame_needed = 1, uses_anonymous_args = 0
 3361              		@ link register save eliminated.
 3362 0000 80B4     		push	{r7}
 3363              	.LCFI211:
 3364              		.cfi_def_cfa_offset 4
 3365              		.cfi_offset 7, -4
 3366 0002 83B0     		sub	sp, sp, #12
 3367              	.LCFI212:
 3368              		.cfi_def_cfa_offset 16
 3369 0004 00AF     		add	r7, sp, #0
 3370              	.LCFI213:
 3371              		.cfi_def_cfa_register 7
 3372 0006 7860     		str	r0, [r7, #4]
1091:./BSP/components/adv7533/adv7533.c ****   /* Prevent unused argument(s) compilation warning */
1092:./BSP/components/adv7533/adv7533.c ****   (void)(pObj);
1093:./BSP/components/adv7533/adv7533.c ****   
1094:./BSP/components/adv7533/adv7533.c ****   /* Not supported */  
1095:./BSP/components/adv7533/adv7533.c ****   return ADV7533_ERROR;
 3373              		.loc 1 1095 10
 3374 0008 4FF0FF33 		mov	r3, #-1
1096:./BSP/components/adv7533/adv7533.c **** }
 3375              		.loc 1 1096 1
 3376 000c 1846     		mov	r0, r3
 3377 000e 0C37     		adds	r7, r7, #12
 3378              	.LCFI214:
 3379              		.cfi_def_cfa_offset 4
 3380 0010 BD46     		mov	sp, r7
 3381              	.LCFI215:
 3382              		.cfi_def_cfa_register 13
 3383              		@ sp needed
 3384 0012 5DF8047B 		ldr	r7, [sp], #4
 3385              	.LCFI216:
 3386              		.cfi_restore 7
 3387              		.cfi_def_cfa_offset 0
 3388 0016 7047     		bx	lr
 3389              		.cfi_endproc
ARM GAS  /tmp/ccipu0lT.s 			page 79


 3390              	.LFE38:
 3392              		.section	.text.ADV7533_SetI2C_Address,"ax",%progbits
 3393              		.align	1
 3394              		.syntax unified
 3395              		.thumb
 3396              		.thumb_func
 3397              		.fpu fpv5-d16
 3399              	ADV7533_SetI2C_Address:
 3400              	.LFB39:
1097:./BSP/components/adv7533/adv7533.c **** 
1098:./BSP/components/adv7533/adv7533.c **** /******************** Static functions ****************************************/
1099:./BSP/components/adv7533/adv7533.c **** /**
1100:./BSP/components/adv7533/adv7533.c ****   * @brief  Configure the DSI-HDMI ADV7533 bridge for video.
1101:./BSP/components/adv7533/adv7533.c ****   * @param config : pointer to adv7533ConfigTypeDef that contains the
1102:./BSP/components/adv7533/adv7533.c ****   *                 video configuration parameters
1103:./BSP/components/adv7533/adv7533.c ****   * @retval Component status
1104:./BSP/components/adv7533/adv7533.c ****   */
1105:./BSP/components/adv7533/adv7533.c **** static void ADV7533_SetI2C_Address(ADV7533_Object_t *pObj, uint8_t Address)
1106:./BSP/components/adv7533/adv7533.c **** {
 3401              		.loc 1 1106 1
 3402              		.cfi_startproc
 3403              		@ args = 0, pretend = 0, frame = 8
 3404              		@ frame_needed = 1, uses_anonymous_args = 0
 3405              		@ link register save eliminated.
 3406 0000 80B4     		push	{r7}
 3407              	.LCFI217:
 3408              		.cfi_def_cfa_offset 4
 3409              		.cfi_offset 7, -4
 3410 0002 83B0     		sub	sp, sp, #12
 3411              	.LCFI218:
 3412              		.cfi_def_cfa_offset 16
 3413 0004 00AF     		add	r7, sp, #0
 3414              	.LCFI219:
 3415              		.cfi_def_cfa_register 7
 3416 0006 7860     		str	r0, [r7, #4]
 3417 0008 0B46     		mov	r3, r1
 3418 000a FB70     		strb	r3, [r7, #3]
1107:./BSP/components/adv7533/adv7533.c ****   pObj->IO.Address = Address;
 3419              		.loc 1 1107 20
 3420 000c FB78     		ldrb	r3, [r7, #3]	@ zero_extendqisi2
 3421 000e 9AB2     		uxth	r2, r3
 3422 0010 7B68     		ldr	r3, [r7, #4]
 3423 0012 1A81     		strh	r2, [r3, #8]	@ movhi
1108:./BSP/components/adv7533/adv7533.c **** }
 3424              		.loc 1 1108 1
 3425 0014 00BF     		nop
 3426 0016 0C37     		adds	r7, r7, #12
 3427              	.LCFI220:
 3428              		.cfi_def_cfa_offset 4
 3429 0018 BD46     		mov	sp, r7
 3430              	.LCFI221:
 3431              		.cfi_def_cfa_register 13
 3432              		@ sp needed
 3433 001a 5DF8047B 		ldr	r7, [sp], #4
 3434              	.LCFI222:
 3435              		.cfi_restore 7
 3436              		.cfi_def_cfa_offset 0
ARM GAS  /tmp/ccipu0lT.s 			page 80


 3437 001e 7047     		bx	lr
 3438              		.cfi_endproc
 3439              	.LFE39:
 3441              		.section	.text.ADV7533_ReadRegWrap,"ax",%progbits
 3442              		.align	1
 3443              		.syntax unified
 3444              		.thumb
 3445              		.thumb_func
 3446              		.fpu fpv5-d16
 3448              	ADV7533_ReadRegWrap:
 3449              	.LFB40:
1109:./BSP/components/adv7533/adv7533.c **** 
1110:./BSP/components/adv7533/adv7533.c **** /**
1111:./BSP/components/adv7533/adv7533.c ****   * @brief  Function
1112:./BSP/components/adv7533/adv7533.c ****   * @param  handle: Component object handle
1113:./BSP/components/adv7533/adv7533.c ****   * @param  Reg: The target register address to write
1114:./BSP/components/adv7533/adv7533.c ****   * @param  pData: The target register value to be written
1115:./BSP/components/adv7533/adv7533.c ****   * @param  Length: buffer size to be written
1116:./BSP/components/adv7533/adv7533.c ****   * @retval error status
1117:./BSP/components/adv7533/adv7533.c ****   */
1118:./BSP/components/adv7533/adv7533.c **** static int32_t ADV7533_ReadRegWrap(void *handle, uint16_t Reg, uint8_t* pData, uint16_t Length)
1119:./BSP/components/adv7533/adv7533.c **** {
 3450              		.loc 1 1119 1
 3451              		.cfi_startproc
 3452              		@ args = 0, pretend = 0, frame = 24
 3453              		@ frame_needed = 1, uses_anonymous_args = 0
 3454 0000 90B5     		push	{r4, r7, lr}
 3455              	.LCFI223:
 3456              		.cfi_def_cfa_offset 12
 3457              		.cfi_offset 4, -12
 3458              		.cfi_offset 7, -8
 3459              		.cfi_offset 14, -4
 3460 0002 87B0     		sub	sp, sp, #28
 3461              	.LCFI224:
 3462              		.cfi_def_cfa_offset 40
 3463 0004 00AF     		add	r7, sp, #0
 3464              	.LCFI225:
 3465              		.cfi_def_cfa_register 7
 3466 0006 F860     		str	r0, [r7, #12]
 3467 0008 7A60     		str	r2, [r7, #4]
 3468 000a 1A46     		mov	r2, r3
 3469 000c 0B46     		mov	r3, r1	@ movhi
 3470 000e 7B81     		strh	r3, [r7, #10]	@ movhi
 3471 0010 1346     		mov	r3, r2	@ movhi
 3472 0012 3B81     		strh	r3, [r7, #8]	@ movhi
1120:./BSP/components/adv7533/adv7533.c ****   ADV7533_Object_t *pObj = (ADV7533_Object_t *)handle;
 3473              		.loc 1 1120 21
 3474 0014 FB68     		ldr	r3, [r7, #12]
 3475 0016 7B61     		str	r3, [r7, #20]
1121:./BSP/components/adv7533/adv7533.c **** 
1122:./BSP/components/adv7533/adv7533.c ****   return pObj->IO.ReadReg(pObj->IO.Address, Reg, pData, Length);
 3476              		.loc 1 1122 18
 3477 0018 7B69     		ldr	r3, [r7, #20]
 3478 001a 1C69     		ldr	r4, [r3, #16]
 3479              		.loc 1 1122 10
 3480 001c 7B69     		ldr	r3, [r7, #20]
 3481 001e 1889     		ldrh	r0, [r3, #8]
ARM GAS  /tmp/ccipu0lT.s 			page 81


 3482 0020 3B89     		ldrh	r3, [r7, #8]
 3483 0022 7989     		ldrh	r1, [r7, #10]
 3484 0024 7A68     		ldr	r2, [r7, #4]
 3485 0026 A047     		blx	r4
 3486              	.LVL3:
 3487 0028 0346     		mov	r3, r0
1123:./BSP/components/adv7533/adv7533.c **** }
 3488              		.loc 1 1123 1
 3489 002a 1846     		mov	r0, r3
 3490 002c 1C37     		adds	r7, r7, #28
 3491              	.LCFI226:
 3492              		.cfi_def_cfa_offset 12
 3493 002e BD46     		mov	sp, r7
 3494              	.LCFI227:
 3495              		.cfi_def_cfa_register 13
 3496              		@ sp needed
 3497 0030 90BD     		pop	{r4, r7, pc}
 3498              		.cfi_endproc
 3499              	.LFE40:
 3501              		.section	.text.ADV7533_WriteRegWrap,"ax",%progbits
 3502              		.align	1
 3503              		.syntax unified
 3504              		.thumb
 3505              		.thumb_func
 3506              		.fpu fpv5-d16
 3508              	ADV7533_WriteRegWrap:
 3509              	.LFB41:
1124:./BSP/components/adv7533/adv7533.c **** 
1125:./BSP/components/adv7533/adv7533.c **** /**
1126:./BSP/components/adv7533/adv7533.c ****   * @brief  Function
1127:./BSP/components/adv7533/adv7533.c ****   * @param  handle: Component object handle
1128:./BSP/components/adv7533/adv7533.c ****   * @param  Reg: The target register address to write
1129:./BSP/components/adv7533/adv7533.c ****   * @param  pData: The target register value to be written
1130:./BSP/components/adv7533/adv7533.c ****   * @param  Length: buffer size to be written
1131:./BSP/components/adv7533/adv7533.c ****   * @retval error status
1132:./BSP/components/adv7533/adv7533.c ****   */
1133:./BSP/components/adv7533/adv7533.c **** static int32_t ADV7533_WriteRegWrap(void *handle, uint16_t Reg, uint8_t* pData, uint16_t Length)
1134:./BSP/components/adv7533/adv7533.c **** {
 3510              		.loc 1 1134 1
 3511              		.cfi_startproc
 3512              		@ args = 0, pretend = 0, frame = 24
 3513              		@ frame_needed = 1, uses_anonymous_args = 0
 3514 0000 90B5     		push	{r4, r7, lr}
 3515              	.LCFI228:
 3516              		.cfi_def_cfa_offset 12
 3517              		.cfi_offset 4, -12
 3518              		.cfi_offset 7, -8
 3519              		.cfi_offset 14, -4
 3520 0002 87B0     		sub	sp, sp, #28
 3521              	.LCFI229:
 3522              		.cfi_def_cfa_offset 40
 3523 0004 00AF     		add	r7, sp, #0
 3524              	.LCFI230:
 3525              		.cfi_def_cfa_register 7
 3526 0006 F860     		str	r0, [r7, #12]
 3527 0008 7A60     		str	r2, [r7, #4]
 3528 000a 1A46     		mov	r2, r3
ARM GAS  /tmp/ccipu0lT.s 			page 82


 3529 000c 0B46     		mov	r3, r1	@ movhi
 3530 000e 7B81     		strh	r3, [r7, #10]	@ movhi
 3531 0010 1346     		mov	r3, r2	@ movhi
 3532 0012 3B81     		strh	r3, [r7, #8]	@ movhi
1135:./BSP/components/adv7533/adv7533.c ****   ADV7533_Object_t *pObj = (ADV7533_Object_t *)handle;
 3533              		.loc 1 1135 21
 3534 0014 FB68     		ldr	r3, [r7, #12]
 3535 0016 7B61     		str	r3, [r7, #20]
1136:./BSP/components/adv7533/adv7533.c **** 
1137:./BSP/components/adv7533/adv7533.c ****   return pObj->IO.WriteReg(pObj->IO.Address, Reg, pData, Length);
 3536              		.loc 1 1137 18
 3537 0018 7B69     		ldr	r3, [r7, #20]
 3538 001a DC68     		ldr	r4, [r3, #12]
 3539              		.loc 1 1137 10
 3540 001c 7B69     		ldr	r3, [r7, #20]
 3541 001e 1889     		ldrh	r0, [r3, #8]
 3542 0020 3B89     		ldrh	r3, [r7, #8]
 3543 0022 7989     		ldrh	r1, [r7, #10]
 3544 0024 7A68     		ldr	r2, [r7, #4]
 3545 0026 A047     		blx	r4
 3546              	.LVL4:
 3547 0028 0346     		mov	r3, r0
1138:./BSP/components/adv7533/adv7533.c **** }
 3548              		.loc 1 1138 1
 3549 002a 1846     		mov	r0, r3
 3550 002c 1C37     		adds	r7, r7, #28
 3551              	.LCFI231:
 3552              		.cfi_def_cfa_offset 12
 3553 002e BD46     		mov	sp, r7
 3554              	.LCFI232:
 3555              		.cfi_def_cfa_register 13
 3556              		@ sp needed
 3557 0030 90BD     		pop	{r4, r7, pc}
 3558              		.cfi_endproc
 3559              	.LFE41:
 3561              		.text
 3562              	.Letext0:
 3563              		.file 2 "/usr/lib/gcc/arm-none-eabi/9.2.1/include/stdint.h"
 3564              		.file 3 "./BSP/components/adv7533/adv7533_reg.h"
 3565              		.file 4 "./BSP/components/adv7533/adv7533.h"
ARM GAS  /tmp/ccipu0lT.s 			page 83

