ARM GAS  /tmp/ccMNgdj1.s 			page 1


   1              		.cpu cortex-m7
   2              		.eabi_attribute 28, 1
   3              		.eabi_attribute 20, 1
   4              		.eabi_attribute 21, 1
   5              		.eabi_attribute 23, 3
   6              		.eabi_attribute 24, 1
   7              		.eabi_attribute 25, 1
   8              		.eabi_attribute 26, 1
   9              		.eabi_attribute 30, 6
  10              		.eabi_attribute 34, 1
  11              		.eabi_attribute 18, 4
  12              		.file	"arm_conv_opt_q15.c"
  13              		.text
  14              	.Ltext0:
  15              		.cfi_sections	.debug_frame
  16              		.section	.text.arm_conv_opt_q15,"ax",%progbits
  17              		.align	1
  18              		.global	arm_conv_opt_q15
  19              		.arch armv7e-m
  20              		.syntax unified
  21              		.thumb
  22              		.thumb_func
  23              		.fpu fpv5-d16
  25              	arm_conv_opt_q15:
  26              	.LFB145:
  27              		.file 1 "./Libraries/CMSIS/DSP/Source/FilteringFunctions/arm_conv_opt_q15.c"
   1:./Libraries/CMSIS/DSP/Source/FilteringFunctions/arm_conv_opt_q15.c **** /* ----------------------------------------------------------------------
   2:./Libraries/CMSIS/DSP/Source/FilteringFunctions/arm_conv_opt_q15.c ****  * Project:      CMSIS DSP Library
   3:./Libraries/CMSIS/DSP/Source/FilteringFunctions/arm_conv_opt_q15.c ****  * Title:        arm_conv_opt_q15.c
   4:./Libraries/CMSIS/DSP/Source/FilteringFunctions/arm_conv_opt_q15.c ****  * Description:  Convolution of Q15 sequences
   5:./Libraries/CMSIS/DSP/Source/FilteringFunctions/arm_conv_opt_q15.c ****  *
   6:./Libraries/CMSIS/DSP/Source/FilteringFunctions/arm_conv_opt_q15.c ****  * $Date:        18. March 2019
   7:./Libraries/CMSIS/DSP/Source/FilteringFunctions/arm_conv_opt_q15.c ****  * $Revision:    V1.6.0
   8:./Libraries/CMSIS/DSP/Source/FilteringFunctions/arm_conv_opt_q15.c ****  *
   9:./Libraries/CMSIS/DSP/Source/FilteringFunctions/arm_conv_opt_q15.c ****  * Target Processor: Cortex-M cores
  10:./Libraries/CMSIS/DSP/Source/FilteringFunctions/arm_conv_opt_q15.c ****  * -------------------------------------------------------------------- */
  11:./Libraries/CMSIS/DSP/Source/FilteringFunctions/arm_conv_opt_q15.c **** /*
  12:./Libraries/CMSIS/DSP/Source/FilteringFunctions/arm_conv_opt_q15.c ****  * Copyright (C) 2010-2019 ARM Limited or its affiliates. All rights reserved.
  13:./Libraries/CMSIS/DSP/Source/FilteringFunctions/arm_conv_opt_q15.c ****  *
  14:./Libraries/CMSIS/DSP/Source/FilteringFunctions/arm_conv_opt_q15.c ****  * SPDX-License-Identifier: Apache-2.0
  15:./Libraries/CMSIS/DSP/Source/FilteringFunctions/arm_conv_opt_q15.c ****  *
  16:./Libraries/CMSIS/DSP/Source/FilteringFunctions/arm_conv_opt_q15.c ****  * Licensed under the Apache License, Version 2.0 (the License); you may
  17:./Libraries/CMSIS/DSP/Source/FilteringFunctions/arm_conv_opt_q15.c ****  * not use this file except in compliance with the License.
  18:./Libraries/CMSIS/DSP/Source/FilteringFunctions/arm_conv_opt_q15.c ****  * You may obtain a copy of the License at
  19:./Libraries/CMSIS/DSP/Source/FilteringFunctions/arm_conv_opt_q15.c ****  *
  20:./Libraries/CMSIS/DSP/Source/FilteringFunctions/arm_conv_opt_q15.c ****  * www.apache.org/licenses/LICENSE-2.0
  21:./Libraries/CMSIS/DSP/Source/FilteringFunctions/arm_conv_opt_q15.c ****  *
  22:./Libraries/CMSIS/DSP/Source/FilteringFunctions/arm_conv_opt_q15.c ****  * Unless required by applicable law or agreed to in writing, software
  23:./Libraries/CMSIS/DSP/Source/FilteringFunctions/arm_conv_opt_q15.c ****  * distributed under the License is distributed on an AS IS BASIS, WITHOUT
  24:./Libraries/CMSIS/DSP/Source/FilteringFunctions/arm_conv_opt_q15.c ****  * WARRANTIES OR CONDITIONS OF ANY KIND, either express or implied.
  25:./Libraries/CMSIS/DSP/Source/FilteringFunctions/arm_conv_opt_q15.c ****  * See the License for the specific language governing permissions and
  26:./Libraries/CMSIS/DSP/Source/FilteringFunctions/arm_conv_opt_q15.c ****  * limitations under the License.
  27:./Libraries/CMSIS/DSP/Source/FilteringFunctions/arm_conv_opt_q15.c ****  */
  28:./Libraries/CMSIS/DSP/Source/FilteringFunctions/arm_conv_opt_q15.c **** 
  29:./Libraries/CMSIS/DSP/Source/FilteringFunctions/arm_conv_opt_q15.c **** #include "arm_math.h"
  30:./Libraries/CMSIS/DSP/Source/FilteringFunctions/arm_conv_opt_q15.c **** 
  31:./Libraries/CMSIS/DSP/Source/FilteringFunctions/arm_conv_opt_q15.c **** /**
ARM GAS  /tmp/ccMNgdj1.s 			page 2


  32:./Libraries/CMSIS/DSP/Source/FilteringFunctions/arm_conv_opt_q15.c ****   @ingroup groupFilters
  33:./Libraries/CMSIS/DSP/Source/FilteringFunctions/arm_conv_opt_q15.c ****  */
  34:./Libraries/CMSIS/DSP/Source/FilteringFunctions/arm_conv_opt_q15.c **** 
  35:./Libraries/CMSIS/DSP/Source/FilteringFunctions/arm_conv_opt_q15.c **** /**
  36:./Libraries/CMSIS/DSP/Source/FilteringFunctions/arm_conv_opt_q15.c ****   @addtogroup Conv
  37:./Libraries/CMSIS/DSP/Source/FilteringFunctions/arm_conv_opt_q15.c ****   @{
  38:./Libraries/CMSIS/DSP/Source/FilteringFunctions/arm_conv_opt_q15.c ****  */
  39:./Libraries/CMSIS/DSP/Source/FilteringFunctions/arm_conv_opt_q15.c **** 
  40:./Libraries/CMSIS/DSP/Source/FilteringFunctions/arm_conv_opt_q15.c **** /**
  41:./Libraries/CMSIS/DSP/Source/FilteringFunctions/arm_conv_opt_q15.c ****   @brief         Convolution of Q15 sequences.
  42:./Libraries/CMSIS/DSP/Source/FilteringFunctions/arm_conv_opt_q15.c ****   @param[in]     pSrcA      points to the first input sequence
  43:./Libraries/CMSIS/DSP/Source/FilteringFunctions/arm_conv_opt_q15.c ****   @param[in]     srcALen    length of the first input sequence
  44:./Libraries/CMSIS/DSP/Source/FilteringFunctions/arm_conv_opt_q15.c ****   @param[in]     pSrcB      points to the second input sequence
  45:./Libraries/CMSIS/DSP/Source/FilteringFunctions/arm_conv_opt_q15.c ****   @param[in]     srcBLen    length of the second input sequence
  46:./Libraries/CMSIS/DSP/Source/FilteringFunctions/arm_conv_opt_q15.c ****   @param[out]    pDst       points to the location where the output result is written.  Length srcA
  47:./Libraries/CMSIS/DSP/Source/FilteringFunctions/arm_conv_opt_q15.c ****   @param[in]     pScratch1  points to scratch buffer of size max(srcALen, srcBLen) + 2*min(srcALen,
  48:./Libraries/CMSIS/DSP/Source/FilteringFunctions/arm_conv_opt_q15.c ****   @param[in]     pScratch2  points to scratch buffer of size min(srcALen, srcBLen).
  49:./Libraries/CMSIS/DSP/Source/FilteringFunctions/arm_conv_opt_q15.c ****   @return        none
  50:./Libraries/CMSIS/DSP/Source/FilteringFunctions/arm_conv_opt_q15.c **** 
  51:./Libraries/CMSIS/DSP/Source/FilteringFunctions/arm_conv_opt_q15.c ****   @par           Scaling and Overflow Behavior
  52:./Libraries/CMSIS/DSP/Source/FilteringFunctions/arm_conv_opt_q15.c ****                    The function is implemented using a 64-bit internal accumulator.
  53:./Libraries/CMSIS/DSP/Source/FilteringFunctions/arm_conv_opt_q15.c ****                    Both inputs are in 1.15 format and multiplications yield a 2.30 result.
  54:./Libraries/CMSIS/DSP/Source/FilteringFunctions/arm_conv_opt_q15.c ****                    The 2.30 intermediate results are accumulated in a 64-bit accumulator in 34.30 f
  55:./Libraries/CMSIS/DSP/Source/FilteringFunctions/arm_conv_opt_q15.c ****                    This approach provides 33 guard bits and there is no risk of overflow.
  56:./Libraries/CMSIS/DSP/Source/FilteringFunctions/arm_conv_opt_q15.c ****                    The 34.30 result is then truncated to 34.15 format by discarding the low 15 bits
  57:./Libraries/CMSIS/DSP/Source/FilteringFunctions/arm_conv_opt_q15.c ****   @remark
  58:./Libraries/CMSIS/DSP/Source/FilteringFunctions/arm_conv_opt_q15.c ****                    Refer to \ref arm_conv_fast_q15() for a faster but less precise version of this 
  59:./Libraries/CMSIS/DSP/Source/FilteringFunctions/arm_conv_opt_q15.c ****  */
  60:./Libraries/CMSIS/DSP/Source/FilteringFunctions/arm_conv_opt_q15.c **** 
  61:./Libraries/CMSIS/DSP/Source/FilteringFunctions/arm_conv_opt_q15.c **** void arm_conv_opt_q15(
  62:./Libraries/CMSIS/DSP/Source/FilteringFunctions/arm_conv_opt_q15.c ****   const q15_t * pSrcA,
  63:./Libraries/CMSIS/DSP/Source/FilteringFunctions/arm_conv_opt_q15.c ****         uint32_t srcALen,
  64:./Libraries/CMSIS/DSP/Source/FilteringFunctions/arm_conv_opt_q15.c ****   const q15_t * pSrcB,
  65:./Libraries/CMSIS/DSP/Source/FilteringFunctions/arm_conv_opt_q15.c ****         uint32_t srcBLen,
  66:./Libraries/CMSIS/DSP/Source/FilteringFunctions/arm_conv_opt_q15.c ****         q15_t * pDst,
  67:./Libraries/CMSIS/DSP/Source/FilteringFunctions/arm_conv_opt_q15.c ****         q15_t * pScratch1,
  68:./Libraries/CMSIS/DSP/Source/FilteringFunctions/arm_conv_opt_q15.c ****         q15_t * pScratch2)
  69:./Libraries/CMSIS/DSP/Source/FilteringFunctions/arm_conv_opt_q15.c **** {
  28              		.loc 1 69 1
  29              		.cfi_startproc
  30              		@ args = 12, pretend = 0, frame = 80
  31              		@ frame_needed = 1, uses_anonymous_args = 0
  32 0000 2DE9B04F 		push	{r4, r5, r7, r8, r9, r10, fp, lr}
  33              	.LCFI0:
  34              		.cfi_def_cfa_offset 32
  35              		.cfi_offset 4, -32
  36              		.cfi_offset 5, -28
  37              		.cfi_offset 7, -24
  38              		.cfi_offset 8, -20
  39              		.cfi_offset 9, -16
  40              		.cfi_offset 10, -12
  41              		.cfi_offset 11, -8
  42              		.cfi_offset 14, -4
  43 0004 94B0     		sub	sp, sp, #80
  44              	.LCFI1:
  45              		.cfi_def_cfa_offset 112
  46 0006 00AF     		add	r7, sp, #0
ARM GAS  /tmp/ccMNgdj1.s 			page 3


  47              	.LCFI2:
  48              		.cfi_def_cfa_register 7
  49 0008 F860     		str	r0, [r7, #12]
  50 000a B960     		str	r1, [r7, #8]
  51 000c 7A60     		str	r2, [r7, #4]
  52 000e 3B60     		str	r3, [r7]
  70:./Libraries/CMSIS/DSP/Source/FilteringFunctions/arm_conv_opt_q15.c ****         q63_t acc0;                                    /* Accumulators */
  71:./Libraries/CMSIS/DSP/Source/FilteringFunctions/arm_conv_opt_q15.c ****   const q15_t *pIn1;                                   /* InputA pointer */
  72:./Libraries/CMSIS/DSP/Source/FilteringFunctions/arm_conv_opt_q15.c ****   const q15_t *pIn2;                                   /* InputB pointer */
  73:./Libraries/CMSIS/DSP/Source/FilteringFunctions/arm_conv_opt_q15.c ****         q15_t *pOut = pDst;                            /* Output pointer */
  53              		.loc 1 73 16
  54 0010 3B6F     		ldr	r3, [r7, #112]
  55 0012 FB63     		str	r3, [r7, #60]
  74:./Libraries/CMSIS/DSP/Source/FilteringFunctions/arm_conv_opt_q15.c ****         q15_t *pScr1 = pScratch1;                      /* Temporary pointer for scratch1 */
  56              		.loc 1 74 16
  57 0014 7B6F     		ldr	r3, [r7, #116]
  58 0016 BB63     		str	r3, [r7, #56]
  75:./Libraries/CMSIS/DSP/Source/FilteringFunctions/arm_conv_opt_q15.c ****         q15_t *pScr2 = pScratch2;                      /* Temporary pointer for scratch1 */
  59              		.loc 1 75 16
  60 0018 BB6F     		ldr	r3, [r7, #120]
  61 001a 7B63     		str	r3, [r7, #52]
  76:./Libraries/CMSIS/DSP/Source/FilteringFunctions/arm_conv_opt_q15.c ****   const q15_t *px;                                     /* Intermediate inputA pointer */
  77:./Libraries/CMSIS/DSP/Source/FilteringFunctions/arm_conv_opt_q15.c ****         q15_t *py;                                     /* Intermediate inputB pointer */
  78:./Libraries/CMSIS/DSP/Source/FilteringFunctions/arm_conv_opt_q15.c ****         uint32_t j, k, blkCnt;                         /* Loop counter */
  79:./Libraries/CMSIS/DSP/Source/FilteringFunctions/arm_conv_opt_q15.c ****         uint32_t tapCnt;                               /* Loop count */
  80:./Libraries/CMSIS/DSP/Source/FilteringFunctions/arm_conv_opt_q15.c **** 
  81:./Libraries/CMSIS/DSP/Source/FilteringFunctions/arm_conv_opt_q15.c **** #if defined (ARM_MATH_LOOPUNROLL)
  82:./Libraries/CMSIS/DSP/Source/FilteringFunctions/arm_conv_opt_q15.c ****         q63_t acc1, acc2, acc3;                        /* Accumulators */
  83:./Libraries/CMSIS/DSP/Source/FilteringFunctions/arm_conv_opt_q15.c ****         q31_t x1, x2, x3;                              /* Temporary variables to hold state and coe
  84:./Libraries/CMSIS/DSP/Source/FilteringFunctions/arm_conv_opt_q15.c ****         q31_t y1, y2;                                  /* State variables */
  85:./Libraries/CMSIS/DSP/Source/FilteringFunctions/arm_conv_opt_q15.c **** #endif
  86:./Libraries/CMSIS/DSP/Source/FilteringFunctions/arm_conv_opt_q15.c **** 
  87:./Libraries/CMSIS/DSP/Source/FilteringFunctions/arm_conv_opt_q15.c **** 
  88:./Libraries/CMSIS/DSP/Source/FilteringFunctions/arm_conv_opt_q15.c ****   /* The algorithm implementation is based on the lengths of the inputs. */
  89:./Libraries/CMSIS/DSP/Source/FilteringFunctions/arm_conv_opt_q15.c ****   /* srcB is always made to slide across srcA. */
  90:./Libraries/CMSIS/DSP/Source/FilteringFunctions/arm_conv_opt_q15.c ****   /* So srcBLen is always considered as shorter or equal to srcALen */
  91:./Libraries/CMSIS/DSP/Source/FilteringFunctions/arm_conv_opt_q15.c ****   if (srcALen >= srcBLen)
  62              		.loc 1 91 6
  63 001c BA68     		ldr	r2, [r7, #8]
  64 001e 3B68     		ldr	r3, [r7]
  65 0020 9A42     		cmp	r2, r3
  66 0022 04D3     		bcc	.L2
  92:./Libraries/CMSIS/DSP/Source/FilteringFunctions/arm_conv_opt_q15.c ****   {
  93:./Libraries/CMSIS/DSP/Source/FilteringFunctions/arm_conv_opt_q15.c ****     /* Initialization of inputA pointer */
  94:./Libraries/CMSIS/DSP/Source/FilteringFunctions/arm_conv_opt_q15.c ****     pIn1 = pSrcA;
  67              		.loc 1 94 10
  68 0024 FB68     		ldr	r3, [r7, #12]
  69 0026 7B64     		str	r3, [r7, #68]
  95:./Libraries/CMSIS/DSP/Source/FilteringFunctions/arm_conv_opt_q15.c **** 
  96:./Libraries/CMSIS/DSP/Source/FilteringFunctions/arm_conv_opt_q15.c ****     /* Initialization of inputB pointer */
  97:./Libraries/CMSIS/DSP/Source/FilteringFunctions/arm_conv_opt_q15.c ****     pIn2 = pSrcB;
  70              		.loc 1 97 10
  71 0028 7B68     		ldr	r3, [r7, #4]
  72 002a 3B64     		str	r3, [r7, #64]
  73 002c 09E0     		b	.L3
  74              	.L2:
  98:./Libraries/CMSIS/DSP/Source/FilteringFunctions/arm_conv_opt_q15.c ****   }
ARM GAS  /tmp/ccMNgdj1.s 			page 4


  99:./Libraries/CMSIS/DSP/Source/FilteringFunctions/arm_conv_opt_q15.c ****   else
 100:./Libraries/CMSIS/DSP/Source/FilteringFunctions/arm_conv_opt_q15.c ****   {
 101:./Libraries/CMSIS/DSP/Source/FilteringFunctions/arm_conv_opt_q15.c ****     /* Initialization of inputA pointer */
 102:./Libraries/CMSIS/DSP/Source/FilteringFunctions/arm_conv_opt_q15.c ****     pIn1 = pSrcB;
  75              		.loc 1 102 10
  76 002e 7B68     		ldr	r3, [r7, #4]
  77 0030 7B64     		str	r3, [r7, #68]
 103:./Libraries/CMSIS/DSP/Source/FilteringFunctions/arm_conv_opt_q15.c **** 
 104:./Libraries/CMSIS/DSP/Source/FilteringFunctions/arm_conv_opt_q15.c ****     /* Initialization of inputB pointer */
 105:./Libraries/CMSIS/DSP/Source/FilteringFunctions/arm_conv_opt_q15.c ****     pIn2 = pSrcA;
  78              		.loc 1 105 10
  79 0032 FB68     		ldr	r3, [r7, #12]
  80 0034 3B64     		str	r3, [r7, #64]
 106:./Libraries/CMSIS/DSP/Source/FilteringFunctions/arm_conv_opt_q15.c **** 
 107:./Libraries/CMSIS/DSP/Source/FilteringFunctions/arm_conv_opt_q15.c ****     /* srcBLen is always considered as shorter or equal to srcALen */
 108:./Libraries/CMSIS/DSP/Source/FilteringFunctions/arm_conv_opt_q15.c ****     j = srcBLen;
  81              		.loc 1 108 7
  82 0036 3B68     		ldr	r3, [r7]
  83 0038 3B62     		str	r3, [r7, #32]
 109:./Libraries/CMSIS/DSP/Source/FilteringFunctions/arm_conv_opt_q15.c ****     srcBLen = srcALen;
  84              		.loc 1 109 13
  85 003a BB68     		ldr	r3, [r7, #8]
  86 003c 3B60     		str	r3, [r7]
 110:./Libraries/CMSIS/DSP/Source/FilteringFunctions/arm_conv_opt_q15.c ****     srcALen = j;
  87              		.loc 1 110 13
  88 003e 3B6A     		ldr	r3, [r7, #32]
  89 0040 BB60     		str	r3, [r7, #8]
  90              	.L3:
 111:./Libraries/CMSIS/DSP/Source/FilteringFunctions/arm_conv_opt_q15.c ****   }
 112:./Libraries/CMSIS/DSP/Source/FilteringFunctions/arm_conv_opt_q15.c **** 
 113:./Libraries/CMSIS/DSP/Source/FilteringFunctions/arm_conv_opt_q15.c ****   /* Pointer to take end of scratch2 buffer */
 114:./Libraries/CMSIS/DSP/Source/FilteringFunctions/arm_conv_opt_q15.c ****   pScr2 = pScratch2 + srcBLen - 1;
  91              		.loc 1 114 31
  92 0042 3A68     		ldr	r2, [r7]
  93 0044 6FF00043 		mvn	r3, #-2147483648
  94 0048 1344     		add	r3, r3, r2
  95 004a 5B00     		lsls	r3, r3, #1
  96              		.loc 1 114 9
  97 004c BA6F     		ldr	r2, [r7, #120]
  98 004e 1344     		add	r3, r3, r2
  99 0050 7B63     		str	r3, [r7, #52]
 115:./Libraries/CMSIS/DSP/Source/FilteringFunctions/arm_conv_opt_q15.c **** 
 116:./Libraries/CMSIS/DSP/Source/FilteringFunctions/arm_conv_opt_q15.c ****   /* points to smaller length sequence */
 117:./Libraries/CMSIS/DSP/Source/FilteringFunctions/arm_conv_opt_q15.c ****   px = pIn2;
 100              		.loc 1 117 6
 101 0052 3B6C     		ldr	r3, [r7, #64]
 102 0054 3B63     		str	r3, [r7, #48]
 118:./Libraries/CMSIS/DSP/Source/FilteringFunctions/arm_conv_opt_q15.c **** 
 119:./Libraries/CMSIS/DSP/Source/FilteringFunctions/arm_conv_opt_q15.c **** #if defined (ARM_MATH_LOOPUNROLL)
 120:./Libraries/CMSIS/DSP/Source/FilteringFunctions/arm_conv_opt_q15.c **** 
 121:./Libraries/CMSIS/DSP/Source/FilteringFunctions/arm_conv_opt_q15.c ****   /* Loop unrolling: Compute 4 outputs at a time */
 122:./Libraries/CMSIS/DSP/Source/FilteringFunctions/arm_conv_opt_q15.c ****   k = srcBLen >> 2U;
 123:./Libraries/CMSIS/DSP/Source/FilteringFunctions/arm_conv_opt_q15.c **** 
 124:./Libraries/CMSIS/DSP/Source/FilteringFunctions/arm_conv_opt_q15.c ****   /* Copy smaller length input sequence in reverse order into second scratch buffer */
 125:./Libraries/CMSIS/DSP/Source/FilteringFunctions/arm_conv_opt_q15.c ****   while (k > 0U)
 126:./Libraries/CMSIS/DSP/Source/FilteringFunctions/arm_conv_opt_q15.c ****   {
 127:./Libraries/CMSIS/DSP/Source/FilteringFunctions/arm_conv_opt_q15.c ****     /* copy second buffer in reversal manner */
ARM GAS  /tmp/ccMNgdj1.s 			page 5


 128:./Libraries/CMSIS/DSP/Source/FilteringFunctions/arm_conv_opt_q15.c ****     *pScr2-- = *px++;
 129:./Libraries/CMSIS/DSP/Source/FilteringFunctions/arm_conv_opt_q15.c ****     *pScr2-- = *px++;
 130:./Libraries/CMSIS/DSP/Source/FilteringFunctions/arm_conv_opt_q15.c ****     *pScr2-- = *px++;
 131:./Libraries/CMSIS/DSP/Source/FilteringFunctions/arm_conv_opt_q15.c ****     *pScr2-- = *px++;
 132:./Libraries/CMSIS/DSP/Source/FilteringFunctions/arm_conv_opt_q15.c **** 
 133:./Libraries/CMSIS/DSP/Source/FilteringFunctions/arm_conv_opt_q15.c ****     /* Decrement loop counter */
 134:./Libraries/CMSIS/DSP/Source/FilteringFunctions/arm_conv_opt_q15.c ****     k--;
 135:./Libraries/CMSIS/DSP/Source/FilteringFunctions/arm_conv_opt_q15.c ****   }
 136:./Libraries/CMSIS/DSP/Source/FilteringFunctions/arm_conv_opt_q15.c **** 
 137:./Libraries/CMSIS/DSP/Source/FilteringFunctions/arm_conv_opt_q15.c ****   /* Loop unrolling: Compute remaining outputs */
 138:./Libraries/CMSIS/DSP/Source/FilteringFunctions/arm_conv_opt_q15.c ****   k = srcBLen % 0x4U;
 139:./Libraries/CMSIS/DSP/Source/FilteringFunctions/arm_conv_opt_q15.c **** 
 140:./Libraries/CMSIS/DSP/Source/FilteringFunctions/arm_conv_opt_q15.c **** #else
 141:./Libraries/CMSIS/DSP/Source/FilteringFunctions/arm_conv_opt_q15.c **** 
 142:./Libraries/CMSIS/DSP/Source/FilteringFunctions/arm_conv_opt_q15.c ****   /* Initialize k with number of samples */
 143:./Libraries/CMSIS/DSP/Source/FilteringFunctions/arm_conv_opt_q15.c ****   k = srcBLen;
 103              		.loc 1 143 5
 104 0056 3B68     		ldr	r3, [r7]
 105 0058 FB62     		str	r3, [r7, #44]
 144:./Libraries/CMSIS/DSP/Source/FilteringFunctions/arm_conv_opt_q15.c **** 
 145:./Libraries/CMSIS/DSP/Source/FilteringFunctions/arm_conv_opt_q15.c **** #endif /* #if defined (ARM_MATH_LOOPUNROLL) */
 146:./Libraries/CMSIS/DSP/Source/FilteringFunctions/arm_conv_opt_q15.c **** 
 147:./Libraries/CMSIS/DSP/Source/FilteringFunctions/arm_conv_opt_q15.c ****   while (k > 0U)
 106              		.loc 1 147 9
 107 005a 0BE0     		b	.L4
 108              	.L5:
 148:./Libraries/CMSIS/DSP/Source/FilteringFunctions/arm_conv_opt_q15.c ****   {
 149:./Libraries/CMSIS/DSP/Source/FilteringFunctions/arm_conv_opt_q15.c ****     /* copy second buffer in reversal manner for remaining samples */
 150:./Libraries/CMSIS/DSP/Source/FilteringFunctions/arm_conv_opt_q15.c ****     *pScr2-- = *px++;
 109              		.loc 1 150 19
 110 005c 3A6B     		ldr	r2, [r7, #48]
 111 005e 931C     		adds	r3, r2, #2
 112 0060 3B63     		str	r3, [r7, #48]
 113              		.loc 1 150 11
 114 0062 7B6B     		ldr	r3, [r7, #52]
 115 0064 991E     		subs	r1, r3, #2
 116 0066 7963     		str	r1, [r7, #52]
 117              		.loc 1 150 16
 118 0068 B2F90020 		ldrsh	r2, [r2]
 119              		.loc 1 150 14
 120 006c 1A80     		strh	r2, [r3]	@ movhi
 151:./Libraries/CMSIS/DSP/Source/FilteringFunctions/arm_conv_opt_q15.c **** 
 152:./Libraries/CMSIS/DSP/Source/FilteringFunctions/arm_conv_opt_q15.c ****     /* Decrement loop counter */
 153:./Libraries/CMSIS/DSP/Source/FilteringFunctions/arm_conv_opt_q15.c ****     k--;
 121              		.loc 1 153 6
 122 006e FB6A     		ldr	r3, [r7, #44]
 123 0070 013B     		subs	r3, r3, #1
 124 0072 FB62     		str	r3, [r7, #44]
 125              	.L4:
 147:./Libraries/CMSIS/DSP/Source/FilteringFunctions/arm_conv_opt_q15.c ****   {
 126              		.loc 1 147 9
 127 0074 FB6A     		ldr	r3, [r7, #44]
 128 0076 002B     		cmp	r3, #0
 129 0078 F0D1     		bne	.L5
 154:./Libraries/CMSIS/DSP/Source/FilteringFunctions/arm_conv_opt_q15.c ****   }
 155:./Libraries/CMSIS/DSP/Source/FilteringFunctions/arm_conv_opt_q15.c **** 
 156:./Libraries/CMSIS/DSP/Source/FilteringFunctions/arm_conv_opt_q15.c ****   /* Initialze temporary scratch pointer */
ARM GAS  /tmp/ccMNgdj1.s 			page 6


 157:./Libraries/CMSIS/DSP/Source/FilteringFunctions/arm_conv_opt_q15.c ****   pScr1 = pScratch1;
 130              		.loc 1 157 9
 131 007a 7B6F     		ldr	r3, [r7, #116]
 132 007c BB63     		str	r3, [r7, #56]
 158:./Libraries/CMSIS/DSP/Source/FilteringFunctions/arm_conv_opt_q15.c **** 
 159:./Libraries/CMSIS/DSP/Source/FilteringFunctions/arm_conv_opt_q15.c ****   /* Assuming scratch1 buffer is aligned by 32-bit */
 160:./Libraries/CMSIS/DSP/Source/FilteringFunctions/arm_conv_opt_q15.c ****   /* Fill (srcBLen - 1U) zeros in scratch1 buffer */
 161:./Libraries/CMSIS/DSP/Source/FilteringFunctions/arm_conv_opt_q15.c ****   arm_fill_q15(0, pScr1, (srcBLen - 1U));
 133              		.loc 1 161 3
 134 007e 3B68     		ldr	r3, [r7]
 135 0080 013B     		subs	r3, r3, #1
 136 0082 1A46     		mov	r2, r3
 137 0084 B96B     		ldr	r1, [r7, #56]
 138 0086 0020     		movs	r0, #0
 139 0088 FFF7FEFF 		bl	arm_fill_q15
 162:./Libraries/CMSIS/DSP/Source/FilteringFunctions/arm_conv_opt_q15.c **** 
 163:./Libraries/CMSIS/DSP/Source/FilteringFunctions/arm_conv_opt_q15.c ****   /* Update temporary scratch pointer */
 164:./Libraries/CMSIS/DSP/Source/FilteringFunctions/arm_conv_opt_q15.c ****   pScr1 += (srcBLen - 1U);
 140              		.loc 1 164 9
 141 008c 3A68     		ldr	r2, [r7]
 142 008e 6FF00043 		mvn	r3, #-2147483648
 143 0092 1344     		add	r3, r3, r2
 144 0094 5B00     		lsls	r3, r3, #1
 145 0096 BA6B     		ldr	r2, [r7, #56]
 146 0098 1344     		add	r3, r3, r2
 147 009a BB63     		str	r3, [r7, #56]
 165:./Libraries/CMSIS/DSP/Source/FilteringFunctions/arm_conv_opt_q15.c **** 
 166:./Libraries/CMSIS/DSP/Source/FilteringFunctions/arm_conv_opt_q15.c ****   /* Copy bigger length sequence(srcALen) samples in scratch1 buffer */
 167:./Libraries/CMSIS/DSP/Source/FilteringFunctions/arm_conv_opt_q15.c **** 
 168:./Libraries/CMSIS/DSP/Source/FilteringFunctions/arm_conv_opt_q15.c ****   /* Copy (srcALen) samples in scratch buffer */
 169:./Libraries/CMSIS/DSP/Source/FilteringFunctions/arm_conv_opt_q15.c ****   arm_copy_q15(pIn1, pScr1, srcALen);
 148              		.loc 1 169 3
 149 009c BA68     		ldr	r2, [r7, #8]
 150 009e B96B     		ldr	r1, [r7, #56]
 151 00a0 786C     		ldr	r0, [r7, #68]
 152 00a2 FFF7FEFF 		bl	arm_copy_q15
 170:./Libraries/CMSIS/DSP/Source/FilteringFunctions/arm_conv_opt_q15.c **** 
 171:./Libraries/CMSIS/DSP/Source/FilteringFunctions/arm_conv_opt_q15.c ****   /* Update pointers */
 172:./Libraries/CMSIS/DSP/Source/FilteringFunctions/arm_conv_opt_q15.c ****   pScr1 += srcALen;
 153              		.loc 1 172 9
 154 00a6 BB68     		ldr	r3, [r7, #8]
 155 00a8 5B00     		lsls	r3, r3, #1
 156 00aa BA6B     		ldr	r2, [r7, #56]
 157 00ac 1344     		add	r3, r3, r2
 158 00ae BB63     		str	r3, [r7, #56]
 173:./Libraries/CMSIS/DSP/Source/FilteringFunctions/arm_conv_opt_q15.c **** 
 174:./Libraries/CMSIS/DSP/Source/FilteringFunctions/arm_conv_opt_q15.c **** 
 175:./Libraries/CMSIS/DSP/Source/FilteringFunctions/arm_conv_opt_q15.c ****   /* Fill (srcBLen - 1U) zeros at end of scratch buffer */
 176:./Libraries/CMSIS/DSP/Source/FilteringFunctions/arm_conv_opt_q15.c ****   arm_fill_q15(0, pScr1, (srcBLen - 1U));
 159              		.loc 1 176 3
 160 00b0 3B68     		ldr	r3, [r7]
 161 00b2 013B     		subs	r3, r3, #1
 162 00b4 1A46     		mov	r2, r3
 163 00b6 B96B     		ldr	r1, [r7, #56]
 164 00b8 0020     		movs	r0, #0
 165 00ba FFF7FEFF 		bl	arm_fill_q15
 177:./Libraries/CMSIS/DSP/Source/FilteringFunctions/arm_conv_opt_q15.c **** 
ARM GAS  /tmp/ccMNgdj1.s 			page 7


 178:./Libraries/CMSIS/DSP/Source/FilteringFunctions/arm_conv_opt_q15.c ****   /* Update pointer */
 179:./Libraries/CMSIS/DSP/Source/FilteringFunctions/arm_conv_opt_q15.c ****   pScr1 += (srcBLen - 1U);
 166              		.loc 1 179 9
 167 00be 3A68     		ldr	r2, [r7]
 168 00c0 6FF00043 		mvn	r3, #-2147483648
 169 00c4 1344     		add	r3, r3, r2
 170 00c6 5B00     		lsls	r3, r3, #1
 171 00c8 BA6B     		ldr	r2, [r7, #56]
 172 00ca 1344     		add	r3, r3, r2
 173 00cc BB63     		str	r3, [r7, #56]
 180:./Libraries/CMSIS/DSP/Source/FilteringFunctions/arm_conv_opt_q15.c **** 
 181:./Libraries/CMSIS/DSP/Source/FilteringFunctions/arm_conv_opt_q15.c ****   /* Temporary pointer for scratch2 */
 182:./Libraries/CMSIS/DSP/Source/FilteringFunctions/arm_conv_opt_q15.c ****   py = pScratch2;
 174              		.loc 1 182 6
 175 00ce BB6F     		ldr	r3, [r7, #120]
 176 00d0 FB61     		str	r3, [r7, #28]
 183:./Libraries/CMSIS/DSP/Source/FilteringFunctions/arm_conv_opt_q15.c **** 
 184:./Libraries/CMSIS/DSP/Source/FilteringFunctions/arm_conv_opt_q15.c **** 
 185:./Libraries/CMSIS/DSP/Source/FilteringFunctions/arm_conv_opt_q15.c ****   /* Initialization of pIn2 pointer */
 186:./Libraries/CMSIS/DSP/Source/FilteringFunctions/arm_conv_opt_q15.c ****   pIn2 = py;
 177              		.loc 1 186 8
 178 00d2 FB69     		ldr	r3, [r7, #28]
 179 00d4 3B64     		str	r3, [r7, #64]
 187:./Libraries/CMSIS/DSP/Source/FilteringFunctions/arm_conv_opt_q15.c **** 
 188:./Libraries/CMSIS/DSP/Source/FilteringFunctions/arm_conv_opt_q15.c **** #if defined (ARM_MATH_LOOPUNROLL)
 189:./Libraries/CMSIS/DSP/Source/FilteringFunctions/arm_conv_opt_q15.c **** 
 190:./Libraries/CMSIS/DSP/Source/FilteringFunctions/arm_conv_opt_q15.c ****   /* Loop unrolling: Compute 4 outputs at a time */
 191:./Libraries/CMSIS/DSP/Source/FilteringFunctions/arm_conv_opt_q15.c ****   blkCnt = (srcALen + srcBLen - 1U) >> 2;
 192:./Libraries/CMSIS/DSP/Source/FilteringFunctions/arm_conv_opt_q15.c **** 
 193:./Libraries/CMSIS/DSP/Source/FilteringFunctions/arm_conv_opt_q15.c ****   while (blkCnt > 0)
 194:./Libraries/CMSIS/DSP/Source/FilteringFunctions/arm_conv_opt_q15.c ****   {
 195:./Libraries/CMSIS/DSP/Source/FilteringFunctions/arm_conv_opt_q15.c ****     /* Initialze temporary scratch pointer as scratch1 */
 196:./Libraries/CMSIS/DSP/Source/FilteringFunctions/arm_conv_opt_q15.c ****     pScr1 = pScratch1;
 197:./Libraries/CMSIS/DSP/Source/FilteringFunctions/arm_conv_opt_q15.c **** 
 198:./Libraries/CMSIS/DSP/Source/FilteringFunctions/arm_conv_opt_q15.c ****     /* Clear Accumlators */
 199:./Libraries/CMSIS/DSP/Source/FilteringFunctions/arm_conv_opt_q15.c ****     acc0 = 0;
 200:./Libraries/CMSIS/DSP/Source/FilteringFunctions/arm_conv_opt_q15.c ****     acc1 = 0;
 201:./Libraries/CMSIS/DSP/Source/FilteringFunctions/arm_conv_opt_q15.c ****     acc2 = 0;
 202:./Libraries/CMSIS/DSP/Source/FilteringFunctions/arm_conv_opt_q15.c ****     acc3 = 0;
 203:./Libraries/CMSIS/DSP/Source/FilteringFunctions/arm_conv_opt_q15.c **** 
 204:./Libraries/CMSIS/DSP/Source/FilteringFunctions/arm_conv_opt_q15.c ****     /* Read two samples from scratch1 buffer */
 205:./Libraries/CMSIS/DSP/Source/FilteringFunctions/arm_conv_opt_q15.c ****     x1 = read_q15x2_ia (&pScr1);
 206:./Libraries/CMSIS/DSP/Source/FilteringFunctions/arm_conv_opt_q15.c **** 
 207:./Libraries/CMSIS/DSP/Source/FilteringFunctions/arm_conv_opt_q15.c ****     /* Read next two samples from scratch1 buffer */
 208:./Libraries/CMSIS/DSP/Source/FilteringFunctions/arm_conv_opt_q15.c ****     x2 = read_q15x2_ia (&pScr1);
 209:./Libraries/CMSIS/DSP/Source/FilteringFunctions/arm_conv_opt_q15.c **** 
 210:./Libraries/CMSIS/DSP/Source/FilteringFunctions/arm_conv_opt_q15.c ****     tapCnt = (srcBLen) >> 2U;
 211:./Libraries/CMSIS/DSP/Source/FilteringFunctions/arm_conv_opt_q15.c **** 
 212:./Libraries/CMSIS/DSP/Source/FilteringFunctions/arm_conv_opt_q15.c ****     while (tapCnt > 0U)
 213:./Libraries/CMSIS/DSP/Source/FilteringFunctions/arm_conv_opt_q15.c ****     {
 214:./Libraries/CMSIS/DSP/Source/FilteringFunctions/arm_conv_opt_q15.c **** 
 215:./Libraries/CMSIS/DSP/Source/FilteringFunctions/arm_conv_opt_q15.c ****       /* Read four samples from smaller buffer */
 216:./Libraries/CMSIS/DSP/Source/FilteringFunctions/arm_conv_opt_q15.c ****       y1 = read_q15x2_ia ((q15_t **) &pIn2);
 217:./Libraries/CMSIS/DSP/Source/FilteringFunctions/arm_conv_opt_q15.c ****       y2 = read_q15x2_ia ((q15_t **) &pIn2);
 218:./Libraries/CMSIS/DSP/Source/FilteringFunctions/arm_conv_opt_q15.c **** 
 219:./Libraries/CMSIS/DSP/Source/FilteringFunctions/arm_conv_opt_q15.c ****       /* multiply and accumlate */
 220:./Libraries/CMSIS/DSP/Source/FilteringFunctions/arm_conv_opt_q15.c ****       acc0 = __SMLALD(x1, y1, acc0);
ARM GAS  /tmp/ccMNgdj1.s 			page 8


 221:./Libraries/CMSIS/DSP/Source/FilteringFunctions/arm_conv_opt_q15.c ****       acc2 = __SMLALD(x2, y1, acc2);
 222:./Libraries/CMSIS/DSP/Source/FilteringFunctions/arm_conv_opt_q15.c **** 
 223:./Libraries/CMSIS/DSP/Source/FilteringFunctions/arm_conv_opt_q15.c ****       /* pack input data */
 224:./Libraries/CMSIS/DSP/Source/FilteringFunctions/arm_conv_opt_q15.c **** #ifndef ARM_MATH_BIG_ENDIAN
 225:./Libraries/CMSIS/DSP/Source/FilteringFunctions/arm_conv_opt_q15.c ****       x3 = __PKHBT(x2, x1, 0);
 226:./Libraries/CMSIS/DSP/Source/FilteringFunctions/arm_conv_opt_q15.c **** #else
 227:./Libraries/CMSIS/DSP/Source/FilteringFunctions/arm_conv_opt_q15.c ****       x3 = __PKHBT(x1, x2, 0);
 228:./Libraries/CMSIS/DSP/Source/FilteringFunctions/arm_conv_opt_q15.c **** #endif
 229:./Libraries/CMSIS/DSP/Source/FilteringFunctions/arm_conv_opt_q15.c **** 
 230:./Libraries/CMSIS/DSP/Source/FilteringFunctions/arm_conv_opt_q15.c ****       /* multiply and accumlate */
 231:./Libraries/CMSIS/DSP/Source/FilteringFunctions/arm_conv_opt_q15.c ****       acc1 = __SMLALDX(x3, y1, acc1);
 232:./Libraries/CMSIS/DSP/Source/FilteringFunctions/arm_conv_opt_q15.c **** 
 233:./Libraries/CMSIS/DSP/Source/FilteringFunctions/arm_conv_opt_q15.c ****       /* Read next two samples from scratch1 buffer */
 234:./Libraries/CMSIS/DSP/Source/FilteringFunctions/arm_conv_opt_q15.c ****       x1 = read_q15x2_ia (&pScr1);
 235:./Libraries/CMSIS/DSP/Source/FilteringFunctions/arm_conv_opt_q15.c **** 
 236:./Libraries/CMSIS/DSP/Source/FilteringFunctions/arm_conv_opt_q15.c ****       /* multiply and accumlate */
 237:./Libraries/CMSIS/DSP/Source/FilteringFunctions/arm_conv_opt_q15.c ****       acc0 = __SMLALD(x2, y2, acc0);
 238:./Libraries/CMSIS/DSP/Source/FilteringFunctions/arm_conv_opt_q15.c ****       acc2 = __SMLALD(x1, y2, acc2);
 239:./Libraries/CMSIS/DSP/Source/FilteringFunctions/arm_conv_opt_q15.c **** 
 240:./Libraries/CMSIS/DSP/Source/FilteringFunctions/arm_conv_opt_q15.c ****       /* pack input data */
 241:./Libraries/CMSIS/DSP/Source/FilteringFunctions/arm_conv_opt_q15.c **** #ifndef ARM_MATH_BIG_ENDIAN
 242:./Libraries/CMSIS/DSP/Source/FilteringFunctions/arm_conv_opt_q15.c ****       x3 = __PKHBT(x1, x2, 0);
 243:./Libraries/CMSIS/DSP/Source/FilteringFunctions/arm_conv_opt_q15.c **** #else
 244:./Libraries/CMSIS/DSP/Source/FilteringFunctions/arm_conv_opt_q15.c ****       x3 = __PKHBT(x2, x1, 0);
 245:./Libraries/CMSIS/DSP/Source/FilteringFunctions/arm_conv_opt_q15.c **** #endif
 246:./Libraries/CMSIS/DSP/Source/FilteringFunctions/arm_conv_opt_q15.c **** 
 247:./Libraries/CMSIS/DSP/Source/FilteringFunctions/arm_conv_opt_q15.c ****       acc3 = __SMLALDX(x3, y1, acc3);
 248:./Libraries/CMSIS/DSP/Source/FilteringFunctions/arm_conv_opt_q15.c ****       acc1 = __SMLALDX(x3, y2, acc1);
 249:./Libraries/CMSIS/DSP/Source/FilteringFunctions/arm_conv_opt_q15.c **** 
 250:./Libraries/CMSIS/DSP/Source/FilteringFunctions/arm_conv_opt_q15.c ****       x2 = read_q15x2_ia (&pScr1);
 251:./Libraries/CMSIS/DSP/Source/FilteringFunctions/arm_conv_opt_q15.c **** 
 252:./Libraries/CMSIS/DSP/Source/FilteringFunctions/arm_conv_opt_q15.c **** #ifndef ARM_MATH_BIG_ENDIAN
 253:./Libraries/CMSIS/DSP/Source/FilteringFunctions/arm_conv_opt_q15.c ****       x3 = __PKHBT(x2, x1, 0);
 254:./Libraries/CMSIS/DSP/Source/FilteringFunctions/arm_conv_opt_q15.c **** #else
 255:./Libraries/CMSIS/DSP/Source/FilteringFunctions/arm_conv_opt_q15.c ****       x3 = __PKHBT(x1, x2, 0);
 256:./Libraries/CMSIS/DSP/Source/FilteringFunctions/arm_conv_opt_q15.c **** #endif
 257:./Libraries/CMSIS/DSP/Source/FilteringFunctions/arm_conv_opt_q15.c **** 
 258:./Libraries/CMSIS/DSP/Source/FilteringFunctions/arm_conv_opt_q15.c ****       acc3 = __SMLALDX(x3, y2, acc3);
 259:./Libraries/CMSIS/DSP/Source/FilteringFunctions/arm_conv_opt_q15.c **** 
 260:./Libraries/CMSIS/DSP/Source/FilteringFunctions/arm_conv_opt_q15.c ****       /* Decrement loop counter */
 261:./Libraries/CMSIS/DSP/Source/FilteringFunctions/arm_conv_opt_q15.c ****       tapCnt--;
 262:./Libraries/CMSIS/DSP/Source/FilteringFunctions/arm_conv_opt_q15.c ****     }
 263:./Libraries/CMSIS/DSP/Source/FilteringFunctions/arm_conv_opt_q15.c **** 
 264:./Libraries/CMSIS/DSP/Source/FilteringFunctions/arm_conv_opt_q15.c ****     /* Update scratch pointer for remaining samples of smaller length sequence */
 265:./Libraries/CMSIS/DSP/Source/FilteringFunctions/arm_conv_opt_q15.c ****     pScr1 -= 4U;
 266:./Libraries/CMSIS/DSP/Source/FilteringFunctions/arm_conv_opt_q15.c **** 
 267:./Libraries/CMSIS/DSP/Source/FilteringFunctions/arm_conv_opt_q15.c ****     /* apply same above for remaining samples of smaller length sequence */
 268:./Libraries/CMSIS/DSP/Source/FilteringFunctions/arm_conv_opt_q15.c ****     tapCnt = (srcBLen) & 3U;
 269:./Libraries/CMSIS/DSP/Source/FilteringFunctions/arm_conv_opt_q15.c **** 
 270:./Libraries/CMSIS/DSP/Source/FilteringFunctions/arm_conv_opt_q15.c ****     while (tapCnt > 0U)
 271:./Libraries/CMSIS/DSP/Source/FilteringFunctions/arm_conv_opt_q15.c ****     {
 272:./Libraries/CMSIS/DSP/Source/FilteringFunctions/arm_conv_opt_q15.c ****       /* accumlate the results */
 273:./Libraries/CMSIS/DSP/Source/FilteringFunctions/arm_conv_opt_q15.c ****       acc0 += (*pScr1++ * *pIn2);
 274:./Libraries/CMSIS/DSP/Source/FilteringFunctions/arm_conv_opt_q15.c ****       acc1 += (*pScr1++ * *pIn2);
 275:./Libraries/CMSIS/DSP/Source/FilteringFunctions/arm_conv_opt_q15.c ****       acc2 += (*pScr1++ * *pIn2);
 276:./Libraries/CMSIS/DSP/Source/FilteringFunctions/arm_conv_opt_q15.c ****       acc3 += (*pScr1++ * *pIn2++);
 277:./Libraries/CMSIS/DSP/Source/FilteringFunctions/arm_conv_opt_q15.c **** 
ARM GAS  /tmp/ccMNgdj1.s 			page 9


 278:./Libraries/CMSIS/DSP/Source/FilteringFunctions/arm_conv_opt_q15.c ****       pScr1 -= 3U;
 279:./Libraries/CMSIS/DSP/Source/FilteringFunctions/arm_conv_opt_q15.c **** 
 280:./Libraries/CMSIS/DSP/Source/FilteringFunctions/arm_conv_opt_q15.c ****       /* Decrement loop counter */
 281:./Libraries/CMSIS/DSP/Source/FilteringFunctions/arm_conv_opt_q15.c ****       tapCnt--;
 282:./Libraries/CMSIS/DSP/Source/FilteringFunctions/arm_conv_opt_q15.c ****     }
 283:./Libraries/CMSIS/DSP/Source/FilteringFunctions/arm_conv_opt_q15.c **** 
 284:./Libraries/CMSIS/DSP/Source/FilteringFunctions/arm_conv_opt_q15.c ****     blkCnt--;
 285:./Libraries/CMSIS/DSP/Source/FilteringFunctions/arm_conv_opt_q15.c **** 
 286:./Libraries/CMSIS/DSP/Source/FilteringFunctions/arm_conv_opt_q15.c ****     /* Store the results in the accumulators in the destination buffer. */
 287:./Libraries/CMSIS/DSP/Source/FilteringFunctions/arm_conv_opt_q15.c **** #ifndef ARM_MATH_BIG_ENDIAN
 288:./Libraries/CMSIS/DSP/Source/FilteringFunctions/arm_conv_opt_q15.c ****     write_q15x2_ia (&pOut, __PKHBT(__SSAT((acc0 >> 15), 16), __SSAT((acc1 >> 15), 16), 16));
 289:./Libraries/CMSIS/DSP/Source/FilteringFunctions/arm_conv_opt_q15.c ****     write_q15x2_ia (&pOut, __PKHBT(__SSAT((acc2 >> 15), 16), __SSAT((acc3 >> 15), 16), 16));
 290:./Libraries/CMSIS/DSP/Source/FilteringFunctions/arm_conv_opt_q15.c **** #else
 291:./Libraries/CMSIS/DSP/Source/FilteringFunctions/arm_conv_opt_q15.c ****     write_q15x2_ia (&pOut, __PKHBT(__SSAT((acc1 >> 15), 16), __SSAT((acc0 >> 15), 16), 16));
 292:./Libraries/CMSIS/DSP/Source/FilteringFunctions/arm_conv_opt_q15.c ****     write_q15x2_ia (&pOut, __PKHBT(__SSAT((acc3 >> 15), 16), __SSAT((acc2 >> 15), 16), 16));
 293:./Libraries/CMSIS/DSP/Source/FilteringFunctions/arm_conv_opt_q15.c **** #endif /* #ifndef ARM_MATH_BIG_ENDIAN */
 294:./Libraries/CMSIS/DSP/Source/FilteringFunctions/arm_conv_opt_q15.c **** 
 295:./Libraries/CMSIS/DSP/Source/FilteringFunctions/arm_conv_opt_q15.c ****     /* Initialization of inputB pointer */
 296:./Libraries/CMSIS/DSP/Source/FilteringFunctions/arm_conv_opt_q15.c ****     pIn2 = py;
 297:./Libraries/CMSIS/DSP/Source/FilteringFunctions/arm_conv_opt_q15.c **** 
 298:./Libraries/CMSIS/DSP/Source/FilteringFunctions/arm_conv_opt_q15.c ****     pScratch1 += 4U;
 299:./Libraries/CMSIS/DSP/Source/FilteringFunctions/arm_conv_opt_q15.c ****   }
 300:./Libraries/CMSIS/DSP/Source/FilteringFunctions/arm_conv_opt_q15.c **** 
 301:./Libraries/CMSIS/DSP/Source/FilteringFunctions/arm_conv_opt_q15.c ****   /* Loop unrolling: Compute remaining outputs */
 302:./Libraries/CMSIS/DSP/Source/FilteringFunctions/arm_conv_opt_q15.c ****   blkCnt = (srcALen + srcBLen - 1U) & 0x3;
 303:./Libraries/CMSIS/DSP/Source/FilteringFunctions/arm_conv_opt_q15.c **** 
 304:./Libraries/CMSIS/DSP/Source/FilteringFunctions/arm_conv_opt_q15.c **** #else
 305:./Libraries/CMSIS/DSP/Source/FilteringFunctions/arm_conv_opt_q15.c **** 
 306:./Libraries/CMSIS/DSP/Source/FilteringFunctions/arm_conv_opt_q15.c ****   /* Initialize blkCnt with number of samples */
 307:./Libraries/CMSIS/DSP/Source/FilteringFunctions/arm_conv_opt_q15.c ****   blkCnt = (srcALen + srcBLen - 1U);
 180              		.loc 1 307 21
 181 00d6 BA68     		ldr	r2, [r7, #8]
 182 00d8 3B68     		ldr	r3, [r7]
 183 00da 1344     		add	r3, r3, r2
 184              		.loc 1 307 10
 185 00dc 013B     		subs	r3, r3, #1
 186 00de BB62     		str	r3, [r7, #40]
 308:./Libraries/CMSIS/DSP/Source/FilteringFunctions/arm_conv_opt_q15.c **** 
 309:./Libraries/CMSIS/DSP/Source/FilteringFunctions/arm_conv_opt_q15.c **** #endif /* #if defined (ARM_MATH_LOOPUNROLL) */
 310:./Libraries/CMSIS/DSP/Source/FilteringFunctions/arm_conv_opt_q15.c **** 
 311:./Libraries/CMSIS/DSP/Source/FilteringFunctions/arm_conv_opt_q15.c ****   /* Calculate convolution for remaining samples of Bigger length sequence */
 312:./Libraries/CMSIS/DSP/Source/FilteringFunctions/arm_conv_opt_q15.c ****   while (blkCnt > 0)
 187              		.loc 1 312 9
 188 00e0 81E0     		b	.L6
 189              	.L11:
 313:./Libraries/CMSIS/DSP/Source/FilteringFunctions/arm_conv_opt_q15.c ****   {
 314:./Libraries/CMSIS/DSP/Source/FilteringFunctions/arm_conv_opt_q15.c ****     /* Initialze temporary scratch pointer as scratch1 */
 315:./Libraries/CMSIS/DSP/Source/FilteringFunctions/arm_conv_opt_q15.c ****     pScr1 = pScratch1;
 190              		.loc 1 315 11
 191 00e2 7B6F     		ldr	r3, [r7, #116]
 192 00e4 BB63     		str	r3, [r7, #56]
 316:./Libraries/CMSIS/DSP/Source/FilteringFunctions/arm_conv_opt_q15.c **** 
 317:./Libraries/CMSIS/DSP/Source/FilteringFunctions/arm_conv_opt_q15.c ****     /* Clear Accumlators */
 318:./Libraries/CMSIS/DSP/Source/FilteringFunctions/arm_conv_opt_q15.c ****     acc0 = 0;
 193              		.loc 1 318 10
 194 00e6 4FF00002 		mov	r2, #0
 195 00ea 4FF00003 		mov	r3, #0
ARM GAS  /tmp/ccMNgdj1.s 			page 10


 196 00ee C7E91223 		strd	r2, [r7, #72]
 319:./Libraries/CMSIS/DSP/Source/FilteringFunctions/arm_conv_opt_q15.c **** 
 320:./Libraries/CMSIS/DSP/Source/FilteringFunctions/arm_conv_opt_q15.c ****     tapCnt = (srcBLen) >> 1U;
 197              		.loc 1 320 12
 198 00f2 3B68     		ldr	r3, [r7]
 199 00f4 5B08     		lsrs	r3, r3, #1
 200 00f6 7B62     		str	r3, [r7, #36]
 321:./Libraries/CMSIS/DSP/Source/FilteringFunctions/arm_conv_opt_q15.c **** 
 322:./Libraries/CMSIS/DSP/Source/FilteringFunctions/arm_conv_opt_q15.c ****     while (tapCnt > 0U)
 201              		.loc 1 322 11
 202 00f8 31E0     		b	.L7
 203              	.L8:
 323:./Libraries/CMSIS/DSP/Source/FilteringFunctions/arm_conv_opt_q15.c ****     {
 324:./Libraries/CMSIS/DSP/Source/FilteringFunctions/arm_conv_opt_q15.c **** 
 325:./Libraries/CMSIS/DSP/Source/FilteringFunctions/arm_conv_opt_q15.c ****       /* Read next two samples from scratch1 buffer */
 326:./Libraries/CMSIS/DSP/Source/FilteringFunctions/arm_conv_opt_q15.c ****       acc0 += (*pScr1++ * *pIn2++);
 204              		.loc 1 326 22
 205 00fa BB6B     		ldr	r3, [r7, #56]
 206 00fc 9A1C     		adds	r2, r3, #2
 207 00fe BA63     		str	r2, [r7, #56]
 208              		.loc 1 326 16
 209 0100 B3F90030 		ldrsh	r3, [r3]
 210 0104 1946     		mov	r1, r3
 211              		.loc 1 326 32
 212 0106 3B6C     		ldr	r3, [r7, #64]
 213 0108 9A1C     		adds	r2, r3, #2
 214 010a 3A64     		str	r2, [r7, #64]
 215              		.loc 1 326 27
 216 010c B3F90030 		ldrsh	r3, [r3]
 217              		.loc 1 326 25
 218 0110 03FB01F3 		mul	r3, r3, r1
 219 0114 1A46     		mov	r2, r3
 220 0116 4FEAE273 		asr	r3, r2, #31
 221              		.loc 1 326 12
 222 011a D7E91201 		ldrd	r0, [r7, #72]
 223 011e 8418     		adds	r4, r0, r2
 224 0120 41EB0305 		adc	r5, r1, r3
 225 0124 C7E91245 		strd	r4, [r7, #72]
 327:./Libraries/CMSIS/DSP/Source/FilteringFunctions/arm_conv_opt_q15.c ****       acc0 += (*pScr1++ * *pIn2++);
 226              		.loc 1 327 22
 227 0128 BB6B     		ldr	r3, [r7, #56]
 228 012a 9A1C     		adds	r2, r3, #2
 229 012c BA63     		str	r2, [r7, #56]
 230              		.loc 1 327 16
 231 012e B3F90030 		ldrsh	r3, [r3]
 232 0132 1946     		mov	r1, r3
 233              		.loc 1 327 32
 234 0134 3B6C     		ldr	r3, [r7, #64]
 235 0136 9A1C     		adds	r2, r3, #2
 236 0138 3A64     		str	r2, [r7, #64]
 237              		.loc 1 327 27
 238 013a B3F90030 		ldrsh	r3, [r3]
 239              		.loc 1 327 25
 240 013e 03FB01F3 		mul	r3, r3, r1
 241 0142 1A46     		mov	r2, r3
 242 0144 4FEAE273 		asr	r3, r2, #31
 243              		.loc 1 327 12
ARM GAS  /tmp/ccMNgdj1.s 			page 11


 244 0148 D7E91201 		ldrd	r0, [r7, #72]
 245 014c 10EB0208 		adds	r8, r0, r2
 246 0150 41EB0309 		adc	r9, r1, r3
 247 0154 C7E91289 		strd	r8, [r7, #72]
 328:./Libraries/CMSIS/DSP/Source/FilteringFunctions/arm_conv_opt_q15.c **** 
 329:./Libraries/CMSIS/DSP/Source/FilteringFunctions/arm_conv_opt_q15.c ****       /* Decrement loop counter */
 330:./Libraries/CMSIS/DSP/Source/FilteringFunctions/arm_conv_opt_q15.c ****       tapCnt--;
 248              		.loc 1 330 13
 249 0158 7B6A     		ldr	r3, [r7, #36]
 250 015a 013B     		subs	r3, r3, #1
 251 015c 7B62     		str	r3, [r7, #36]
 252              	.L7:
 322:./Libraries/CMSIS/DSP/Source/FilteringFunctions/arm_conv_opt_q15.c ****     {
 253              		.loc 1 322 11
 254 015e 7B6A     		ldr	r3, [r7, #36]
 255 0160 002B     		cmp	r3, #0
 256 0162 CAD1     		bne	.L8
 331:./Libraries/CMSIS/DSP/Source/FilteringFunctions/arm_conv_opt_q15.c ****     }
 332:./Libraries/CMSIS/DSP/Source/FilteringFunctions/arm_conv_opt_q15.c **** 
 333:./Libraries/CMSIS/DSP/Source/FilteringFunctions/arm_conv_opt_q15.c ****     tapCnt = (srcBLen) & 1U;
 257              		.loc 1 333 12
 258 0164 3B68     		ldr	r3, [r7]
 259 0166 03F00103 		and	r3, r3, #1
 260 016a 7B62     		str	r3, [r7, #36]
 334:./Libraries/CMSIS/DSP/Source/FilteringFunctions/arm_conv_opt_q15.c **** 
 335:./Libraries/CMSIS/DSP/Source/FilteringFunctions/arm_conv_opt_q15.c ****     /* apply same above for remaining samples of smaller length sequence */
 336:./Libraries/CMSIS/DSP/Source/FilteringFunctions/arm_conv_opt_q15.c ****     while (tapCnt > 0U)
 261              		.loc 1 336 11
 262 016c 1AE0     		b	.L9
 263              	.L10:
 337:./Libraries/CMSIS/DSP/Source/FilteringFunctions/arm_conv_opt_q15.c ****     {
 338:./Libraries/CMSIS/DSP/Source/FilteringFunctions/arm_conv_opt_q15.c **** 
 339:./Libraries/CMSIS/DSP/Source/FilteringFunctions/arm_conv_opt_q15.c ****       /* accumlate the results */
 340:./Libraries/CMSIS/DSP/Source/FilteringFunctions/arm_conv_opt_q15.c ****       acc0 += (*pScr1++ * *pIn2++);
 264              		.loc 1 340 22
 265 016e BB6B     		ldr	r3, [r7, #56]
 266 0170 9A1C     		adds	r2, r3, #2
 267 0172 BA63     		str	r2, [r7, #56]
 268              		.loc 1 340 16
 269 0174 B3F90030 		ldrsh	r3, [r3]
 270 0178 1946     		mov	r1, r3
 271              		.loc 1 340 32
 272 017a 3B6C     		ldr	r3, [r7, #64]
 273 017c 9A1C     		adds	r2, r3, #2
 274 017e 3A64     		str	r2, [r7, #64]
 275              		.loc 1 340 27
 276 0180 B3F90030 		ldrsh	r3, [r3]
 277              		.loc 1 340 25
 278 0184 03FB01F3 		mul	r3, r3, r1
 279 0188 1A46     		mov	r2, r3
 280 018a 4FEAE273 		asr	r3, r2, #31
 281              		.loc 1 340 12
 282 018e D7E91201 		ldrd	r0, [r7, #72]
 283 0192 10EB020A 		adds	r10, r0, r2
 284 0196 41EB030B 		adc	fp, r1, r3
 285 019a C7E912AB 		strd	r10, [r7, #72]
 341:./Libraries/CMSIS/DSP/Source/FilteringFunctions/arm_conv_opt_q15.c **** 
ARM GAS  /tmp/ccMNgdj1.s 			page 12


 342:./Libraries/CMSIS/DSP/Source/FilteringFunctions/arm_conv_opt_q15.c ****       /* Decrement loop counter */
 343:./Libraries/CMSIS/DSP/Source/FilteringFunctions/arm_conv_opt_q15.c ****       tapCnt--;
 286              		.loc 1 343 13
 287 019e 7B6A     		ldr	r3, [r7, #36]
 288 01a0 013B     		subs	r3, r3, #1
 289 01a2 7B62     		str	r3, [r7, #36]
 290              	.L9:
 336:./Libraries/CMSIS/DSP/Source/FilteringFunctions/arm_conv_opt_q15.c ****     {
 291              		.loc 1 336 11
 292 01a4 7B6A     		ldr	r3, [r7, #36]
 293 01a6 002B     		cmp	r3, #0
 294 01a8 E1D1     		bne	.L10
 344:./Libraries/CMSIS/DSP/Source/FilteringFunctions/arm_conv_opt_q15.c ****     }
 345:./Libraries/CMSIS/DSP/Source/FilteringFunctions/arm_conv_opt_q15.c **** 
 346:./Libraries/CMSIS/DSP/Source/FilteringFunctions/arm_conv_opt_q15.c ****     blkCnt--;
 295              		.loc 1 346 11
 296 01aa BB6A     		ldr	r3, [r7, #40]
 297 01ac 013B     		subs	r3, r3, #1
 298 01ae BB62     		str	r3, [r7, #40]
 299              	.LBB2:
 347:./Libraries/CMSIS/DSP/Source/FilteringFunctions/arm_conv_opt_q15.c **** 
 348:./Libraries/CMSIS/DSP/Source/FilteringFunctions/arm_conv_opt_q15.c ****     /* The result is in 2.30 format.  Convert to 1.15 with saturation.
 349:./Libraries/CMSIS/DSP/Source/FilteringFunctions/arm_conv_opt_q15.c ****        Then store the output in the destination buffer. */
 350:./Libraries/CMSIS/DSP/Source/FilteringFunctions/arm_conv_opt_q15.c ****     *pOut++ = (q15_t) (__SSAT((acc0 >> 15), 16));
 300              		.loc 1 350 24
 301 01b0 D7E91201 		ldrd	r0, [r7, #72]
 302 01b4 4FF00002 		mov	r2, #0
 303 01b8 4FF00003 		mov	r3, #0
 304 01bc C20B     		lsrs	r2, r0, #15
 305 01be 42EA4142 		orr	r2, r2, r1, lsl #17
 306 01c2 CB13     		asrs	r3, r1, #15
 307 01c4 1346     		mov	r3, r2
 308 01c6 BB61     		str	r3, [r7, #24]
 309 01c8 BB69     		ldr	r3, [r7, #24]
 310              		.syntax unified
 311              	@ 350 "./Libraries/CMSIS/DSP/Source/FilteringFunctions/arm_conv_opt_q15.c" 1
 312 01ca 03F30F03 		ssat r3, #16, r3
 313              	@ 0 "" 2
 314              		.thumb
 315              		.syntax unified
 316 01ce 7B61     		str	r3, [r7, #20]
 317 01d0 7969     		ldr	r1, [r7, #20]
 318              	.LBE2:
 319              		.loc 1 350 10
 320 01d2 FB6B     		ldr	r3, [r7, #60]
 321 01d4 9A1C     		adds	r2, r3, #2
 322 01d6 FA63     		str	r2, [r7, #60]
 323              		.loc 1 350 15
 324 01d8 0AB2     		sxth	r2, r1
 325              		.loc 1 350 13
 326 01da 1A80     		strh	r2, [r3]	@ movhi
 351:./Libraries/CMSIS/DSP/Source/FilteringFunctions/arm_conv_opt_q15.c **** 
 352:./Libraries/CMSIS/DSP/Source/FilteringFunctions/arm_conv_opt_q15.c ****     /* Initialization of inputB pointer */
 353:./Libraries/CMSIS/DSP/Source/FilteringFunctions/arm_conv_opt_q15.c ****     pIn2 = py;
 327              		.loc 1 353 10
 328 01dc FB69     		ldr	r3, [r7, #28]
 329 01de 3B64     		str	r3, [r7, #64]
ARM GAS  /tmp/ccMNgdj1.s 			page 13


 354:./Libraries/CMSIS/DSP/Source/FilteringFunctions/arm_conv_opt_q15.c **** 
 355:./Libraries/CMSIS/DSP/Source/FilteringFunctions/arm_conv_opt_q15.c ****     pScratch1 += 1U;
 330              		.loc 1 355 15
 331 01e0 7B6F     		ldr	r3, [r7, #116]
 332 01e2 0233     		adds	r3, r3, #2
 333 01e4 7B67     		str	r3, [r7, #116]
 334              	.L6:
 312:./Libraries/CMSIS/DSP/Source/FilteringFunctions/arm_conv_opt_q15.c ****   {
 335              		.loc 1 312 9
 336 01e6 BB6A     		ldr	r3, [r7, #40]
 337 01e8 002B     		cmp	r3, #0
 338 01ea 7FF47AAF 		bne	.L11
 356:./Libraries/CMSIS/DSP/Source/FilteringFunctions/arm_conv_opt_q15.c ****   }
 357:./Libraries/CMSIS/DSP/Source/FilteringFunctions/arm_conv_opt_q15.c **** 
 358:./Libraries/CMSIS/DSP/Source/FilteringFunctions/arm_conv_opt_q15.c **** }
 339              		.loc 1 358 1
 340 01ee 00BF     		nop
 341 01f0 00BF     		nop
 342 01f2 5037     		adds	r7, r7, #80
 343              	.LCFI3:
 344              		.cfi_def_cfa_offset 32
 345 01f4 BD46     		mov	sp, r7
 346              	.LCFI4:
 347              		.cfi_def_cfa_register 13
 348              		@ sp needed
 349 01f6 BDE8B08F 		pop	{r4, r5, r7, r8, r9, r10, fp, pc}
 350              		.cfi_endproc
 351              	.LFE145:
 353              		.text
 354              	.Letext0:
 355              		.file 2 "/usr/lib/gcc/arm-none-eabi/9.2.1/include/stdint.h"
 356              		.file 3 "/usr/lib/gcc/arm-none-eabi/9.2.1/include/stddef.h"
 357              		.file 4 "/usr/include/newlib/sys/_types.h"
 358              		.file 5 "/usr/include/newlib/sys/reent.h"
 359              		.file 6 "/usr/include/newlib/sys/lock.h"
 360              		.file 7 "/usr/include/newlib/math.h"
 361              		.file 8 "./Libraries/CMSIS/DSP/Include/arm_math.h"
ARM GAS  /tmp/ccMNgdj1.s 			page 14

