ARM GAS  /tmp/ccu5cNcn.s 			page 1


   1              		.cpu cortex-m7
   2              		.eabi_attribute 28, 1
   3              		.eabi_attribute 20, 1
   4              		.eabi_attribute 21, 1
   5              		.eabi_attribute 23, 3
   6              		.eabi_attribute 24, 1
   7              		.eabi_attribute 25, 1
   8              		.eabi_attribute 26, 1
   9              		.eabi_attribute 30, 6
  10              		.eabi_attribute 34, 1
  11              		.eabi_attribute 18, 4
  12              		.file	"arm_lms_q15.c"
  13              		.text
  14              	.Ltext0:
  15              		.cfi_sections	.debug_frame
  16              		.section	.text.arm_lms_q15,"ax",%progbits
  17              		.align	1
  18              		.global	arm_lms_q15
  19              		.arch armv7e-m
  20              		.syntax unified
  21              		.thumb
  22              		.thumb_func
  23              		.fpu fpv5-d16
  25              	arm_lms_q15:
  26              	.LFB145:
  27              		.file 1 "./Libraries/CMSIS/DSP/Source/FilteringFunctions/arm_lms_q15.c"
   1:./Libraries/CMSIS/DSP/Source/FilteringFunctions/arm_lms_q15.c **** /* ----------------------------------------------------------------------
   2:./Libraries/CMSIS/DSP/Source/FilteringFunctions/arm_lms_q15.c ****  * Project:      CMSIS DSP Library
   3:./Libraries/CMSIS/DSP/Source/FilteringFunctions/arm_lms_q15.c ****  * Title:        arm_lms_q15.c
   4:./Libraries/CMSIS/DSP/Source/FilteringFunctions/arm_lms_q15.c ****  * Description:  Processing function for Q15 LMS filter
   5:./Libraries/CMSIS/DSP/Source/FilteringFunctions/arm_lms_q15.c ****  *
   6:./Libraries/CMSIS/DSP/Source/FilteringFunctions/arm_lms_q15.c ****  * $Date:        18. March 2019
   7:./Libraries/CMSIS/DSP/Source/FilteringFunctions/arm_lms_q15.c ****  * $Revision:    V1.6.0
   8:./Libraries/CMSIS/DSP/Source/FilteringFunctions/arm_lms_q15.c ****  *
   9:./Libraries/CMSIS/DSP/Source/FilteringFunctions/arm_lms_q15.c ****  * Target Processor: Cortex-M cores
  10:./Libraries/CMSIS/DSP/Source/FilteringFunctions/arm_lms_q15.c ****  * -------------------------------------------------------------------- */
  11:./Libraries/CMSIS/DSP/Source/FilteringFunctions/arm_lms_q15.c **** /*
  12:./Libraries/CMSIS/DSP/Source/FilteringFunctions/arm_lms_q15.c ****  * Copyright (C) 2010-2019 ARM Limited or its affiliates. All rights reserved.
  13:./Libraries/CMSIS/DSP/Source/FilteringFunctions/arm_lms_q15.c ****  *
  14:./Libraries/CMSIS/DSP/Source/FilteringFunctions/arm_lms_q15.c ****  * SPDX-License-Identifier: Apache-2.0
  15:./Libraries/CMSIS/DSP/Source/FilteringFunctions/arm_lms_q15.c ****  *
  16:./Libraries/CMSIS/DSP/Source/FilteringFunctions/arm_lms_q15.c ****  * Licensed under the Apache License, Version 2.0 (the License); you may
  17:./Libraries/CMSIS/DSP/Source/FilteringFunctions/arm_lms_q15.c ****  * not use this file except in compliance with the License.
  18:./Libraries/CMSIS/DSP/Source/FilteringFunctions/arm_lms_q15.c ****  * You may obtain a copy of the License at
  19:./Libraries/CMSIS/DSP/Source/FilteringFunctions/arm_lms_q15.c ****  *
  20:./Libraries/CMSIS/DSP/Source/FilteringFunctions/arm_lms_q15.c ****  * www.apache.org/licenses/LICENSE-2.0
  21:./Libraries/CMSIS/DSP/Source/FilteringFunctions/arm_lms_q15.c ****  *
  22:./Libraries/CMSIS/DSP/Source/FilteringFunctions/arm_lms_q15.c ****  * Unless required by applicable law or agreed to in writing, software
  23:./Libraries/CMSIS/DSP/Source/FilteringFunctions/arm_lms_q15.c ****  * distributed under the License is distributed on an AS IS BASIS, WITHOUT
  24:./Libraries/CMSIS/DSP/Source/FilteringFunctions/arm_lms_q15.c ****  * WARRANTIES OR CONDITIONS OF ANY KIND, either express or implied.
  25:./Libraries/CMSIS/DSP/Source/FilteringFunctions/arm_lms_q15.c ****  * See the License for the specific language governing permissions and
  26:./Libraries/CMSIS/DSP/Source/FilteringFunctions/arm_lms_q15.c ****  * limitations under the License.
  27:./Libraries/CMSIS/DSP/Source/FilteringFunctions/arm_lms_q15.c ****  */
  28:./Libraries/CMSIS/DSP/Source/FilteringFunctions/arm_lms_q15.c **** 
  29:./Libraries/CMSIS/DSP/Source/FilteringFunctions/arm_lms_q15.c **** #include "arm_math.h"
  30:./Libraries/CMSIS/DSP/Source/FilteringFunctions/arm_lms_q15.c **** 
  31:./Libraries/CMSIS/DSP/Source/FilteringFunctions/arm_lms_q15.c **** /**
ARM GAS  /tmp/ccu5cNcn.s 			page 2


  32:./Libraries/CMSIS/DSP/Source/FilteringFunctions/arm_lms_q15.c ****   @ingroup groupFilters
  33:./Libraries/CMSIS/DSP/Source/FilteringFunctions/arm_lms_q15.c ****  */
  34:./Libraries/CMSIS/DSP/Source/FilteringFunctions/arm_lms_q15.c **** 
  35:./Libraries/CMSIS/DSP/Source/FilteringFunctions/arm_lms_q15.c **** /**
  36:./Libraries/CMSIS/DSP/Source/FilteringFunctions/arm_lms_q15.c ****   @addtogroup LMS
  37:./Libraries/CMSIS/DSP/Source/FilteringFunctions/arm_lms_q15.c ****   @{
  38:./Libraries/CMSIS/DSP/Source/FilteringFunctions/arm_lms_q15.c ****  */
  39:./Libraries/CMSIS/DSP/Source/FilteringFunctions/arm_lms_q15.c **** 
  40:./Libraries/CMSIS/DSP/Source/FilteringFunctions/arm_lms_q15.c **** /**
  41:./Libraries/CMSIS/DSP/Source/FilteringFunctions/arm_lms_q15.c ****   @brief         Processing function for Q15 LMS filter.
  42:./Libraries/CMSIS/DSP/Source/FilteringFunctions/arm_lms_q15.c ****   @param[in]     S         points to an instance of the Q15 LMS filter structure
  43:./Libraries/CMSIS/DSP/Source/FilteringFunctions/arm_lms_q15.c ****   @param[in]     pSrc      points to the block of input data
  44:./Libraries/CMSIS/DSP/Source/FilteringFunctions/arm_lms_q15.c ****   @param[in]     pRef      points to the block of reference data
  45:./Libraries/CMSIS/DSP/Source/FilteringFunctions/arm_lms_q15.c ****   @param[out]    pOut      points to the block of output data
  46:./Libraries/CMSIS/DSP/Source/FilteringFunctions/arm_lms_q15.c ****   @param[out]    pErr      points to the block of error data
  47:./Libraries/CMSIS/DSP/Source/FilteringFunctions/arm_lms_q15.c ****   @param[in]     blockSize number of samples to process
  48:./Libraries/CMSIS/DSP/Source/FilteringFunctions/arm_lms_q15.c ****   @return        none
  49:./Libraries/CMSIS/DSP/Source/FilteringFunctions/arm_lms_q15.c **** 
  50:./Libraries/CMSIS/DSP/Source/FilteringFunctions/arm_lms_q15.c ****   @par           Scaling and Overflow Behavior
  51:./Libraries/CMSIS/DSP/Source/FilteringFunctions/arm_lms_q15.c ****                    The function is implemented using an internal 64-bit accumulator.
  52:./Libraries/CMSIS/DSP/Source/FilteringFunctions/arm_lms_q15.c ****                    Both coefficients and state variables are represented in 1.15 format and multipl
  53:./Libraries/CMSIS/DSP/Source/FilteringFunctions/arm_lms_q15.c ****                    The 2.30 intermediate results are accumulated in a 64-bit accumulator in 34.30 f
  54:./Libraries/CMSIS/DSP/Source/FilteringFunctions/arm_lms_q15.c ****                    There is no risk of internal overflow with this approach and the full precision 
  55:./Libraries/CMSIS/DSP/Source/FilteringFunctions/arm_lms_q15.c ****                    After all additions have been performed, the accumulator is truncated to 34.15 f
  56:./Libraries/CMSIS/DSP/Source/FilteringFunctions/arm_lms_q15.c ****                    Lastly, the accumulator is saturated to yield a result in 1.15 format.
  57:./Libraries/CMSIS/DSP/Source/FilteringFunctions/arm_lms_q15.c ****   @par
  58:./Libraries/CMSIS/DSP/Source/FilteringFunctions/arm_lms_q15.c ****                    In this filter, filter coefficients are updated for each sample and
  59:./Libraries/CMSIS/DSP/Source/FilteringFunctions/arm_lms_q15.c ****                    the updation of filter cofficients are saturted.
  60:./Libraries/CMSIS/DSP/Source/FilteringFunctions/arm_lms_q15.c ****  */
  61:./Libraries/CMSIS/DSP/Source/FilteringFunctions/arm_lms_q15.c **** 
  62:./Libraries/CMSIS/DSP/Source/FilteringFunctions/arm_lms_q15.c **** void arm_lms_q15(
  63:./Libraries/CMSIS/DSP/Source/FilteringFunctions/arm_lms_q15.c ****   const arm_lms_instance_q15 * S,
  64:./Libraries/CMSIS/DSP/Source/FilteringFunctions/arm_lms_q15.c ****   const q15_t * pSrc,
  65:./Libraries/CMSIS/DSP/Source/FilteringFunctions/arm_lms_q15.c ****         q15_t * pRef,
  66:./Libraries/CMSIS/DSP/Source/FilteringFunctions/arm_lms_q15.c ****         q15_t * pOut,
  67:./Libraries/CMSIS/DSP/Source/FilteringFunctions/arm_lms_q15.c ****         q15_t * pErr,
  68:./Libraries/CMSIS/DSP/Source/FilteringFunctions/arm_lms_q15.c ****         uint32_t blockSize)
  69:./Libraries/CMSIS/DSP/Source/FilteringFunctions/arm_lms_q15.c **** {
  28              		.loc 1 69 1
  29              		.cfi_startproc
  30              		@ args = 8, pretend = 0, frame = 104
  31              		@ frame_needed = 1, uses_anonymous_args = 0
  32              		@ link register save eliminated.
  33 0000 B0B4     		push	{r4, r5, r7}
  34              	.LCFI0:
  35              		.cfi_def_cfa_offset 12
  36              		.cfi_offset 4, -12
  37              		.cfi_offset 5, -8
  38              		.cfi_offset 7, -4
  39 0002 9BB0     		sub	sp, sp, #108
  40              	.LCFI1:
  41              		.cfi_def_cfa_offset 120
  42 0004 00AF     		add	r7, sp, #0
  43              	.LCFI2:
  44              		.cfi_def_cfa_register 7
  45 0006 F860     		str	r0, [r7, #12]
  46 0008 B960     		str	r1, [r7, #8]
ARM GAS  /tmp/ccu5cNcn.s 			page 3


  47 000a 7A60     		str	r2, [r7, #4]
  48 000c 3B60     		str	r3, [r7]
  70:./Libraries/CMSIS/DSP/Source/FilteringFunctions/arm_lms_q15.c ****         q15_t *pState = S->pState;                     /* State pointer */
  49              		.loc 1 70 16
  50 000e FB68     		ldr	r3, [r7, #12]
  51 0010 5B68     		ldr	r3, [r3, #4]
  52 0012 7B66     		str	r3, [r7, #100]
  71:./Libraries/CMSIS/DSP/Source/FilteringFunctions/arm_lms_q15.c ****         q15_t *pCoeffs = S->pCoeffs;                   /* Coefficient pointer */
  53              		.loc 1 71 16
  54 0014 FB68     		ldr	r3, [r7, #12]
  55 0016 9B68     		ldr	r3, [r3, #8]
  56 0018 7B64     		str	r3, [r7, #68]
  72:./Libraries/CMSIS/DSP/Source/FilteringFunctions/arm_lms_q15.c ****         q15_t *pStateCurnt;                            /* Points to the current sample of the state
  73:./Libraries/CMSIS/DSP/Source/FilteringFunctions/arm_lms_q15.c ****         q15_t *px, *pb;                                /* Temporary pointers for state and coeffici
  74:./Libraries/CMSIS/DSP/Source/FilteringFunctions/arm_lms_q15.c ****         q15_t mu = S->mu;                              /* Adaptive factor */
  57              		.loc 1 74 15
  58 001a FB68     		ldr	r3, [r7, #12]
  59 001c 9B89     		ldrh	r3, [r3, #12]	@ movhi
  60 001e A7F84230 		strh	r3, [r7, #66]	@ movhi
  75:./Libraries/CMSIS/DSP/Source/FilteringFunctions/arm_lms_q15.c ****         uint32_t numTaps = S->numTaps;                 /* Number of filter coefficients in the filt
  61              		.loc 1 75 29
  62 0022 FB68     		ldr	r3, [r7, #12]
  63 0024 1B88     		ldrh	r3, [r3]
  64              		.loc 1 75 18
  65 0026 FB63     		str	r3, [r7, #60]
  76:./Libraries/CMSIS/DSP/Source/FilteringFunctions/arm_lms_q15.c ****         uint32_t tapCnt, blkCnt;                       /* Loop counters */
  77:./Libraries/CMSIS/DSP/Source/FilteringFunctions/arm_lms_q15.c ****         q63_t acc;                                     /* Accumulator */
  78:./Libraries/CMSIS/DSP/Source/FilteringFunctions/arm_lms_q15.c ****         q15_t e = 0;                                   /* Error of data sample */
  66              		.loc 1 78 15
  67 0028 0023     		movs	r3, #0
  68 002a 7B87     		strh	r3, [r7, #58]	@ movhi
  79:./Libraries/CMSIS/DSP/Source/FilteringFunctions/arm_lms_q15.c ****         q15_t alpha;                                   /* Intermediate constant for taps update */
  80:./Libraries/CMSIS/DSP/Source/FilteringFunctions/arm_lms_q15.c ****         q31_t coef;                                    /* Temporary variable for coefficient */
  81:./Libraries/CMSIS/DSP/Source/FilteringFunctions/arm_lms_q15.c ****         q31_t acc_l, acc_h;                            /* Temporary input */
  82:./Libraries/CMSIS/DSP/Source/FilteringFunctions/arm_lms_q15.c ****         int32_t lShift = (15 - (int32_t) S->postShift);       /*  Post shift  */
  69              		.loc 1 82 43
  70 002c FB68     		ldr	r3, [r7, #12]
  71 002e 1B69     		ldr	r3, [r3, #16]
  72              		.loc 1 82 17
  73 0030 C3F10F03 		rsb	r3, r3, #15
  74 0034 7B63     		str	r3, [r7, #52]
  83:./Libraries/CMSIS/DSP/Source/FilteringFunctions/arm_lms_q15.c ****         int32_t uShift = (32 - lShift);
  75              		.loc 1 83 17
  76 0036 7B6B     		ldr	r3, [r7, #52]
  77 0038 C3F12003 		rsb	r3, r3, #32
  78 003c 3B63     		str	r3, [r7, #48]
  84:./Libraries/CMSIS/DSP/Source/FilteringFunctions/arm_lms_q15.c **** 
  85:./Libraries/CMSIS/DSP/Source/FilteringFunctions/arm_lms_q15.c ****   /* S->pState points to buffer which contains previous frame (numTaps - 1) samples */
  86:./Libraries/CMSIS/DSP/Source/FilteringFunctions/arm_lms_q15.c ****   /* pStateCurnt points to the location where the new input data should be written */
  87:./Libraries/CMSIS/DSP/Source/FilteringFunctions/arm_lms_q15.c ****   pStateCurnt = &(S->pState[(numTaps - 1U)]);
  79              		.loc 1 87 20
  80 003e FB68     		ldr	r3, [r7, #12]
  81 0040 5A68     		ldr	r2, [r3, #4]
  82              		.loc 1 87 28
  83 0042 F96B     		ldr	r1, [r7, #60]
  84 0044 6FF00043 		mvn	r3, #-2147483648
  85 0048 0B44     		add	r3, r3, r1
ARM GAS  /tmp/ccu5cNcn.s 			page 4


  86 004a 5B00     		lsls	r3, r3, #1
  87              		.loc 1 87 15
  88 004c 1344     		add	r3, r3, r2
  89 004e 3B66     		str	r3, [r7, #96]
  88:./Libraries/CMSIS/DSP/Source/FilteringFunctions/arm_lms_q15.c **** 
  89:./Libraries/CMSIS/DSP/Source/FilteringFunctions/arm_lms_q15.c ****   /* initialise loop count */
  90:./Libraries/CMSIS/DSP/Source/FilteringFunctions/arm_lms_q15.c ****   blkCnt = blockSize;
  90              		.loc 1 90 10
  91 0050 FB6F     		ldr	r3, [r7, #124]
  92 0052 3B65     		str	r3, [r7, #80]
  91:./Libraries/CMSIS/DSP/Source/FilteringFunctions/arm_lms_q15.c **** 
  92:./Libraries/CMSIS/DSP/Source/FilteringFunctions/arm_lms_q15.c ****   while (blkCnt > 0U)
  93              		.loc 1 92 9
  94 0054 A4E0     		b	.L2
  95              	.L7:
  93:./Libraries/CMSIS/DSP/Source/FilteringFunctions/arm_lms_q15.c ****   {
  94:./Libraries/CMSIS/DSP/Source/FilteringFunctions/arm_lms_q15.c ****     /* Copy the new input sample into the state buffer */
  95:./Libraries/CMSIS/DSP/Source/FilteringFunctions/arm_lms_q15.c ****     *pStateCurnt++ = *pSrc++;
  96              		.loc 1 95 27
  97 0056 BA68     		ldr	r2, [r7, #8]
  98 0058 931C     		adds	r3, r2, #2
  99 005a BB60     		str	r3, [r7, #8]
 100              		.loc 1 95 17
 101 005c 3B6E     		ldr	r3, [r7, #96]
 102 005e 991C     		adds	r1, r3, #2
 103 0060 3966     		str	r1, [r7, #96]
 104              		.loc 1 95 22
 105 0062 B2F90020 		ldrsh	r2, [r2]
 106              		.loc 1 95 20
 107 0066 1A80     		strh	r2, [r3]	@ movhi
  96:./Libraries/CMSIS/DSP/Source/FilteringFunctions/arm_lms_q15.c **** 
  97:./Libraries/CMSIS/DSP/Source/FilteringFunctions/arm_lms_q15.c ****     /* Initialize pState pointer */
  98:./Libraries/CMSIS/DSP/Source/FilteringFunctions/arm_lms_q15.c ****     px = pState;
 108              		.loc 1 98 8
 109 0068 7B6E     		ldr	r3, [r7, #100]
 110 006a FB65     		str	r3, [r7, #92]
  99:./Libraries/CMSIS/DSP/Source/FilteringFunctions/arm_lms_q15.c **** 
 100:./Libraries/CMSIS/DSP/Source/FilteringFunctions/arm_lms_q15.c ****     /* Initialize coefficient pointer */
 101:./Libraries/CMSIS/DSP/Source/FilteringFunctions/arm_lms_q15.c ****     pb = pCoeffs;
 111              		.loc 1 101 8
 112 006c 7B6C     		ldr	r3, [r7, #68]
 113 006e BB65     		str	r3, [r7, #88]
 102:./Libraries/CMSIS/DSP/Source/FilteringFunctions/arm_lms_q15.c **** 
 103:./Libraries/CMSIS/DSP/Source/FilteringFunctions/arm_lms_q15.c ****     /* Set the accumulator to zero */
 104:./Libraries/CMSIS/DSP/Source/FilteringFunctions/arm_lms_q15.c ****     acc = 0;
 114              		.loc 1 104 9
 115 0070 4FF00002 		mov	r2, #0
 116 0074 4FF00003 		mov	r3, #0
 117 0078 C7E91223 		strd	r2, [r7, #72]
 105:./Libraries/CMSIS/DSP/Source/FilteringFunctions/arm_lms_q15.c **** 
 106:./Libraries/CMSIS/DSP/Source/FilteringFunctions/arm_lms_q15.c **** #if defined (ARM_MATH_LOOPUNROLL)
 107:./Libraries/CMSIS/DSP/Source/FilteringFunctions/arm_lms_q15.c **** 
 108:./Libraries/CMSIS/DSP/Source/FilteringFunctions/arm_lms_q15.c ****     /* Loop unrolling: Compute 4 taps at a time. */
 109:./Libraries/CMSIS/DSP/Source/FilteringFunctions/arm_lms_q15.c ****     tapCnt = numTaps >> 2U;
 110:./Libraries/CMSIS/DSP/Source/FilteringFunctions/arm_lms_q15.c **** 
 111:./Libraries/CMSIS/DSP/Source/FilteringFunctions/arm_lms_q15.c ****     while (tapCnt > 0U)
 112:./Libraries/CMSIS/DSP/Source/FilteringFunctions/arm_lms_q15.c ****     {
ARM GAS  /tmp/ccu5cNcn.s 			page 5


 113:./Libraries/CMSIS/DSP/Source/FilteringFunctions/arm_lms_q15.c ****       /* Perform the multiply-accumulate */
 114:./Libraries/CMSIS/DSP/Source/FilteringFunctions/arm_lms_q15.c ****       /* acc +=  b[N] * x[n-N] + b[N-1] * x[n-N-1] */
 115:./Libraries/CMSIS/DSP/Source/FilteringFunctions/arm_lms_q15.c ****       acc = __SMLALD(read_q15x2_ia (&px), read_q15x2_ia (&pb), acc);
 116:./Libraries/CMSIS/DSP/Source/FilteringFunctions/arm_lms_q15.c ****       acc = __SMLALD(read_q15x2_ia (&px), read_q15x2_ia (&pb), acc);
 117:./Libraries/CMSIS/DSP/Source/FilteringFunctions/arm_lms_q15.c **** 
 118:./Libraries/CMSIS/DSP/Source/FilteringFunctions/arm_lms_q15.c ****       /* Decrement loop counter */
 119:./Libraries/CMSIS/DSP/Source/FilteringFunctions/arm_lms_q15.c ****       tapCnt--;
 120:./Libraries/CMSIS/DSP/Source/FilteringFunctions/arm_lms_q15.c ****     }
 121:./Libraries/CMSIS/DSP/Source/FilteringFunctions/arm_lms_q15.c **** 
 122:./Libraries/CMSIS/DSP/Source/FilteringFunctions/arm_lms_q15.c ****     /* Loop unrolling: Compute remaining taps */
 123:./Libraries/CMSIS/DSP/Source/FilteringFunctions/arm_lms_q15.c ****     tapCnt = numTaps % 0x4U;
 124:./Libraries/CMSIS/DSP/Source/FilteringFunctions/arm_lms_q15.c **** 
 125:./Libraries/CMSIS/DSP/Source/FilteringFunctions/arm_lms_q15.c **** #else
 126:./Libraries/CMSIS/DSP/Source/FilteringFunctions/arm_lms_q15.c **** 
 127:./Libraries/CMSIS/DSP/Source/FilteringFunctions/arm_lms_q15.c ****     /* Initialize tapCnt with number of samples */
 128:./Libraries/CMSIS/DSP/Source/FilteringFunctions/arm_lms_q15.c ****     tapCnt = numTaps;
 118              		.loc 1 128 12
 119 007c FB6B     		ldr	r3, [r7, #60]
 120 007e 7B65     		str	r3, [r7, #84]
 129:./Libraries/CMSIS/DSP/Source/FilteringFunctions/arm_lms_q15.c **** 
 130:./Libraries/CMSIS/DSP/Source/FilteringFunctions/arm_lms_q15.c **** #endif /* #if defined (ARM_MATH_LOOPUNROLL) */
 131:./Libraries/CMSIS/DSP/Source/FilteringFunctions/arm_lms_q15.c **** 
 132:./Libraries/CMSIS/DSP/Source/FilteringFunctions/arm_lms_q15.c ****     while (tapCnt > 0U)
 121              		.loc 1 132 11
 122 0080 19E0     		b	.L3
 123              	.L4:
 133:./Libraries/CMSIS/DSP/Source/FilteringFunctions/arm_lms_q15.c ****     {
 134:./Libraries/CMSIS/DSP/Source/FilteringFunctions/arm_lms_q15.c ****       /* Perform the multiply-accumulate */
 135:./Libraries/CMSIS/DSP/Source/FilteringFunctions/arm_lms_q15.c ****       acc += (q63_t) (((q31_t) (*px++) * (*pb++)));
 124              		.loc 1 135 36
 125 0082 FB6D     		ldr	r3, [r7, #92]
 126 0084 9A1C     		adds	r2, r3, #2
 127 0086 FA65     		str	r2, [r7, #92]
 128              		.loc 1 135 33
 129 0088 B3F90030 		ldrsh	r3, [r3]
 130              		.loc 1 135 24
 131 008c 1946     		mov	r1, r3
 132              		.loc 1 135 46
 133 008e BB6D     		ldr	r3, [r7, #88]
 134 0090 9A1C     		adds	r2, r3, #2
 135 0092 BA65     		str	r2, [r7, #88]
 136              		.loc 1 135 43
 137 0094 B3F90030 		ldrsh	r3, [r3]
 138              		.loc 1 135 40
 139 0098 03FB01F3 		mul	r3, r3, r1
 140              		.loc 1 135 14
 141 009c 1A46     		mov	r2, r3
 142 009e 4FEAE273 		asr	r3, r2, #31
 143              		.loc 1 135 11
 144 00a2 D7E91201 		ldrd	r0, [r7, #72]
 145 00a6 8418     		adds	r4, r0, r2
 146 00a8 41EB0305 		adc	r5, r1, r3
 147 00ac C7E91245 		strd	r4, [r7, #72]
 136:./Libraries/CMSIS/DSP/Source/FilteringFunctions/arm_lms_q15.c **** 
 137:./Libraries/CMSIS/DSP/Source/FilteringFunctions/arm_lms_q15.c ****       /* Decrement the loop counter */
 138:./Libraries/CMSIS/DSP/Source/FilteringFunctions/arm_lms_q15.c ****       tapCnt--;
 148              		.loc 1 138 13
ARM GAS  /tmp/ccu5cNcn.s 			page 6


 149 00b0 7B6D     		ldr	r3, [r7, #84]
 150 00b2 013B     		subs	r3, r3, #1
 151 00b4 7B65     		str	r3, [r7, #84]
 152              	.L3:
 132:./Libraries/CMSIS/DSP/Source/FilteringFunctions/arm_lms_q15.c ****     {
 153              		.loc 1 132 11
 154 00b6 7B6D     		ldr	r3, [r7, #84]
 155 00b8 002B     		cmp	r3, #0
 156 00ba E2D1     		bne	.L4
 139:./Libraries/CMSIS/DSP/Source/FilteringFunctions/arm_lms_q15.c ****     }
 140:./Libraries/CMSIS/DSP/Source/FilteringFunctions/arm_lms_q15.c **** 
 141:./Libraries/CMSIS/DSP/Source/FilteringFunctions/arm_lms_q15.c ****     /* Calc lower part of acc */
 142:./Libraries/CMSIS/DSP/Source/FilteringFunctions/arm_lms_q15.c ****     acc_l = acc & 0xffffffff;
 157              		.loc 1 142 11
 158 00bc BB6C     		ldr	r3, [r7, #72]
 159 00be FB62     		str	r3, [r7, #44]
 143:./Libraries/CMSIS/DSP/Source/FilteringFunctions/arm_lms_q15.c **** 
 144:./Libraries/CMSIS/DSP/Source/FilteringFunctions/arm_lms_q15.c ****     /* Calc upper part of acc */
 145:./Libraries/CMSIS/DSP/Source/FilteringFunctions/arm_lms_q15.c ****     acc_h = (acc >> 32) & 0xffffffff;
 160              		.loc 1 145 25
 161 00c0 D7E91201 		ldrd	r0, [r7, #72]
 162 00c4 4FF00002 		mov	r2, #0
 163 00c8 4FF00003 		mov	r3, #0
 164 00cc 0A00     		movs	r2, r1
 165 00ce 0023     		movs	r3, #0
 166              		.loc 1 145 11
 167 00d0 1346     		mov	r3, r2
 168 00d2 BB62     		str	r3, [r7, #40]
 146:./Libraries/CMSIS/DSP/Source/FilteringFunctions/arm_lms_q15.c **** 
 147:./Libraries/CMSIS/DSP/Source/FilteringFunctions/arm_lms_q15.c ****     /* Apply shift for lower part of acc and upper part of acc */
 148:./Libraries/CMSIS/DSP/Source/FilteringFunctions/arm_lms_q15.c ****     acc = (uint32_t) acc_l >> lShift | acc_h << uShift;
 169              		.loc 1 148 11
 170 00d4 FA6A     		ldr	r2, [r7, #44]
 171              		.loc 1 148 28
 172 00d6 7B6B     		ldr	r3, [r7, #52]
 173 00d8 22FA03F3 		lsr	r3, r2, r3
 174              		.loc 1 148 46
 175 00dc B96A     		ldr	r1, [r7, #40]
 176 00de 3A6B     		ldr	r2, [r7, #48]
 177 00e0 01FA02F2 		lsl	r2, r1, r2
 178              		.loc 1 148 38
 179 00e4 1343     		orrs	r3, r3, r2
 180              		.loc 1 148 9
 181 00e6 1A46     		mov	r2, r3
 182 00e8 4FF00003 		mov	r3, #0
 183 00ec C7E91223 		strd	r2, [r7, #72]
 184              	.LBB2:
 149:./Libraries/CMSIS/DSP/Source/FilteringFunctions/arm_lms_q15.c **** 
 150:./Libraries/CMSIS/DSP/Source/FilteringFunctions/arm_lms_q15.c ****     /* Converting the result to 1.15 format and saturate the output */
 151:./Libraries/CMSIS/DSP/Source/FilteringFunctions/arm_lms_q15.c ****     acc = __SSAT(acc, 16U);
 185              		.loc 1 151 11
 186 00f0 BB6C     		ldr	r3, [r7, #72]
 187 00f2 7B62     		str	r3, [r7, #36]
 188 00f4 7B6A     		ldr	r3, [r7, #36]
 189              		.syntax unified
 190              	@ 151 "./Libraries/CMSIS/DSP/Source/FilteringFunctions/arm_lms_q15.c" 1
 191 00f6 03F30F03 		ssat r3, #16, r3
ARM GAS  /tmp/ccu5cNcn.s 			page 7


 192              	@ 0 "" 2
 193              		.thumb
 194              		.syntax unified
 195 00fa 3B62     		str	r3, [r7, #32]
 196 00fc 3B6A     		ldr	r3, [r7, #32]
 197              	.LBE2:
 198              		.loc 1 151 9
 199 00fe 1A46     		mov	r2, r3
 200 0100 4FEAE273 		asr	r3, r2, #31
 201 0104 C7E91223 		strd	r2, [r7, #72]
 152:./Libraries/CMSIS/DSP/Source/FilteringFunctions/arm_lms_q15.c **** 
 153:./Libraries/CMSIS/DSP/Source/FilteringFunctions/arm_lms_q15.c ****     /* Store the result from accumulator into the destination buffer. */
 154:./Libraries/CMSIS/DSP/Source/FilteringFunctions/arm_lms_q15.c ****     *pOut++ = (q15_t) acc;
 202              		.loc 1 154 10
 203 0108 3B68     		ldr	r3, [r7]
 204 010a 9A1C     		adds	r2, r3, #2
 205 010c 3A60     		str	r2, [r7]
 206              		.loc 1 154 15
 207 010e B7F94820 		ldrsh	r2, [r7, #72]
 208              		.loc 1 154 13
 209 0112 1A80     		strh	r2, [r3]	@ movhi
 155:./Libraries/CMSIS/DSP/Source/FilteringFunctions/arm_lms_q15.c **** 
 156:./Libraries/CMSIS/DSP/Source/FilteringFunctions/arm_lms_q15.c ****     /* Compute and store error */
 157:./Libraries/CMSIS/DSP/Source/FilteringFunctions/arm_lms_q15.c ****     e = *pRef++ - (q15_t) acc;
 210              		.loc 1 157 14
 211 0114 7B68     		ldr	r3, [r7, #4]
 212 0116 9A1C     		adds	r2, r3, #2
 213 0118 7A60     		str	r2, [r7, #4]
 214              		.loc 1 157 9
 215 011a B3F90030 		ldrsh	r3, [r3]
 216 011e 9AB2     		uxth	r2, r3
 217              		.loc 1 157 19
 218 0120 B7F84830 		ldrh	r3, [r7, #72]
 219              		.loc 1 157 17
 220 0124 D31A     		subs	r3, r2, r3
 221 0126 9BB2     		uxth	r3, r3
 222              		.loc 1 157 7
 223 0128 7B87     		strh	r3, [r7, #58]	@ movhi
 158:./Libraries/CMSIS/DSP/Source/FilteringFunctions/arm_lms_q15.c ****     *pErr++ = (q15_t) e;
 224              		.loc 1 158 10
 225 012a BB6F     		ldr	r3, [r7, #120]
 226 012c 9A1C     		adds	r2, r3, #2
 227 012e BA67     		str	r2, [r7, #120]
 228              		.loc 1 158 13
 229 0130 7A8F     		ldrh	r2, [r7, #58]	@ movhi
 230 0132 1A80     		strh	r2, [r3]	@ movhi
 159:./Libraries/CMSIS/DSP/Source/FilteringFunctions/arm_lms_q15.c **** 
 160:./Libraries/CMSIS/DSP/Source/FilteringFunctions/arm_lms_q15.c ****     /* Compute alpha i.e. intermediate constant for taps update */
 161:./Libraries/CMSIS/DSP/Source/FilteringFunctions/arm_lms_q15.c ****     alpha = (q15_t) (((q31_t) e * (mu)) >> 15);
 231              		.loc 1 161 23
 232 0134 B7F93A30 		ldrsh	r3, [r7, #58]
 233              		.loc 1 161 33
 234 0138 B7F94220 		ldrsh	r2, [r7, #66]
 235 013c 02FB03F3 		mul	r3, r2, r3
 236              		.loc 1 161 41
 237 0140 DB13     		asrs	r3, r3, #15
 238              		.loc 1 161 11
ARM GAS  /tmp/ccu5cNcn.s 			page 8


 239 0142 FB83     		strh	r3, [r7, #30]	@ movhi
 162:./Libraries/CMSIS/DSP/Source/FilteringFunctions/arm_lms_q15.c **** 
 163:./Libraries/CMSIS/DSP/Source/FilteringFunctions/arm_lms_q15.c ****     /* Initialize pState pointer */
 164:./Libraries/CMSIS/DSP/Source/FilteringFunctions/arm_lms_q15.c ****     /* Advance state pointer by 1 for the next sample */
 165:./Libraries/CMSIS/DSP/Source/FilteringFunctions/arm_lms_q15.c ****     px = pState++;
 240              		.loc 1 165 16
 241 0144 7B6E     		ldr	r3, [r7, #100]
 242 0146 9A1C     		adds	r2, r3, #2
 243 0148 7A66     		str	r2, [r7, #100]
 244              		.loc 1 165 8
 245 014a FB65     		str	r3, [r7, #92]
 166:./Libraries/CMSIS/DSP/Source/FilteringFunctions/arm_lms_q15.c **** 
 167:./Libraries/CMSIS/DSP/Source/FilteringFunctions/arm_lms_q15.c ****     /* Initialize coefficient pointer */
 168:./Libraries/CMSIS/DSP/Source/FilteringFunctions/arm_lms_q15.c ****     pb = pCoeffs;
 246              		.loc 1 168 8
 247 014c 7B6C     		ldr	r3, [r7, #68]
 248 014e BB65     		str	r3, [r7, #88]
 169:./Libraries/CMSIS/DSP/Source/FilteringFunctions/arm_lms_q15.c **** 
 170:./Libraries/CMSIS/DSP/Source/FilteringFunctions/arm_lms_q15.c **** #if defined (ARM_MATH_LOOPUNROLL)
 171:./Libraries/CMSIS/DSP/Source/FilteringFunctions/arm_lms_q15.c **** 
 172:./Libraries/CMSIS/DSP/Source/FilteringFunctions/arm_lms_q15.c ****     /* Loop unrolling: Compute 4 taps at a time. */
 173:./Libraries/CMSIS/DSP/Source/FilteringFunctions/arm_lms_q15.c ****     tapCnt = numTaps >> 2U;
 174:./Libraries/CMSIS/DSP/Source/FilteringFunctions/arm_lms_q15.c **** 
 175:./Libraries/CMSIS/DSP/Source/FilteringFunctions/arm_lms_q15.c ****     /* Update filter coefficients */
 176:./Libraries/CMSIS/DSP/Source/FilteringFunctions/arm_lms_q15.c ****     while (tapCnt > 0U)
 177:./Libraries/CMSIS/DSP/Source/FilteringFunctions/arm_lms_q15.c ****     {
 178:./Libraries/CMSIS/DSP/Source/FilteringFunctions/arm_lms_q15.c ****       coef = (q31_t) *pb + (((q31_t) alpha * (*px++)) >> 15);
 179:./Libraries/CMSIS/DSP/Source/FilteringFunctions/arm_lms_q15.c ****       *pb++ = (q15_t) __SSAT((coef), 16);
 180:./Libraries/CMSIS/DSP/Source/FilteringFunctions/arm_lms_q15.c **** 
 181:./Libraries/CMSIS/DSP/Source/FilteringFunctions/arm_lms_q15.c ****       coef = (q31_t) *pb + (((q31_t) alpha * (*px++)) >> 15);
 182:./Libraries/CMSIS/DSP/Source/FilteringFunctions/arm_lms_q15.c ****       *pb++ = (q15_t) __SSAT((coef), 16);
 183:./Libraries/CMSIS/DSP/Source/FilteringFunctions/arm_lms_q15.c **** 
 184:./Libraries/CMSIS/DSP/Source/FilteringFunctions/arm_lms_q15.c ****       coef = (q31_t) *pb + (((q31_t) alpha * (*px++)) >> 15);
 185:./Libraries/CMSIS/DSP/Source/FilteringFunctions/arm_lms_q15.c ****       *pb++ = (q15_t) __SSAT((coef), 16);
 186:./Libraries/CMSIS/DSP/Source/FilteringFunctions/arm_lms_q15.c **** 
 187:./Libraries/CMSIS/DSP/Source/FilteringFunctions/arm_lms_q15.c ****       coef = (q31_t) *pb + (((q31_t) alpha * (*px++)) >> 15);
 188:./Libraries/CMSIS/DSP/Source/FilteringFunctions/arm_lms_q15.c ****       *pb++ = (q15_t) __SSAT((coef), 16);
 189:./Libraries/CMSIS/DSP/Source/FilteringFunctions/arm_lms_q15.c **** 
 190:./Libraries/CMSIS/DSP/Source/FilteringFunctions/arm_lms_q15.c ****       /* Decrement loop counter */
 191:./Libraries/CMSIS/DSP/Source/FilteringFunctions/arm_lms_q15.c ****       tapCnt--;
 192:./Libraries/CMSIS/DSP/Source/FilteringFunctions/arm_lms_q15.c ****     }
 193:./Libraries/CMSIS/DSP/Source/FilteringFunctions/arm_lms_q15.c **** 
 194:./Libraries/CMSIS/DSP/Source/FilteringFunctions/arm_lms_q15.c ****     /* Loop unrolling: Compute remaining taps */
 195:./Libraries/CMSIS/DSP/Source/FilteringFunctions/arm_lms_q15.c ****     tapCnt = numTaps % 0x4U;
 196:./Libraries/CMSIS/DSP/Source/FilteringFunctions/arm_lms_q15.c **** 
 197:./Libraries/CMSIS/DSP/Source/FilteringFunctions/arm_lms_q15.c **** #else
 198:./Libraries/CMSIS/DSP/Source/FilteringFunctions/arm_lms_q15.c **** 
 199:./Libraries/CMSIS/DSP/Source/FilteringFunctions/arm_lms_q15.c ****     /* Initialize tapCnt with number of samples */
 200:./Libraries/CMSIS/DSP/Source/FilteringFunctions/arm_lms_q15.c ****     tapCnt = numTaps;
 249              		.loc 1 200 12
 250 0150 FB6B     		ldr	r3, [r7, #60]
 251 0152 7B65     		str	r3, [r7, #84]
 201:./Libraries/CMSIS/DSP/Source/FilteringFunctions/arm_lms_q15.c **** 
 202:./Libraries/CMSIS/DSP/Source/FilteringFunctions/arm_lms_q15.c **** #endif /* #if defined (ARM_MATH_LOOPUNROLL) */
 203:./Libraries/CMSIS/DSP/Source/FilteringFunctions/arm_lms_q15.c **** 
 204:./Libraries/CMSIS/DSP/Source/FilteringFunctions/arm_lms_q15.c ****     while (tapCnt > 0U)
 252              		.loc 1 204 11
ARM GAS  /tmp/ccu5cNcn.s 			page 9


 253 0154 1EE0     		b	.L5
 254              	.L6:
 205:./Libraries/CMSIS/DSP/Source/FilteringFunctions/arm_lms_q15.c ****     {
 206:./Libraries/CMSIS/DSP/Source/FilteringFunctions/arm_lms_q15.c ****       /* Perform the multiply-accumulate */
 207:./Libraries/CMSIS/DSP/Source/FilteringFunctions/arm_lms_q15.c ****       coef = (q31_t) *pb + (((q31_t) alpha * (*px++)) >> 15);
 255              		.loc 1 207 22
 256 0156 BB6D     		ldr	r3, [r7, #88]
 257 0158 B3F90030 		ldrsh	r3, [r3]
 258              		.loc 1 207 14
 259 015c 1846     		mov	r0, r3
 260              		.loc 1 207 30
 261 015e B7F91E20 		ldrsh	r2, [r7, #30]
 262              		.loc 1 207 50
 263 0162 FB6D     		ldr	r3, [r7, #92]
 264 0164 991C     		adds	r1, r3, #2
 265 0166 F965     		str	r1, [r7, #92]
 266              		.loc 1 207 47
 267 0168 B3F90030 		ldrsh	r3, [r3]
 268              		.loc 1 207 44
 269 016c 03FB02F3 		mul	r3, r3, r2
 270              		.loc 1 207 55
 271 0170 DB13     		asrs	r3, r3, #15
 272              		.loc 1 207 12
 273 0172 0344     		add	r3, r3, r0
 274 0174 BB61     		str	r3, [r7, #24]
 275              	.LBB3:
 208:./Libraries/CMSIS/DSP/Source/FilteringFunctions/arm_lms_q15.c ****       *pb++ = (q15_t) __SSAT((coef), 16);
 276              		.loc 1 208 23
 277 0176 BB69     		ldr	r3, [r7, #24]
 278 0178 7B61     		str	r3, [r7, #20]
 279 017a 7B69     		ldr	r3, [r7, #20]
 280              		.syntax unified
 281              	@ 208 "./Libraries/CMSIS/DSP/Source/FilteringFunctions/arm_lms_q15.c" 1
 282 017c 03F30F03 		ssat r3, #16, r3
 283              	@ 0 "" 2
 284              		.thumb
 285              		.syntax unified
 286 0180 3B61     		str	r3, [r7, #16]
 287 0182 3969     		ldr	r1, [r7, #16]
 288              	.LBE3:
 289              		.loc 1 208 10
 290 0184 BB6D     		ldr	r3, [r7, #88]
 291 0186 9A1C     		adds	r2, r3, #2
 292 0188 BA65     		str	r2, [r7, #88]
 293              		.loc 1 208 15
 294 018a 0AB2     		sxth	r2, r1
 295              		.loc 1 208 13
 296 018c 1A80     		strh	r2, [r3]	@ movhi
 209:./Libraries/CMSIS/DSP/Source/FilteringFunctions/arm_lms_q15.c **** 
 210:./Libraries/CMSIS/DSP/Source/FilteringFunctions/arm_lms_q15.c ****       /* Decrement loop counter */
 211:./Libraries/CMSIS/DSP/Source/FilteringFunctions/arm_lms_q15.c ****       tapCnt--;
 297              		.loc 1 211 13
 298 018e 7B6D     		ldr	r3, [r7, #84]
 299 0190 013B     		subs	r3, r3, #1
 300 0192 7B65     		str	r3, [r7, #84]
 301              	.L5:
 204:./Libraries/CMSIS/DSP/Source/FilteringFunctions/arm_lms_q15.c ****     {
ARM GAS  /tmp/ccu5cNcn.s 			page 10


 302              		.loc 1 204 11
 303 0194 7B6D     		ldr	r3, [r7, #84]
 304 0196 002B     		cmp	r3, #0
 305 0198 DDD1     		bne	.L6
 212:./Libraries/CMSIS/DSP/Source/FilteringFunctions/arm_lms_q15.c ****     }
 213:./Libraries/CMSIS/DSP/Source/FilteringFunctions/arm_lms_q15.c **** 
 214:./Libraries/CMSIS/DSP/Source/FilteringFunctions/arm_lms_q15.c ****     /* Decrement loop counter */
 215:./Libraries/CMSIS/DSP/Source/FilteringFunctions/arm_lms_q15.c ****     blkCnt--;
 306              		.loc 1 215 11
 307 019a 3B6D     		ldr	r3, [r7, #80]
 308 019c 013B     		subs	r3, r3, #1
 309 019e 3B65     		str	r3, [r7, #80]
 310              	.L2:
  92:./Libraries/CMSIS/DSP/Source/FilteringFunctions/arm_lms_q15.c ****   {
 311              		.loc 1 92 9
 312 01a0 3B6D     		ldr	r3, [r7, #80]
 313 01a2 002B     		cmp	r3, #0
 314 01a4 7FF457AF 		bne	.L7
 216:./Libraries/CMSIS/DSP/Source/FilteringFunctions/arm_lms_q15.c ****   }
 217:./Libraries/CMSIS/DSP/Source/FilteringFunctions/arm_lms_q15.c **** 
 218:./Libraries/CMSIS/DSP/Source/FilteringFunctions/arm_lms_q15.c ****   /* Processing is complete.
 219:./Libraries/CMSIS/DSP/Source/FilteringFunctions/arm_lms_q15.c ****      Now copy the last numTaps - 1 samples to the start of the state buffer.
 220:./Libraries/CMSIS/DSP/Source/FilteringFunctions/arm_lms_q15.c ****      This prepares the state buffer for the next function call. */
 221:./Libraries/CMSIS/DSP/Source/FilteringFunctions/arm_lms_q15.c **** 
 222:./Libraries/CMSIS/DSP/Source/FilteringFunctions/arm_lms_q15.c ****   /* Points to the start of the pState buffer */
 223:./Libraries/CMSIS/DSP/Source/FilteringFunctions/arm_lms_q15.c ****   pStateCurnt = S->pState;
 315              		.loc 1 223 15
 316 01a8 FB68     		ldr	r3, [r7, #12]
 317 01aa 5B68     		ldr	r3, [r3, #4]
 318 01ac 3B66     		str	r3, [r7, #96]
 224:./Libraries/CMSIS/DSP/Source/FilteringFunctions/arm_lms_q15.c **** 
 225:./Libraries/CMSIS/DSP/Source/FilteringFunctions/arm_lms_q15.c ****   /* copy data */
 226:./Libraries/CMSIS/DSP/Source/FilteringFunctions/arm_lms_q15.c **** #if defined (ARM_MATH_LOOPUNROLL)
 227:./Libraries/CMSIS/DSP/Source/FilteringFunctions/arm_lms_q15.c **** 
 228:./Libraries/CMSIS/DSP/Source/FilteringFunctions/arm_lms_q15.c ****   /* Loop unrolling: Compute 4 taps at a time. */
 229:./Libraries/CMSIS/DSP/Source/FilteringFunctions/arm_lms_q15.c ****   tapCnt = (numTaps - 1U) >> 2U;
 230:./Libraries/CMSIS/DSP/Source/FilteringFunctions/arm_lms_q15.c **** 
 231:./Libraries/CMSIS/DSP/Source/FilteringFunctions/arm_lms_q15.c ****   while (tapCnt > 0U)
 232:./Libraries/CMSIS/DSP/Source/FilteringFunctions/arm_lms_q15.c ****   {
 233:./Libraries/CMSIS/DSP/Source/FilteringFunctions/arm_lms_q15.c ****     write_q15x2_ia (&pStateCurnt, read_q15x2_ia (&pState));
 234:./Libraries/CMSIS/DSP/Source/FilteringFunctions/arm_lms_q15.c ****     write_q15x2_ia (&pStateCurnt, read_q15x2_ia (&pState));
 235:./Libraries/CMSIS/DSP/Source/FilteringFunctions/arm_lms_q15.c **** 
 236:./Libraries/CMSIS/DSP/Source/FilteringFunctions/arm_lms_q15.c ****     /* Decrement loop counter */
 237:./Libraries/CMSIS/DSP/Source/FilteringFunctions/arm_lms_q15.c ****     tapCnt--;
 238:./Libraries/CMSIS/DSP/Source/FilteringFunctions/arm_lms_q15.c ****   }
 239:./Libraries/CMSIS/DSP/Source/FilteringFunctions/arm_lms_q15.c **** 
 240:./Libraries/CMSIS/DSP/Source/FilteringFunctions/arm_lms_q15.c ****   /* Loop unrolling: Compute remaining taps */
 241:./Libraries/CMSIS/DSP/Source/FilteringFunctions/arm_lms_q15.c ****   tapCnt = (numTaps - 1U) % 0x4U;
 242:./Libraries/CMSIS/DSP/Source/FilteringFunctions/arm_lms_q15.c **** 
 243:./Libraries/CMSIS/DSP/Source/FilteringFunctions/arm_lms_q15.c **** #else
 244:./Libraries/CMSIS/DSP/Source/FilteringFunctions/arm_lms_q15.c **** 
 245:./Libraries/CMSIS/DSP/Source/FilteringFunctions/arm_lms_q15.c ****   /* Initialize tapCnt with number of samples */
 246:./Libraries/CMSIS/DSP/Source/FilteringFunctions/arm_lms_q15.c ****   tapCnt = (numTaps - 1U);
 319              		.loc 1 246 10
 320 01ae FB6B     		ldr	r3, [r7, #60]
 321 01b0 013B     		subs	r3, r3, #1
 322 01b2 7B65     		str	r3, [r7, #84]
ARM GAS  /tmp/ccu5cNcn.s 			page 11


 247:./Libraries/CMSIS/DSP/Source/FilteringFunctions/arm_lms_q15.c **** 
 248:./Libraries/CMSIS/DSP/Source/FilteringFunctions/arm_lms_q15.c **** #endif /* #if defined (ARM_MATH_LOOPUNROLL) */
 249:./Libraries/CMSIS/DSP/Source/FilteringFunctions/arm_lms_q15.c **** 
 250:./Libraries/CMSIS/DSP/Source/FilteringFunctions/arm_lms_q15.c ****   while (tapCnt > 0U)
 323              		.loc 1 250 9
 324 01b4 0BE0     		b	.L8
 325              	.L9:
 251:./Libraries/CMSIS/DSP/Source/FilteringFunctions/arm_lms_q15.c ****   {
 252:./Libraries/CMSIS/DSP/Source/FilteringFunctions/arm_lms_q15.c ****     *pStateCurnt++ = *pState++;
 326              		.loc 1 252 29
 327 01b6 7A6E     		ldr	r2, [r7, #100]
 328 01b8 931C     		adds	r3, r2, #2
 329 01ba 7B66     		str	r3, [r7, #100]
 330              		.loc 1 252 17
 331 01bc 3B6E     		ldr	r3, [r7, #96]
 332 01be 991C     		adds	r1, r3, #2
 333 01c0 3966     		str	r1, [r7, #96]
 334              		.loc 1 252 22
 335 01c2 B2F90020 		ldrsh	r2, [r2]
 336              		.loc 1 252 20
 337 01c6 1A80     		strh	r2, [r3]	@ movhi
 253:./Libraries/CMSIS/DSP/Source/FilteringFunctions/arm_lms_q15.c **** 
 254:./Libraries/CMSIS/DSP/Source/FilteringFunctions/arm_lms_q15.c ****     /* Decrement loop counter */
 255:./Libraries/CMSIS/DSP/Source/FilteringFunctions/arm_lms_q15.c ****     tapCnt--;
 338              		.loc 1 255 11
 339 01c8 7B6D     		ldr	r3, [r7, #84]
 340 01ca 013B     		subs	r3, r3, #1
 341 01cc 7B65     		str	r3, [r7, #84]
 342              	.L8:
 250:./Libraries/CMSIS/DSP/Source/FilteringFunctions/arm_lms_q15.c ****   {
 343              		.loc 1 250 9
 344 01ce 7B6D     		ldr	r3, [r7, #84]
 345 01d0 002B     		cmp	r3, #0
 346 01d2 F0D1     		bne	.L9
 256:./Libraries/CMSIS/DSP/Source/FilteringFunctions/arm_lms_q15.c ****   }
 257:./Libraries/CMSIS/DSP/Source/FilteringFunctions/arm_lms_q15.c **** 
 258:./Libraries/CMSIS/DSP/Source/FilteringFunctions/arm_lms_q15.c **** }
 347              		.loc 1 258 1
 348 01d4 00BF     		nop
 349 01d6 00BF     		nop
 350 01d8 6C37     		adds	r7, r7, #108
 351              	.LCFI3:
 352              		.cfi_def_cfa_offset 12
 353 01da BD46     		mov	sp, r7
 354              	.LCFI4:
 355              		.cfi_def_cfa_register 13
 356              		@ sp needed
 357 01dc B0BC     		pop	{r4, r5, r7}
 358              	.LCFI5:
 359              		.cfi_restore 7
 360              		.cfi_restore 5
 361              		.cfi_restore 4
 362              		.cfi_def_cfa_offset 0
 363 01de 7047     		bx	lr
 364              		.cfi_endproc
 365              	.LFE145:
 367              		.text
ARM GAS  /tmp/ccu5cNcn.s 			page 12


 368              	.Letext0:
 369              		.file 2 "/usr/lib/gcc/arm-none-eabi/9.2.1/include/stdint.h"
 370              		.file 3 "/usr/lib/gcc/arm-none-eabi/9.2.1/include/stddef.h"
 371              		.file 4 "/usr/include/newlib/sys/_types.h"
 372              		.file 5 "/usr/include/newlib/sys/reent.h"
 373              		.file 6 "/usr/include/newlib/sys/lock.h"
 374              		.file 7 "/usr/include/newlib/math.h"
 375              		.file 8 "./Libraries/CMSIS/DSP/Include/arm_math.h"
ARM GAS  /tmp/ccu5cNcn.s 			page 13

