ARM GAS  /tmp/cckRGVoG.s 			page 1


   1              		.cpu cortex-m7
   2              		.eabi_attribute 28, 1
   3              		.eabi_attribute 20, 1
   4              		.eabi_attribute 21, 1
   5              		.eabi_attribute 23, 3
   6              		.eabi_attribute 24, 1
   7              		.eabi_attribute 25, 1
   8              		.eabi_attribute 26, 1
   9              		.eabi_attribute 30, 6
  10              		.eabi_attribute 34, 1
  11              		.eabi_attribute 18, 4
  12              		.file	"arm_cfft_f32.c"
  13              		.text
  14              	.Ltext0:
  15              		.cfi_sections	.debug_frame
  16              		.section	.text.arm_cfft_radix8by2_f32,"ax",%progbits
  17              		.align	1
  18              		.global	arm_cfft_radix8by2_f32
  19              		.arch armv7e-m
  20              		.syntax unified
  21              		.thumb
  22              		.thumb_func
  23              		.fpu fpv5-d16
  25              	arm_cfft_radix8by2_f32:
  26              	.LFB145:
  27              		.file 1 "./Libraries/CMSIS/DSP/Source/TransformFunctions/arm_cfft_f32.c"
   1:./Libraries/CMSIS/DSP/Source/TransformFunctions/arm_cfft_f32.c **** /* ----------------------------------------------------------------------
   2:./Libraries/CMSIS/DSP/Source/TransformFunctions/arm_cfft_f32.c ****  * Project:      CMSIS DSP Library
   3:./Libraries/CMSIS/DSP/Source/TransformFunctions/arm_cfft_f32.c ****  * Title:        arm_cfft_f32.c
   4:./Libraries/CMSIS/DSP/Source/TransformFunctions/arm_cfft_f32.c ****  * Description:  Combined Radix Decimation in Frequency CFFT Floating point processing function
   5:./Libraries/CMSIS/DSP/Source/TransformFunctions/arm_cfft_f32.c ****  *
   6:./Libraries/CMSIS/DSP/Source/TransformFunctions/arm_cfft_f32.c ****  * $Date:        18. March 2019
   7:./Libraries/CMSIS/DSP/Source/TransformFunctions/arm_cfft_f32.c ****  * $Revision:    V1.6.0
   8:./Libraries/CMSIS/DSP/Source/TransformFunctions/arm_cfft_f32.c ****  *
   9:./Libraries/CMSIS/DSP/Source/TransformFunctions/arm_cfft_f32.c ****  * Target Processor: Cortex-M cores
  10:./Libraries/CMSIS/DSP/Source/TransformFunctions/arm_cfft_f32.c ****  * -------------------------------------------------------------------- */
  11:./Libraries/CMSIS/DSP/Source/TransformFunctions/arm_cfft_f32.c **** /*
  12:./Libraries/CMSIS/DSP/Source/TransformFunctions/arm_cfft_f32.c ****  * Copyright (C) 2010-2019 ARM Limited or its affiliates. All rights reserved.
  13:./Libraries/CMSIS/DSP/Source/TransformFunctions/arm_cfft_f32.c ****  *
  14:./Libraries/CMSIS/DSP/Source/TransformFunctions/arm_cfft_f32.c ****  * SPDX-License-Identifier: Apache-2.0
  15:./Libraries/CMSIS/DSP/Source/TransformFunctions/arm_cfft_f32.c ****  *
  16:./Libraries/CMSIS/DSP/Source/TransformFunctions/arm_cfft_f32.c ****  * Licensed under the Apache License, Version 2.0 (the License); you may
  17:./Libraries/CMSIS/DSP/Source/TransformFunctions/arm_cfft_f32.c ****  * not use this file except in compliance with the License.
  18:./Libraries/CMSIS/DSP/Source/TransformFunctions/arm_cfft_f32.c ****  * You may obtain a copy of the License at
  19:./Libraries/CMSIS/DSP/Source/TransformFunctions/arm_cfft_f32.c ****  *
  20:./Libraries/CMSIS/DSP/Source/TransformFunctions/arm_cfft_f32.c ****  * www.apache.org/licenses/LICENSE-2.0
  21:./Libraries/CMSIS/DSP/Source/TransformFunctions/arm_cfft_f32.c ****  *
  22:./Libraries/CMSIS/DSP/Source/TransformFunctions/arm_cfft_f32.c ****  * Unless required by applicable law or agreed to in writing, software
  23:./Libraries/CMSIS/DSP/Source/TransformFunctions/arm_cfft_f32.c ****  * distributed under the License is distributed on an AS IS BASIS, WITHOUT
  24:./Libraries/CMSIS/DSP/Source/TransformFunctions/arm_cfft_f32.c ****  * WARRANTIES OR CONDITIONS OF ANY KIND, either express or implied.
  25:./Libraries/CMSIS/DSP/Source/TransformFunctions/arm_cfft_f32.c ****  * See the License for the specific language governing permissions and
  26:./Libraries/CMSIS/DSP/Source/TransformFunctions/arm_cfft_f32.c ****  * limitations under the License.
  27:./Libraries/CMSIS/DSP/Source/TransformFunctions/arm_cfft_f32.c ****  */
  28:./Libraries/CMSIS/DSP/Source/TransformFunctions/arm_cfft_f32.c **** 
  29:./Libraries/CMSIS/DSP/Source/TransformFunctions/arm_cfft_f32.c **** #include "arm_math.h"
  30:./Libraries/CMSIS/DSP/Source/TransformFunctions/arm_cfft_f32.c **** #include "arm_common_tables.h"
  31:./Libraries/CMSIS/DSP/Source/TransformFunctions/arm_cfft_f32.c **** 
ARM GAS  /tmp/cckRGVoG.s 			page 2


  32:./Libraries/CMSIS/DSP/Source/TransformFunctions/arm_cfft_f32.c **** extern void arm_radix8_butterfly_f32(
  33:./Libraries/CMSIS/DSP/Source/TransformFunctions/arm_cfft_f32.c ****         float32_t * pSrc,
  34:./Libraries/CMSIS/DSP/Source/TransformFunctions/arm_cfft_f32.c ****         uint16_t fftLen,
  35:./Libraries/CMSIS/DSP/Source/TransformFunctions/arm_cfft_f32.c ****   const float32_t * pCoef,
  36:./Libraries/CMSIS/DSP/Source/TransformFunctions/arm_cfft_f32.c ****         uint16_t twidCoefModifier);
  37:./Libraries/CMSIS/DSP/Source/TransformFunctions/arm_cfft_f32.c **** 
  38:./Libraries/CMSIS/DSP/Source/TransformFunctions/arm_cfft_f32.c **** extern void arm_bitreversal_32(
  39:./Libraries/CMSIS/DSP/Source/TransformFunctions/arm_cfft_f32.c ****         uint32_t * pSrc,
  40:./Libraries/CMSIS/DSP/Source/TransformFunctions/arm_cfft_f32.c ****   const uint16_t bitRevLen,
  41:./Libraries/CMSIS/DSP/Source/TransformFunctions/arm_cfft_f32.c ****   const uint16_t * pBitRevTable);
  42:./Libraries/CMSIS/DSP/Source/TransformFunctions/arm_cfft_f32.c **** 
  43:./Libraries/CMSIS/DSP/Source/TransformFunctions/arm_cfft_f32.c **** /**
  44:./Libraries/CMSIS/DSP/Source/TransformFunctions/arm_cfft_f32.c ****   @ingroup groupTransforms
  45:./Libraries/CMSIS/DSP/Source/TransformFunctions/arm_cfft_f32.c ****  */
  46:./Libraries/CMSIS/DSP/Source/TransformFunctions/arm_cfft_f32.c **** 
  47:./Libraries/CMSIS/DSP/Source/TransformFunctions/arm_cfft_f32.c **** /**
  48:./Libraries/CMSIS/DSP/Source/TransformFunctions/arm_cfft_f32.c ****   @defgroup ComplexFFT Complex FFT Functions
  49:./Libraries/CMSIS/DSP/Source/TransformFunctions/arm_cfft_f32.c ****  
  50:./Libraries/CMSIS/DSP/Source/TransformFunctions/arm_cfft_f32.c ****   @par
  51:./Libraries/CMSIS/DSP/Source/TransformFunctions/arm_cfft_f32.c ****                    The Fast Fourier Transform (FFT) is an efficient algorithm for computing the
  52:./Libraries/CMSIS/DSP/Source/TransformFunctions/arm_cfft_f32.c ****                    Discrete Fourier Transform (DFT).  The FFT can be orders of magnitude faster
  53:./Libraries/CMSIS/DSP/Source/TransformFunctions/arm_cfft_f32.c ****                    than the DFT, especially for long lengths.
  54:./Libraries/CMSIS/DSP/Source/TransformFunctions/arm_cfft_f32.c ****                    The algorithms described in this section
  55:./Libraries/CMSIS/DSP/Source/TransformFunctions/arm_cfft_f32.c ****                    operate on complex data.  A separate set of functions is devoted to handling
  56:./Libraries/CMSIS/DSP/Source/TransformFunctions/arm_cfft_f32.c ****                    of real sequences.
  57:./Libraries/CMSIS/DSP/Source/TransformFunctions/arm_cfft_f32.c ****   @par
  58:./Libraries/CMSIS/DSP/Source/TransformFunctions/arm_cfft_f32.c ****                    There are separate algorithms for handling floating-point, Q15, and Q31 data
  59:./Libraries/CMSIS/DSP/Source/TransformFunctions/arm_cfft_f32.c ****                    types.  The algorithms available for each data type are described next.
  60:./Libraries/CMSIS/DSP/Source/TransformFunctions/arm_cfft_f32.c ****   @par
  61:./Libraries/CMSIS/DSP/Source/TransformFunctions/arm_cfft_f32.c ****                    The FFT functions operate in-place.  That is, the array holding the input data
  62:./Libraries/CMSIS/DSP/Source/TransformFunctions/arm_cfft_f32.c ****                    will also be used to hold the corresponding result.  The input data is complex
  63:./Libraries/CMSIS/DSP/Source/TransformFunctions/arm_cfft_f32.c ****                    and contains <code>2*fftLen</code> interleaved values as shown below.
  64:./Libraries/CMSIS/DSP/Source/TransformFunctions/arm_cfft_f32.c ****                    <pre>{real[0], imag[0], real[1], imag[1], ...} </pre>
  65:./Libraries/CMSIS/DSP/Source/TransformFunctions/arm_cfft_f32.c ****                    The FFT result will be contained in the same array and the frequency domain
  66:./Libraries/CMSIS/DSP/Source/TransformFunctions/arm_cfft_f32.c ****                    values will have the same interleaving.
  67:./Libraries/CMSIS/DSP/Source/TransformFunctions/arm_cfft_f32.c ****  
  68:./Libraries/CMSIS/DSP/Source/TransformFunctions/arm_cfft_f32.c ****   @par Floating-point
  69:./Libraries/CMSIS/DSP/Source/TransformFunctions/arm_cfft_f32.c ****                    The floating-point complex FFT uses a mixed-radix algorithm.  Multiple radix-8
  70:./Libraries/CMSIS/DSP/Source/TransformFunctions/arm_cfft_f32.c ****                    stages are performed along with a single radix-2 or radix-4 stage, as needed.
  71:./Libraries/CMSIS/DSP/Source/TransformFunctions/arm_cfft_f32.c ****                    The algorithm supports lengths of [16, 32, 64, ..., 4096] and each length uses
  72:./Libraries/CMSIS/DSP/Source/TransformFunctions/arm_cfft_f32.c ****                    a different twiddle factor table.
  73:./Libraries/CMSIS/DSP/Source/TransformFunctions/arm_cfft_f32.c ****   @par
  74:./Libraries/CMSIS/DSP/Source/TransformFunctions/arm_cfft_f32.c ****                    The function uses the standard FFT definition and output values may grow by a
  75:./Libraries/CMSIS/DSP/Source/TransformFunctions/arm_cfft_f32.c ****                    factor of <code>fftLen</code> when computing the forward transform.  The
  76:./Libraries/CMSIS/DSP/Source/TransformFunctions/arm_cfft_f32.c ****                    inverse transform includes a scale of <code>1/fftLen</code> as part of the
  77:./Libraries/CMSIS/DSP/Source/TransformFunctions/arm_cfft_f32.c ****                    calculation and this matches the textbook definition of the inverse FFT.
  78:./Libraries/CMSIS/DSP/Source/TransformFunctions/arm_cfft_f32.c ****   @par
  79:./Libraries/CMSIS/DSP/Source/TransformFunctions/arm_cfft_f32.c ****                    Pre-initialized data structures containing twiddle factors and bit reversal
  80:./Libraries/CMSIS/DSP/Source/TransformFunctions/arm_cfft_f32.c ****                    tables are provided and defined in <code>arm_const_structs.h</code>.  Include
  81:./Libraries/CMSIS/DSP/Source/TransformFunctions/arm_cfft_f32.c ****                    this header in your function and then pass one of the constant structures as
  82:./Libraries/CMSIS/DSP/Source/TransformFunctions/arm_cfft_f32.c ****                    an argument to arm_cfft_f32.  For example:
  83:./Libraries/CMSIS/DSP/Source/TransformFunctions/arm_cfft_f32.c ****   @par
  84:./Libraries/CMSIS/DSP/Source/TransformFunctions/arm_cfft_f32.c ****                    <code>arm_cfft_f32(arm_cfft_sR_f32_len64, pSrc, 1, 1)</code>
  85:./Libraries/CMSIS/DSP/Source/TransformFunctions/arm_cfft_f32.c ****   @par
  86:./Libraries/CMSIS/DSP/Source/TransformFunctions/arm_cfft_f32.c ****                    computes a 64-point inverse complex FFT including bit reversal.
  87:./Libraries/CMSIS/DSP/Source/TransformFunctions/arm_cfft_f32.c ****                    The data structures are treated as constant data and not modified during the
  88:./Libraries/CMSIS/DSP/Source/TransformFunctions/arm_cfft_f32.c ****                    calculation.  The same data structure can be reused for multiple transforms
ARM GAS  /tmp/cckRGVoG.s 			page 3


  89:./Libraries/CMSIS/DSP/Source/TransformFunctions/arm_cfft_f32.c ****                    including mixing forward and inverse transforms.
  90:./Libraries/CMSIS/DSP/Source/TransformFunctions/arm_cfft_f32.c ****   @par
  91:./Libraries/CMSIS/DSP/Source/TransformFunctions/arm_cfft_f32.c ****                    Earlier releases of the library provided separate radix-2 and radix-4
  92:./Libraries/CMSIS/DSP/Source/TransformFunctions/arm_cfft_f32.c ****                    algorithms that operated on floating-point data.  These functions are still
  93:./Libraries/CMSIS/DSP/Source/TransformFunctions/arm_cfft_f32.c ****                    provided but are deprecated.  The older functions are slower and less general
  94:./Libraries/CMSIS/DSP/Source/TransformFunctions/arm_cfft_f32.c ****                    than the new functions.
  95:./Libraries/CMSIS/DSP/Source/TransformFunctions/arm_cfft_f32.c ****   @par
  96:./Libraries/CMSIS/DSP/Source/TransformFunctions/arm_cfft_f32.c ****                    An example of initialization of the constants for the arm_cfft_f32 function foll
  97:./Libraries/CMSIS/DSP/Source/TransformFunctions/arm_cfft_f32.c ****   @code
  98:./Libraries/CMSIS/DSP/Source/TransformFunctions/arm_cfft_f32.c ****                    const static arm_cfft_instance_f32 *S;
  99:./Libraries/CMSIS/DSP/Source/TransformFunctions/arm_cfft_f32.c ****                    ...
 100:./Libraries/CMSIS/DSP/Source/TransformFunctions/arm_cfft_f32.c ****                      switch (length) {
 101:./Libraries/CMSIS/DSP/Source/TransformFunctions/arm_cfft_f32.c ****                        case 16:
 102:./Libraries/CMSIS/DSP/Source/TransformFunctions/arm_cfft_f32.c ****                          S = &arm_cfft_sR_f32_len16;
 103:./Libraries/CMSIS/DSP/Source/TransformFunctions/arm_cfft_f32.c ****                          break;
 104:./Libraries/CMSIS/DSP/Source/TransformFunctions/arm_cfft_f32.c ****                        case 32:
 105:./Libraries/CMSIS/DSP/Source/TransformFunctions/arm_cfft_f32.c ****                          S = &arm_cfft_sR_f32_len32;
 106:./Libraries/CMSIS/DSP/Source/TransformFunctions/arm_cfft_f32.c ****                          break;
 107:./Libraries/CMSIS/DSP/Source/TransformFunctions/arm_cfft_f32.c ****                        case 64:
 108:./Libraries/CMSIS/DSP/Source/TransformFunctions/arm_cfft_f32.c ****                          S = &arm_cfft_sR_f32_len64;
 109:./Libraries/CMSIS/DSP/Source/TransformFunctions/arm_cfft_f32.c ****                          break;
 110:./Libraries/CMSIS/DSP/Source/TransformFunctions/arm_cfft_f32.c ****                        case 128:
 111:./Libraries/CMSIS/DSP/Source/TransformFunctions/arm_cfft_f32.c ****                          S = &arm_cfft_sR_f32_len128;
 112:./Libraries/CMSIS/DSP/Source/TransformFunctions/arm_cfft_f32.c ****                          break;
 113:./Libraries/CMSIS/DSP/Source/TransformFunctions/arm_cfft_f32.c ****                        case 256:
 114:./Libraries/CMSIS/DSP/Source/TransformFunctions/arm_cfft_f32.c ****                          S = &arm_cfft_sR_f32_len256;
 115:./Libraries/CMSIS/DSP/Source/TransformFunctions/arm_cfft_f32.c ****                          break;
 116:./Libraries/CMSIS/DSP/Source/TransformFunctions/arm_cfft_f32.c ****                        case 512:
 117:./Libraries/CMSIS/DSP/Source/TransformFunctions/arm_cfft_f32.c ****                          S = &arm_cfft_sR_f32_len512;
 118:./Libraries/CMSIS/DSP/Source/TransformFunctions/arm_cfft_f32.c ****                          break;
 119:./Libraries/CMSIS/DSP/Source/TransformFunctions/arm_cfft_f32.c ****                        case 1024:
 120:./Libraries/CMSIS/DSP/Source/TransformFunctions/arm_cfft_f32.c ****                          S = &arm_cfft_sR_f32_len1024;
 121:./Libraries/CMSIS/DSP/Source/TransformFunctions/arm_cfft_f32.c ****                          break;
 122:./Libraries/CMSIS/DSP/Source/TransformFunctions/arm_cfft_f32.c ****                        case 2048:
 123:./Libraries/CMSIS/DSP/Source/TransformFunctions/arm_cfft_f32.c ****                          S = &arm_cfft_sR_f32_len2048;
 124:./Libraries/CMSIS/DSP/Source/TransformFunctions/arm_cfft_f32.c ****                          break;
 125:./Libraries/CMSIS/DSP/Source/TransformFunctions/arm_cfft_f32.c ****                        case 4096:
 126:./Libraries/CMSIS/DSP/Source/TransformFunctions/arm_cfft_f32.c ****                          S = &arm_cfft_sR_f32_len4096;
 127:./Libraries/CMSIS/DSP/Source/TransformFunctions/arm_cfft_f32.c ****                          break;
 128:./Libraries/CMSIS/DSP/Source/TransformFunctions/arm_cfft_f32.c ****                      }
 129:./Libraries/CMSIS/DSP/Source/TransformFunctions/arm_cfft_f32.c ****   @endcode
 130:./Libraries/CMSIS/DSP/Source/TransformFunctions/arm_cfft_f32.c ****   @par Q15 and Q31
 131:./Libraries/CMSIS/DSP/Source/TransformFunctions/arm_cfft_f32.c ****                    The floating-point complex FFT uses a mixed-radix algorithm.  Multiple radix-4
 132:./Libraries/CMSIS/DSP/Source/TransformFunctions/arm_cfft_f32.c ****                    stages are performed along with a single radix-2 stage, as needed.
 133:./Libraries/CMSIS/DSP/Source/TransformFunctions/arm_cfft_f32.c ****                    The algorithm supports lengths of [16, 32, 64, ..., 4096] and each length uses
 134:./Libraries/CMSIS/DSP/Source/TransformFunctions/arm_cfft_f32.c ****                    a different twiddle factor table.
 135:./Libraries/CMSIS/DSP/Source/TransformFunctions/arm_cfft_f32.c ****   @par
 136:./Libraries/CMSIS/DSP/Source/TransformFunctions/arm_cfft_f32.c ****                    The function uses the standard FFT definition and output values may grow by a
 137:./Libraries/CMSIS/DSP/Source/TransformFunctions/arm_cfft_f32.c ****                    factor of <code>fftLen</code> when computing the forward transform.  The
 138:./Libraries/CMSIS/DSP/Source/TransformFunctions/arm_cfft_f32.c ****                    inverse transform includes a scale of <code>1/fftLen</code> as part of the
 139:./Libraries/CMSIS/DSP/Source/TransformFunctions/arm_cfft_f32.c ****                    calculation and this matches the textbook definition of the inverse FFT.
 140:./Libraries/CMSIS/DSP/Source/TransformFunctions/arm_cfft_f32.c ****   @par
 141:./Libraries/CMSIS/DSP/Source/TransformFunctions/arm_cfft_f32.c ****                    Pre-initialized data structures containing twiddle factors and bit reversal
 142:./Libraries/CMSIS/DSP/Source/TransformFunctions/arm_cfft_f32.c ****                    tables are provided and defined in <code>arm_const_structs.h</code>.  Include
 143:./Libraries/CMSIS/DSP/Source/TransformFunctions/arm_cfft_f32.c ****                    this header in your function and then pass one of the constant structures as
 144:./Libraries/CMSIS/DSP/Source/TransformFunctions/arm_cfft_f32.c ****                    an argument to arm_cfft_q31. For example:
 145:./Libraries/CMSIS/DSP/Source/TransformFunctions/arm_cfft_f32.c ****   @par
ARM GAS  /tmp/cckRGVoG.s 			page 4


 146:./Libraries/CMSIS/DSP/Source/TransformFunctions/arm_cfft_f32.c ****                    <code>arm_cfft_q31(arm_cfft_sR_q31_len64, pSrc, 1, 1)</code>
 147:./Libraries/CMSIS/DSP/Source/TransformFunctions/arm_cfft_f32.c ****   @par
 148:./Libraries/CMSIS/DSP/Source/TransformFunctions/arm_cfft_f32.c ****                    computes a 64-point inverse complex FFT including bit reversal.
 149:./Libraries/CMSIS/DSP/Source/TransformFunctions/arm_cfft_f32.c ****                    The data structures are treated as constant data and not modified during the
 150:./Libraries/CMSIS/DSP/Source/TransformFunctions/arm_cfft_f32.c ****                    calculation.  The same data structure can be reused for multiple transforms
 151:./Libraries/CMSIS/DSP/Source/TransformFunctions/arm_cfft_f32.c ****                    including mixing forward and inverse transforms.
 152:./Libraries/CMSIS/DSP/Source/TransformFunctions/arm_cfft_f32.c ****   @par
 153:./Libraries/CMSIS/DSP/Source/TransformFunctions/arm_cfft_f32.c ****                    Earlier releases of the library provided separate radix-2 and radix-4
 154:./Libraries/CMSIS/DSP/Source/TransformFunctions/arm_cfft_f32.c ****                    algorithms that operated on floating-point data.  These functions are still
 155:./Libraries/CMSIS/DSP/Source/TransformFunctions/arm_cfft_f32.c ****                    provided but are deprecated.  The older functions are slower and less general
 156:./Libraries/CMSIS/DSP/Source/TransformFunctions/arm_cfft_f32.c ****                    than the new functions.
 157:./Libraries/CMSIS/DSP/Source/TransformFunctions/arm_cfft_f32.c ****   @par
 158:./Libraries/CMSIS/DSP/Source/TransformFunctions/arm_cfft_f32.c ****                    An example of initialization of the constants for the arm_cfft_q31 function foll
 159:./Libraries/CMSIS/DSP/Source/TransformFunctions/arm_cfft_f32.c ****   @code
 160:./Libraries/CMSIS/DSP/Source/TransformFunctions/arm_cfft_f32.c ****                    const static arm_cfft_instance_q31 *S;
 161:./Libraries/CMSIS/DSP/Source/TransformFunctions/arm_cfft_f32.c ****                    ...
 162:./Libraries/CMSIS/DSP/Source/TransformFunctions/arm_cfft_f32.c ****                      switch (length) {
 163:./Libraries/CMSIS/DSP/Source/TransformFunctions/arm_cfft_f32.c ****                        case 16:
 164:./Libraries/CMSIS/DSP/Source/TransformFunctions/arm_cfft_f32.c ****                          S = &arm_cfft_sR_q31_len16;
 165:./Libraries/CMSIS/DSP/Source/TransformFunctions/arm_cfft_f32.c ****                          break;
 166:./Libraries/CMSIS/DSP/Source/TransformFunctions/arm_cfft_f32.c ****                        case 32:
 167:./Libraries/CMSIS/DSP/Source/TransformFunctions/arm_cfft_f32.c ****                          S = &arm_cfft_sR_q31_len32;
 168:./Libraries/CMSIS/DSP/Source/TransformFunctions/arm_cfft_f32.c ****                          break;
 169:./Libraries/CMSIS/DSP/Source/TransformFunctions/arm_cfft_f32.c ****                        case 64:
 170:./Libraries/CMSIS/DSP/Source/TransformFunctions/arm_cfft_f32.c ****                          S = &arm_cfft_sR_q31_len64;
 171:./Libraries/CMSIS/DSP/Source/TransformFunctions/arm_cfft_f32.c ****                          break;
 172:./Libraries/CMSIS/DSP/Source/TransformFunctions/arm_cfft_f32.c ****                        case 128:
 173:./Libraries/CMSIS/DSP/Source/TransformFunctions/arm_cfft_f32.c ****                          S = &arm_cfft_sR_q31_len128;
 174:./Libraries/CMSIS/DSP/Source/TransformFunctions/arm_cfft_f32.c ****                          break;
 175:./Libraries/CMSIS/DSP/Source/TransformFunctions/arm_cfft_f32.c ****                        case 256:
 176:./Libraries/CMSIS/DSP/Source/TransformFunctions/arm_cfft_f32.c ****                          S = &arm_cfft_sR_q31_len256;
 177:./Libraries/CMSIS/DSP/Source/TransformFunctions/arm_cfft_f32.c ****                          break;
 178:./Libraries/CMSIS/DSP/Source/TransformFunctions/arm_cfft_f32.c ****                        case 512:
 179:./Libraries/CMSIS/DSP/Source/TransformFunctions/arm_cfft_f32.c ****                          S = &arm_cfft_sR_q31_len512;
 180:./Libraries/CMSIS/DSP/Source/TransformFunctions/arm_cfft_f32.c ****                          break;
 181:./Libraries/CMSIS/DSP/Source/TransformFunctions/arm_cfft_f32.c ****                        case 1024:
 182:./Libraries/CMSIS/DSP/Source/TransformFunctions/arm_cfft_f32.c ****                          S = &arm_cfft_sR_q31_len1024;
 183:./Libraries/CMSIS/DSP/Source/TransformFunctions/arm_cfft_f32.c ****                          break;
 184:./Libraries/CMSIS/DSP/Source/TransformFunctions/arm_cfft_f32.c ****                        case 2048:
 185:./Libraries/CMSIS/DSP/Source/TransformFunctions/arm_cfft_f32.c ****                          S = &arm_cfft_sR_q31_len2048;
 186:./Libraries/CMSIS/DSP/Source/TransformFunctions/arm_cfft_f32.c ****                          break;
 187:./Libraries/CMSIS/DSP/Source/TransformFunctions/arm_cfft_f32.c ****                        case 4096:
 188:./Libraries/CMSIS/DSP/Source/TransformFunctions/arm_cfft_f32.c ****                          S = &arm_cfft_sR_q31_len4096;
 189:./Libraries/CMSIS/DSP/Source/TransformFunctions/arm_cfft_f32.c ****                          break;
 190:./Libraries/CMSIS/DSP/Source/TransformFunctions/arm_cfft_f32.c ****                      }
 191:./Libraries/CMSIS/DSP/Source/TransformFunctions/arm_cfft_f32.c ****   @endcode
 192:./Libraries/CMSIS/DSP/Source/TransformFunctions/arm_cfft_f32.c ****  
 193:./Libraries/CMSIS/DSP/Source/TransformFunctions/arm_cfft_f32.c ****  */
 194:./Libraries/CMSIS/DSP/Source/TransformFunctions/arm_cfft_f32.c **** 
 195:./Libraries/CMSIS/DSP/Source/TransformFunctions/arm_cfft_f32.c **** void arm_cfft_radix8by2_f32 (arm_cfft_instance_f32 * S, float32_t * p1)
 196:./Libraries/CMSIS/DSP/Source/TransformFunctions/arm_cfft_f32.c **** {
  28              		.loc 1 196 1
  29              		.cfi_startproc
  30              		@ args = 0, pretend = 0, frame = 128
  31              		@ frame_needed = 1, uses_anonymous_args = 0
  32 0000 80B5     		push	{r7, lr}
  33              	.LCFI0:
ARM GAS  /tmp/cckRGVoG.s 			page 5


  34              		.cfi_def_cfa_offset 8
  35              		.cfi_offset 7, -8
  36              		.cfi_offset 14, -4
  37 0002 A0B0     		sub	sp, sp, #128
  38              	.LCFI1:
  39              		.cfi_def_cfa_offset 136
  40 0004 00AF     		add	r7, sp, #0
  41              	.LCFI2:
  42              		.cfi_def_cfa_register 7
  43 0006 7860     		str	r0, [r7, #4]
  44 0008 3960     		str	r1, [r7]
 197:./Libraries/CMSIS/DSP/Source/TransformFunctions/arm_cfft_f32.c ****   uint32_t    L  = S->fftLen;
  45              		.loc 1 197 21
  46 000a 7B68     		ldr	r3, [r7, #4]
  47 000c 1B88     		ldrh	r3, [r3]
  48              		.loc 1 197 15
  49 000e BB66     		str	r3, [r7, #104]
 198:./Libraries/CMSIS/DSP/Source/TransformFunctions/arm_cfft_f32.c ****   float32_t * pCol1, * pCol2, * pMid1, * pMid2;
 199:./Libraries/CMSIS/DSP/Source/TransformFunctions/arm_cfft_f32.c ****   float32_t * p2 = p1 + L;
  50              		.loc 1 199 23
  51 0010 BB6E     		ldr	r3, [r7, #104]
  52 0012 9B00     		lsls	r3, r3, #2
  53              		.loc 1 199 15
  54 0014 3A68     		ldr	r2, [r7]
  55 0016 1344     		add	r3, r3, r2
  56 0018 7B67     		str	r3, [r7, #116]
 200:./Libraries/CMSIS/DSP/Source/TransformFunctions/arm_cfft_f32.c ****   const float32_t * tw = (float32_t *) S->pTwiddle;
  57              		.loc 1 200 21
  58 001a 7B68     		ldr	r3, [r7, #4]
  59 001c 5B68     		ldr	r3, [r3, #4]
  60 001e 3B67     		str	r3, [r7, #112]
 201:./Libraries/CMSIS/DSP/Source/TransformFunctions/arm_cfft_f32.c ****   float32_t t1[4], t2[4], t3[4], t4[4], twR, twI;
 202:./Libraries/CMSIS/DSP/Source/TransformFunctions/arm_cfft_f32.c ****   float32_t m0, m1, m2, m3;
 203:./Libraries/CMSIS/DSP/Source/TransformFunctions/arm_cfft_f32.c ****   uint32_t l;
 204:./Libraries/CMSIS/DSP/Source/TransformFunctions/arm_cfft_f32.c **** 
 205:./Libraries/CMSIS/DSP/Source/TransformFunctions/arm_cfft_f32.c ****   pCol1 = p1;
  61              		.loc 1 205 9
  62 0020 3B68     		ldr	r3, [r7]
  63 0022 7B66     		str	r3, [r7, #100]
 206:./Libraries/CMSIS/DSP/Source/TransformFunctions/arm_cfft_f32.c ****   pCol2 = p2;
  64              		.loc 1 206 9
  65 0024 7B6F     		ldr	r3, [r7, #116]
  66 0026 3B66     		str	r3, [r7, #96]
 207:./Libraries/CMSIS/DSP/Source/TransformFunctions/arm_cfft_f32.c **** 
 208:./Libraries/CMSIS/DSP/Source/TransformFunctions/arm_cfft_f32.c ****   /* Define new length */
 209:./Libraries/CMSIS/DSP/Source/TransformFunctions/arm_cfft_f32.c ****   L >>= 1;
  67              		.loc 1 209 5
  68 0028 BB6E     		ldr	r3, [r7, #104]
  69 002a 5B08     		lsrs	r3, r3, #1
  70 002c BB66     		str	r3, [r7, #104]
 210:./Libraries/CMSIS/DSP/Source/TransformFunctions/arm_cfft_f32.c **** 
 211:./Libraries/CMSIS/DSP/Source/TransformFunctions/arm_cfft_f32.c ****   /* Initialize mid pointers */
 212:./Libraries/CMSIS/DSP/Source/TransformFunctions/arm_cfft_f32.c ****   pMid1 = p1 + L;
  71              		.loc 1 212 14
  72 002e BB6E     		ldr	r3, [r7, #104]
  73 0030 9B00     		lsls	r3, r3, #2
  74              		.loc 1 212 9
ARM GAS  /tmp/cckRGVoG.s 			page 6


  75 0032 3A68     		ldr	r2, [r7]
  76 0034 1344     		add	r3, r3, r2
  77 0036 FB67     		str	r3, [r7, #124]
 213:./Libraries/CMSIS/DSP/Source/TransformFunctions/arm_cfft_f32.c ****   pMid2 = p2 + L;
  78              		.loc 1 213 14
  79 0038 BB6E     		ldr	r3, [r7, #104]
  80 003a 9B00     		lsls	r3, r3, #2
  81              		.loc 1 213 9
  82 003c 7A6F     		ldr	r2, [r7, #116]
  83 003e 1344     		add	r3, r3, r2
  84 0040 BB67     		str	r3, [r7, #120]
 214:./Libraries/CMSIS/DSP/Source/TransformFunctions/arm_cfft_f32.c **** 
 215:./Libraries/CMSIS/DSP/Source/TransformFunctions/arm_cfft_f32.c ****   /* do two dot Fourier transform */
 216:./Libraries/CMSIS/DSP/Source/TransformFunctions/arm_cfft_f32.c ****   for (l = L >> 2; l > 0; l-- )
  85              		.loc 1 216 10
  86 0042 BB6E     		ldr	r3, [r7, #104]
  87 0044 9B08     		lsrs	r3, r3, #2
  88 0046 FB66     		str	r3, [r7, #108]
  89              		.loc 1 216 3
  90 0048 B6E1     		b	.L2
  91              	.L3:
 217:./Libraries/CMSIS/DSP/Source/TransformFunctions/arm_cfft_f32.c ****   {
 218:./Libraries/CMSIS/DSP/Source/TransformFunctions/arm_cfft_f32.c ****     t1[0] = p1[0];
  92              		.loc 1 218 15 discriminator 3
  93 004a 3B68     		ldr	r3, [r7]
  94 004c 1B68     		ldr	r3, [r3]	@ float
  95              		.loc 1 218 11 discriminator 3
  96 004e BB63     		str	r3, [r7, #56]	@ float
 219:./Libraries/CMSIS/DSP/Source/TransformFunctions/arm_cfft_f32.c ****     t1[1] = p1[1];
  97              		.loc 1 219 11 discriminator 3
  98 0050 3B68     		ldr	r3, [r7]
  99 0052 5B68     		ldr	r3, [r3, #4]	@ float
 100 0054 FB63     		str	r3, [r7, #60]	@ float
 220:./Libraries/CMSIS/DSP/Source/TransformFunctions/arm_cfft_f32.c ****     t1[2] = p1[2];
 101              		.loc 1 220 11 discriminator 3
 102 0056 3B68     		ldr	r3, [r7]
 103 0058 9B68     		ldr	r3, [r3, #8]	@ float
 104 005a 3B64     		str	r3, [r7, #64]	@ float
 221:./Libraries/CMSIS/DSP/Source/TransformFunctions/arm_cfft_f32.c ****     t1[3] = p1[3];
 105              		.loc 1 221 11 discriminator 3
 106 005c 3B68     		ldr	r3, [r7]
 107 005e DB68     		ldr	r3, [r3, #12]	@ float
 108 0060 7B64     		str	r3, [r7, #68]	@ float
 222:./Libraries/CMSIS/DSP/Source/TransformFunctions/arm_cfft_f32.c **** 
 223:./Libraries/CMSIS/DSP/Source/TransformFunctions/arm_cfft_f32.c ****     t2[0] = p2[0];
 109              		.loc 1 223 15 discriminator 3
 110 0062 7B6F     		ldr	r3, [r7, #116]
 111 0064 1B68     		ldr	r3, [r3]	@ float
 112              		.loc 1 223 11 discriminator 3
 113 0066 BB62     		str	r3, [r7, #40]	@ float
 224:./Libraries/CMSIS/DSP/Source/TransformFunctions/arm_cfft_f32.c ****     t2[1] = p2[1];
 114              		.loc 1 224 11 discriminator 3
 115 0068 7B6F     		ldr	r3, [r7, #116]
 116 006a 5B68     		ldr	r3, [r3, #4]	@ float
 117 006c FB62     		str	r3, [r7, #44]	@ float
 225:./Libraries/CMSIS/DSP/Source/TransformFunctions/arm_cfft_f32.c ****     t2[2] = p2[2];
 118              		.loc 1 225 11 discriminator 3
ARM GAS  /tmp/cckRGVoG.s 			page 7


 119 006e 7B6F     		ldr	r3, [r7, #116]
 120 0070 9B68     		ldr	r3, [r3, #8]	@ float
 121 0072 3B63     		str	r3, [r7, #48]	@ float
 226:./Libraries/CMSIS/DSP/Source/TransformFunctions/arm_cfft_f32.c ****     t2[3] = p2[3];
 122              		.loc 1 226 11 discriminator 3
 123 0074 7B6F     		ldr	r3, [r7, #116]
 124 0076 DB68     		ldr	r3, [r3, #12]	@ float
 125 0078 7B63     		str	r3, [r7, #52]	@ float
 227:./Libraries/CMSIS/DSP/Source/TransformFunctions/arm_cfft_f32.c **** 
 228:./Libraries/CMSIS/DSP/Source/TransformFunctions/arm_cfft_f32.c ****     t3[0] = pMid1[0];
 126              		.loc 1 228 18 discriminator 3
 127 007a FB6F     		ldr	r3, [r7, #124]
 128 007c 1B68     		ldr	r3, [r3]	@ float
 129              		.loc 1 228 11 discriminator 3
 130 007e BB61     		str	r3, [r7, #24]	@ float
 229:./Libraries/CMSIS/DSP/Source/TransformFunctions/arm_cfft_f32.c ****     t3[1] = pMid1[1];
 131              		.loc 1 229 11 discriminator 3
 132 0080 FB6F     		ldr	r3, [r7, #124]
 133 0082 5B68     		ldr	r3, [r3, #4]	@ float
 134 0084 FB61     		str	r3, [r7, #28]	@ float
 230:./Libraries/CMSIS/DSP/Source/TransformFunctions/arm_cfft_f32.c ****     t3[2] = pMid1[2];
 135              		.loc 1 230 11 discriminator 3
 136 0086 FB6F     		ldr	r3, [r7, #124]
 137 0088 9B68     		ldr	r3, [r3, #8]	@ float
 138 008a 3B62     		str	r3, [r7, #32]	@ float
 231:./Libraries/CMSIS/DSP/Source/TransformFunctions/arm_cfft_f32.c ****     t3[3] = pMid1[3];
 139              		.loc 1 231 11 discriminator 3
 140 008c FB6F     		ldr	r3, [r7, #124]
 141 008e DB68     		ldr	r3, [r3, #12]	@ float
 142 0090 7B62     		str	r3, [r7, #36]	@ float
 232:./Libraries/CMSIS/DSP/Source/TransformFunctions/arm_cfft_f32.c **** 
 233:./Libraries/CMSIS/DSP/Source/TransformFunctions/arm_cfft_f32.c ****     t4[0] = pMid2[0];
 143              		.loc 1 233 18 discriminator 3
 144 0092 BB6F     		ldr	r3, [r7, #120]
 145 0094 1B68     		ldr	r3, [r3]	@ float
 146              		.loc 1 233 11 discriminator 3
 147 0096 BB60     		str	r3, [r7, #8]	@ float
 234:./Libraries/CMSIS/DSP/Source/TransformFunctions/arm_cfft_f32.c ****     t4[1] = pMid2[1];
 148              		.loc 1 234 11 discriminator 3
 149 0098 BB6F     		ldr	r3, [r7, #120]
 150 009a 5B68     		ldr	r3, [r3, #4]	@ float
 151 009c FB60     		str	r3, [r7, #12]	@ float
 235:./Libraries/CMSIS/DSP/Source/TransformFunctions/arm_cfft_f32.c ****     t4[2] = pMid2[2];
 152              		.loc 1 235 11 discriminator 3
 153 009e BB6F     		ldr	r3, [r7, #120]
 154 00a0 9B68     		ldr	r3, [r3, #8]	@ float
 155 00a2 3B61     		str	r3, [r7, #16]	@ float
 236:./Libraries/CMSIS/DSP/Source/TransformFunctions/arm_cfft_f32.c ****     t4[3] = pMid2[3];
 156              		.loc 1 236 11 discriminator 3
 157 00a4 BB6F     		ldr	r3, [r7, #120]
 158 00a6 DB68     		ldr	r3, [r3, #12]	@ float
 159 00a8 7B61     		str	r3, [r7, #20]	@ float
 237:./Libraries/CMSIS/DSP/Source/TransformFunctions/arm_cfft_f32.c **** 
 238:./Libraries/CMSIS/DSP/Source/TransformFunctions/arm_cfft_f32.c ****     *p1++ = t1[0] + t2[0];
 160              		.loc 1 238 15 discriminator 3
 161 00aa 97ED0E7A 		vldr.32	s14, [r7, #56]
 162              		.loc 1 238 23 discriminator 3
ARM GAS  /tmp/cckRGVoG.s 			page 8


 163 00ae D7ED0A7A 		vldr.32	s15, [r7, #40]
 164              		.loc 1 238 8 discriminator 3
 165 00b2 3B68     		ldr	r3, [r7]
 166 00b4 1A1D     		adds	r2, r3, #4
 167 00b6 3A60     		str	r2, [r7]
 168              		.loc 1 238 19 discriminator 3
 169 00b8 77EE277A 		vadd.f32	s15, s14, s15
 170              		.loc 1 238 11 discriminator 3
 171 00bc C3ED007A 		vstr.32	s15, [r3]
 239:./Libraries/CMSIS/DSP/Source/TransformFunctions/arm_cfft_f32.c ****     *p1++ = t1[1] + t2[1];
 172              		.loc 1 239 15 discriminator 3
 173 00c0 97ED0F7A 		vldr.32	s14, [r7, #60]
 174              		.loc 1 239 23 discriminator 3
 175 00c4 D7ED0B7A 		vldr.32	s15, [r7, #44]
 176              		.loc 1 239 8 discriminator 3
 177 00c8 3B68     		ldr	r3, [r7]
 178 00ca 1A1D     		adds	r2, r3, #4
 179 00cc 3A60     		str	r2, [r7]
 180              		.loc 1 239 19 discriminator 3
 181 00ce 77EE277A 		vadd.f32	s15, s14, s15
 182              		.loc 1 239 11 discriminator 3
 183 00d2 C3ED007A 		vstr.32	s15, [r3]
 240:./Libraries/CMSIS/DSP/Source/TransformFunctions/arm_cfft_f32.c ****     *p1++ = t1[2] + t2[2];
 184              		.loc 1 240 15 discriminator 3
 185 00d6 97ED107A 		vldr.32	s14, [r7, #64]
 186              		.loc 1 240 23 discriminator 3
 187 00da D7ED0C7A 		vldr.32	s15, [r7, #48]
 188              		.loc 1 240 8 discriminator 3
 189 00de 3B68     		ldr	r3, [r7]
 190 00e0 1A1D     		adds	r2, r3, #4
 191 00e2 3A60     		str	r2, [r7]
 192              		.loc 1 240 19 discriminator 3
 193 00e4 77EE277A 		vadd.f32	s15, s14, s15
 194              		.loc 1 240 11 discriminator 3
 195 00e8 C3ED007A 		vstr.32	s15, [r3]
 241:./Libraries/CMSIS/DSP/Source/TransformFunctions/arm_cfft_f32.c ****     *p1++ = t1[3] + t2[3];    /* col 1 */
 196              		.loc 1 241 15 discriminator 3
 197 00ec 97ED117A 		vldr.32	s14, [r7, #68]
 198              		.loc 1 241 23 discriminator 3
 199 00f0 D7ED0D7A 		vldr.32	s15, [r7, #52]
 200              		.loc 1 241 8 discriminator 3
 201 00f4 3B68     		ldr	r3, [r7]
 202 00f6 1A1D     		adds	r2, r3, #4
 203 00f8 3A60     		str	r2, [r7]
 204              		.loc 1 241 19 discriminator 3
 205 00fa 77EE277A 		vadd.f32	s15, s14, s15
 206              		.loc 1 241 11 discriminator 3
 207 00fe C3ED007A 		vstr.32	s15, [r3]
 242:./Libraries/CMSIS/DSP/Source/TransformFunctions/arm_cfft_f32.c **** 
 243:./Libraries/CMSIS/DSP/Source/TransformFunctions/arm_cfft_f32.c ****     t2[0] = t1[0] - t2[0];
 208              		.loc 1 243 15 discriminator 3
 209 0102 97ED0E7A 		vldr.32	s14, [r7, #56]
 210              		.loc 1 243 23 discriminator 3
 211 0106 D7ED0A7A 		vldr.32	s15, [r7, #40]
 212              		.loc 1 243 19 discriminator 3
 213 010a 77EE677A 		vsub.f32	s15, s14, s15
 214              		.loc 1 243 11 discriminator 3
ARM GAS  /tmp/cckRGVoG.s 			page 9


 215 010e C7ED0A7A 		vstr.32	s15, [r7, #40]
 244:./Libraries/CMSIS/DSP/Source/TransformFunctions/arm_cfft_f32.c ****     t2[1] = t1[1] - t2[1];
 216              		.loc 1 244 15 discriminator 3
 217 0112 97ED0F7A 		vldr.32	s14, [r7, #60]
 218              		.loc 1 244 23 discriminator 3
 219 0116 D7ED0B7A 		vldr.32	s15, [r7, #44]
 220              		.loc 1 244 19 discriminator 3
 221 011a 77EE677A 		vsub.f32	s15, s14, s15
 222              		.loc 1 244 11 discriminator 3
 223 011e C7ED0B7A 		vstr.32	s15, [r7, #44]
 245:./Libraries/CMSIS/DSP/Source/TransformFunctions/arm_cfft_f32.c ****     t2[2] = t1[2] - t2[2];
 224              		.loc 1 245 15 discriminator 3
 225 0122 97ED107A 		vldr.32	s14, [r7, #64]
 226              		.loc 1 245 23 discriminator 3
 227 0126 D7ED0C7A 		vldr.32	s15, [r7, #48]
 228              		.loc 1 245 19 discriminator 3
 229 012a 77EE677A 		vsub.f32	s15, s14, s15
 230              		.loc 1 245 11 discriminator 3
 231 012e C7ED0C7A 		vstr.32	s15, [r7, #48]
 246:./Libraries/CMSIS/DSP/Source/TransformFunctions/arm_cfft_f32.c ****     t2[3] = t1[3] - t2[3];    /* for col 2 */
 232              		.loc 1 246 15 discriminator 3
 233 0132 97ED117A 		vldr.32	s14, [r7, #68]
 234              		.loc 1 246 23 discriminator 3
 235 0136 D7ED0D7A 		vldr.32	s15, [r7, #52]
 236              		.loc 1 246 19 discriminator 3
 237 013a 77EE677A 		vsub.f32	s15, s14, s15
 238              		.loc 1 246 11 discriminator 3
 239 013e C7ED0D7A 		vstr.32	s15, [r7, #52]
 247:./Libraries/CMSIS/DSP/Source/TransformFunctions/arm_cfft_f32.c **** 
 248:./Libraries/CMSIS/DSP/Source/TransformFunctions/arm_cfft_f32.c ****     *pMid1++ = t3[0] + t4[0];
 240              		.loc 1 248 18 discriminator 3
 241 0142 97ED067A 		vldr.32	s14, [r7, #24]
 242              		.loc 1 248 26 discriminator 3
 243 0146 D7ED027A 		vldr.32	s15, [r7, #8]
 244              		.loc 1 248 11 discriminator 3
 245 014a FB6F     		ldr	r3, [r7, #124]
 246 014c 1A1D     		adds	r2, r3, #4
 247 014e FA67     		str	r2, [r7, #124]
 248              		.loc 1 248 22 discriminator 3
 249 0150 77EE277A 		vadd.f32	s15, s14, s15
 250              		.loc 1 248 14 discriminator 3
 251 0154 C3ED007A 		vstr.32	s15, [r3]
 249:./Libraries/CMSIS/DSP/Source/TransformFunctions/arm_cfft_f32.c ****     *pMid1++ = t3[1] + t4[1];
 252              		.loc 1 249 18 discriminator 3
 253 0158 97ED077A 		vldr.32	s14, [r7, #28]
 254              		.loc 1 249 26 discriminator 3
 255 015c D7ED037A 		vldr.32	s15, [r7, #12]
 256              		.loc 1 249 11 discriminator 3
 257 0160 FB6F     		ldr	r3, [r7, #124]
 258 0162 1A1D     		adds	r2, r3, #4
 259 0164 FA67     		str	r2, [r7, #124]
 260              		.loc 1 249 22 discriminator 3
 261 0166 77EE277A 		vadd.f32	s15, s14, s15
 262              		.loc 1 249 14 discriminator 3
 263 016a C3ED007A 		vstr.32	s15, [r3]
 250:./Libraries/CMSIS/DSP/Source/TransformFunctions/arm_cfft_f32.c ****     *pMid1++ = t3[2] + t4[2];
 264              		.loc 1 250 18 discriminator 3
ARM GAS  /tmp/cckRGVoG.s 			page 10


 265 016e 97ED087A 		vldr.32	s14, [r7, #32]
 266              		.loc 1 250 26 discriminator 3
 267 0172 D7ED047A 		vldr.32	s15, [r7, #16]
 268              		.loc 1 250 11 discriminator 3
 269 0176 FB6F     		ldr	r3, [r7, #124]
 270 0178 1A1D     		adds	r2, r3, #4
 271 017a FA67     		str	r2, [r7, #124]
 272              		.loc 1 250 22 discriminator 3
 273 017c 77EE277A 		vadd.f32	s15, s14, s15
 274              		.loc 1 250 14 discriminator 3
 275 0180 C3ED007A 		vstr.32	s15, [r3]
 251:./Libraries/CMSIS/DSP/Source/TransformFunctions/arm_cfft_f32.c ****     *pMid1++ = t3[3] + t4[3]; /* col 1 */
 276              		.loc 1 251 18 discriminator 3
 277 0184 97ED097A 		vldr.32	s14, [r7, #36]
 278              		.loc 1 251 26 discriminator 3
 279 0188 D7ED057A 		vldr.32	s15, [r7, #20]
 280              		.loc 1 251 11 discriminator 3
 281 018c FB6F     		ldr	r3, [r7, #124]
 282 018e 1A1D     		adds	r2, r3, #4
 283 0190 FA67     		str	r2, [r7, #124]
 284              		.loc 1 251 22 discriminator 3
 285 0192 77EE277A 		vadd.f32	s15, s14, s15
 286              		.loc 1 251 14 discriminator 3
 287 0196 C3ED007A 		vstr.32	s15, [r3]
 252:./Libraries/CMSIS/DSP/Source/TransformFunctions/arm_cfft_f32.c **** 
 253:./Libraries/CMSIS/DSP/Source/TransformFunctions/arm_cfft_f32.c ****     t4[0] = t4[0] - t3[0];
 288              		.loc 1 253 15 discriminator 3
 289 019a 97ED027A 		vldr.32	s14, [r7, #8]
 290              		.loc 1 253 23 discriminator 3
 291 019e D7ED067A 		vldr.32	s15, [r7, #24]
 292              		.loc 1 253 19 discriminator 3
 293 01a2 77EE677A 		vsub.f32	s15, s14, s15
 294              		.loc 1 253 11 discriminator 3
 295 01a6 C7ED027A 		vstr.32	s15, [r7, #8]
 254:./Libraries/CMSIS/DSP/Source/TransformFunctions/arm_cfft_f32.c ****     t4[1] = t4[1] - t3[1];
 296              		.loc 1 254 15 discriminator 3
 297 01aa 97ED037A 		vldr.32	s14, [r7, #12]
 298              		.loc 1 254 23 discriminator 3
 299 01ae D7ED077A 		vldr.32	s15, [r7, #28]
 300              		.loc 1 254 19 discriminator 3
 301 01b2 77EE677A 		vsub.f32	s15, s14, s15
 302              		.loc 1 254 11 discriminator 3
 303 01b6 C7ED037A 		vstr.32	s15, [r7, #12]
 255:./Libraries/CMSIS/DSP/Source/TransformFunctions/arm_cfft_f32.c ****     t4[2] = t4[2] - t3[2];
 304              		.loc 1 255 15 discriminator 3
 305 01ba 97ED047A 		vldr.32	s14, [r7, #16]
 306              		.loc 1 255 23 discriminator 3
 307 01be D7ED087A 		vldr.32	s15, [r7, #32]
 308              		.loc 1 255 19 discriminator 3
 309 01c2 77EE677A 		vsub.f32	s15, s14, s15
 310              		.loc 1 255 11 discriminator 3
 311 01c6 C7ED047A 		vstr.32	s15, [r7, #16]
 256:./Libraries/CMSIS/DSP/Source/TransformFunctions/arm_cfft_f32.c ****     t4[3] = t4[3] - t3[3];    /* for col 2 */
 312              		.loc 1 256 15 discriminator 3
 313 01ca 97ED057A 		vldr.32	s14, [r7, #20]
 314              		.loc 1 256 23 discriminator 3
 315 01ce D7ED097A 		vldr.32	s15, [r7, #36]
ARM GAS  /tmp/cckRGVoG.s 			page 11


 316              		.loc 1 256 19 discriminator 3
 317 01d2 77EE677A 		vsub.f32	s15, s14, s15
 318              		.loc 1 256 11 discriminator 3
 319 01d6 C7ED057A 		vstr.32	s15, [r7, #20]
 257:./Libraries/CMSIS/DSP/Source/TransformFunctions/arm_cfft_f32.c **** 
 258:./Libraries/CMSIS/DSP/Source/TransformFunctions/arm_cfft_f32.c ****     twR = *tw++;
 320              		.loc 1 258 14 discriminator 3
 321 01da 3B6F     		ldr	r3, [r7, #112]
 322 01dc 1A1D     		adds	r2, r3, #4
 323 01de 3A67     		str	r2, [r7, #112]
 324              		.loc 1 258 9 discriminator 3
 325 01e0 1B68     		ldr	r3, [r3]	@ float
 326 01e2 FB65     		str	r3, [r7, #92]	@ float
 259:./Libraries/CMSIS/DSP/Source/TransformFunctions/arm_cfft_f32.c ****     twI = *tw++;
 327              		.loc 1 259 14 discriminator 3
 328 01e4 3B6F     		ldr	r3, [r7, #112]
 329 01e6 1A1D     		adds	r2, r3, #4
 330 01e8 3A67     		str	r2, [r7, #112]
 331              		.loc 1 259 9 discriminator 3
 332 01ea 1B68     		ldr	r3, [r3]	@ float
 333 01ec BB65     		str	r3, [r7, #88]	@ float
 260:./Libraries/CMSIS/DSP/Source/TransformFunctions/arm_cfft_f32.c **** 
 261:./Libraries/CMSIS/DSP/Source/TransformFunctions/arm_cfft_f32.c ****     /* multiply by twiddle factors */
 262:./Libraries/CMSIS/DSP/Source/TransformFunctions/arm_cfft_f32.c ****     m0 = t2[0] * twR;
 334              		.loc 1 262 12 discriminator 3
 335 01ee D7ED0A7A 		vldr.32	s15, [r7, #40]
 336              		.loc 1 262 8 discriminator 3
 337 01f2 97ED177A 		vldr.32	s14, [r7, #92]
 338 01f6 67EE277A 		vmul.f32	s15, s14, s15
 339 01fa C7ED157A 		vstr.32	s15, [r7, #84]
 263:./Libraries/CMSIS/DSP/Source/TransformFunctions/arm_cfft_f32.c ****     m1 = t2[1] * twI;
 340              		.loc 1 263 12 discriminator 3
 341 01fe D7ED0B7A 		vldr.32	s15, [r7, #44]
 342              		.loc 1 263 8 discriminator 3
 343 0202 97ED167A 		vldr.32	s14, [r7, #88]
 344 0206 67EE277A 		vmul.f32	s15, s14, s15
 345 020a C7ED147A 		vstr.32	s15, [r7, #80]
 264:./Libraries/CMSIS/DSP/Source/TransformFunctions/arm_cfft_f32.c ****     m2 = t2[1] * twR;
 346              		.loc 1 264 12 discriminator 3
 347 020e D7ED0B7A 		vldr.32	s15, [r7, #44]
 348              		.loc 1 264 8 discriminator 3
 349 0212 97ED177A 		vldr.32	s14, [r7, #92]
 350 0216 67EE277A 		vmul.f32	s15, s14, s15
 351 021a C7ED137A 		vstr.32	s15, [r7, #76]
 265:./Libraries/CMSIS/DSP/Source/TransformFunctions/arm_cfft_f32.c ****     m3 = t2[0] * twI;
 352              		.loc 1 265 12 discriminator 3
 353 021e D7ED0A7A 		vldr.32	s15, [r7, #40]
 354              		.loc 1 265 8 discriminator 3
 355 0222 97ED167A 		vldr.32	s14, [r7, #88]
 356 0226 67EE277A 		vmul.f32	s15, s14, s15
 357 022a C7ED127A 		vstr.32	s15, [r7, #72]
 266:./Libraries/CMSIS/DSP/Source/TransformFunctions/arm_cfft_f32.c **** 
 267:./Libraries/CMSIS/DSP/Source/TransformFunctions/arm_cfft_f32.c ****     /* R  =  R  *  Tr - I * Ti */
 268:./Libraries/CMSIS/DSP/Source/TransformFunctions/arm_cfft_f32.c ****     *p2++ = m0 + m1;
 358              		.loc 1 268 8 discriminator 3
 359 022e 7B6F     		ldr	r3, [r7, #116]
 360 0230 1A1D     		adds	r2, r3, #4
ARM GAS  /tmp/cckRGVoG.s 			page 12


 361 0232 7A67     		str	r2, [r7, #116]
 362              		.loc 1 268 16 discriminator 3
 363 0234 97ED157A 		vldr.32	s14, [r7, #84]
 364 0238 D7ED147A 		vldr.32	s15, [r7, #80]
 365 023c 77EE277A 		vadd.f32	s15, s14, s15
 366              		.loc 1 268 11 discriminator 3
 367 0240 C3ED007A 		vstr.32	s15, [r3]
 269:./Libraries/CMSIS/DSP/Source/TransformFunctions/arm_cfft_f32.c ****     /* I  =  I  *  Tr + R * Ti */
 270:./Libraries/CMSIS/DSP/Source/TransformFunctions/arm_cfft_f32.c ****     *p2++ = m2 - m3;
 368              		.loc 1 270 8 discriminator 3
 369 0244 7B6F     		ldr	r3, [r7, #116]
 370 0246 1A1D     		adds	r2, r3, #4
 371 0248 7A67     		str	r2, [r7, #116]
 372              		.loc 1 270 16 discriminator 3
 373 024a 97ED137A 		vldr.32	s14, [r7, #76]
 374 024e D7ED127A 		vldr.32	s15, [r7, #72]
 375 0252 77EE677A 		vsub.f32	s15, s14, s15
 376              		.loc 1 270 11 discriminator 3
 377 0256 C3ED007A 		vstr.32	s15, [r3]
 271:./Libraries/CMSIS/DSP/Source/TransformFunctions/arm_cfft_f32.c **** 
 272:./Libraries/CMSIS/DSP/Source/TransformFunctions/arm_cfft_f32.c ****     /* use vertical symmetry */
 273:./Libraries/CMSIS/DSP/Source/TransformFunctions/arm_cfft_f32.c ****     /*  0.9988 - 0.0491i <==> -0.0491 - 0.9988i */
 274:./Libraries/CMSIS/DSP/Source/TransformFunctions/arm_cfft_f32.c ****     m0 = t4[0] * twI;
 378              		.loc 1 274 12 discriminator 3
 379 025a D7ED027A 		vldr.32	s15, [r7, #8]
 380              		.loc 1 274 8 discriminator 3
 381 025e 97ED167A 		vldr.32	s14, [r7, #88]
 382 0262 67EE277A 		vmul.f32	s15, s14, s15
 383 0266 C7ED157A 		vstr.32	s15, [r7, #84]
 275:./Libraries/CMSIS/DSP/Source/TransformFunctions/arm_cfft_f32.c ****     m1 = t4[1] * twR;
 384              		.loc 1 275 12 discriminator 3
 385 026a D7ED037A 		vldr.32	s15, [r7, #12]
 386              		.loc 1 275 8 discriminator 3
 387 026e 97ED177A 		vldr.32	s14, [r7, #92]
 388 0272 67EE277A 		vmul.f32	s15, s14, s15
 389 0276 C7ED147A 		vstr.32	s15, [r7, #80]
 276:./Libraries/CMSIS/DSP/Source/TransformFunctions/arm_cfft_f32.c ****     m2 = t4[1] * twI;
 390              		.loc 1 276 12 discriminator 3
 391 027a D7ED037A 		vldr.32	s15, [r7, #12]
 392              		.loc 1 276 8 discriminator 3
 393 027e 97ED167A 		vldr.32	s14, [r7, #88]
 394 0282 67EE277A 		vmul.f32	s15, s14, s15
 395 0286 C7ED137A 		vstr.32	s15, [r7, #76]
 277:./Libraries/CMSIS/DSP/Source/TransformFunctions/arm_cfft_f32.c ****     m3 = t4[0] * twR;
 396              		.loc 1 277 12 discriminator 3
 397 028a D7ED027A 		vldr.32	s15, [r7, #8]
 398              		.loc 1 277 8 discriminator 3
 399 028e 97ED177A 		vldr.32	s14, [r7, #92]
 400 0292 67EE277A 		vmul.f32	s15, s14, s15
 401 0296 C7ED127A 		vstr.32	s15, [r7, #72]
 278:./Libraries/CMSIS/DSP/Source/TransformFunctions/arm_cfft_f32.c **** 
 279:./Libraries/CMSIS/DSP/Source/TransformFunctions/arm_cfft_f32.c ****     *pMid2++ = m0 - m1;
 402              		.loc 1 279 11 discriminator 3
 403 029a BB6F     		ldr	r3, [r7, #120]
 404 029c 1A1D     		adds	r2, r3, #4
 405 029e BA67     		str	r2, [r7, #120]
 406              		.loc 1 279 19 discriminator 3
ARM GAS  /tmp/cckRGVoG.s 			page 13


 407 02a0 97ED157A 		vldr.32	s14, [r7, #84]
 408 02a4 D7ED147A 		vldr.32	s15, [r7, #80]
 409 02a8 77EE677A 		vsub.f32	s15, s14, s15
 410              		.loc 1 279 14 discriminator 3
 411 02ac C3ED007A 		vstr.32	s15, [r3]
 280:./Libraries/CMSIS/DSP/Source/TransformFunctions/arm_cfft_f32.c ****     *pMid2++ = m2 + m3;
 412              		.loc 1 280 11 discriminator 3
 413 02b0 BB6F     		ldr	r3, [r7, #120]
 414 02b2 1A1D     		adds	r2, r3, #4
 415 02b4 BA67     		str	r2, [r7, #120]
 416              		.loc 1 280 19 discriminator 3
 417 02b6 97ED137A 		vldr.32	s14, [r7, #76]
 418 02ba D7ED127A 		vldr.32	s15, [r7, #72]
 419 02be 77EE277A 		vadd.f32	s15, s14, s15
 420              		.loc 1 280 14 discriminator 3
 421 02c2 C3ED007A 		vstr.32	s15, [r3]
 281:./Libraries/CMSIS/DSP/Source/TransformFunctions/arm_cfft_f32.c **** 
 282:./Libraries/CMSIS/DSP/Source/TransformFunctions/arm_cfft_f32.c ****     twR = *tw++;
 422              		.loc 1 282 14 discriminator 3
 423 02c6 3B6F     		ldr	r3, [r7, #112]
 424 02c8 1A1D     		adds	r2, r3, #4
 425 02ca 3A67     		str	r2, [r7, #112]
 426              		.loc 1 282 9 discriminator 3
 427 02cc 1B68     		ldr	r3, [r3]	@ float
 428 02ce FB65     		str	r3, [r7, #92]	@ float
 283:./Libraries/CMSIS/DSP/Source/TransformFunctions/arm_cfft_f32.c ****     twI = *tw++;
 429              		.loc 1 283 14 discriminator 3
 430 02d0 3B6F     		ldr	r3, [r7, #112]
 431 02d2 1A1D     		adds	r2, r3, #4
 432 02d4 3A67     		str	r2, [r7, #112]
 433              		.loc 1 283 9 discriminator 3
 434 02d6 1B68     		ldr	r3, [r3]	@ float
 435 02d8 BB65     		str	r3, [r7, #88]	@ float
 284:./Libraries/CMSIS/DSP/Source/TransformFunctions/arm_cfft_f32.c **** 
 285:./Libraries/CMSIS/DSP/Source/TransformFunctions/arm_cfft_f32.c ****     m0 = t2[2] * twR;
 436              		.loc 1 285 12 discriminator 3
 437 02da D7ED0C7A 		vldr.32	s15, [r7, #48]
 438              		.loc 1 285 8 discriminator 3
 439 02de 97ED177A 		vldr.32	s14, [r7, #92]
 440 02e2 67EE277A 		vmul.f32	s15, s14, s15
 441 02e6 C7ED157A 		vstr.32	s15, [r7, #84]
 286:./Libraries/CMSIS/DSP/Source/TransformFunctions/arm_cfft_f32.c ****     m1 = t2[3] * twI;
 442              		.loc 1 286 12 discriminator 3
 443 02ea D7ED0D7A 		vldr.32	s15, [r7, #52]
 444              		.loc 1 286 8 discriminator 3
 445 02ee 97ED167A 		vldr.32	s14, [r7, #88]
 446 02f2 67EE277A 		vmul.f32	s15, s14, s15
 447 02f6 C7ED147A 		vstr.32	s15, [r7, #80]
 287:./Libraries/CMSIS/DSP/Source/TransformFunctions/arm_cfft_f32.c ****     m2 = t2[3] * twR;
 448              		.loc 1 287 12 discriminator 3
 449 02fa D7ED0D7A 		vldr.32	s15, [r7, #52]
 450              		.loc 1 287 8 discriminator 3
 451 02fe 97ED177A 		vldr.32	s14, [r7, #92]
 452 0302 67EE277A 		vmul.f32	s15, s14, s15
 453 0306 C7ED137A 		vstr.32	s15, [r7, #76]
 288:./Libraries/CMSIS/DSP/Source/TransformFunctions/arm_cfft_f32.c ****     m3 = t2[2] * twI;
 454              		.loc 1 288 12 discriminator 3
ARM GAS  /tmp/cckRGVoG.s 			page 14


 455 030a D7ED0C7A 		vldr.32	s15, [r7, #48]
 456              		.loc 1 288 8 discriminator 3
 457 030e 97ED167A 		vldr.32	s14, [r7, #88]
 458 0312 67EE277A 		vmul.f32	s15, s14, s15
 459 0316 C7ED127A 		vstr.32	s15, [r7, #72]
 289:./Libraries/CMSIS/DSP/Source/TransformFunctions/arm_cfft_f32.c **** 
 290:./Libraries/CMSIS/DSP/Source/TransformFunctions/arm_cfft_f32.c ****     *p2++ = m0 + m1;
 460              		.loc 1 290 8 discriminator 3
 461 031a 7B6F     		ldr	r3, [r7, #116]
 462 031c 1A1D     		adds	r2, r3, #4
 463 031e 7A67     		str	r2, [r7, #116]
 464              		.loc 1 290 16 discriminator 3
 465 0320 97ED157A 		vldr.32	s14, [r7, #84]
 466 0324 D7ED147A 		vldr.32	s15, [r7, #80]
 467 0328 77EE277A 		vadd.f32	s15, s14, s15
 468              		.loc 1 290 11 discriminator 3
 469 032c C3ED007A 		vstr.32	s15, [r3]
 291:./Libraries/CMSIS/DSP/Source/TransformFunctions/arm_cfft_f32.c ****     *p2++ = m2 - m3;
 470              		.loc 1 291 8 discriminator 3
 471 0330 7B6F     		ldr	r3, [r7, #116]
 472 0332 1A1D     		adds	r2, r3, #4
 473 0334 7A67     		str	r2, [r7, #116]
 474              		.loc 1 291 16 discriminator 3
 475 0336 97ED137A 		vldr.32	s14, [r7, #76]
 476 033a D7ED127A 		vldr.32	s15, [r7, #72]
 477 033e 77EE677A 		vsub.f32	s15, s14, s15
 478              		.loc 1 291 11 discriminator 3
 479 0342 C3ED007A 		vstr.32	s15, [r3]
 292:./Libraries/CMSIS/DSP/Source/TransformFunctions/arm_cfft_f32.c **** 
 293:./Libraries/CMSIS/DSP/Source/TransformFunctions/arm_cfft_f32.c ****     m0 = t4[2] * twI;
 480              		.loc 1 293 12 discriminator 3
 481 0346 D7ED047A 		vldr.32	s15, [r7, #16]
 482              		.loc 1 293 8 discriminator 3
 483 034a 97ED167A 		vldr.32	s14, [r7, #88]
 484 034e 67EE277A 		vmul.f32	s15, s14, s15
 485 0352 C7ED157A 		vstr.32	s15, [r7, #84]
 294:./Libraries/CMSIS/DSP/Source/TransformFunctions/arm_cfft_f32.c ****     m1 = t4[3] * twR;
 486              		.loc 1 294 12 discriminator 3
 487 0356 D7ED057A 		vldr.32	s15, [r7, #20]
 488              		.loc 1 294 8 discriminator 3
 489 035a 97ED177A 		vldr.32	s14, [r7, #92]
 490 035e 67EE277A 		vmul.f32	s15, s14, s15
 491 0362 C7ED147A 		vstr.32	s15, [r7, #80]
 295:./Libraries/CMSIS/DSP/Source/TransformFunctions/arm_cfft_f32.c ****     m2 = t4[3] * twI;
 492              		.loc 1 295 12 discriminator 3
 493 0366 D7ED057A 		vldr.32	s15, [r7, #20]
 494              		.loc 1 295 8 discriminator 3
 495 036a 97ED167A 		vldr.32	s14, [r7, #88]
 496 036e 67EE277A 		vmul.f32	s15, s14, s15
 497 0372 C7ED137A 		vstr.32	s15, [r7, #76]
 296:./Libraries/CMSIS/DSP/Source/TransformFunctions/arm_cfft_f32.c ****     m3 = t4[2] * twR;
 498              		.loc 1 296 12 discriminator 3
 499 0376 D7ED047A 		vldr.32	s15, [r7, #16]
 500              		.loc 1 296 8 discriminator 3
 501 037a 97ED177A 		vldr.32	s14, [r7, #92]
 502 037e 67EE277A 		vmul.f32	s15, s14, s15
 503 0382 C7ED127A 		vstr.32	s15, [r7, #72]
ARM GAS  /tmp/cckRGVoG.s 			page 15


 297:./Libraries/CMSIS/DSP/Source/TransformFunctions/arm_cfft_f32.c **** 
 298:./Libraries/CMSIS/DSP/Source/TransformFunctions/arm_cfft_f32.c ****     *pMid2++ = m0 - m1;
 504              		.loc 1 298 11 discriminator 3
 505 0386 BB6F     		ldr	r3, [r7, #120]
 506 0388 1A1D     		adds	r2, r3, #4
 507 038a BA67     		str	r2, [r7, #120]
 508              		.loc 1 298 19 discriminator 3
 509 038c 97ED157A 		vldr.32	s14, [r7, #84]
 510 0390 D7ED147A 		vldr.32	s15, [r7, #80]
 511 0394 77EE677A 		vsub.f32	s15, s14, s15
 512              		.loc 1 298 14 discriminator 3
 513 0398 C3ED007A 		vstr.32	s15, [r3]
 299:./Libraries/CMSIS/DSP/Source/TransformFunctions/arm_cfft_f32.c ****     *pMid2++ = m2 + m3;
 514              		.loc 1 299 11 discriminator 3
 515 039c BB6F     		ldr	r3, [r7, #120]
 516 039e 1A1D     		adds	r2, r3, #4
 517 03a0 BA67     		str	r2, [r7, #120]
 518              		.loc 1 299 19 discriminator 3
 519 03a2 97ED137A 		vldr.32	s14, [r7, #76]
 520 03a6 D7ED127A 		vldr.32	s15, [r7, #72]
 521 03aa 77EE277A 		vadd.f32	s15, s14, s15
 522              		.loc 1 299 14 discriminator 3
 523 03ae C3ED007A 		vstr.32	s15, [r3]
 216:./Libraries/CMSIS/DSP/Source/TransformFunctions/arm_cfft_f32.c ****   {
 524              		.loc 1 216 28 discriminator 3
 525 03b2 FB6E     		ldr	r3, [r7, #108]
 526 03b4 013B     		subs	r3, r3, #1
 527 03b6 FB66     		str	r3, [r7, #108]
 528              	.L2:
 216:./Libraries/CMSIS/DSP/Source/TransformFunctions/arm_cfft_f32.c ****   {
 529              		.loc 1 216 3 discriminator 1
 530 03b8 FB6E     		ldr	r3, [r7, #108]
 531 03ba 002B     		cmp	r3, #0
 532 03bc 7FF445AE 		bne	.L3
 300:./Libraries/CMSIS/DSP/Source/TransformFunctions/arm_cfft_f32.c ****   }
 301:./Libraries/CMSIS/DSP/Source/TransformFunctions/arm_cfft_f32.c **** 
 302:./Libraries/CMSIS/DSP/Source/TransformFunctions/arm_cfft_f32.c ****   /* first col */
 303:./Libraries/CMSIS/DSP/Source/TransformFunctions/arm_cfft_f32.c ****   arm_radix8_butterfly_f32 (pCol1, L, (float32_t *) S->pTwiddle, 2U);
 533              		.loc 1 303 3
 534 03c0 BB6E     		ldr	r3, [r7, #104]
 535 03c2 99B2     		uxth	r1, r3
 536 03c4 7B68     		ldr	r3, [r7, #4]
 537 03c6 5A68     		ldr	r2, [r3, #4]
 538 03c8 0223     		movs	r3, #2
 539 03ca 786E     		ldr	r0, [r7, #100]
 540 03cc FFF7FEFF 		bl	arm_radix8_butterfly_f32
 304:./Libraries/CMSIS/DSP/Source/TransformFunctions/arm_cfft_f32.c **** 
 305:./Libraries/CMSIS/DSP/Source/TransformFunctions/arm_cfft_f32.c ****   /* second col */
 306:./Libraries/CMSIS/DSP/Source/TransformFunctions/arm_cfft_f32.c ****   arm_radix8_butterfly_f32 (pCol2, L, (float32_t *) S->pTwiddle, 2U);
 541              		.loc 1 306 3
 542 03d0 BB6E     		ldr	r3, [r7, #104]
 543 03d2 99B2     		uxth	r1, r3
 544 03d4 7B68     		ldr	r3, [r7, #4]
 545 03d6 5A68     		ldr	r2, [r3, #4]
 546 03d8 0223     		movs	r3, #2
 547 03da 386E     		ldr	r0, [r7, #96]
 548 03dc FFF7FEFF 		bl	arm_radix8_butterfly_f32
ARM GAS  /tmp/cckRGVoG.s 			page 16


 307:./Libraries/CMSIS/DSP/Source/TransformFunctions/arm_cfft_f32.c **** }
 549              		.loc 1 307 1
 550 03e0 00BF     		nop
 551 03e2 8037     		adds	r7, r7, #128
 552              	.LCFI3:
 553              		.cfi_def_cfa_offset 8
 554 03e4 BD46     		mov	sp, r7
 555              	.LCFI4:
 556              		.cfi_def_cfa_register 13
 557              		@ sp needed
 558 03e6 80BD     		pop	{r7, pc}
 559              		.cfi_endproc
 560              	.LFE145:
 562              		.section	.text.arm_cfft_radix8by4_f32,"ax",%progbits
 563              		.align	1
 564              		.global	arm_cfft_radix8by4_f32
 565              		.syntax unified
 566              		.thumb
 567              		.thumb_func
 568              		.fpu fpv5-d16
 570              	arm_cfft_radix8by4_f32:
 571              	.LFB146:
 308:./Libraries/CMSIS/DSP/Source/TransformFunctions/arm_cfft_f32.c **** 
 309:./Libraries/CMSIS/DSP/Source/TransformFunctions/arm_cfft_f32.c **** void arm_cfft_radix8by4_f32 (arm_cfft_instance_f32 * S, float32_t * p1)
 310:./Libraries/CMSIS/DSP/Source/TransformFunctions/arm_cfft_f32.c **** {
 572              		.loc 1 310 1
 573              		.cfi_startproc
 574              		@ args = 0, pretend = 0, frame = 176
 575              		@ frame_needed = 1, uses_anonymous_args = 0
 576 0000 80B5     		push	{r7, lr}
 577              	.LCFI5:
 578              		.cfi_def_cfa_offset 8
 579              		.cfi_offset 7, -8
 580              		.cfi_offset 14, -4
 581 0002 ACB0     		sub	sp, sp, #176
 582              	.LCFI6:
 583              		.cfi_def_cfa_offset 184
 584 0004 00AF     		add	r7, sp, #0
 585              	.LCFI7:
 586              		.cfi_def_cfa_register 7
 587 0006 7860     		str	r0, [r7, #4]
 588 0008 3960     		str	r1, [r7]
 311:./Libraries/CMSIS/DSP/Source/TransformFunctions/arm_cfft_f32.c ****     uint32_t    L  = S->fftLen >> 1;
 589              		.loc 1 311 23
 590 000a 7B68     		ldr	r3, [r7, #4]
 591 000c 1B88     		ldrh	r3, [r3]
 592              		.loc 1 311 32
 593 000e 5B08     		lsrs	r3, r3, #1
 594 0010 9BB2     		uxth	r3, r3
 595              		.loc 1 311 17
 596 0012 C7F88030 		str	r3, [r7, #128]
 312:./Libraries/CMSIS/DSP/Source/TransformFunctions/arm_cfft_f32.c ****     float32_t * pCol1, *pCol2, *pCol3, *pCol4, *pEnd1, *pEnd2, *pEnd3, *pEnd4;
 313:./Libraries/CMSIS/DSP/Source/TransformFunctions/arm_cfft_f32.c ****     const float32_t *tw2, *tw3, *tw4;
 314:./Libraries/CMSIS/DSP/Source/TransformFunctions/arm_cfft_f32.c ****     float32_t * p2 = p1 + L;
 597              		.loc 1 314 25
 598 0016 D7F88030 		ldr	r3, [r7, #128]
 599 001a 9B00     		lsls	r3, r3, #2
ARM GAS  /tmp/cckRGVoG.s 			page 17


 600              		.loc 1 314 17
 601 001c 3A68     		ldr	r2, [r7]
 602 001e 1344     		add	r3, r3, r2
 603 0020 C7F89030 		str	r3, [r7, #144]
 315:./Libraries/CMSIS/DSP/Source/TransformFunctions/arm_cfft_f32.c ****     float32_t * p3 = p2 + L;
 604              		.loc 1 315 25
 605 0024 D7F88030 		ldr	r3, [r7, #128]
 606 0028 9B00     		lsls	r3, r3, #2
 607              		.loc 1 315 17
 608 002a D7F89020 		ldr	r2, [r7, #144]
 609 002e 1344     		add	r3, r3, r2
 610 0030 C7F88C30 		str	r3, [r7, #140]
 316:./Libraries/CMSIS/DSP/Source/TransformFunctions/arm_cfft_f32.c ****     float32_t * p4 = p3 + L;
 611              		.loc 1 316 25
 612 0034 D7F88030 		ldr	r3, [r7, #128]
 613 0038 9B00     		lsls	r3, r3, #2
 614              		.loc 1 316 17
 615 003a D7F88C20 		ldr	r2, [r7, #140]
 616 003e 1344     		add	r3, r3, r2
 617 0040 C7F88830 		str	r3, [r7, #136]
 317:./Libraries/CMSIS/DSP/Source/TransformFunctions/arm_cfft_f32.c ****     float32_t t2[4], t3[4], t4[4], twR, twI;
 318:./Libraries/CMSIS/DSP/Source/TransformFunctions/arm_cfft_f32.c ****     float32_t p1ap3_0, p1sp3_0, p1ap3_1, p1sp3_1;
 319:./Libraries/CMSIS/DSP/Source/TransformFunctions/arm_cfft_f32.c ****     float32_t m0, m1, m2, m3;
 320:./Libraries/CMSIS/DSP/Source/TransformFunctions/arm_cfft_f32.c ****     uint32_t l, twMod2, twMod3, twMod4;
 321:./Libraries/CMSIS/DSP/Source/TransformFunctions/arm_cfft_f32.c **** 
 322:./Libraries/CMSIS/DSP/Source/TransformFunctions/arm_cfft_f32.c ****     pCol1 = p1;         /* points to real values by default */
 618              		.loc 1 322 11
 619 0044 3B68     		ldr	r3, [r7]
 620 0046 FB67     		str	r3, [r7, #124]
 323:./Libraries/CMSIS/DSP/Source/TransformFunctions/arm_cfft_f32.c ****     pCol2 = p2;
 621              		.loc 1 323 11
 622 0048 D7F89030 		ldr	r3, [r7, #144]
 623 004c BB67     		str	r3, [r7, #120]
 324:./Libraries/CMSIS/DSP/Source/TransformFunctions/arm_cfft_f32.c ****     pCol3 = p3;
 624              		.loc 1 324 11
 625 004e D7F88C30 		ldr	r3, [r7, #140]
 626 0052 7B67     		str	r3, [r7, #116]
 325:./Libraries/CMSIS/DSP/Source/TransformFunctions/arm_cfft_f32.c ****     pCol4 = p4;
 627              		.loc 1 325 11
 628 0054 D7F88830 		ldr	r3, [r7, #136]
 629 0058 3B67     		str	r3, [r7, #112]
 326:./Libraries/CMSIS/DSP/Source/TransformFunctions/arm_cfft_f32.c ****     pEnd1 = p2 - 1;     /* points to imaginary values by default */
 630              		.loc 1 326 11
 631 005a D7F89030 		ldr	r3, [r7, #144]
 632 005e 043B     		subs	r3, r3, #4
 633 0060 C7F8AC30 		str	r3, [r7, #172]
 327:./Libraries/CMSIS/DSP/Source/TransformFunctions/arm_cfft_f32.c ****     pEnd2 = p3 - 1;
 634              		.loc 1 327 11
 635 0064 D7F88C30 		ldr	r3, [r7, #140]
 636 0068 043B     		subs	r3, r3, #4
 637 006a C7F8A830 		str	r3, [r7, #168]
 328:./Libraries/CMSIS/DSP/Source/TransformFunctions/arm_cfft_f32.c ****     pEnd3 = p4 - 1;
 638              		.loc 1 328 11
 639 006e D7F88830 		ldr	r3, [r7, #136]
 640 0072 043B     		subs	r3, r3, #4
 641 0074 C7F8A430 		str	r3, [r7, #164]
 329:./Libraries/CMSIS/DSP/Source/TransformFunctions/arm_cfft_f32.c ****     pEnd4 = pEnd3 + L;
ARM GAS  /tmp/cckRGVoG.s 			page 18


 642              		.loc 1 329 19
 643 0078 D7F88030 		ldr	r3, [r7, #128]
 644 007c 9B00     		lsls	r3, r3, #2
 645              		.loc 1 329 11
 646 007e D7F8A420 		ldr	r2, [r7, #164]
 647 0082 1344     		add	r3, r3, r2
 648 0084 C7F8A030 		str	r3, [r7, #160]
 330:./Libraries/CMSIS/DSP/Source/TransformFunctions/arm_cfft_f32.c **** 
 331:./Libraries/CMSIS/DSP/Source/TransformFunctions/arm_cfft_f32.c ****     tw2 = tw3 = tw4 = (float32_t *) S->pTwiddle;
 649              		.loc 1 331 21
 650 0088 7B68     		ldr	r3, [r7, #4]
 651 008a 5B68     		ldr	r3, [r3, #4]
 652 008c C7F89430 		str	r3, [r7, #148]
 653              		.loc 1 331 15
 654 0090 D7F89430 		ldr	r3, [r7, #148]
 655 0094 C7F89830 		str	r3, [r7, #152]
 656              		.loc 1 331 9
 657 0098 D7F89830 		ldr	r3, [r7, #152]
 658 009c C7F89C30 		str	r3, [r7, #156]
 332:./Libraries/CMSIS/DSP/Source/TransformFunctions/arm_cfft_f32.c **** 
 333:./Libraries/CMSIS/DSP/Source/TransformFunctions/arm_cfft_f32.c ****     L >>= 1;
 659              		.loc 1 333 7
 660 00a0 D7F88030 		ldr	r3, [r7, #128]
 661 00a4 5B08     		lsrs	r3, r3, #1
 662 00a6 C7F88030 		str	r3, [r7, #128]
 334:./Libraries/CMSIS/DSP/Source/TransformFunctions/arm_cfft_f32.c **** 
 335:./Libraries/CMSIS/DSP/Source/TransformFunctions/arm_cfft_f32.c ****     /* do four dot Fourier transform */
 336:./Libraries/CMSIS/DSP/Source/TransformFunctions/arm_cfft_f32.c **** 
 337:./Libraries/CMSIS/DSP/Source/TransformFunctions/arm_cfft_f32.c ****     twMod2 = 2;
 663              		.loc 1 337 12
 664 00aa 0223     		movs	r3, #2
 665 00ac FB66     		str	r3, [r7, #108]
 338:./Libraries/CMSIS/DSP/Source/TransformFunctions/arm_cfft_f32.c ****     twMod3 = 4;
 666              		.loc 1 338 12
 667 00ae 0423     		movs	r3, #4
 668 00b0 BB66     		str	r3, [r7, #104]
 339:./Libraries/CMSIS/DSP/Source/TransformFunctions/arm_cfft_f32.c ****     twMod4 = 6;
 669              		.loc 1 339 12
 670 00b2 0623     		movs	r3, #6
 671 00b4 7B66     		str	r3, [r7, #100]
 340:./Libraries/CMSIS/DSP/Source/TransformFunctions/arm_cfft_f32.c **** 
 341:./Libraries/CMSIS/DSP/Source/TransformFunctions/arm_cfft_f32.c ****     /* TOP */
 342:./Libraries/CMSIS/DSP/Source/TransformFunctions/arm_cfft_f32.c ****     p1ap3_0 = p1[0] + p3[0];
 672              		.loc 1 342 17
 673 00b6 3B68     		ldr	r3, [r7]
 674 00b8 93ED007A 		vldr.32	s14, [r3]
 675              		.loc 1 342 25
 676 00bc D7F88C30 		ldr	r3, [r7, #140]
 677 00c0 D3ED007A 		vldr.32	s15, [r3]
 678              		.loc 1 342 13
 679 00c4 77EE277A 		vadd.f32	s15, s14, s15
 680 00c8 C7ED187A 		vstr.32	s15, [r7, #96]
 343:./Libraries/CMSIS/DSP/Source/TransformFunctions/arm_cfft_f32.c ****     p1sp3_0 = p1[0] - p3[0];
 681              		.loc 1 343 17
 682 00cc 3B68     		ldr	r3, [r7]
 683 00ce 93ED007A 		vldr.32	s14, [r3]
 684              		.loc 1 343 25
ARM GAS  /tmp/cckRGVoG.s 			page 19


 685 00d2 D7F88C30 		ldr	r3, [r7, #140]
 686 00d6 D3ED007A 		vldr.32	s15, [r3]
 687              		.loc 1 343 13
 688 00da 77EE677A 		vsub.f32	s15, s14, s15
 689 00de C7ED177A 		vstr.32	s15, [r7, #92]
 344:./Libraries/CMSIS/DSP/Source/TransformFunctions/arm_cfft_f32.c ****     p1ap3_1 = p1[1] + p3[1];
 690              		.loc 1 344 17
 691 00e2 3B68     		ldr	r3, [r7]
 692 00e4 0433     		adds	r3, r3, #4
 693 00e6 93ED007A 		vldr.32	s14, [r3]
 694              		.loc 1 344 25
 695 00ea D7F88C30 		ldr	r3, [r7, #140]
 696 00ee 0433     		adds	r3, r3, #4
 697 00f0 D3ED007A 		vldr.32	s15, [r3]
 698              		.loc 1 344 13
 699 00f4 77EE277A 		vadd.f32	s15, s14, s15
 700 00f8 C7ED167A 		vstr.32	s15, [r7, #88]
 345:./Libraries/CMSIS/DSP/Source/TransformFunctions/arm_cfft_f32.c ****     p1sp3_1 = p1[1] - p3[1];
 701              		.loc 1 345 17
 702 00fc 3B68     		ldr	r3, [r7]
 703 00fe 0433     		adds	r3, r3, #4
 704 0100 93ED007A 		vldr.32	s14, [r3]
 705              		.loc 1 345 25
 706 0104 D7F88C30 		ldr	r3, [r7, #140]
 707 0108 0433     		adds	r3, r3, #4
 708 010a D3ED007A 		vldr.32	s15, [r3]
 709              		.loc 1 345 13
 710 010e 77EE677A 		vsub.f32	s15, s14, s15
 711 0112 C7ED157A 		vstr.32	s15, [r7, #84]
 346:./Libraries/CMSIS/DSP/Source/TransformFunctions/arm_cfft_f32.c **** 
 347:./Libraries/CMSIS/DSP/Source/TransformFunctions/arm_cfft_f32.c ****     /* col 2 */
 348:./Libraries/CMSIS/DSP/Source/TransformFunctions/arm_cfft_f32.c ****     t2[0] = p1sp3_0 + p2[1] - p4[1];
 712              		.loc 1 348 25
 713 0116 D7F89030 		ldr	r3, [r7, #144]
 714 011a 0433     		adds	r3, r3, #4
 715 011c 93ED007A 		vldr.32	s14, [r3]
 716              		.loc 1 348 21
 717 0120 D7ED177A 		vldr.32	s15, [r7, #92]
 718 0124 37EE277A 		vadd.f32	s14, s14, s15
 719              		.loc 1 348 33
 720 0128 D7F88830 		ldr	r3, [r7, #136]
 721 012c 0433     		adds	r3, r3, #4
 722 012e D3ED007A 		vldr.32	s15, [r3]
 723              		.loc 1 348 29
 724 0132 77EE677A 		vsub.f32	s15, s14, s15
 725              		.loc 1 348 11
 726 0136 C7ED0B7A 		vstr.32	s15, [r7, #44]
 349:./Libraries/CMSIS/DSP/Source/TransformFunctions/arm_cfft_f32.c ****     t2[1] = p1sp3_1 - p2[0] + p4[0];
 727              		.loc 1 349 25
 728 013a D7F89030 		ldr	r3, [r7, #144]
 729 013e D3ED007A 		vldr.32	s15, [r3]
 730              		.loc 1 349 21
 731 0142 97ED157A 		vldr.32	s14, [r7, #84]
 732 0146 37EE677A 		vsub.f32	s14, s14, s15
 733              		.loc 1 349 33
 734 014a D7F88830 		ldr	r3, [r7, #136]
 735 014e D3ED007A 		vldr.32	s15, [r3]
ARM GAS  /tmp/cckRGVoG.s 			page 20


 736              		.loc 1 349 29
 737 0152 77EE277A 		vadd.f32	s15, s14, s15
 738              		.loc 1 349 11
 739 0156 C7ED0C7A 		vstr.32	s15, [r7, #48]
 350:./Libraries/CMSIS/DSP/Source/TransformFunctions/arm_cfft_f32.c ****     /* col 3 */
 351:./Libraries/CMSIS/DSP/Source/TransformFunctions/arm_cfft_f32.c ****     t3[0] = p1ap3_0 - p2[0] - p4[0];
 740              		.loc 1 351 25
 741 015a D7F89030 		ldr	r3, [r7, #144]
 742 015e D3ED007A 		vldr.32	s15, [r3]
 743              		.loc 1 351 21
 744 0162 97ED187A 		vldr.32	s14, [r7, #96]
 745 0166 37EE677A 		vsub.f32	s14, s14, s15
 746              		.loc 1 351 33
 747 016a D7F88830 		ldr	r3, [r7, #136]
 748 016e D3ED007A 		vldr.32	s15, [r3]
 749              		.loc 1 351 29
 750 0172 77EE677A 		vsub.f32	s15, s14, s15
 751              		.loc 1 351 11
 752 0176 C7ED077A 		vstr.32	s15, [r7, #28]
 352:./Libraries/CMSIS/DSP/Source/TransformFunctions/arm_cfft_f32.c ****     t3[1] = p1ap3_1 - p2[1] - p4[1];
 753              		.loc 1 352 25
 754 017a D7F89030 		ldr	r3, [r7, #144]
 755 017e 0433     		adds	r3, r3, #4
 756 0180 D3ED007A 		vldr.32	s15, [r3]
 757              		.loc 1 352 21
 758 0184 97ED167A 		vldr.32	s14, [r7, #88]
 759 0188 37EE677A 		vsub.f32	s14, s14, s15
 760              		.loc 1 352 33
 761 018c D7F88830 		ldr	r3, [r7, #136]
 762 0190 0433     		adds	r3, r3, #4
 763 0192 D3ED007A 		vldr.32	s15, [r3]
 764              		.loc 1 352 29
 765 0196 77EE677A 		vsub.f32	s15, s14, s15
 766              		.loc 1 352 11
 767 019a C7ED087A 		vstr.32	s15, [r7, #32]
 353:./Libraries/CMSIS/DSP/Source/TransformFunctions/arm_cfft_f32.c ****     /* col 4 */
 354:./Libraries/CMSIS/DSP/Source/TransformFunctions/arm_cfft_f32.c ****     t4[0] = p1sp3_0 - p2[1] + p4[1];
 768              		.loc 1 354 25
 769 019e D7F89030 		ldr	r3, [r7, #144]
 770 01a2 0433     		adds	r3, r3, #4
 771 01a4 D3ED007A 		vldr.32	s15, [r3]
 772              		.loc 1 354 21
 773 01a8 97ED177A 		vldr.32	s14, [r7, #92]
 774 01ac 37EE677A 		vsub.f32	s14, s14, s15
 775              		.loc 1 354 33
 776 01b0 D7F88830 		ldr	r3, [r7, #136]
 777 01b4 0433     		adds	r3, r3, #4
 778 01b6 D3ED007A 		vldr.32	s15, [r3]
 779              		.loc 1 354 29
 780 01ba 77EE277A 		vadd.f32	s15, s14, s15
 781              		.loc 1 354 11
 782 01be C7ED037A 		vstr.32	s15, [r7, #12]
 355:./Libraries/CMSIS/DSP/Source/TransformFunctions/arm_cfft_f32.c ****     t4[1] = p1sp3_1 + p2[0] - p4[0];
 783              		.loc 1 355 25
 784 01c2 D7F89030 		ldr	r3, [r7, #144]
 785 01c6 93ED007A 		vldr.32	s14, [r3]
 786              		.loc 1 355 21
ARM GAS  /tmp/cckRGVoG.s 			page 21


 787 01ca D7ED157A 		vldr.32	s15, [r7, #84]
 788 01ce 37EE277A 		vadd.f32	s14, s14, s15
 789              		.loc 1 355 33
 790 01d2 D7F88830 		ldr	r3, [r7, #136]
 791 01d6 D3ED007A 		vldr.32	s15, [r3]
 792              		.loc 1 355 29
 793 01da 77EE677A 		vsub.f32	s15, s14, s15
 794              		.loc 1 355 11
 795 01de C7ED047A 		vstr.32	s15, [r7, #16]
 356:./Libraries/CMSIS/DSP/Source/TransformFunctions/arm_cfft_f32.c ****     /* col 1 */
 357:./Libraries/CMSIS/DSP/Source/TransformFunctions/arm_cfft_f32.c ****     *p1++ = p1ap3_0 + p2[0] + p4[0];
 796              		.loc 1 357 25
 797 01e2 D7F89030 		ldr	r3, [r7, #144]
 798 01e6 93ED007A 		vldr.32	s14, [r3]
 799              		.loc 1 357 21
 800 01ea D7ED187A 		vldr.32	s15, [r7, #96]
 801 01ee 37EE277A 		vadd.f32	s14, s14, s15
 802              		.loc 1 357 33
 803 01f2 D7F88830 		ldr	r3, [r7, #136]
 804 01f6 D3ED007A 		vldr.32	s15, [r3]
 805              		.loc 1 357 8
 806 01fa 3B68     		ldr	r3, [r7]
 807 01fc 1A1D     		adds	r2, r3, #4
 808 01fe 3A60     		str	r2, [r7]
 809              		.loc 1 357 29
 810 0200 77EE277A 		vadd.f32	s15, s14, s15
 811              		.loc 1 357 11
 812 0204 C3ED007A 		vstr.32	s15, [r3]
 358:./Libraries/CMSIS/DSP/Source/TransformFunctions/arm_cfft_f32.c ****     *p1++ = p1ap3_1 + p2[1] + p4[1];
 813              		.loc 1 358 25
 814 0208 D7F89030 		ldr	r3, [r7, #144]
 815 020c 0433     		adds	r3, r3, #4
 816 020e 93ED007A 		vldr.32	s14, [r3]
 817              		.loc 1 358 21
 818 0212 D7ED167A 		vldr.32	s15, [r7, #88]
 819 0216 37EE277A 		vadd.f32	s14, s14, s15
 820              		.loc 1 358 33
 821 021a D7F88830 		ldr	r3, [r7, #136]
 822 021e 0433     		adds	r3, r3, #4
 823 0220 D3ED007A 		vldr.32	s15, [r3]
 824              		.loc 1 358 8
 825 0224 3B68     		ldr	r3, [r7]
 826 0226 1A1D     		adds	r2, r3, #4
 827 0228 3A60     		str	r2, [r7]
 828              		.loc 1 358 29
 829 022a 77EE277A 		vadd.f32	s15, s14, s15
 830              		.loc 1 358 11
 831 022e C3ED007A 		vstr.32	s15, [r3]
 359:./Libraries/CMSIS/DSP/Source/TransformFunctions/arm_cfft_f32.c **** 
 360:./Libraries/CMSIS/DSP/Source/TransformFunctions/arm_cfft_f32.c ****     /* Twiddle factors are ones */
 361:./Libraries/CMSIS/DSP/Source/TransformFunctions/arm_cfft_f32.c ****     *p2++ = t2[0];
 832              		.loc 1 361 8
 833 0232 D7F89030 		ldr	r3, [r7, #144]
 834 0236 1A1D     		adds	r2, r3, #4
 835 0238 C7F89020 		str	r2, [r7, #144]
 836              		.loc 1 361 15
 837 023c FA6A     		ldr	r2, [r7, #44]	@ float
ARM GAS  /tmp/cckRGVoG.s 			page 22


 838              		.loc 1 361 11
 839 023e 1A60     		str	r2, [r3]	@ float
 362:./Libraries/CMSIS/DSP/Source/TransformFunctions/arm_cfft_f32.c ****     *p2++ = t2[1];
 840              		.loc 1 362 8
 841 0240 D7F89030 		ldr	r3, [r7, #144]
 842 0244 1A1D     		adds	r2, r3, #4
 843 0246 C7F89020 		str	r2, [r7, #144]
 844              		.loc 1 362 15
 845 024a 3A6B     		ldr	r2, [r7, #48]	@ float
 846              		.loc 1 362 11
 847 024c 1A60     		str	r2, [r3]	@ float
 363:./Libraries/CMSIS/DSP/Source/TransformFunctions/arm_cfft_f32.c ****     *p3++ = t3[0];
 848              		.loc 1 363 8
 849 024e D7F88C30 		ldr	r3, [r7, #140]
 850 0252 1A1D     		adds	r2, r3, #4
 851 0254 C7F88C20 		str	r2, [r7, #140]
 852              		.loc 1 363 15
 853 0258 FA69     		ldr	r2, [r7, #28]	@ float
 854              		.loc 1 363 11
 855 025a 1A60     		str	r2, [r3]	@ float
 364:./Libraries/CMSIS/DSP/Source/TransformFunctions/arm_cfft_f32.c ****     *p3++ = t3[1];
 856              		.loc 1 364 8
 857 025c D7F88C30 		ldr	r3, [r7, #140]
 858 0260 1A1D     		adds	r2, r3, #4
 859 0262 C7F88C20 		str	r2, [r7, #140]
 860              		.loc 1 364 15
 861 0266 3A6A     		ldr	r2, [r7, #32]	@ float
 862              		.loc 1 364 11
 863 0268 1A60     		str	r2, [r3]	@ float
 365:./Libraries/CMSIS/DSP/Source/TransformFunctions/arm_cfft_f32.c ****     *p4++ = t4[0];
 864              		.loc 1 365 8
 865 026a D7F88830 		ldr	r3, [r7, #136]
 866 026e 1A1D     		adds	r2, r3, #4
 867 0270 C7F88820 		str	r2, [r7, #136]
 868              		.loc 1 365 15
 869 0274 FA68     		ldr	r2, [r7, #12]	@ float
 870              		.loc 1 365 11
 871 0276 1A60     		str	r2, [r3]	@ float
 366:./Libraries/CMSIS/DSP/Source/TransformFunctions/arm_cfft_f32.c ****     *p4++ = t4[1];
 872              		.loc 1 366 8
 873 0278 D7F88830 		ldr	r3, [r7, #136]
 874 027c 1A1D     		adds	r2, r3, #4
 875 027e C7F88820 		str	r2, [r7, #136]
 876              		.loc 1 366 15
 877 0282 3A69     		ldr	r2, [r7, #16]	@ float
 878              		.loc 1 366 11
 879 0284 1A60     		str	r2, [r3]	@ float
 367:./Libraries/CMSIS/DSP/Source/TransformFunctions/arm_cfft_f32.c **** 
 368:./Libraries/CMSIS/DSP/Source/TransformFunctions/arm_cfft_f32.c ****     tw2 += twMod2;
 880              		.loc 1 368 9
 881 0286 FB6E     		ldr	r3, [r7, #108]
 882 0288 9B00     		lsls	r3, r3, #2
 883 028a D7F89C20 		ldr	r2, [r7, #156]
 884 028e 1344     		add	r3, r3, r2
 885 0290 C7F89C30 		str	r3, [r7, #156]
 369:./Libraries/CMSIS/DSP/Source/TransformFunctions/arm_cfft_f32.c ****     tw3 += twMod3;
 886              		.loc 1 369 9
ARM GAS  /tmp/cckRGVoG.s 			page 23


 887 0294 BB6E     		ldr	r3, [r7, #104]
 888 0296 9B00     		lsls	r3, r3, #2
 889 0298 D7F89820 		ldr	r2, [r7, #152]
 890 029c 1344     		add	r3, r3, r2
 891 029e C7F89830 		str	r3, [r7, #152]
 370:./Libraries/CMSIS/DSP/Source/TransformFunctions/arm_cfft_f32.c ****     tw4 += twMod4;
 892              		.loc 1 370 9
 893 02a2 7B6E     		ldr	r3, [r7, #100]
 894 02a4 9B00     		lsls	r3, r3, #2
 895 02a6 D7F89420 		ldr	r2, [r7, #148]
 896 02aa 1344     		add	r3, r3, r2
 897 02ac C7F89430 		str	r3, [r7, #148]
 371:./Libraries/CMSIS/DSP/Source/TransformFunctions/arm_cfft_f32.c **** 
 372:./Libraries/CMSIS/DSP/Source/TransformFunctions/arm_cfft_f32.c ****     for (l = (L - 2) >> 1; l > 0; l-- )
 898              		.loc 1 372 17
 899 02b0 D7F88030 		ldr	r3, [r7, #128]
 900 02b4 023B     		subs	r3, r3, #2
 901              		.loc 1 372 12
 902 02b6 5B08     		lsrs	r3, r3, #1
 903 02b8 C7F88430 		str	r3, [r7, #132]
 904              		.loc 1 372 5
 905 02bc 1AE3     		b	.L5
 906              	.L6:
 373:./Libraries/CMSIS/DSP/Source/TransformFunctions/arm_cfft_f32.c ****     {
 374:./Libraries/CMSIS/DSP/Source/TransformFunctions/arm_cfft_f32.c ****       /* TOP */
 375:./Libraries/CMSIS/DSP/Source/TransformFunctions/arm_cfft_f32.c ****       p1ap3_0 = p1[0] + p3[0];
 907              		.loc 1 375 19 discriminator 3
 908 02be 3B68     		ldr	r3, [r7]
 909 02c0 93ED007A 		vldr.32	s14, [r3]
 910              		.loc 1 375 27 discriminator 3
 911 02c4 D7F88C30 		ldr	r3, [r7, #140]
 912 02c8 D3ED007A 		vldr.32	s15, [r3]
 913              		.loc 1 375 15 discriminator 3
 914 02cc 77EE277A 		vadd.f32	s15, s14, s15
 915 02d0 C7ED187A 		vstr.32	s15, [r7, #96]
 376:./Libraries/CMSIS/DSP/Source/TransformFunctions/arm_cfft_f32.c ****       p1sp3_0 = p1[0] - p3[0];
 916              		.loc 1 376 19 discriminator 3
 917 02d4 3B68     		ldr	r3, [r7]
 918 02d6 93ED007A 		vldr.32	s14, [r3]
 919              		.loc 1 376 27 discriminator 3
 920 02da D7F88C30 		ldr	r3, [r7, #140]
 921 02de D3ED007A 		vldr.32	s15, [r3]
 922              		.loc 1 376 15 discriminator 3
 923 02e2 77EE677A 		vsub.f32	s15, s14, s15
 924 02e6 C7ED177A 		vstr.32	s15, [r7, #92]
 377:./Libraries/CMSIS/DSP/Source/TransformFunctions/arm_cfft_f32.c ****       p1ap3_1 = p1[1] + p3[1];
 925              		.loc 1 377 19 discriminator 3
 926 02ea 3B68     		ldr	r3, [r7]
 927 02ec 0433     		adds	r3, r3, #4
 928 02ee 93ED007A 		vldr.32	s14, [r3]
 929              		.loc 1 377 27 discriminator 3
 930 02f2 D7F88C30 		ldr	r3, [r7, #140]
 931 02f6 0433     		adds	r3, r3, #4
 932 02f8 D3ED007A 		vldr.32	s15, [r3]
 933              		.loc 1 377 15 discriminator 3
 934 02fc 77EE277A 		vadd.f32	s15, s14, s15
 935 0300 C7ED167A 		vstr.32	s15, [r7, #88]
ARM GAS  /tmp/cckRGVoG.s 			page 24


 378:./Libraries/CMSIS/DSP/Source/TransformFunctions/arm_cfft_f32.c ****       p1sp3_1 = p1[1] - p3[1];
 936              		.loc 1 378 19 discriminator 3
 937 0304 3B68     		ldr	r3, [r7]
 938 0306 0433     		adds	r3, r3, #4
 939 0308 93ED007A 		vldr.32	s14, [r3]
 940              		.loc 1 378 27 discriminator 3
 941 030c D7F88C30 		ldr	r3, [r7, #140]
 942 0310 0433     		adds	r3, r3, #4
 943 0312 D3ED007A 		vldr.32	s15, [r3]
 944              		.loc 1 378 15 discriminator 3
 945 0316 77EE677A 		vsub.f32	s15, s14, s15
 946 031a C7ED157A 		vstr.32	s15, [r7, #84]
 379:./Libraries/CMSIS/DSP/Source/TransformFunctions/arm_cfft_f32.c ****       /* col 2 */
 380:./Libraries/CMSIS/DSP/Source/TransformFunctions/arm_cfft_f32.c ****       t2[0] = p1sp3_0 + p2[1] - p4[1];
 947              		.loc 1 380 27 discriminator 3
 948 031e D7F89030 		ldr	r3, [r7, #144]
 949 0322 0433     		adds	r3, r3, #4
 950 0324 93ED007A 		vldr.32	s14, [r3]
 951              		.loc 1 380 23 discriminator 3
 952 0328 D7ED177A 		vldr.32	s15, [r7, #92]
 953 032c 37EE277A 		vadd.f32	s14, s14, s15
 954              		.loc 1 380 35 discriminator 3
 955 0330 D7F88830 		ldr	r3, [r7, #136]
 956 0334 0433     		adds	r3, r3, #4
 957 0336 D3ED007A 		vldr.32	s15, [r3]
 958              		.loc 1 380 31 discriminator 3
 959 033a 77EE677A 		vsub.f32	s15, s14, s15
 960              		.loc 1 380 13 discriminator 3
 961 033e C7ED0B7A 		vstr.32	s15, [r7, #44]
 381:./Libraries/CMSIS/DSP/Source/TransformFunctions/arm_cfft_f32.c ****       t2[1] = p1sp3_1 - p2[0] + p4[0];
 962              		.loc 1 381 27 discriminator 3
 963 0342 D7F89030 		ldr	r3, [r7, #144]
 964 0346 D3ED007A 		vldr.32	s15, [r3]
 965              		.loc 1 381 23 discriminator 3
 966 034a 97ED157A 		vldr.32	s14, [r7, #84]
 967 034e 37EE677A 		vsub.f32	s14, s14, s15
 968              		.loc 1 381 35 discriminator 3
 969 0352 D7F88830 		ldr	r3, [r7, #136]
 970 0356 D3ED007A 		vldr.32	s15, [r3]
 971              		.loc 1 381 31 discriminator 3
 972 035a 77EE277A 		vadd.f32	s15, s14, s15
 973              		.loc 1 381 13 discriminator 3
 974 035e C7ED0C7A 		vstr.32	s15, [r7, #48]
 382:./Libraries/CMSIS/DSP/Source/TransformFunctions/arm_cfft_f32.c ****       /* col 3 */
 383:./Libraries/CMSIS/DSP/Source/TransformFunctions/arm_cfft_f32.c ****       t3[0] = p1ap3_0 - p2[0] - p4[0];
 975              		.loc 1 383 27 discriminator 3
 976 0362 D7F89030 		ldr	r3, [r7, #144]
 977 0366 D3ED007A 		vldr.32	s15, [r3]
 978              		.loc 1 383 23 discriminator 3
 979 036a 97ED187A 		vldr.32	s14, [r7, #96]
 980 036e 37EE677A 		vsub.f32	s14, s14, s15
 981              		.loc 1 383 35 discriminator 3
 982 0372 D7F88830 		ldr	r3, [r7, #136]
 983 0376 D3ED007A 		vldr.32	s15, [r3]
 984              		.loc 1 383 31 discriminator 3
 985 037a 77EE677A 		vsub.f32	s15, s14, s15
 986              		.loc 1 383 13 discriminator 3
ARM GAS  /tmp/cckRGVoG.s 			page 25


 987 037e C7ED077A 		vstr.32	s15, [r7, #28]
 384:./Libraries/CMSIS/DSP/Source/TransformFunctions/arm_cfft_f32.c ****       t3[1] = p1ap3_1 - p2[1] - p4[1];
 988              		.loc 1 384 27 discriminator 3
 989 0382 D7F89030 		ldr	r3, [r7, #144]
 990 0386 0433     		adds	r3, r3, #4
 991 0388 D3ED007A 		vldr.32	s15, [r3]
 992              		.loc 1 384 23 discriminator 3
 993 038c 97ED167A 		vldr.32	s14, [r7, #88]
 994 0390 37EE677A 		vsub.f32	s14, s14, s15
 995              		.loc 1 384 35 discriminator 3
 996 0394 D7F88830 		ldr	r3, [r7, #136]
 997 0398 0433     		adds	r3, r3, #4
 998 039a D3ED007A 		vldr.32	s15, [r3]
 999              		.loc 1 384 31 discriminator 3
 1000 039e 77EE677A 		vsub.f32	s15, s14, s15
 1001              		.loc 1 384 13 discriminator 3
 1002 03a2 C7ED087A 		vstr.32	s15, [r7, #32]
 385:./Libraries/CMSIS/DSP/Source/TransformFunctions/arm_cfft_f32.c ****       /* col 4 */
 386:./Libraries/CMSIS/DSP/Source/TransformFunctions/arm_cfft_f32.c ****       t4[0] = p1sp3_0 - p2[1] + p4[1];
 1003              		.loc 1 386 27 discriminator 3
 1004 03a6 D7F89030 		ldr	r3, [r7, #144]
 1005 03aa 0433     		adds	r3, r3, #4
 1006 03ac D3ED007A 		vldr.32	s15, [r3]
 1007              		.loc 1 386 23 discriminator 3
 1008 03b0 97ED177A 		vldr.32	s14, [r7, #92]
 1009 03b4 37EE677A 		vsub.f32	s14, s14, s15
 1010              		.loc 1 386 35 discriminator 3
 1011 03b8 D7F88830 		ldr	r3, [r7, #136]
 1012 03bc 0433     		adds	r3, r3, #4
 1013 03be D3ED007A 		vldr.32	s15, [r3]
 1014              		.loc 1 386 31 discriminator 3
 1015 03c2 77EE277A 		vadd.f32	s15, s14, s15
 1016              		.loc 1 386 13 discriminator 3
 1017 03c6 C7ED037A 		vstr.32	s15, [r7, #12]
 387:./Libraries/CMSIS/DSP/Source/TransformFunctions/arm_cfft_f32.c ****       t4[1] = p1sp3_1 + p2[0] - p4[0];
 1018              		.loc 1 387 27 discriminator 3
 1019 03ca D7F89030 		ldr	r3, [r7, #144]
 1020 03ce 93ED007A 		vldr.32	s14, [r3]
 1021              		.loc 1 387 23 discriminator 3
 1022 03d2 D7ED157A 		vldr.32	s15, [r7, #84]
 1023 03d6 37EE277A 		vadd.f32	s14, s14, s15
 1024              		.loc 1 387 35 discriminator 3
 1025 03da D7F88830 		ldr	r3, [r7, #136]
 1026 03de D3ED007A 		vldr.32	s15, [r3]
 1027              		.loc 1 387 31 discriminator 3
 1028 03e2 77EE677A 		vsub.f32	s15, s14, s15
 1029              		.loc 1 387 13 discriminator 3
 1030 03e6 C7ED047A 		vstr.32	s15, [r7, #16]
 388:./Libraries/CMSIS/DSP/Source/TransformFunctions/arm_cfft_f32.c ****       /* col 1 - top */
 389:./Libraries/CMSIS/DSP/Source/TransformFunctions/arm_cfft_f32.c ****       *p1++ = p1ap3_0 + p2[0] + p4[0];
 1031              		.loc 1 389 27 discriminator 3
 1032 03ea D7F89030 		ldr	r3, [r7, #144]
 1033 03ee 93ED007A 		vldr.32	s14, [r3]
 1034              		.loc 1 389 23 discriminator 3
 1035 03f2 D7ED187A 		vldr.32	s15, [r7, #96]
 1036 03f6 37EE277A 		vadd.f32	s14, s14, s15
 1037              		.loc 1 389 35 discriminator 3
ARM GAS  /tmp/cckRGVoG.s 			page 26


 1038 03fa D7F88830 		ldr	r3, [r7, #136]
 1039 03fe D3ED007A 		vldr.32	s15, [r3]
 1040              		.loc 1 389 10 discriminator 3
 1041 0402 3B68     		ldr	r3, [r7]
 1042 0404 1A1D     		adds	r2, r3, #4
 1043 0406 3A60     		str	r2, [r7]
 1044              		.loc 1 389 31 discriminator 3
 1045 0408 77EE277A 		vadd.f32	s15, s14, s15
 1046              		.loc 1 389 13 discriminator 3
 1047 040c C3ED007A 		vstr.32	s15, [r3]
 390:./Libraries/CMSIS/DSP/Source/TransformFunctions/arm_cfft_f32.c ****       *p1++ = p1ap3_1 + p2[1] + p4[1];
 1048              		.loc 1 390 27 discriminator 3
 1049 0410 D7F89030 		ldr	r3, [r7, #144]
 1050 0414 0433     		adds	r3, r3, #4
 1051 0416 93ED007A 		vldr.32	s14, [r3]
 1052              		.loc 1 390 23 discriminator 3
 1053 041a D7ED167A 		vldr.32	s15, [r7, #88]
 1054 041e 37EE277A 		vadd.f32	s14, s14, s15
 1055              		.loc 1 390 35 discriminator 3
 1056 0422 D7F88830 		ldr	r3, [r7, #136]
 1057 0426 0433     		adds	r3, r3, #4
 1058 0428 D3ED007A 		vldr.32	s15, [r3]
 1059              		.loc 1 390 10 discriminator 3
 1060 042c 3B68     		ldr	r3, [r7]
 1061 042e 1A1D     		adds	r2, r3, #4
 1062 0430 3A60     		str	r2, [r7]
 1063              		.loc 1 390 31 discriminator 3
 1064 0432 77EE277A 		vadd.f32	s15, s14, s15
 1065              		.loc 1 390 13 discriminator 3
 1066 0436 C3ED007A 		vstr.32	s15, [r3]
 391:./Libraries/CMSIS/DSP/Source/TransformFunctions/arm_cfft_f32.c **** 
 392:./Libraries/CMSIS/DSP/Source/TransformFunctions/arm_cfft_f32.c ****       /* BOTTOM */
 393:./Libraries/CMSIS/DSP/Source/TransformFunctions/arm_cfft_f32.c ****       p1ap3_1 = pEnd1[-1] + pEnd3[-1];
 1067              		.loc 1 393 22 discriminator 3
 1068 043a D7F8AC30 		ldr	r3, [r7, #172]
 1069 043e 043B     		subs	r3, r3, #4
 1070 0440 93ED007A 		vldr.32	s14, [r3]
 1071              		.loc 1 393 34 discriminator 3
 1072 0444 D7F8A430 		ldr	r3, [r7, #164]
 1073 0448 043B     		subs	r3, r3, #4
 1074 044a D3ED007A 		vldr.32	s15, [r3]
 1075              		.loc 1 393 15 discriminator 3
 1076 044e 77EE277A 		vadd.f32	s15, s14, s15
 1077 0452 C7ED167A 		vstr.32	s15, [r7, #88]
 394:./Libraries/CMSIS/DSP/Source/TransformFunctions/arm_cfft_f32.c ****       p1sp3_1 = pEnd1[-1] - pEnd3[-1];
 1078              		.loc 1 394 22 discriminator 3
 1079 0456 D7F8AC30 		ldr	r3, [r7, #172]
 1080 045a 043B     		subs	r3, r3, #4
 1081 045c 93ED007A 		vldr.32	s14, [r3]
 1082              		.loc 1 394 34 discriminator 3
 1083 0460 D7F8A430 		ldr	r3, [r7, #164]
 1084 0464 043B     		subs	r3, r3, #4
 1085 0466 D3ED007A 		vldr.32	s15, [r3]
 1086              		.loc 1 394 15 discriminator 3
 1087 046a 77EE677A 		vsub.f32	s15, s14, s15
 1088 046e C7ED157A 		vstr.32	s15, [r7, #84]
 395:./Libraries/CMSIS/DSP/Source/TransformFunctions/arm_cfft_f32.c ****       p1ap3_0 = pEnd1[ 0] + pEnd3[0];
ARM GAS  /tmp/cckRGVoG.s 			page 27


 1089              		.loc 1 395 22 discriminator 3
 1090 0472 D7F8AC30 		ldr	r3, [r7, #172]
 1091 0476 93ED007A 		vldr.32	s14, [r3]
 1092              		.loc 1 395 34 discriminator 3
 1093 047a D7F8A430 		ldr	r3, [r7, #164]
 1094 047e D3ED007A 		vldr.32	s15, [r3]
 1095              		.loc 1 395 15 discriminator 3
 1096 0482 77EE277A 		vadd.f32	s15, s14, s15
 1097 0486 C7ED187A 		vstr.32	s15, [r7, #96]
 396:./Libraries/CMSIS/DSP/Source/TransformFunctions/arm_cfft_f32.c ****       p1sp3_0 = pEnd1[ 0] - pEnd3[0];
 1098              		.loc 1 396 22 discriminator 3
 1099 048a D7F8AC30 		ldr	r3, [r7, #172]
 1100 048e 93ED007A 		vldr.32	s14, [r3]
 1101              		.loc 1 396 34 discriminator 3
 1102 0492 D7F8A430 		ldr	r3, [r7, #164]
 1103 0496 D3ED007A 		vldr.32	s15, [r3]
 1104              		.loc 1 396 15 discriminator 3
 1105 049a 77EE677A 		vsub.f32	s15, s14, s15
 1106 049e C7ED177A 		vstr.32	s15, [r7, #92]
 397:./Libraries/CMSIS/DSP/Source/TransformFunctions/arm_cfft_f32.c ****       /* col 2 */
 398:./Libraries/CMSIS/DSP/Source/TransformFunctions/arm_cfft_f32.c ****       t2[2] = pEnd2[0] - pEnd4[0] + p1sp3_1;
 1107              		.loc 1 398 20 discriminator 3
 1108 04a2 D7F8A830 		ldr	r3, [r7, #168]
 1109 04a6 93ED007A 		vldr.32	s14, [r3]
 1110              		.loc 1 398 31 discriminator 3
 1111 04aa D7F8A030 		ldr	r3, [r7, #160]
 1112 04ae D3ED007A 		vldr.32	s15, [r3]
 1113              		.loc 1 398 24 discriminator 3
 1114 04b2 37EE677A 		vsub.f32	s14, s14, s15
 1115              		.loc 1 398 35 discriminator 3
 1116 04b6 D7ED157A 		vldr.32	s15, [r7, #84]
 1117 04ba 77EE277A 		vadd.f32	s15, s14, s15
 1118              		.loc 1 398 13 discriminator 3
 1119 04be C7ED0D7A 		vstr.32	s15, [r7, #52]
 399:./Libraries/CMSIS/DSP/Source/TransformFunctions/arm_cfft_f32.c ****       t2[3] = pEnd1[0] - pEnd3[0] - pEnd2[-1] + pEnd4[-1];
 1120              		.loc 1 399 20 discriminator 3
 1121 04c2 D7F8AC30 		ldr	r3, [r7, #172]
 1122 04c6 93ED007A 		vldr.32	s14, [r3]
 1123              		.loc 1 399 31 discriminator 3
 1124 04ca D7F8A430 		ldr	r3, [r7, #164]
 1125 04ce D3ED007A 		vldr.32	s15, [r3]
 1126              		.loc 1 399 24 discriminator 3
 1127 04d2 37EE677A 		vsub.f32	s14, s14, s15
 1128              		.loc 1 399 42 discriminator 3
 1129 04d6 D7F8A830 		ldr	r3, [r7, #168]
 1130 04da 043B     		subs	r3, r3, #4
 1131 04dc D3ED007A 		vldr.32	s15, [r3]
 1132              		.loc 1 399 35 discriminator 3
 1133 04e0 37EE677A 		vsub.f32	s14, s14, s15
 1134              		.loc 1 399 54 discriminator 3
 1135 04e4 D7F8A030 		ldr	r3, [r7, #160]
 1136 04e8 043B     		subs	r3, r3, #4
 1137 04ea D3ED007A 		vldr.32	s15, [r3]
 1138              		.loc 1 399 47 discriminator 3
 1139 04ee 77EE277A 		vadd.f32	s15, s14, s15
 1140              		.loc 1 399 13 discriminator 3
 1141 04f2 C7ED0E7A 		vstr.32	s15, [r7, #56]
ARM GAS  /tmp/cckRGVoG.s 			page 28


 400:./Libraries/CMSIS/DSP/Source/TransformFunctions/arm_cfft_f32.c ****       /* col 3 */
 401:./Libraries/CMSIS/DSP/Source/TransformFunctions/arm_cfft_f32.c ****       t3[2] = p1ap3_1 - pEnd2[-1] - pEnd4[-1];
 1142              		.loc 1 401 30 discriminator 3
 1143 04f6 D7F8A830 		ldr	r3, [r7, #168]
 1144 04fa 043B     		subs	r3, r3, #4
 1145 04fc D3ED007A 		vldr.32	s15, [r3]
 1146              		.loc 1 401 23 discriminator 3
 1147 0500 97ED167A 		vldr.32	s14, [r7, #88]
 1148 0504 37EE677A 		vsub.f32	s14, s14, s15
 1149              		.loc 1 401 42 discriminator 3
 1150 0508 D7F8A030 		ldr	r3, [r7, #160]
 1151 050c 043B     		subs	r3, r3, #4
 1152 050e D3ED007A 		vldr.32	s15, [r3]
 1153              		.loc 1 401 35 discriminator 3
 1154 0512 77EE677A 		vsub.f32	s15, s14, s15
 1155              		.loc 1 401 13 discriminator 3
 1156 0516 C7ED097A 		vstr.32	s15, [r7, #36]
 402:./Libraries/CMSIS/DSP/Source/TransformFunctions/arm_cfft_f32.c ****       t3[3] = p1ap3_0 - pEnd2[ 0] - pEnd4[ 0];
 1157              		.loc 1 402 30 discriminator 3
 1158 051a D7F8A830 		ldr	r3, [r7, #168]
 1159 051e D3ED007A 		vldr.32	s15, [r3]
 1160              		.loc 1 402 23 discriminator 3
 1161 0522 97ED187A 		vldr.32	s14, [r7, #96]
 1162 0526 37EE677A 		vsub.f32	s14, s14, s15
 1163              		.loc 1 402 42 discriminator 3
 1164 052a D7F8A030 		ldr	r3, [r7, #160]
 1165 052e D3ED007A 		vldr.32	s15, [r3]
 1166              		.loc 1 402 35 discriminator 3
 1167 0532 77EE677A 		vsub.f32	s15, s14, s15
 1168              		.loc 1 402 13 discriminator 3
 1169 0536 C7ED0A7A 		vstr.32	s15, [r7, #40]
 403:./Libraries/CMSIS/DSP/Source/TransformFunctions/arm_cfft_f32.c ****       /* col 4 */
 404:./Libraries/CMSIS/DSP/Source/TransformFunctions/arm_cfft_f32.c ****       t4[2] = pEnd2[ 0] - pEnd4[ 0] - p1sp3_1;
 1170              		.loc 1 404 20 discriminator 3
 1171 053a D7F8A830 		ldr	r3, [r7, #168]
 1172 053e 93ED007A 		vldr.32	s14, [r3]
 1173              		.loc 1 404 32 discriminator 3
 1174 0542 D7F8A030 		ldr	r3, [r7, #160]
 1175 0546 D3ED007A 		vldr.32	s15, [r3]
 1176              		.loc 1 404 25 discriminator 3
 1177 054a 37EE677A 		vsub.f32	s14, s14, s15
 1178              		.loc 1 404 37 discriminator 3
 1179 054e D7ED157A 		vldr.32	s15, [r7, #84]
 1180 0552 77EE677A 		vsub.f32	s15, s14, s15
 1181              		.loc 1 404 13 discriminator 3
 1182 0556 C7ED057A 		vstr.32	s15, [r7, #20]
 405:./Libraries/CMSIS/DSP/Source/TransformFunctions/arm_cfft_f32.c ****       t4[3] = pEnd4[-1] - pEnd2[-1] - p1sp3_0;
 1183              		.loc 1 405 20 discriminator 3
 1184 055a D7F8A030 		ldr	r3, [r7, #160]
 1185 055e 043B     		subs	r3, r3, #4
 1186 0560 93ED007A 		vldr.32	s14, [r3]
 1187              		.loc 1 405 32 discriminator 3
 1188 0564 D7F8A830 		ldr	r3, [r7, #168]
 1189 0568 043B     		subs	r3, r3, #4
 1190 056a D3ED007A 		vldr.32	s15, [r3]
 1191              		.loc 1 405 25 discriminator 3
 1192 056e 37EE677A 		vsub.f32	s14, s14, s15
ARM GAS  /tmp/cckRGVoG.s 			page 29


 1193              		.loc 1 405 37 discriminator 3
 1194 0572 D7ED177A 		vldr.32	s15, [r7, #92]
 1195 0576 77EE677A 		vsub.f32	s15, s14, s15
 1196              		.loc 1 405 13 discriminator 3
 1197 057a C7ED067A 		vstr.32	s15, [r7, #24]
 406:./Libraries/CMSIS/DSP/Source/TransformFunctions/arm_cfft_f32.c ****       /* col 1 - Bottom */
 407:./Libraries/CMSIS/DSP/Source/TransformFunctions/arm_cfft_f32.c ****       *pEnd1-- = p1ap3_0 + pEnd2[ 0] + pEnd4[ 0];
 1198              		.loc 1 407 33 discriminator 3
 1199 057e D7F8A830 		ldr	r3, [r7, #168]
 1200 0582 93ED007A 		vldr.32	s14, [r3]
 1201              		.loc 1 407 26 discriminator 3
 1202 0586 D7ED187A 		vldr.32	s15, [r7, #96]
 1203 058a 37EE277A 		vadd.f32	s14, s14, s15
 1204              		.loc 1 407 45 discriminator 3
 1205 058e D7F8A030 		ldr	r3, [r7, #160]
 1206 0592 D3ED007A 		vldr.32	s15, [r3]
 1207              		.loc 1 407 13 discriminator 3
 1208 0596 D7F8AC30 		ldr	r3, [r7, #172]
 1209 059a 1A1F     		subs	r2, r3, #4
 1210 059c C7F8AC20 		str	r2, [r7, #172]
 1211              		.loc 1 407 38 discriminator 3
 1212 05a0 77EE277A 		vadd.f32	s15, s14, s15
 1213              		.loc 1 407 16 discriminator 3
 1214 05a4 C3ED007A 		vstr.32	s15, [r3]
 408:./Libraries/CMSIS/DSP/Source/TransformFunctions/arm_cfft_f32.c ****       *pEnd1-- = p1ap3_1 + pEnd2[-1] + pEnd4[-1];
 1215              		.loc 1 408 33 discriminator 3
 1216 05a8 D7F8A830 		ldr	r3, [r7, #168]
 1217 05ac 043B     		subs	r3, r3, #4
 1218 05ae 93ED007A 		vldr.32	s14, [r3]
 1219              		.loc 1 408 26 discriminator 3
 1220 05b2 D7ED167A 		vldr.32	s15, [r7, #88]
 1221 05b6 37EE277A 		vadd.f32	s14, s14, s15
 1222              		.loc 1 408 45 discriminator 3
 1223 05ba D7F8A030 		ldr	r3, [r7, #160]
 1224 05be 043B     		subs	r3, r3, #4
 1225 05c0 D3ED007A 		vldr.32	s15, [r3]
 1226              		.loc 1 408 13 discriminator 3
 1227 05c4 D7F8AC30 		ldr	r3, [r7, #172]
 1228 05c8 1A1F     		subs	r2, r3, #4
 1229 05ca C7F8AC20 		str	r2, [r7, #172]
 1230              		.loc 1 408 38 discriminator 3
 1231 05ce 77EE277A 		vadd.f32	s15, s14, s15
 1232              		.loc 1 408 16 discriminator 3
 1233 05d2 C3ED007A 		vstr.32	s15, [r3]
 409:./Libraries/CMSIS/DSP/Source/TransformFunctions/arm_cfft_f32.c **** 
 410:./Libraries/CMSIS/DSP/Source/TransformFunctions/arm_cfft_f32.c ****       /* COL 2 */
 411:./Libraries/CMSIS/DSP/Source/TransformFunctions/arm_cfft_f32.c ****       /* read twiddle factors */
 412:./Libraries/CMSIS/DSP/Source/TransformFunctions/arm_cfft_f32.c ****       twR = *tw2++;
 1234              		.loc 1 412 17 discriminator 3
 1235 05d6 D7F89C30 		ldr	r3, [r7, #156]
 1236 05da 1A1D     		adds	r2, r3, #4
 1237 05dc C7F89C20 		str	r2, [r7, #156]
 1238              		.loc 1 412 11 discriminator 3
 1239 05e0 1B68     		ldr	r3, [r3]	@ float
 1240 05e2 3B65     		str	r3, [r7, #80]	@ float
 413:./Libraries/CMSIS/DSP/Source/TransformFunctions/arm_cfft_f32.c ****       twI = *tw2++;
 1241              		.loc 1 413 17 discriminator 3
ARM GAS  /tmp/cckRGVoG.s 			page 30


 1242 05e4 D7F89C30 		ldr	r3, [r7, #156]
 1243 05e8 1A1D     		adds	r2, r3, #4
 1244 05ea C7F89C20 		str	r2, [r7, #156]
 1245              		.loc 1 413 11 discriminator 3
 1246 05ee 1B68     		ldr	r3, [r3]	@ float
 1247 05f0 FB64     		str	r3, [r7, #76]	@ float
 414:./Libraries/CMSIS/DSP/Source/TransformFunctions/arm_cfft_f32.c ****       /* multiply by twiddle factors */
 415:./Libraries/CMSIS/DSP/Source/TransformFunctions/arm_cfft_f32.c ****       /*  let    Z1 = a + i(b),   Z2 = c + i(d) */
 416:./Libraries/CMSIS/DSP/Source/TransformFunctions/arm_cfft_f32.c ****       /*   =>  Z1 * Z2  =  (a*c - b*d) + i(b*c + a*d) */
 417:./Libraries/CMSIS/DSP/Source/TransformFunctions/arm_cfft_f32.c **** 
 418:./Libraries/CMSIS/DSP/Source/TransformFunctions/arm_cfft_f32.c ****       /* Top */
 419:./Libraries/CMSIS/DSP/Source/TransformFunctions/arm_cfft_f32.c ****       m0 = t2[0] * twR;
 1248              		.loc 1 419 14 discriminator 3
 1249 05f2 D7ED0B7A 		vldr.32	s15, [r7, #44]
 1250              		.loc 1 419 10 discriminator 3
 1251 05f6 97ED147A 		vldr.32	s14, [r7, #80]
 1252 05fa 67EE277A 		vmul.f32	s15, s14, s15
 1253 05fe C7ED127A 		vstr.32	s15, [r7, #72]
 420:./Libraries/CMSIS/DSP/Source/TransformFunctions/arm_cfft_f32.c ****       m1 = t2[1] * twI;
 1254              		.loc 1 420 14 discriminator 3
 1255 0602 D7ED0C7A 		vldr.32	s15, [r7, #48]
 1256              		.loc 1 420 10 discriminator 3
 1257 0606 97ED137A 		vldr.32	s14, [r7, #76]
 1258 060a 67EE277A 		vmul.f32	s15, s14, s15
 1259 060e C7ED117A 		vstr.32	s15, [r7, #68]
 421:./Libraries/CMSIS/DSP/Source/TransformFunctions/arm_cfft_f32.c ****       m2 = t2[1] * twR;
 1260              		.loc 1 421 14 discriminator 3
 1261 0612 D7ED0C7A 		vldr.32	s15, [r7, #48]
 1262              		.loc 1 421 10 discriminator 3
 1263 0616 97ED147A 		vldr.32	s14, [r7, #80]
 1264 061a 67EE277A 		vmul.f32	s15, s14, s15
 1265 061e C7ED107A 		vstr.32	s15, [r7, #64]
 422:./Libraries/CMSIS/DSP/Source/TransformFunctions/arm_cfft_f32.c ****       m3 = t2[0] * twI;
 1266              		.loc 1 422 14 discriminator 3
 1267 0622 D7ED0B7A 		vldr.32	s15, [r7, #44]
 1268              		.loc 1 422 10 discriminator 3
 1269 0626 97ED137A 		vldr.32	s14, [r7, #76]
 1270 062a 67EE277A 		vmul.f32	s15, s14, s15
 1271 062e C7ED0F7A 		vstr.32	s15, [r7, #60]
 423:./Libraries/CMSIS/DSP/Source/TransformFunctions/arm_cfft_f32.c **** 
 424:./Libraries/CMSIS/DSP/Source/TransformFunctions/arm_cfft_f32.c ****       *p2++ = m0 + m1;
 1272              		.loc 1 424 10 discriminator 3
 1273 0632 D7F89030 		ldr	r3, [r7, #144]
 1274 0636 1A1D     		adds	r2, r3, #4
 1275 0638 C7F89020 		str	r2, [r7, #144]
 1276              		.loc 1 424 18 discriminator 3
 1277 063c 97ED127A 		vldr.32	s14, [r7, #72]
 1278 0640 D7ED117A 		vldr.32	s15, [r7, #68]
 1279 0644 77EE277A 		vadd.f32	s15, s14, s15
 1280              		.loc 1 424 13 discriminator 3
 1281 0648 C3ED007A 		vstr.32	s15, [r3]
 425:./Libraries/CMSIS/DSP/Source/TransformFunctions/arm_cfft_f32.c ****       *p2++ = m2 - m3;
 1282              		.loc 1 425 10 discriminator 3
 1283 064c D7F89030 		ldr	r3, [r7, #144]
 1284 0650 1A1D     		adds	r2, r3, #4
 1285 0652 C7F89020 		str	r2, [r7, #144]
 1286              		.loc 1 425 18 discriminator 3
ARM GAS  /tmp/cckRGVoG.s 			page 31


 1287 0656 97ED107A 		vldr.32	s14, [r7, #64]
 1288 065a D7ED0F7A 		vldr.32	s15, [r7, #60]
 1289 065e 77EE677A 		vsub.f32	s15, s14, s15
 1290              		.loc 1 425 13 discriminator 3
 1291 0662 C3ED007A 		vstr.32	s15, [r3]
 426:./Libraries/CMSIS/DSP/Source/TransformFunctions/arm_cfft_f32.c ****       /* use vertical symmetry col 2 */
 427:./Libraries/CMSIS/DSP/Source/TransformFunctions/arm_cfft_f32.c ****       /* 0.9997 - 0.0245i  <==>  0.0245 - 0.9997i */
 428:./Libraries/CMSIS/DSP/Source/TransformFunctions/arm_cfft_f32.c ****       /* Bottom */
 429:./Libraries/CMSIS/DSP/Source/TransformFunctions/arm_cfft_f32.c ****       m0 = t2[3] * twI;
 1292              		.loc 1 429 14 discriminator 3
 1293 0666 D7ED0E7A 		vldr.32	s15, [r7, #56]
 1294              		.loc 1 429 10 discriminator 3
 1295 066a 97ED137A 		vldr.32	s14, [r7, #76]
 1296 066e 67EE277A 		vmul.f32	s15, s14, s15
 1297 0672 C7ED127A 		vstr.32	s15, [r7, #72]
 430:./Libraries/CMSIS/DSP/Source/TransformFunctions/arm_cfft_f32.c ****       m1 = t2[2] * twR;
 1298              		.loc 1 430 14 discriminator 3
 1299 0676 D7ED0D7A 		vldr.32	s15, [r7, #52]
 1300              		.loc 1 430 10 discriminator 3
 1301 067a 97ED147A 		vldr.32	s14, [r7, #80]
 1302 067e 67EE277A 		vmul.f32	s15, s14, s15
 1303 0682 C7ED117A 		vstr.32	s15, [r7, #68]
 431:./Libraries/CMSIS/DSP/Source/TransformFunctions/arm_cfft_f32.c ****       m2 = t2[2] * twI;
 1304              		.loc 1 431 14 discriminator 3
 1305 0686 D7ED0D7A 		vldr.32	s15, [r7, #52]
 1306              		.loc 1 431 10 discriminator 3
 1307 068a 97ED137A 		vldr.32	s14, [r7, #76]
 1308 068e 67EE277A 		vmul.f32	s15, s14, s15
 1309 0692 C7ED107A 		vstr.32	s15, [r7, #64]
 432:./Libraries/CMSIS/DSP/Source/TransformFunctions/arm_cfft_f32.c ****       m3 = t2[3] * twR;
 1310              		.loc 1 432 14 discriminator 3
 1311 0696 D7ED0E7A 		vldr.32	s15, [r7, #56]
 1312              		.loc 1 432 10 discriminator 3
 1313 069a 97ED147A 		vldr.32	s14, [r7, #80]
 1314 069e 67EE277A 		vmul.f32	s15, s14, s15
 1315 06a2 C7ED0F7A 		vstr.32	s15, [r7, #60]
 433:./Libraries/CMSIS/DSP/Source/TransformFunctions/arm_cfft_f32.c **** 
 434:./Libraries/CMSIS/DSP/Source/TransformFunctions/arm_cfft_f32.c ****       *pEnd2-- = m0 - m1;
 1316              		.loc 1 434 13 discriminator 3
 1317 06a6 D7F8A830 		ldr	r3, [r7, #168]
 1318 06aa 1A1F     		subs	r2, r3, #4
 1319 06ac C7F8A820 		str	r2, [r7, #168]
 1320              		.loc 1 434 21 discriminator 3
 1321 06b0 97ED127A 		vldr.32	s14, [r7, #72]
 1322 06b4 D7ED117A 		vldr.32	s15, [r7, #68]
 1323 06b8 77EE677A 		vsub.f32	s15, s14, s15
 1324              		.loc 1 434 16 discriminator 3
 1325 06bc C3ED007A 		vstr.32	s15, [r3]
 435:./Libraries/CMSIS/DSP/Source/TransformFunctions/arm_cfft_f32.c ****       *pEnd2-- = m2 + m3;
 1326              		.loc 1 435 13 discriminator 3
 1327 06c0 D7F8A830 		ldr	r3, [r7, #168]
 1328 06c4 1A1F     		subs	r2, r3, #4
 1329 06c6 C7F8A820 		str	r2, [r7, #168]
 1330              		.loc 1 435 21 discriminator 3
 1331 06ca 97ED107A 		vldr.32	s14, [r7, #64]
 1332 06ce D7ED0F7A 		vldr.32	s15, [r7, #60]
 1333 06d2 77EE277A 		vadd.f32	s15, s14, s15
ARM GAS  /tmp/cckRGVoG.s 			page 32


 1334              		.loc 1 435 16 discriminator 3
 1335 06d6 C3ED007A 		vstr.32	s15, [r3]
 436:./Libraries/CMSIS/DSP/Source/TransformFunctions/arm_cfft_f32.c **** 
 437:./Libraries/CMSIS/DSP/Source/TransformFunctions/arm_cfft_f32.c ****       /* COL 3 */
 438:./Libraries/CMSIS/DSP/Source/TransformFunctions/arm_cfft_f32.c ****       twR = tw3[0];
 1336              		.loc 1 438 11 discriminator 3
 1337 06da D7F89830 		ldr	r3, [r7, #152]
 1338 06de 1B68     		ldr	r3, [r3]	@ float
 1339 06e0 3B65     		str	r3, [r7, #80]	@ float
 439:./Libraries/CMSIS/DSP/Source/TransformFunctions/arm_cfft_f32.c ****       twI = tw3[1];
 1340              		.loc 1 439 11 discriminator 3
 1341 06e2 D7F89830 		ldr	r3, [r7, #152]
 1342 06e6 5B68     		ldr	r3, [r3, #4]	@ float
 1343 06e8 FB64     		str	r3, [r7, #76]	@ float
 440:./Libraries/CMSIS/DSP/Source/TransformFunctions/arm_cfft_f32.c ****       tw3 += twMod3;
 1344              		.loc 1 440 11 discriminator 3
 1345 06ea BB6E     		ldr	r3, [r7, #104]
 1346 06ec 9B00     		lsls	r3, r3, #2
 1347 06ee D7F89820 		ldr	r2, [r7, #152]
 1348 06f2 1344     		add	r3, r3, r2
 1349 06f4 C7F89830 		str	r3, [r7, #152]
 441:./Libraries/CMSIS/DSP/Source/TransformFunctions/arm_cfft_f32.c ****       /* Top */
 442:./Libraries/CMSIS/DSP/Source/TransformFunctions/arm_cfft_f32.c ****       m0 = t3[0] * twR;
 1350              		.loc 1 442 14 discriminator 3
 1351 06f8 D7ED077A 		vldr.32	s15, [r7, #28]
 1352              		.loc 1 442 10 discriminator 3
 1353 06fc 97ED147A 		vldr.32	s14, [r7, #80]
 1354 0700 67EE277A 		vmul.f32	s15, s14, s15
 1355 0704 C7ED127A 		vstr.32	s15, [r7, #72]
 443:./Libraries/CMSIS/DSP/Source/TransformFunctions/arm_cfft_f32.c ****       m1 = t3[1] * twI;
 1356              		.loc 1 443 14 discriminator 3
 1357 0708 D7ED087A 		vldr.32	s15, [r7, #32]
 1358              		.loc 1 443 10 discriminator 3
 1359 070c 97ED137A 		vldr.32	s14, [r7, #76]
 1360 0710 67EE277A 		vmul.f32	s15, s14, s15
 1361 0714 C7ED117A 		vstr.32	s15, [r7, #68]
 444:./Libraries/CMSIS/DSP/Source/TransformFunctions/arm_cfft_f32.c ****       m2 = t3[1] * twR;
 1362              		.loc 1 444 14 discriminator 3
 1363 0718 D7ED087A 		vldr.32	s15, [r7, #32]
 1364              		.loc 1 444 10 discriminator 3
 1365 071c 97ED147A 		vldr.32	s14, [r7, #80]
 1366 0720 67EE277A 		vmul.f32	s15, s14, s15
 1367 0724 C7ED107A 		vstr.32	s15, [r7, #64]
 445:./Libraries/CMSIS/DSP/Source/TransformFunctions/arm_cfft_f32.c ****       m3 = t3[0] * twI;
 1368              		.loc 1 445 14 discriminator 3
 1369 0728 D7ED077A 		vldr.32	s15, [r7, #28]
 1370              		.loc 1 445 10 discriminator 3
 1371 072c 97ED137A 		vldr.32	s14, [r7, #76]
 1372 0730 67EE277A 		vmul.f32	s15, s14, s15
 1373 0734 C7ED0F7A 		vstr.32	s15, [r7, #60]
 446:./Libraries/CMSIS/DSP/Source/TransformFunctions/arm_cfft_f32.c **** 
 447:./Libraries/CMSIS/DSP/Source/TransformFunctions/arm_cfft_f32.c ****       *p3++ = m0 + m1;
 1374              		.loc 1 447 10 discriminator 3
 1375 0738 D7F88C30 		ldr	r3, [r7, #140]
 1376 073c 1A1D     		adds	r2, r3, #4
 1377 073e C7F88C20 		str	r2, [r7, #140]
 1378              		.loc 1 447 18 discriminator 3
ARM GAS  /tmp/cckRGVoG.s 			page 33


 1379 0742 97ED127A 		vldr.32	s14, [r7, #72]
 1380 0746 D7ED117A 		vldr.32	s15, [r7, #68]
 1381 074a 77EE277A 		vadd.f32	s15, s14, s15
 1382              		.loc 1 447 13 discriminator 3
 1383 074e C3ED007A 		vstr.32	s15, [r3]
 448:./Libraries/CMSIS/DSP/Source/TransformFunctions/arm_cfft_f32.c ****       *p3++ = m2 - m3;
 1384              		.loc 1 448 10 discriminator 3
 1385 0752 D7F88C30 		ldr	r3, [r7, #140]
 1386 0756 1A1D     		adds	r2, r3, #4
 1387 0758 C7F88C20 		str	r2, [r7, #140]
 1388              		.loc 1 448 18 discriminator 3
 1389 075c 97ED107A 		vldr.32	s14, [r7, #64]
 1390 0760 D7ED0F7A 		vldr.32	s15, [r7, #60]
 1391 0764 77EE677A 		vsub.f32	s15, s14, s15
 1392              		.loc 1 448 13 discriminator 3
 1393 0768 C3ED007A 		vstr.32	s15, [r3]
 449:./Libraries/CMSIS/DSP/Source/TransformFunctions/arm_cfft_f32.c ****       /* use vertical symmetry col 3 */
 450:./Libraries/CMSIS/DSP/Source/TransformFunctions/arm_cfft_f32.c ****       /* 0.9988 - 0.0491i  <==>  -0.9988 - 0.0491i */
 451:./Libraries/CMSIS/DSP/Source/TransformFunctions/arm_cfft_f32.c ****       /* Bottom */
 452:./Libraries/CMSIS/DSP/Source/TransformFunctions/arm_cfft_f32.c ****       m0 = -t3[3] * twR;
 1394              		.loc 1 452 15 discriminator 3
 1395 076c D7ED0A7A 		vldr.32	s15, [r7, #40]
 1396              		.loc 1 452 12 discriminator 3
 1397 0770 F1EE677A 		vneg.f32	s15, s15
 1398              		.loc 1 452 10 discriminator 3
 1399 0774 97ED147A 		vldr.32	s14, [r7, #80]
 1400 0778 67EE277A 		vmul.f32	s15, s14, s15
 1401 077c C7ED127A 		vstr.32	s15, [r7, #72]
 453:./Libraries/CMSIS/DSP/Source/TransformFunctions/arm_cfft_f32.c ****       m1 =  t3[2] * twI;
 1402              		.loc 1 453 15 discriminator 3
 1403 0780 D7ED097A 		vldr.32	s15, [r7, #36]
 1404              		.loc 1 453 10 discriminator 3
 1405 0784 97ED137A 		vldr.32	s14, [r7, #76]
 1406 0788 67EE277A 		vmul.f32	s15, s14, s15
 1407 078c C7ED117A 		vstr.32	s15, [r7, #68]
 454:./Libraries/CMSIS/DSP/Source/TransformFunctions/arm_cfft_f32.c ****       m2 =  t3[2] * twR;
 1408              		.loc 1 454 15 discriminator 3
 1409 0790 D7ED097A 		vldr.32	s15, [r7, #36]
 1410              		.loc 1 454 10 discriminator 3
 1411 0794 97ED147A 		vldr.32	s14, [r7, #80]
 1412 0798 67EE277A 		vmul.f32	s15, s14, s15
 1413 079c C7ED107A 		vstr.32	s15, [r7, #64]
 455:./Libraries/CMSIS/DSP/Source/TransformFunctions/arm_cfft_f32.c ****       m3 =  t3[3] * twI;
 1414              		.loc 1 455 15 discriminator 3
 1415 07a0 D7ED0A7A 		vldr.32	s15, [r7, #40]
 1416              		.loc 1 455 10 discriminator 3
 1417 07a4 97ED137A 		vldr.32	s14, [r7, #76]
 1418 07a8 67EE277A 		vmul.f32	s15, s14, s15
 1419 07ac C7ED0F7A 		vstr.32	s15, [r7, #60]
 456:./Libraries/CMSIS/DSP/Source/TransformFunctions/arm_cfft_f32.c **** 
 457:./Libraries/CMSIS/DSP/Source/TransformFunctions/arm_cfft_f32.c ****       *pEnd3-- = m0 - m1;
 1420              		.loc 1 457 13 discriminator 3
 1421 07b0 D7F8A430 		ldr	r3, [r7, #164]
 1422 07b4 1A1F     		subs	r2, r3, #4
 1423 07b6 C7F8A420 		str	r2, [r7, #164]
 1424              		.loc 1 457 21 discriminator 3
 1425 07ba 97ED127A 		vldr.32	s14, [r7, #72]
ARM GAS  /tmp/cckRGVoG.s 			page 34


 1426 07be D7ED117A 		vldr.32	s15, [r7, #68]
 1427 07c2 77EE677A 		vsub.f32	s15, s14, s15
 1428              		.loc 1 457 16 discriminator 3
 1429 07c6 C3ED007A 		vstr.32	s15, [r3]
 458:./Libraries/CMSIS/DSP/Source/TransformFunctions/arm_cfft_f32.c ****       *pEnd3-- = m3 - m2;
 1430              		.loc 1 458 13 discriminator 3
 1431 07ca D7F8A430 		ldr	r3, [r7, #164]
 1432 07ce 1A1F     		subs	r2, r3, #4
 1433 07d0 C7F8A420 		str	r2, [r7, #164]
 1434              		.loc 1 458 21 discriminator 3
 1435 07d4 97ED0F7A 		vldr.32	s14, [r7, #60]
 1436 07d8 D7ED107A 		vldr.32	s15, [r7, #64]
 1437 07dc 77EE677A 		vsub.f32	s15, s14, s15
 1438              		.loc 1 458 16 discriminator 3
 1439 07e0 C3ED007A 		vstr.32	s15, [r3]
 459:./Libraries/CMSIS/DSP/Source/TransformFunctions/arm_cfft_f32.c **** 
 460:./Libraries/CMSIS/DSP/Source/TransformFunctions/arm_cfft_f32.c ****       /* COL 4 */
 461:./Libraries/CMSIS/DSP/Source/TransformFunctions/arm_cfft_f32.c ****       twR = tw4[0];
 1440              		.loc 1 461 11 discriminator 3
 1441 07e4 D7F89430 		ldr	r3, [r7, #148]
 1442 07e8 1B68     		ldr	r3, [r3]	@ float
 1443 07ea 3B65     		str	r3, [r7, #80]	@ float
 462:./Libraries/CMSIS/DSP/Source/TransformFunctions/arm_cfft_f32.c ****       twI = tw4[1];
 1444              		.loc 1 462 11 discriminator 3
 1445 07ec D7F89430 		ldr	r3, [r7, #148]
 1446 07f0 5B68     		ldr	r3, [r3, #4]	@ float
 1447 07f2 FB64     		str	r3, [r7, #76]	@ float
 463:./Libraries/CMSIS/DSP/Source/TransformFunctions/arm_cfft_f32.c ****       tw4 += twMod4;
 1448              		.loc 1 463 11 discriminator 3
 1449 07f4 7B6E     		ldr	r3, [r7, #100]
 1450 07f6 9B00     		lsls	r3, r3, #2
 1451 07f8 D7F89420 		ldr	r2, [r7, #148]
 1452 07fc 1344     		add	r3, r3, r2
 1453 07fe C7F89430 		str	r3, [r7, #148]
 464:./Libraries/CMSIS/DSP/Source/TransformFunctions/arm_cfft_f32.c ****       /* Top */
 465:./Libraries/CMSIS/DSP/Source/TransformFunctions/arm_cfft_f32.c ****       m0 = t4[0] * twR;
 1454              		.loc 1 465 14 discriminator 3
 1455 0802 D7ED037A 		vldr.32	s15, [r7, #12]
 1456              		.loc 1 465 10 discriminator 3
 1457 0806 97ED147A 		vldr.32	s14, [r7, #80]
 1458 080a 67EE277A 		vmul.f32	s15, s14, s15
 1459 080e C7ED127A 		vstr.32	s15, [r7, #72]
 466:./Libraries/CMSIS/DSP/Source/TransformFunctions/arm_cfft_f32.c ****       m1 = t4[1] * twI;
 1460              		.loc 1 466 14 discriminator 3
 1461 0812 D7ED047A 		vldr.32	s15, [r7, #16]
 1462              		.loc 1 466 10 discriminator 3
 1463 0816 97ED137A 		vldr.32	s14, [r7, #76]
 1464 081a 67EE277A 		vmul.f32	s15, s14, s15
 1465 081e C7ED117A 		vstr.32	s15, [r7, #68]
 467:./Libraries/CMSIS/DSP/Source/TransformFunctions/arm_cfft_f32.c ****       m2 = t4[1] * twR;
 1466              		.loc 1 467 14 discriminator 3
 1467 0822 D7ED047A 		vldr.32	s15, [r7, #16]
 1468              		.loc 1 467 10 discriminator 3
 1469 0826 97ED147A 		vldr.32	s14, [r7, #80]
 1470 082a 67EE277A 		vmul.f32	s15, s14, s15
 1471 082e C7ED107A 		vstr.32	s15, [r7, #64]
 468:./Libraries/CMSIS/DSP/Source/TransformFunctions/arm_cfft_f32.c ****       m3 = t4[0] * twI;
ARM GAS  /tmp/cckRGVoG.s 			page 35


 1472              		.loc 1 468 14 discriminator 3
 1473 0832 D7ED037A 		vldr.32	s15, [r7, #12]
 1474              		.loc 1 468 10 discriminator 3
 1475 0836 97ED137A 		vldr.32	s14, [r7, #76]
 1476 083a 67EE277A 		vmul.f32	s15, s14, s15
 1477 083e C7ED0F7A 		vstr.32	s15, [r7, #60]
 469:./Libraries/CMSIS/DSP/Source/TransformFunctions/arm_cfft_f32.c **** 
 470:./Libraries/CMSIS/DSP/Source/TransformFunctions/arm_cfft_f32.c ****       *p4++ = m0 + m1;
 1478              		.loc 1 470 10 discriminator 3
 1479 0842 D7F88830 		ldr	r3, [r7, #136]
 1480 0846 1A1D     		adds	r2, r3, #4
 1481 0848 C7F88820 		str	r2, [r7, #136]
 1482              		.loc 1 470 18 discriminator 3
 1483 084c 97ED127A 		vldr.32	s14, [r7, #72]
 1484 0850 D7ED117A 		vldr.32	s15, [r7, #68]
 1485 0854 77EE277A 		vadd.f32	s15, s14, s15
 1486              		.loc 1 470 13 discriminator 3
 1487 0858 C3ED007A 		vstr.32	s15, [r3]
 471:./Libraries/CMSIS/DSP/Source/TransformFunctions/arm_cfft_f32.c ****       *p4++ = m2 - m3;
 1488              		.loc 1 471 10 discriminator 3
 1489 085c D7F88830 		ldr	r3, [r7, #136]
 1490 0860 1A1D     		adds	r2, r3, #4
 1491 0862 C7F88820 		str	r2, [r7, #136]
 1492              		.loc 1 471 18 discriminator 3
 1493 0866 97ED107A 		vldr.32	s14, [r7, #64]
 1494 086a D7ED0F7A 		vldr.32	s15, [r7, #60]
 1495 086e 77EE677A 		vsub.f32	s15, s14, s15
 1496              		.loc 1 471 13 discriminator 3
 1497 0872 C3ED007A 		vstr.32	s15, [r3]
 472:./Libraries/CMSIS/DSP/Source/TransformFunctions/arm_cfft_f32.c ****       /* use vertical symmetry col 4 */
 473:./Libraries/CMSIS/DSP/Source/TransformFunctions/arm_cfft_f32.c ****       /* 0.9973 - 0.0736i  <==>  -0.0736 + 0.9973i */
 474:./Libraries/CMSIS/DSP/Source/TransformFunctions/arm_cfft_f32.c ****       /* Bottom */
 475:./Libraries/CMSIS/DSP/Source/TransformFunctions/arm_cfft_f32.c ****       m0 = t4[3] * twI;
 1498              		.loc 1 475 14 discriminator 3
 1499 0876 D7ED067A 		vldr.32	s15, [r7, #24]
 1500              		.loc 1 475 10 discriminator 3
 1501 087a 97ED137A 		vldr.32	s14, [r7, #76]
 1502 087e 67EE277A 		vmul.f32	s15, s14, s15
 1503 0882 C7ED127A 		vstr.32	s15, [r7, #72]
 476:./Libraries/CMSIS/DSP/Source/TransformFunctions/arm_cfft_f32.c ****       m1 = t4[2] * twR;
 1504              		.loc 1 476 14 discriminator 3
 1505 0886 D7ED057A 		vldr.32	s15, [r7, #20]
 1506              		.loc 1 476 10 discriminator 3
 1507 088a 97ED147A 		vldr.32	s14, [r7, #80]
 1508 088e 67EE277A 		vmul.f32	s15, s14, s15
 1509 0892 C7ED117A 		vstr.32	s15, [r7, #68]
 477:./Libraries/CMSIS/DSP/Source/TransformFunctions/arm_cfft_f32.c ****       m2 = t4[2] * twI;
 1510              		.loc 1 477 14 discriminator 3
 1511 0896 D7ED057A 		vldr.32	s15, [r7, #20]
 1512              		.loc 1 477 10 discriminator 3
 1513 089a 97ED137A 		vldr.32	s14, [r7, #76]
 1514 089e 67EE277A 		vmul.f32	s15, s14, s15
 1515 08a2 C7ED107A 		vstr.32	s15, [r7, #64]
 478:./Libraries/CMSIS/DSP/Source/TransformFunctions/arm_cfft_f32.c ****       m3 = t4[3] * twR;
 1516              		.loc 1 478 14 discriminator 3
 1517 08a6 D7ED067A 		vldr.32	s15, [r7, #24]
 1518              		.loc 1 478 10 discriminator 3
ARM GAS  /tmp/cckRGVoG.s 			page 36


 1519 08aa 97ED147A 		vldr.32	s14, [r7, #80]
 1520 08ae 67EE277A 		vmul.f32	s15, s14, s15
 1521 08b2 C7ED0F7A 		vstr.32	s15, [r7, #60]
 479:./Libraries/CMSIS/DSP/Source/TransformFunctions/arm_cfft_f32.c **** 
 480:./Libraries/CMSIS/DSP/Source/TransformFunctions/arm_cfft_f32.c ****       *pEnd4-- = m0 - m1;
 1522              		.loc 1 480 13 discriminator 3
 1523 08b6 D7F8A030 		ldr	r3, [r7, #160]
 1524 08ba 1A1F     		subs	r2, r3, #4
 1525 08bc C7F8A020 		str	r2, [r7, #160]
 1526              		.loc 1 480 21 discriminator 3
 1527 08c0 97ED127A 		vldr.32	s14, [r7, #72]
 1528 08c4 D7ED117A 		vldr.32	s15, [r7, #68]
 1529 08c8 77EE677A 		vsub.f32	s15, s14, s15
 1530              		.loc 1 480 16 discriminator 3
 1531 08cc C3ED007A 		vstr.32	s15, [r3]
 481:./Libraries/CMSIS/DSP/Source/TransformFunctions/arm_cfft_f32.c ****       *pEnd4-- = m2 + m3;
 1532              		.loc 1 481 13 discriminator 3
 1533 08d0 D7F8A030 		ldr	r3, [r7, #160]
 1534 08d4 1A1F     		subs	r2, r3, #4
 1535 08d6 C7F8A020 		str	r2, [r7, #160]
 1536              		.loc 1 481 21 discriminator 3
 1537 08da 97ED107A 		vldr.32	s14, [r7, #64]
 1538 08de D7ED0F7A 		vldr.32	s15, [r7, #60]
 1539 08e2 77EE277A 		vadd.f32	s15, s14, s15
 1540              		.loc 1 481 16 discriminator 3
 1541 08e6 C3ED007A 		vstr.32	s15, [r3]
 372:./Libraries/CMSIS/DSP/Source/TransformFunctions/arm_cfft_f32.c ****     {
 1542              		.loc 1 372 36 discriminator 3
 1543 08ea D7F88430 		ldr	r3, [r7, #132]
 1544 08ee 013B     		subs	r3, r3, #1
 1545 08f0 C7F88430 		str	r3, [r7, #132]
 1546              	.L5:
 372:./Libraries/CMSIS/DSP/Source/TransformFunctions/arm_cfft_f32.c ****     {
 1547              		.loc 1 372 5 discriminator 1
 1548 08f4 D7F88430 		ldr	r3, [r7, #132]
 1549 08f8 002B     		cmp	r3, #0
 1550 08fa 7FF4E0AC 		bne	.L6
 482:./Libraries/CMSIS/DSP/Source/TransformFunctions/arm_cfft_f32.c ****     }
 483:./Libraries/CMSIS/DSP/Source/TransformFunctions/arm_cfft_f32.c **** 
 484:./Libraries/CMSIS/DSP/Source/TransformFunctions/arm_cfft_f32.c ****     /* MIDDLE */
 485:./Libraries/CMSIS/DSP/Source/TransformFunctions/arm_cfft_f32.c ****     /* Twiddle factors are */
 486:./Libraries/CMSIS/DSP/Source/TransformFunctions/arm_cfft_f32.c ****     /*  1.0000  0.7071-0.7071i  -1.0000i  -0.7071-0.7071i */
 487:./Libraries/CMSIS/DSP/Source/TransformFunctions/arm_cfft_f32.c ****     p1ap3_0 = p1[0] + p3[0];
 1551              		.loc 1 487 17
 1552 08fe 3B68     		ldr	r3, [r7]
 1553 0900 93ED007A 		vldr.32	s14, [r3]
 1554              		.loc 1 487 25
 1555 0904 D7F88C30 		ldr	r3, [r7, #140]
 1556 0908 D3ED007A 		vldr.32	s15, [r3]
 1557              		.loc 1 487 13
 1558 090c 77EE277A 		vadd.f32	s15, s14, s15
 1559 0910 C7ED187A 		vstr.32	s15, [r7, #96]
 488:./Libraries/CMSIS/DSP/Source/TransformFunctions/arm_cfft_f32.c ****     p1sp3_0 = p1[0] - p3[0];
 1560              		.loc 1 488 17
 1561 0914 3B68     		ldr	r3, [r7]
 1562 0916 93ED007A 		vldr.32	s14, [r3]
 1563              		.loc 1 488 25
ARM GAS  /tmp/cckRGVoG.s 			page 37


 1564 091a D7F88C30 		ldr	r3, [r7, #140]
 1565 091e D3ED007A 		vldr.32	s15, [r3]
 1566              		.loc 1 488 13
 1567 0922 77EE677A 		vsub.f32	s15, s14, s15
 1568 0926 C7ED177A 		vstr.32	s15, [r7, #92]
 489:./Libraries/CMSIS/DSP/Source/TransformFunctions/arm_cfft_f32.c ****     p1ap3_1 = p1[1] + p3[1];
 1569              		.loc 1 489 17
 1570 092a 3B68     		ldr	r3, [r7]
 1571 092c 0433     		adds	r3, r3, #4
 1572 092e 93ED007A 		vldr.32	s14, [r3]
 1573              		.loc 1 489 25
 1574 0932 D7F88C30 		ldr	r3, [r7, #140]
 1575 0936 0433     		adds	r3, r3, #4
 1576 0938 D3ED007A 		vldr.32	s15, [r3]
 1577              		.loc 1 489 13
 1578 093c 77EE277A 		vadd.f32	s15, s14, s15
 1579 0940 C7ED167A 		vstr.32	s15, [r7, #88]
 490:./Libraries/CMSIS/DSP/Source/TransformFunctions/arm_cfft_f32.c ****     p1sp3_1 = p1[1] - p3[1];
 1580              		.loc 1 490 17
 1581 0944 3B68     		ldr	r3, [r7]
 1582 0946 0433     		adds	r3, r3, #4
 1583 0948 93ED007A 		vldr.32	s14, [r3]
 1584              		.loc 1 490 25
 1585 094c D7F88C30 		ldr	r3, [r7, #140]
 1586 0950 0433     		adds	r3, r3, #4
 1587 0952 D3ED007A 		vldr.32	s15, [r3]
 1588              		.loc 1 490 13
 1589 0956 77EE677A 		vsub.f32	s15, s14, s15
 1590 095a C7ED157A 		vstr.32	s15, [r7, #84]
 491:./Libraries/CMSIS/DSP/Source/TransformFunctions/arm_cfft_f32.c **** 
 492:./Libraries/CMSIS/DSP/Source/TransformFunctions/arm_cfft_f32.c ****     /* col 2 */
 493:./Libraries/CMSIS/DSP/Source/TransformFunctions/arm_cfft_f32.c ****     t2[0] = p1sp3_0 + p2[1] - p4[1];
 1591              		.loc 1 493 25
 1592 095e D7F89030 		ldr	r3, [r7, #144]
 1593 0962 0433     		adds	r3, r3, #4
 1594 0964 93ED007A 		vldr.32	s14, [r3]
 1595              		.loc 1 493 21
 1596 0968 D7ED177A 		vldr.32	s15, [r7, #92]
 1597 096c 37EE277A 		vadd.f32	s14, s14, s15
 1598              		.loc 1 493 33
 1599 0970 D7F88830 		ldr	r3, [r7, #136]
 1600 0974 0433     		adds	r3, r3, #4
 1601 0976 D3ED007A 		vldr.32	s15, [r3]
 1602              		.loc 1 493 29
 1603 097a 77EE677A 		vsub.f32	s15, s14, s15
 1604              		.loc 1 493 11
 1605 097e C7ED0B7A 		vstr.32	s15, [r7, #44]
 494:./Libraries/CMSIS/DSP/Source/TransformFunctions/arm_cfft_f32.c ****     t2[1] = p1sp3_1 - p2[0] + p4[0];
 1606              		.loc 1 494 25
 1607 0982 D7F89030 		ldr	r3, [r7, #144]
 1608 0986 D3ED007A 		vldr.32	s15, [r3]
 1609              		.loc 1 494 21
 1610 098a 97ED157A 		vldr.32	s14, [r7, #84]
 1611 098e 37EE677A 		vsub.f32	s14, s14, s15
 1612              		.loc 1 494 33
 1613 0992 D7F88830 		ldr	r3, [r7, #136]
 1614 0996 D3ED007A 		vldr.32	s15, [r3]
ARM GAS  /tmp/cckRGVoG.s 			page 38


 1615              		.loc 1 494 29
 1616 099a 77EE277A 		vadd.f32	s15, s14, s15
 1617              		.loc 1 494 11
 1618 099e C7ED0C7A 		vstr.32	s15, [r7, #48]
 495:./Libraries/CMSIS/DSP/Source/TransformFunctions/arm_cfft_f32.c ****     /* col 3 */
 496:./Libraries/CMSIS/DSP/Source/TransformFunctions/arm_cfft_f32.c ****     t3[0] = p1ap3_0 - p2[0] - p4[0];
 1619              		.loc 1 496 25
 1620 09a2 D7F89030 		ldr	r3, [r7, #144]
 1621 09a6 D3ED007A 		vldr.32	s15, [r3]
 1622              		.loc 1 496 21
 1623 09aa 97ED187A 		vldr.32	s14, [r7, #96]
 1624 09ae 37EE677A 		vsub.f32	s14, s14, s15
 1625              		.loc 1 496 33
 1626 09b2 D7F88830 		ldr	r3, [r7, #136]
 1627 09b6 D3ED007A 		vldr.32	s15, [r3]
 1628              		.loc 1 496 29
 1629 09ba 77EE677A 		vsub.f32	s15, s14, s15
 1630              		.loc 1 496 11
 1631 09be C7ED077A 		vstr.32	s15, [r7, #28]
 497:./Libraries/CMSIS/DSP/Source/TransformFunctions/arm_cfft_f32.c ****     t3[1] = p1ap3_1 - p2[1] - p4[1];
 1632              		.loc 1 497 25
 1633 09c2 D7F89030 		ldr	r3, [r7, #144]
 1634 09c6 0433     		adds	r3, r3, #4
 1635 09c8 D3ED007A 		vldr.32	s15, [r3]
 1636              		.loc 1 497 21
 1637 09cc 97ED167A 		vldr.32	s14, [r7, #88]
 1638 09d0 37EE677A 		vsub.f32	s14, s14, s15
 1639              		.loc 1 497 33
 1640 09d4 D7F88830 		ldr	r3, [r7, #136]
 1641 09d8 0433     		adds	r3, r3, #4
 1642 09da D3ED007A 		vldr.32	s15, [r3]
 1643              		.loc 1 497 29
 1644 09de 77EE677A 		vsub.f32	s15, s14, s15
 1645              		.loc 1 497 11
 1646 09e2 C7ED087A 		vstr.32	s15, [r7, #32]
 498:./Libraries/CMSIS/DSP/Source/TransformFunctions/arm_cfft_f32.c ****     /* col 4 */
 499:./Libraries/CMSIS/DSP/Source/TransformFunctions/arm_cfft_f32.c ****     t4[0] = p1sp3_0 - p2[1] + p4[1];
 1647              		.loc 1 499 25
 1648 09e6 D7F89030 		ldr	r3, [r7, #144]
 1649 09ea 0433     		adds	r3, r3, #4
 1650 09ec D3ED007A 		vldr.32	s15, [r3]
 1651              		.loc 1 499 21
 1652 09f0 97ED177A 		vldr.32	s14, [r7, #92]
 1653 09f4 37EE677A 		vsub.f32	s14, s14, s15
 1654              		.loc 1 499 33
 1655 09f8 D7F88830 		ldr	r3, [r7, #136]
 1656 09fc 0433     		adds	r3, r3, #4
 1657 09fe D3ED007A 		vldr.32	s15, [r3]
 1658              		.loc 1 499 29
 1659 0a02 77EE277A 		vadd.f32	s15, s14, s15
 1660              		.loc 1 499 11
 1661 0a06 C7ED037A 		vstr.32	s15, [r7, #12]
 500:./Libraries/CMSIS/DSP/Source/TransformFunctions/arm_cfft_f32.c ****     t4[1] = p1sp3_1 + p2[0] - p4[0];
 1662              		.loc 1 500 25
 1663 0a0a D7F89030 		ldr	r3, [r7, #144]
 1664 0a0e 93ED007A 		vldr.32	s14, [r3]
 1665              		.loc 1 500 21
ARM GAS  /tmp/cckRGVoG.s 			page 39


 1666 0a12 D7ED157A 		vldr.32	s15, [r7, #84]
 1667 0a16 37EE277A 		vadd.f32	s14, s14, s15
 1668              		.loc 1 500 33
 1669 0a1a D7F88830 		ldr	r3, [r7, #136]
 1670 0a1e D3ED007A 		vldr.32	s15, [r3]
 1671              		.loc 1 500 29
 1672 0a22 77EE677A 		vsub.f32	s15, s14, s15
 1673              		.loc 1 500 11
 1674 0a26 C7ED047A 		vstr.32	s15, [r7, #16]
 501:./Libraries/CMSIS/DSP/Source/TransformFunctions/arm_cfft_f32.c ****     /* col 1 - Top */
 502:./Libraries/CMSIS/DSP/Source/TransformFunctions/arm_cfft_f32.c ****     *p1++ = p1ap3_0 + p2[0] + p4[0];
 1675              		.loc 1 502 25
 1676 0a2a D7F89030 		ldr	r3, [r7, #144]
 1677 0a2e 93ED007A 		vldr.32	s14, [r3]
 1678              		.loc 1 502 21
 1679 0a32 D7ED187A 		vldr.32	s15, [r7, #96]
 1680 0a36 37EE277A 		vadd.f32	s14, s14, s15
 1681              		.loc 1 502 33
 1682 0a3a D7F88830 		ldr	r3, [r7, #136]
 1683 0a3e D3ED007A 		vldr.32	s15, [r3]
 1684              		.loc 1 502 8
 1685 0a42 3B68     		ldr	r3, [r7]
 1686 0a44 1A1D     		adds	r2, r3, #4
 1687 0a46 3A60     		str	r2, [r7]
 1688              		.loc 1 502 29
 1689 0a48 77EE277A 		vadd.f32	s15, s14, s15
 1690              		.loc 1 502 11
 1691 0a4c C3ED007A 		vstr.32	s15, [r3]
 503:./Libraries/CMSIS/DSP/Source/TransformFunctions/arm_cfft_f32.c ****     *p1++ = p1ap3_1 + p2[1] + p4[1];
 1692              		.loc 1 503 25
 1693 0a50 D7F89030 		ldr	r3, [r7, #144]
 1694 0a54 0433     		adds	r3, r3, #4
 1695 0a56 93ED007A 		vldr.32	s14, [r3]
 1696              		.loc 1 503 21
 1697 0a5a D7ED167A 		vldr.32	s15, [r7, #88]
 1698 0a5e 37EE277A 		vadd.f32	s14, s14, s15
 1699              		.loc 1 503 33
 1700 0a62 D7F88830 		ldr	r3, [r7, #136]
 1701 0a66 0433     		adds	r3, r3, #4
 1702 0a68 D3ED007A 		vldr.32	s15, [r3]
 1703              		.loc 1 503 8
 1704 0a6c 3B68     		ldr	r3, [r7]
 1705 0a6e 1A1D     		adds	r2, r3, #4
 1706 0a70 3A60     		str	r2, [r7]
 1707              		.loc 1 503 29
 1708 0a72 77EE277A 		vadd.f32	s15, s14, s15
 1709              		.loc 1 503 11
 1710 0a76 C3ED007A 		vstr.32	s15, [r3]
 504:./Libraries/CMSIS/DSP/Source/TransformFunctions/arm_cfft_f32.c **** 
 505:./Libraries/CMSIS/DSP/Source/TransformFunctions/arm_cfft_f32.c ****     /* COL 2 */
 506:./Libraries/CMSIS/DSP/Source/TransformFunctions/arm_cfft_f32.c ****     twR = tw2[0];
 1711              		.loc 1 506 9
 1712 0a7a D7F89C30 		ldr	r3, [r7, #156]
 1713 0a7e 1B68     		ldr	r3, [r3]	@ float
 1714 0a80 3B65     		str	r3, [r7, #80]	@ float
 507:./Libraries/CMSIS/DSP/Source/TransformFunctions/arm_cfft_f32.c ****     twI = tw2[1];
 1715              		.loc 1 507 9
ARM GAS  /tmp/cckRGVoG.s 			page 40


 1716 0a82 D7F89C30 		ldr	r3, [r7, #156]
 1717 0a86 5B68     		ldr	r3, [r3, #4]	@ float
 1718 0a88 FB64     		str	r3, [r7, #76]	@ float
 508:./Libraries/CMSIS/DSP/Source/TransformFunctions/arm_cfft_f32.c **** 
 509:./Libraries/CMSIS/DSP/Source/TransformFunctions/arm_cfft_f32.c ****     m0 = t2[0] * twR;
 1719              		.loc 1 509 12
 1720 0a8a D7ED0B7A 		vldr.32	s15, [r7, #44]
 1721              		.loc 1 509 8
 1722 0a8e 97ED147A 		vldr.32	s14, [r7, #80]
 1723 0a92 67EE277A 		vmul.f32	s15, s14, s15
 1724 0a96 C7ED127A 		vstr.32	s15, [r7, #72]
 510:./Libraries/CMSIS/DSP/Source/TransformFunctions/arm_cfft_f32.c ****     m1 = t2[1] * twI;
 1725              		.loc 1 510 12
 1726 0a9a D7ED0C7A 		vldr.32	s15, [r7, #48]
 1727              		.loc 1 510 8
 1728 0a9e 97ED137A 		vldr.32	s14, [r7, #76]
 1729 0aa2 67EE277A 		vmul.f32	s15, s14, s15
 1730 0aa6 C7ED117A 		vstr.32	s15, [r7, #68]
 511:./Libraries/CMSIS/DSP/Source/TransformFunctions/arm_cfft_f32.c ****     m2 = t2[1] * twR;
 1731              		.loc 1 511 12
 1732 0aaa D7ED0C7A 		vldr.32	s15, [r7, #48]
 1733              		.loc 1 511 8
 1734 0aae 97ED147A 		vldr.32	s14, [r7, #80]
 1735 0ab2 67EE277A 		vmul.f32	s15, s14, s15
 1736 0ab6 C7ED107A 		vstr.32	s15, [r7, #64]
 512:./Libraries/CMSIS/DSP/Source/TransformFunctions/arm_cfft_f32.c ****     m3 = t2[0] * twI;
 1737              		.loc 1 512 12
 1738 0aba D7ED0B7A 		vldr.32	s15, [r7, #44]
 1739              		.loc 1 512 8
 1740 0abe 97ED137A 		vldr.32	s14, [r7, #76]
 1741 0ac2 67EE277A 		vmul.f32	s15, s14, s15
 1742 0ac6 C7ED0F7A 		vstr.32	s15, [r7, #60]
 513:./Libraries/CMSIS/DSP/Source/TransformFunctions/arm_cfft_f32.c **** 
 514:./Libraries/CMSIS/DSP/Source/TransformFunctions/arm_cfft_f32.c ****     *p2++ = m0 + m1;
 1743              		.loc 1 514 8
 1744 0aca D7F89030 		ldr	r3, [r7, #144]
 1745 0ace 1A1D     		adds	r2, r3, #4
 1746 0ad0 C7F89020 		str	r2, [r7, #144]
 1747              		.loc 1 514 16
 1748 0ad4 97ED127A 		vldr.32	s14, [r7, #72]
 1749 0ad8 D7ED117A 		vldr.32	s15, [r7, #68]
 1750 0adc 77EE277A 		vadd.f32	s15, s14, s15
 1751              		.loc 1 514 11
 1752 0ae0 C3ED007A 		vstr.32	s15, [r3]
 515:./Libraries/CMSIS/DSP/Source/TransformFunctions/arm_cfft_f32.c ****     *p2++ = m2 - m3;
 1753              		.loc 1 515 8
 1754 0ae4 D7F89030 		ldr	r3, [r7, #144]
 1755 0ae8 1A1D     		adds	r2, r3, #4
 1756 0aea C7F89020 		str	r2, [r7, #144]
 1757              		.loc 1 515 16
 1758 0aee 97ED107A 		vldr.32	s14, [r7, #64]
 1759 0af2 D7ED0F7A 		vldr.32	s15, [r7, #60]
 1760 0af6 77EE677A 		vsub.f32	s15, s14, s15
 1761              		.loc 1 515 11
 1762 0afa C3ED007A 		vstr.32	s15, [r3]
 516:./Libraries/CMSIS/DSP/Source/TransformFunctions/arm_cfft_f32.c ****     /* COL 3 */
 517:./Libraries/CMSIS/DSP/Source/TransformFunctions/arm_cfft_f32.c ****     twR = tw3[0];
ARM GAS  /tmp/cckRGVoG.s 			page 41


 1763              		.loc 1 517 9
 1764 0afe D7F89830 		ldr	r3, [r7, #152]
 1765 0b02 1B68     		ldr	r3, [r3]	@ float
 1766 0b04 3B65     		str	r3, [r7, #80]	@ float
 518:./Libraries/CMSIS/DSP/Source/TransformFunctions/arm_cfft_f32.c ****     twI = tw3[1];
 1767              		.loc 1 518 9
 1768 0b06 D7F89830 		ldr	r3, [r7, #152]
 1769 0b0a 5B68     		ldr	r3, [r3, #4]	@ float
 1770 0b0c FB64     		str	r3, [r7, #76]	@ float
 519:./Libraries/CMSIS/DSP/Source/TransformFunctions/arm_cfft_f32.c **** 
 520:./Libraries/CMSIS/DSP/Source/TransformFunctions/arm_cfft_f32.c ****     m0 = t3[0] * twR;
 1771              		.loc 1 520 12
 1772 0b0e D7ED077A 		vldr.32	s15, [r7, #28]
 1773              		.loc 1 520 8
 1774 0b12 97ED147A 		vldr.32	s14, [r7, #80]
 1775 0b16 67EE277A 		vmul.f32	s15, s14, s15
 1776 0b1a C7ED127A 		vstr.32	s15, [r7, #72]
 521:./Libraries/CMSIS/DSP/Source/TransformFunctions/arm_cfft_f32.c ****     m1 = t3[1] * twI;
 1777              		.loc 1 521 12
 1778 0b1e D7ED087A 		vldr.32	s15, [r7, #32]
 1779              		.loc 1 521 8
 1780 0b22 97ED137A 		vldr.32	s14, [r7, #76]
 1781 0b26 67EE277A 		vmul.f32	s15, s14, s15
 1782 0b2a C7ED117A 		vstr.32	s15, [r7, #68]
 522:./Libraries/CMSIS/DSP/Source/TransformFunctions/arm_cfft_f32.c ****     m2 = t3[1] * twR;
 1783              		.loc 1 522 12
 1784 0b2e D7ED087A 		vldr.32	s15, [r7, #32]
 1785              		.loc 1 522 8
 1786 0b32 97ED147A 		vldr.32	s14, [r7, #80]
 1787 0b36 67EE277A 		vmul.f32	s15, s14, s15
 1788 0b3a C7ED107A 		vstr.32	s15, [r7, #64]
 523:./Libraries/CMSIS/DSP/Source/TransformFunctions/arm_cfft_f32.c ****     m3 = t3[0] * twI;
 1789              		.loc 1 523 12
 1790 0b3e D7ED077A 		vldr.32	s15, [r7, #28]
 1791              		.loc 1 523 8
 1792 0b42 97ED137A 		vldr.32	s14, [r7, #76]
 1793 0b46 67EE277A 		vmul.f32	s15, s14, s15
 1794 0b4a C7ED0F7A 		vstr.32	s15, [r7, #60]
 524:./Libraries/CMSIS/DSP/Source/TransformFunctions/arm_cfft_f32.c **** 
 525:./Libraries/CMSIS/DSP/Source/TransformFunctions/arm_cfft_f32.c ****     *p3++ = m0 + m1;
 1795              		.loc 1 525 8
 1796 0b4e D7F88C30 		ldr	r3, [r7, #140]
 1797 0b52 1A1D     		adds	r2, r3, #4
 1798 0b54 C7F88C20 		str	r2, [r7, #140]
 1799              		.loc 1 525 16
 1800 0b58 97ED127A 		vldr.32	s14, [r7, #72]
 1801 0b5c D7ED117A 		vldr.32	s15, [r7, #68]
 1802 0b60 77EE277A 		vadd.f32	s15, s14, s15
 1803              		.loc 1 525 11
 1804 0b64 C3ED007A 		vstr.32	s15, [r3]
 526:./Libraries/CMSIS/DSP/Source/TransformFunctions/arm_cfft_f32.c ****     *p3++ = m2 - m3;
 1805              		.loc 1 526 8
 1806 0b68 D7F88C30 		ldr	r3, [r7, #140]
 1807 0b6c 1A1D     		adds	r2, r3, #4
 1808 0b6e C7F88C20 		str	r2, [r7, #140]
 1809              		.loc 1 526 16
 1810 0b72 97ED107A 		vldr.32	s14, [r7, #64]
ARM GAS  /tmp/cckRGVoG.s 			page 42


 1811 0b76 D7ED0F7A 		vldr.32	s15, [r7, #60]
 1812 0b7a 77EE677A 		vsub.f32	s15, s14, s15
 1813              		.loc 1 526 11
 1814 0b7e C3ED007A 		vstr.32	s15, [r3]
 527:./Libraries/CMSIS/DSP/Source/TransformFunctions/arm_cfft_f32.c ****     /* COL 4 */
 528:./Libraries/CMSIS/DSP/Source/TransformFunctions/arm_cfft_f32.c ****     twR = tw4[0];
 1815              		.loc 1 528 9
 1816 0b82 D7F89430 		ldr	r3, [r7, #148]
 1817 0b86 1B68     		ldr	r3, [r3]	@ float
 1818 0b88 3B65     		str	r3, [r7, #80]	@ float
 529:./Libraries/CMSIS/DSP/Source/TransformFunctions/arm_cfft_f32.c ****     twI = tw4[1];
 1819              		.loc 1 529 9
 1820 0b8a D7F89430 		ldr	r3, [r7, #148]
 1821 0b8e 5B68     		ldr	r3, [r3, #4]	@ float
 1822 0b90 FB64     		str	r3, [r7, #76]	@ float
 530:./Libraries/CMSIS/DSP/Source/TransformFunctions/arm_cfft_f32.c **** 
 531:./Libraries/CMSIS/DSP/Source/TransformFunctions/arm_cfft_f32.c ****     m0 = t4[0] * twR;
 1823              		.loc 1 531 12
 1824 0b92 D7ED037A 		vldr.32	s15, [r7, #12]
 1825              		.loc 1 531 8
 1826 0b96 97ED147A 		vldr.32	s14, [r7, #80]
 1827 0b9a 67EE277A 		vmul.f32	s15, s14, s15
 1828 0b9e C7ED127A 		vstr.32	s15, [r7, #72]
 532:./Libraries/CMSIS/DSP/Source/TransformFunctions/arm_cfft_f32.c ****     m1 = t4[1] * twI;
 1829              		.loc 1 532 12
 1830 0ba2 D7ED047A 		vldr.32	s15, [r7, #16]
 1831              		.loc 1 532 8
 1832 0ba6 97ED137A 		vldr.32	s14, [r7, #76]
 1833 0baa 67EE277A 		vmul.f32	s15, s14, s15
 1834 0bae C7ED117A 		vstr.32	s15, [r7, #68]
 533:./Libraries/CMSIS/DSP/Source/TransformFunctions/arm_cfft_f32.c ****     m2 = t4[1] * twR;
 1835              		.loc 1 533 12
 1836 0bb2 D7ED047A 		vldr.32	s15, [r7, #16]
 1837              		.loc 1 533 8
 1838 0bb6 97ED147A 		vldr.32	s14, [r7, #80]
 1839 0bba 67EE277A 		vmul.f32	s15, s14, s15
 1840 0bbe C7ED107A 		vstr.32	s15, [r7, #64]
 534:./Libraries/CMSIS/DSP/Source/TransformFunctions/arm_cfft_f32.c ****     m3 = t4[0] * twI;
 1841              		.loc 1 534 12
 1842 0bc2 D7ED037A 		vldr.32	s15, [r7, #12]
 1843              		.loc 1 534 8
 1844 0bc6 97ED137A 		vldr.32	s14, [r7, #76]
 1845 0bca 67EE277A 		vmul.f32	s15, s14, s15
 1846 0bce C7ED0F7A 		vstr.32	s15, [r7, #60]
 535:./Libraries/CMSIS/DSP/Source/TransformFunctions/arm_cfft_f32.c **** 
 536:./Libraries/CMSIS/DSP/Source/TransformFunctions/arm_cfft_f32.c ****     *p4++ = m0 + m1;
 1847              		.loc 1 536 8
 1848 0bd2 D7F88830 		ldr	r3, [r7, #136]
 1849 0bd6 1A1D     		adds	r2, r3, #4
 1850 0bd8 C7F88820 		str	r2, [r7, #136]
 1851              		.loc 1 536 16
 1852 0bdc 97ED127A 		vldr.32	s14, [r7, #72]
 1853 0be0 D7ED117A 		vldr.32	s15, [r7, #68]
 1854 0be4 77EE277A 		vadd.f32	s15, s14, s15
 1855              		.loc 1 536 11
 1856 0be8 C3ED007A 		vstr.32	s15, [r3]
 537:./Libraries/CMSIS/DSP/Source/TransformFunctions/arm_cfft_f32.c ****     *p4++ = m2 - m3;
ARM GAS  /tmp/cckRGVoG.s 			page 43


 1857              		.loc 1 537 8
 1858 0bec D7F88830 		ldr	r3, [r7, #136]
 1859 0bf0 1A1D     		adds	r2, r3, #4
 1860 0bf2 C7F88820 		str	r2, [r7, #136]
 1861              		.loc 1 537 16
 1862 0bf6 97ED107A 		vldr.32	s14, [r7, #64]
 1863 0bfa D7ED0F7A 		vldr.32	s15, [r7, #60]
 1864 0bfe 77EE677A 		vsub.f32	s15, s14, s15
 1865              		.loc 1 537 11
 1866 0c02 C3ED007A 		vstr.32	s15, [r3]
 538:./Libraries/CMSIS/DSP/Source/TransformFunctions/arm_cfft_f32.c **** 
 539:./Libraries/CMSIS/DSP/Source/TransformFunctions/arm_cfft_f32.c ****     /* first col */
 540:./Libraries/CMSIS/DSP/Source/TransformFunctions/arm_cfft_f32.c ****     arm_radix8_butterfly_f32 (pCol1, L, (float32_t *) S->pTwiddle, 4U);
 1867              		.loc 1 540 5
 1868 0c06 D7F88030 		ldr	r3, [r7, #128]
 1869 0c0a 99B2     		uxth	r1, r3
 1870 0c0c 7B68     		ldr	r3, [r7, #4]
 1871 0c0e 5A68     		ldr	r2, [r3, #4]
 1872 0c10 0423     		movs	r3, #4
 1873 0c12 F86F     		ldr	r0, [r7, #124]
 1874 0c14 FFF7FEFF 		bl	arm_radix8_butterfly_f32
 541:./Libraries/CMSIS/DSP/Source/TransformFunctions/arm_cfft_f32.c **** 
 542:./Libraries/CMSIS/DSP/Source/TransformFunctions/arm_cfft_f32.c ****     /* second col */
 543:./Libraries/CMSIS/DSP/Source/TransformFunctions/arm_cfft_f32.c ****     arm_radix8_butterfly_f32 (pCol2, L, (float32_t *) S->pTwiddle, 4U);
 1875              		.loc 1 543 5
 1876 0c18 D7F88030 		ldr	r3, [r7, #128]
 1877 0c1c 99B2     		uxth	r1, r3
 1878 0c1e 7B68     		ldr	r3, [r7, #4]
 1879 0c20 5A68     		ldr	r2, [r3, #4]
 1880 0c22 0423     		movs	r3, #4
 1881 0c24 B86F     		ldr	r0, [r7, #120]
 1882 0c26 FFF7FEFF 		bl	arm_radix8_butterfly_f32
 544:./Libraries/CMSIS/DSP/Source/TransformFunctions/arm_cfft_f32.c **** 
 545:./Libraries/CMSIS/DSP/Source/TransformFunctions/arm_cfft_f32.c ****     /* third col */
 546:./Libraries/CMSIS/DSP/Source/TransformFunctions/arm_cfft_f32.c ****     arm_radix8_butterfly_f32 (pCol3, L, (float32_t *) S->pTwiddle, 4U);
 1883              		.loc 1 546 5
 1884 0c2a D7F88030 		ldr	r3, [r7, #128]
 1885 0c2e 99B2     		uxth	r1, r3
 1886 0c30 7B68     		ldr	r3, [r7, #4]
 1887 0c32 5A68     		ldr	r2, [r3, #4]
 1888 0c34 0423     		movs	r3, #4
 1889 0c36 786F     		ldr	r0, [r7, #116]
 1890 0c38 FFF7FEFF 		bl	arm_radix8_butterfly_f32
 547:./Libraries/CMSIS/DSP/Source/TransformFunctions/arm_cfft_f32.c **** 
 548:./Libraries/CMSIS/DSP/Source/TransformFunctions/arm_cfft_f32.c ****     /* fourth col */
 549:./Libraries/CMSIS/DSP/Source/TransformFunctions/arm_cfft_f32.c ****     arm_radix8_butterfly_f32 (pCol4, L, (float32_t *) S->pTwiddle, 4U);
 1891              		.loc 1 549 5
 1892 0c3c D7F88030 		ldr	r3, [r7, #128]
 1893 0c40 99B2     		uxth	r1, r3
 1894 0c42 7B68     		ldr	r3, [r7, #4]
 1895 0c44 5A68     		ldr	r2, [r3, #4]
 1896 0c46 0423     		movs	r3, #4
 1897 0c48 386F     		ldr	r0, [r7, #112]
 1898 0c4a FFF7FEFF 		bl	arm_radix8_butterfly_f32
 550:./Libraries/CMSIS/DSP/Source/TransformFunctions/arm_cfft_f32.c **** }
 1899              		.loc 1 550 1
 1900 0c4e 00BF     		nop
ARM GAS  /tmp/cckRGVoG.s 			page 44


 1901 0c50 B037     		adds	r7, r7, #176
 1902              	.LCFI8:
 1903              		.cfi_def_cfa_offset 8
 1904 0c52 BD46     		mov	sp, r7
 1905              	.LCFI9:
 1906              		.cfi_def_cfa_register 13
 1907              		@ sp needed
 1908 0c54 80BD     		pop	{r7, pc}
 1909              		.cfi_endproc
 1910              	.LFE146:
 1912              		.section	.text.arm_cfft_f32,"ax",%progbits
 1913              		.align	1
 1914              		.global	arm_cfft_f32
 1915              		.syntax unified
 1916              		.thumb
 1917              		.thumb_func
 1918              		.fpu fpv5-d16
 1920              	arm_cfft_f32:
 1921              	.LFB147:
 551:./Libraries/CMSIS/DSP/Source/TransformFunctions/arm_cfft_f32.c **** 
 552:./Libraries/CMSIS/DSP/Source/TransformFunctions/arm_cfft_f32.c **** /**
 553:./Libraries/CMSIS/DSP/Source/TransformFunctions/arm_cfft_f32.c ****   @addtogroup ComplexFFT
 554:./Libraries/CMSIS/DSP/Source/TransformFunctions/arm_cfft_f32.c ****   @{
 555:./Libraries/CMSIS/DSP/Source/TransformFunctions/arm_cfft_f32.c ****  */
 556:./Libraries/CMSIS/DSP/Source/TransformFunctions/arm_cfft_f32.c **** 
 557:./Libraries/CMSIS/DSP/Source/TransformFunctions/arm_cfft_f32.c **** /**
 558:./Libraries/CMSIS/DSP/Source/TransformFunctions/arm_cfft_f32.c ****   @brief         Processing function for the floating-point complex FFT.
 559:./Libraries/CMSIS/DSP/Source/TransformFunctions/arm_cfft_f32.c ****   @param[in]     S              points to an instance of the floating-point CFFT structure
 560:./Libraries/CMSIS/DSP/Source/TransformFunctions/arm_cfft_f32.c ****   @param[in,out] p1             points to the complex data buffer of size <code>2*fftLen</code>. Pr
 561:./Libraries/CMSIS/DSP/Source/TransformFunctions/arm_cfft_f32.c ****   @param[in]     ifftFlag       flag that selects transform direction
 562:./Libraries/CMSIS/DSP/Source/TransformFunctions/arm_cfft_f32.c ****                    - value = 0: forward transform
 563:./Libraries/CMSIS/DSP/Source/TransformFunctions/arm_cfft_f32.c ****                    - value = 1: inverse transform
 564:./Libraries/CMSIS/DSP/Source/TransformFunctions/arm_cfft_f32.c ****   @param[in]     bitReverseFlag flag that enables / disables bit reversal of output
 565:./Libraries/CMSIS/DSP/Source/TransformFunctions/arm_cfft_f32.c ****                    - value = 0: disables bit reversal of output
 566:./Libraries/CMSIS/DSP/Source/TransformFunctions/arm_cfft_f32.c ****                    - value = 1: enables bit reversal of output
 567:./Libraries/CMSIS/DSP/Source/TransformFunctions/arm_cfft_f32.c ****   @return        none
 568:./Libraries/CMSIS/DSP/Source/TransformFunctions/arm_cfft_f32.c ****  */
 569:./Libraries/CMSIS/DSP/Source/TransformFunctions/arm_cfft_f32.c **** 
 570:./Libraries/CMSIS/DSP/Source/TransformFunctions/arm_cfft_f32.c **** void arm_cfft_f32(
 571:./Libraries/CMSIS/DSP/Source/TransformFunctions/arm_cfft_f32.c ****   const arm_cfft_instance_f32 * S,
 572:./Libraries/CMSIS/DSP/Source/TransformFunctions/arm_cfft_f32.c ****         float32_t * p1,
 573:./Libraries/CMSIS/DSP/Source/TransformFunctions/arm_cfft_f32.c ****         uint8_t ifftFlag,
 574:./Libraries/CMSIS/DSP/Source/TransformFunctions/arm_cfft_f32.c ****         uint8_t bitReverseFlag)
 575:./Libraries/CMSIS/DSP/Source/TransformFunctions/arm_cfft_f32.c **** {
 1922              		.loc 1 575 1
 1923              		.cfi_startproc
 1924              		@ args = 0, pretend = 0, frame = 32
 1925              		@ frame_needed = 1, uses_anonymous_args = 0
 1926 0000 80B5     		push	{r7, lr}
 1927              	.LCFI10:
 1928              		.cfi_def_cfa_offset 8
 1929              		.cfi_offset 7, -8
 1930              		.cfi_offset 14, -4
 1931 0002 88B0     		sub	sp, sp, #32
 1932              	.LCFI11:
 1933              		.cfi_def_cfa_offset 40
 1934 0004 00AF     		add	r7, sp, #0
ARM GAS  /tmp/cckRGVoG.s 			page 45


 1935              	.LCFI12:
 1936              		.cfi_def_cfa_register 7
 1937 0006 F860     		str	r0, [r7, #12]
 1938 0008 B960     		str	r1, [r7, #8]
 1939 000a 1146     		mov	r1, r2
 1940 000c 1A46     		mov	r2, r3
 1941 000e 0B46     		mov	r3, r1
 1942 0010 FB71     		strb	r3, [r7, #7]
 1943 0012 1346     		mov	r3, r2
 1944 0014 BB71     		strb	r3, [r7, #6]
 576:./Libraries/CMSIS/DSP/Source/TransformFunctions/arm_cfft_f32.c ****   uint32_t  L = S->fftLen, l;
 1945              		.loc 1 576 18
 1946 0016 FB68     		ldr	r3, [r7, #12]
 1947 0018 1B88     		ldrh	r3, [r3]
 1948              		.loc 1 576 13
 1949 001a 7B61     		str	r3, [r7, #20]
 577:./Libraries/CMSIS/DSP/Source/TransformFunctions/arm_cfft_f32.c ****   float32_t invL, * pSrc;
 578:./Libraries/CMSIS/DSP/Source/TransformFunctions/arm_cfft_f32.c **** 
 579:./Libraries/CMSIS/DSP/Source/TransformFunctions/arm_cfft_f32.c ****   if (ifftFlag == 1U)
 1950              		.loc 1 579 6
 1951 001c FB79     		ldrb	r3, [r7, #7]	@ zero_extendqisi2
 1952 001e 012B     		cmp	r3, #1
 1953 0020 17D1     		bne	.L8
 580:./Libraries/CMSIS/DSP/Source/TransformFunctions/arm_cfft_f32.c ****   {
 581:./Libraries/CMSIS/DSP/Source/TransformFunctions/arm_cfft_f32.c ****     /* Conjugate input data */
 582:./Libraries/CMSIS/DSP/Source/TransformFunctions/arm_cfft_f32.c ****     pSrc = p1 + 1;
 1954              		.loc 1 582 10
 1955 0022 BB68     		ldr	r3, [r7, #8]
 1956 0024 0433     		adds	r3, r3, #4
 1957 0026 BB61     		str	r3, [r7, #24]
 583:./Libraries/CMSIS/DSP/Source/TransformFunctions/arm_cfft_f32.c ****     for (l = 0; l < L; l++)
 1958              		.loc 1 583 12
 1959 0028 0023     		movs	r3, #0
 1960 002a FB61     		str	r3, [r7, #28]
 1961              		.loc 1 583 5
 1962 002c 0DE0     		b	.L9
 1963              	.L10:
 584:./Libraries/CMSIS/DSP/Source/TransformFunctions/arm_cfft_f32.c ****     {
 585:./Libraries/CMSIS/DSP/Source/TransformFunctions/arm_cfft_f32.c ****       *pSrc = -*pSrc;
 1964              		.loc 1 585 16 discriminator 3
 1965 002e BB69     		ldr	r3, [r7, #24]
 1966 0030 D3ED007A 		vldr.32	s15, [r3]
 1967              		.loc 1 585 15 discriminator 3
 1968 0034 F1EE677A 		vneg.f32	s15, s15
 1969              		.loc 1 585 13 discriminator 3
 1970 0038 BB69     		ldr	r3, [r7, #24]
 1971 003a C3ED007A 		vstr.32	s15, [r3]
 586:./Libraries/CMSIS/DSP/Source/TransformFunctions/arm_cfft_f32.c ****       pSrc += 2;
 1972              		.loc 1 586 12 discriminator 3
 1973 003e BB69     		ldr	r3, [r7, #24]
 1974 0040 0833     		adds	r3, r3, #8
 1975 0042 BB61     		str	r3, [r7, #24]
 583:./Libraries/CMSIS/DSP/Source/TransformFunctions/arm_cfft_f32.c ****     for (l = 0; l < L; l++)
 1976              		.loc 1 583 25 discriminator 3
 1977 0044 FB69     		ldr	r3, [r7, #28]
 1978 0046 0133     		adds	r3, r3, #1
 1979 0048 FB61     		str	r3, [r7, #28]
ARM GAS  /tmp/cckRGVoG.s 			page 46


 1980              	.L9:
 583:./Libraries/CMSIS/DSP/Source/TransformFunctions/arm_cfft_f32.c ****     for (l = 0; l < L; l++)
 1981              		.loc 1 583 5 discriminator 1
 1982 004a FA69     		ldr	r2, [r7, #28]
 1983 004c 7B69     		ldr	r3, [r7, #20]
 1984 004e 9A42     		cmp	r2, r3
 1985 0050 EDD3     		bcc	.L10
 1986              	.L8:
 587:./Libraries/CMSIS/DSP/Source/TransformFunctions/arm_cfft_f32.c ****     }
 588:./Libraries/CMSIS/DSP/Source/TransformFunctions/arm_cfft_f32.c ****   }
 589:./Libraries/CMSIS/DSP/Source/TransformFunctions/arm_cfft_f32.c **** 
 590:./Libraries/CMSIS/DSP/Source/TransformFunctions/arm_cfft_f32.c ****   switch (L)
 1987              		.loc 1 590 3
 1988 0052 7B69     		ldr	r3, [r7, #20]
 1989 0054 B3F5805F 		cmp	r3, #4096
 1990 0058 40D0     		beq	.L11
 1991 005a 7B69     		ldr	r3, [r7, #20]
 1992 005c B3F5805F 		cmp	r3, #4096
 1993 0060 45D8     		bhi	.L12
 1994 0062 7B69     		ldr	r3, [r7, #20]
 1995 0064 B3F5006F 		cmp	r3, #2048
 1996 0068 33D0     		beq	.L13
 1997 006a 7B69     		ldr	r3, [r7, #20]
 1998 006c B3F5006F 		cmp	r3, #2048
 1999 0070 3DD8     		bhi	.L12
 2000 0072 7B69     		ldr	r3, [r7, #20]
 2001 0074 B3F5806F 		cmp	r3, #1024
 2002 0078 26D0     		beq	.L14
 2003 007a 7B69     		ldr	r3, [r7, #20]
 2004 007c B3F5806F 		cmp	r3, #1024
 2005 0080 35D8     		bhi	.L12
 2006 0082 7B69     		ldr	r3, [r7, #20]
 2007 0084 B3F5007F 		cmp	r3, #512
 2008 0088 28D0     		beq	.L11
 2009 008a 7B69     		ldr	r3, [r7, #20]
 2010 008c B3F5007F 		cmp	r3, #512
 2011 0090 2DD8     		bhi	.L12
 2012 0092 7B69     		ldr	r3, [r7, #20]
 2013 0094 B3F5807F 		cmp	r3, #256
 2014 0098 1BD0     		beq	.L13
 2015 009a 7B69     		ldr	r3, [r7, #20]
 2016 009c B3F5807F 		cmp	r3, #256
 2017 00a0 25D8     		bhi	.L12
 2018 00a2 7B69     		ldr	r3, [r7, #20]
 2019 00a4 802B     		cmp	r3, #128
 2020 00a6 0FD0     		beq	.L14
 2021 00a8 7B69     		ldr	r3, [r7, #20]
 2022 00aa 802B     		cmp	r3, #128
 2023 00ac 1FD8     		bhi	.L12
 2024 00ae 7B69     		ldr	r3, [r7, #20]
 2025 00b0 402B     		cmp	r3, #64
 2026 00b2 13D0     		beq	.L11
 2027 00b4 7B69     		ldr	r3, [r7, #20]
 2028 00b6 402B     		cmp	r3, #64
 2029 00b8 19D8     		bhi	.L12
 2030 00ba 7B69     		ldr	r3, [r7, #20]
 2031 00bc 102B     		cmp	r3, #16
ARM GAS  /tmp/cckRGVoG.s 			page 47


 2032 00be 03D0     		beq	.L14
 2033 00c0 7B69     		ldr	r3, [r7, #20]
 2034 00c2 202B     		cmp	r3, #32
 2035 00c4 05D0     		beq	.L13
 2036 00c6 12E0     		b	.L12
 2037              	.L14:
 591:./Libraries/CMSIS/DSP/Source/TransformFunctions/arm_cfft_f32.c ****   {
 592:./Libraries/CMSIS/DSP/Source/TransformFunctions/arm_cfft_f32.c ****   case 16:
 593:./Libraries/CMSIS/DSP/Source/TransformFunctions/arm_cfft_f32.c ****   case 128:
 594:./Libraries/CMSIS/DSP/Source/TransformFunctions/arm_cfft_f32.c ****   case 1024:
 595:./Libraries/CMSIS/DSP/Source/TransformFunctions/arm_cfft_f32.c ****     arm_cfft_radix8by2_f32 ( (arm_cfft_instance_f32 *) S, p1);
 2038              		.loc 1 595 5
 2039 00c8 B968     		ldr	r1, [r7, #8]
 2040 00ca F868     		ldr	r0, [r7, #12]
 2041 00cc FFF7FEFF 		bl	arm_cfft_radix8by2_f32
 596:./Libraries/CMSIS/DSP/Source/TransformFunctions/arm_cfft_f32.c ****     break;
 2042              		.loc 1 596 5
 2043 00d0 0DE0     		b	.L12
 2044              	.L13:
 597:./Libraries/CMSIS/DSP/Source/TransformFunctions/arm_cfft_f32.c ****   case 32:
 598:./Libraries/CMSIS/DSP/Source/TransformFunctions/arm_cfft_f32.c ****   case 256:
 599:./Libraries/CMSIS/DSP/Source/TransformFunctions/arm_cfft_f32.c ****   case 2048:
 600:./Libraries/CMSIS/DSP/Source/TransformFunctions/arm_cfft_f32.c ****     arm_cfft_radix8by4_f32 ( (arm_cfft_instance_f32 *) S, p1);
 2045              		.loc 1 600 5
 2046 00d2 B968     		ldr	r1, [r7, #8]
 2047 00d4 F868     		ldr	r0, [r7, #12]
 2048 00d6 FFF7FEFF 		bl	arm_cfft_radix8by4_f32
 601:./Libraries/CMSIS/DSP/Source/TransformFunctions/arm_cfft_f32.c ****     break;
 2049              		.loc 1 601 5
 2050 00da 08E0     		b	.L12
 2051              	.L11:
 602:./Libraries/CMSIS/DSP/Source/TransformFunctions/arm_cfft_f32.c ****   case 64:
 603:./Libraries/CMSIS/DSP/Source/TransformFunctions/arm_cfft_f32.c ****   case 512:
 604:./Libraries/CMSIS/DSP/Source/TransformFunctions/arm_cfft_f32.c ****   case 4096:
 605:./Libraries/CMSIS/DSP/Source/TransformFunctions/arm_cfft_f32.c ****     arm_radix8_butterfly_f32 ( p1, L, (float32_t *) S->pTwiddle, 1);
 2052              		.loc 1 605 5
 2053 00dc 7B69     		ldr	r3, [r7, #20]
 2054 00de 99B2     		uxth	r1, r3
 2055              		.loc 1 605 54
 2056 00e0 FB68     		ldr	r3, [r7, #12]
 2057 00e2 5A68     		ldr	r2, [r3, #4]
 2058              		.loc 1 605 5
 2059 00e4 0123     		movs	r3, #1
 2060 00e6 B868     		ldr	r0, [r7, #8]
 2061 00e8 FFF7FEFF 		bl	arm_radix8_butterfly_f32
 606:./Libraries/CMSIS/DSP/Source/TransformFunctions/arm_cfft_f32.c ****     break;
 2062              		.loc 1 606 5
 2063 00ec 00BF     		nop
 2064              	.L12:
 607:./Libraries/CMSIS/DSP/Source/TransformFunctions/arm_cfft_f32.c ****   }
 608:./Libraries/CMSIS/DSP/Source/TransformFunctions/arm_cfft_f32.c **** 
 609:./Libraries/CMSIS/DSP/Source/TransformFunctions/arm_cfft_f32.c ****   if ( bitReverseFlag )
 2065              		.loc 1 609 6
 2066 00ee BB79     		ldrb	r3, [r7, #6]	@ zero_extendqisi2
 2067 00f0 002B     		cmp	r3, #0
 2068 00f2 07D0     		beq	.L15
 610:./Libraries/CMSIS/DSP/Source/TransformFunctions/arm_cfft_f32.c ****     arm_bitreversal_32 ((uint32_t*) p1, S->bitRevLength, S->pBitRevTable);
ARM GAS  /tmp/cckRGVoG.s 			page 48


 2069              		.loc 1 610 5
 2070 00f4 FB68     		ldr	r3, [r7, #12]
 2071 00f6 9989     		ldrh	r1, [r3, #12]
 2072 00f8 FB68     		ldr	r3, [r7, #12]
 2073 00fa 9B68     		ldr	r3, [r3, #8]
 2074 00fc 1A46     		mov	r2, r3
 2075 00fe B868     		ldr	r0, [r7, #8]
 2076 0100 FFF7FEFF 		bl	arm_bitreversal_32
 2077              	.L15:
 611:./Libraries/CMSIS/DSP/Source/TransformFunctions/arm_cfft_f32.c **** 
 612:./Libraries/CMSIS/DSP/Source/TransformFunctions/arm_cfft_f32.c ****   if (ifftFlag == 1U)
 2078              		.loc 1 612 6
 2079 0104 FB79     		ldrb	r3, [r7, #7]	@ zero_extendqisi2
 2080 0106 012B     		cmp	r3, #1
 2081 0108 30D1     		bne	.L19
 613:./Libraries/CMSIS/DSP/Source/TransformFunctions/arm_cfft_f32.c ****   {
 614:./Libraries/CMSIS/DSP/Source/TransformFunctions/arm_cfft_f32.c ****     invL = 1.0f / (float32_t)L;
 2082              		.loc 1 614 19
 2083 010a 7B69     		ldr	r3, [r7, #20]
 2084 010c 07EE903A 		vmov	s15, r3	@ int
 2085 0110 B8EE677A 		vcvt.f32.u32	s14, s15
 2086              		.loc 1 614 10
 2087 0114 F7EE006A 		vmov.f32	s13, #1.0e+0
 2088 0118 C6EE877A 		vdiv.f32	s15, s13, s14
 2089 011c C7ED047A 		vstr.32	s15, [r7, #16]
 615:./Libraries/CMSIS/DSP/Source/TransformFunctions/arm_cfft_f32.c **** 
 616:./Libraries/CMSIS/DSP/Source/TransformFunctions/arm_cfft_f32.c ****     /* Conjugate and scale output data */
 617:./Libraries/CMSIS/DSP/Source/TransformFunctions/arm_cfft_f32.c ****     pSrc = p1;
 2090              		.loc 1 617 10
 2091 0120 BB68     		ldr	r3, [r7, #8]
 2092 0122 BB61     		str	r3, [r7, #24]
 618:./Libraries/CMSIS/DSP/Source/TransformFunctions/arm_cfft_f32.c ****     for (l= 0; l < L; l++)
 2093              		.loc 1 618 11
 2094 0124 0023     		movs	r3, #0
 2095 0126 FB61     		str	r3, [r7, #28]
 2096              		.loc 1 618 5
 2097 0128 1CE0     		b	.L17
 2098              	.L18:
 619:./Libraries/CMSIS/DSP/Source/TransformFunctions/arm_cfft_f32.c ****     {
 620:./Libraries/CMSIS/DSP/Source/TransformFunctions/arm_cfft_f32.c ****       *pSrc++ *=   invL ;
 2099              		.loc 1 620 12 discriminator 3
 2100 012a BB69     		ldr	r3, [r7, #24]
 2101 012c 1A1D     		adds	r2, r3, #4
 2102 012e BA61     		str	r2, [r7, #24]
 2103              		.loc 1 620 15 discriminator 3
 2104 0130 93ED007A 		vldr.32	s14, [r3]
 2105 0134 D7ED047A 		vldr.32	s15, [r7, #16]
 2106 0138 67EE277A 		vmul.f32	s15, s14, s15
 2107 013c C3ED007A 		vstr.32	s15, [r3]
 621:./Libraries/CMSIS/DSP/Source/TransformFunctions/arm_cfft_f32.c ****       *pSrc    = -(*pSrc) * invL;
 2108              		.loc 1 621 20 discriminator 3
 2109 0140 BB69     		ldr	r3, [r7, #24]
 2110 0142 D3ED007A 		vldr.32	s15, [r3]
 2111              		.loc 1 621 18 discriminator 3
 2112 0146 B1EE677A 		vneg.f32	s14, s15
 2113              		.loc 1 621 27 discriminator 3
 2114 014a D7ED047A 		vldr.32	s15, [r7, #16]
ARM GAS  /tmp/cckRGVoG.s 			page 49


 2115 014e 67EE277A 		vmul.f32	s15, s14, s15
 2116              		.loc 1 621 16 discriminator 3
 2117 0152 BB69     		ldr	r3, [r7, #24]
 2118 0154 C3ED007A 		vstr.32	s15, [r3]
 622:./Libraries/CMSIS/DSP/Source/TransformFunctions/arm_cfft_f32.c ****       pSrc++;
 2119              		.loc 1 622 11 discriminator 3
 2120 0158 BB69     		ldr	r3, [r7, #24]
 2121 015a 0433     		adds	r3, r3, #4
 2122 015c BB61     		str	r3, [r7, #24]
 618:./Libraries/CMSIS/DSP/Source/TransformFunctions/arm_cfft_f32.c ****     {
 2123              		.loc 1 618 24 discriminator 3
 2124 015e FB69     		ldr	r3, [r7, #28]
 2125 0160 0133     		adds	r3, r3, #1
 2126 0162 FB61     		str	r3, [r7, #28]
 2127              	.L17:
 618:./Libraries/CMSIS/DSP/Source/TransformFunctions/arm_cfft_f32.c ****     {
 2128              		.loc 1 618 5 discriminator 1
 2129 0164 FA69     		ldr	r2, [r7, #28]
 2130 0166 7B69     		ldr	r3, [r7, #20]
 2131 0168 9A42     		cmp	r2, r3
 2132 016a DED3     		bcc	.L18
 2133              	.L19:
 623:./Libraries/CMSIS/DSP/Source/TransformFunctions/arm_cfft_f32.c ****     }
 624:./Libraries/CMSIS/DSP/Source/TransformFunctions/arm_cfft_f32.c ****   }
 625:./Libraries/CMSIS/DSP/Source/TransformFunctions/arm_cfft_f32.c **** }
 2134              		.loc 1 625 1
 2135 016c 00BF     		nop
 2136 016e 2037     		adds	r7, r7, #32
 2137              	.LCFI13:
 2138              		.cfi_def_cfa_offset 8
 2139 0170 BD46     		mov	sp, r7
 2140              	.LCFI14:
 2141              		.cfi_def_cfa_register 13
 2142              		@ sp needed
 2143 0172 80BD     		pop	{r7, pc}
 2144              		.cfi_endproc
 2145              	.LFE147:
 2147              		.text
 2148              	.Letext0:
 2149              		.file 2 "/usr/lib/gcc/arm-none-eabi/9.2.1/include/stdint.h"
 2150              		.file 3 "/usr/lib/gcc/arm-none-eabi/9.2.1/include/stddef.h"
 2151              		.file 4 "/usr/include/newlib/sys/_types.h"
 2152              		.file 5 "/usr/include/newlib/sys/reent.h"
 2153              		.file 6 "/usr/include/newlib/sys/lock.h"
 2154              		.file 7 "/usr/include/newlib/math.h"
 2155              		.file 8 "./Libraries/CMSIS/DSP/Include/arm_math.h"
 2156              		.file 9 "./Libraries/CMSIS/DSP/Include/arm_common_tables.h"
ARM GAS  /tmp/cckRGVoG.s 			page 50

