ARM GAS  /tmp/cclL3f7S.s 			page 1


   1              		.cpu cortex-m7
   2              		.eabi_attribute 28, 1
   3              		.eabi_attribute 20, 1
   4              		.eabi_attribute 21, 1
   5              		.eabi_attribute 23, 3
   6              		.eabi_attribute 24, 1
   7              		.eabi_attribute 25, 1
   8              		.eabi_attribute 26, 1
   9              		.eabi_attribute 30, 6
  10              		.eabi_attribute 34, 1
  11              		.eabi_attribute 18, 4
  12              		.file	"arm_dct4_q15.c"
  13              		.text
  14              	.Ltext0:
  15              		.cfi_sections	.debug_frame
  16              		.section	.text.arm_dct4_q15,"ax",%progbits
  17              		.align	1
  18              		.global	arm_dct4_q15
  19              		.arch armv7e-m
  20              		.syntax unified
  21              		.thumb
  22              		.thumb_func
  23              		.fpu fpv5-d16
  25              	arm_dct4_q15:
  26              	.LFB145:
  27              		.file 1 "./Libraries/CMSIS/DSP/Source/TransformFunctions/arm_dct4_q15.c"
   1:./Libraries/CMSIS/DSP/Source/TransformFunctions/arm_dct4_q15.c **** /* ----------------------------------------------------------------------
   2:./Libraries/CMSIS/DSP/Source/TransformFunctions/arm_dct4_q15.c ****  * Project:      CMSIS DSP Library
   3:./Libraries/CMSIS/DSP/Source/TransformFunctions/arm_dct4_q15.c ****  * Title:        arm_dct4_q15.c
   4:./Libraries/CMSIS/DSP/Source/TransformFunctions/arm_dct4_q15.c ****  * Description:  Processing function of DCT4 & IDCT4 Q15
   5:./Libraries/CMSIS/DSP/Source/TransformFunctions/arm_dct4_q15.c ****  *
   6:./Libraries/CMSIS/DSP/Source/TransformFunctions/arm_dct4_q15.c ****  * $Date:        18. March 2019
   7:./Libraries/CMSIS/DSP/Source/TransformFunctions/arm_dct4_q15.c ****  * $Revision:    V1.6.0
   8:./Libraries/CMSIS/DSP/Source/TransformFunctions/arm_dct4_q15.c ****  *
   9:./Libraries/CMSIS/DSP/Source/TransformFunctions/arm_dct4_q15.c ****  * Target Processor: Cortex-M cores
  10:./Libraries/CMSIS/DSP/Source/TransformFunctions/arm_dct4_q15.c ****  * -------------------------------------------------------------------- */
  11:./Libraries/CMSIS/DSP/Source/TransformFunctions/arm_dct4_q15.c **** /*
  12:./Libraries/CMSIS/DSP/Source/TransformFunctions/arm_dct4_q15.c ****  * Copyright (C) 2010-2019 ARM Limited or its affiliates. All rights reserved.
  13:./Libraries/CMSIS/DSP/Source/TransformFunctions/arm_dct4_q15.c ****  *
  14:./Libraries/CMSIS/DSP/Source/TransformFunctions/arm_dct4_q15.c ****  * SPDX-License-Identifier: Apache-2.0
  15:./Libraries/CMSIS/DSP/Source/TransformFunctions/arm_dct4_q15.c ****  *
  16:./Libraries/CMSIS/DSP/Source/TransformFunctions/arm_dct4_q15.c ****  * Licensed under the Apache License, Version 2.0 (the License); you may
  17:./Libraries/CMSIS/DSP/Source/TransformFunctions/arm_dct4_q15.c ****  * not use this file except in compliance with the License.
  18:./Libraries/CMSIS/DSP/Source/TransformFunctions/arm_dct4_q15.c ****  * You may obtain a copy of the License at
  19:./Libraries/CMSIS/DSP/Source/TransformFunctions/arm_dct4_q15.c ****  *
  20:./Libraries/CMSIS/DSP/Source/TransformFunctions/arm_dct4_q15.c ****  * www.apache.org/licenses/LICENSE-2.0
  21:./Libraries/CMSIS/DSP/Source/TransformFunctions/arm_dct4_q15.c ****  *
  22:./Libraries/CMSIS/DSP/Source/TransformFunctions/arm_dct4_q15.c ****  * Unless required by applicable law or agreed to in writing, software
  23:./Libraries/CMSIS/DSP/Source/TransformFunctions/arm_dct4_q15.c ****  * distributed under the License is distributed on an AS IS BASIS, WITHOUT
  24:./Libraries/CMSIS/DSP/Source/TransformFunctions/arm_dct4_q15.c ****  * WARRANTIES OR CONDITIONS OF ANY KIND, either express or implied.
  25:./Libraries/CMSIS/DSP/Source/TransformFunctions/arm_dct4_q15.c ****  * See the License for the specific language governing permissions and
  26:./Libraries/CMSIS/DSP/Source/TransformFunctions/arm_dct4_q15.c ****  * limitations under the License.
  27:./Libraries/CMSIS/DSP/Source/TransformFunctions/arm_dct4_q15.c ****  */
  28:./Libraries/CMSIS/DSP/Source/TransformFunctions/arm_dct4_q15.c **** 
  29:./Libraries/CMSIS/DSP/Source/TransformFunctions/arm_dct4_q15.c **** #include "arm_math.h"
  30:./Libraries/CMSIS/DSP/Source/TransformFunctions/arm_dct4_q15.c **** 
  31:./Libraries/CMSIS/DSP/Source/TransformFunctions/arm_dct4_q15.c **** /**
ARM GAS  /tmp/cclL3f7S.s 			page 2


  32:./Libraries/CMSIS/DSP/Source/TransformFunctions/arm_dct4_q15.c ****   @addtogroup DCT4_IDCT4
  33:./Libraries/CMSIS/DSP/Source/TransformFunctions/arm_dct4_q15.c ****   @{
  34:./Libraries/CMSIS/DSP/Source/TransformFunctions/arm_dct4_q15.c ****  */
  35:./Libraries/CMSIS/DSP/Source/TransformFunctions/arm_dct4_q15.c **** 
  36:./Libraries/CMSIS/DSP/Source/TransformFunctions/arm_dct4_q15.c **** /**
  37:./Libraries/CMSIS/DSP/Source/TransformFunctions/arm_dct4_q15.c ****   @brief         Processing function for the Q15 DCT4/IDCT4.
  38:./Libraries/CMSIS/DSP/Source/TransformFunctions/arm_dct4_q15.c ****   @param[in]     S             points to an instance of the Q15 DCT4 structure.
  39:./Libraries/CMSIS/DSP/Source/TransformFunctions/arm_dct4_q15.c ****   @param[in]     pState        points to state buffer.
  40:./Libraries/CMSIS/DSP/Source/TransformFunctions/arm_dct4_q15.c ****   @param[in,out] pInlineBuffer points to the in-place input and output buffer.
  41:./Libraries/CMSIS/DSP/Source/TransformFunctions/arm_dct4_q15.c ****   @return        none
  42:./Libraries/CMSIS/DSP/Source/TransformFunctions/arm_dct4_q15.c ****  
  43:./Libraries/CMSIS/DSP/Source/TransformFunctions/arm_dct4_q15.c ****   @par           Input an output formats
  44:./Libraries/CMSIS/DSP/Source/TransformFunctions/arm_dct4_q15.c ****                    Internally inputs are downscaled in the RFFT process function to avoid overflows
  45:./Libraries/CMSIS/DSP/Source/TransformFunctions/arm_dct4_q15.c ****                    Number of bits downscaled, depends on the size of the transform. The input and o
  46:./Libraries/CMSIS/DSP/Source/TransformFunctions/arm_dct4_q15.c ****                    formats for different DCT sizes and number of bits to upscale are mentioned in t
  47:./Libraries/CMSIS/DSP/Source/TransformFunctions/arm_dct4_q15.c **** 
  48:./Libraries/CMSIS/DSP/Source/TransformFunctions/arm_dct4_q15.c ****                    \image html dct4FormatsQ15Table.gif
  49:./Libraries/CMSIS/DSP/Source/TransformFunctions/arm_dct4_q15.c ****  */
  50:./Libraries/CMSIS/DSP/Source/TransformFunctions/arm_dct4_q15.c **** 
  51:./Libraries/CMSIS/DSP/Source/TransformFunctions/arm_dct4_q15.c **** void arm_dct4_q15(
  52:./Libraries/CMSIS/DSP/Source/TransformFunctions/arm_dct4_q15.c ****   const arm_dct4_instance_q15 * S,
  53:./Libraries/CMSIS/DSP/Source/TransformFunctions/arm_dct4_q15.c ****         q15_t * pState,
  54:./Libraries/CMSIS/DSP/Source/TransformFunctions/arm_dct4_q15.c ****         q15_t * pInlineBuffer)
  55:./Libraries/CMSIS/DSP/Source/TransformFunctions/arm_dct4_q15.c **** {
  28              		.loc 1 55 1
  29              		.cfi_startproc
  30              		@ args = 0, pretend = 0, frame = 48
  31              		@ frame_needed = 1, uses_anonymous_args = 0
  32 0000 80B5     		push	{r7, lr}
  33              	.LCFI0:
  34              		.cfi_def_cfa_offset 8
  35              		.cfi_offset 7, -8
  36              		.cfi_offset 14, -4
  37 0002 8CB0     		sub	sp, sp, #48
  38              	.LCFI1:
  39              		.cfi_def_cfa_offset 56
  40 0004 00AF     		add	r7, sp, #0
  41              	.LCFI2:
  42              		.cfi_def_cfa_register 7
  43 0006 F860     		str	r0, [r7, #12]
  44 0008 B960     		str	r1, [r7, #8]
  45 000a 7A60     		str	r2, [r7, #4]
  56:./Libraries/CMSIS/DSP/Source/TransformFunctions/arm_dct4_q15.c ****   const q15_t *weights = S->pTwiddle;                  /* Pointer to the Weights table */
  46              		.loc 1 56 16
  47 000c FB68     		ldr	r3, [r7, #12]
  48 000e 9B68     		ldr	r3, [r3, #8]
  49 0010 BB61     		str	r3, [r7, #24]
  57:./Libraries/CMSIS/DSP/Source/TransformFunctions/arm_dct4_q15.c ****   const q15_t *cosFact = S->pCosFactor;                /* Pointer to the cos factors table */
  50              		.loc 1 57 16
  51 0012 FB68     		ldr	r3, [r7, #12]
  52 0014 DB68     		ldr	r3, [r3, #12]
  53 0016 7B61     		str	r3, [r7, #20]
  58:./Libraries/CMSIS/DSP/Source/TransformFunctions/arm_dct4_q15.c ****         q15_t *pS1, *pS2, *pbuff;                      /* Temporary pointers for input buffer and p
  59:./Libraries/CMSIS/DSP/Source/TransformFunctions/arm_dct4_q15.c ****         q15_t in;                                      /* Temporary variable */
  60:./Libraries/CMSIS/DSP/Source/TransformFunctions/arm_dct4_q15.c ****         uint32_t i;                                    /* Loop counter */
  61:./Libraries/CMSIS/DSP/Source/TransformFunctions/arm_dct4_q15.c **** 
  62:./Libraries/CMSIS/DSP/Source/TransformFunctions/arm_dct4_q15.c **** 
ARM GAS  /tmp/cclL3f7S.s 			page 3


  63:./Libraries/CMSIS/DSP/Source/TransformFunctions/arm_dct4_q15.c ****   /* DCT4 computation involves DCT2 (which is calculated using RFFT)
  64:./Libraries/CMSIS/DSP/Source/TransformFunctions/arm_dct4_q15.c ****    * along with some pre-processing and post-processing.
  65:./Libraries/CMSIS/DSP/Source/TransformFunctions/arm_dct4_q15.c ****    * Computational procedure is explained as follows:
  66:./Libraries/CMSIS/DSP/Source/TransformFunctions/arm_dct4_q15.c ****    * (a) Pre-processing involves multiplying input with cos factor,
  67:./Libraries/CMSIS/DSP/Source/TransformFunctions/arm_dct4_q15.c ****    *     r(n) = 2 * u(n) * cos(pi*(2*n+1)/(4*n))
  68:./Libraries/CMSIS/DSP/Source/TransformFunctions/arm_dct4_q15.c ****    *              where,
  69:./Libraries/CMSIS/DSP/Source/TransformFunctions/arm_dct4_q15.c ****    *                 r(n) -- output of preprocessing
  70:./Libraries/CMSIS/DSP/Source/TransformFunctions/arm_dct4_q15.c ****    *                 u(n) -- input to preprocessing(actual Source buffer)
  71:./Libraries/CMSIS/DSP/Source/TransformFunctions/arm_dct4_q15.c ****    * (b) Calculation of DCT2 using FFT is divided into three steps:
  72:./Libraries/CMSIS/DSP/Source/TransformFunctions/arm_dct4_q15.c ****    *                  Step1: Re-ordering of even and odd elements of input.
  73:./Libraries/CMSIS/DSP/Source/TransformFunctions/arm_dct4_q15.c ****    *                  Step2: Calculating FFT of the re-ordered input.
  74:./Libraries/CMSIS/DSP/Source/TransformFunctions/arm_dct4_q15.c ****    *                  Step3: Taking the real part of the product of FFT output and weights.
  75:./Libraries/CMSIS/DSP/Source/TransformFunctions/arm_dct4_q15.c ****    * (c) Post-processing - DCT4 can be obtained from DCT2 output using the following equation:
  76:./Libraries/CMSIS/DSP/Source/TransformFunctions/arm_dct4_q15.c ****    *                   Y4(k) = Y2(k) - Y4(k-1) and Y4(-1) = Y4(0)
  77:./Libraries/CMSIS/DSP/Source/TransformFunctions/arm_dct4_q15.c ****    *                        where,
  78:./Libraries/CMSIS/DSP/Source/TransformFunctions/arm_dct4_q15.c ****    *                           Y4 -- DCT4 output,   Y2 -- DCT2 output
  79:./Libraries/CMSIS/DSP/Source/TransformFunctions/arm_dct4_q15.c ****    * (d) Multiplying the output with the normalizing factor sqrt(2/N).
  80:./Libraries/CMSIS/DSP/Source/TransformFunctions/arm_dct4_q15.c ****    */
  81:./Libraries/CMSIS/DSP/Source/TransformFunctions/arm_dct4_q15.c **** 
  82:./Libraries/CMSIS/DSP/Source/TransformFunctions/arm_dct4_q15.c ****   /*-------- Pre-processing ------------*/
  83:./Libraries/CMSIS/DSP/Source/TransformFunctions/arm_dct4_q15.c ****   /* Multiplying input with cos factor i.e. r(n) = 2 * x(n) * cos(pi*(2*n+1)/(4*n)) */
  84:./Libraries/CMSIS/DSP/Source/TransformFunctions/arm_dct4_q15.c ****   arm_mult_q15 (pInlineBuffer, cosFact, pInlineBuffer, S->N);
  54              		.loc 1 84 57
  55 0018 FB68     		ldr	r3, [r7, #12]
  56 001a 1B88     		ldrh	r3, [r3]
  57              		.loc 1 84 3
  58 001c 7A68     		ldr	r2, [r7, #4]
  59 001e 7969     		ldr	r1, [r7, #20]
  60 0020 7868     		ldr	r0, [r7, #4]
  61 0022 FFF7FEFF 		bl	arm_mult_q15
  85:./Libraries/CMSIS/DSP/Source/TransformFunctions/arm_dct4_q15.c ****   arm_shift_q15 (pInlineBuffer, 1, pInlineBuffer, S->N);
  62              		.loc 1 85 52
  63 0026 FB68     		ldr	r3, [r7, #12]
  64 0028 1B88     		ldrh	r3, [r3]
  65              		.loc 1 85 3
  66 002a 7A68     		ldr	r2, [r7, #4]
  67 002c 0121     		movs	r1, #1
  68 002e 7868     		ldr	r0, [r7, #4]
  69 0030 FFF7FEFF 		bl	arm_shift_q15
  86:./Libraries/CMSIS/DSP/Source/TransformFunctions/arm_dct4_q15.c **** 
  87:./Libraries/CMSIS/DSP/Source/TransformFunctions/arm_dct4_q15.c ****   /* ----------------------------------------------------------------
  88:./Libraries/CMSIS/DSP/Source/TransformFunctions/arm_dct4_q15.c ****    * Step1: Re-ordering of even and odd elements as
  89:./Libraries/CMSIS/DSP/Source/TransformFunctions/arm_dct4_q15.c ****    *             pState[i] =  pInlineBuffer[2*i] and
  90:./Libraries/CMSIS/DSP/Source/TransformFunctions/arm_dct4_q15.c ****    *             pState[N-i-1] = pInlineBuffer[2*i+1] where i = 0 to N/2
  91:./Libraries/CMSIS/DSP/Source/TransformFunctions/arm_dct4_q15.c ****    ---------------------------------------------------------------------*/
  92:./Libraries/CMSIS/DSP/Source/TransformFunctions/arm_dct4_q15.c **** 
  93:./Libraries/CMSIS/DSP/Source/TransformFunctions/arm_dct4_q15.c ****   /* pS1 initialized to pState */
  94:./Libraries/CMSIS/DSP/Source/TransformFunctions/arm_dct4_q15.c ****   pS1 = pState;
  70              		.loc 1 94 7
  71 0034 BB68     		ldr	r3, [r7, #8]
  72 0036 FB62     		str	r3, [r7, #44]
  95:./Libraries/CMSIS/DSP/Source/TransformFunctions/arm_dct4_q15.c **** 
  96:./Libraries/CMSIS/DSP/Source/TransformFunctions/arm_dct4_q15.c ****   /* pS2 initialized to pState+N-1, so that it points to the end of the state buffer */
  97:./Libraries/CMSIS/DSP/Source/TransformFunctions/arm_dct4_q15.c ****   pS2 = pState + (S->N - 1U);
  73              		.loc 1 97 20
  74 0038 FB68     		ldr	r3, [r7, #12]
  75 003a 1B88     		ldrh	r3, [r3]
ARM GAS  /tmp/cclL3f7S.s 			page 4


  76              		.loc 1 97 16
  77 003c 1A46     		mov	r2, r3
  78 003e 6FF00043 		mvn	r3, #-2147483648
  79 0042 1344     		add	r3, r3, r2
  80 0044 5B00     		lsls	r3, r3, #1
  81              		.loc 1 97 7
  82 0046 BA68     		ldr	r2, [r7, #8]
  83 0048 1344     		add	r3, r3, r2
  84 004a BB62     		str	r3, [r7, #40]
  98:./Libraries/CMSIS/DSP/Source/TransformFunctions/arm_dct4_q15.c **** 
  99:./Libraries/CMSIS/DSP/Source/TransformFunctions/arm_dct4_q15.c ****   /* pbuff initialized to input buffer */
 100:./Libraries/CMSIS/DSP/Source/TransformFunctions/arm_dct4_q15.c ****   pbuff = pInlineBuffer;
  85              		.loc 1 100 9
  86 004c 7B68     		ldr	r3, [r7, #4]
  87 004e 7B62     		str	r3, [r7, #36]
 101:./Libraries/CMSIS/DSP/Source/TransformFunctions/arm_dct4_q15.c **** 
 102:./Libraries/CMSIS/DSP/Source/TransformFunctions/arm_dct4_q15.c **** 
 103:./Libraries/CMSIS/DSP/Source/TransformFunctions/arm_dct4_q15.c **** #if defined (ARM_MATH_LOOPUNROLL)
 104:./Libraries/CMSIS/DSP/Source/TransformFunctions/arm_dct4_q15.c **** 
 105:./Libraries/CMSIS/DSP/Source/TransformFunctions/arm_dct4_q15.c ****   /* Initializing the loop counter to N/2 >> 2 for loop unrolling by 4 */
 106:./Libraries/CMSIS/DSP/Source/TransformFunctions/arm_dct4_q15.c ****   i = S->Nby2 >> 2U;
 107:./Libraries/CMSIS/DSP/Source/TransformFunctions/arm_dct4_q15.c **** 
 108:./Libraries/CMSIS/DSP/Source/TransformFunctions/arm_dct4_q15.c ****   /* First part of the processing with loop unrolling.  Compute 4 outputs at a time.
 109:./Libraries/CMSIS/DSP/Source/TransformFunctions/arm_dct4_q15.c ****    ** a second loop below computes the remaining 1 to 3 samples. */
 110:./Libraries/CMSIS/DSP/Source/TransformFunctions/arm_dct4_q15.c ****   do
 111:./Libraries/CMSIS/DSP/Source/TransformFunctions/arm_dct4_q15.c ****   {
 112:./Libraries/CMSIS/DSP/Source/TransformFunctions/arm_dct4_q15.c ****     /* Re-ordering of even and odd elements */
 113:./Libraries/CMSIS/DSP/Source/TransformFunctions/arm_dct4_q15.c ****     /* pState[i] =  pInlineBuffer[2*i] */
 114:./Libraries/CMSIS/DSP/Source/TransformFunctions/arm_dct4_q15.c ****     *pS1++ = *pbuff++;
 115:./Libraries/CMSIS/DSP/Source/TransformFunctions/arm_dct4_q15.c ****     /* pState[N-i-1] = pInlineBuffer[2*i+1] */
 116:./Libraries/CMSIS/DSP/Source/TransformFunctions/arm_dct4_q15.c ****     *pS2-- = *pbuff++;
 117:./Libraries/CMSIS/DSP/Source/TransformFunctions/arm_dct4_q15.c **** 
 118:./Libraries/CMSIS/DSP/Source/TransformFunctions/arm_dct4_q15.c ****     *pS1++ = *pbuff++;
 119:./Libraries/CMSIS/DSP/Source/TransformFunctions/arm_dct4_q15.c ****     *pS2-- = *pbuff++;
 120:./Libraries/CMSIS/DSP/Source/TransformFunctions/arm_dct4_q15.c **** 
 121:./Libraries/CMSIS/DSP/Source/TransformFunctions/arm_dct4_q15.c ****     *pS1++ = *pbuff++;
 122:./Libraries/CMSIS/DSP/Source/TransformFunctions/arm_dct4_q15.c ****     *pS2-- = *pbuff++;
 123:./Libraries/CMSIS/DSP/Source/TransformFunctions/arm_dct4_q15.c **** 
 124:./Libraries/CMSIS/DSP/Source/TransformFunctions/arm_dct4_q15.c ****     *pS1++ = *pbuff++;
 125:./Libraries/CMSIS/DSP/Source/TransformFunctions/arm_dct4_q15.c ****     *pS2-- = *pbuff++;
 126:./Libraries/CMSIS/DSP/Source/TransformFunctions/arm_dct4_q15.c **** 
 127:./Libraries/CMSIS/DSP/Source/TransformFunctions/arm_dct4_q15.c ****     /* Decrement loop counter */
 128:./Libraries/CMSIS/DSP/Source/TransformFunctions/arm_dct4_q15.c ****     i--;
 129:./Libraries/CMSIS/DSP/Source/TransformFunctions/arm_dct4_q15.c ****   } while (i > 0U);
 130:./Libraries/CMSIS/DSP/Source/TransformFunctions/arm_dct4_q15.c **** 
 131:./Libraries/CMSIS/DSP/Source/TransformFunctions/arm_dct4_q15.c ****   /* pbuff initialized to input buffer */
 132:./Libraries/CMSIS/DSP/Source/TransformFunctions/arm_dct4_q15.c ****   pbuff = pInlineBuffer;
 133:./Libraries/CMSIS/DSP/Source/TransformFunctions/arm_dct4_q15.c **** 
 134:./Libraries/CMSIS/DSP/Source/TransformFunctions/arm_dct4_q15.c ****   /* pS1 initialized to pState */
 135:./Libraries/CMSIS/DSP/Source/TransformFunctions/arm_dct4_q15.c ****   pS1 = pState;
 136:./Libraries/CMSIS/DSP/Source/TransformFunctions/arm_dct4_q15.c **** 
 137:./Libraries/CMSIS/DSP/Source/TransformFunctions/arm_dct4_q15.c ****   /* Initializing the loop counter to N/4 instead of N for loop unrolling */
 138:./Libraries/CMSIS/DSP/Source/TransformFunctions/arm_dct4_q15.c ****   i = S->N >> 2U;
 139:./Libraries/CMSIS/DSP/Source/TransformFunctions/arm_dct4_q15.c **** 
 140:./Libraries/CMSIS/DSP/Source/TransformFunctions/arm_dct4_q15.c ****   /* Processing with loop unrolling 4 times as N is always multiple of 4.
 141:./Libraries/CMSIS/DSP/Source/TransformFunctions/arm_dct4_q15.c ****    * Compute 4 outputs at a time */
 142:./Libraries/CMSIS/DSP/Source/TransformFunctions/arm_dct4_q15.c ****   do
ARM GAS  /tmp/cclL3f7S.s 			page 5


 143:./Libraries/CMSIS/DSP/Source/TransformFunctions/arm_dct4_q15.c ****   {
 144:./Libraries/CMSIS/DSP/Source/TransformFunctions/arm_dct4_q15.c ****     /* Writing the re-ordered output back to inplace input buffer */
 145:./Libraries/CMSIS/DSP/Source/TransformFunctions/arm_dct4_q15.c ****     *pbuff++ = *pS1++;
 146:./Libraries/CMSIS/DSP/Source/TransformFunctions/arm_dct4_q15.c ****     *pbuff++ = *pS1++;
 147:./Libraries/CMSIS/DSP/Source/TransformFunctions/arm_dct4_q15.c ****     *pbuff++ = *pS1++;
 148:./Libraries/CMSIS/DSP/Source/TransformFunctions/arm_dct4_q15.c ****     *pbuff++ = *pS1++;
 149:./Libraries/CMSIS/DSP/Source/TransformFunctions/arm_dct4_q15.c **** 
 150:./Libraries/CMSIS/DSP/Source/TransformFunctions/arm_dct4_q15.c ****     /* Decrement the loop counter */
 151:./Libraries/CMSIS/DSP/Source/TransformFunctions/arm_dct4_q15.c ****     i--;
 152:./Libraries/CMSIS/DSP/Source/TransformFunctions/arm_dct4_q15.c ****   } while (i > 0U);
 153:./Libraries/CMSIS/DSP/Source/TransformFunctions/arm_dct4_q15.c **** 
 154:./Libraries/CMSIS/DSP/Source/TransformFunctions/arm_dct4_q15.c **** 
 155:./Libraries/CMSIS/DSP/Source/TransformFunctions/arm_dct4_q15.c ****   /* ---------------------------------------------------------
 156:./Libraries/CMSIS/DSP/Source/TransformFunctions/arm_dct4_q15.c ****    *     Step2: Calculate RFFT for N-point input
 157:./Libraries/CMSIS/DSP/Source/TransformFunctions/arm_dct4_q15.c ****    * ---------------------------------------------------------- */
 158:./Libraries/CMSIS/DSP/Source/TransformFunctions/arm_dct4_q15.c ****   /* pInlineBuffer is real input of length N , pState is the complex output of length 2N */
 159:./Libraries/CMSIS/DSP/Source/TransformFunctions/arm_dct4_q15.c ****   arm_rfft_q15 (S->pRfft, pInlineBuffer, pState);
 160:./Libraries/CMSIS/DSP/Source/TransformFunctions/arm_dct4_q15.c **** 
 161:./Libraries/CMSIS/DSP/Source/TransformFunctions/arm_dct4_q15.c ****   /*----------------------------------------------------------------------
 162:./Libraries/CMSIS/DSP/Source/TransformFunctions/arm_dct4_q15.c ****    *  Step3: Multiply the FFT output with the weights.
 163:./Libraries/CMSIS/DSP/Source/TransformFunctions/arm_dct4_q15.c ****    *----------------------------------------------------------------------*/
 164:./Libraries/CMSIS/DSP/Source/TransformFunctions/arm_dct4_q15.c ****   arm_cmplx_mult_cmplx_q15 (pState, weights, pState, S->N);
 165:./Libraries/CMSIS/DSP/Source/TransformFunctions/arm_dct4_q15.c **** 
 166:./Libraries/CMSIS/DSP/Source/TransformFunctions/arm_dct4_q15.c ****   /* The output of complex multiplication is in 3.13 format.
 167:./Libraries/CMSIS/DSP/Source/TransformFunctions/arm_dct4_q15.c ****    * Hence changing the format of N (i.e. 2*N elements) complex numbers to 1.15 format by shifting 
 168:./Libraries/CMSIS/DSP/Source/TransformFunctions/arm_dct4_q15.c ****   arm_shift_q15 (pState, 2, pState, S->N * 2);
 169:./Libraries/CMSIS/DSP/Source/TransformFunctions/arm_dct4_q15.c **** 
 170:./Libraries/CMSIS/DSP/Source/TransformFunctions/arm_dct4_q15.c ****   /* ----------- Post-processing ---------- */
 171:./Libraries/CMSIS/DSP/Source/TransformFunctions/arm_dct4_q15.c ****   /* DCT-IV can be obtained from DCT-II by the equation,
 172:./Libraries/CMSIS/DSP/Source/TransformFunctions/arm_dct4_q15.c ****    *       Y4(k) = Y2(k) - Y4(k-1) and Y4(-1) = Y4(0)
 173:./Libraries/CMSIS/DSP/Source/TransformFunctions/arm_dct4_q15.c ****    *       Hence, Y4(0) = Y2(0)/2  */
 174:./Libraries/CMSIS/DSP/Source/TransformFunctions/arm_dct4_q15.c ****   /* Getting only real part from the output and Converting to DCT-IV */
 175:./Libraries/CMSIS/DSP/Source/TransformFunctions/arm_dct4_q15.c **** 
 176:./Libraries/CMSIS/DSP/Source/TransformFunctions/arm_dct4_q15.c ****   /* Initializing the loop counter to N >> 2 for loop unrolling by 4 */
 177:./Libraries/CMSIS/DSP/Source/TransformFunctions/arm_dct4_q15.c ****   i = (S->N - 1U) >> 2U;
 178:./Libraries/CMSIS/DSP/Source/TransformFunctions/arm_dct4_q15.c **** 
 179:./Libraries/CMSIS/DSP/Source/TransformFunctions/arm_dct4_q15.c ****   /* pbuff initialized to input buffer. */
 180:./Libraries/CMSIS/DSP/Source/TransformFunctions/arm_dct4_q15.c ****   pbuff = pInlineBuffer;
 181:./Libraries/CMSIS/DSP/Source/TransformFunctions/arm_dct4_q15.c **** 
 182:./Libraries/CMSIS/DSP/Source/TransformFunctions/arm_dct4_q15.c ****   /* pS1 initialized to pState */
 183:./Libraries/CMSIS/DSP/Source/TransformFunctions/arm_dct4_q15.c ****   pS1 = pState;
 184:./Libraries/CMSIS/DSP/Source/TransformFunctions/arm_dct4_q15.c **** 
 185:./Libraries/CMSIS/DSP/Source/TransformFunctions/arm_dct4_q15.c ****   /* Calculating Y4(0) from Y2(0) using Y4(0) = Y2(0)/2 */
 186:./Libraries/CMSIS/DSP/Source/TransformFunctions/arm_dct4_q15.c ****   in = *pS1++ >> 1U;
 187:./Libraries/CMSIS/DSP/Source/TransformFunctions/arm_dct4_q15.c ****   /* input buffer acts as inplace, so output values are stored in the input itself. */
 188:./Libraries/CMSIS/DSP/Source/TransformFunctions/arm_dct4_q15.c ****   *pbuff++ = in;
 189:./Libraries/CMSIS/DSP/Source/TransformFunctions/arm_dct4_q15.c **** 
 190:./Libraries/CMSIS/DSP/Source/TransformFunctions/arm_dct4_q15.c ****   /* pState pointer is incremented twice as the real values are located alternatively in the array 
 191:./Libraries/CMSIS/DSP/Source/TransformFunctions/arm_dct4_q15.c ****   pS1++;
 192:./Libraries/CMSIS/DSP/Source/TransformFunctions/arm_dct4_q15.c **** 
 193:./Libraries/CMSIS/DSP/Source/TransformFunctions/arm_dct4_q15.c ****   /* First part of the processing with loop unrolling.  Compute 4 outputs at a time.
 194:./Libraries/CMSIS/DSP/Source/TransformFunctions/arm_dct4_q15.c ****    ** a second loop below computes the remaining 1 to 3 samples. */
 195:./Libraries/CMSIS/DSP/Source/TransformFunctions/arm_dct4_q15.c ****   do
 196:./Libraries/CMSIS/DSP/Source/TransformFunctions/arm_dct4_q15.c ****   {
 197:./Libraries/CMSIS/DSP/Source/TransformFunctions/arm_dct4_q15.c ****     /* Calculating Y4(1) to Y4(N-1) from Y2 using equation Y4(k) = Y2(k) - Y4(k-1) */
 198:./Libraries/CMSIS/DSP/Source/TransformFunctions/arm_dct4_q15.c ****     /* pState pointer (pS1) is incremented twice as the real values are located alternatively in th
 199:./Libraries/CMSIS/DSP/Source/TransformFunctions/arm_dct4_q15.c ****     in = *pS1++ - in;
ARM GAS  /tmp/cclL3f7S.s 			page 6


 200:./Libraries/CMSIS/DSP/Source/TransformFunctions/arm_dct4_q15.c ****     *pbuff++ = in;
 201:./Libraries/CMSIS/DSP/Source/TransformFunctions/arm_dct4_q15.c ****     /* points to the next real value */
 202:./Libraries/CMSIS/DSP/Source/TransformFunctions/arm_dct4_q15.c ****     pS1++;
 203:./Libraries/CMSIS/DSP/Source/TransformFunctions/arm_dct4_q15.c **** 
 204:./Libraries/CMSIS/DSP/Source/TransformFunctions/arm_dct4_q15.c ****     in = *pS1++ - in;
 205:./Libraries/CMSIS/DSP/Source/TransformFunctions/arm_dct4_q15.c ****     *pbuff++ = in;
 206:./Libraries/CMSIS/DSP/Source/TransformFunctions/arm_dct4_q15.c ****     pS1++;
 207:./Libraries/CMSIS/DSP/Source/TransformFunctions/arm_dct4_q15.c **** 
 208:./Libraries/CMSIS/DSP/Source/TransformFunctions/arm_dct4_q15.c ****     in = *pS1++ - in;
 209:./Libraries/CMSIS/DSP/Source/TransformFunctions/arm_dct4_q15.c ****     *pbuff++ = in;
 210:./Libraries/CMSIS/DSP/Source/TransformFunctions/arm_dct4_q15.c ****     pS1++;
 211:./Libraries/CMSIS/DSP/Source/TransformFunctions/arm_dct4_q15.c **** 
 212:./Libraries/CMSIS/DSP/Source/TransformFunctions/arm_dct4_q15.c ****     in = *pS1++ - in;
 213:./Libraries/CMSIS/DSP/Source/TransformFunctions/arm_dct4_q15.c ****     *pbuff++ = in;
 214:./Libraries/CMSIS/DSP/Source/TransformFunctions/arm_dct4_q15.c ****     pS1++;
 215:./Libraries/CMSIS/DSP/Source/TransformFunctions/arm_dct4_q15.c **** 
 216:./Libraries/CMSIS/DSP/Source/TransformFunctions/arm_dct4_q15.c ****     /* Decrement the loop counter */
 217:./Libraries/CMSIS/DSP/Source/TransformFunctions/arm_dct4_q15.c ****     i--;
 218:./Libraries/CMSIS/DSP/Source/TransformFunctions/arm_dct4_q15.c ****   } while (i > 0U);
 219:./Libraries/CMSIS/DSP/Source/TransformFunctions/arm_dct4_q15.c **** 
 220:./Libraries/CMSIS/DSP/Source/TransformFunctions/arm_dct4_q15.c ****   /* If the blockSize is not a multiple of 4, compute any remaining output samples here.
 221:./Libraries/CMSIS/DSP/Source/TransformFunctions/arm_dct4_q15.c ****    ** No loop unrolling is used. */
 222:./Libraries/CMSIS/DSP/Source/TransformFunctions/arm_dct4_q15.c ****   i = (S->N - 1U) % 0x4U;
 223:./Libraries/CMSIS/DSP/Source/TransformFunctions/arm_dct4_q15.c **** 
 224:./Libraries/CMSIS/DSP/Source/TransformFunctions/arm_dct4_q15.c ****   while (i > 0U)
 225:./Libraries/CMSIS/DSP/Source/TransformFunctions/arm_dct4_q15.c ****   {
 226:./Libraries/CMSIS/DSP/Source/TransformFunctions/arm_dct4_q15.c ****     /* Calculating Y4(1) to Y4(N-1) from Y2 using equation Y4(k) = Y2(k) - Y4(k-1) */
 227:./Libraries/CMSIS/DSP/Source/TransformFunctions/arm_dct4_q15.c ****     /* pState pointer (pS1) is incremented twice as the real values are located alternatively in th
 228:./Libraries/CMSIS/DSP/Source/TransformFunctions/arm_dct4_q15.c ****     in = *pS1++ - in;
 229:./Libraries/CMSIS/DSP/Source/TransformFunctions/arm_dct4_q15.c ****     *pbuff++ = in;
 230:./Libraries/CMSIS/DSP/Source/TransformFunctions/arm_dct4_q15.c **** 
 231:./Libraries/CMSIS/DSP/Source/TransformFunctions/arm_dct4_q15.c ****     /* points to the next real value */
 232:./Libraries/CMSIS/DSP/Source/TransformFunctions/arm_dct4_q15.c ****     pS1++;
 233:./Libraries/CMSIS/DSP/Source/TransformFunctions/arm_dct4_q15.c **** 
 234:./Libraries/CMSIS/DSP/Source/TransformFunctions/arm_dct4_q15.c ****     /* Decrement loop counter */
 235:./Libraries/CMSIS/DSP/Source/TransformFunctions/arm_dct4_q15.c ****     i--;
 236:./Libraries/CMSIS/DSP/Source/TransformFunctions/arm_dct4_q15.c ****   }
 237:./Libraries/CMSIS/DSP/Source/TransformFunctions/arm_dct4_q15.c **** 
 238:./Libraries/CMSIS/DSP/Source/TransformFunctions/arm_dct4_q15.c **** 
 239:./Libraries/CMSIS/DSP/Source/TransformFunctions/arm_dct4_q15.c ****   /*------------ Normalizing the output by multiplying with the normalizing factor ----------*/
 240:./Libraries/CMSIS/DSP/Source/TransformFunctions/arm_dct4_q15.c **** 
 241:./Libraries/CMSIS/DSP/Source/TransformFunctions/arm_dct4_q15.c ****   /* Initializing the loop counter to N/4 instead of N for loop unrolling */
 242:./Libraries/CMSIS/DSP/Source/TransformFunctions/arm_dct4_q15.c ****   i = S->N >> 2U;
 243:./Libraries/CMSIS/DSP/Source/TransformFunctions/arm_dct4_q15.c **** 
 244:./Libraries/CMSIS/DSP/Source/TransformFunctions/arm_dct4_q15.c ****   /* pbuff initialized to the pInlineBuffer(now contains the output values) */
 245:./Libraries/CMSIS/DSP/Source/TransformFunctions/arm_dct4_q15.c ****   pbuff = pInlineBuffer;
 246:./Libraries/CMSIS/DSP/Source/TransformFunctions/arm_dct4_q15.c **** 
 247:./Libraries/CMSIS/DSP/Source/TransformFunctions/arm_dct4_q15.c ****   /* Processing with loop unrolling 4 times as N is always multiple of 4.  Compute 4 outputs at a t
 248:./Libraries/CMSIS/DSP/Source/TransformFunctions/arm_dct4_q15.c ****   do
 249:./Libraries/CMSIS/DSP/Source/TransformFunctions/arm_dct4_q15.c ****   {
 250:./Libraries/CMSIS/DSP/Source/TransformFunctions/arm_dct4_q15.c ****     /* Multiplying pInlineBuffer with the normalizing factor sqrt(2/N) */
 251:./Libraries/CMSIS/DSP/Source/TransformFunctions/arm_dct4_q15.c ****     in = *pbuff;
 252:./Libraries/CMSIS/DSP/Source/TransformFunctions/arm_dct4_q15.c ****     *pbuff++ = ((q15_t) (((q31_t) in * S->normalize) >> 15));
 253:./Libraries/CMSIS/DSP/Source/TransformFunctions/arm_dct4_q15.c **** 
 254:./Libraries/CMSIS/DSP/Source/TransformFunctions/arm_dct4_q15.c ****     in = *pbuff;
 255:./Libraries/CMSIS/DSP/Source/TransformFunctions/arm_dct4_q15.c ****     *pbuff++ = ((q15_t) (((q31_t) in * S->normalize) >> 15));
 256:./Libraries/CMSIS/DSP/Source/TransformFunctions/arm_dct4_q15.c **** 
ARM GAS  /tmp/cclL3f7S.s 			page 7


 257:./Libraries/CMSIS/DSP/Source/TransformFunctions/arm_dct4_q15.c ****     in = *pbuff;
 258:./Libraries/CMSIS/DSP/Source/TransformFunctions/arm_dct4_q15.c ****     *pbuff++ = ((q15_t) (((q31_t) in * S->normalize) >> 15));
 259:./Libraries/CMSIS/DSP/Source/TransformFunctions/arm_dct4_q15.c **** 
 260:./Libraries/CMSIS/DSP/Source/TransformFunctions/arm_dct4_q15.c ****     in = *pbuff;
 261:./Libraries/CMSIS/DSP/Source/TransformFunctions/arm_dct4_q15.c ****     *pbuff++ = ((q15_t) (((q31_t) in * S->normalize) >> 15));
 262:./Libraries/CMSIS/DSP/Source/TransformFunctions/arm_dct4_q15.c **** 
 263:./Libraries/CMSIS/DSP/Source/TransformFunctions/arm_dct4_q15.c ****     /* Decrement loop counter */
 264:./Libraries/CMSIS/DSP/Source/TransformFunctions/arm_dct4_q15.c ****     i--;
 265:./Libraries/CMSIS/DSP/Source/TransformFunctions/arm_dct4_q15.c ****   } while (i > 0U);
 266:./Libraries/CMSIS/DSP/Source/TransformFunctions/arm_dct4_q15.c **** 
 267:./Libraries/CMSIS/DSP/Source/TransformFunctions/arm_dct4_q15.c **** 
 268:./Libraries/CMSIS/DSP/Source/TransformFunctions/arm_dct4_q15.c **** #else
 269:./Libraries/CMSIS/DSP/Source/TransformFunctions/arm_dct4_q15.c **** 
 270:./Libraries/CMSIS/DSP/Source/TransformFunctions/arm_dct4_q15.c ****   /* Initializing the loop counter to N/2 */
 271:./Libraries/CMSIS/DSP/Source/TransformFunctions/arm_dct4_q15.c ****   i = S->Nby2;
  88              		.loc 1 271 8
  89 0050 FB68     		ldr	r3, [r7, #12]
  90 0052 5B88     		ldrh	r3, [r3, #2]
  91              		.loc 1 271 5
  92 0054 FB61     		str	r3, [r7, #28]
  93              	.L2:
 272:./Libraries/CMSIS/DSP/Source/TransformFunctions/arm_dct4_q15.c **** 
 273:./Libraries/CMSIS/DSP/Source/TransformFunctions/arm_dct4_q15.c ****   do
 274:./Libraries/CMSIS/DSP/Source/TransformFunctions/arm_dct4_q15.c ****   {
 275:./Libraries/CMSIS/DSP/Source/TransformFunctions/arm_dct4_q15.c ****     /* Re-ordering of even and odd elements */
 276:./Libraries/CMSIS/DSP/Source/TransformFunctions/arm_dct4_q15.c ****     /* pState[i] =  pInlineBuffer[2*i] */
 277:./Libraries/CMSIS/DSP/Source/TransformFunctions/arm_dct4_q15.c ****     *pS1++ = *pbuff++;
  94              		.loc 1 277 20 discriminator 1
  95 0056 7A6A     		ldr	r2, [r7, #36]
  96 0058 931C     		adds	r3, r2, #2
  97 005a 7B62     		str	r3, [r7, #36]
  98              		.loc 1 277 9 discriminator 1
  99 005c FB6A     		ldr	r3, [r7, #44]
 100 005e 991C     		adds	r1, r3, #2
 101 0060 F962     		str	r1, [r7, #44]
 102              		.loc 1 277 14 discriminator 1
 103 0062 B2F90020 		ldrsh	r2, [r2]
 104              		.loc 1 277 12 discriminator 1
 105 0066 1A80     		strh	r2, [r3]	@ movhi
 278:./Libraries/CMSIS/DSP/Source/TransformFunctions/arm_dct4_q15.c ****     /* pState[N-i-1] = pInlineBuffer[2*i+1] */
 279:./Libraries/CMSIS/DSP/Source/TransformFunctions/arm_dct4_q15.c ****     *pS2-- = *pbuff++;
 106              		.loc 1 279 20 discriminator 1
 107 0068 7A6A     		ldr	r2, [r7, #36]
 108 006a 931C     		adds	r3, r2, #2
 109 006c 7B62     		str	r3, [r7, #36]
 110              		.loc 1 279 9 discriminator 1
 111 006e BB6A     		ldr	r3, [r7, #40]
 112 0070 991E     		subs	r1, r3, #2
 113 0072 B962     		str	r1, [r7, #40]
 114              		.loc 1 279 14 discriminator 1
 115 0074 B2F90020 		ldrsh	r2, [r2]
 116              		.loc 1 279 12 discriminator 1
 117 0078 1A80     		strh	r2, [r3]	@ movhi
 280:./Libraries/CMSIS/DSP/Source/TransformFunctions/arm_dct4_q15.c **** 
 281:./Libraries/CMSIS/DSP/Source/TransformFunctions/arm_dct4_q15.c ****     /* Decrement the loop counter */
 282:./Libraries/CMSIS/DSP/Source/TransformFunctions/arm_dct4_q15.c ****     i--;
 118              		.loc 1 282 6 discriminator 1
ARM GAS  /tmp/cclL3f7S.s 			page 8


 119 007a FB69     		ldr	r3, [r7, #28]
 120 007c 013B     		subs	r3, r3, #1
 121 007e FB61     		str	r3, [r7, #28]
 283:./Libraries/CMSIS/DSP/Source/TransformFunctions/arm_dct4_q15.c ****   } while (i > 0U);
 122              		.loc 1 283 3 discriminator 1
 123 0080 FB69     		ldr	r3, [r7, #28]
 124 0082 002B     		cmp	r3, #0
 125 0084 E7D1     		bne	.L2
 284:./Libraries/CMSIS/DSP/Source/TransformFunctions/arm_dct4_q15.c **** 
 285:./Libraries/CMSIS/DSP/Source/TransformFunctions/arm_dct4_q15.c ****   /* pbuff initialized to input buffer */
 286:./Libraries/CMSIS/DSP/Source/TransformFunctions/arm_dct4_q15.c ****   pbuff = pInlineBuffer;
 126              		.loc 1 286 9
 127 0086 7B68     		ldr	r3, [r7, #4]
 128 0088 7B62     		str	r3, [r7, #36]
 287:./Libraries/CMSIS/DSP/Source/TransformFunctions/arm_dct4_q15.c **** 
 288:./Libraries/CMSIS/DSP/Source/TransformFunctions/arm_dct4_q15.c ****   /* pS1 initialized to pState */
 289:./Libraries/CMSIS/DSP/Source/TransformFunctions/arm_dct4_q15.c ****   pS1 = pState;
 129              		.loc 1 289 7
 130 008a BB68     		ldr	r3, [r7, #8]
 131 008c FB62     		str	r3, [r7, #44]
 290:./Libraries/CMSIS/DSP/Source/TransformFunctions/arm_dct4_q15.c **** 
 291:./Libraries/CMSIS/DSP/Source/TransformFunctions/arm_dct4_q15.c ****   /* Initializing the loop counter */
 292:./Libraries/CMSIS/DSP/Source/TransformFunctions/arm_dct4_q15.c ****   i = S->N;
 132              		.loc 1 292 8
 133 008e FB68     		ldr	r3, [r7, #12]
 134 0090 1B88     		ldrh	r3, [r3]
 135              		.loc 1 292 5
 136 0092 FB61     		str	r3, [r7, #28]
 137              	.L3:
 293:./Libraries/CMSIS/DSP/Source/TransformFunctions/arm_dct4_q15.c **** 
 294:./Libraries/CMSIS/DSP/Source/TransformFunctions/arm_dct4_q15.c ****   do
 295:./Libraries/CMSIS/DSP/Source/TransformFunctions/arm_dct4_q15.c ****   {
 296:./Libraries/CMSIS/DSP/Source/TransformFunctions/arm_dct4_q15.c ****     /* Writing the re-ordered output back to inplace input buffer */
 297:./Libraries/CMSIS/DSP/Source/TransformFunctions/arm_dct4_q15.c ****     *pbuff++ = *pS1++;
 138              		.loc 1 297 20 discriminator 1
 139 0094 FA6A     		ldr	r2, [r7, #44]
 140 0096 931C     		adds	r3, r2, #2
 141 0098 FB62     		str	r3, [r7, #44]
 142              		.loc 1 297 11 discriminator 1
 143 009a 7B6A     		ldr	r3, [r7, #36]
 144 009c 991C     		adds	r1, r3, #2
 145 009e 7962     		str	r1, [r7, #36]
 146              		.loc 1 297 16 discriminator 1
 147 00a0 B2F90020 		ldrsh	r2, [r2]
 148              		.loc 1 297 14 discriminator 1
 149 00a4 1A80     		strh	r2, [r3]	@ movhi
 298:./Libraries/CMSIS/DSP/Source/TransformFunctions/arm_dct4_q15.c **** 
 299:./Libraries/CMSIS/DSP/Source/TransformFunctions/arm_dct4_q15.c ****     /* Decrement the loop counter */
 300:./Libraries/CMSIS/DSP/Source/TransformFunctions/arm_dct4_q15.c ****     i--;
 150              		.loc 1 300 6 discriminator 1
 151 00a6 FB69     		ldr	r3, [r7, #28]
 152 00a8 013B     		subs	r3, r3, #1
 153 00aa FB61     		str	r3, [r7, #28]
 301:./Libraries/CMSIS/DSP/Source/TransformFunctions/arm_dct4_q15.c ****   } while (i > 0U);
 154              		.loc 1 301 3 discriminator 1
 155 00ac FB69     		ldr	r3, [r7, #28]
 156 00ae 002B     		cmp	r3, #0
ARM GAS  /tmp/cclL3f7S.s 			page 9


 157 00b0 F0D1     		bne	.L3
 302:./Libraries/CMSIS/DSP/Source/TransformFunctions/arm_dct4_q15.c **** 
 303:./Libraries/CMSIS/DSP/Source/TransformFunctions/arm_dct4_q15.c **** 
 304:./Libraries/CMSIS/DSP/Source/TransformFunctions/arm_dct4_q15.c ****   /* ---------------------------------------------------------
 305:./Libraries/CMSIS/DSP/Source/TransformFunctions/arm_dct4_q15.c ****    *     Step2: Calculate RFFT for N-point input
 306:./Libraries/CMSIS/DSP/Source/TransformFunctions/arm_dct4_q15.c ****    * ---------------------------------------------------------- */
 307:./Libraries/CMSIS/DSP/Source/TransformFunctions/arm_dct4_q15.c ****   /* pInlineBuffer is real input of length N , pState is the complex output of length 2N */
 308:./Libraries/CMSIS/DSP/Source/TransformFunctions/arm_dct4_q15.c ****   arm_rfft_q15 (S->pRfft, pInlineBuffer, pState);
 158              		.loc 1 308 18
 159 00b2 FB68     		ldr	r3, [r7, #12]
 160 00b4 1B69     		ldr	r3, [r3, #16]
 161              		.loc 1 308 3
 162 00b6 BA68     		ldr	r2, [r7, #8]
 163 00b8 7968     		ldr	r1, [r7, #4]
 164 00ba 1846     		mov	r0, r3
 165 00bc FFF7FEFF 		bl	arm_rfft_q15
 309:./Libraries/CMSIS/DSP/Source/TransformFunctions/arm_dct4_q15.c **** 
 310:./Libraries/CMSIS/DSP/Source/TransformFunctions/arm_dct4_q15.c ****   /*----------------------------------------------------------------------
 311:./Libraries/CMSIS/DSP/Source/TransformFunctions/arm_dct4_q15.c ****    *  Step3: Multiply the FFT output with the weights.
 312:./Libraries/CMSIS/DSP/Source/TransformFunctions/arm_dct4_q15.c ****    *----------------------------------------------------------------------*/
 313:./Libraries/CMSIS/DSP/Source/TransformFunctions/arm_dct4_q15.c ****   arm_cmplx_mult_cmplx_q15 (pState, weights, pState, S->N);
 166              		.loc 1 313 55
 167 00c0 FB68     		ldr	r3, [r7, #12]
 168 00c2 1B88     		ldrh	r3, [r3]
 169              		.loc 1 313 3
 170 00c4 BA68     		ldr	r2, [r7, #8]
 171 00c6 B969     		ldr	r1, [r7, #24]
 172 00c8 B868     		ldr	r0, [r7, #8]
 173 00ca FFF7FEFF 		bl	arm_cmplx_mult_cmplx_q15
 314:./Libraries/CMSIS/DSP/Source/TransformFunctions/arm_dct4_q15.c **** 
 315:./Libraries/CMSIS/DSP/Source/TransformFunctions/arm_dct4_q15.c ****   /* The output of complex multiplication is in 3.13 format.
 316:./Libraries/CMSIS/DSP/Source/TransformFunctions/arm_dct4_q15.c ****    * Hence changing the format of N (i.e. 2*N elements) complex numbers to 1.15 format by shifting 
 317:./Libraries/CMSIS/DSP/Source/TransformFunctions/arm_dct4_q15.c ****   arm_shift_q15 (pState, 2, pState, S->N * 2);
 174              		.loc 1 317 38
 175 00ce FB68     		ldr	r3, [r7, #12]
 176 00d0 1B88     		ldrh	r3, [r3]
 177              		.loc 1 317 42
 178 00d2 5B00     		lsls	r3, r3, #1
 179              		.loc 1 317 3
 180 00d4 BA68     		ldr	r2, [r7, #8]
 181 00d6 0221     		movs	r1, #2
 182 00d8 B868     		ldr	r0, [r7, #8]
 183 00da FFF7FEFF 		bl	arm_shift_q15
 318:./Libraries/CMSIS/DSP/Source/TransformFunctions/arm_dct4_q15.c **** 
 319:./Libraries/CMSIS/DSP/Source/TransformFunctions/arm_dct4_q15.c ****   /* ----------- Post-processing ---------- */
 320:./Libraries/CMSIS/DSP/Source/TransformFunctions/arm_dct4_q15.c ****   /* DCT-IV can be obtained from DCT-II by the equation,
 321:./Libraries/CMSIS/DSP/Source/TransformFunctions/arm_dct4_q15.c ****    *       Y4(k) = Y2(k) - Y4(k-1) and Y4(-1) = Y4(0)
 322:./Libraries/CMSIS/DSP/Source/TransformFunctions/arm_dct4_q15.c ****    *       Hence, Y4(0) = Y2(0)/2  */
 323:./Libraries/CMSIS/DSP/Source/TransformFunctions/arm_dct4_q15.c ****   /* Getting only real part from the output and Converting to DCT-IV */
 324:./Libraries/CMSIS/DSP/Source/TransformFunctions/arm_dct4_q15.c **** 
 325:./Libraries/CMSIS/DSP/Source/TransformFunctions/arm_dct4_q15.c ****   /* pbuff initialized to input buffer. */
 326:./Libraries/CMSIS/DSP/Source/TransformFunctions/arm_dct4_q15.c ****   pbuff = pInlineBuffer;
 184              		.loc 1 326 9
 185 00de 7B68     		ldr	r3, [r7, #4]
 186 00e0 7B62     		str	r3, [r7, #36]
 327:./Libraries/CMSIS/DSP/Source/TransformFunctions/arm_dct4_q15.c **** 
 328:./Libraries/CMSIS/DSP/Source/TransformFunctions/arm_dct4_q15.c ****   /* pS1 initialized to pState */
ARM GAS  /tmp/cclL3f7S.s 			page 10


 329:./Libraries/CMSIS/DSP/Source/TransformFunctions/arm_dct4_q15.c ****   pS1 = pState;
 187              		.loc 1 329 7
 188 00e2 BB68     		ldr	r3, [r7, #8]
 189 00e4 FB62     		str	r3, [r7, #44]
 330:./Libraries/CMSIS/DSP/Source/TransformFunctions/arm_dct4_q15.c **** 
 331:./Libraries/CMSIS/DSP/Source/TransformFunctions/arm_dct4_q15.c ****   /* Calculating Y4(0) from Y2(0) using Y4(0) = Y2(0)/2 */
 332:./Libraries/CMSIS/DSP/Source/TransformFunctions/arm_dct4_q15.c ****   in = *pS1++ >> 1U;
 190              		.loc 1 332 12
 191 00e6 FB6A     		ldr	r3, [r7, #44]
 192 00e8 9A1C     		adds	r2, r3, #2
 193 00ea FA62     		str	r2, [r7, #44]
 194              		.loc 1 332 8
 195 00ec B3F90030 		ldrsh	r3, [r3]
 196              		.loc 1 332 6
 197 00f0 5B10     		asrs	r3, r3, #1
 198 00f2 7B84     		strh	r3, [r7, #34]	@ movhi
 333:./Libraries/CMSIS/DSP/Source/TransformFunctions/arm_dct4_q15.c ****   /* input buffer acts as inplace, so output values are stored in the input itself. */
 334:./Libraries/CMSIS/DSP/Source/TransformFunctions/arm_dct4_q15.c ****   *pbuff++ = in;
 199              		.loc 1 334 9
 200 00f4 7B6A     		ldr	r3, [r7, #36]
 201 00f6 9A1C     		adds	r2, r3, #2
 202 00f8 7A62     		str	r2, [r7, #36]
 203              		.loc 1 334 12
 204 00fa 7A8C     		ldrh	r2, [r7, #34]	@ movhi
 205 00fc 1A80     		strh	r2, [r3]	@ movhi
 335:./Libraries/CMSIS/DSP/Source/TransformFunctions/arm_dct4_q15.c **** 
 336:./Libraries/CMSIS/DSP/Source/TransformFunctions/arm_dct4_q15.c ****   /* pState pointer is incremented twice as the real values are located alternatively in the array 
 337:./Libraries/CMSIS/DSP/Source/TransformFunctions/arm_dct4_q15.c ****   pS1++;
 206              		.loc 1 337 6
 207 00fe FB6A     		ldr	r3, [r7, #44]
 208 0100 0233     		adds	r3, r3, #2
 209 0102 FB62     		str	r3, [r7, #44]
 338:./Libraries/CMSIS/DSP/Source/TransformFunctions/arm_dct4_q15.c **** 
 339:./Libraries/CMSIS/DSP/Source/TransformFunctions/arm_dct4_q15.c ****   /* Initializing the loop counter */
 340:./Libraries/CMSIS/DSP/Source/TransformFunctions/arm_dct4_q15.c ****   i = (S->N - 1U);
 210              		.loc 1 340 9
 211 0104 FB68     		ldr	r3, [r7, #12]
 212 0106 1B88     		ldrh	r3, [r3]
 213              		.loc 1 340 5
 214 0108 013B     		subs	r3, r3, #1
 215 010a FB61     		str	r3, [r7, #28]
 216              	.L4:
 341:./Libraries/CMSIS/DSP/Source/TransformFunctions/arm_dct4_q15.c **** 
 342:./Libraries/CMSIS/DSP/Source/TransformFunctions/arm_dct4_q15.c ****   do
 343:./Libraries/CMSIS/DSP/Source/TransformFunctions/arm_dct4_q15.c ****   {
 344:./Libraries/CMSIS/DSP/Source/TransformFunctions/arm_dct4_q15.c ****     /* Calculating Y4(1) to Y4(N-1) from Y2 using equation Y4(k) = Y2(k) - Y4(k-1) */
 345:./Libraries/CMSIS/DSP/Source/TransformFunctions/arm_dct4_q15.c ****     /* pState pointer (pS1) is incremented twice as the real values are located alternatively in th
 346:./Libraries/CMSIS/DSP/Source/TransformFunctions/arm_dct4_q15.c ****     in = *pS1++ - in;
 217              		.loc 1 346 14 discriminator 1
 218 010c FB6A     		ldr	r3, [r7, #44]
 219 010e 9A1C     		adds	r2, r3, #2
 220 0110 FA62     		str	r2, [r7, #44]
 221              		.loc 1 346 10 discriminator 1
 222 0112 B3F90030 		ldrsh	r3, [r3]
 223 0116 9AB2     		uxth	r2, r3
 224              		.loc 1 346 17 discriminator 1
 225 0118 7B8C     		ldrh	r3, [r7, #34]
ARM GAS  /tmp/cclL3f7S.s 			page 11


 226 011a D31A     		subs	r3, r2, r3
 227 011c 9BB2     		uxth	r3, r3
 228              		.loc 1 346 8 discriminator 1
 229 011e 7B84     		strh	r3, [r7, #34]	@ movhi
 347:./Libraries/CMSIS/DSP/Source/TransformFunctions/arm_dct4_q15.c ****     *pbuff++ = in;
 230              		.loc 1 347 11 discriminator 1
 231 0120 7B6A     		ldr	r3, [r7, #36]
 232 0122 9A1C     		adds	r2, r3, #2
 233 0124 7A62     		str	r2, [r7, #36]
 234              		.loc 1 347 14 discriminator 1
 235 0126 7A8C     		ldrh	r2, [r7, #34]	@ movhi
 236 0128 1A80     		strh	r2, [r3]	@ movhi
 348:./Libraries/CMSIS/DSP/Source/TransformFunctions/arm_dct4_q15.c **** 
 349:./Libraries/CMSIS/DSP/Source/TransformFunctions/arm_dct4_q15.c ****     /* points to the next real value */
 350:./Libraries/CMSIS/DSP/Source/TransformFunctions/arm_dct4_q15.c ****     pS1++;
 237              		.loc 1 350 8 discriminator 1
 238 012a FB6A     		ldr	r3, [r7, #44]
 239 012c 0233     		adds	r3, r3, #2
 240 012e FB62     		str	r3, [r7, #44]
 351:./Libraries/CMSIS/DSP/Source/TransformFunctions/arm_dct4_q15.c **** 
 352:./Libraries/CMSIS/DSP/Source/TransformFunctions/arm_dct4_q15.c ****     /* Decrement loop counter */
 353:./Libraries/CMSIS/DSP/Source/TransformFunctions/arm_dct4_q15.c ****     i--;
 241              		.loc 1 353 6 discriminator 1
 242 0130 FB69     		ldr	r3, [r7, #28]
 243 0132 013B     		subs	r3, r3, #1
 244 0134 FB61     		str	r3, [r7, #28]
 354:./Libraries/CMSIS/DSP/Source/TransformFunctions/arm_dct4_q15.c ****   } while (i > 0U);
 245              		.loc 1 354 3 discriminator 1
 246 0136 FB69     		ldr	r3, [r7, #28]
 247 0138 002B     		cmp	r3, #0
 248 013a E7D1     		bne	.L4
 355:./Libraries/CMSIS/DSP/Source/TransformFunctions/arm_dct4_q15.c **** 
 356:./Libraries/CMSIS/DSP/Source/TransformFunctions/arm_dct4_q15.c ****   /*------------ Normalizing the output by multiplying with the normalizing factor ----------*/
 357:./Libraries/CMSIS/DSP/Source/TransformFunctions/arm_dct4_q15.c **** 
 358:./Libraries/CMSIS/DSP/Source/TransformFunctions/arm_dct4_q15.c ****   /* Initializing loop counter */
 359:./Libraries/CMSIS/DSP/Source/TransformFunctions/arm_dct4_q15.c ****   i = S->N;
 249              		.loc 1 359 8
 250 013c FB68     		ldr	r3, [r7, #12]
 251 013e 1B88     		ldrh	r3, [r3]
 252              		.loc 1 359 5
 253 0140 FB61     		str	r3, [r7, #28]
 360:./Libraries/CMSIS/DSP/Source/TransformFunctions/arm_dct4_q15.c **** 
 361:./Libraries/CMSIS/DSP/Source/TransformFunctions/arm_dct4_q15.c ****   /* pbuff initialized to the pInlineBuffer (now contains the output values) */
 362:./Libraries/CMSIS/DSP/Source/TransformFunctions/arm_dct4_q15.c ****   pbuff = pInlineBuffer;
 254              		.loc 1 362 9
 255 0142 7B68     		ldr	r3, [r7, #4]
 256 0144 7B62     		str	r3, [r7, #36]
 257              	.L5:
 363:./Libraries/CMSIS/DSP/Source/TransformFunctions/arm_dct4_q15.c **** 
 364:./Libraries/CMSIS/DSP/Source/TransformFunctions/arm_dct4_q15.c ****   do
 365:./Libraries/CMSIS/DSP/Source/TransformFunctions/arm_dct4_q15.c ****   {
 366:./Libraries/CMSIS/DSP/Source/TransformFunctions/arm_dct4_q15.c ****     /* Multiplying pInlineBuffer with the normalizing factor sqrt(2/N) */
 367:./Libraries/CMSIS/DSP/Source/TransformFunctions/arm_dct4_q15.c ****     in = *pbuff;
 258              		.loc 1 367 8 discriminator 1
 259 0146 7B6A     		ldr	r3, [r7, #36]
 260 0148 1B88     		ldrh	r3, [r3]	@ movhi
 261 014a 7B84     		strh	r3, [r7, #34]	@ movhi
ARM GAS  /tmp/cclL3f7S.s 			page 12


 368:./Libraries/CMSIS/DSP/Source/TransformFunctions/arm_dct4_q15.c ****     *pbuff++ = ((q15_t) (((q31_t) in * S->normalize) >> 15));
 262              		.loc 1 368 27 discriminator 1
 263 014c B7F92230 		ldrsh	r3, [r7, #34]
 264              		.loc 1 368 41 discriminator 1
 265 0150 FA68     		ldr	r2, [r7, #12]
 266 0152 B2F90420 		ldrsh	r2, [r2, #4]
 267              		.loc 1 368 38 discriminator 1
 268 0156 02FB03F3 		mul	r3, r2, r3
 269              		.loc 1 368 54 discriminator 1
 270 015a D913     		asrs	r1, r3, #15
 271              		.loc 1 368 11 discriminator 1
 272 015c 7B6A     		ldr	r3, [r7, #36]
 273 015e 9A1C     		adds	r2, r3, #2
 274 0160 7A62     		str	r2, [r7, #36]
 275              		.loc 1 368 17 discriminator 1
 276 0162 0AB2     		sxth	r2, r1
 277              		.loc 1 368 14 discriminator 1
 278 0164 1A80     		strh	r2, [r3]	@ movhi
 369:./Libraries/CMSIS/DSP/Source/TransformFunctions/arm_dct4_q15.c **** 
 370:./Libraries/CMSIS/DSP/Source/TransformFunctions/arm_dct4_q15.c ****     /* Decrement loop counter */
 371:./Libraries/CMSIS/DSP/Source/TransformFunctions/arm_dct4_q15.c ****     i--;
 279              		.loc 1 371 6 discriminator 1
 280 0166 FB69     		ldr	r3, [r7, #28]
 281 0168 013B     		subs	r3, r3, #1
 282 016a FB61     		str	r3, [r7, #28]
 372:./Libraries/CMSIS/DSP/Source/TransformFunctions/arm_dct4_q15.c **** 
 373:./Libraries/CMSIS/DSP/Source/TransformFunctions/arm_dct4_q15.c ****   } while (i > 0U);
 283              		.loc 1 373 3 discriminator 1
 284 016c FB69     		ldr	r3, [r7, #28]
 285 016e 002B     		cmp	r3, #0
 286 0170 E9D1     		bne	.L5
 374:./Libraries/CMSIS/DSP/Source/TransformFunctions/arm_dct4_q15.c **** 
 375:./Libraries/CMSIS/DSP/Source/TransformFunctions/arm_dct4_q15.c **** #endif /* #if defined (ARM_MATH_LOOPUNROLL) */
 376:./Libraries/CMSIS/DSP/Source/TransformFunctions/arm_dct4_q15.c **** 
 377:./Libraries/CMSIS/DSP/Source/TransformFunctions/arm_dct4_q15.c **** }
 287              		.loc 1 377 1
 288 0172 00BF     		nop
 289 0174 00BF     		nop
 290 0176 3037     		adds	r7, r7, #48
 291              	.LCFI3:
 292              		.cfi_def_cfa_offset 8
 293 0178 BD46     		mov	sp, r7
 294              	.LCFI4:
 295              		.cfi_def_cfa_register 13
 296              		@ sp needed
 297 017a 80BD     		pop	{r7, pc}
 298              		.cfi_endproc
 299              	.LFE145:
 301              		.text
 302              	.Letext0:
 303              		.file 2 "/usr/lib/gcc/arm-none-eabi/9.2.1/include/stdint.h"
 304              		.file 3 "/usr/lib/gcc/arm-none-eabi/9.2.1/include/stddef.h"
 305              		.file 4 "/usr/include/newlib/sys/_types.h"
 306              		.file 5 "/usr/include/newlib/sys/reent.h"
 307              		.file 6 "/usr/include/newlib/sys/lock.h"
 308              		.file 7 "/usr/include/newlib/math.h"
 309              		.file 8 "./Libraries/CMSIS/DSP/Include/arm_math.h"
ARM GAS  /tmp/cclL3f7S.s 			page 13


ARM GAS  /tmp/cclL3f7S.s 			page 14

