ARM GAS  /tmp/ccxACGhV.s 			page 1


   1              		.cpu cortex-m7
   2              		.eabi_attribute 28, 1
   3              		.eabi_attribute 20, 1
   4              		.eabi_attribute 21, 1
   5              		.eabi_attribute 23, 3
   6              		.eabi_attribute 24, 1
   7              		.eabi_attribute 25, 1
   8              		.eabi_attribute 26, 1
   9              		.eabi_attribute 30, 6
  10              		.eabi_attribute 34, 1
  11              		.eabi_attribute 18, 4
  12              		.file	"arm_fir_decimate_fast_q31.c"
  13              		.text
  14              	.Ltext0:
  15              		.cfi_sections	.debug_frame
  16              		.section	.text.arm_fir_decimate_fast_q31,"ax",%progbits
  17              		.align	1
  18              		.global	arm_fir_decimate_fast_q31
  19              		.arch armv7e-m
  20              		.syntax unified
  21              		.thumb
  22              		.thumb_func
  23              		.fpu fpv5-d16
  25              	arm_fir_decimate_fast_q31:
  26              	.LFB145:
  27              		.file 1 "./Libraries/CMSIS/DSP/Source/FilteringFunctions/arm_fir_decimate_fast_q31.c"
   1:./Libraries/CMSIS/DSP/Source/FilteringFunctions/arm_fir_decimate_fast_q31.c **** /* ----------------------------------------------------------------------
   2:./Libraries/CMSIS/DSP/Source/FilteringFunctions/arm_fir_decimate_fast_q31.c ****  * Project:      CMSIS DSP Library
   3:./Libraries/CMSIS/DSP/Source/FilteringFunctions/arm_fir_decimate_fast_q31.c ****  * Title:        arm_fir_decimate_fast_q31.c
   4:./Libraries/CMSIS/DSP/Source/FilteringFunctions/arm_fir_decimate_fast_q31.c ****  * Description:  Fast Q31 FIR Decimator
   5:./Libraries/CMSIS/DSP/Source/FilteringFunctions/arm_fir_decimate_fast_q31.c ****  *
   6:./Libraries/CMSIS/DSP/Source/FilteringFunctions/arm_fir_decimate_fast_q31.c ****  * $Date:        18. March 2019
   7:./Libraries/CMSIS/DSP/Source/FilteringFunctions/arm_fir_decimate_fast_q31.c ****  * $Revision:    V1.6.0
   8:./Libraries/CMSIS/DSP/Source/FilteringFunctions/arm_fir_decimate_fast_q31.c ****  *
   9:./Libraries/CMSIS/DSP/Source/FilteringFunctions/arm_fir_decimate_fast_q31.c ****  * Target Processor: Cortex-M cores
  10:./Libraries/CMSIS/DSP/Source/FilteringFunctions/arm_fir_decimate_fast_q31.c ****  * -------------------------------------------------------------------- */
  11:./Libraries/CMSIS/DSP/Source/FilteringFunctions/arm_fir_decimate_fast_q31.c **** /*
  12:./Libraries/CMSIS/DSP/Source/FilteringFunctions/arm_fir_decimate_fast_q31.c ****  * Copyright (C) 2010-2019 ARM Limited or its affiliates. All rights reserved.
  13:./Libraries/CMSIS/DSP/Source/FilteringFunctions/arm_fir_decimate_fast_q31.c ****  *
  14:./Libraries/CMSIS/DSP/Source/FilteringFunctions/arm_fir_decimate_fast_q31.c ****  * SPDX-License-Identifier: Apache-2.0
  15:./Libraries/CMSIS/DSP/Source/FilteringFunctions/arm_fir_decimate_fast_q31.c ****  *
  16:./Libraries/CMSIS/DSP/Source/FilteringFunctions/arm_fir_decimate_fast_q31.c ****  * Licensed under the Apache License, Version 2.0 (the License); you may
  17:./Libraries/CMSIS/DSP/Source/FilteringFunctions/arm_fir_decimate_fast_q31.c ****  * not use this file except in compliance with the License.
  18:./Libraries/CMSIS/DSP/Source/FilteringFunctions/arm_fir_decimate_fast_q31.c ****  * You may obtain a copy of the License at
  19:./Libraries/CMSIS/DSP/Source/FilteringFunctions/arm_fir_decimate_fast_q31.c ****  *
  20:./Libraries/CMSIS/DSP/Source/FilteringFunctions/arm_fir_decimate_fast_q31.c ****  * www.apache.org/licenses/LICENSE-2.0
  21:./Libraries/CMSIS/DSP/Source/FilteringFunctions/arm_fir_decimate_fast_q31.c ****  *
  22:./Libraries/CMSIS/DSP/Source/FilteringFunctions/arm_fir_decimate_fast_q31.c ****  * Unless required by applicable law or agreed to in writing, software
  23:./Libraries/CMSIS/DSP/Source/FilteringFunctions/arm_fir_decimate_fast_q31.c ****  * distributed under the License is distributed on an AS IS BASIS, WITHOUT
  24:./Libraries/CMSIS/DSP/Source/FilteringFunctions/arm_fir_decimate_fast_q31.c ****  * WARRANTIES OR CONDITIONS OF ANY KIND, either express or implied.
  25:./Libraries/CMSIS/DSP/Source/FilteringFunctions/arm_fir_decimate_fast_q31.c ****  * See the License for the specific language governing permissions and
  26:./Libraries/CMSIS/DSP/Source/FilteringFunctions/arm_fir_decimate_fast_q31.c ****  * limitations under the License.
  27:./Libraries/CMSIS/DSP/Source/FilteringFunctions/arm_fir_decimate_fast_q31.c ****  */
  28:./Libraries/CMSIS/DSP/Source/FilteringFunctions/arm_fir_decimate_fast_q31.c **** 
  29:./Libraries/CMSIS/DSP/Source/FilteringFunctions/arm_fir_decimate_fast_q31.c **** #include "arm_math.h"
  30:./Libraries/CMSIS/DSP/Source/FilteringFunctions/arm_fir_decimate_fast_q31.c **** 
  31:./Libraries/CMSIS/DSP/Source/FilteringFunctions/arm_fir_decimate_fast_q31.c **** /**
ARM GAS  /tmp/ccxACGhV.s 			page 2


  32:./Libraries/CMSIS/DSP/Source/FilteringFunctions/arm_fir_decimate_fast_q31.c ****   @ingroup groupFilters
  33:./Libraries/CMSIS/DSP/Source/FilteringFunctions/arm_fir_decimate_fast_q31.c ****  */
  34:./Libraries/CMSIS/DSP/Source/FilteringFunctions/arm_fir_decimate_fast_q31.c **** 
  35:./Libraries/CMSIS/DSP/Source/FilteringFunctions/arm_fir_decimate_fast_q31.c **** /**
  36:./Libraries/CMSIS/DSP/Source/FilteringFunctions/arm_fir_decimate_fast_q31.c ****   @addtogroup FIR_decimate
  37:./Libraries/CMSIS/DSP/Source/FilteringFunctions/arm_fir_decimate_fast_q31.c ****   @{
  38:./Libraries/CMSIS/DSP/Source/FilteringFunctions/arm_fir_decimate_fast_q31.c ****  */
  39:./Libraries/CMSIS/DSP/Source/FilteringFunctions/arm_fir_decimate_fast_q31.c **** 
  40:./Libraries/CMSIS/DSP/Source/FilteringFunctions/arm_fir_decimate_fast_q31.c **** /**
  41:./Libraries/CMSIS/DSP/Source/FilteringFunctions/arm_fir_decimate_fast_q31.c ****   @brief         Processing function for the Q31 FIR decimator (fast variant).
  42:./Libraries/CMSIS/DSP/Source/FilteringFunctions/arm_fir_decimate_fast_q31.c ****   @param[in]     S          points to an instance of the Q31 FIR decimator structure
  43:./Libraries/CMSIS/DSP/Source/FilteringFunctions/arm_fir_decimate_fast_q31.c ****   @param[in]     pSrc       points to the block of input data
  44:./Libraries/CMSIS/DSP/Source/FilteringFunctions/arm_fir_decimate_fast_q31.c ****   @param[out]    pDst       points to the block of output data
  45:./Libraries/CMSIS/DSP/Source/FilteringFunctions/arm_fir_decimate_fast_q31.c ****   @param[in]     blockSize  number of samples to process
  46:./Libraries/CMSIS/DSP/Source/FilteringFunctions/arm_fir_decimate_fast_q31.c ****   @return        none
  47:./Libraries/CMSIS/DSP/Source/FilteringFunctions/arm_fir_decimate_fast_q31.c **** 
  48:./Libraries/CMSIS/DSP/Source/FilteringFunctions/arm_fir_decimate_fast_q31.c ****   @par           Scaling and Overflow Behavior
  49:./Libraries/CMSIS/DSP/Source/FilteringFunctions/arm_fir_decimate_fast_q31.c ****                    This function is optimized for speed at the expense of fixed-point precision and
  50:./Libraries/CMSIS/DSP/Source/FilteringFunctions/arm_fir_decimate_fast_q31.c ****                    The result of each 1.31 x 1.31 multiplication is truncated to 2.30 format.
  51:./Libraries/CMSIS/DSP/Source/FilteringFunctions/arm_fir_decimate_fast_q31.c ****                    These intermediate results are added to a 2.30 accumulator.
  52:./Libraries/CMSIS/DSP/Source/FilteringFunctions/arm_fir_decimate_fast_q31.c ****                    Finally, the accumulator is saturated and converted to a 1.31 result.
  53:./Libraries/CMSIS/DSP/Source/FilteringFunctions/arm_fir_decimate_fast_q31.c ****                    The fast version has the same overflow behavior as the standard version and prov
  54:./Libraries/CMSIS/DSP/Source/FilteringFunctions/arm_fir_decimate_fast_q31.c ****                    In order to avoid overflows completely the input signal must be scaled down by l
  55:./Libraries/CMSIS/DSP/Source/FilteringFunctions/arm_fir_decimate_fast_q31.c **** 
  56:./Libraries/CMSIS/DSP/Source/FilteringFunctions/arm_fir_decimate_fast_q31.c ****   @remark
  57:./Libraries/CMSIS/DSP/Source/FilteringFunctions/arm_fir_decimate_fast_q31.c ****                    Refer to \ref arm_fir_decimate_q31() for a slower implementation of this functio
  58:./Libraries/CMSIS/DSP/Source/FilteringFunctions/arm_fir_decimate_fast_q31.c ****                    Both the slow and the fast versions use the same instance structure.
  59:./Libraries/CMSIS/DSP/Source/FilteringFunctions/arm_fir_decimate_fast_q31.c ****                    Use function \ref arm_fir_decimate_init_q31() to initialize the filter structure
  60:./Libraries/CMSIS/DSP/Source/FilteringFunctions/arm_fir_decimate_fast_q31.c ****  */
  61:./Libraries/CMSIS/DSP/Source/FilteringFunctions/arm_fir_decimate_fast_q31.c **** 
  62:./Libraries/CMSIS/DSP/Source/FilteringFunctions/arm_fir_decimate_fast_q31.c **** void arm_fir_decimate_fast_q31(
  63:./Libraries/CMSIS/DSP/Source/FilteringFunctions/arm_fir_decimate_fast_q31.c ****   const arm_fir_decimate_instance_q31 * S,
  64:./Libraries/CMSIS/DSP/Source/FilteringFunctions/arm_fir_decimate_fast_q31.c ****   const q31_t * pSrc,
  65:./Libraries/CMSIS/DSP/Source/FilteringFunctions/arm_fir_decimate_fast_q31.c ****         q31_t * pDst,
  66:./Libraries/CMSIS/DSP/Source/FilteringFunctions/arm_fir_decimate_fast_q31.c ****         uint32_t blockSize)
  67:./Libraries/CMSIS/DSP/Source/FilteringFunctions/arm_fir_decimate_fast_q31.c **** {
  28              		.loc 1 67 1
  29              		.cfi_startproc
  30              		@ args = 0, pretend = 0, frame = 72
  31              		@ frame_needed = 1, uses_anonymous_args = 0
  32              		@ link register save eliminated.
  33 0000 2DE9F00F 		push	{r4, r5, r6, r7, r8, r9, r10, fp}
  34              	.LCFI0:
  35              		.cfi_def_cfa_offset 32
  36              		.cfi_offset 4, -32
  37              		.cfi_offset 5, -28
  38              		.cfi_offset 6, -24
  39              		.cfi_offset 7, -20
  40              		.cfi_offset 8, -16
  41              		.cfi_offset 9, -12
  42              		.cfi_offset 10, -8
  43              		.cfi_offset 11, -4
  44 0004 92B0     		sub	sp, sp, #72
  45              	.LCFI1:
  46              		.cfi_def_cfa_offset 104
  47 0006 00AF     		add	r7, sp, #0
  48              	.LCFI2:
ARM GAS  /tmp/ccxACGhV.s 			page 3


  49              		.cfi_def_cfa_register 7
  50 0008 F860     		str	r0, [r7, #12]
  51 000a B960     		str	r1, [r7, #8]
  52 000c 7A60     		str	r2, [r7, #4]
  53 000e 3B60     		str	r3, [r7]
  68:./Libraries/CMSIS/DSP/Source/FilteringFunctions/arm_fir_decimate_fast_q31.c ****         q31_t *pState = S->pState;                     /* State pointer */
  54              		.loc 1 68 16
  55 0010 FB68     		ldr	r3, [r7, #12]
  56 0012 9B68     		ldr	r3, [r3, #8]
  57 0014 7B64     		str	r3, [r7, #68]
  69:./Libraries/CMSIS/DSP/Source/FilteringFunctions/arm_fir_decimate_fast_q31.c ****   const q31_t *pCoeffs = S->pCoeffs;                   /* Coefficient pointer */
  58              		.loc 1 69 16
  59 0016 FB68     		ldr	r3, [r7, #12]
  60 0018 5B68     		ldr	r3, [r3, #4]
  61 001a 3B62     		str	r3, [r7, #32]
  70:./Libraries/CMSIS/DSP/Source/FilteringFunctions/arm_fir_decimate_fast_q31.c ****         q31_t *pStateCur;                              /* Points to the current sample of the state
  71:./Libraries/CMSIS/DSP/Source/FilteringFunctions/arm_fir_decimate_fast_q31.c ****         q31_t *px0;                                    /* Temporary pointer for state buffer */
  72:./Libraries/CMSIS/DSP/Source/FilteringFunctions/arm_fir_decimate_fast_q31.c ****   const q31_t *pb;                                     /* Temporary pointer for coefficient buffer 
  73:./Libraries/CMSIS/DSP/Source/FilteringFunctions/arm_fir_decimate_fast_q31.c ****         q31_t x0, c0;                                  /* Temporary variables to hold state and coe
  74:./Libraries/CMSIS/DSP/Source/FilteringFunctions/arm_fir_decimate_fast_q31.c ****         q63_t acc0;                                    /* Accumulator */
  75:./Libraries/CMSIS/DSP/Source/FilteringFunctions/arm_fir_decimate_fast_q31.c ****         uint32_t numTaps = S->numTaps;                 /* Number of filter coefficients in the filt
  62              		.loc 1 75 29
  63 001c FB68     		ldr	r3, [r7, #12]
  64 001e 5B88     		ldrh	r3, [r3, #2]
  65              		.loc 1 75 18
  66 0020 FB61     		str	r3, [r7, #28]
  76:./Libraries/CMSIS/DSP/Source/FilteringFunctions/arm_fir_decimate_fast_q31.c ****         uint32_t i, tapCnt, blkCnt, outBlockSize = blockSize / S->M;  /* Loop counters */
  67              		.loc 1 76 65
  68 0022 FB68     		ldr	r3, [r7, #12]
  69 0024 1B78     		ldrb	r3, [r3]	@ zero_extendqisi2
  70 0026 1A46     		mov	r2, r3
  71              		.loc 1 76 37
  72 0028 3B68     		ldr	r3, [r7]
  73 002a B3FBF2F3 		udiv	r3, r3, r2
  74 002e BB61     		str	r3, [r7, #24]
  77:./Libraries/CMSIS/DSP/Source/FilteringFunctions/arm_fir_decimate_fast_q31.c **** 
  78:./Libraries/CMSIS/DSP/Source/FilteringFunctions/arm_fir_decimate_fast_q31.c **** #if defined (ARM_MATH_LOOPUNROLL)
  79:./Libraries/CMSIS/DSP/Source/FilteringFunctions/arm_fir_decimate_fast_q31.c ****         q31_t *px1, *px2, *px3;
  80:./Libraries/CMSIS/DSP/Source/FilteringFunctions/arm_fir_decimate_fast_q31.c ****         q31_t x1, x2, x3;
  81:./Libraries/CMSIS/DSP/Source/FilteringFunctions/arm_fir_decimate_fast_q31.c ****         q63_t acc1, acc2, acc3;
  82:./Libraries/CMSIS/DSP/Source/FilteringFunctions/arm_fir_decimate_fast_q31.c **** #endif
  83:./Libraries/CMSIS/DSP/Source/FilteringFunctions/arm_fir_decimate_fast_q31.c **** 
  84:./Libraries/CMSIS/DSP/Source/FilteringFunctions/arm_fir_decimate_fast_q31.c ****   /* S->pState buffer contains previous frame (numTaps - 1) samples */
  85:./Libraries/CMSIS/DSP/Source/FilteringFunctions/arm_fir_decimate_fast_q31.c ****   /* pStateCur points to the location where the new input data should be written */
  86:./Libraries/CMSIS/DSP/Source/FilteringFunctions/arm_fir_decimate_fast_q31.c ****   pStateCur = S->pState + (numTaps - 1U);
  75              		.loc 1 86 16
  76 0030 FB68     		ldr	r3, [r7, #12]
  77 0032 9A68     		ldr	r2, [r3, #8]
  78              		.loc 1 86 25
  79 0034 F969     		ldr	r1, [r7, #28]
  80 0036 6FF04043 		mvn	r3, #-1073741824
  81 003a 0B44     		add	r3, r3, r1
  82 003c 9B00     		lsls	r3, r3, #2
  83              		.loc 1 86 13
  84 003e 1344     		add	r3, r3, r2
  85 0040 3B64     		str	r3, [r7, #64]
  87:./Libraries/CMSIS/DSP/Source/FilteringFunctions/arm_fir_decimate_fast_q31.c **** 
ARM GAS  /tmp/ccxACGhV.s 			page 4


  88:./Libraries/CMSIS/DSP/Source/FilteringFunctions/arm_fir_decimate_fast_q31.c **** #if defined (ARM_MATH_LOOPUNROLL)
  89:./Libraries/CMSIS/DSP/Source/FilteringFunctions/arm_fir_decimate_fast_q31.c **** 
  90:./Libraries/CMSIS/DSP/Source/FilteringFunctions/arm_fir_decimate_fast_q31.c ****     /* Loop unrolling: Compute 4 samples at a time */
  91:./Libraries/CMSIS/DSP/Source/FilteringFunctions/arm_fir_decimate_fast_q31.c ****   blkCnt = outBlockSize >> 2U;
  92:./Libraries/CMSIS/DSP/Source/FilteringFunctions/arm_fir_decimate_fast_q31.c **** 
  93:./Libraries/CMSIS/DSP/Source/FilteringFunctions/arm_fir_decimate_fast_q31.c ****   /* Samples loop unrolled by 4 */
  94:./Libraries/CMSIS/DSP/Source/FilteringFunctions/arm_fir_decimate_fast_q31.c ****   while (blkCnt > 0U)
  95:./Libraries/CMSIS/DSP/Source/FilteringFunctions/arm_fir_decimate_fast_q31.c ****   {
  96:./Libraries/CMSIS/DSP/Source/FilteringFunctions/arm_fir_decimate_fast_q31.c ****     /* Copy 4 * decimation factor number of new input samples into the state buffer */
  97:./Libraries/CMSIS/DSP/Source/FilteringFunctions/arm_fir_decimate_fast_q31.c ****     i = S->M * 4;
  98:./Libraries/CMSIS/DSP/Source/FilteringFunctions/arm_fir_decimate_fast_q31.c **** 
  99:./Libraries/CMSIS/DSP/Source/FilteringFunctions/arm_fir_decimate_fast_q31.c ****     do
 100:./Libraries/CMSIS/DSP/Source/FilteringFunctions/arm_fir_decimate_fast_q31.c ****     {
 101:./Libraries/CMSIS/DSP/Source/FilteringFunctions/arm_fir_decimate_fast_q31.c ****       *pStateCur++ = *pSrc++;
 102:./Libraries/CMSIS/DSP/Source/FilteringFunctions/arm_fir_decimate_fast_q31.c **** 
 103:./Libraries/CMSIS/DSP/Source/FilteringFunctions/arm_fir_decimate_fast_q31.c ****     } while (--i);
 104:./Libraries/CMSIS/DSP/Source/FilteringFunctions/arm_fir_decimate_fast_q31.c **** 
 105:./Libraries/CMSIS/DSP/Source/FilteringFunctions/arm_fir_decimate_fast_q31.c ****     /* Set accumulators to zero */
 106:./Libraries/CMSIS/DSP/Source/FilteringFunctions/arm_fir_decimate_fast_q31.c ****     acc0 = 0;
 107:./Libraries/CMSIS/DSP/Source/FilteringFunctions/arm_fir_decimate_fast_q31.c ****     acc1 = 0;
 108:./Libraries/CMSIS/DSP/Source/FilteringFunctions/arm_fir_decimate_fast_q31.c ****     acc2 = 0;
 109:./Libraries/CMSIS/DSP/Source/FilteringFunctions/arm_fir_decimate_fast_q31.c ****     acc3 = 0;
 110:./Libraries/CMSIS/DSP/Source/FilteringFunctions/arm_fir_decimate_fast_q31.c **** 
 111:./Libraries/CMSIS/DSP/Source/FilteringFunctions/arm_fir_decimate_fast_q31.c ****     /* Initialize state pointer for all the samples */
 112:./Libraries/CMSIS/DSP/Source/FilteringFunctions/arm_fir_decimate_fast_q31.c ****     px0 = pState;
 113:./Libraries/CMSIS/DSP/Source/FilteringFunctions/arm_fir_decimate_fast_q31.c ****     px1 = pState + S->M;
 114:./Libraries/CMSIS/DSP/Source/FilteringFunctions/arm_fir_decimate_fast_q31.c ****     px2 = pState + 2 * S->M;
 115:./Libraries/CMSIS/DSP/Source/FilteringFunctions/arm_fir_decimate_fast_q31.c ****     px3 = pState + 3 * S->M;
 116:./Libraries/CMSIS/DSP/Source/FilteringFunctions/arm_fir_decimate_fast_q31.c **** 
 117:./Libraries/CMSIS/DSP/Source/FilteringFunctions/arm_fir_decimate_fast_q31.c ****     /* Initialize coeff pointer */
 118:./Libraries/CMSIS/DSP/Source/FilteringFunctions/arm_fir_decimate_fast_q31.c ****     pb = pCoeffs;
 119:./Libraries/CMSIS/DSP/Source/FilteringFunctions/arm_fir_decimate_fast_q31.c **** 
 120:./Libraries/CMSIS/DSP/Source/FilteringFunctions/arm_fir_decimate_fast_q31.c ****     /* Loop unrolling: Compute 4 taps at a time */
 121:./Libraries/CMSIS/DSP/Source/FilteringFunctions/arm_fir_decimate_fast_q31.c ****     tapCnt = numTaps >> 2U;
 122:./Libraries/CMSIS/DSP/Source/FilteringFunctions/arm_fir_decimate_fast_q31.c **** 
 123:./Libraries/CMSIS/DSP/Source/FilteringFunctions/arm_fir_decimate_fast_q31.c ****     while (tapCnt > 0U)
 124:./Libraries/CMSIS/DSP/Source/FilteringFunctions/arm_fir_decimate_fast_q31.c ****     {
 125:./Libraries/CMSIS/DSP/Source/FilteringFunctions/arm_fir_decimate_fast_q31.c ****       /* Read the b[numTaps-1] coefficient */
 126:./Libraries/CMSIS/DSP/Source/FilteringFunctions/arm_fir_decimate_fast_q31.c ****       c0 = *(pb++);
 127:./Libraries/CMSIS/DSP/Source/FilteringFunctions/arm_fir_decimate_fast_q31.c **** 
 128:./Libraries/CMSIS/DSP/Source/FilteringFunctions/arm_fir_decimate_fast_q31.c ****       /* Read x[n-numTaps-1] sample for acc0 */
 129:./Libraries/CMSIS/DSP/Source/FilteringFunctions/arm_fir_decimate_fast_q31.c ****       x0 = *(px0++);
 130:./Libraries/CMSIS/DSP/Source/FilteringFunctions/arm_fir_decimate_fast_q31.c ****       /* Read x[n-numTaps-1] sample for acc1 */
 131:./Libraries/CMSIS/DSP/Source/FilteringFunctions/arm_fir_decimate_fast_q31.c ****       x1 = *(px1++);
 132:./Libraries/CMSIS/DSP/Source/FilteringFunctions/arm_fir_decimate_fast_q31.c ****       /* Read x[n-numTaps-1] sample for acc2 */
 133:./Libraries/CMSIS/DSP/Source/FilteringFunctions/arm_fir_decimate_fast_q31.c ****       x2 = *(px2++);
 134:./Libraries/CMSIS/DSP/Source/FilteringFunctions/arm_fir_decimate_fast_q31.c ****       /* Read x[n-numTaps-1] sample for acc3 */
 135:./Libraries/CMSIS/DSP/Source/FilteringFunctions/arm_fir_decimate_fast_q31.c ****       x3 = *(px3++);
 136:./Libraries/CMSIS/DSP/Source/FilteringFunctions/arm_fir_decimate_fast_q31.c **** 
 137:./Libraries/CMSIS/DSP/Source/FilteringFunctions/arm_fir_decimate_fast_q31.c ****       /* Perform the multiply-accumulate */
 138:./Libraries/CMSIS/DSP/Source/FilteringFunctions/arm_fir_decimate_fast_q31.c ****       acc0 = (q31_t) ((((q63_t) acc0 << 32) + ((q63_t) x0 * c0)) >> 32);
 139:./Libraries/CMSIS/DSP/Source/FilteringFunctions/arm_fir_decimate_fast_q31.c ****       acc1 = (q31_t) ((((q63_t) acc1 << 32) + ((q63_t) x1 * c0)) >> 32);
 140:./Libraries/CMSIS/DSP/Source/FilteringFunctions/arm_fir_decimate_fast_q31.c ****       acc2 = (q31_t) ((((q63_t) acc2 << 32) + ((q63_t) x2 * c0)) >> 32);
 141:./Libraries/CMSIS/DSP/Source/FilteringFunctions/arm_fir_decimate_fast_q31.c ****       acc3 = (q31_t) ((((q63_t) acc3 << 32) + ((q63_t) x3 * c0)) >> 32);
 142:./Libraries/CMSIS/DSP/Source/FilteringFunctions/arm_fir_decimate_fast_q31.c **** 
 143:./Libraries/CMSIS/DSP/Source/FilteringFunctions/arm_fir_decimate_fast_q31.c ****       /* Read the b[numTaps-2] coefficient */
 144:./Libraries/CMSIS/DSP/Source/FilteringFunctions/arm_fir_decimate_fast_q31.c ****       c0 = *(pb++);
ARM GAS  /tmp/ccxACGhV.s 			page 5


 145:./Libraries/CMSIS/DSP/Source/FilteringFunctions/arm_fir_decimate_fast_q31.c **** 
 146:./Libraries/CMSIS/DSP/Source/FilteringFunctions/arm_fir_decimate_fast_q31.c ****       /* Read x[n-numTaps-2] sample for acc0, acc1, acc2, acc3 */
 147:./Libraries/CMSIS/DSP/Source/FilteringFunctions/arm_fir_decimate_fast_q31.c ****       x0 = *(px0++);
 148:./Libraries/CMSIS/DSP/Source/FilteringFunctions/arm_fir_decimate_fast_q31.c ****       x1 = *(px1++);
 149:./Libraries/CMSIS/DSP/Source/FilteringFunctions/arm_fir_decimate_fast_q31.c ****       x2 = *(px2++);
 150:./Libraries/CMSIS/DSP/Source/FilteringFunctions/arm_fir_decimate_fast_q31.c ****       x3 = *(px3++);
 151:./Libraries/CMSIS/DSP/Source/FilteringFunctions/arm_fir_decimate_fast_q31.c **** 
 152:./Libraries/CMSIS/DSP/Source/FilteringFunctions/arm_fir_decimate_fast_q31.c ****       /* Perform the multiply-accumulate */
 153:./Libraries/CMSIS/DSP/Source/FilteringFunctions/arm_fir_decimate_fast_q31.c ****       acc0 = (q31_t) ((((q63_t) acc0 << 32) + ((q63_t) x0 * c0)) >> 32);
 154:./Libraries/CMSIS/DSP/Source/FilteringFunctions/arm_fir_decimate_fast_q31.c ****       acc1 = (q31_t) ((((q63_t) acc1 << 32) + ((q63_t) x1 * c0)) >> 32);
 155:./Libraries/CMSIS/DSP/Source/FilteringFunctions/arm_fir_decimate_fast_q31.c ****       acc2 = (q31_t) ((((q63_t) acc2 << 32) + ((q63_t) x2 * c0)) >> 32);
 156:./Libraries/CMSIS/DSP/Source/FilteringFunctions/arm_fir_decimate_fast_q31.c ****       acc3 = (q31_t) ((((q63_t) acc3 << 32) + ((q63_t) x3 * c0)) >> 32);
 157:./Libraries/CMSIS/DSP/Source/FilteringFunctions/arm_fir_decimate_fast_q31.c **** 
 158:./Libraries/CMSIS/DSP/Source/FilteringFunctions/arm_fir_decimate_fast_q31.c ****       /* Read the b[numTaps-3] coefficient */
 159:./Libraries/CMSIS/DSP/Source/FilteringFunctions/arm_fir_decimate_fast_q31.c ****       c0 = *(pb++);
 160:./Libraries/CMSIS/DSP/Source/FilteringFunctions/arm_fir_decimate_fast_q31.c **** 
 161:./Libraries/CMSIS/DSP/Source/FilteringFunctions/arm_fir_decimate_fast_q31.c ****       /* Read x[n-numTaps-3] sample acc0, acc1, acc2, acc3 */
 162:./Libraries/CMSIS/DSP/Source/FilteringFunctions/arm_fir_decimate_fast_q31.c ****       x0 = *(px0++);
 163:./Libraries/CMSIS/DSP/Source/FilteringFunctions/arm_fir_decimate_fast_q31.c ****       x1 = *(px1++);
 164:./Libraries/CMSIS/DSP/Source/FilteringFunctions/arm_fir_decimate_fast_q31.c ****       x2 = *(px2++);
 165:./Libraries/CMSIS/DSP/Source/FilteringFunctions/arm_fir_decimate_fast_q31.c ****       x3 = *(px3++);
 166:./Libraries/CMSIS/DSP/Source/FilteringFunctions/arm_fir_decimate_fast_q31.c **** 
 167:./Libraries/CMSIS/DSP/Source/FilteringFunctions/arm_fir_decimate_fast_q31.c ****       /* Perform the multiply-accumulate */
 168:./Libraries/CMSIS/DSP/Source/FilteringFunctions/arm_fir_decimate_fast_q31.c ****       acc0 = (q31_t) ((((q63_t) acc0 << 32) + ((q63_t) x0 * c0)) >> 32);
 169:./Libraries/CMSIS/DSP/Source/FilteringFunctions/arm_fir_decimate_fast_q31.c ****       acc1 = (q31_t) ((((q63_t) acc1 << 32) + ((q63_t) x1 * c0)) >> 32);
 170:./Libraries/CMSIS/DSP/Source/FilteringFunctions/arm_fir_decimate_fast_q31.c ****       acc2 = (q31_t) ((((q63_t) acc2 << 32) + ((q63_t) x2 * c0)) >> 32);
 171:./Libraries/CMSIS/DSP/Source/FilteringFunctions/arm_fir_decimate_fast_q31.c ****       acc3 = (q31_t) ((((q63_t) acc3 << 32) + ((q63_t) x3 * c0)) >> 32);
 172:./Libraries/CMSIS/DSP/Source/FilteringFunctions/arm_fir_decimate_fast_q31.c **** 
 173:./Libraries/CMSIS/DSP/Source/FilteringFunctions/arm_fir_decimate_fast_q31.c ****       /* Read the b[numTaps-4] coefficient */
 174:./Libraries/CMSIS/DSP/Source/FilteringFunctions/arm_fir_decimate_fast_q31.c ****       c0 = *(pb++);
 175:./Libraries/CMSIS/DSP/Source/FilteringFunctions/arm_fir_decimate_fast_q31.c **** 
 176:./Libraries/CMSIS/DSP/Source/FilteringFunctions/arm_fir_decimate_fast_q31.c ****       /* Read x[n-numTaps-4] sample acc0, acc1, acc2, acc3 */
 177:./Libraries/CMSIS/DSP/Source/FilteringFunctions/arm_fir_decimate_fast_q31.c ****       x0 = *(px0++);
 178:./Libraries/CMSIS/DSP/Source/FilteringFunctions/arm_fir_decimate_fast_q31.c ****       x1 = *(px1++);
 179:./Libraries/CMSIS/DSP/Source/FilteringFunctions/arm_fir_decimate_fast_q31.c ****       x2 = *(px2++);
 180:./Libraries/CMSIS/DSP/Source/FilteringFunctions/arm_fir_decimate_fast_q31.c ****       x3 = *(px3++);
 181:./Libraries/CMSIS/DSP/Source/FilteringFunctions/arm_fir_decimate_fast_q31.c **** 
 182:./Libraries/CMSIS/DSP/Source/FilteringFunctions/arm_fir_decimate_fast_q31.c ****       /* Perform the multiply-accumulate */
 183:./Libraries/CMSIS/DSP/Source/FilteringFunctions/arm_fir_decimate_fast_q31.c ****       acc0 = (q31_t) ((((q63_t) acc0 << 32) + ((q63_t) x0 * c0)) >> 32);
 184:./Libraries/CMSIS/DSP/Source/FilteringFunctions/arm_fir_decimate_fast_q31.c ****       acc1 = (q31_t) ((((q63_t) acc1 << 32) + ((q63_t) x1 * c0)) >> 32);
 185:./Libraries/CMSIS/DSP/Source/FilteringFunctions/arm_fir_decimate_fast_q31.c ****       acc2 = (q31_t) ((((q63_t) acc2 << 32) + ((q63_t) x2 * c0)) >> 32);
 186:./Libraries/CMSIS/DSP/Source/FilteringFunctions/arm_fir_decimate_fast_q31.c ****       acc3 = (q31_t) ((((q63_t) acc3 << 32) + ((q63_t) x3 * c0)) >> 32);
 187:./Libraries/CMSIS/DSP/Source/FilteringFunctions/arm_fir_decimate_fast_q31.c **** 
 188:./Libraries/CMSIS/DSP/Source/FilteringFunctions/arm_fir_decimate_fast_q31.c ****       /* Decrement loop counter */
 189:./Libraries/CMSIS/DSP/Source/FilteringFunctions/arm_fir_decimate_fast_q31.c ****       tapCnt--;
 190:./Libraries/CMSIS/DSP/Source/FilteringFunctions/arm_fir_decimate_fast_q31.c ****     }
 191:./Libraries/CMSIS/DSP/Source/FilteringFunctions/arm_fir_decimate_fast_q31.c **** 
 192:./Libraries/CMSIS/DSP/Source/FilteringFunctions/arm_fir_decimate_fast_q31.c ****     /* Loop unrolling: Compute remaining taps */
 193:./Libraries/CMSIS/DSP/Source/FilteringFunctions/arm_fir_decimate_fast_q31.c ****     tapCnt = numTaps % 0x4U;
 194:./Libraries/CMSIS/DSP/Source/FilteringFunctions/arm_fir_decimate_fast_q31.c **** 
 195:./Libraries/CMSIS/DSP/Source/FilteringFunctions/arm_fir_decimate_fast_q31.c ****     while (tapCnt > 0U)
 196:./Libraries/CMSIS/DSP/Source/FilteringFunctions/arm_fir_decimate_fast_q31.c ****     {
 197:./Libraries/CMSIS/DSP/Source/FilteringFunctions/arm_fir_decimate_fast_q31.c ****       /* Read coefficients */
 198:./Libraries/CMSIS/DSP/Source/FilteringFunctions/arm_fir_decimate_fast_q31.c ****       c0 = *(pb++);
 199:./Libraries/CMSIS/DSP/Source/FilteringFunctions/arm_fir_decimate_fast_q31.c **** 
 200:./Libraries/CMSIS/DSP/Source/FilteringFunctions/arm_fir_decimate_fast_q31.c ****       /* Fetch state variables for acc0, acc1, acc2, acc3 */
 201:./Libraries/CMSIS/DSP/Source/FilteringFunctions/arm_fir_decimate_fast_q31.c ****       x0 = *(px0++);
ARM GAS  /tmp/ccxACGhV.s 			page 6


 202:./Libraries/CMSIS/DSP/Source/FilteringFunctions/arm_fir_decimate_fast_q31.c ****       x1 = *(px1++);
 203:./Libraries/CMSIS/DSP/Source/FilteringFunctions/arm_fir_decimate_fast_q31.c ****       x2 = *(px2++);
 204:./Libraries/CMSIS/DSP/Source/FilteringFunctions/arm_fir_decimate_fast_q31.c ****       x3 = *(px3++);
 205:./Libraries/CMSIS/DSP/Source/FilteringFunctions/arm_fir_decimate_fast_q31.c **** 
 206:./Libraries/CMSIS/DSP/Source/FilteringFunctions/arm_fir_decimate_fast_q31.c ****       /* Perform the multiply-accumulate */
 207:./Libraries/CMSIS/DSP/Source/FilteringFunctions/arm_fir_decimate_fast_q31.c ****       acc0 = (q31_t) ((((q63_t) acc0 << 32) + ((q63_t) x0 * c0)) >> 32);
 208:./Libraries/CMSIS/DSP/Source/FilteringFunctions/arm_fir_decimate_fast_q31.c ****       acc1 = (q31_t) ((((q63_t) acc1 << 32) + ((q63_t) x1 * c0)) >> 32);
 209:./Libraries/CMSIS/DSP/Source/FilteringFunctions/arm_fir_decimate_fast_q31.c ****       acc2 = (q31_t) ((((q63_t) acc2 << 32) + ((q63_t) x2 * c0)) >> 32);
 210:./Libraries/CMSIS/DSP/Source/FilteringFunctions/arm_fir_decimate_fast_q31.c ****       acc3 = (q31_t) ((((q63_t) acc3 << 32) + ((q63_t) x3 * c0)) >> 32);
 211:./Libraries/CMSIS/DSP/Source/FilteringFunctions/arm_fir_decimate_fast_q31.c **** 
 212:./Libraries/CMSIS/DSP/Source/FilteringFunctions/arm_fir_decimate_fast_q31.c ****       /* Decrement loop counter */
 213:./Libraries/CMSIS/DSP/Source/FilteringFunctions/arm_fir_decimate_fast_q31.c ****       tapCnt--;
 214:./Libraries/CMSIS/DSP/Source/FilteringFunctions/arm_fir_decimate_fast_q31.c ****     }
 215:./Libraries/CMSIS/DSP/Source/FilteringFunctions/arm_fir_decimate_fast_q31.c **** 
 216:./Libraries/CMSIS/DSP/Source/FilteringFunctions/arm_fir_decimate_fast_q31.c ****     /* Advance the state pointer by the decimation factor
 217:./Libraries/CMSIS/DSP/Source/FilteringFunctions/arm_fir_decimate_fast_q31.c ****      * to process the next group of decimation factor number samples */
 218:./Libraries/CMSIS/DSP/Source/FilteringFunctions/arm_fir_decimate_fast_q31.c ****     pState = pState + S->M * 4;
 219:./Libraries/CMSIS/DSP/Source/FilteringFunctions/arm_fir_decimate_fast_q31.c **** 
 220:./Libraries/CMSIS/DSP/Source/FilteringFunctions/arm_fir_decimate_fast_q31.c ****     /* The result is in the accumulator, store in the destination buffer. */
 221:./Libraries/CMSIS/DSP/Source/FilteringFunctions/arm_fir_decimate_fast_q31.c ****     *pDst++ = (q31_t) (acc0 << 1);
 222:./Libraries/CMSIS/DSP/Source/FilteringFunctions/arm_fir_decimate_fast_q31.c ****     *pDst++ = (q31_t) (acc1 << 1);
 223:./Libraries/CMSIS/DSP/Source/FilteringFunctions/arm_fir_decimate_fast_q31.c ****     *pDst++ = (q31_t) (acc2 << 1);
 224:./Libraries/CMSIS/DSP/Source/FilteringFunctions/arm_fir_decimate_fast_q31.c ****     *pDst++ = (q31_t) (acc3 << 1);
 225:./Libraries/CMSIS/DSP/Source/FilteringFunctions/arm_fir_decimate_fast_q31.c **** 
 226:./Libraries/CMSIS/DSP/Source/FilteringFunctions/arm_fir_decimate_fast_q31.c ****     /* Decrement loop counter */
 227:./Libraries/CMSIS/DSP/Source/FilteringFunctions/arm_fir_decimate_fast_q31.c ****     blkCnt--;
 228:./Libraries/CMSIS/DSP/Source/FilteringFunctions/arm_fir_decimate_fast_q31.c ****   }
 229:./Libraries/CMSIS/DSP/Source/FilteringFunctions/arm_fir_decimate_fast_q31.c **** 
 230:./Libraries/CMSIS/DSP/Source/FilteringFunctions/arm_fir_decimate_fast_q31.c ****   /* Loop unrolling: Compute remaining samples */
 231:./Libraries/CMSIS/DSP/Source/FilteringFunctions/arm_fir_decimate_fast_q31.c ****   blkCnt = outBlockSize % 0x4U;
 232:./Libraries/CMSIS/DSP/Source/FilteringFunctions/arm_fir_decimate_fast_q31.c **** 
 233:./Libraries/CMSIS/DSP/Source/FilteringFunctions/arm_fir_decimate_fast_q31.c **** #else
 234:./Libraries/CMSIS/DSP/Source/FilteringFunctions/arm_fir_decimate_fast_q31.c **** 
 235:./Libraries/CMSIS/DSP/Source/FilteringFunctions/arm_fir_decimate_fast_q31.c ****   /* Initialize blkCnt with number of samples */
 236:./Libraries/CMSIS/DSP/Source/FilteringFunctions/arm_fir_decimate_fast_q31.c ****   blkCnt = outBlockSize;
  86              		.loc 1 236 10
  87 0042 BB69     		ldr	r3, [r7, #24]
  88 0044 7B62     		str	r3, [r7, #36]
 237:./Libraries/CMSIS/DSP/Source/FilteringFunctions/arm_fir_decimate_fast_q31.c **** 
 238:./Libraries/CMSIS/DSP/Source/FilteringFunctions/arm_fir_decimate_fast_q31.c **** #endif /* #if defined (ARM_MATH_LOOPUNROLL) */
 239:./Libraries/CMSIS/DSP/Source/FilteringFunctions/arm_fir_decimate_fast_q31.c **** 
 240:./Libraries/CMSIS/DSP/Source/FilteringFunctions/arm_fir_decimate_fast_q31.c ****   while (blkCnt > 0U)
  89              		.loc 1 240 9
  90 0046 6BE0     		b	.L2
  91              	.L6:
 241:./Libraries/CMSIS/DSP/Source/FilteringFunctions/arm_fir_decimate_fast_q31.c ****   {
 242:./Libraries/CMSIS/DSP/Source/FilteringFunctions/arm_fir_decimate_fast_q31.c ****     /* Copy decimation factor number of new input samples into the state buffer */
 243:./Libraries/CMSIS/DSP/Source/FilteringFunctions/arm_fir_decimate_fast_q31.c ****     i = S->M;
  92              		.loc 1 243 10
  93 0048 FB68     		ldr	r3, [r7, #12]
  94 004a 1B78     		ldrb	r3, [r3]	@ zero_extendqisi2
  95              		.loc 1 243 7
  96 004c FB62     		str	r3, [r7, #44]
  97              	.L3:
 244:./Libraries/CMSIS/DSP/Source/FilteringFunctions/arm_fir_decimate_fast_q31.c **** 
 245:./Libraries/CMSIS/DSP/Source/FilteringFunctions/arm_fir_decimate_fast_q31.c ****     do
 246:./Libraries/CMSIS/DSP/Source/FilteringFunctions/arm_fir_decimate_fast_q31.c ****     {
ARM GAS  /tmp/ccxACGhV.s 			page 7


 247:./Libraries/CMSIS/DSP/Source/FilteringFunctions/arm_fir_decimate_fast_q31.c ****       *pStateCur++ = *pSrc++;
  98              		.loc 1 247 27 discriminator 1
  99 004e BA68     		ldr	r2, [r7, #8]
 100 0050 131D     		adds	r3, r2, #4
 101 0052 BB60     		str	r3, [r7, #8]
 102              		.loc 1 247 17 discriminator 1
 103 0054 3B6C     		ldr	r3, [r7, #64]
 104 0056 191D     		adds	r1, r3, #4
 105 0058 3964     		str	r1, [r7, #64]
 106              		.loc 1 247 22 discriminator 1
 107 005a 1268     		ldr	r2, [r2]
 108              		.loc 1 247 20 discriminator 1
 109 005c 1A60     		str	r2, [r3]
 248:./Libraries/CMSIS/DSP/Source/FilteringFunctions/arm_fir_decimate_fast_q31.c **** 
 249:./Libraries/CMSIS/DSP/Source/FilteringFunctions/arm_fir_decimate_fast_q31.c ****     } while (--i);
 110              		.loc 1 249 5 discriminator 1
 111 005e FB6A     		ldr	r3, [r7, #44]
 112 0060 013B     		subs	r3, r3, #1
 113 0062 FB62     		str	r3, [r7, #44]
 114 0064 FB6A     		ldr	r3, [r7, #44]
 115 0066 002B     		cmp	r3, #0
 116 0068 F1D1     		bne	.L3
 250:./Libraries/CMSIS/DSP/Source/FilteringFunctions/arm_fir_decimate_fast_q31.c **** 
 251:./Libraries/CMSIS/DSP/Source/FilteringFunctions/arm_fir_decimate_fast_q31.c ****     /* Set accumulator to zero */
 252:./Libraries/CMSIS/DSP/Source/FilteringFunctions/arm_fir_decimate_fast_q31.c ****     acc0 = 0;
 117              		.loc 1 252 10
 118 006a 4FF00002 		mov	r2, #0
 119 006e 4FF00003 		mov	r3, #0
 120 0072 C7E90C23 		strd	r2, [r7, #48]
 253:./Libraries/CMSIS/DSP/Source/FilteringFunctions/arm_fir_decimate_fast_q31.c **** 
 254:./Libraries/CMSIS/DSP/Source/FilteringFunctions/arm_fir_decimate_fast_q31.c ****     /* Initialize state pointer */
 255:./Libraries/CMSIS/DSP/Source/FilteringFunctions/arm_fir_decimate_fast_q31.c ****     px0 = pState;
 121              		.loc 1 255 9
 122 0076 7B6C     		ldr	r3, [r7, #68]
 123 0078 FB63     		str	r3, [r7, #60]
 256:./Libraries/CMSIS/DSP/Source/FilteringFunctions/arm_fir_decimate_fast_q31.c **** 
 257:./Libraries/CMSIS/DSP/Source/FilteringFunctions/arm_fir_decimate_fast_q31.c ****     /* Initialize coeff pointer */
 258:./Libraries/CMSIS/DSP/Source/FilteringFunctions/arm_fir_decimate_fast_q31.c ****     pb = pCoeffs;
 124              		.loc 1 258 8
 125 007a 3B6A     		ldr	r3, [r7, #32]
 126 007c BB63     		str	r3, [r7, #56]
 259:./Libraries/CMSIS/DSP/Source/FilteringFunctions/arm_fir_decimate_fast_q31.c **** 
 260:./Libraries/CMSIS/DSP/Source/FilteringFunctions/arm_fir_decimate_fast_q31.c **** #if defined (ARM_MATH_LOOPUNROLL)
 261:./Libraries/CMSIS/DSP/Source/FilteringFunctions/arm_fir_decimate_fast_q31.c **** 
 262:./Libraries/CMSIS/DSP/Source/FilteringFunctions/arm_fir_decimate_fast_q31.c ****     /* Loop unrolling: Compute 4 taps at a time */
 263:./Libraries/CMSIS/DSP/Source/FilteringFunctions/arm_fir_decimate_fast_q31.c ****     tapCnt = numTaps >> 2U;
 264:./Libraries/CMSIS/DSP/Source/FilteringFunctions/arm_fir_decimate_fast_q31.c **** 
 265:./Libraries/CMSIS/DSP/Source/FilteringFunctions/arm_fir_decimate_fast_q31.c ****     while (tapCnt > 0U)
 266:./Libraries/CMSIS/DSP/Source/FilteringFunctions/arm_fir_decimate_fast_q31.c ****     {
 267:./Libraries/CMSIS/DSP/Source/FilteringFunctions/arm_fir_decimate_fast_q31.c ****       /* Read the b[numTaps-1] coefficient */
 268:./Libraries/CMSIS/DSP/Source/FilteringFunctions/arm_fir_decimate_fast_q31.c ****       c0 = *pb++;
 269:./Libraries/CMSIS/DSP/Source/FilteringFunctions/arm_fir_decimate_fast_q31.c **** 
 270:./Libraries/CMSIS/DSP/Source/FilteringFunctions/arm_fir_decimate_fast_q31.c ****       /* Read x[n-numTaps-1] sample */
 271:./Libraries/CMSIS/DSP/Source/FilteringFunctions/arm_fir_decimate_fast_q31.c ****       x0 = *px0++;
 272:./Libraries/CMSIS/DSP/Source/FilteringFunctions/arm_fir_decimate_fast_q31.c **** 
 273:./Libraries/CMSIS/DSP/Source/FilteringFunctions/arm_fir_decimate_fast_q31.c ****       /* Perform the multiply-accumulate */
 274:./Libraries/CMSIS/DSP/Source/FilteringFunctions/arm_fir_decimate_fast_q31.c ****       acc0 = (q31_t) ((((q63_t) acc0 << 32) + ((q63_t) x0 * c0)) >> 32);
ARM GAS  /tmp/ccxACGhV.s 			page 8


 275:./Libraries/CMSIS/DSP/Source/FilteringFunctions/arm_fir_decimate_fast_q31.c **** 
 276:./Libraries/CMSIS/DSP/Source/FilteringFunctions/arm_fir_decimate_fast_q31.c ****       /* Read the b[numTaps-2] coefficient */
 277:./Libraries/CMSIS/DSP/Source/FilteringFunctions/arm_fir_decimate_fast_q31.c ****       c0 = *pb++;
 278:./Libraries/CMSIS/DSP/Source/FilteringFunctions/arm_fir_decimate_fast_q31.c **** 
 279:./Libraries/CMSIS/DSP/Source/FilteringFunctions/arm_fir_decimate_fast_q31.c ****       /* Read x[n-numTaps-2] sample */
 280:./Libraries/CMSIS/DSP/Source/FilteringFunctions/arm_fir_decimate_fast_q31.c ****       x0 = *px0++;
 281:./Libraries/CMSIS/DSP/Source/FilteringFunctions/arm_fir_decimate_fast_q31.c **** 
 282:./Libraries/CMSIS/DSP/Source/FilteringFunctions/arm_fir_decimate_fast_q31.c ****       /* Perform the multiply-accumulate */
 283:./Libraries/CMSIS/DSP/Source/FilteringFunctions/arm_fir_decimate_fast_q31.c ****       acc0 = (q31_t) ((((q63_t) acc0 << 32) + ((q63_t) x0 * c0)) >> 32);
 284:./Libraries/CMSIS/DSP/Source/FilteringFunctions/arm_fir_decimate_fast_q31.c **** 
 285:./Libraries/CMSIS/DSP/Source/FilteringFunctions/arm_fir_decimate_fast_q31.c ****       /* Read the b[numTaps-3] coefficient */
 286:./Libraries/CMSIS/DSP/Source/FilteringFunctions/arm_fir_decimate_fast_q31.c ****       c0 = *pb++;
 287:./Libraries/CMSIS/DSP/Source/FilteringFunctions/arm_fir_decimate_fast_q31.c **** 
 288:./Libraries/CMSIS/DSP/Source/FilteringFunctions/arm_fir_decimate_fast_q31.c ****       /* Read x[n-numTaps-3] sample */
 289:./Libraries/CMSIS/DSP/Source/FilteringFunctions/arm_fir_decimate_fast_q31.c ****       x0 = *px0++;
 290:./Libraries/CMSIS/DSP/Source/FilteringFunctions/arm_fir_decimate_fast_q31.c **** 
 291:./Libraries/CMSIS/DSP/Source/FilteringFunctions/arm_fir_decimate_fast_q31.c ****       /* Perform the multiply-accumulate */
 292:./Libraries/CMSIS/DSP/Source/FilteringFunctions/arm_fir_decimate_fast_q31.c ****       acc0 = (q31_t) ((((q63_t) acc0 << 32) + ((q63_t) x0 * c0)) >> 32);
 293:./Libraries/CMSIS/DSP/Source/FilteringFunctions/arm_fir_decimate_fast_q31.c **** 
 294:./Libraries/CMSIS/DSP/Source/FilteringFunctions/arm_fir_decimate_fast_q31.c ****       /* Read the b[numTaps-4] coefficient */
 295:./Libraries/CMSIS/DSP/Source/FilteringFunctions/arm_fir_decimate_fast_q31.c ****       c0 = *pb++;
 296:./Libraries/CMSIS/DSP/Source/FilteringFunctions/arm_fir_decimate_fast_q31.c **** 
 297:./Libraries/CMSIS/DSP/Source/FilteringFunctions/arm_fir_decimate_fast_q31.c ****       /* Read x[n-numTaps-4] sample */
 298:./Libraries/CMSIS/DSP/Source/FilteringFunctions/arm_fir_decimate_fast_q31.c ****       x0 = *px0++;
 299:./Libraries/CMSIS/DSP/Source/FilteringFunctions/arm_fir_decimate_fast_q31.c **** 
 300:./Libraries/CMSIS/DSP/Source/FilteringFunctions/arm_fir_decimate_fast_q31.c ****       /* Perform the multiply-accumulate */
 301:./Libraries/CMSIS/DSP/Source/FilteringFunctions/arm_fir_decimate_fast_q31.c ****       acc0 = (q31_t) ((((q63_t) acc0 << 32) + ((q63_t) x0 * c0)) >> 32);
 302:./Libraries/CMSIS/DSP/Source/FilteringFunctions/arm_fir_decimate_fast_q31.c **** 
 303:./Libraries/CMSIS/DSP/Source/FilteringFunctions/arm_fir_decimate_fast_q31.c ****       /* Decrement loop counter */
 304:./Libraries/CMSIS/DSP/Source/FilteringFunctions/arm_fir_decimate_fast_q31.c ****       tapCnt--;
 305:./Libraries/CMSIS/DSP/Source/FilteringFunctions/arm_fir_decimate_fast_q31.c ****     }
 306:./Libraries/CMSIS/DSP/Source/FilteringFunctions/arm_fir_decimate_fast_q31.c **** 
 307:./Libraries/CMSIS/DSP/Source/FilteringFunctions/arm_fir_decimate_fast_q31.c ****     /* Loop unrolling: Compute remaining taps */
 308:./Libraries/CMSIS/DSP/Source/FilteringFunctions/arm_fir_decimate_fast_q31.c ****     tapCnt = numTaps % 0x4U;
 309:./Libraries/CMSIS/DSP/Source/FilteringFunctions/arm_fir_decimate_fast_q31.c **** 
 310:./Libraries/CMSIS/DSP/Source/FilteringFunctions/arm_fir_decimate_fast_q31.c **** #else
 311:./Libraries/CMSIS/DSP/Source/FilteringFunctions/arm_fir_decimate_fast_q31.c **** 
 312:./Libraries/CMSIS/DSP/Source/FilteringFunctions/arm_fir_decimate_fast_q31.c ****     /* Initialize tapCnt with number of taps */
 313:./Libraries/CMSIS/DSP/Source/FilteringFunctions/arm_fir_decimate_fast_q31.c ****     tapCnt = numTaps;
 127              		.loc 1 313 12
 128 007e FB69     		ldr	r3, [r7, #28]
 129 0080 BB62     		str	r3, [r7, #40]
 314:./Libraries/CMSIS/DSP/Source/FilteringFunctions/arm_fir_decimate_fast_q31.c **** 
 315:./Libraries/CMSIS/DSP/Source/FilteringFunctions/arm_fir_decimate_fast_q31.c **** #endif /* #if defined (ARM_MATH_LOOPUNROLL) */
 316:./Libraries/CMSIS/DSP/Source/FilteringFunctions/arm_fir_decimate_fast_q31.c **** 
 317:./Libraries/CMSIS/DSP/Source/FilteringFunctions/arm_fir_decimate_fast_q31.c ****     while (tapCnt > 0U)
 130              		.loc 1 317 11
 131 0082 34E0     		b	.L4
 132              	.L5:
 318:./Libraries/CMSIS/DSP/Source/FilteringFunctions/arm_fir_decimate_fast_q31.c ****     {
 319:./Libraries/CMSIS/DSP/Source/FilteringFunctions/arm_fir_decimate_fast_q31.c ****       /* Read coefficients */
 320:./Libraries/CMSIS/DSP/Source/FilteringFunctions/arm_fir_decimate_fast_q31.c ****       c0 = *pb++;
 133              		.loc 1 320 15
 134 0084 BB6B     		ldr	r3, [r7, #56]
 135 0086 1A1D     		adds	r2, r3, #4
 136 0088 BA63     		str	r2, [r7, #56]
 137              		.loc 1 320 10
ARM GAS  /tmp/ccxACGhV.s 			page 9


 138 008a 1B68     		ldr	r3, [r3]
 139 008c 7B61     		str	r3, [r7, #20]
 321:./Libraries/CMSIS/DSP/Source/FilteringFunctions/arm_fir_decimate_fast_q31.c **** 
 322:./Libraries/CMSIS/DSP/Source/FilteringFunctions/arm_fir_decimate_fast_q31.c ****       /* Fetch 1 state variable */
 323:./Libraries/CMSIS/DSP/Source/FilteringFunctions/arm_fir_decimate_fast_q31.c ****       x0 = *px0++;
 140              		.loc 1 323 16
 141 008e FB6B     		ldr	r3, [r7, #60]
 142 0090 1A1D     		adds	r2, r3, #4
 143 0092 FA63     		str	r2, [r7, #60]
 144              		.loc 1 323 10
 145 0094 1B68     		ldr	r3, [r3]
 146 0096 3B61     		str	r3, [r7, #16]
 324:./Libraries/CMSIS/DSP/Source/FilteringFunctions/arm_fir_decimate_fast_q31.c **** 
 325:./Libraries/CMSIS/DSP/Source/FilteringFunctions/arm_fir_decimate_fast_q31.c ****       /* Perform the multiply-accumulate */
 326:./Libraries/CMSIS/DSP/Source/FilteringFunctions/arm_fir_decimate_fast_q31.c ****       acc0 = (q31_t) ((((q63_t) acc0 << 32) + ((q63_t) x0 * c0)) >> 32);
 147              		.loc 1 326 38
 148 0098 D7E90C23 		ldrd	r2, [r7, #48]
 149 009c 4FF00000 		mov	r0, #0
 150 00a0 4FF00001 		mov	r1, #0
 151 00a4 1100     		movs	r1, r2
 152 00a6 0020     		movs	r0, #0
 153              		.loc 1 326 48
 154 00a8 3B69     		ldr	r3, [r7, #16]
 155 00aa 9846     		mov	r8, r3
 156 00ac 4FEAE879 		asr	r9, r8, #31
 157              		.loc 1 326 59
 158 00b0 7B69     		ldr	r3, [r7, #20]
 159 00b2 1A46     		mov	r2, r3
 160 00b4 4FEAE273 		asr	r3, r2, #31
 161 00b8 02FB09FC 		mul	ip, r2, r9
 162 00bc 08FB03F6 		mul	r6, r8, r3
 163 00c0 6644     		add	r6, r6, ip
 164 00c2 A8FB0223 		umull	r2, r3, r8, r2
 165 00c6 1E44     		add	r6, r6, r3
 166 00c8 3346     		mov	r3, r6
 167              		.loc 1 326 45
 168 00ca 8418     		adds	r4, r0, r2
 169 00cc 41EB0305 		adc	r5, r1, r3
 170              		.loc 1 326 66
 171 00d0 4FF00002 		mov	r2, #0
 172 00d4 4FF00003 		mov	r3, #0
 173 00d8 2A00     		movs	r2, r5
 174 00da EB17     		asrs	r3, r5, #31
 175              		.loc 1 326 14
 176 00dc 1346     		mov	r3, r2
 177              		.loc 1 326 12
 178 00de 1A46     		mov	r2, r3
 179 00e0 4FEAE273 		asr	r3, r2, #31
 180 00e4 C7E90C23 		strd	r2, [r7, #48]
 327:./Libraries/CMSIS/DSP/Source/FilteringFunctions/arm_fir_decimate_fast_q31.c **** 
 328:./Libraries/CMSIS/DSP/Source/FilteringFunctions/arm_fir_decimate_fast_q31.c ****       /* Decrement loop counter */
 329:./Libraries/CMSIS/DSP/Source/FilteringFunctions/arm_fir_decimate_fast_q31.c ****       tapCnt--;
 181              		.loc 1 329 13
 182 00e8 BB6A     		ldr	r3, [r7, #40]
 183 00ea 013B     		subs	r3, r3, #1
 184 00ec BB62     		str	r3, [r7, #40]
 185              	.L4:
ARM GAS  /tmp/ccxACGhV.s 			page 10


 317:./Libraries/CMSIS/DSP/Source/FilteringFunctions/arm_fir_decimate_fast_q31.c ****     {
 186              		.loc 1 317 11
 187 00ee BB6A     		ldr	r3, [r7, #40]
 188 00f0 002B     		cmp	r3, #0
 189 00f2 C7D1     		bne	.L5
 330:./Libraries/CMSIS/DSP/Source/FilteringFunctions/arm_fir_decimate_fast_q31.c ****     }
 331:./Libraries/CMSIS/DSP/Source/FilteringFunctions/arm_fir_decimate_fast_q31.c **** 
 332:./Libraries/CMSIS/DSP/Source/FilteringFunctions/arm_fir_decimate_fast_q31.c ****     /* Advance the state pointer by the decimation factor
 333:./Libraries/CMSIS/DSP/Source/FilteringFunctions/arm_fir_decimate_fast_q31.c ****      * to process the next group of decimation factor number samples */
 334:./Libraries/CMSIS/DSP/Source/FilteringFunctions/arm_fir_decimate_fast_q31.c ****     pState = pState + S->M;
 190              		.loc 1 334 24
 191 00f4 FB68     		ldr	r3, [r7, #12]
 192 00f6 1B78     		ldrb	r3, [r3]	@ zero_extendqisi2
 193              		.loc 1 334 21
 194 00f8 9B00     		lsls	r3, r3, #2
 195              		.loc 1 334 12
 196 00fa 7A6C     		ldr	r2, [r7, #68]
 197 00fc 1344     		add	r3, r3, r2
 198 00fe 7B64     		str	r3, [r7, #68]
 335:./Libraries/CMSIS/DSP/Source/FilteringFunctions/arm_fir_decimate_fast_q31.c **** 
 336:./Libraries/CMSIS/DSP/Source/FilteringFunctions/arm_fir_decimate_fast_q31.c ****     /* The result is in the accumulator, store in the destination buffer. */
 337:./Libraries/CMSIS/DSP/Source/FilteringFunctions/arm_fir_decimate_fast_q31.c ****     *pDst++ = (q31_t) (acc0 << 1);
 199              		.loc 1 337 29
 200 0100 D7E90C23 		ldrd	r2, [r7, #48]
 201 0104 12EB020A 		adds	r10, r2, r2
 202 0108 43EB030B 		adc	fp, r3, r3
 203 010c 5046     		mov	r0, r10
 204 010e 5946     		mov	r1, fp
 205              		.loc 1 337 10
 206 0110 7B68     		ldr	r3, [r7, #4]
 207 0112 1A1D     		adds	r2, r3, #4
 208 0114 7A60     		str	r2, [r7, #4]
 209              		.loc 1 337 15
 210 0116 0246     		mov	r2, r0
 211              		.loc 1 337 13
 212 0118 1A60     		str	r2, [r3]
 338:./Libraries/CMSIS/DSP/Source/FilteringFunctions/arm_fir_decimate_fast_q31.c **** 
 339:./Libraries/CMSIS/DSP/Source/FilteringFunctions/arm_fir_decimate_fast_q31.c ****     /* Decrement loop counter */
 340:./Libraries/CMSIS/DSP/Source/FilteringFunctions/arm_fir_decimate_fast_q31.c ****     blkCnt--;
 213              		.loc 1 340 11
 214 011a 7B6A     		ldr	r3, [r7, #36]
 215 011c 013B     		subs	r3, r3, #1
 216 011e 7B62     		str	r3, [r7, #36]
 217              	.L2:
 240:./Libraries/CMSIS/DSP/Source/FilteringFunctions/arm_fir_decimate_fast_q31.c ****   {
 218              		.loc 1 240 9
 219 0120 7B6A     		ldr	r3, [r7, #36]
 220 0122 002B     		cmp	r3, #0
 221 0124 90D1     		bne	.L6
 341:./Libraries/CMSIS/DSP/Source/FilteringFunctions/arm_fir_decimate_fast_q31.c ****   }
 342:./Libraries/CMSIS/DSP/Source/FilteringFunctions/arm_fir_decimate_fast_q31.c **** 
 343:./Libraries/CMSIS/DSP/Source/FilteringFunctions/arm_fir_decimate_fast_q31.c ****   /* Processing is complete.
 344:./Libraries/CMSIS/DSP/Source/FilteringFunctions/arm_fir_decimate_fast_q31.c ****      Now copy the last numTaps - 1 samples to the satrt of the state buffer.
 345:./Libraries/CMSIS/DSP/Source/FilteringFunctions/arm_fir_decimate_fast_q31.c ****      This prepares the state buffer for the next function call. */
 346:./Libraries/CMSIS/DSP/Source/FilteringFunctions/arm_fir_decimate_fast_q31.c **** 
 347:./Libraries/CMSIS/DSP/Source/FilteringFunctions/arm_fir_decimate_fast_q31.c ****   /* Points to the start of the state buffer */
 348:./Libraries/CMSIS/DSP/Source/FilteringFunctions/arm_fir_decimate_fast_q31.c ****   pStateCur = S->pState;
ARM GAS  /tmp/ccxACGhV.s 			page 11


 222              		.loc 1 348 13
 223 0126 FB68     		ldr	r3, [r7, #12]
 224 0128 9B68     		ldr	r3, [r3, #8]
 225 012a 3B64     		str	r3, [r7, #64]
 349:./Libraries/CMSIS/DSP/Source/FilteringFunctions/arm_fir_decimate_fast_q31.c **** 
 350:./Libraries/CMSIS/DSP/Source/FilteringFunctions/arm_fir_decimate_fast_q31.c **** #if defined (ARM_MATH_LOOPUNROLL)
 351:./Libraries/CMSIS/DSP/Source/FilteringFunctions/arm_fir_decimate_fast_q31.c **** 
 352:./Libraries/CMSIS/DSP/Source/FilteringFunctions/arm_fir_decimate_fast_q31.c ****   /* Loop unrolling: Compute 4 taps at a time */
 353:./Libraries/CMSIS/DSP/Source/FilteringFunctions/arm_fir_decimate_fast_q31.c ****   tapCnt = (numTaps - 1U) >> 2U;
 354:./Libraries/CMSIS/DSP/Source/FilteringFunctions/arm_fir_decimate_fast_q31.c **** 
 355:./Libraries/CMSIS/DSP/Source/FilteringFunctions/arm_fir_decimate_fast_q31.c ****   /* Copy data */
 356:./Libraries/CMSIS/DSP/Source/FilteringFunctions/arm_fir_decimate_fast_q31.c ****   while (tapCnt > 0U)
 357:./Libraries/CMSIS/DSP/Source/FilteringFunctions/arm_fir_decimate_fast_q31.c ****   {
 358:./Libraries/CMSIS/DSP/Source/FilteringFunctions/arm_fir_decimate_fast_q31.c ****     *pStateCur++ = *pState++;
 359:./Libraries/CMSIS/DSP/Source/FilteringFunctions/arm_fir_decimate_fast_q31.c ****     *pStateCur++ = *pState++;
 360:./Libraries/CMSIS/DSP/Source/FilteringFunctions/arm_fir_decimate_fast_q31.c ****     *pStateCur++ = *pState++;
 361:./Libraries/CMSIS/DSP/Source/FilteringFunctions/arm_fir_decimate_fast_q31.c ****     *pStateCur++ = *pState++;
 362:./Libraries/CMSIS/DSP/Source/FilteringFunctions/arm_fir_decimate_fast_q31.c **** 
 363:./Libraries/CMSIS/DSP/Source/FilteringFunctions/arm_fir_decimate_fast_q31.c ****     /* Decrement loop counter */
 364:./Libraries/CMSIS/DSP/Source/FilteringFunctions/arm_fir_decimate_fast_q31.c ****     tapCnt--;
 365:./Libraries/CMSIS/DSP/Source/FilteringFunctions/arm_fir_decimate_fast_q31.c ****   }
 366:./Libraries/CMSIS/DSP/Source/FilteringFunctions/arm_fir_decimate_fast_q31.c **** 
 367:./Libraries/CMSIS/DSP/Source/FilteringFunctions/arm_fir_decimate_fast_q31.c ****   /* Loop unrolling: Compute remaining taps */
 368:./Libraries/CMSIS/DSP/Source/FilteringFunctions/arm_fir_decimate_fast_q31.c ****   tapCnt = (numTaps - 1U) % 0x04U;
 369:./Libraries/CMSIS/DSP/Source/FilteringFunctions/arm_fir_decimate_fast_q31.c **** 
 370:./Libraries/CMSIS/DSP/Source/FilteringFunctions/arm_fir_decimate_fast_q31.c **** #else
 371:./Libraries/CMSIS/DSP/Source/FilteringFunctions/arm_fir_decimate_fast_q31.c **** 
 372:./Libraries/CMSIS/DSP/Source/FilteringFunctions/arm_fir_decimate_fast_q31.c ****   /* Initialize tapCnt with number of taps */
 373:./Libraries/CMSIS/DSP/Source/FilteringFunctions/arm_fir_decimate_fast_q31.c ****   tapCnt = (numTaps - 1U);
 226              		.loc 1 373 10
 227 012c FB69     		ldr	r3, [r7, #28]
 228 012e 013B     		subs	r3, r3, #1
 229 0130 BB62     		str	r3, [r7, #40]
 374:./Libraries/CMSIS/DSP/Source/FilteringFunctions/arm_fir_decimate_fast_q31.c **** 
 375:./Libraries/CMSIS/DSP/Source/FilteringFunctions/arm_fir_decimate_fast_q31.c **** #endif /* #if defined (ARM_MATH_LOOPUNROLL) */
 376:./Libraries/CMSIS/DSP/Source/FilteringFunctions/arm_fir_decimate_fast_q31.c **** 
 377:./Libraries/CMSIS/DSP/Source/FilteringFunctions/arm_fir_decimate_fast_q31.c ****   /* Copy data */
 378:./Libraries/CMSIS/DSP/Source/FilteringFunctions/arm_fir_decimate_fast_q31.c ****   while (tapCnt > 0U)
 230              		.loc 1 378 9
 231 0132 0AE0     		b	.L7
 232              	.L8:
 379:./Libraries/CMSIS/DSP/Source/FilteringFunctions/arm_fir_decimate_fast_q31.c ****   {
 380:./Libraries/CMSIS/DSP/Source/FilteringFunctions/arm_fir_decimate_fast_q31.c ****     *pStateCur++ = *pState++;
 233              		.loc 1 380 27
 234 0134 7A6C     		ldr	r2, [r7, #68]
 235 0136 131D     		adds	r3, r2, #4
 236 0138 7B64     		str	r3, [r7, #68]
 237              		.loc 1 380 15
 238 013a 3B6C     		ldr	r3, [r7, #64]
 239 013c 191D     		adds	r1, r3, #4
 240 013e 3964     		str	r1, [r7, #64]
 241              		.loc 1 380 20
 242 0140 1268     		ldr	r2, [r2]
 243              		.loc 1 380 18
 244 0142 1A60     		str	r2, [r3]
 381:./Libraries/CMSIS/DSP/Source/FilteringFunctions/arm_fir_decimate_fast_q31.c **** 
 382:./Libraries/CMSIS/DSP/Source/FilteringFunctions/arm_fir_decimate_fast_q31.c ****     /* Decrement loop counter */
ARM GAS  /tmp/ccxACGhV.s 			page 12


 383:./Libraries/CMSIS/DSP/Source/FilteringFunctions/arm_fir_decimate_fast_q31.c ****     tapCnt--;
 245              		.loc 1 383 11
 246 0144 BB6A     		ldr	r3, [r7, #40]
 247 0146 013B     		subs	r3, r3, #1
 248 0148 BB62     		str	r3, [r7, #40]
 249              	.L7:
 378:./Libraries/CMSIS/DSP/Source/FilteringFunctions/arm_fir_decimate_fast_q31.c ****   {
 250              		.loc 1 378 9
 251 014a BB6A     		ldr	r3, [r7, #40]
 252 014c 002B     		cmp	r3, #0
 253 014e F1D1     		bne	.L8
 384:./Libraries/CMSIS/DSP/Source/FilteringFunctions/arm_fir_decimate_fast_q31.c ****   }
 385:./Libraries/CMSIS/DSP/Source/FilteringFunctions/arm_fir_decimate_fast_q31.c **** 
 386:./Libraries/CMSIS/DSP/Source/FilteringFunctions/arm_fir_decimate_fast_q31.c **** }
 254              		.loc 1 386 1
 255 0150 00BF     		nop
 256 0152 00BF     		nop
 257 0154 4837     		adds	r7, r7, #72
 258              	.LCFI3:
 259              		.cfi_def_cfa_offset 32
 260 0156 BD46     		mov	sp, r7
 261              	.LCFI4:
 262              		.cfi_def_cfa_register 13
 263              		@ sp needed
 264 0158 BDE8F00F 		pop	{r4, r5, r6, r7, r8, r9, r10, fp}
 265              	.LCFI5:
 266              		.cfi_restore 11
 267              		.cfi_restore 10
 268              		.cfi_restore 9
 269              		.cfi_restore 8
 270              		.cfi_restore 7
 271              		.cfi_restore 6
 272              		.cfi_restore 5
 273              		.cfi_restore 4
 274              		.cfi_def_cfa_offset 0
 275 015c 7047     		bx	lr
 276              		.cfi_endproc
 277              	.LFE145:
 279              		.text
 280              	.Letext0:
 281              		.file 2 "/usr/lib/gcc/arm-none-eabi/9.2.1/include/stdint.h"
 282              		.file 3 "/usr/lib/gcc/arm-none-eabi/9.2.1/include/stddef.h"
 283              		.file 4 "/usr/include/newlib/sys/_types.h"
 284              		.file 5 "/usr/include/newlib/sys/reent.h"
 285              		.file 6 "/usr/include/newlib/sys/lock.h"
 286              		.file 7 "/usr/include/newlib/math.h"
 287              		.file 8 "./Libraries/CMSIS/DSP/Include/arm_math.h"
ARM GAS  /tmp/ccxACGhV.s 			page 13

