ARM GAS  /tmp/ccCFWeUi.s 			page 1


   1              		.cpu cortex-m7
   2              		.eabi_attribute 28, 1
   3              		.eabi_attribute 20, 1
   4              		.eabi_attribute 21, 1
   5              		.eabi_attribute 23, 3
   6              		.eabi_attribute 24, 1
   7              		.eabi_attribute 25, 1
   8              		.eabi_attribute 26, 1
   9              		.eabi_attribute 30, 6
  10              		.eabi_attribute 34, 1
  11              		.eabi_attribute 18, 4
  12              		.file	"arm_fir_decimate_q31.c"
  13              		.text
  14              	.Ltext0:
  15              		.cfi_sections	.debug_frame
  16              		.section	.text.arm_fir_decimate_q31,"ax",%progbits
  17              		.align	1
  18              		.global	arm_fir_decimate_q31
  19              		.arch armv7e-m
  20              		.syntax unified
  21              		.thumb
  22              		.thumb_func
  23              		.fpu fpv5-d16
  25              	arm_fir_decimate_q31:
  26              	.LFB145:
  27              		.file 1 "./Libraries/CMSIS/DSP/Source/FilteringFunctions/arm_fir_decimate_q31.c"
   1:./Libraries/CMSIS/DSP/Source/FilteringFunctions/arm_fir_decimate_q31.c **** /* ----------------------------------------------------------------------
   2:./Libraries/CMSIS/DSP/Source/FilteringFunctions/arm_fir_decimate_q31.c ****  * Project:      CMSIS DSP Library
   3:./Libraries/CMSIS/DSP/Source/FilteringFunctions/arm_fir_decimate_q31.c ****  * Title:        arm_fir_decimate_q31.c
   4:./Libraries/CMSIS/DSP/Source/FilteringFunctions/arm_fir_decimate_q31.c ****  * Description:  Q31 FIR Decimator
   5:./Libraries/CMSIS/DSP/Source/FilteringFunctions/arm_fir_decimate_q31.c ****  *
   6:./Libraries/CMSIS/DSP/Source/FilteringFunctions/arm_fir_decimate_q31.c ****  * $Date:        18. March 2019
   7:./Libraries/CMSIS/DSP/Source/FilteringFunctions/arm_fir_decimate_q31.c ****  * $Revision:    V1.6.0
   8:./Libraries/CMSIS/DSP/Source/FilteringFunctions/arm_fir_decimate_q31.c ****  *
   9:./Libraries/CMSIS/DSP/Source/FilteringFunctions/arm_fir_decimate_q31.c ****  * Target Processor: Cortex-M cores
  10:./Libraries/CMSIS/DSP/Source/FilteringFunctions/arm_fir_decimate_q31.c ****  * -------------------------------------------------------------------- */
  11:./Libraries/CMSIS/DSP/Source/FilteringFunctions/arm_fir_decimate_q31.c **** /*
  12:./Libraries/CMSIS/DSP/Source/FilteringFunctions/arm_fir_decimate_q31.c ****  * Copyright (C) 2010-2019 ARM Limited or its affiliates. All rights reserved.
  13:./Libraries/CMSIS/DSP/Source/FilteringFunctions/arm_fir_decimate_q31.c ****  *
  14:./Libraries/CMSIS/DSP/Source/FilteringFunctions/arm_fir_decimate_q31.c ****  * SPDX-License-Identifier: Apache-2.0
  15:./Libraries/CMSIS/DSP/Source/FilteringFunctions/arm_fir_decimate_q31.c ****  *
  16:./Libraries/CMSIS/DSP/Source/FilteringFunctions/arm_fir_decimate_q31.c ****  * Licensed under the Apache License, Version 2.0 (the License); you may
  17:./Libraries/CMSIS/DSP/Source/FilteringFunctions/arm_fir_decimate_q31.c ****  * not use this file except in compliance with the License.
  18:./Libraries/CMSIS/DSP/Source/FilteringFunctions/arm_fir_decimate_q31.c ****  * You may obtain a copy of the License at
  19:./Libraries/CMSIS/DSP/Source/FilteringFunctions/arm_fir_decimate_q31.c ****  *
  20:./Libraries/CMSIS/DSP/Source/FilteringFunctions/arm_fir_decimate_q31.c ****  * www.apache.org/licenses/LICENSE-2.0
  21:./Libraries/CMSIS/DSP/Source/FilteringFunctions/arm_fir_decimate_q31.c ****  *
  22:./Libraries/CMSIS/DSP/Source/FilteringFunctions/arm_fir_decimate_q31.c ****  * Unless required by applicable law or agreed to in writing, software
  23:./Libraries/CMSIS/DSP/Source/FilteringFunctions/arm_fir_decimate_q31.c ****  * distributed under the License is distributed on an AS IS BASIS, WITHOUT
  24:./Libraries/CMSIS/DSP/Source/FilteringFunctions/arm_fir_decimate_q31.c ****  * WARRANTIES OR CONDITIONS OF ANY KIND, either express or implied.
  25:./Libraries/CMSIS/DSP/Source/FilteringFunctions/arm_fir_decimate_q31.c ****  * See the License for the specific language governing permissions and
  26:./Libraries/CMSIS/DSP/Source/FilteringFunctions/arm_fir_decimate_q31.c ****  * limitations under the License.
  27:./Libraries/CMSIS/DSP/Source/FilteringFunctions/arm_fir_decimate_q31.c ****  */
  28:./Libraries/CMSIS/DSP/Source/FilteringFunctions/arm_fir_decimate_q31.c **** 
  29:./Libraries/CMSIS/DSP/Source/FilteringFunctions/arm_fir_decimate_q31.c **** #include "arm_math.h"
  30:./Libraries/CMSIS/DSP/Source/FilteringFunctions/arm_fir_decimate_q31.c **** 
  31:./Libraries/CMSIS/DSP/Source/FilteringFunctions/arm_fir_decimate_q31.c **** /**
ARM GAS  /tmp/ccCFWeUi.s 			page 2


  32:./Libraries/CMSIS/DSP/Source/FilteringFunctions/arm_fir_decimate_q31.c ****   @ingroup groupFilters
  33:./Libraries/CMSIS/DSP/Source/FilteringFunctions/arm_fir_decimate_q31.c ****  */
  34:./Libraries/CMSIS/DSP/Source/FilteringFunctions/arm_fir_decimate_q31.c **** 
  35:./Libraries/CMSIS/DSP/Source/FilteringFunctions/arm_fir_decimate_q31.c **** /**
  36:./Libraries/CMSIS/DSP/Source/FilteringFunctions/arm_fir_decimate_q31.c ****   @addtogroup FIR_decimate
  37:./Libraries/CMSIS/DSP/Source/FilteringFunctions/arm_fir_decimate_q31.c ****   @{
  38:./Libraries/CMSIS/DSP/Source/FilteringFunctions/arm_fir_decimate_q31.c ****  */
  39:./Libraries/CMSIS/DSP/Source/FilteringFunctions/arm_fir_decimate_q31.c **** 
  40:./Libraries/CMSIS/DSP/Source/FilteringFunctions/arm_fir_decimate_q31.c **** /**
  41:./Libraries/CMSIS/DSP/Source/FilteringFunctions/arm_fir_decimate_q31.c ****   @brief         Processing function for the Q31 FIR decimator.
  42:./Libraries/CMSIS/DSP/Source/FilteringFunctions/arm_fir_decimate_q31.c ****   @param[in]     S          points to an instance of the Q31 FIR decimator structure
  43:./Libraries/CMSIS/DSP/Source/FilteringFunctions/arm_fir_decimate_q31.c ****   @param[in]     pSrc       points to the block of input data
  44:./Libraries/CMSIS/DSP/Source/FilteringFunctions/arm_fir_decimate_q31.c ****   @param[out]    pDst       points to the block of output data
  45:./Libraries/CMSIS/DSP/Source/FilteringFunctions/arm_fir_decimate_q31.c ****   @param[in]     blockSize  number of samples to process
  46:./Libraries/CMSIS/DSP/Source/FilteringFunctions/arm_fir_decimate_q31.c ****   @return        none
  47:./Libraries/CMSIS/DSP/Source/FilteringFunctions/arm_fir_decimate_q31.c **** 
  48:./Libraries/CMSIS/DSP/Source/FilteringFunctions/arm_fir_decimate_q31.c ****   @par           Scaling and Overflow Behavior
  49:./Libraries/CMSIS/DSP/Source/FilteringFunctions/arm_fir_decimate_q31.c ****                    The function is implemented using an internal 64-bit accumulator.
  50:./Libraries/CMSIS/DSP/Source/FilteringFunctions/arm_fir_decimate_q31.c ****                    The accumulator has a 2.62 format and maintains full precision of the intermedia
  51:./Libraries/CMSIS/DSP/Source/FilteringFunctions/arm_fir_decimate_q31.c ****                    Thus, if the accumulator result overflows it wraps around rather than clip.
  52:./Libraries/CMSIS/DSP/Source/FilteringFunctions/arm_fir_decimate_q31.c ****                    In order to avoid overflows completely the input signal must be scaled down by l
  53:./Libraries/CMSIS/DSP/Source/FilteringFunctions/arm_fir_decimate_q31.c ****                    After all multiply-accumulates are performed, the 2.62 accumulator is truncated 
  54:./Libraries/CMSIS/DSP/Source/FilteringFunctions/arm_fir_decimate_q31.c **** 
  55:./Libraries/CMSIS/DSP/Source/FilteringFunctions/arm_fir_decimate_q31.c ****  @remark
  56:./Libraries/CMSIS/DSP/Source/FilteringFunctions/arm_fir_decimate_q31.c ****                    Refer to \ref arm_fir_decimate_fast_q31() for a faster but less precise implemen
  57:./Libraries/CMSIS/DSP/Source/FilteringFunctions/arm_fir_decimate_q31.c ****  */
  58:./Libraries/CMSIS/DSP/Source/FilteringFunctions/arm_fir_decimate_q31.c **** 
  59:./Libraries/CMSIS/DSP/Source/FilteringFunctions/arm_fir_decimate_q31.c **** void arm_fir_decimate_q31(
  60:./Libraries/CMSIS/DSP/Source/FilteringFunctions/arm_fir_decimate_q31.c ****   const arm_fir_decimate_instance_q31 * S,
  61:./Libraries/CMSIS/DSP/Source/FilteringFunctions/arm_fir_decimate_q31.c ****   const q31_t * pSrc,
  62:./Libraries/CMSIS/DSP/Source/FilteringFunctions/arm_fir_decimate_q31.c ****         q31_t * pDst,
  63:./Libraries/CMSIS/DSP/Source/FilteringFunctions/arm_fir_decimate_q31.c ****         uint32_t blockSize)
  64:./Libraries/CMSIS/DSP/Source/FilteringFunctions/arm_fir_decimate_q31.c **** {
  28              		.loc 1 64 1
  29              		.cfi_startproc
  30              		@ args = 0, pretend = 0, frame = 72
  31              		@ frame_needed = 1, uses_anonymous_args = 0
  32              		@ link register save eliminated.
  33 0000 F0B4     		push	{r4, r5, r6, r7}
  34              	.LCFI0:
  35              		.cfi_def_cfa_offset 16
  36              		.cfi_offset 4, -16
  37              		.cfi_offset 5, -12
  38              		.cfi_offset 6, -8
  39              		.cfi_offset 7, -4
  40 0002 92B0     		sub	sp, sp, #72
  41              	.LCFI1:
  42              		.cfi_def_cfa_offset 88
  43 0004 00AF     		add	r7, sp, #0
  44              	.LCFI2:
  45              		.cfi_def_cfa_register 7
  46 0006 F860     		str	r0, [r7, #12]
  47 0008 B960     		str	r1, [r7, #8]
  48 000a 7A60     		str	r2, [r7, #4]
  49 000c 3B60     		str	r3, [r7]
  65:./Libraries/CMSIS/DSP/Source/FilteringFunctions/arm_fir_decimate_q31.c ****         q31_t *pState = S->pState;                     /* State pointer */
  50              		.loc 1 65 16
ARM GAS  /tmp/ccCFWeUi.s 			page 3


  51 000e FB68     		ldr	r3, [r7, #12]
  52 0010 9B68     		ldr	r3, [r3, #8]
  53 0012 7B64     		str	r3, [r7, #68]
  66:./Libraries/CMSIS/DSP/Source/FilteringFunctions/arm_fir_decimate_q31.c ****   const q31_t *pCoeffs = S->pCoeffs;                   /* Coefficient pointer */
  54              		.loc 1 66 16
  55 0014 FB68     		ldr	r3, [r7, #12]
  56 0016 5B68     		ldr	r3, [r3, #4]
  57 0018 3B62     		str	r3, [r7, #32]
  67:./Libraries/CMSIS/DSP/Source/FilteringFunctions/arm_fir_decimate_q31.c ****         q31_t *pStateCur;                              /* Points to the current sample of the state
  68:./Libraries/CMSIS/DSP/Source/FilteringFunctions/arm_fir_decimate_q31.c ****         q31_t *px0;                                    /* Temporary pointer for state buffer */
  69:./Libraries/CMSIS/DSP/Source/FilteringFunctions/arm_fir_decimate_q31.c ****   const q31_t *pb;                                     /* Temporary pointer for coefficient buffer 
  70:./Libraries/CMSIS/DSP/Source/FilteringFunctions/arm_fir_decimate_q31.c ****         q31_t x0, c0;                                  /* Temporary variables to hold state and coe
  71:./Libraries/CMSIS/DSP/Source/FilteringFunctions/arm_fir_decimate_q31.c ****         q63_t acc0;                                    /* Accumulator */
  72:./Libraries/CMSIS/DSP/Source/FilteringFunctions/arm_fir_decimate_q31.c ****         uint32_t numTaps = S->numTaps;                 /* Number of filter coefficients in the filt
  58              		.loc 1 72 29
  59 001a FB68     		ldr	r3, [r7, #12]
  60 001c 5B88     		ldrh	r3, [r3, #2]
  61              		.loc 1 72 18
  62 001e FB61     		str	r3, [r7, #28]
  73:./Libraries/CMSIS/DSP/Source/FilteringFunctions/arm_fir_decimate_q31.c ****         uint32_t i, tapCnt, blkCnt, outBlockSize = blockSize / S->M;  /* Loop counters */
  63              		.loc 1 73 65
  64 0020 FB68     		ldr	r3, [r7, #12]
  65 0022 1B78     		ldrb	r3, [r3]	@ zero_extendqisi2
  66 0024 1A46     		mov	r2, r3
  67              		.loc 1 73 37
  68 0026 3B68     		ldr	r3, [r7]
  69 0028 B3FBF2F3 		udiv	r3, r3, r2
  70 002c BB61     		str	r3, [r7, #24]
  74:./Libraries/CMSIS/DSP/Source/FilteringFunctions/arm_fir_decimate_q31.c **** 
  75:./Libraries/CMSIS/DSP/Source/FilteringFunctions/arm_fir_decimate_q31.c **** #if defined (ARM_MATH_LOOPUNROLL)
  76:./Libraries/CMSIS/DSP/Source/FilteringFunctions/arm_fir_decimate_q31.c ****         q31_t *px1, *px2, *px3;
  77:./Libraries/CMSIS/DSP/Source/FilteringFunctions/arm_fir_decimate_q31.c ****         q31_t x1, x2, x3;
  78:./Libraries/CMSIS/DSP/Source/FilteringFunctions/arm_fir_decimate_q31.c ****         q63_t acc1, acc2, acc3;
  79:./Libraries/CMSIS/DSP/Source/FilteringFunctions/arm_fir_decimate_q31.c **** #endif
  80:./Libraries/CMSIS/DSP/Source/FilteringFunctions/arm_fir_decimate_q31.c **** 
  81:./Libraries/CMSIS/DSP/Source/FilteringFunctions/arm_fir_decimate_q31.c ****   /* S->pState buffer contains previous frame (numTaps - 1) samples */
  82:./Libraries/CMSIS/DSP/Source/FilteringFunctions/arm_fir_decimate_q31.c ****   /* pStateCur points to the location where the new input data should be written */
  83:./Libraries/CMSIS/DSP/Source/FilteringFunctions/arm_fir_decimate_q31.c ****   pStateCur = S->pState + (numTaps - 1U);
  71              		.loc 1 83 16
  72 002e FB68     		ldr	r3, [r7, #12]
  73 0030 9A68     		ldr	r2, [r3, #8]
  74              		.loc 1 83 25
  75 0032 F969     		ldr	r1, [r7, #28]
  76 0034 6FF04043 		mvn	r3, #-1073741824
  77 0038 0B44     		add	r3, r3, r1
  78 003a 9B00     		lsls	r3, r3, #2
  79              		.loc 1 83 13
  80 003c 1344     		add	r3, r3, r2
  81 003e 3B64     		str	r3, [r7, #64]
  84:./Libraries/CMSIS/DSP/Source/FilteringFunctions/arm_fir_decimate_q31.c **** 
  85:./Libraries/CMSIS/DSP/Source/FilteringFunctions/arm_fir_decimate_q31.c **** #if defined (ARM_MATH_LOOPUNROLL)
  86:./Libraries/CMSIS/DSP/Source/FilteringFunctions/arm_fir_decimate_q31.c **** 
  87:./Libraries/CMSIS/DSP/Source/FilteringFunctions/arm_fir_decimate_q31.c ****     /* Loop unrolling: Compute 4 samples at a time */
  88:./Libraries/CMSIS/DSP/Source/FilteringFunctions/arm_fir_decimate_q31.c ****   blkCnt = outBlockSize >> 2U;
  89:./Libraries/CMSIS/DSP/Source/FilteringFunctions/arm_fir_decimate_q31.c **** 
  90:./Libraries/CMSIS/DSP/Source/FilteringFunctions/arm_fir_decimate_q31.c ****   /* Samples loop unrolled by 4 */
  91:./Libraries/CMSIS/DSP/Source/FilteringFunctions/arm_fir_decimate_q31.c ****   while (blkCnt > 0U)
ARM GAS  /tmp/ccCFWeUi.s 			page 4


  92:./Libraries/CMSIS/DSP/Source/FilteringFunctions/arm_fir_decimate_q31.c ****   {
  93:./Libraries/CMSIS/DSP/Source/FilteringFunctions/arm_fir_decimate_q31.c ****     /* Copy 4 * decimation factor number of new input samples into the state buffer */
  94:./Libraries/CMSIS/DSP/Source/FilteringFunctions/arm_fir_decimate_q31.c ****     i = S->M * 4;
  95:./Libraries/CMSIS/DSP/Source/FilteringFunctions/arm_fir_decimate_q31.c **** 
  96:./Libraries/CMSIS/DSP/Source/FilteringFunctions/arm_fir_decimate_q31.c ****     do
  97:./Libraries/CMSIS/DSP/Source/FilteringFunctions/arm_fir_decimate_q31.c ****     {
  98:./Libraries/CMSIS/DSP/Source/FilteringFunctions/arm_fir_decimate_q31.c ****       *pStateCur++ = *pSrc++;
  99:./Libraries/CMSIS/DSP/Source/FilteringFunctions/arm_fir_decimate_q31.c **** 
 100:./Libraries/CMSIS/DSP/Source/FilteringFunctions/arm_fir_decimate_q31.c ****     } while (--i);
 101:./Libraries/CMSIS/DSP/Source/FilteringFunctions/arm_fir_decimate_q31.c **** 
 102:./Libraries/CMSIS/DSP/Source/FilteringFunctions/arm_fir_decimate_q31.c ****     /* Set accumulators to zero */
 103:./Libraries/CMSIS/DSP/Source/FilteringFunctions/arm_fir_decimate_q31.c ****     acc0 = 0;
 104:./Libraries/CMSIS/DSP/Source/FilteringFunctions/arm_fir_decimate_q31.c ****     acc1 = 0;
 105:./Libraries/CMSIS/DSP/Source/FilteringFunctions/arm_fir_decimate_q31.c ****     acc2 = 0;
 106:./Libraries/CMSIS/DSP/Source/FilteringFunctions/arm_fir_decimate_q31.c ****     acc3 = 0;
 107:./Libraries/CMSIS/DSP/Source/FilteringFunctions/arm_fir_decimate_q31.c **** 
 108:./Libraries/CMSIS/DSP/Source/FilteringFunctions/arm_fir_decimate_q31.c ****     /* Initialize state pointer for all the samples */
 109:./Libraries/CMSIS/DSP/Source/FilteringFunctions/arm_fir_decimate_q31.c ****     px0 = pState;
 110:./Libraries/CMSIS/DSP/Source/FilteringFunctions/arm_fir_decimate_q31.c ****     px1 = pState + S->M;
 111:./Libraries/CMSIS/DSP/Source/FilteringFunctions/arm_fir_decimate_q31.c ****     px2 = pState + 2 * S->M;
 112:./Libraries/CMSIS/DSP/Source/FilteringFunctions/arm_fir_decimate_q31.c ****     px3 = pState + 3 * S->M;
 113:./Libraries/CMSIS/DSP/Source/FilteringFunctions/arm_fir_decimate_q31.c **** 
 114:./Libraries/CMSIS/DSP/Source/FilteringFunctions/arm_fir_decimate_q31.c ****     /* Initialize coeff pointer */
 115:./Libraries/CMSIS/DSP/Source/FilteringFunctions/arm_fir_decimate_q31.c ****     pb = pCoeffs;
 116:./Libraries/CMSIS/DSP/Source/FilteringFunctions/arm_fir_decimate_q31.c **** 
 117:./Libraries/CMSIS/DSP/Source/FilteringFunctions/arm_fir_decimate_q31.c ****     /* Loop unrolling: Compute 4 taps at a time */
 118:./Libraries/CMSIS/DSP/Source/FilteringFunctions/arm_fir_decimate_q31.c ****     tapCnt = numTaps >> 2U;
 119:./Libraries/CMSIS/DSP/Source/FilteringFunctions/arm_fir_decimate_q31.c **** 
 120:./Libraries/CMSIS/DSP/Source/FilteringFunctions/arm_fir_decimate_q31.c ****     while (tapCnt > 0U)
 121:./Libraries/CMSIS/DSP/Source/FilteringFunctions/arm_fir_decimate_q31.c ****     {
 122:./Libraries/CMSIS/DSP/Source/FilteringFunctions/arm_fir_decimate_q31.c ****       /* Read the b[numTaps-1] coefficient */
 123:./Libraries/CMSIS/DSP/Source/FilteringFunctions/arm_fir_decimate_q31.c ****       c0 = *(pb++);
 124:./Libraries/CMSIS/DSP/Source/FilteringFunctions/arm_fir_decimate_q31.c **** 
 125:./Libraries/CMSIS/DSP/Source/FilteringFunctions/arm_fir_decimate_q31.c ****       /* Read x[n-numTaps-1] sample for acc0 */
 126:./Libraries/CMSIS/DSP/Source/FilteringFunctions/arm_fir_decimate_q31.c ****       x0 = *(px0++);
 127:./Libraries/CMSIS/DSP/Source/FilteringFunctions/arm_fir_decimate_q31.c ****       /* Read x[n-numTaps-1] sample for acc1 */
 128:./Libraries/CMSIS/DSP/Source/FilteringFunctions/arm_fir_decimate_q31.c ****       x1 = *(px1++);
 129:./Libraries/CMSIS/DSP/Source/FilteringFunctions/arm_fir_decimate_q31.c ****       /* Read x[n-numTaps-1] sample for acc2 */
 130:./Libraries/CMSIS/DSP/Source/FilteringFunctions/arm_fir_decimate_q31.c ****       x2 = *(px2++);
 131:./Libraries/CMSIS/DSP/Source/FilteringFunctions/arm_fir_decimate_q31.c ****       /* Read x[n-numTaps-1] sample for acc3 */
 132:./Libraries/CMSIS/DSP/Source/FilteringFunctions/arm_fir_decimate_q31.c ****       x3 = *(px3++);
 133:./Libraries/CMSIS/DSP/Source/FilteringFunctions/arm_fir_decimate_q31.c **** 
 134:./Libraries/CMSIS/DSP/Source/FilteringFunctions/arm_fir_decimate_q31.c ****       /* Perform the multiply-accumulate */
 135:./Libraries/CMSIS/DSP/Source/FilteringFunctions/arm_fir_decimate_q31.c ****       acc0 += (q63_t) x0 * c0;
 136:./Libraries/CMSIS/DSP/Source/FilteringFunctions/arm_fir_decimate_q31.c ****       acc1 += (q63_t) x1 * c0;
 137:./Libraries/CMSIS/DSP/Source/FilteringFunctions/arm_fir_decimate_q31.c ****       acc2 += (q63_t) x2 * c0;
 138:./Libraries/CMSIS/DSP/Source/FilteringFunctions/arm_fir_decimate_q31.c ****       acc3 += (q63_t) x3 * c0;
 139:./Libraries/CMSIS/DSP/Source/FilteringFunctions/arm_fir_decimate_q31.c **** 
 140:./Libraries/CMSIS/DSP/Source/FilteringFunctions/arm_fir_decimate_q31.c ****       /* Read the b[numTaps-2] coefficient */
 141:./Libraries/CMSIS/DSP/Source/FilteringFunctions/arm_fir_decimate_q31.c ****       c0 = *(pb++);
 142:./Libraries/CMSIS/DSP/Source/FilteringFunctions/arm_fir_decimate_q31.c **** 
 143:./Libraries/CMSIS/DSP/Source/FilteringFunctions/arm_fir_decimate_q31.c ****       /* Read x[n-numTaps-2] sample for acc0, acc1, acc2, acc3 */
 144:./Libraries/CMSIS/DSP/Source/FilteringFunctions/arm_fir_decimate_q31.c ****       x0 = *(px0++);
 145:./Libraries/CMSIS/DSP/Source/FilteringFunctions/arm_fir_decimate_q31.c ****       x1 = *(px1++);
 146:./Libraries/CMSIS/DSP/Source/FilteringFunctions/arm_fir_decimate_q31.c ****       x2 = *(px2++);
 147:./Libraries/CMSIS/DSP/Source/FilteringFunctions/arm_fir_decimate_q31.c ****       x3 = *(px3++);
 148:./Libraries/CMSIS/DSP/Source/FilteringFunctions/arm_fir_decimate_q31.c **** 
ARM GAS  /tmp/ccCFWeUi.s 			page 5


 149:./Libraries/CMSIS/DSP/Source/FilteringFunctions/arm_fir_decimate_q31.c ****       /* Perform the multiply-accumulate */
 150:./Libraries/CMSIS/DSP/Source/FilteringFunctions/arm_fir_decimate_q31.c ****       acc0 += (q63_t) x0 * c0;
 151:./Libraries/CMSIS/DSP/Source/FilteringFunctions/arm_fir_decimate_q31.c ****       acc1 += (q63_t) x1 * c0;
 152:./Libraries/CMSIS/DSP/Source/FilteringFunctions/arm_fir_decimate_q31.c ****       acc2 += (q63_t) x2 * c0;
 153:./Libraries/CMSIS/DSP/Source/FilteringFunctions/arm_fir_decimate_q31.c ****       acc3 += (q63_t) x3 * c0;
 154:./Libraries/CMSIS/DSP/Source/FilteringFunctions/arm_fir_decimate_q31.c **** 
 155:./Libraries/CMSIS/DSP/Source/FilteringFunctions/arm_fir_decimate_q31.c ****       /* Read the b[numTaps-3] coefficient */
 156:./Libraries/CMSIS/DSP/Source/FilteringFunctions/arm_fir_decimate_q31.c ****       c0 = *(pb++);
 157:./Libraries/CMSIS/DSP/Source/FilteringFunctions/arm_fir_decimate_q31.c **** 
 158:./Libraries/CMSIS/DSP/Source/FilteringFunctions/arm_fir_decimate_q31.c ****       /* Read x[n-numTaps-3] sample acc0, acc1, acc2, acc3 */
 159:./Libraries/CMSIS/DSP/Source/FilteringFunctions/arm_fir_decimate_q31.c ****       x0 = *(px0++);
 160:./Libraries/CMSIS/DSP/Source/FilteringFunctions/arm_fir_decimate_q31.c ****       x1 = *(px1++);
 161:./Libraries/CMSIS/DSP/Source/FilteringFunctions/arm_fir_decimate_q31.c ****       x2 = *(px2++);
 162:./Libraries/CMSIS/DSP/Source/FilteringFunctions/arm_fir_decimate_q31.c ****       x3 = *(px3++);
 163:./Libraries/CMSIS/DSP/Source/FilteringFunctions/arm_fir_decimate_q31.c **** 
 164:./Libraries/CMSIS/DSP/Source/FilteringFunctions/arm_fir_decimate_q31.c ****       /* Perform the multiply-accumulate */
 165:./Libraries/CMSIS/DSP/Source/FilteringFunctions/arm_fir_decimate_q31.c ****       acc0 += (q63_t) x0 * c0;
 166:./Libraries/CMSIS/DSP/Source/FilteringFunctions/arm_fir_decimate_q31.c ****       acc1 += (q63_t) x1 * c0;
 167:./Libraries/CMSIS/DSP/Source/FilteringFunctions/arm_fir_decimate_q31.c ****       acc2 += (q63_t) x2 * c0;
 168:./Libraries/CMSIS/DSP/Source/FilteringFunctions/arm_fir_decimate_q31.c ****       acc3 += (q63_t) x3 * c0;
 169:./Libraries/CMSIS/DSP/Source/FilteringFunctions/arm_fir_decimate_q31.c **** 
 170:./Libraries/CMSIS/DSP/Source/FilteringFunctions/arm_fir_decimate_q31.c ****       /* Read the b[numTaps-4] coefficient */
 171:./Libraries/CMSIS/DSP/Source/FilteringFunctions/arm_fir_decimate_q31.c ****       c0 = *(pb++);
 172:./Libraries/CMSIS/DSP/Source/FilteringFunctions/arm_fir_decimate_q31.c **** 
 173:./Libraries/CMSIS/DSP/Source/FilteringFunctions/arm_fir_decimate_q31.c ****       /* Read x[n-numTaps-4] sample acc0, acc1, acc2, acc3 */
 174:./Libraries/CMSIS/DSP/Source/FilteringFunctions/arm_fir_decimate_q31.c ****       x0 = *(px0++);
 175:./Libraries/CMSIS/DSP/Source/FilteringFunctions/arm_fir_decimate_q31.c ****       x1 = *(px1++);
 176:./Libraries/CMSIS/DSP/Source/FilteringFunctions/arm_fir_decimate_q31.c ****       x2 = *(px2++);
 177:./Libraries/CMSIS/DSP/Source/FilteringFunctions/arm_fir_decimate_q31.c ****       x3 = *(px3++);
 178:./Libraries/CMSIS/DSP/Source/FilteringFunctions/arm_fir_decimate_q31.c **** 
 179:./Libraries/CMSIS/DSP/Source/FilteringFunctions/arm_fir_decimate_q31.c ****       /* Perform the multiply-accumulate */
 180:./Libraries/CMSIS/DSP/Source/FilteringFunctions/arm_fir_decimate_q31.c ****       acc0 += (q63_t) x0 * c0;
 181:./Libraries/CMSIS/DSP/Source/FilteringFunctions/arm_fir_decimate_q31.c ****       acc1 += (q63_t) x1 * c0;
 182:./Libraries/CMSIS/DSP/Source/FilteringFunctions/arm_fir_decimate_q31.c ****       acc2 += (q63_t) x2 * c0;
 183:./Libraries/CMSIS/DSP/Source/FilteringFunctions/arm_fir_decimate_q31.c ****       acc3 += (q63_t) x3 * c0;
 184:./Libraries/CMSIS/DSP/Source/FilteringFunctions/arm_fir_decimate_q31.c **** 
 185:./Libraries/CMSIS/DSP/Source/FilteringFunctions/arm_fir_decimate_q31.c ****       /* Decrement loop counter */
 186:./Libraries/CMSIS/DSP/Source/FilteringFunctions/arm_fir_decimate_q31.c ****       tapCnt--;
 187:./Libraries/CMSIS/DSP/Source/FilteringFunctions/arm_fir_decimate_q31.c ****     }
 188:./Libraries/CMSIS/DSP/Source/FilteringFunctions/arm_fir_decimate_q31.c **** 
 189:./Libraries/CMSIS/DSP/Source/FilteringFunctions/arm_fir_decimate_q31.c ****     /* Loop unrolling: Compute remaining taps */
 190:./Libraries/CMSIS/DSP/Source/FilteringFunctions/arm_fir_decimate_q31.c ****     tapCnt = numTaps % 0x4U;
 191:./Libraries/CMSIS/DSP/Source/FilteringFunctions/arm_fir_decimate_q31.c **** 
 192:./Libraries/CMSIS/DSP/Source/FilteringFunctions/arm_fir_decimate_q31.c ****     while (tapCnt > 0U)
 193:./Libraries/CMSIS/DSP/Source/FilteringFunctions/arm_fir_decimate_q31.c ****     {
 194:./Libraries/CMSIS/DSP/Source/FilteringFunctions/arm_fir_decimate_q31.c ****       /* Read coefficients */
 195:./Libraries/CMSIS/DSP/Source/FilteringFunctions/arm_fir_decimate_q31.c ****       c0 = *(pb++);
 196:./Libraries/CMSIS/DSP/Source/FilteringFunctions/arm_fir_decimate_q31.c **** 
 197:./Libraries/CMSIS/DSP/Source/FilteringFunctions/arm_fir_decimate_q31.c ****       /* Fetch state variables for acc0, acc1, acc2, acc3 */
 198:./Libraries/CMSIS/DSP/Source/FilteringFunctions/arm_fir_decimate_q31.c ****       x0 = *(px0++);
 199:./Libraries/CMSIS/DSP/Source/FilteringFunctions/arm_fir_decimate_q31.c ****       x1 = *(px1++);
 200:./Libraries/CMSIS/DSP/Source/FilteringFunctions/arm_fir_decimate_q31.c ****       x2 = *(px2++);
 201:./Libraries/CMSIS/DSP/Source/FilteringFunctions/arm_fir_decimate_q31.c ****       x3 = *(px3++);
 202:./Libraries/CMSIS/DSP/Source/FilteringFunctions/arm_fir_decimate_q31.c **** 
 203:./Libraries/CMSIS/DSP/Source/FilteringFunctions/arm_fir_decimate_q31.c ****       /* Perform the multiply-accumulate */
 204:./Libraries/CMSIS/DSP/Source/FilteringFunctions/arm_fir_decimate_q31.c ****       acc0 += (q63_t) x0 * c0;
 205:./Libraries/CMSIS/DSP/Source/FilteringFunctions/arm_fir_decimate_q31.c ****       acc1 += (q63_t) x1 * c0;
ARM GAS  /tmp/ccCFWeUi.s 			page 6


 206:./Libraries/CMSIS/DSP/Source/FilteringFunctions/arm_fir_decimate_q31.c ****       acc2 += (q63_t) x2 * c0;
 207:./Libraries/CMSIS/DSP/Source/FilteringFunctions/arm_fir_decimate_q31.c ****       acc3 += (q63_t) x3 * c0;
 208:./Libraries/CMSIS/DSP/Source/FilteringFunctions/arm_fir_decimate_q31.c **** 
 209:./Libraries/CMSIS/DSP/Source/FilteringFunctions/arm_fir_decimate_q31.c ****       /* Decrement loop counter */
 210:./Libraries/CMSIS/DSP/Source/FilteringFunctions/arm_fir_decimate_q31.c ****       tapCnt--;
 211:./Libraries/CMSIS/DSP/Source/FilteringFunctions/arm_fir_decimate_q31.c ****     }
 212:./Libraries/CMSIS/DSP/Source/FilteringFunctions/arm_fir_decimate_q31.c **** 
 213:./Libraries/CMSIS/DSP/Source/FilteringFunctions/arm_fir_decimate_q31.c ****     /* Advance the state pointer by the decimation factor
 214:./Libraries/CMSIS/DSP/Source/FilteringFunctions/arm_fir_decimate_q31.c ****      * to process the next group of decimation factor number samples */
 215:./Libraries/CMSIS/DSP/Source/FilteringFunctions/arm_fir_decimate_q31.c ****     pState = pState + S->M * 4;
 216:./Libraries/CMSIS/DSP/Source/FilteringFunctions/arm_fir_decimate_q31.c **** 
 217:./Libraries/CMSIS/DSP/Source/FilteringFunctions/arm_fir_decimate_q31.c ****     /* The result is in the accumulator, store in the destination buffer. */
 218:./Libraries/CMSIS/DSP/Source/FilteringFunctions/arm_fir_decimate_q31.c ****     *pDst++ = (q31_t) (acc0 >> 31);
 219:./Libraries/CMSIS/DSP/Source/FilteringFunctions/arm_fir_decimate_q31.c ****     *pDst++ = (q31_t) (acc1 >> 31);
 220:./Libraries/CMSIS/DSP/Source/FilteringFunctions/arm_fir_decimate_q31.c ****     *pDst++ = (q31_t) (acc2 >> 31);
 221:./Libraries/CMSIS/DSP/Source/FilteringFunctions/arm_fir_decimate_q31.c ****     *pDst++ = (q31_t) (acc3 >> 31);
 222:./Libraries/CMSIS/DSP/Source/FilteringFunctions/arm_fir_decimate_q31.c **** 
 223:./Libraries/CMSIS/DSP/Source/FilteringFunctions/arm_fir_decimate_q31.c ****     /* Decrement loop counter */
 224:./Libraries/CMSIS/DSP/Source/FilteringFunctions/arm_fir_decimate_q31.c ****     blkCnt--;
 225:./Libraries/CMSIS/DSP/Source/FilteringFunctions/arm_fir_decimate_q31.c ****   }
 226:./Libraries/CMSIS/DSP/Source/FilteringFunctions/arm_fir_decimate_q31.c **** 
 227:./Libraries/CMSIS/DSP/Source/FilteringFunctions/arm_fir_decimate_q31.c ****   /* Loop unrolling: Compute remaining samples */
 228:./Libraries/CMSIS/DSP/Source/FilteringFunctions/arm_fir_decimate_q31.c ****   blkCnt = outBlockSize % 0x4U;
 229:./Libraries/CMSIS/DSP/Source/FilteringFunctions/arm_fir_decimate_q31.c **** 
 230:./Libraries/CMSIS/DSP/Source/FilteringFunctions/arm_fir_decimate_q31.c **** #else
 231:./Libraries/CMSIS/DSP/Source/FilteringFunctions/arm_fir_decimate_q31.c **** 
 232:./Libraries/CMSIS/DSP/Source/FilteringFunctions/arm_fir_decimate_q31.c ****   /* Initialize blkCnt with number of samples */
 233:./Libraries/CMSIS/DSP/Source/FilteringFunctions/arm_fir_decimate_q31.c ****   blkCnt = outBlockSize;
  82              		.loc 1 233 10
  83 0040 BB69     		ldr	r3, [r7, #24]
  84 0042 7B62     		str	r3, [r7, #36]
 234:./Libraries/CMSIS/DSP/Source/FilteringFunctions/arm_fir_decimate_q31.c **** 
 235:./Libraries/CMSIS/DSP/Source/FilteringFunctions/arm_fir_decimate_q31.c **** #endif /* #if defined (ARM_MATH_LOOPUNROLL) */
 236:./Libraries/CMSIS/DSP/Source/FilteringFunctions/arm_fir_decimate_q31.c **** 
 237:./Libraries/CMSIS/DSP/Source/FilteringFunctions/arm_fir_decimate_q31.c ****   while (blkCnt > 0U)
  85              		.loc 1 237 9
  86 0044 5DE0     		b	.L2
  87              	.L6:
 238:./Libraries/CMSIS/DSP/Source/FilteringFunctions/arm_fir_decimate_q31.c ****   {
 239:./Libraries/CMSIS/DSP/Source/FilteringFunctions/arm_fir_decimate_q31.c ****     /* Copy decimation factor number of new input samples into the state buffer */
 240:./Libraries/CMSIS/DSP/Source/FilteringFunctions/arm_fir_decimate_q31.c ****     i = S->M;
  88              		.loc 1 240 10
  89 0046 FB68     		ldr	r3, [r7, #12]
  90 0048 1B78     		ldrb	r3, [r3]	@ zero_extendqisi2
  91              		.loc 1 240 7
  92 004a FB62     		str	r3, [r7, #44]
  93              	.L3:
 241:./Libraries/CMSIS/DSP/Source/FilteringFunctions/arm_fir_decimate_q31.c **** 
 242:./Libraries/CMSIS/DSP/Source/FilteringFunctions/arm_fir_decimate_q31.c ****     do
 243:./Libraries/CMSIS/DSP/Source/FilteringFunctions/arm_fir_decimate_q31.c ****     {
 244:./Libraries/CMSIS/DSP/Source/FilteringFunctions/arm_fir_decimate_q31.c ****       *pStateCur++ = *pSrc++;
  94              		.loc 1 244 27 discriminator 1
  95 004c BA68     		ldr	r2, [r7, #8]
  96 004e 131D     		adds	r3, r2, #4
  97 0050 BB60     		str	r3, [r7, #8]
  98              		.loc 1 244 17 discriminator 1
  99 0052 3B6C     		ldr	r3, [r7, #64]
ARM GAS  /tmp/ccCFWeUi.s 			page 7


 100 0054 191D     		adds	r1, r3, #4
 101 0056 3964     		str	r1, [r7, #64]
 102              		.loc 1 244 22 discriminator 1
 103 0058 1268     		ldr	r2, [r2]
 104              		.loc 1 244 20 discriminator 1
 105 005a 1A60     		str	r2, [r3]
 245:./Libraries/CMSIS/DSP/Source/FilteringFunctions/arm_fir_decimate_q31.c **** 
 246:./Libraries/CMSIS/DSP/Source/FilteringFunctions/arm_fir_decimate_q31.c ****     } while (--i);
 106              		.loc 1 246 5 discriminator 1
 107 005c FB6A     		ldr	r3, [r7, #44]
 108 005e 013B     		subs	r3, r3, #1
 109 0060 FB62     		str	r3, [r7, #44]
 110 0062 FB6A     		ldr	r3, [r7, #44]
 111 0064 002B     		cmp	r3, #0
 112 0066 F1D1     		bne	.L3
 247:./Libraries/CMSIS/DSP/Source/FilteringFunctions/arm_fir_decimate_q31.c **** 
 248:./Libraries/CMSIS/DSP/Source/FilteringFunctions/arm_fir_decimate_q31.c ****     /* Set accumulator to zero */
 249:./Libraries/CMSIS/DSP/Source/FilteringFunctions/arm_fir_decimate_q31.c ****     acc0 = 0;
 113              		.loc 1 249 10
 114 0068 4FF00002 		mov	r2, #0
 115 006c 4FF00003 		mov	r3, #0
 116 0070 C7E90C23 		strd	r2, [r7, #48]
 250:./Libraries/CMSIS/DSP/Source/FilteringFunctions/arm_fir_decimate_q31.c **** 
 251:./Libraries/CMSIS/DSP/Source/FilteringFunctions/arm_fir_decimate_q31.c ****     /* Initialize state pointer */
 252:./Libraries/CMSIS/DSP/Source/FilteringFunctions/arm_fir_decimate_q31.c ****     px0 = pState;
 117              		.loc 1 252 9
 118 0074 7B6C     		ldr	r3, [r7, #68]
 119 0076 FB63     		str	r3, [r7, #60]
 253:./Libraries/CMSIS/DSP/Source/FilteringFunctions/arm_fir_decimate_q31.c **** 
 254:./Libraries/CMSIS/DSP/Source/FilteringFunctions/arm_fir_decimate_q31.c ****     /* Initialize coeff pointer */
 255:./Libraries/CMSIS/DSP/Source/FilteringFunctions/arm_fir_decimate_q31.c ****     pb = pCoeffs;
 120              		.loc 1 255 8
 121 0078 3B6A     		ldr	r3, [r7, #32]
 122 007a BB63     		str	r3, [r7, #56]
 256:./Libraries/CMSIS/DSP/Source/FilteringFunctions/arm_fir_decimate_q31.c **** 
 257:./Libraries/CMSIS/DSP/Source/FilteringFunctions/arm_fir_decimate_q31.c **** #if defined (ARM_MATH_LOOPUNROLL)
 258:./Libraries/CMSIS/DSP/Source/FilteringFunctions/arm_fir_decimate_q31.c **** 
 259:./Libraries/CMSIS/DSP/Source/FilteringFunctions/arm_fir_decimate_q31.c ****     /* Loop unrolling: Compute 4 taps at a time */
 260:./Libraries/CMSIS/DSP/Source/FilteringFunctions/arm_fir_decimate_q31.c ****     tapCnt = numTaps >> 2U;
 261:./Libraries/CMSIS/DSP/Source/FilteringFunctions/arm_fir_decimate_q31.c **** 
 262:./Libraries/CMSIS/DSP/Source/FilteringFunctions/arm_fir_decimate_q31.c ****     while (tapCnt > 0U)
 263:./Libraries/CMSIS/DSP/Source/FilteringFunctions/arm_fir_decimate_q31.c ****     {
 264:./Libraries/CMSIS/DSP/Source/FilteringFunctions/arm_fir_decimate_q31.c ****       /* Read the b[numTaps-1] coefficient */
 265:./Libraries/CMSIS/DSP/Source/FilteringFunctions/arm_fir_decimate_q31.c ****       c0 = *pb++;
 266:./Libraries/CMSIS/DSP/Source/FilteringFunctions/arm_fir_decimate_q31.c **** 
 267:./Libraries/CMSIS/DSP/Source/FilteringFunctions/arm_fir_decimate_q31.c ****       /* Read x[n-numTaps-1] sample */
 268:./Libraries/CMSIS/DSP/Source/FilteringFunctions/arm_fir_decimate_q31.c ****       x0 = *px0++;
 269:./Libraries/CMSIS/DSP/Source/FilteringFunctions/arm_fir_decimate_q31.c **** 
 270:./Libraries/CMSIS/DSP/Source/FilteringFunctions/arm_fir_decimate_q31.c ****       /* Perform the multiply-accumulate */
 271:./Libraries/CMSIS/DSP/Source/FilteringFunctions/arm_fir_decimate_q31.c ****       acc0 += (q63_t) x0 * c0;
 272:./Libraries/CMSIS/DSP/Source/FilteringFunctions/arm_fir_decimate_q31.c **** 
 273:./Libraries/CMSIS/DSP/Source/FilteringFunctions/arm_fir_decimate_q31.c ****       /* Read the b[numTaps-2] coefficient */
 274:./Libraries/CMSIS/DSP/Source/FilteringFunctions/arm_fir_decimate_q31.c ****       c0 = *pb++;
 275:./Libraries/CMSIS/DSP/Source/FilteringFunctions/arm_fir_decimate_q31.c **** 
 276:./Libraries/CMSIS/DSP/Source/FilteringFunctions/arm_fir_decimate_q31.c ****       /* Read x[n-numTaps-2] sample */
 277:./Libraries/CMSIS/DSP/Source/FilteringFunctions/arm_fir_decimate_q31.c ****       x0 = *px0++;
 278:./Libraries/CMSIS/DSP/Source/FilteringFunctions/arm_fir_decimate_q31.c **** 
ARM GAS  /tmp/ccCFWeUi.s 			page 8


 279:./Libraries/CMSIS/DSP/Source/FilteringFunctions/arm_fir_decimate_q31.c ****       /* Perform the multiply-accumulate */
 280:./Libraries/CMSIS/DSP/Source/FilteringFunctions/arm_fir_decimate_q31.c ****       acc0 += (q63_t) x0 * c0;
 281:./Libraries/CMSIS/DSP/Source/FilteringFunctions/arm_fir_decimate_q31.c **** 
 282:./Libraries/CMSIS/DSP/Source/FilteringFunctions/arm_fir_decimate_q31.c ****       /* Read the b[numTaps-3] coefficient */
 283:./Libraries/CMSIS/DSP/Source/FilteringFunctions/arm_fir_decimate_q31.c ****       c0 = *pb++;
 284:./Libraries/CMSIS/DSP/Source/FilteringFunctions/arm_fir_decimate_q31.c **** 
 285:./Libraries/CMSIS/DSP/Source/FilteringFunctions/arm_fir_decimate_q31.c ****       /* Read x[n-numTaps-3] sample */
 286:./Libraries/CMSIS/DSP/Source/FilteringFunctions/arm_fir_decimate_q31.c ****       x0 = *px0++;
 287:./Libraries/CMSIS/DSP/Source/FilteringFunctions/arm_fir_decimate_q31.c **** 
 288:./Libraries/CMSIS/DSP/Source/FilteringFunctions/arm_fir_decimate_q31.c ****       /* Perform the multiply-accumulate */
 289:./Libraries/CMSIS/DSP/Source/FilteringFunctions/arm_fir_decimate_q31.c ****       acc0 += (q63_t) x0 * c0;
 290:./Libraries/CMSIS/DSP/Source/FilteringFunctions/arm_fir_decimate_q31.c **** 
 291:./Libraries/CMSIS/DSP/Source/FilteringFunctions/arm_fir_decimate_q31.c ****       /* Read the b[numTaps-4] coefficient */
 292:./Libraries/CMSIS/DSP/Source/FilteringFunctions/arm_fir_decimate_q31.c ****       c0 = *pb++;
 293:./Libraries/CMSIS/DSP/Source/FilteringFunctions/arm_fir_decimate_q31.c **** 
 294:./Libraries/CMSIS/DSP/Source/FilteringFunctions/arm_fir_decimate_q31.c ****       /* Read x[n-numTaps-4] sample */
 295:./Libraries/CMSIS/DSP/Source/FilteringFunctions/arm_fir_decimate_q31.c ****       x0 = *px0++;
 296:./Libraries/CMSIS/DSP/Source/FilteringFunctions/arm_fir_decimate_q31.c **** 
 297:./Libraries/CMSIS/DSP/Source/FilteringFunctions/arm_fir_decimate_q31.c ****       /* Perform the multiply-accumulate */
 298:./Libraries/CMSIS/DSP/Source/FilteringFunctions/arm_fir_decimate_q31.c ****       acc0 += (q63_t) x0 * c0;
 299:./Libraries/CMSIS/DSP/Source/FilteringFunctions/arm_fir_decimate_q31.c **** 
 300:./Libraries/CMSIS/DSP/Source/FilteringFunctions/arm_fir_decimate_q31.c ****       /* Decrement loop counter */
 301:./Libraries/CMSIS/DSP/Source/FilteringFunctions/arm_fir_decimate_q31.c ****       tapCnt--;
 302:./Libraries/CMSIS/DSP/Source/FilteringFunctions/arm_fir_decimate_q31.c ****     }
 303:./Libraries/CMSIS/DSP/Source/FilteringFunctions/arm_fir_decimate_q31.c **** 
 304:./Libraries/CMSIS/DSP/Source/FilteringFunctions/arm_fir_decimate_q31.c ****     /* Loop unrolling: Compute remaining taps */
 305:./Libraries/CMSIS/DSP/Source/FilteringFunctions/arm_fir_decimate_q31.c ****     tapCnt = numTaps % 0x4U;
 306:./Libraries/CMSIS/DSP/Source/FilteringFunctions/arm_fir_decimate_q31.c **** 
 307:./Libraries/CMSIS/DSP/Source/FilteringFunctions/arm_fir_decimate_q31.c **** #else
 308:./Libraries/CMSIS/DSP/Source/FilteringFunctions/arm_fir_decimate_q31.c **** 
 309:./Libraries/CMSIS/DSP/Source/FilteringFunctions/arm_fir_decimate_q31.c ****     /* Initialize tapCnt with number of taps */
 310:./Libraries/CMSIS/DSP/Source/FilteringFunctions/arm_fir_decimate_q31.c ****     tapCnt = numTaps;
 123              		.loc 1 310 12
 124 007c FB69     		ldr	r3, [r7, #28]
 125 007e BB62     		str	r3, [r7, #40]
 311:./Libraries/CMSIS/DSP/Source/FilteringFunctions/arm_fir_decimate_q31.c **** 
 312:./Libraries/CMSIS/DSP/Source/FilteringFunctions/arm_fir_decimate_q31.c **** #endif /* #if defined (ARM_MATH_LOOPUNROLL) */
 313:./Libraries/CMSIS/DSP/Source/FilteringFunctions/arm_fir_decimate_q31.c **** 
 314:./Libraries/CMSIS/DSP/Source/FilteringFunctions/arm_fir_decimate_q31.c ****     while (tapCnt > 0U)
 126              		.loc 1 314 11
 127 0080 24E0     		b	.L4
 128              	.L5:
 315:./Libraries/CMSIS/DSP/Source/FilteringFunctions/arm_fir_decimate_q31.c ****     {
 316:./Libraries/CMSIS/DSP/Source/FilteringFunctions/arm_fir_decimate_q31.c ****       /* Read coefficients */
 317:./Libraries/CMSIS/DSP/Source/FilteringFunctions/arm_fir_decimate_q31.c ****       c0 = *pb++;
 129              		.loc 1 317 15
 130 0082 BB6B     		ldr	r3, [r7, #56]
 131 0084 1A1D     		adds	r2, r3, #4
 132 0086 BA63     		str	r2, [r7, #56]
 133              		.loc 1 317 10
 134 0088 1B68     		ldr	r3, [r3]
 135 008a 7B61     		str	r3, [r7, #20]
 318:./Libraries/CMSIS/DSP/Source/FilteringFunctions/arm_fir_decimate_q31.c **** 
 319:./Libraries/CMSIS/DSP/Source/FilteringFunctions/arm_fir_decimate_q31.c ****       /* Fetch 1 state variable */
 320:./Libraries/CMSIS/DSP/Source/FilteringFunctions/arm_fir_decimate_q31.c ****       x0 = *px0++;
 136              		.loc 1 320 16
 137 008c FB6B     		ldr	r3, [r7, #60]
ARM GAS  /tmp/ccCFWeUi.s 			page 9


 138 008e 1A1D     		adds	r2, r3, #4
 139 0090 FA63     		str	r2, [r7, #60]
 140              		.loc 1 320 10
 141 0092 1B68     		ldr	r3, [r3]
 142 0094 3B61     		str	r3, [r7, #16]
 321:./Libraries/CMSIS/DSP/Source/FilteringFunctions/arm_fir_decimate_q31.c **** 
 322:./Libraries/CMSIS/DSP/Source/FilteringFunctions/arm_fir_decimate_q31.c ****       /* Perform the multiply-accumulate */
 323:./Libraries/CMSIS/DSP/Source/FilteringFunctions/arm_fir_decimate_q31.c ****       acc0 += (q63_t) x0 * c0;
 143              		.loc 1 323 15
 144 0096 3B69     		ldr	r3, [r7, #16]
 145 0098 1846     		mov	r0, r3
 146 009a 4FEAE071 		asr	r1, r0, #31
 147              		.loc 1 323 26
 148 009e 7B69     		ldr	r3, [r7, #20]
 149 00a0 1A46     		mov	r2, r3
 150 00a2 4FEAE273 		asr	r3, r2, #31
 151 00a6 02FB01FC 		mul	ip, r2, r1
 152 00aa 00FB03F6 		mul	r6, r0, r3
 153 00ae 6644     		add	r6, r6, ip
 154 00b0 A0FB0223 		umull	r2, r3, r0, r2
 155 00b4 F118     		adds	r1, r6, r3
 156 00b6 0B46     		mov	r3, r1
 157              		.loc 1 323 12
 158 00b8 D7E90C01 		ldrd	r0, [r7, #48]
 159 00bc 8418     		adds	r4, r0, r2
 160 00be 41EB0305 		adc	r5, r1, r3
 161 00c2 C7E90C45 		strd	r4, [r7, #48]
 324:./Libraries/CMSIS/DSP/Source/FilteringFunctions/arm_fir_decimate_q31.c **** 
 325:./Libraries/CMSIS/DSP/Source/FilteringFunctions/arm_fir_decimate_q31.c ****       /* Decrement loop counter */
 326:./Libraries/CMSIS/DSP/Source/FilteringFunctions/arm_fir_decimate_q31.c ****       tapCnt--;
 162              		.loc 1 326 13
 163 00c6 BB6A     		ldr	r3, [r7, #40]
 164 00c8 013B     		subs	r3, r3, #1
 165 00ca BB62     		str	r3, [r7, #40]
 166              	.L4:
 314:./Libraries/CMSIS/DSP/Source/FilteringFunctions/arm_fir_decimate_q31.c ****     {
 167              		.loc 1 314 11
 168 00cc BB6A     		ldr	r3, [r7, #40]
 169 00ce 002B     		cmp	r3, #0
 170 00d0 D7D1     		bne	.L5
 327:./Libraries/CMSIS/DSP/Source/FilteringFunctions/arm_fir_decimate_q31.c ****     }
 328:./Libraries/CMSIS/DSP/Source/FilteringFunctions/arm_fir_decimate_q31.c **** 
 329:./Libraries/CMSIS/DSP/Source/FilteringFunctions/arm_fir_decimate_q31.c ****     /* Advance the state pointer by the decimation factor
 330:./Libraries/CMSIS/DSP/Source/FilteringFunctions/arm_fir_decimate_q31.c ****      * to process the next group of decimation factor number samples */
 331:./Libraries/CMSIS/DSP/Source/FilteringFunctions/arm_fir_decimate_q31.c ****     pState = pState + S->M;
 171              		.loc 1 331 24
 172 00d2 FB68     		ldr	r3, [r7, #12]
 173 00d4 1B78     		ldrb	r3, [r3]	@ zero_extendqisi2
 174              		.loc 1 331 21
 175 00d6 9B00     		lsls	r3, r3, #2
 176              		.loc 1 331 12
 177 00d8 7A6C     		ldr	r2, [r7, #68]
 178 00da 1344     		add	r3, r3, r2
 179 00dc 7B64     		str	r3, [r7, #68]
 332:./Libraries/CMSIS/DSP/Source/FilteringFunctions/arm_fir_decimate_q31.c **** 
 333:./Libraries/CMSIS/DSP/Source/FilteringFunctions/arm_fir_decimate_q31.c ****     /* The result is in the accumulator, store in the destination buffer. */
 334:./Libraries/CMSIS/DSP/Source/FilteringFunctions/arm_fir_decimate_q31.c ****     *pDst++ = (q31_t) (acc0 >> 31);
ARM GAS  /tmp/ccCFWeUi.s 			page 10


 180              		.loc 1 334 29
 181 00de D7E90C01 		ldrd	r0, [r7, #48]
 182 00e2 4FF00002 		mov	r2, #0
 183 00e6 4FF00003 		mov	r3, #0
 184 00ea C20F     		lsrs	r2, r0, #31
 185 00ec 42EA4102 		orr	r2, r2, r1, lsl #1
 186 00f0 CB17     		asrs	r3, r1, #31
 187              		.loc 1 334 10
 188 00f2 7968     		ldr	r1, [r7, #4]
 189 00f4 081D     		adds	r0, r1, #4
 190 00f6 7860     		str	r0, [r7, #4]
 191              		.loc 1 334 15
 192 00f8 1346     		mov	r3, r2
 193              		.loc 1 334 13
 194 00fa 0B60     		str	r3, [r1]
 335:./Libraries/CMSIS/DSP/Source/FilteringFunctions/arm_fir_decimate_q31.c **** 
 336:./Libraries/CMSIS/DSP/Source/FilteringFunctions/arm_fir_decimate_q31.c ****     /* Decrement loop counter */
 337:./Libraries/CMSIS/DSP/Source/FilteringFunctions/arm_fir_decimate_q31.c ****     blkCnt--;
 195              		.loc 1 337 11
 196 00fc 7B6A     		ldr	r3, [r7, #36]
 197 00fe 013B     		subs	r3, r3, #1
 198 0100 7B62     		str	r3, [r7, #36]
 199              	.L2:
 237:./Libraries/CMSIS/DSP/Source/FilteringFunctions/arm_fir_decimate_q31.c ****   {
 200              		.loc 1 237 9
 201 0102 7B6A     		ldr	r3, [r7, #36]
 202 0104 002B     		cmp	r3, #0
 203 0106 9ED1     		bne	.L6
 338:./Libraries/CMSIS/DSP/Source/FilteringFunctions/arm_fir_decimate_q31.c ****   }
 339:./Libraries/CMSIS/DSP/Source/FilteringFunctions/arm_fir_decimate_q31.c **** 
 340:./Libraries/CMSIS/DSP/Source/FilteringFunctions/arm_fir_decimate_q31.c ****   /* Processing is complete.
 341:./Libraries/CMSIS/DSP/Source/FilteringFunctions/arm_fir_decimate_q31.c ****      Now copy the last numTaps - 1 samples to the satrt of the state buffer.
 342:./Libraries/CMSIS/DSP/Source/FilteringFunctions/arm_fir_decimate_q31.c ****      This prepares the state buffer for the next function call. */
 343:./Libraries/CMSIS/DSP/Source/FilteringFunctions/arm_fir_decimate_q31.c **** 
 344:./Libraries/CMSIS/DSP/Source/FilteringFunctions/arm_fir_decimate_q31.c ****   /* Points to the start of the state buffer */
 345:./Libraries/CMSIS/DSP/Source/FilteringFunctions/arm_fir_decimate_q31.c ****   pStateCur = S->pState;
 204              		.loc 1 345 13
 205 0108 FB68     		ldr	r3, [r7, #12]
 206 010a 9B68     		ldr	r3, [r3, #8]
 207 010c 3B64     		str	r3, [r7, #64]
 346:./Libraries/CMSIS/DSP/Source/FilteringFunctions/arm_fir_decimate_q31.c **** 
 347:./Libraries/CMSIS/DSP/Source/FilteringFunctions/arm_fir_decimate_q31.c **** #if defined (ARM_MATH_LOOPUNROLL)
 348:./Libraries/CMSIS/DSP/Source/FilteringFunctions/arm_fir_decimate_q31.c **** 
 349:./Libraries/CMSIS/DSP/Source/FilteringFunctions/arm_fir_decimate_q31.c ****   /* Loop unrolling: Compute 4 taps at a time */
 350:./Libraries/CMSIS/DSP/Source/FilteringFunctions/arm_fir_decimate_q31.c ****   tapCnt = (numTaps - 1U) >> 2U;
 351:./Libraries/CMSIS/DSP/Source/FilteringFunctions/arm_fir_decimate_q31.c **** 
 352:./Libraries/CMSIS/DSP/Source/FilteringFunctions/arm_fir_decimate_q31.c ****   /* Copy data */
 353:./Libraries/CMSIS/DSP/Source/FilteringFunctions/arm_fir_decimate_q31.c ****   while (tapCnt > 0U)
 354:./Libraries/CMSIS/DSP/Source/FilteringFunctions/arm_fir_decimate_q31.c ****   {
 355:./Libraries/CMSIS/DSP/Source/FilteringFunctions/arm_fir_decimate_q31.c ****     *pStateCur++ = *pState++;
 356:./Libraries/CMSIS/DSP/Source/FilteringFunctions/arm_fir_decimate_q31.c ****     *pStateCur++ = *pState++;
 357:./Libraries/CMSIS/DSP/Source/FilteringFunctions/arm_fir_decimate_q31.c ****     *pStateCur++ = *pState++;
 358:./Libraries/CMSIS/DSP/Source/FilteringFunctions/arm_fir_decimate_q31.c ****     *pStateCur++ = *pState++;
 359:./Libraries/CMSIS/DSP/Source/FilteringFunctions/arm_fir_decimate_q31.c **** 
 360:./Libraries/CMSIS/DSP/Source/FilteringFunctions/arm_fir_decimate_q31.c ****     /* Decrement loop counter */
 361:./Libraries/CMSIS/DSP/Source/FilteringFunctions/arm_fir_decimate_q31.c ****     tapCnt--;
 362:./Libraries/CMSIS/DSP/Source/FilteringFunctions/arm_fir_decimate_q31.c ****   }
ARM GAS  /tmp/ccCFWeUi.s 			page 11


 363:./Libraries/CMSIS/DSP/Source/FilteringFunctions/arm_fir_decimate_q31.c **** 
 364:./Libraries/CMSIS/DSP/Source/FilteringFunctions/arm_fir_decimate_q31.c ****   /* Loop unrolling: Compute remaining taps */
 365:./Libraries/CMSIS/DSP/Source/FilteringFunctions/arm_fir_decimate_q31.c ****   tapCnt = (numTaps - 1U) % 0x04U;
 366:./Libraries/CMSIS/DSP/Source/FilteringFunctions/arm_fir_decimate_q31.c **** 
 367:./Libraries/CMSIS/DSP/Source/FilteringFunctions/arm_fir_decimate_q31.c **** #else
 368:./Libraries/CMSIS/DSP/Source/FilteringFunctions/arm_fir_decimate_q31.c **** 
 369:./Libraries/CMSIS/DSP/Source/FilteringFunctions/arm_fir_decimate_q31.c ****   /* Initialize tapCnt with number of taps */
 370:./Libraries/CMSIS/DSP/Source/FilteringFunctions/arm_fir_decimate_q31.c ****   tapCnt = (numTaps - 1U);
 208              		.loc 1 370 10
 209 010e FB69     		ldr	r3, [r7, #28]
 210 0110 013B     		subs	r3, r3, #1
 211 0112 BB62     		str	r3, [r7, #40]
 371:./Libraries/CMSIS/DSP/Source/FilteringFunctions/arm_fir_decimate_q31.c **** 
 372:./Libraries/CMSIS/DSP/Source/FilteringFunctions/arm_fir_decimate_q31.c **** #endif /* #if defined (ARM_MATH_LOOPUNROLL) */
 373:./Libraries/CMSIS/DSP/Source/FilteringFunctions/arm_fir_decimate_q31.c **** 
 374:./Libraries/CMSIS/DSP/Source/FilteringFunctions/arm_fir_decimate_q31.c ****   /* Copy data */
 375:./Libraries/CMSIS/DSP/Source/FilteringFunctions/arm_fir_decimate_q31.c ****   while (tapCnt > 0U)
 212              		.loc 1 375 9
 213 0114 0AE0     		b	.L7
 214              	.L8:
 376:./Libraries/CMSIS/DSP/Source/FilteringFunctions/arm_fir_decimate_q31.c ****   {
 377:./Libraries/CMSIS/DSP/Source/FilteringFunctions/arm_fir_decimate_q31.c ****     *pStateCur++ = *pState++;
 215              		.loc 1 377 27
 216 0116 7A6C     		ldr	r2, [r7, #68]
 217 0118 131D     		adds	r3, r2, #4
 218 011a 7B64     		str	r3, [r7, #68]
 219              		.loc 1 377 15
 220 011c 3B6C     		ldr	r3, [r7, #64]
 221 011e 191D     		adds	r1, r3, #4
 222 0120 3964     		str	r1, [r7, #64]
 223              		.loc 1 377 20
 224 0122 1268     		ldr	r2, [r2]
 225              		.loc 1 377 18
 226 0124 1A60     		str	r2, [r3]
 378:./Libraries/CMSIS/DSP/Source/FilteringFunctions/arm_fir_decimate_q31.c **** 
 379:./Libraries/CMSIS/DSP/Source/FilteringFunctions/arm_fir_decimate_q31.c ****     /* Decrement loop counter */
 380:./Libraries/CMSIS/DSP/Source/FilteringFunctions/arm_fir_decimate_q31.c ****     tapCnt--;
 227              		.loc 1 380 11
 228 0126 BB6A     		ldr	r3, [r7, #40]
 229 0128 013B     		subs	r3, r3, #1
 230 012a BB62     		str	r3, [r7, #40]
 231              	.L7:
 375:./Libraries/CMSIS/DSP/Source/FilteringFunctions/arm_fir_decimate_q31.c ****   {
 232              		.loc 1 375 9
 233 012c BB6A     		ldr	r3, [r7, #40]
 234 012e 002B     		cmp	r3, #0
 235 0130 F1D1     		bne	.L8
 381:./Libraries/CMSIS/DSP/Source/FilteringFunctions/arm_fir_decimate_q31.c ****   }
 382:./Libraries/CMSIS/DSP/Source/FilteringFunctions/arm_fir_decimate_q31.c **** 
 383:./Libraries/CMSIS/DSP/Source/FilteringFunctions/arm_fir_decimate_q31.c **** }
 236              		.loc 1 383 1
 237 0132 00BF     		nop
 238 0134 00BF     		nop
 239 0136 4837     		adds	r7, r7, #72
 240              	.LCFI3:
 241              		.cfi_def_cfa_offset 16
 242 0138 BD46     		mov	sp, r7
ARM GAS  /tmp/ccCFWeUi.s 			page 12


 243              	.LCFI4:
 244              		.cfi_def_cfa_register 13
 245              		@ sp needed
 246 013a F0BC     		pop	{r4, r5, r6, r7}
 247              	.LCFI5:
 248              		.cfi_restore 7
 249              		.cfi_restore 6
 250              		.cfi_restore 5
 251              		.cfi_restore 4
 252              		.cfi_def_cfa_offset 0
 253 013c 7047     		bx	lr
 254              		.cfi_endproc
 255              	.LFE145:
 257              		.text
 258              	.Letext0:
 259              		.file 2 "/usr/lib/gcc/arm-none-eabi/9.2.1/include/stdint.h"
 260              		.file 3 "/usr/lib/gcc/arm-none-eabi/9.2.1/include/stddef.h"
 261              		.file 4 "/usr/include/newlib/sys/_types.h"
 262              		.file 5 "/usr/include/newlib/sys/reent.h"
 263              		.file 6 "/usr/include/newlib/sys/lock.h"
 264              		.file 7 "/usr/include/newlib/math.h"
 265              		.file 8 "./Libraries/CMSIS/DSP/Include/arm_math.h"
ARM GAS  /tmp/ccCFWeUi.s 			page 13

