ARM GAS  /tmp/ccTA6jAX.s 			page 1


   1              		.cpu cortex-m7
   2              		.eabi_attribute 28, 1
   3              		.eabi_attribute 20, 1
   4              		.eabi_attribute 21, 1
   5              		.eabi_attribute 23, 3
   6              		.eabi_attribute 24, 1
   7              		.eabi_attribute 25, 1
   8              		.eabi_attribute 26, 1
   9              		.eabi_attribute 30, 6
  10              		.eabi_attribute 34, 1
  11              		.eabi_attribute 18, 4
  12              		.file	"arm_cmplx_mag_squared_q31.c"
  13              		.text
  14              	.Ltext0:
  15              		.cfi_sections	.debug_frame
  16              		.section	.text.arm_cmplx_mag_squared_q31,"ax",%progbits
  17              		.align	1
  18              		.global	arm_cmplx_mag_squared_q31
  19              		.arch armv7e-m
  20              		.syntax unified
  21              		.thumb
  22              		.thumb_func
  23              		.fpu fpv5-d16
  25              	arm_cmplx_mag_squared_q31:
  26              	.LFB145:
  27              		.file 1 "./Libraries/CMSIS/DSP/Source/ComplexMathFunctions/arm_cmplx_mag_squared_q31.c"
   1:./Libraries/CMSIS/DSP/Source/ComplexMathFunctions/arm_cmplx_mag_squared_q31.c **** /* ----------------------------------------------------------------------
   2:./Libraries/CMSIS/DSP/Source/ComplexMathFunctions/arm_cmplx_mag_squared_q31.c ****  * Project:      CMSIS DSP Library
   3:./Libraries/CMSIS/DSP/Source/ComplexMathFunctions/arm_cmplx_mag_squared_q31.c ****  * Title:        arm_cmplx_mag_squared_q31.c
   4:./Libraries/CMSIS/DSP/Source/ComplexMathFunctions/arm_cmplx_mag_squared_q31.c ****  * Description:  Q31 complex magnitude squared
   5:./Libraries/CMSIS/DSP/Source/ComplexMathFunctions/arm_cmplx_mag_squared_q31.c ****  *
   6:./Libraries/CMSIS/DSP/Source/ComplexMathFunctions/arm_cmplx_mag_squared_q31.c ****  * $Date:        18. March 2019
   7:./Libraries/CMSIS/DSP/Source/ComplexMathFunctions/arm_cmplx_mag_squared_q31.c ****  * $Revision:    V1.6.0
   8:./Libraries/CMSIS/DSP/Source/ComplexMathFunctions/arm_cmplx_mag_squared_q31.c ****  *
   9:./Libraries/CMSIS/DSP/Source/ComplexMathFunctions/arm_cmplx_mag_squared_q31.c ****  * Target Processor: Cortex-M cores
  10:./Libraries/CMSIS/DSP/Source/ComplexMathFunctions/arm_cmplx_mag_squared_q31.c ****  * -------------------------------------------------------------------- */
  11:./Libraries/CMSIS/DSP/Source/ComplexMathFunctions/arm_cmplx_mag_squared_q31.c **** /*
  12:./Libraries/CMSIS/DSP/Source/ComplexMathFunctions/arm_cmplx_mag_squared_q31.c ****  * Copyright (C) 2010-2019 ARM Limited or its affiliates. All rights reserved.
  13:./Libraries/CMSIS/DSP/Source/ComplexMathFunctions/arm_cmplx_mag_squared_q31.c ****  *
  14:./Libraries/CMSIS/DSP/Source/ComplexMathFunctions/arm_cmplx_mag_squared_q31.c ****  * SPDX-License-Identifier: Apache-2.0
  15:./Libraries/CMSIS/DSP/Source/ComplexMathFunctions/arm_cmplx_mag_squared_q31.c ****  *
  16:./Libraries/CMSIS/DSP/Source/ComplexMathFunctions/arm_cmplx_mag_squared_q31.c ****  * Licensed under the Apache License, Version 2.0 (the License); you may
  17:./Libraries/CMSIS/DSP/Source/ComplexMathFunctions/arm_cmplx_mag_squared_q31.c ****  * not use this file except in compliance with the License.
  18:./Libraries/CMSIS/DSP/Source/ComplexMathFunctions/arm_cmplx_mag_squared_q31.c ****  * You may obtain a copy of the License at
  19:./Libraries/CMSIS/DSP/Source/ComplexMathFunctions/arm_cmplx_mag_squared_q31.c ****  *
  20:./Libraries/CMSIS/DSP/Source/ComplexMathFunctions/arm_cmplx_mag_squared_q31.c ****  * www.apache.org/licenses/LICENSE-2.0
  21:./Libraries/CMSIS/DSP/Source/ComplexMathFunctions/arm_cmplx_mag_squared_q31.c ****  *
  22:./Libraries/CMSIS/DSP/Source/ComplexMathFunctions/arm_cmplx_mag_squared_q31.c ****  * Unless required by applicable law or agreed to in writing, software
  23:./Libraries/CMSIS/DSP/Source/ComplexMathFunctions/arm_cmplx_mag_squared_q31.c ****  * distributed under the License is distributed on an AS IS BASIS, WITHOUT
  24:./Libraries/CMSIS/DSP/Source/ComplexMathFunctions/arm_cmplx_mag_squared_q31.c ****  * WARRANTIES OR CONDITIONS OF ANY KIND, either express or implied.
  25:./Libraries/CMSIS/DSP/Source/ComplexMathFunctions/arm_cmplx_mag_squared_q31.c ****  * See the License for the specific language governing permissions and
  26:./Libraries/CMSIS/DSP/Source/ComplexMathFunctions/arm_cmplx_mag_squared_q31.c ****  * limitations under the License.
  27:./Libraries/CMSIS/DSP/Source/ComplexMathFunctions/arm_cmplx_mag_squared_q31.c ****  */
  28:./Libraries/CMSIS/DSP/Source/ComplexMathFunctions/arm_cmplx_mag_squared_q31.c **** 
  29:./Libraries/CMSIS/DSP/Source/ComplexMathFunctions/arm_cmplx_mag_squared_q31.c **** #include "arm_math.h"
  30:./Libraries/CMSIS/DSP/Source/ComplexMathFunctions/arm_cmplx_mag_squared_q31.c **** 
  31:./Libraries/CMSIS/DSP/Source/ComplexMathFunctions/arm_cmplx_mag_squared_q31.c **** /**
ARM GAS  /tmp/ccTA6jAX.s 			page 2


  32:./Libraries/CMSIS/DSP/Source/ComplexMathFunctions/arm_cmplx_mag_squared_q31.c ****   @ingroup groupCmplxMath
  33:./Libraries/CMSIS/DSP/Source/ComplexMathFunctions/arm_cmplx_mag_squared_q31.c ****  */
  34:./Libraries/CMSIS/DSP/Source/ComplexMathFunctions/arm_cmplx_mag_squared_q31.c **** 
  35:./Libraries/CMSIS/DSP/Source/ComplexMathFunctions/arm_cmplx_mag_squared_q31.c **** /**
  36:./Libraries/CMSIS/DSP/Source/ComplexMathFunctions/arm_cmplx_mag_squared_q31.c ****   @addtogroup cmplx_mag_squared
  37:./Libraries/CMSIS/DSP/Source/ComplexMathFunctions/arm_cmplx_mag_squared_q31.c ****   @{
  38:./Libraries/CMSIS/DSP/Source/ComplexMathFunctions/arm_cmplx_mag_squared_q31.c ****  */
  39:./Libraries/CMSIS/DSP/Source/ComplexMathFunctions/arm_cmplx_mag_squared_q31.c **** 
  40:./Libraries/CMSIS/DSP/Source/ComplexMathFunctions/arm_cmplx_mag_squared_q31.c **** /**
  41:./Libraries/CMSIS/DSP/Source/ComplexMathFunctions/arm_cmplx_mag_squared_q31.c ****   @brief         Q31 complex magnitude squared.
  42:./Libraries/CMSIS/DSP/Source/ComplexMathFunctions/arm_cmplx_mag_squared_q31.c ****   @param[in]     pSrc        points to input vector
  43:./Libraries/CMSIS/DSP/Source/ComplexMathFunctions/arm_cmplx_mag_squared_q31.c ****   @param[out]    pDst        points to output vector
  44:./Libraries/CMSIS/DSP/Source/ComplexMathFunctions/arm_cmplx_mag_squared_q31.c ****   @param[in]     numSamples  number of samples in each vector
  45:./Libraries/CMSIS/DSP/Source/ComplexMathFunctions/arm_cmplx_mag_squared_q31.c ****   @return        none
  46:./Libraries/CMSIS/DSP/Source/ComplexMathFunctions/arm_cmplx_mag_squared_q31.c **** 
  47:./Libraries/CMSIS/DSP/Source/ComplexMathFunctions/arm_cmplx_mag_squared_q31.c ****   @par           Scaling and Overflow Behavior
  48:./Libraries/CMSIS/DSP/Source/ComplexMathFunctions/arm_cmplx_mag_squared_q31.c ****                    The function implements 1.31 by 1.31 multiplications and finally output is conve
  49:./Libraries/CMSIS/DSP/Source/ComplexMathFunctions/arm_cmplx_mag_squared_q31.c ****                    Input down scaling is not required.
  50:./Libraries/CMSIS/DSP/Source/ComplexMathFunctions/arm_cmplx_mag_squared_q31.c ****  */
  51:./Libraries/CMSIS/DSP/Source/ComplexMathFunctions/arm_cmplx_mag_squared_q31.c **** 
  52:./Libraries/CMSIS/DSP/Source/ComplexMathFunctions/arm_cmplx_mag_squared_q31.c **** void arm_cmplx_mag_squared_q31(
  53:./Libraries/CMSIS/DSP/Source/ComplexMathFunctions/arm_cmplx_mag_squared_q31.c ****   const q31_t * pSrc,
  54:./Libraries/CMSIS/DSP/Source/ComplexMathFunctions/arm_cmplx_mag_squared_q31.c ****         q31_t * pDst,
  55:./Libraries/CMSIS/DSP/Source/ComplexMathFunctions/arm_cmplx_mag_squared_q31.c ****         uint32_t numSamples)
  56:./Libraries/CMSIS/DSP/Source/ComplexMathFunctions/arm_cmplx_mag_squared_q31.c **** {
  28              		.loc 1 56 1
  29              		.cfi_startproc
  30              		@ args = 0, pretend = 0, frame = 40
  31              		@ frame_needed = 1, uses_anonymous_args = 0
  32              		@ link register save eliminated.
  33 0000 B0B4     		push	{r4, r5, r7}
  34              	.LCFI0:
  35              		.cfi_def_cfa_offset 12
  36              		.cfi_offset 4, -12
  37              		.cfi_offset 5, -8
  38              		.cfi_offset 7, -4
  39 0002 8BB0     		sub	sp, sp, #44
  40              	.LCFI1:
  41              		.cfi_def_cfa_offset 56
  42 0004 00AF     		add	r7, sp, #0
  43              	.LCFI2:
  44              		.cfi_def_cfa_register 7
  45 0006 F860     		str	r0, [r7, #12]
  46 0008 B960     		str	r1, [r7, #8]
  47 000a 7A60     		str	r2, [r7, #4]
  57:./Libraries/CMSIS/DSP/Source/ComplexMathFunctions/arm_cmplx_mag_squared_q31.c ****         uint32_t blkCnt;                               /* Loop counter */
  58:./Libraries/CMSIS/DSP/Source/ComplexMathFunctions/arm_cmplx_mag_squared_q31.c ****         q31_t real, imag;                              /* Temporary input variables */
  59:./Libraries/CMSIS/DSP/Source/ComplexMathFunctions/arm_cmplx_mag_squared_q31.c ****         q31_t acc0, acc1;                              /* Accumulators */
  60:./Libraries/CMSIS/DSP/Source/ComplexMathFunctions/arm_cmplx_mag_squared_q31.c **** 
  61:./Libraries/CMSIS/DSP/Source/ComplexMathFunctions/arm_cmplx_mag_squared_q31.c **** #if defined (ARM_MATH_LOOPUNROLL)
  62:./Libraries/CMSIS/DSP/Source/ComplexMathFunctions/arm_cmplx_mag_squared_q31.c **** 
  63:./Libraries/CMSIS/DSP/Source/ComplexMathFunctions/arm_cmplx_mag_squared_q31.c ****   /* Loop unrolling: Compute 4 outputs at a time */
  64:./Libraries/CMSIS/DSP/Source/ComplexMathFunctions/arm_cmplx_mag_squared_q31.c ****   blkCnt = numSamples >> 2U;
  65:./Libraries/CMSIS/DSP/Source/ComplexMathFunctions/arm_cmplx_mag_squared_q31.c **** 
  66:./Libraries/CMSIS/DSP/Source/ComplexMathFunctions/arm_cmplx_mag_squared_q31.c ****   while (blkCnt > 0U)
  67:./Libraries/CMSIS/DSP/Source/ComplexMathFunctions/arm_cmplx_mag_squared_q31.c ****   {
  68:./Libraries/CMSIS/DSP/Source/ComplexMathFunctions/arm_cmplx_mag_squared_q31.c ****     /* C[0] = (A[0] * A[0] + A[1] * A[1]) */
ARM GAS  /tmp/ccTA6jAX.s 			page 3


  69:./Libraries/CMSIS/DSP/Source/ComplexMathFunctions/arm_cmplx_mag_squared_q31.c **** 
  70:./Libraries/CMSIS/DSP/Source/ComplexMathFunctions/arm_cmplx_mag_squared_q31.c ****     real = *pSrc++;
  71:./Libraries/CMSIS/DSP/Source/ComplexMathFunctions/arm_cmplx_mag_squared_q31.c ****     imag = *pSrc++;
  72:./Libraries/CMSIS/DSP/Source/ComplexMathFunctions/arm_cmplx_mag_squared_q31.c ****     acc0 = (q31_t) (((q63_t) real * real) >> 33);
  73:./Libraries/CMSIS/DSP/Source/ComplexMathFunctions/arm_cmplx_mag_squared_q31.c ****     acc1 = (q31_t) (((q63_t) imag * imag) >> 33);
  74:./Libraries/CMSIS/DSP/Source/ComplexMathFunctions/arm_cmplx_mag_squared_q31.c ****     /* store the result in 3.29 format in the destination buffer. */
  75:./Libraries/CMSIS/DSP/Source/ComplexMathFunctions/arm_cmplx_mag_squared_q31.c ****     *pDst++ = acc0 + acc1;
  76:./Libraries/CMSIS/DSP/Source/ComplexMathFunctions/arm_cmplx_mag_squared_q31.c **** 
  77:./Libraries/CMSIS/DSP/Source/ComplexMathFunctions/arm_cmplx_mag_squared_q31.c ****     real = *pSrc++;
  78:./Libraries/CMSIS/DSP/Source/ComplexMathFunctions/arm_cmplx_mag_squared_q31.c ****     imag = *pSrc++;
  79:./Libraries/CMSIS/DSP/Source/ComplexMathFunctions/arm_cmplx_mag_squared_q31.c ****     acc0 = (q31_t) (((q63_t) real * real) >> 33);
  80:./Libraries/CMSIS/DSP/Source/ComplexMathFunctions/arm_cmplx_mag_squared_q31.c ****     acc1 = (q31_t) (((q63_t) imag * imag) >> 33);
  81:./Libraries/CMSIS/DSP/Source/ComplexMathFunctions/arm_cmplx_mag_squared_q31.c ****     *pDst++ = acc0 + acc1;
  82:./Libraries/CMSIS/DSP/Source/ComplexMathFunctions/arm_cmplx_mag_squared_q31.c **** 
  83:./Libraries/CMSIS/DSP/Source/ComplexMathFunctions/arm_cmplx_mag_squared_q31.c ****     real = *pSrc++;
  84:./Libraries/CMSIS/DSP/Source/ComplexMathFunctions/arm_cmplx_mag_squared_q31.c ****     imag = *pSrc++;
  85:./Libraries/CMSIS/DSP/Source/ComplexMathFunctions/arm_cmplx_mag_squared_q31.c ****     acc0 = (q31_t) (((q63_t) real * real) >> 33);
  86:./Libraries/CMSIS/DSP/Source/ComplexMathFunctions/arm_cmplx_mag_squared_q31.c ****     acc1 = (q31_t) (((q63_t) imag * imag) >> 33);
  87:./Libraries/CMSIS/DSP/Source/ComplexMathFunctions/arm_cmplx_mag_squared_q31.c ****     *pDst++ = acc0 + acc1;
  88:./Libraries/CMSIS/DSP/Source/ComplexMathFunctions/arm_cmplx_mag_squared_q31.c **** 
  89:./Libraries/CMSIS/DSP/Source/ComplexMathFunctions/arm_cmplx_mag_squared_q31.c ****     real = *pSrc++;
  90:./Libraries/CMSIS/DSP/Source/ComplexMathFunctions/arm_cmplx_mag_squared_q31.c ****     imag = *pSrc++;
  91:./Libraries/CMSIS/DSP/Source/ComplexMathFunctions/arm_cmplx_mag_squared_q31.c ****     acc0 = (q31_t) (((q63_t) real * real) >> 33);
  92:./Libraries/CMSIS/DSP/Source/ComplexMathFunctions/arm_cmplx_mag_squared_q31.c ****     acc1 = (q31_t) (((q63_t) imag * imag) >> 33);
  93:./Libraries/CMSIS/DSP/Source/ComplexMathFunctions/arm_cmplx_mag_squared_q31.c ****     *pDst++ = acc0 + acc1;
  94:./Libraries/CMSIS/DSP/Source/ComplexMathFunctions/arm_cmplx_mag_squared_q31.c **** 
  95:./Libraries/CMSIS/DSP/Source/ComplexMathFunctions/arm_cmplx_mag_squared_q31.c ****     /* Decrement loop counter */
  96:./Libraries/CMSIS/DSP/Source/ComplexMathFunctions/arm_cmplx_mag_squared_q31.c ****     blkCnt--;
  97:./Libraries/CMSIS/DSP/Source/ComplexMathFunctions/arm_cmplx_mag_squared_q31.c ****   }
  98:./Libraries/CMSIS/DSP/Source/ComplexMathFunctions/arm_cmplx_mag_squared_q31.c **** 
  99:./Libraries/CMSIS/DSP/Source/ComplexMathFunctions/arm_cmplx_mag_squared_q31.c ****   /* Loop unrolling: Compute remaining outputs */
 100:./Libraries/CMSIS/DSP/Source/ComplexMathFunctions/arm_cmplx_mag_squared_q31.c ****   blkCnt = numSamples % 0x4U;
 101:./Libraries/CMSIS/DSP/Source/ComplexMathFunctions/arm_cmplx_mag_squared_q31.c **** 
 102:./Libraries/CMSIS/DSP/Source/ComplexMathFunctions/arm_cmplx_mag_squared_q31.c **** #else
 103:./Libraries/CMSIS/DSP/Source/ComplexMathFunctions/arm_cmplx_mag_squared_q31.c **** 
 104:./Libraries/CMSIS/DSP/Source/ComplexMathFunctions/arm_cmplx_mag_squared_q31.c ****   /* Initialize blkCnt with number of samples */
 105:./Libraries/CMSIS/DSP/Source/ComplexMathFunctions/arm_cmplx_mag_squared_q31.c ****   blkCnt = numSamples;
  48              		.loc 1 105 10
  49 000c 7B68     		ldr	r3, [r7, #4]
  50 000e 7B62     		str	r3, [r7, #36]
 106:./Libraries/CMSIS/DSP/Source/ComplexMathFunctions/arm_cmplx_mag_squared_q31.c **** 
 107:./Libraries/CMSIS/DSP/Source/ComplexMathFunctions/arm_cmplx_mag_squared_q31.c **** #endif /* #if defined (ARM_MATH_LOOPUNROLL) */
 108:./Libraries/CMSIS/DSP/Source/ComplexMathFunctions/arm_cmplx_mag_squared_q31.c **** 
 109:./Libraries/CMSIS/DSP/Source/ComplexMathFunctions/arm_cmplx_mag_squared_q31.c ****   while (blkCnt > 0U)
  51              		.loc 1 109 9
  52 0010 45E0     		b	.L2
  53              	.L3:
 110:./Libraries/CMSIS/DSP/Source/ComplexMathFunctions/arm_cmplx_mag_squared_q31.c ****   {
 111:./Libraries/CMSIS/DSP/Source/ComplexMathFunctions/arm_cmplx_mag_squared_q31.c ****     /* C[0] = (A[0] * A[0] + A[1] * A[1]) */
 112:./Libraries/CMSIS/DSP/Source/ComplexMathFunctions/arm_cmplx_mag_squared_q31.c **** 
 113:./Libraries/CMSIS/DSP/Source/ComplexMathFunctions/arm_cmplx_mag_squared_q31.c ****     real = *pSrc++;
  54              		.loc 1 113 17
  55 0012 FB68     		ldr	r3, [r7, #12]
  56 0014 1A1D     		adds	r2, r3, #4
  57 0016 FA60     		str	r2, [r7, #12]
  58              		.loc 1 113 10
  59 0018 1B68     		ldr	r3, [r3]
ARM GAS  /tmp/ccTA6jAX.s 			page 4


  60 001a 3B62     		str	r3, [r7, #32]
 114:./Libraries/CMSIS/DSP/Source/ComplexMathFunctions/arm_cmplx_mag_squared_q31.c ****     imag = *pSrc++;
  61              		.loc 1 114 17
  62 001c FB68     		ldr	r3, [r7, #12]
  63 001e 1A1D     		adds	r2, r3, #4
  64 0020 FA60     		str	r2, [r7, #12]
  65              		.loc 1 114 10
  66 0022 1B68     		ldr	r3, [r3]
  67 0024 FB61     		str	r3, [r7, #28]
 115:./Libraries/CMSIS/DSP/Source/ComplexMathFunctions/arm_cmplx_mag_squared_q31.c ****     acc0 = (q31_t) (((q63_t) real * real) >> 33);
  68              		.loc 1 115 22
  69 0026 3B6A     		ldr	r3, [r7, #32]
  70 0028 1846     		mov	r0, r3
  71 002a 4FEAE071 		asr	r1, r0, #31
  72              		.loc 1 115 35
  73 002e 3B6A     		ldr	r3, [r7, #32]
  74 0030 1A46     		mov	r2, r3
  75 0032 4FEAE273 		asr	r3, r2, #31
  76 0036 02FB01F5 		mul	r5, r2, r1
  77 003a 00FB03F4 		mul	r4, r0, r3
  78 003e 2C44     		add	r4, r4, r5
  79 0040 A0FB0223 		umull	r2, r3, r0, r2
  80 0044 E118     		adds	r1, r4, r3
  81 0046 0B46     		mov	r3, r1
  82              		.loc 1 115 43
  83 0048 4FF00000 		mov	r0, #0
  84 004c 4FF00001 		mov	r1, #0
  85 0050 5810     		asrs	r0, r3, #1
  86 0052 D917     		asrs	r1, r3, #31
  87              		.loc 1 115 10
  88 0054 0346     		mov	r3, r0
  89 0056 BB61     		str	r3, [r7, #24]
 116:./Libraries/CMSIS/DSP/Source/ComplexMathFunctions/arm_cmplx_mag_squared_q31.c ****     acc1 = (q31_t) (((q63_t) imag * imag) >> 33);
  90              		.loc 1 116 22
  91 0058 FB69     		ldr	r3, [r7, #28]
  92 005a 1846     		mov	r0, r3
  93 005c 4FEAE071 		asr	r1, r0, #31
  94              		.loc 1 116 35
  95 0060 FB69     		ldr	r3, [r7, #28]
  96 0062 1A46     		mov	r2, r3
  97 0064 4FEAE273 		asr	r3, r2, #31
  98 0068 02FB01F5 		mul	r5, r2, r1
  99 006c 00FB03F4 		mul	r4, r0, r3
 100 0070 2C44     		add	r4, r4, r5
 101 0072 A0FB0223 		umull	r2, r3, r0, r2
 102 0076 E118     		adds	r1, r4, r3
 103 0078 0B46     		mov	r3, r1
 104              		.loc 1 116 43
 105 007a 4FF00000 		mov	r0, #0
 106 007e 4FF00001 		mov	r1, #0
 107 0082 5810     		asrs	r0, r3, #1
 108 0084 D917     		asrs	r1, r3, #31
 109              		.loc 1 116 10
 110 0086 0346     		mov	r3, r0
 111 0088 7B61     		str	r3, [r7, #20]
 117:./Libraries/CMSIS/DSP/Source/ComplexMathFunctions/arm_cmplx_mag_squared_q31.c **** 
 118:./Libraries/CMSIS/DSP/Source/ComplexMathFunctions/arm_cmplx_mag_squared_q31.c ****     /* store result in 3.29 format in destination buffer. */
ARM GAS  /tmp/ccTA6jAX.s 			page 5


 119:./Libraries/CMSIS/DSP/Source/ComplexMathFunctions/arm_cmplx_mag_squared_q31.c ****     *pDst++ = acc0 + acc1;
 112              		.loc 1 119 10
 113 008a BB68     		ldr	r3, [r7, #8]
 114 008c 1A1D     		adds	r2, r3, #4
 115 008e BA60     		str	r2, [r7, #8]
 116              		.loc 1 119 20
 117 0090 B969     		ldr	r1, [r7, #24]
 118 0092 7A69     		ldr	r2, [r7, #20]
 119 0094 0A44     		add	r2, r2, r1
 120              		.loc 1 119 13
 121 0096 1A60     		str	r2, [r3]
 120:./Libraries/CMSIS/DSP/Source/ComplexMathFunctions/arm_cmplx_mag_squared_q31.c **** 
 121:./Libraries/CMSIS/DSP/Source/ComplexMathFunctions/arm_cmplx_mag_squared_q31.c ****     /* Decrement loop counter */
 122:./Libraries/CMSIS/DSP/Source/ComplexMathFunctions/arm_cmplx_mag_squared_q31.c ****     blkCnt--;
 122              		.loc 1 122 11
 123 0098 7B6A     		ldr	r3, [r7, #36]
 124 009a 013B     		subs	r3, r3, #1
 125 009c 7B62     		str	r3, [r7, #36]
 126              	.L2:
 109:./Libraries/CMSIS/DSP/Source/ComplexMathFunctions/arm_cmplx_mag_squared_q31.c ****   {
 127              		.loc 1 109 9
 128 009e 7B6A     		ldr	r3, [r7, #36]
 129 00a0 002B     		cmp	r3, #0
 130 00a2 B6D1     		bne	.L3
 123:./Libraries/CMSIS/DSP/Source/ComplexMathFunctions/arm_cmplx_mag_squared_q31.c ****   }
 124:./Libraries/CMSIS/DSP/Source/ComplexMathFunctions/arm_cmplx_mag_squared_q31.c **** 
 125:./Libraries/CMSIS/DSP/Source/ComplexMathFunctions/arm_cmplx_mag_squared_q31.c **** }
 131              		.loc 1 125 1
 132 00a4 00BF     		nop
 133 00a6 00BF     		nop
 134 00a8 2C37     		adds	r7, r7, #44
 135              	.LCFI3:
 136              		.cfi_def_cfa_offset 12
 137 00aa BD46     		mov	sp, r7
 138              	.LCFI4:
 139              		.cfi_def_cfa_register 13
 140              		@ sp needed
 141 00ac B0BC     		pop	{r4, r5, r7}
 142              	.LCFI5:
 143              		.cfi_restore 7
 144              		.cfi_restore 5
 145              		.cfi_restore 4
 146              		.cfi_def_cfa_offset 0
 147 00ae 7047     		bx	lr
 148              		.cfi_endproc
 149              	.LFE145:
 151              		.text
 152              	.Letext0:
 153              		.file 2 "/usr/lib/gcc/arm-none-eabi/9.2.1/include/stdint.h"
 154              		.file 3 "/usr/lib/gcc/arm-none-eabi/9.2.1/include/stddef.h"
 155              		.file 4 "/usr/include/newlib/sys/_types.h"
 156              		.file 5 "/usr/include/newlib/sys/reent.h"
 157              		.file 6 "/usr/include/newlib/sys/lock.h"
 158              		.file 7 "/usr/include/newlib/math.h"
 159              		.file 8 "./Libraries/CMSIS/DSP/Include/arm_math.h"
ARM GAS  /tmp/ccTA6jAX.s 			page 6

