ARM GAS  /tmp/ccvkrT7x.s 			page 1


   1              		.cpu cortex-m7
   2              		.eabi_attribute 28, 1
   3              		.eabi_attribute 20, 1
   4              		.eabi_attribute 21, 1
   5              		.eabi_attribute 23, 3
   6              		.eabi_attribute 24, 1
   7              		.eabi_attribute 25, 1
   8              		.eabi_attribute 26, 1
   9              		.eabi_attribute 30, 6
  10              		.eabi_attribute 34, 1
  11              		.eabi_attribute 18, 4
  12              		.file	"arm_shift_q7.c"
  13              		.text
  14              	.Ltext0:
  15              		.cfi_sections	.debug_frame
  16              		.section	.text.arm_shift_q7,"ax",%progbits
  17              		.align	1
  18              		.global	arm_shift_q7
  19              		.arch armv7e-m
  20              		.syntax unified
  21              		.thumb
  22              		.thumb_func
  23              		.fpu fpv5-d16
  25              	arm_shift_q7:
  26              	.LFB145:
  27              		.file 1 "./Libraries/CMSIS/DSP/Source/BasicMathFunctions/arm_shift_q7.c"
   1:./Libraries/CMSIS/DSP/Source/BasicMathFunctions/arm_shift_q7.c **** /* ----------------------------------------------------------------------
   2:./Libraries/CMSIS/DSP/Source/BasicMathFunctions/arm_shift_q7.c ****  * Project:      CMSIS DSP Library
   3:./Libraries/CMSIS/DSP/Source/BasicMathFunctions/arm_shift_q7.c ****  * Title:        arm_shift_q7.c
   4:./Libraries/CMSIS/DSP/Source/BasicMathFunctions/arm_shift_q7.c ****  * Description:  Processing function for the Q7 Shifting
   5:./Libraries/CMSIS/DSP/Source/BasicMathFunctions/arm_shift_q7.c ****  *
   6:./Libraries/CMSIS/DSP/Source/BasicMathFunctions/arm_shift_q7.c ****  * $Date:        18. March 2019
   7:./Libraries/CMSIS/DSP/Source/BasicMathFunctions/arm_shift_q7.c ****  * $Revision:    V1.6.0
   8:./Libraries/CMSIS/DSP/Source/BasicMathFunctions/arm_shift_q7.c ****  *
   9:./Libraries/CMSIS/DSP/Source/BasicMathFunctions/arm_shift_q7.c ****  * Target Processor: Cortex-M cores
  10:./Libraries/CMSIS/DSP/Source/BasicMathFunctions/arm_shift_q7.c ****  * -------------------------------------------------------------------- */
  11:./Libraries/CMSIS/DSP/Source/BasicMathFunctions/arm_shift_q7.c **** /*
  12:./Libraries/CMSIS/DSP/Source/BasicMathFunctions/arm_shift_q7.c ****  * Copyright (C) 2010-2019 ARM Limited or its affiliates. All rights reserved.
  13:./Libraries/CMSIS/DSP/Source/BasicMathFunctions/arm_shift_q7.c ****  *
  14:./Libraries/CMSIS/DSP/Source/BasicMathFunctions/arm_shift_q7.c ****  * SPDX-License-Identifier: Apache-2.0
  15:./Libraries/CMSIS/DSP/Source/BasicMathFunctions/arm_shift_q7.c ****  *
  16:./Libraries/CMSIS/DSP/Source/BasicMathFunctions/arm_shift_q7.c ****  * Licensed under the Apache License, Version 2.0 (the License); you may
  17:./Libraries/CMSIS/DSP/Source/BasicMathFunctions/arm_shift_q7.c ****  * not use this file except in compliance with the License.
  18:./Libraries/CMSIS/DSP/Source/BasicMathFunctions/arm_shift_q7.c ****  * You may obtain a copy of the License at
  19:./Libraries/CMSIS/DSP/Source/BasicMathFunctions/arm_shift_q7.c ****  *
  20:./Libraries/CMSIS/DSP/Source/BasicMathFunctions/arm_shift_q7.c ****  * www.apache.org/licenses/LICENSE-2.0
  21:./Libraries/CMSIS/DSP/Source/BasicMathFunctions/arm_shift_q7.c ****  *
  22:./Libraries/CMSIS/DSP/Source/BasicMathFunctions/arm_shift_q7.c ****  * Unless required by applicable law or agreed to in writing, software
  23:./Libraries/CMSIS/DSP/Source/BasicMathFunctions/arm_shift_q7.c ****  * distributed under the License is distributed on an AS IS BASIS, WITHOUT
  24:./Libraries/CMSIS/DSP/Source/BasicMathFunctions/arm_shift_q7.c ****  * WARRANTIES OR CONDITIONS OF ANY KIND, either express or implied.
  25:./Libraries/CMSIS/DSP/Source/BasicMathFunctions/arm_shift_q7.c ****  * See the License for the specific language governing permissions and
  26:./Libraries/CMSIS/DSP/Source/BasicMathFunctions/arm_shift_q7.c ****  * limitations under the License.
  27:./Libraries/CMSIS/DSP/Source/BasicMathFunctions/arm_shift_q7.c ****  */
  28:./Libraries/CMSIS/DSP/Source/BasicMathFunctions/arm_shift_q7.c **** 
  29:./Libraries/CMSIS/DSP/Source/BasicMathFunctions/arm_shift_q7.c **** #include "arm_math.h"
  30:./Libraries/CMSIS/DSP/Source/BasicMathFunctions/arm_shift_q7.c **** 
  31:./Libraries/CMSIS/DSP/Source/BasicMathFunctions/arm_shift_q7.c **** /**
ARM GAS  /tmp/ccvkrT7x.s 			page 2


  32:./Libraries/CMSIS/DSP/Source/BasicMathFunctions/arm_shift_q7.c ****   @ingroup groupMath
  33:./Libraries/CMSIS/DSP/Source/BasicMathFunctions/arm_shift_q7.c ****  */
  34:./Libraries/CMSIS/DSP/Source/BasicMathFunctions/arm_shift_q7.c **** 
  35:./Libraries/CMSIS/DSP/Source/BasicMathFunctions/arm_shift_q7.c **** /**
  36:./Libraries/CMSIS/DSP/Source/BasicMathFunctions/arm_shift_q7.c ****   @addtogroup BasicShift
  37:./Libraries/CMSIS/DSP/Source/BasicMathFunctions/arm_shift_q7.c ****   @{
  38:./Libraries/CMSIS/DSP/Source/BasicMathFunctions/arm_shift_q7.c ****  */
  39:./Libraries/CMSIS/DSP/Source/BasicMathFunctions/arm_shift_q7.c **** 
  40:./Libraries/CMSIS/DSP/Source/BasicMathFunctions/arm_shift_q7.c **** /**
  41:./Libraries/CMSIS/DSP/Source/BasicMathFunctions/arm_shift_q7.c ****   @brief         Shifts the elements of a Q7 vector a specified number of bits
  42:./Libraries/CMSIS/DSP/Source/BasicMathFunctions/arm_shift_q7.c ****   @param[in]     pSrc       points to the input vector
  43:./Libraries/CMSIS/DSP/Source/BasicMathFunctions/arm_shift_q7.c ****   @param[in]     shiftBits  number of bits to shift.  A positive value shifts left; a negative valu
  44:./Libraries/CMSIS/DSP/Source/BasicMathFunctions/arm_shift_q7.c ****   @param[out]    pDst       points to the output vector
  45:./Libraries/CMSIS/DSP/Source/BasicMathFunctions/arm_shift_q7.c ****   @param[in]     blockSize  number of samples in each vector
  46:./Libraries/CMSIS/DSP/Source/BasicMathFunctions/arm_shift_q7.c ****   @return        none
  47:./Libraries/CMSIS/DSP/Source/BasicMathFunctions/arm_shift_q7.c **** 
  48:./Libraries/CMSIS/DSP/Source/BasicMathFunctions/arm_shift_q7.c ****   @par           onditions for optimum performance
  49:./Libraries/CMSIS/DSP/Source/BasicMathFunctions/arm_shift_q7.c ****                    Input and output buffers should be aligned by 32-bit
  50:./Libraries/CMSIS/DSP/Source/BasicMathFunctions/arm_shift_q7.c ****   @par           Scaling and Overflow Behavior
  51:./Libraries/CMSIS/DSP/Source/BasicMathFunctions/arm_shift_q7.c ****                    The function uses saturating arithmetic.
  52:./Libraries/CMSIS/DSP/Source/BasicMathFunctions/arm_shift_q7.c ****                    Results outside of the allowable Q7 range [0x80 0x7F] are saturated.
  53:./Libraries/CMSIS/DSP/Source/BasicMathFunctions/arm_shift_q7.c ****  */
  54:./Libraries/CMSIS/DSP/Source/BasicMathFunctions/arm_shift_q7.c **** 
  55:./Libraries/CMSIS/DSP/Source/BasicMathFunctions/arm_shift_q7.c **** void arm_shift_q7(
  56:./Libraries/CMSIS/DSP/Source/BasicMathFunctions/arm_shift_q7.c ****   const q7_t * pSrc,
  57:./Libraries/CMSIS/DSP/Source/BasicMathFunctions/arm_shift_q7.c ****         int8_t shiftBits,
  58:./Libraries/CMSIS/DSP/Source/BasicMathFunctions/arm_shift_q7.c ****         q7_t * pDst,
  59:./Libraries/CMSIS/DSP/Source/BasicMathFunctions/arm_shift_q7.c ****         uint32_t blockSize)
  60:./Libraries/CMSIS/DSP/Source/BasicMathFunctions/arm_shift_q7.c **** {
  28              		.loc 1 60 1
  29              		.cfi_startproc
  30              		@ args = 0, pretend = 0, frame = 32
  31              		@ frame_needed = 1, uses_anonymous_args = 0
  32              		@ link register save eliminated.
  33 0000 80B4     		push	{r7}
  34              	.LCFI0:
  35              		.cfi_def_cfa_offset 4
  36              		.cfi_offset 7, -4
  37 0002 89B0     		sub	sp, sp, #36
  38              	.LCFI1:
  39              		.cfi_def_cfa_offset 40
  40 0004 00AF     		add	r7, sp, #0
  41              	.LCFI2:
  42              		.cfi_def_cfa_register 7
  43 0006 F860     		str	r0, [r7, #12]
  44 0008 7A60     		str	r2, [r7, #4]
  45 000a 3B60     		str	r3, [r7]
  46 000c 0B46     		mov	r3, r1
  47 000e FB72     		strb	r3, [r7, #11]
  61:./Libraries/CMSIS/DSP/Source/BasicMathFunctions/arm_shift_q7.c ****         uint32_t blkCnt;                               /* Loop counter */
  62:./Libraries/CMSIS/DSP/Source/BasicMathFunctions/arm_shift_q7.c ****         uint8_t sign = (shiftBits & 0x80);             /* Sign of shiftBits */
  48              		.loc 1 62 35
  49 0010 FB7A     		ldrb	r3, [r7, #11]	@ zero_extendqisi2
  50              		.loc 1 62 17
  51 0012 23F07F03 		bic	r3, r3, #127
  52 0016 FB76     		strb	r3, [r7, #27]
  63:./Libraries/CMSIS/DSP/Source/BasicMathFunctions/arm_shift_q7.c **** 
ARM GAS  /tmp/ccvkrT7x.s 			page 3


  64:./Libraries/CMSIS/DSP/Source/BasicMathFunctions/arm_shift_q7.c **** #if defined (ARM_MATH_LOOPUNROLL)
  65:./Libraries/CMSIS/DSP/Source/BasicMathFunctions/arm_shift_q7.c **** 
  66:./Libraries/CMSIS/DSP/Source/BasicMathFunctions/arm_shift_q7.c **** #if defined (ARM_MATH_DSP)
  67:./Libraries/CMSIS/DSP/Source/BasicMathFunctions/arm_shift_q7.c ****   q7_t in1,  in2,  in3,  in4;                    /* Temporary input variables */
  68:./Libraries/CMSIS/DSP/Source/BasicMathFunctions/arm_shift_q7.c **** #endif
  69:./Libraries/CMSIS/DSP/Source/BasicMathFunctions/arm_shift_q7.c **** 
  70:./Libraries/CMSIS/DSP/Source/BasicMathFunctions/arm_shift_q7.c ****   /* Loop unrolling: Compute 4 outputs at a time */
  71:./Libraries/CMSIS/DSP/Source/BasicMathFunctions/arm_shift_q7.c ****   blkCnt = blockSize >> 2U;
  72:./Libraries/CMSIS/DSP/Source/BasicMathFunctions/arm_shift_q7.c **** 
  73:./Libraries/CMSIS/DSP/Source/BasicMathFunctions/arm_shift_q7.c ****   /* If the shift value is positive then do right shift else left shift */
  74:./Libraries/CMSIS/DSP/Source/BasicMathFunctions/arm_shift_q7.c ****   if (sign == 0U)
  75:./Libraries/CMSIS/DSP/Source/BasicMathFunctions/arm_shift_q7.c ****   {
  76:./Libraries/CMSIS/DSP/Source/BasicMathFunctions/arm_shift_q7.c ****     while (blkCnt > 0U)
  77:./Libraries/CMSIS/DSP/Source/BasicMathFunctions/arm_shift_q7.c ****     {
  78:./Libraries/CMSIS/DSP/Source/BasicMathFunctions/arm_shift_q7.c ****       /* C = A << shiftBits */
  79:./Libraries/CMSIS/DSP/Source/BasicMathFunctions/arm_shift_q7.c **** 
  80:./Libraries/CMSIS/DSP/Source/BasicMathFunctions/arm_shift_q7.c **** #if defined (ARM_MATH_DSP)
  81:./Libraries/CMSIS/DSP/Source/BasicMathFunctions/arm_shift_q7.c ****       /* Read 4 inputs */
  82:./Libraries/CMSIS/DSP/Source/BasicMathFunctions/arm_shift_q7.c ****       in1 = *pSrc++;
  83:./Libraries/CMSIS/DSP/Source/BasicMathFunctions/arm_shift_q7.c ****       in2 = *pSrc++;
  84:./Libraries/CMSIS/DSP/Source/BasicMathFunctions/arm_shift_q7.c ****       in3 = *pSrc++;
  85:./Libraries/CMSIS/DSP/Source/BasicMathFunctions/arm_shift_q7.c ****       in4 = *pSrc++;
  86:./Libraries/CMSIS/DSP/Source/BasicMathFunctions/arm_shift_q7.c **** 
  87:./Libraries/CMSIS/DSP/Source/BasicMathFunctions/arm_shift_q7.c ****     /* Pack and store result in destination buffer (in single write) */
  88:./Libraries/CMSIS/DSP/Source/BasicMathFunctions/arm_shift_q7.c ****       write_q7x4_ia (&pDst, __PACKq7(__SSAT((in1 << shiftBits), 8),
  89:./Libraries/CMSIS/DSP/Source/BasicMathFunctions/arm_shift_q7.c ****                                      __SSAT((in2 << shiftBits), 8),
  90:./Libraries/CMSIS/DSP/Source/BasicMathFunctions/arm_shift_q7.c ****                                      __SSAT((in3 << shiftBits), 8),
  91:./Libraries/CMSIS/DSP/Source/BasicMathFunctions/arm_shift_q7.c ****                                      __SSAT((in4 << shiftBits), 8) ));
  92:./Libraries/CMSIS/DSP/Source/BasicMathFunctions/arm_shift_q7.c **** #else
  93:./Libraries/CMSIS/DSP/Source/BasicMathFunctions/arm_shift_q7.c ****       *pDst++ = (q7_t) __SSAT(((q15_t) *pSrc++ << shiftBits), 8);
  94:./Libraries/CMSIS/DSP/Source/BasicMathFunctions/arm_shift_q7.c ****       *pDst++ = (q7_t) __SSAT(((q15_t) *pSrc++ << shiftBits), 8);
  95:./Libraries/CMSIS/DSP/Source/BasicMathFunctions/arm_shift_q7.c ****       *pDst++ = (q7_t) __SSAT(((q15_t) *pSrc++ << shiftBits), 8);
  96:./Libraries/CMSIS/DSP/Source/BasicMathFunctions/arm_shift_q7.c ****       *pDst++ = (q7_t) __SSAT(((q15_t) *pSrc++ << shiftBits), 8);
  97:./Libraries/CMSIS/DSP/Source/BasicMathFunctions/arm_shift_q7.c **** #endif
  98:./Libraries/CMSIS/DSP/Source/BasicMathFunctions/arm_shift_q7.c **** 
  99:./Libraries/CMSIS/DSP/Source/BasicMathFunctions/arm_shift_q7.c ****       /* Decrement loop counter */
 100:./Libraries/CMSIS/DSP/Source/BasicMathFunctions/arm_shift_q7.c ****       blkCnt--;
 101:./Libraries/CMSIS/DSP/Source/BasicMathFunctions/arm_shift_q7.c ****     }
 102:./Libraries/CMSIS/DSP/Source/BasicMathFunctions/arm_shift_q7.c ****   }
 103:./Libraries/CMSIS/DSP/Source/BasicMathFunctions/arm_shift_q7.c ****   else
 104:./Libraries/CMSIS/DSP/Source/BasicMathFunctions/arm_shift_q7.c ****   {
 105:./Libraries/CMSIS/DSP/Source/BasicMathFunctions/arm_shift_q7.c ****     while (blkCnt > 0U)
 106:./Libraries/CMSIS/DSP/Source/BasicMathFunctions/arm_shift_q7.c ****     {
 107:./Libraries/CMSIS/DSP/Source/BasicMathFunctions/arm_shift_q7.c ****       /* C = A >> shiftBits */
 108:./Libraries/CMSIS/DSP/Source/BasicMathFunctions/arm_shift_q7.c **** 
 109:./Libraries/CMSIS/DSP/Source/BasicMathFunctions/arm_shift_q7.c **** #if defined (ARM_MATH_DSP)
 110:./Libraries/CMSIS/DSP/Source/BasicMathFunctions/arm_shift_q7.c ****       /* Read 4 inputs */
 111:./Libraries/CMSIS/DSP/Source/BasicMathFunctions/arm_shift_q7.c ****       in1 = *pSrc++;
 112:./Libraries/CMSIS/DSP/Source/BasicMathFunctions/arm_shift_q7.c ****       in2 = *pSrc++;
 113:./Libraries/CMSIS/DSP/Source/BasicMathFunctions/arm_shift_q7.c ****       in3 = *pSrc++;
 114:./Libraries/CMSIS/DSP/Source/BasicMathFunctions/arm_shift_q7.c ****       in4 = *pSrc++;
 115:./Libraries/CMSIS/DSP/Source/BasicMathFunctions/arm_shift_q7.c **** 
 116:./Libraries/CMSIS/DSP/Source/BasicMathFunctions/arm_shift_q7.c ****     /* Pack and store result in destination buffer (in single write) */
 117:./Libraries/CMSIS/DSP/Source/BasicMathFunctions/arm_shift_q7.c ****       write_q7x4_ia (&pDst, __PACKq7((in1 >> -shiftBits),
 118:./Libraries/CMSIS/DSP/Source/BasicMathFunctions/arm_shift_q7.c ****                                      (in2 >> -shiftBits),
 119:./Libraries/CMSIS/DSP/Source/BasicMathFunctions/arm_shift_q7.c ****                                      (in3 >> -shiftBits),
 120:./Libraries/CMSIS/DSP/Source/BasicMathFunctions/arm_shift_q7.c ****                                      (in4 >> -shiftBits) ));
ARM GAS  /tmp/ccvkrT7x.s 			page 4


 121:./Libraries/CMSIS/DSP/Source/BasicMathFunctions/arm_shift_q7.c **** #else
 122:./Libraries/CMSIS/DSP/Source/BasicMathFunctions/arm_shift_q7.c ****       *pDst++ = (*pSrc++ >> -shiftBits);
 123:./Libraries/CMSIS/DSP/Source/BasicMathFunctions/arm_shift_q7.c ****       *pDst++ = (*pSrc++ >> -shiftBits);
 124:./Libraries/CMSIS/DSP/Source/BasicMathFunctions/arm_shift_q7.c ****       *pDst++ = (*pSrc++ >> -shiftBits);
 125:./Libraries/CMSIS/DSP/Source/BasicMathFunctions/arm_shift_q7.c ****       *pDst++ = (*pSrc++ >> -shiftBits);
 126:./Libraries/CMSIS/DSP/Source/BasicMathFunctions/arm_shift_q7.c **** #endif
 127:./Libraries/CMSIS/DSP/Source/BasicMathFunctions/arm_shift_q7.c **** 
 128:./Libraries/CMSIS/DSP/Source/BasicMathFunctions/arm_shift_q7.c ****       /* Decrement loop counter */
 129:./Libraries/CMSIS/DSP/Source/BasicMathFunctions/arm_shift_q7.c ****       blkCnt--;
 130:./Libraries/CMSIS/DSP/Source/BasicMathFunctions/arm_shift_q7.c ****     }
 131:./Libraries/CMSIS/DSP/Source/BasicMathFunctions/arm_shift_q7.c ****   }
 132:./Libraries/CMSIS/DSP/Source/BasicMathFunctions/arm_shift_q7.c **** 
 133:./Libraries/CMSIS/DSP/Source/BasicMathFunctions/arm_shift_q7.c ****   /* Loop unrolling: Compute remaining outputs */
 134:./Libraries/CMSIS/DSP/Source/BasicMathFunctions/arm_shift_q7.c ****   blkCnt = blockSize % 0x4U;
 135:./Libraries/CMSIS/DSP/Source/BasicMathFunctions/arm_shift_q7.c **** 
 136:./Libraries/CMSIS/DSP/Source/BasicMathFunctions/arm_shift_q7.c **** #else
 137:./Libraries/CMSIS/DSP/Source/BasicMathFunctions/arm_shift_q7.c **** 
 138:./Libraries/CMSIS/DSP/Source/BasicMathFunctions/arm_shift_q7.c ****   /* Initialize blkCnt with number of samples */
 139:./Libraries/CMSIS/DSP/Source/BasicMathFunctions/arm_shift_q7.c ****   blkCnt = blockSize;
  53              		.loc 1 139 10
  54 0018 3B68     		ldr	r3, [r7]
  55 001a FB61     		str	r3, [r7, #28]
 140:./Libraries/CMSIS/DSP/Source/BasicMathFunctions/arm_shift_q7.c **** 
 141:./Libraries/CMSIS/DSP/Source/BasicMathFunctions/arm_shift_q7.c **** #endif /* #if defined (ARM_MATH_LOOPUNROLL) */
 142:./Libraries/CMSIS/DSP/Source/BasicMathFunctions/arm_shift_q7.c **** 
 143:./Libraries/CMSIS/DSP/Source/BasicMathFunctions/arm_shift_q7.c ****   /* If the shift value is positive then do right shift else left shift */
 144:./Libraries/CMSIS/DSP/Source/BasicMathFunctions/arm_shift_q7.c ****   if (sign == 0U)
  56              		.loc 1 144 6
  57 001c FB7E     		ldrb	r3, [r7, #27]	@ zero_extendqisi2
  58 001e 002B     		cmp	r3, #0
  59 0020 2FD1     		bne	.L6
 145:./Libraries/CMSIS/DSP/Source/BasicMathFunctions/arm_shift_q7.c ****   {
 146:./Libraries/CMSIS/DSP/Source/BasicMathFunctions/arm_shift_q7.c ****     while (blkCnt > 0U)
  60              		.loc 1 146 11
  61 0022 17E0     		b	.L3
  62              	.L4:
  63              	.LBB2:
 147:./Libraries/CMSIS/DSP/Source/BasicMathFunctions/arm_shift_q7.c ****     {
 148:./Libraries/CMSIS/DSP/Source/BasicMathFunctions/arm_shift_q7.c ****       /* C = A << shiftBits */
 149:./Libraries/CMSIS/DSP/Source/BasicMathFunctions/arm_shift_q7.c **** 
 150:./Libraries/CMSIS/DSP/Source/BasicMathFunctions/arm_shift_q7.c ****       /* Shift input and store result in destination buffer. */
 151:./Libraries/CMSIS/DSP/Source/BasicMathFunctions/arm_shift_q7.c ****       *pDst++ = (q7_t) __SSAT(((q15_t) *pSrc++ << shiftBits), 8);
  64              		.loc 1 151 24
  65 0024 FB68     		ldr	r3, [r7, #12]
  66 0026 5A1C     		adds	r2, r3, #1
  67 0028 FA60     		str	r2, [r7, #12]
  68 002a 93F90030 		ldrsb	r3, [r3]
  69 002e 1A46     		mov	r2, r3
  70 0030 97F90B30 		ldrsb	r3, [r7, #11]
  71 0034 02FA03F3 		lsl	r3, r2, r3
  72 0038 7B61     		str	r3, [r7, #20]
  73 003a 7B69     		ldr	r3, [r7, #20]
  74              		.syntax unified
  75              	@ 151 "./Libraries/CMSIS/DSP/Source/BasicMathFunctions/arm_shift_q7.c" 1
  76 003c 03F30703 		ssat r3, #8, r3
  77              	@ 0 "" 2
  78              		.thumb
ARM GAS  /tmp/ccvkrT7x.s 			page 5


  79              		.syntax unified
  80 0040 3B61     		str	r3, [r7, #16]
  81 0042 3969     		ldr	r1, [r7, #16]
  82              	.LBE2:
  83              		.loc 1 151 12
  84 0044 7B68     		ldr	r3, [r7, #4]
  85 0046 5A1C     		adds	r2, r3, #1
  86 0048 7A60     		str	r2, [r7, #4]
  87              		.loc 1 151 17
  88 004a 4AB2     		sxtb	r2, r1
  89              		.loc 1 151 15
  90 004c 1A70     		strb	r2, [r3]
 152:./Libraries/CMSIS/DSP/Source/BasicMathFunctions/arm_shift_q7.c **** 
 153:./Libraries/CMSIS/DSP/Source/BasicMathFunctions/arm_shift_q7.c ****       /* Decrement loop counter */
 154:./Libraries/CMSIS/DSP/Source/BasicMathFunctions/arm_shift_q7.c ****       blkCnt--;
  91              		.loc 1 154 13
  92 004e FB69     		ldr	r3, [r7, #28]
  93 0050 013B     		subs	r3, r3, #1
  94 0052 FB61     		str	r3, [r7, #28]
  95              	.L3:
 146:./Libraries/CMSIS/DSP/Source/BasicMathFunctions/arm_shift_q7.c ****     {
  96              		.loc 1 146 11
  97 0054 FB69     		ldr	r3, [r7, #28]
  98 0056 002B     		cmp	r3, #0
  99 0058 E4D1     		bne	.L4
 155:./Libraries/CMSIS/DSP/Source/BasicMathFunctions/arm_shift_q7.c ****     }
 156:./Libraries/CMSIS/DSP/Source/BasicMathFunctions/arm_shift_q7.c ****   }
 157:./Libraries/CMSIS/DSP/Source/BasicMathFunctions/arm_shift_q7.c ****   else
 158:./Libraries/CMSIS/DSP/Source/BasicMathFunctions/arm_shift_q7.c ****   {
 159:./Libraries/CMSIS/DSP/Source/BasicMathFunctions/arm_shift_q7.c ****     while (blkCnt > 0U)
 160:./Libraries/CMSIS/DSP/Source/BasicMathFunctions/arm_shift_q7.c ****     {
 161:./Libraries/CMSIS/DSP/Source/BasicMathFunctions/arm_shift_q7.c ****       /* C = A >> shiftBits */
 162:./Libraries/CMSIS/DSP/Source/BasicMathFunctions/arm_shift_q7.c **** 
 163:./Libraries/CMSIS/DSP/Source/BasicMathFunctions/arm_shift_q7.c ****       /* Shift input and store result in destination buffer. */
 164:./Libraries/CMSIS/DSP/Source/BasicMathFunctions/arm_shift_q7.c ****       *pDst++ = (*pSrc++ >> -shiftBits);
 165:./Libraries/CMSIS/DSP/Source/BasicMathFunctions/arm_shift_q7.c **** 
 166:./Libraries/CMSIS/DSP/Source/BasicMathFunctions/arm_shift_q7.c ****       /* Decrement loop counter */
 167:./Libraries/CMSIS/DSP/Source/BasicMathFunctions/arm_shift_q7.c ****       blkCnt--;
 168:./Libraries/CMSIS/DSP/Source/BasicMathFunctions/arm_shift_q7.c ****     }
 169:./Libraries/CMSIS/DSP/Source/BasicMathFunctions/arm_shift_q7.c ****   }
 170:./Libraries/CMSIS/DSP/Source/BasicMathFunctions/arm_shift_q7.c **** 
 171:./Libraries/CMSIS/DSP/Source/BasicMathFunctions/arm_shift_q7.c **** }
 100              		.loc 1 171 1
 101 005a 15E0     		b	.L8
 102              	.L7:
 164:./Libraries/CMSIS/DSP/Source/BasicMathFunctions/arm_shift_q7.c **** 
 103              		.loc 1 164 23
 104 005c FB68     		ldr	r3, [r7, #12]
 105 005e 5A1C     		adds	r2, r3, #1
 106 0060 FA60     		str	r2, [r7, #12]
 164:./Libraries/CMSIS/DSP/Source/BasicMathFunctions/arm_shift_q7.c **** 
 107              		.loc 1 164 18
 108 0062 93F90030 		ldrsb	r3, [r3]
 109 0066 1A46     		mov	r2, r3
 164:./Libraries/CMSIS/DSP/Source/BasicMathFunctions/arm_shift_q7.c **** 
 110              		.loc 1 164 29
 111 0068 97F90B30 		ldrsb	r3, [r7, #11]
ARM GAS  /tmp/ccvkrT7x.s 			page 6


 112 006c 5B42     		rsbs	r3, r3, #0
 164:./Libraries/CMSIS/DSP/Source/BasicMathFunctions/arm_shift_q7.c **** 
 113              		.loc 1 164 26
 114 006e 42FA03F1 		asr	r1, r2, r3
 164:./Libraries/CMSIS/DSP/Source/BasicMathFunctions/arm_shift_q7.c **** 
 115              		.loc 1 164 12
 116 0072 7B68     		ldr	r3, [r7, #4]
 117 0074 5A1C     		adds	r2, r3, #1
 118 0076 7A60     		str	r2, [r7, #4]
 164:./Libraries/CMSIS/DSP/Source/BasicMathFunctions/arm_shift_q7.c **** 
 119              		.loc 1 164 15
 120 0078 4AB2     		sxtb	r2, r1
 121 007a 1A70     		strb	r2, [r3]
 167:./Libraries/CMSIS/DSP/Source/BasicMathFunctions/arm_shift_q7.c ****     }
 122              		.loc 1 167 13
 123 007c FB69     		ldr	r3, [r7, #28]
 124 007e 013B     		subs	r3, r3, #1
 125 0080 FB61     		str	r3, [r7, #28]
 126              	.L6:
 159:./Libraries/CMSIS/DSP/Source/BasicMathFunctions/arm_shift_q7.c ****     {
 127              		.loc 1 159 11
 128 0082 FB69     		ldr	r3, [r7, #28]
 129 0084 002B     		cmp	r3, #0
 130 0086 E9D1     		bne	.L7
 131              	.L8:
 132              		.loc 1 171 1
 133 0088 00BF     		nop
 134 008a 2437     		adds	r7, r7, #36
 135              	.LCFI3:
 136              		.cfi_def_cfa_offset 4
 137 008c BD46     		mov	sp, r7
 138              	.LCFI4:
 139              		.cfi_def_cfa_register 13
 140              		@ sp needed
 141 008e 5DF8047B 		ldr	r7, [sp], #4
 142              	.LCFI5:
 143              		.cfi_restore 7
 144              		.cfi_def_cfa_offset 0
 145 0092 7047     		bx	lr
 146              		.cfi_endproc
 147              	.LFE145:
 149              		.text
 150              	.Letext0:
 151              		.file 2 "/usr/lib/gcc/arm-none-eabi/9.2.1/include/stdint.h"
 152              		.file 3 "/usr/lib/gcc/arm-none-eabi/9.2.1/include/stddef.h"
 153              		.file 4 "/usr/include/newlib/sys/_types.h"
 154              		.file 5 "/usr/include/newlib/sys/reent.h"
 155              		.file 6 "/usr/include/newlib/sys/lock.h"
 156              		.file 7 "/usr/include/newlib/math.h"
 157              		.file 8 "./Libraries/CMSIS/DSP/Include/arm_math.h"
ARM GAS  /tmp/ccvkrT7x.s 			page 7

