ARM GAS  /tmp/cczIha8f.s 			page 1


   1              		.cpu cortex-m7
   2              		.eabi_attribute 28, 1
   3              		.eabi_attribute 20, 1
   4              		.eabi_attribute 21, 1
   5              		.eabi_attribute 23, 3
   6              		.eabi_attribute 24, 1
   7              		.eabi_attribute 25, 1
   8              		.eabi_attribute 26, 1
   9              		.eabi_attribute 30, 6
  10              		.eabi_attribute 34, 1
  11              		.eabi_attribute 18, 4
  12              		.file	"arm_fir_decimate_f32.c"
  13              		.text
  14              	.Ltext0:
  15              		.cfi_sections	.debug_frame
  16              		.section	.text.arm_fir_decimate_f32,"ax",%progbits
  17              		.align	1
  18              		.global	arm_fir_decimate_f32
  19              		.arch armv7e-m
  20              		.syntax unified
  21              		.thumb
  22              		.thumb_func
  23              		.fpu fpv5-d16
  25              	arm_fir_decimate_f32:
  26              	.LFB145:
  27              		.file 1 "./Libraries/CMSIS/DSP/Source/FilteringFunctions/arm_fir_decimate_f32.c"
   1:./Libraries/CMSIS/DSP/Source/FilteringFunctions/arm_fir_decimate_f32.c **** /* ----------------------------------------------------------------------
   2:./Libraries/CMSIS/DSP/Source/FilteringFunctions/arm_fir_decimate_f32.c ****  * Project:      CMSIS DSP Library
   3:./Libraries/CMSIS/DSP/Source/FilteringFunctions/arm_fir_decimate_f32.c ****  * Title:        arm_fir_decimate_f32.c
   4:./Libraries/CMSIS/DSP/Source/FilteringFunctions/arm_fir_decimate_f32.c ****  * Description:  FIR decimation for floating-point sequences
   5:./Libraries/CMSIS/DSP/Source/FilteringFunctions/arm_fir_decimate_f32.c ****  *
   6:./Libraries/CMSIS/DSP/Source/FilteringFunctions/arm_fir_decimate_f32.c ****  * $Date:        18. March 2019
   7:./Libraries/CMSIS/DSP/Source/FilteringFunctions/arm_fir_decimate_f32.c ****  * $Revision:    V1.6.0
   8:./Libraries/CMSIS/DSP/Source/FilteringFunctions/arm_fir_decimate_f32.c ****  *
   9:./Libraries/CMSIS/DSP/Source/FilteringFunctions/arm_fir_decimate_f32.c ****  * Target Processor: Cortex-M cores
  10:./Libraries/CMSIS/DSP/Source/FilteringFunctions/arm_fir_decimate_f32.c ****  * -------------------------------------------------------------------- */
  11:./Libraries/CMSIS/DSP/Source/FilteringFunctions/arm_fir_decimate_f32.c **** /*
  12:./Libraries/CMSIS/DSP/Source/FilteringFunctions/arm_fir_decimate_f32.c ****  * Copyright (C) 2010-2019 ARM Limited or its affiliates. All rights reserved.
  13:./Libraries/CMSIS/DSP/Source/FilteringFunctions/arm_fir_decimate_f32.c ****  *
  14:./Libraries/CMSIS/DSP/Source/FilteringFunctions/arm_fir_decimate_f32.c ****  * SPDX-License-Identifier: Apache-2.0
  15:./Libraries/CMSIS/DSP/Source/FilteringFunctions/arm_fir_decimate_f32.c ****  *
  16:./Libraries/CMSIS/DSP/Source/FilteringFunctions/arm_fir_decimate_f32.c ****  * Licensed under the Apache License, Version 2.0 (the License); you may
  17:./Libraries/CMSIS/DSP/Source/FilteringFunctions/arm_fir_decimate_f32.c ****  * not use this file except in compliance with the License.
  18:./Libraries/CMSIS/DSP/Source/FilteringFunctions/arm_fir_decimate_f32.c ****  * You may obtain a copy of the License at
  19:./Libraries/CMSIS/DSP/Source/FilteringFunctions/arm_fir_decimate_f32.c ****  *
  20:./Libraries/CMSIS/DSP/Source/FilteringFunctions/arm_fir_decimate_f32.c ****  * www.apache.org/licenses/LICENSE-2.0
  21:./Libraries/CMSIS/DSP/Source/FilteringFunctions/arm_fir_decimate_f32.c ****  *
  22:./Libraries/CMSIS/DSP/Source/FilteringFunctions/arm_fir_decimate_f32.c ****  * Unless required by applicable law or agreed to in writing, software
  23:./Libraries/CMSIS/DSP/Source/FilteringFunctions/arm_fir_decimate_f32.c ****  * distributed under the License is distributed on an AS IS BASIS, WITHOUT
  24:./Libraries/CMSIS/DSP/Source/FilteringFunctions/arm_fir_decimate_f32.c ****  * WARRANTIES OR CONDITIONS OF ANY KIND, either express or implied.
  25:./Libraries/CMSIS/DSP/Source/FilteringFunctions/arm_fir_decimate_f32.c ****  * See the License for the specific language governing permissions and
  26:./Libraries/CMSIS/DSP/Source/FilteringFunctions/arm_fir_decimate_f32.c ****  * limitations under the License.
  27:./Libraries/CMSIS/DSP/Source/FilteringFunctions/arm_fir_decimate_f32.c ****  */
  28:./Libraries/CMSIS/DSP/Source/FilteringFunctions/arm_fir_decimate_f32.c **** 
  29:./Libraries/CMSIS/DSP/Source/FilteringFunctions/arm_fir_decimate_f32.c **** #include "arm_math.h"
  30:./Libraries/CMSIS/DSP/Source/FilteringFunctions/arm_fir_decimate_f32.c **** 
  31:./Libraries/CMSIS/DSP/Source/FilteringFunctions/arm_fir_decimate_f32.c **** /**
ARM GAS  /tmp/cczIha8f.s 			page 2


  32:./Libraries/CMSIS/DSP/Source/FilteringFunctions/arm_fir_decimate_f32.c ****   @ingroup groupFilters
  33:./Libraries/CMSIS/DSP/Source/FilteringFunctions/arm_fir_decimate_f32.c ****  */
  34:./Libraries/CMSIS/DSP/Source/FilteringFunctions/arm_fir_decimate_f32.c **** 
  35:./Libraries/CMSIS/DSP/Source/FilteringFunctions/arm_fir_decimate_f32.c **** /**
  36:./Libraries/CMSIS/DSP/Source/FilteringFunctions/arm_fir_decimate_f32.c ****   @defgroup FIR_decimate Finite Impulse Response (FIR) Decimator
  37:./Libraries/CMSIS/DSP/Source/FilteringFunctions/arm_fir_decimate_f32.c **** 
  38:./Libraries/CMSIS/DSP/Source/FilteringFunctions/arm_fir_decimate_f32.c ****   These functions combine an FIR filter together with a decimator.
  39:./Libraries/CMSIS/DSP/Source/FilteringFunctions/arm_fir_decimate_f32.c ****   They are used in multirate systems for reducing the sample rate of a signal without introducing a
  40:./Libraries/CMSIS/DSP/Source/FilteringFunctions/arm_fir_decimate_f32.c ****   Conceptually, the functions are equivalent to the block diagram below:
  41:./Libraries/CMSIS/DSP/Source/FilteringFunctions/arm_fir_decimate_f32.c ****   \image html FIRDecimator.gif "Components included in the FIR Decimator functions"
  42:./Libraries/CMSIS/DSP/Source/FilteringFunctions/arm_fir_decimate_f32.c ****   When decimating by a factor of <code>M</code>, the signal should be prefiltered by a lowpass filt
  43:./Libraries/CMSIS/DSP/Source/FilteringFunctions/arm_fir_decimate_f32.c ****   cutoff frequency of <code>1/M</code> in order to prevent aliasing distortion.
  44:./Libraries/CMSIS/DSP/Source/FilteringFunctions/arm_fir_decimate_f32.c ****   The user of the function is responsible for providing the filter coefficients.
  45:./Libraries/CMSIS/DSP/Source/FilteringFunctions/arm_fir_decimate_f32.c **** 
  46:./Libraries/CMSIS/DSP/Source/FilteringFunctions/arm_fir_decimate_f32.c ****   The FIR decimator functions provided in the CMSIS DSP Library combine the FIR filter and the deci
  47:./Libraries/CMSIS/DSP/Source/FilteringFunctions/arm_fir_decimate_f32.c ****   Instead of calculating all of the FIR filter outputs and discarding <code>M-1</code> out of every
  48:./Libraries/CMSIS/DSP/Source/FilteringFunctions/arm_fir_decimate_f32.c ****   samples output by the decimator are computed.
  49:./Libraries/CMSIS/DSP/Source/FilteringFunctions/arm_fir_decimate_f32.c ****   The functions operate on blocks of input and output data.
  50:./Libraries/CMSIS/DSP/Source/FilteringFunctions/arm_fir_decimate_f32.c ****   <code>pSrc</code> points to an array of <code>blockSize</code> input values and
  51:./Libraries/CMSIS/DSP/Source/FilteringFunctions/arm_fir_decimate_f32.c ****   <code>pDst</code> points to an array of <code>blockSize/M</code> output values.
  52:./Libraries/CMSIS/DSP/Source/FilteringFunctions/arm_fir_decimate_f32.c ****   In order to have an integer number of output samples <code>blockSize</code>
  53:./Libraries/CMSIS/DSP/Source/FilteringFunctions/arm_fir_decimate_f32.c ****   must always be a multiple of the decimation factor <code>M</code>.
  54:./Libraries/CMSIS/DSP/Source/FilteringFunctions/arm_fir_decimate_f32.c **** 
  55:./Libraries/CMSIS/DSP/Source/FilteringFunctions/arm_fir_decimate_f32.c ****   The library provides separate functions for Q15, Q31 and floating-point data types.
  56:./Libraries/CMSIS/DSP/Source/FilteringFunctions/arm_fir_decimate_f32.c **** 
  57:./Libraries/CMSIS/DSP/Source/FilteringFunctions/arm_fir_decimate_f32.c ****   @par           Algorithm:
  58:./Libraries/CMSIS/DSP/Source/FilteringFunctions/arm_fir_decimate_f32.c ****                    The FIR portion of the algorithm uses the standard form filter:
  59:./Libraries/CMSIS/DSP/Source/FilteringFunctions/arm_fir_decimate_f32.c ****   <pre>
  60:./Libraries/CMSIS/DSP/Source/FilteringFunctions/arm_fir_decimate_f32.c ****       y[n] = b[0] * x[n] + b[1] * x[n-1] + b[2] * x[n-2] + ...+ b[numTaps-1] * x[n-numTaps+1]
  61:./Libraries/CMSIS/DSP/Source/FilteringFunctions/arm_fir_decimate_f32.c ****   </pre>
  62:./Libraries/CMSIS/DSP/Source/FilteringFunctions/arm_fir_decimate_f32.c ****                    where, <code>b[n]</code> are the filter coefficients.
  63:./Libraries/CMSIS/DSP/Source/FilteringFunctions/arm_fir_decimate_f32.c ****   @par
  64:./Libraries/CMSIS/DSP/Source/FilteringFunctions/arm_fir_decimate_f32.c ****                    The <code>pCoeffs</code> points to a coefficient array of size <code>numTaps</co
  65:./Libraries/CMSIS/DSP/Source/FilteringFunctions/arm_fir_decimate_f32.c ****                    Coefficients are stored in time reversed order.
  66:./Libraries/CMSIS/DSP/Source/FilteringFunctions/arm_fir_decimate_f32.c ****   @par
  67:./Libraries/CMSIS/DSP/Source/FilteringFunctions/arm_fir_decimate_f32.c ****   <pre>
  68:./Libraries/CMSIS/DSP/Source/FilteringFunctions/arm_fir_decimate_f32.c ****       {b[numTaps-1], b[numTaps-2], b[N-2], ..., b[1], b[0]}
  69:./Libraries/CMSIS/DSP/Source/FilteringFunctions/arm_fir_decimate_f32.c ****   </pre>
  70:./Libraries/CMSIS/DSP/Source/FilteringFunctions/arm_fir_decimate_f32.c ****   @par
  71:./Libraries/CMSIS/DSP/Source/FilteringFunctions/arm_fir_decimate_f32.c ****                    <code>pState</code> points to a state array of size <code>numTaps + blockSize - 
  72:./Libraries/CMSIS/DSP/Source/FilteringFunctions/arm_fir_decimate_f32.c ****                    Samples in the state buffer are stored in the order:
  73:./Libraries/CMSIS/DSP/Source/FilteringFunctions/arm_fir_decimate_f32.c ****   @par
  74:./Libraries/CMSIS/DSP/Source/FilteringFunctions/arm_fir_decimate_f32.c ****   <pre>
  75:./Libraries/CMSIS/DSP/Source/FilteringFunctions/arm_fir_decimate_f32.c ****       {x[n-numTaps+1], x[n-numTaps], x[n-numTaps-1], x[n-numTaps-2]....x[0], x[1], ..., x[blockSize
  76:./Libraries/CMSIS/DSP/Source/FilteringFunctions/arm_fir_decimate_f32.c ****   </pre>
  77:./Libraries/CMSIS/DSP/Source/FilteringFunctions/arm_fir_decimate_f32.c ****                    The state variables are updated after each block of data is processed, the coeff
  78:./Libraries/CMSIS/DSP/Source/FilteringFunctions/arm_fir_decimate_f32.c **** 
  79:./Libraries/CMSIS/DSP/Source/FilteringFunctions/arm_fir_decimate_f32.c ****   @par           Instance Structure
  80:./Libraries/CMSIS/DSP/Source/FilteringFunctions/arm_fir_decimate_f32.c ****                    The coefficients and state variables for a filter are stored together in an inst
  81:./Libraries/CMSIS/DSP/Source/FilteringFunctions/arm_fir_decimate_f32.c ****                    A separate instance structure must be defined for each filter.
  82:./Libraries/CMSIS/DSP/Source/FilteringFunctions/arm_fir_decimate_f32.c ****                    Coefficient arrays may be shared among several instances while state variable ar
  83:./Libraries/CMSIS/DSP/Source/FilteringFunctions/arm_fir_decimate_f32.c ****                    There are separate instance structure declarations for each of the 3 supported d
  84:./Libraries/CMSIS/DSP/Source/FilteringFunctions/arm_fir_decimate_f32.c **** 
  85:./Libraries/CMSIS/DSP/Source/FilteringFunctions/arm_fir_decimate_f32.c ****  @par            Initialization Functions
  86:./Libraries/CMSIS/DSP/Source/FilteringFunctions/arm_fir_decimate_f32.c ****                    There is also an associated initialization function for each data type.
  87:./Libraries/CMSIS/DSP/Source/FilteringFunctions/arm_fir_decimate_f32.c ****                    The initialization function performs the following operations:
  88:./Libraries/CMSIS/DSP/Source/FilteringFunctions/arm_fir_decimate_f32.c ****                    - Sets the values of the internal structure fields.
ARM GAS  /tmp/cczIha8f.s 			page 3


  89:./Libraries/CMSIS/DSP/Source/FilteringFunctions/arm_fir_decimate_f32.c ****                    - Zeros out the values in the state buffer.
  90:./Libraries/CMSIS/DSP/Source/FilteringFunctions/arm_fir_decimate_f32.c ****                    - Checks to make sure that the size of the input is a multiple of the decimation
  91:./Libraries/CMSIS/DSP/Source/FilteringFunctions/arm_fir_decimate_f32.c ****                    To do this manually without calling the init function, assign the follow subfiel
  92:./Libraries/CMSIS/DSP/Source/FilteringFunctions/arm_fir_decimate_f32.c ****                    numTaps, pCoeffs, M (decimation factor), pState. Also set all of the values in p
  93:./Libraries/CMSIS/DSP/Source/FilteringFunctions/arm_fir_decimate_f32.c ****   @par
  94:./Libraries/CMSIS/DSP/Source/FilteringFunctions/arm_fir_decimate_f32.c ****                    Use of the initialization function is optional.
  95:./Libraries/CMSIS/DSP/Source/FilteringFunctions/arm_fir_decimate_f32.c ****                    However, if the initialization function is used, then the instance structure can
  96:./Libraries/CMSIS/DSP/Source/FilteringFunctions/arm_fir_decimate_f32.c ****                    To place an instance structure into a const data section, the instance structure
  97:./Libraries/CMSIS/DSP/Source/FilteringFunctions/arm_fir_decimate_f32.c ****                    The code below statically initializes each of the 3 different data type filter i
  98:./Libraries/CMSIS/DSP/Source/FilteringFunctions/arm_fir_decimate_f32.c ****   <pre>
  99:./Libraries/CMSIS/DSP/Source/FilteringFunctions/arm_fir_decimate_f32.c ****       arm_fir_decimate_instance_f32 S = {M, numTaps, pCoeffs, pState};
 100:./Libraries/CMSIS/DSP/Source/FilteringFunctions/arm_fir_decimate_f32.c ****       arm_fir_decimate_instance_q31 S = {M, numTaps, pCoeffs, pState};
 101:./Libraries/CMSIS/DSP/Source/FilteringFunctions/arm_fir_decimate_f32.c ****       arm_fir_decimate_instance_q15 S = {M, numTaps, pCoeffs, pState};
 102:./Libraries/CMSIS/DSP/Source/FilteringFunctions/arm_fir_decimate_f32.c ****   </pre>
 103:./Libraries/CMSIS/DSP/Source/FilteringFunctions/arm_fir_decimate_f32.c ****                    where <code>M</code> is the decimation factor; <code>numTaps</code> is the numbe
 104:./Libraries/CMSIS/DSP/Source/FilteringFunctions/arm_fir_decimate_f32.c ****                    <code>pCoeffs</code> is the address of the coefficient buffer;
 105:./Libraries/CMSIS/DSP/Source/FilteringFunctions/arm_fir_decimate_f32.c ****                    <code>pState</code> is the address of the state buffer.
 106:./Libraries/CMSIS/DSP/Source/FilteringFunctions/arm_fir_decimate_f32.c ****                    Be sure to set the values in the state buffer to zeros when doing static initial
 107:./Libraries/CMSIS/DSP/Source/FilteringFunctions/arm_fir_decimate_f32.c **** 
 108:./Libraries/CMSIS/DSP/Source/FilteringFunctions/arm_fir_decimate_f32.c ****   @par           Fixed-Point Behavior
 109:./Libraries/CMSIS/DSP/Source/FilteringFunctions/arm_fir_decimate_f32.c ****                    Care must be taken when using the fixed-point versions of the FIR decimate filte
 110:./Libraries/CMSIS/DSP/Source/FilteringFunctions/arm_fir_decimate_f32.c ****                    In particular, the overflow and saturation behavior of the accumulator used in e
 111:./Libraries/CMSIS/DSP/Source/FilteringFunctions/arm_fir_decimate_f32.c ****                    Refer to the function specific documentation below for usage guidelines.
 112:./Libraries/CMSIS/DSP/Source/FilteringFunctions/arm_fir_decimate_f32.c ****  */
 113:./Libraries/CMSIS/DSP/Source/FilteringFunctions/arm_fir_decimate_f32.c **** 
 114:./Libraries/CMSIS/DSP/Source/FilteringFunctions/arm_fir_decimate_f32.c **** /**
 115:./Libraries/CMSIS/DSP/Source/FilteringFunctions/arm_fir_decimate_f32.c ****   @addtogroup FIR_decimate
 116:./Libraries/CMSIS/DSP/Source/FilteringFunctions/arm_fir_decimate_f32.c ****   @{
 117:./Libraries/CMSIS/DSP/Source/FilteringFunctions/arm_fir_decimate_f32.c ****  */
 118:./Libraries/CMSIS/DSP/Source/FilteringFunctions/arm_fir_decimate_f32.c **** 
 119:./Libraries/CMSIS/DSP/Source/FilteringFunctions/arm_fir_decimate_f32.c **** /**
 120:./Libraries/CMSIS/DSP/Source/FilteringFunctions/arm_fir_decimate_f32.c ****   @brief         Processing function for floating-point FIR decimator.
 121:./Libraries/CMSIS/DSP/Source/FilteringFunctions/arm_fir_decimate_f32.c ****   @param[in]     S         points to an instance of the floating-point FIR decimator structure
 122:./Libraries/CMSIS/DSP/Source/FilteringFunctions/arm_fir_decimate_f32.c ****   @param[in]     pSrc      points to the block of input data
 123:./Libraries/CMSIS/DSP/Source/FilteringFunctions/arm_fir_decimate_f32.c ****   @param[out]    pDst      points to the block of output data
 124:./Libraries/CMSIS/DSP/Source/FilteringFunctions/arm_fir_decimate_f32.c ****   @param[in]     blockSize number of samples to process
 125:./Libraries/CMSIS/DSP/Source/FilteringFunctions/arm_fir_decimate_f32.c ****   @return        none
 126:./Libraries/CMSIS/DSP/Source/FilteringFunctions/arm_fir_decimate_f32.c ****  */
 127:./Libraries/CMSIS/DSP/Source/FilteringFunctions/arm_fir_decimate_f32.c **** 
 128:./Libraries/CMSIS/DSP/Source/FilteringFunctions/arm_fir_decimate_f32.c **** #if defined(ARM_MATH_NEON)
 129:./Libraries/CMSIS/DSP/Source/FilteringFunctions/arm_fir_decimate_f32.c **** void arm_fir_decimate_f32(
 130:./Libraries/CMSIS/DSP/Source/FilteringFunctions/arm_fir_decimate_f32.c ****   const arm_fir_decimate_instance_f32 * S,
 131:./Libraries/CMSIS/DSP/Source/FilteringFunctions/arm_fir_decimate_f32.c ****   const float32_t * pSrc,
 132:./Libraries/CMSIS/DSP/Source/FilteringFunctions/arm_fir_decimate_f32.c ****   float32_t * pDst,
 133:./Libraries/CMSIS/DSP/Source/FilteringFunctions/arm_fir_decimate_f32.c ****   uint32_t blockSize)
 134:./Libraries/CMSIS/DSP/Source/FilteringFunctions/arm_fir_decimate_f32.c **** {
 135:./Libraries/CMSIS/DSP/Source/FilteringFunctions/arm_fir_decimate_f32.c ****   float32_t *pState = S->pState;                 /* State pointer */
 136:./Libraries/CMSIS/DSP/Source/FilteringFunctions/arm_fir_decimate_f32.c ****   const float32_t *pCoeffs = S->pCoeffs;         /* Coefficient pointer */
 137:./Libraries/CMSIS/DSP/Source/FilteringFunctions/arm_fir_decimate_f32.c ****   float32_t *pStateCurnt;                        /* Points to the current sample of the state */
 138:./Libraries/CMSIS/DSP/Source/FilteringFunctions/arm_fir_decimate_f32.c ****   float32_t *px;                                 /* Temporary pointer for state buffer */
 139:./Libraries/CMSIS/DSP/Source/FilteringFunctions/arm_fir_decimate_f32.c ****   const float32_t *pb;                           /* Temporary pointer for coefficient buffer */
 140:./Libraries/CMSIS/DSP/Source/FilteringFunctions/arm_fir_decimate_f32.c ****   float32_t sum0;                                /* Accumulator */
 141:./Libraries/CMSIS/DSP/Source/FilteringFunctions/arm_fir_decimate_f32.c ****   float32_t x0, c0;                              /* Temporary variables to hold state and coefficie
 142:./Libraries/CMSIS/DSP/Source/FilteringFunctions/arm_fir_decimate_f32.c ****   uint32_t numTaps = S->numTaps;                 /* Number of filter coefficients in the filter */
 143:./Libraries/CMSIS/DSP/Source/FilteringFunctions/arm_fir_decimate_f32.c ****   uint32_t i, tapCnt, blkCnt, outBlockSize = blockSize / S->M;  /* Loop counters */
 144:./Libraries/CMSIS/DSP/Source/FilteringFunctions/arm_fir_decimate_f32.c **** 
 145:./Libraries/CMSIS/DSP/Source/FilteringFunctions/arm_fir_decimate_f32.c ****   uint32_t blkCntN4;
ARM GAS  /tmp/cczIha8f.s 			page 4


 146:./Libraries/CMSIS/DSP/Source/FilteringFunctions/arm_fir_decimate_f32.c ****   float32_t *px0, *px1, *px2, *px3;
 147:./Libraries/CMSIS/DSP/Source/FilteringFunctions/arm_fir_decimate_f32.c ****   float32_t acc0, acc1, acc2, acc3;
 148:./Libraries/CMSIS/DSP/Source/FilteringFunctions/arm_fir_decimate_f32.c ****   float32_t x1, x2, x3;
 149:./Libraries/CMSIS/DSP/Source/FilteringFunctions/arm_fir_decimate_f32.c **** 
 150:./Libraries/CMSIS/DSP/Source/FilteringFunctions/arm_fir_decimate_f32.c ****   float32x4_t accv,acc0v,acc1v,acc2v,acc3v;
 151:./Libraries/CMSIS/DSP/Source/FilteringFunctions/arm_fir_decimate_f32.c ****   float32x4_t x0v, x1v, x2v, x3v;
 152:./Libraries/CMSIS/DSP/Source/FilteringFunctions/arm_fir_decimate_f32.c ****   float32x4_t c0v;
 153:./Libraries/CMSIS/DSP/Source/FilteringFunctions/arm_fir_decimate_f32.c ****   float32x2_t temp;
 154:./Libraries/CMSIS/DSP/Source/FilteringFunctions/arm_fir_decimate_f32.c ****   float32x4_t sum0v;
 155:./Libraries/CMSIS/DSP/Source/FilteringFunctions/arm_fir_decimate_f32.c ****  
 156:./Libraries/CMSIS/DSP/Source/FilteringFunctions/arm_fir_decimate_f32.c ****   /* S->pState buffer contains previous frame (numTaps - 1) samples */
 157:./Libraries/CMSIS/DSP/Source/FilteringFunctions/arm_fir_decimate_f32.c ****   /* pStateCurnt points to the location where the new input data should be written */
 158:./Libraries/CMSIS/DSP/Source/FilteringFunctions/arm_fir_decimate_f32.c ****   pStateCurnt = S->pState + (numTaps - 1U);
 159:./Libraries/CMSIS/DSP/Source/FilteringFunctions/arm_fir_decimate_f32.c **** 
 160:./Libraries/CMSIS/DSP/Source/FilteringFunctions/arm_fir_decimate_f32.c ****   /* Total number of output samples to be computed */
 161:./Libraries/CMSIS/DSP/Source/FilteringFunctions/arm_fir_decimate_f32.c ****   blkCnt = outBlockSize / 4;
 162:./Libraries/CMSIS/DSP/Source/FilteringFunctions/arm_fir_decimate_f32.c ****   blkCntN4 = outBlockSize - (4 * blkCnt);
 163:./Libraries/CMSIS/DSP/Source/FilteringFunctions/arm_fir_decimate_f32.c **** 
 164:./Libraries/CMSIS/DSP/Source/FilteringFunctions/arm_fir_decimate_f32.c ****   while (blkCnt > 0U)
 165:./Libraries/CMSIS/DSP/Source/FilteringFunctions/arm_fir_decimate_f32.c ****   {
 166:./Libraries/CMSIS/DSP/Source/FilteringFunctions/arm_fir_decimate_f32.c ****     /* Copy 4 * decimation factor number of new input samples into the state buffer */
 167:./Libraries/CMSIS/DSP/Source/FilteringFunctions/arm_fir_decimate_f32.c ****     i = 4 * S->M;
 168:./Libraries/CMSIS/DSP/Source/FilteringFunctions/arm_fir_decimate_f32.c **** 
 169:./Libraries/CMSIS/DSP/Source/FilteringFunctions/arm_fir_decimate_f32.c ****     do
 170:./Libraries/CMSIS/DSP/Source/FilteringFunctions/arm_fir_decimate_f32.c ****     {
 171:./Libraries/CMSIS/DSP/Source/FilteringFunctions/arm_fir_decimate_f32.c ****       *pStateCurnt++ = *pSrc++;
 172:./Libraries/CMSIS/DSP/Source/FilteringFunctions/arm_fir_decimate_f32.c **** 
 173:./Libraries/CMSIS/DSP/Source/FilteringFunctions/arm_fir_decimate_f32.c ****     } while (--i);
 174:./Libraries/CMSIS/DSP/Source/FilteringFunctions/arm_fir_decimate_f32.c **** 
 175:./Libraries/CMSIS/DSP/Source/FilteringFunctions/arm_fir_decimate_f32.c ****     /* Set accumulators to zero */
 176:./Libraries/CMSIS/DSP/Source/FilteringFunctions/arm_fir_decimate_f32.c ****     acc0v = vdupq_n_f32(0.0);
 177:./Libraries/CMSIS/DSP/Source/FilteringFunctions/arm_fir_decimate_f32.c ****     acc1v = vdupq_n_f32(0.0);
 178:./Libraries/CMSIS/DSP/Source/FilteringFunctions/arm_fir_decimate_f32.c ****     acc2v = vdupq_n_f32(0.0);
 179:./Libraries/CMSIS/DSP/Source/FilteringFunctions/arm_fir_decimate_f32.c ****     acc3v = vdupq_n_f32(0.0);
 180:./Libraries/CMSIS/DSP/Source/FilteringFunctions/arm_fir_decimate_f32.c **** 
 181:./Libraries/CMSIS/DSP/Source/FilteringFunctions/arm_fir_decimate_f32.c ****     /* Initialize state pointer for all the samples */
 182:./Libraries/CMSIS/DSP/Source/FilteringFunctions/arm_fir_decimate_f32.c ****     px0 = pState;
 183:./Libraries/CMSIS/DSP/Source/FilteringFunctions/arm_fir_decimate_f32.c ****     px1 = pState + S->M;
 184:./Libraries/CMSIS/DSP/Source/FilteringFunctions/arm_fir_decimate_f32.c ****     px2 = pState + 2 * S->M;
 185:./Libraries/CMSIS/DSP/Source/FilteringFunctions/arm_fir_decimate_f32.c ****     px3 = pState + 3 * S->M;
 186:./Libraries/CMSIS/DSP/Source/FilteringFunctions/arm_fir_decimate_f32.c **** 
 187:./Libraries/CMSIS/DSP/Source/FilteringFunctions/arm_fir_decimate_f32.c ****     /* Initialize coeff pointer */
 188:./Libraries/CMSIS/DSP/Source/FilteringFunctions/arm_fir_decimate_f32.c ****     pb = pCoeffs;
 189:./Libraries/CMSIS/DSP/Source/FilteringFunctions/arm_fir_decimate_f32.c **** 
 190:./Libraries/CMSIS/DSP/Source/FilteringFunctions/arm_fir_decimate_f32.c ****     /* Process 4 taps at a time. */
 191:./Libraries/CMSIS/DSP/Source/FilteringFunctions/arm_fir_decimate_f32.c ****     tapCnt = numTaps >> 2;
 192:./Libraries/CMSIS/DSP/Source/FilteringFunctions/arm_fir_decimate_f32.c **** 
 193:./Libraries/CMSIS/DSP/Source/FilteringFunctions/arm_fir_decimate_f32.c ****     /* Loop over the number of taps. 
 194:./Libraries/CMSIS/DSP/Source/FilteringFunctions/arm_fir_decimate_f32.c ****      ** Repeat until we've computed numTaps-4 coefficients. */
 195:./Libraries/CMSIS/DSP/Source/FilteringFunctions/arm_fir_decimate_f32.c **** 
 196:./Libraries/CMSIS/DSP/Source/FilteringFunctions/arm_fir_decimate_f32.c ****     while (tapCnt > 0U)
 197:./Libraries/CMSIS/DSP/Source/FilteringFunctions/arm_fir_decimate_f32.c ****     {
 198:./Libraries/CMSIS/DSP/Source/FilteringFunctions/arm_fir_decimate_f32.c ****       /* Read the b[numTaps-1] coefficient */
 199:./Libraries/CMSIS/DSP/Source/FilteringFunctions/arm_fir_decimate_f32.c ****       c0v = vld1q_f32(pb);
 200:./Libraries/CMSIS/DSP/Source/FilteringFunctions/arm_fir_decimate_f32.c ****       pb += 4;
 201:./Libraries/CMSIS/DSP/Source/FilteringFunctions/arm_fir_decimate_f32.c **** 
 202:./Libraries/CMSIS/DSP/Source/FilteringFunctions/arm_fir_decimate_f32.c ****       /* Read x[n-numTaps-1] sample for acc0 */
ARM GAS  /tmp/cczIha8f.s 			page 5


 203:./Libraries/CMSIS/DSP/Source/FilteringFunctions/arm_fir_decimate_f32.c ****       x0v = vld1q_f32(px0);
 204:./Libraries/CMSIS/DSP/Source/FilteringFunctions/arm_fir_decimate_f32.c ****       x1v = vld1q_f32(px1);
 205:./Libraries/CMSIS/DSP/Source/FilteringFunctions/arm_fir_decimate_f32.c ****       x2v = vld1q_f32(px2);
 206:./Libraries/CMSIS/DSP/Source/FilteringFunctions/arm_fir_decimate_f32.c ****       x3v = vld1q_f32(px3);
 207:./Libraries/CMSIS/DSP/Source/FilteringFunctions/arm_fir_decimate_f32.c **** 
 208:./Libraries/CMSIS/DSP/Source/FilteringFunctions/arm_fir_decimate_f32.c ****       px0 += 4;
 209:./Libraries/CMSIS/DSP/Source/FilteringFunctions/arm_fir_decimate_f32.c ****       px1 += 4;
 210:./Libraries/CMSIS/DSP/Source/FilteringFunctions/arm_fir_decimate_f32.c ****       px2 += 4;
 211:./Libraries/CMSIS/DSP/Source/FilteringFunctions/arm_fir_decimate_f32.c ****       px3 += 4;
 212:./Libraries/CMSIS/DSP/Source/FilteringFunctions/arm_fir_decimate_f32.c ****      
 213:./Libraries/CMSIS/DSP/Source/FilteringFunctions/arm_fir_decimate_f32.c ****       acc0v = vmlaq_f32(acc0v, x0v, c0v);
 214:./Libraries/CMSIS/DSP/Source/FilteringFunctions/arm_fir_decimate_f32.c ****       acc1v = vmlaq_f32(acc1v, x1v, c0v);
 215:./Libraries/CMSIS/DSP/Source/FilteringFunctions/arm_fir_decimate_f32.c ****       acc2v = vmlaq_f32(acc2v, x2v, c0v);
 216:./Libraries/CMSIS/DSP/Source/FilteringFunctions/arm_fir_decimate_f32.c ****       acc3v = vmlaq_f32(acc3v, x3v, c0v);
 217:./Libraries/CMSIS/DSP/Source/FilteringFunctions/arm_fir_decimate_f32.c **** 
 218:./Libraries/CMSIS/DSP/Source/FilteringFunctions/arm_fir_decimate_f32.c ****       /* Decrement the loop counter */
 219:./Libraries/CMSIS/DSP/Source/FilteringFunctions/arm_fir_decimate_f32.c ****       tapCnt--;
 220:./Libraries/CMSIS/DSP/Source/FilteringFunctions/arm_fir_decimate_f32.c ****     }
 221:./Libraries/CMSIS/DSP/Source/FilteringFunctions/arm_fir_decimate_f32.c **** 
 222:./Libraries/CMSIS/DSP/Source/FilteringFunctions/arm_fir_decimate_f32.c ****     temp = vpadd_f32(vget_low_f32(acc0v),vget_high_f32(acc0v));
 223:./Libraries/CMSIS/DSP/Source/FilteringFunctions/arm_fir_decimate_f32.c ****     accv[0] = temp[0] + temp[1];
 224:./Libraries/CMSIS/DSP/Source/FilteringFunctions/arm_fir_decimate_f32.c **** 
 225:./Libraries/CMSIS/DSP/Source/FilteringFunctions/arm_fir_decimate_f32.c ****     temp = vpadd_f32(vget_low_f32(acc1v),vget_high_f32(acc1v));
 226:./Libraries/CMSIS/DSP/Source/FilteringFunctions/arm_fir_decimate_f32.c ****     accv[1] = temp[0] + temp[1];
 227:./Libraries/CMSIS/DSP/Source/FilteringFunctions/arm_fir_decimate_f32.c **** 
 228:./Libraries/CMSIS/DSP/Source/FilteringFunctions/arm_fir_decimate_f32.c ****     temp = vpadd_f32(vget_low_f32(acc2v),vget_high_f32(acc2v));
 229:./Libraries/CMSIS/DSP/Source/FilteringFunctions/arm_fir_decimate_f32.c ****     accv[2] = temp[0] + temp[1];
 230:./Libraries/CMSIS/DSP/Source/FilteringFunctions/arm_fir_decimate_f32.c **** 
 231:./Libraries/CMSIS/DSP/Source/FilteringFunctions/arm_fir_decimate_f32.c ****     temp = vpadd_f32(vget_low_f32(acc3v),vget_high_f32(acc3v));
 232:./Libraries/CMSIS/DSP/Source/FilteringFunctions/arm_fir_decimate_f32.c ****     accv[3] = temp[0] + temp[1];
 233:./Libraries/CMSIS/DSP/Source/FilteringFunctions/arm_fir_decimate_f32.c **** 
 234:./Libraries/CMSIS/DSP/Source/FilteringFunctions/arm_fir_decimate_f32.c ****     /* If the filter length is not a multiple of 4, compute the remaining filter taps */
 235:./Libraries/CMSIS/DSP/Source/FilteringFunctions/arm_fir_decimate_f32.c ****     tapCnt = numTaps % 0x4U;
 236:./Libraries/CMSIS/DSP/Source/FilteringFunctions/arm_fir_decimate_f32.c **** 
 237:./Libraries/CMSIS/DSP/Source/FilteringFunctions/arm_fir_decimate_f32.c ****     while (tapCnt > 0U)
 238:./Libraries/CMSIS/DSP/Source/FilteringFunctions/arm_fir_decimate_f32.c ****     {
 239:./Libraries/CMSIS/DSP/Source/FilteringFunctions/arm_fir_decimate_f32.c ****       /* Read coefficients */
 240:./Libraries/CMSIS/DSP/Source/FilteringFunctions/arm_fir_decimate_f32.c ****       c0 = *(pb++);
 241:./Libraries/CMSIS/DSP/Source/FilteringFunctions/arm_fir_decimate_f32.c **** 
 242:./Libraries/CMSIS/DSP/Source/FilteringFunctions/arm_fir_decimate_f32.c ****       /* Fetch  state variables for acc0, acc1, acc2, acc3 */
 243:./Libraries/CMSIS/DSP/Source/FilteringFunctions/arm_fir_decimate_f32.c ****       x0 = *(px0++);
 244:./Libraries/CMSIS/DSP/Source/FilteringFunctions/arm_fir_decimate_f32.c ****       x1 = *(px1++);
 245:./Libraries/CMSIS/DSP/Source/FilteringFunctions/arm_fir_decimate_f32.c ****       x2 = *(px2++);
 246:./Libraries/CMSIS/DSP/Source/FilteringFunctions/arm_fir_decimate_f32.c ****       x3 = *(px3++);
 247:./Libraries/CMSIS/DSP/Source/FilteringFunctions/arm_fir_decimate_f32.c **** 
 248:./Libraries/CMSIS/DSP/Source/FilteringFunctions/arm_fir_decimate_f32.c ****       /* Perform the multiply-accumulate */
 249:./Libraries/CMSIS/DSP/Source/FilteringFunctions/arm_fir_decimate_f32.c ****       accv[0] += x0 * c0;
 250:./Libraries/CMSIS/DSP/Source/FilteringFunctions/arm_fir_decimate_f32.c ****       accv[1] += x1 * c0;
 251:./Libraries/CMSIS/DSP/Source/FilteringFunctions/arm_fir_decimate_f32.c ****       accv[2] += x2 * c0;
 252:./Libraries/CMSIS/DSP/Source/FilteringFunctions/arm_fir_decimate_f32.c ****       accv[3] += x3 * c0;
 253:./Libraries/CMSIS/DSP/Source/FilteringFunctions/arm_fir_decimate_f32.c **** 
 254:./Libraries/CMSIS/DSP/Source/FilteringFunctions/arm_fir_decimate_f32.c ****       /* Decrement the loop counter */
 255:./Libraries/CMSIS/DSP/Source/FilteringFunctions/arm_fir_decimate_f32.c ****       tapCnt--;
 256:./Libraries/CMSIS/DSP/Source/FilteringFunctions/arm_fir_decimate_f32.c ****     }
 257:./Libraries/CMSIS/DSP/Source/FilteringFunctions/arm_fir_decimate_f32.c **** 
 258:./Libraries/CMSIS/DSP/Source/FilteringFunctions/arm_fir_decimate_f32.c ****     /* Advance the state pointer by the decimation factor
 259:./Libraries/CMSIS/DSP/Source/FilteringFunctions/arm_fir_decimate_f32.c ****      * to process the next group of decimation factor number samples */
ARM GAS  /tmp/cczIha8f.s 			page 6


 260:./Libraries/CMSIS/DSP/Source/FilteringFunctions/arm_fir_decimate_f32.c ****     pState = pState + 4 * S->M;
 261:./Libraries/CMSIS/DSP/Source/FilteringFunctions/arm_fir_decimate_f32.c **** 
 262:./Libraries/CMSIS/DSP/Source/FilteringFunctions/arm_fir_decimate_f32.c ****     /* The result is in the accumulator, store in the destination buffer. */
 263:./Libraries/CMSIS/DSP/Source/FilteringFunctions/arm_fir_decimate_f32.c ****     vst1q_f32(pDst,accv);
 264:./Libraries/CMSIS/DSP/Source/FilteringFunctions/arm_fir_decimate_f32.c ****     pDst += 4;
 265:./Libraries/CMSIS/DSP/Source/FilteringFunctions/arm_fir_decimate_f32.c **** 
 266:./Libraries/CMSIS/DSP/Source/FilteringFunctions/arm_fir_decimate_f32.c ****     /* Decrement the loop counter */
 267:./Libraries/CMSIS/DSP/Source/FilteringFunctions/arm_fir_decimate_f32.c ****     blkCnt--;
 268:./Libraries/CMSIS/DSP/Source/FilteringFunctions/arm_fir_decimate_f32.c ****   }
 269:./Libraries/CMSIS/DSP/Source/FilteringFunctions/arm_fir_decimate_f32.c **** 
 270:./Libraries/CMSIS/DSP/Source/FilteringFunctions/arm_fir_decimate_f32.c ****   while (blkCntN4 > 0U)
 271:./Libraries/CMSIS/DSP/Source/FilteringFunctions/arm_fir_decimate_f32.c ****   {
 272:./Libraries/CMSIS/DSP/Source/FilteringFunctions/arm_fir_decimate_f32.c ****     /* Copy decimation factor number of new input samples into the state buffer */
 273:./Libraries/CMSIS/DSP/Source/FilteringFunctions/arm_fir_decimate_f32.c ****     i = S->M;
 274:./Libraries/CMSIS/DSP/Source/FilteringFunctions/arm_fir_decimate_f32.c **** 
 275:./Libraries/CMSIS/DSP/Source/FilteringFunctions/arm_fir_decimate_f32.c ****     do
 276:./Libraries/CMSIS/DSP/Source/FilteringFunctions/arm_fir_decimate_f32.c ****     {
 277:./Libraries/CMSIS/DSP/Source/FilteringFunctions/arm_fir_decimate_f32.c ****       *pStateCurnt++ = *pSrc++;
 278:./Libraries/CMSIS/DSP/Source/FilteringFunctions/arm_fir_decimate_f32.c **** 
 279:./Libraries/CMSIS/DSP/Source/FilteringFunctions/arm_fir_decimate_f32.c ****     } while (--i);
 280:./Libraries/CMSIS/DSP/Source/FilteringFunctions/arm_fir_decimate_f32.c **** 
 281:./Libraries/CMSIS/DSP/Source/FilteringFunctions/arm_fir_decimate_f32.c ****     /* Set accumulator to zero */
 282:./Libraries/CMSIS/DSP/Source/FilteringFunctions/arm_fir_decimate_f32.c ****     sum0v =  vdupq_n_f32(0.0);
 283:./Libraries/CMSIS/DSP/Source/FilteringFunctions/arm_fir_decimate_f32.c **** 
 284:./Libraries/CMSIS/DSP/Source/FilteringFunctions/arm_fir_decimate_f32.c ****     /* Initialize state pointer */
 285:./Libraries/CMSIS/DSP/Source/FilteringFunctions/arm_fir_decimate_f32.c ****     px = pState;
 286:./Libraries/CMSIS/DSP/Source/FilteringFunctions/arm_fir_decimate_f32.c **** 
 287:./Libraries/CMSIS/DSP/Source/FilteringFunctions/arm_fir_decimate_f32.c ****     /* Initialize coeff pointer */
 288:./Libraries/CMSIS/DSP/Source/FilteringFunctions/arm_fir_decimate_f32.c ****     pb = pCoeffs;
 289:./Libraries/CMSIS/DSP/Source/FilteringFunctions/arm_fir_decimate_f32.c **** 
 290:./Libraries/CMSIS/DSP/Source/FilteringFunctions/arm_fir_decimate_f32.c ****     /* Process 4 taps at a time. */
 291:./Libraries/CMSIS/DSP/Source/FilteringFunctions/arm_fir_decimate_f32.c ****     tapCnt = numTaps >> 2;
 292:./Libraries/CMSIS/DSP/Source/FilteringFunctions/arm_fir_decimate_f32.c **** 
 293:./Libraries/CMSIS/DSP/Source/FilteringFunctions/arm_fir_decimate_f32.c ****     /* Loop over the number of taps.
 294:./Libraries/CMSIS/DSP/Source/FilteringFunctions/arm_fir_decimate_f32.c ****      ** Repeat until we've computed numTaps-4 coefficients. */
 295:./Libraries/CMSIS/DSP/Source/FilteringFunctions/arm_fir_decimate_f32.c ****     while (tapCnt > 0U)
 296:./Libraries/CMSIS/DSP/Source/FilteringFunctions/arm_fir_decimate_f32.c ****     {
 297:./Libraries/CMSIS/DSP/Source/FilteringFunctions/arm_fir_decimate_f32.c ****       c0v = vld1q_f32(pb);
 298:./Libraries/CMSIS/DSP/Source/FilteringFunctions/arm_fir_decimate_f32.c ****       pb += 4;
 299:./Libraries/CMSIS/DSP/Source/FilteringFunctions/arm_fir_decimate_f32.c **** 
 300:./Libraries/CMSIS/DSP/Source/FilteringFunctions/arm_fir_decimate_f32.c ****       x0v = vld1q_f32(px);
 301:./Libraries/CMSIS/DSP/Source/FilteringFunctions/arm_fir_decimate_f32.c ****       px += 4;
 302:./Libraries/CMSIS/DSP/Source/FilteringFunctions/arm_fir_decimate_f32.c **** 
 303:./Libraries/CMSIS/DSP/Source/FilteringFunctions/arm_fir_decimate_f32.c ****       sum0v = vmlaq_f32(sum0v, x0v, c0v);
 304:./Libraries/CMSIS/DSP/Source/FilteringFunctions/arm_fir_decimate_f32.c ****       
 305:./Libraries/CMSIS/DSP/Source/FilteringFunctions/arm_fir_decimate_f32.c ****       /* Decrement the loop counter */
 306:./Libraries/CMSIS/DSP/Source/FilteringFunctions/arm_fir_decimate_f32.c ****       tapCnt--;
 307:./Libraries/CMSIS/DSP/Source/FilteringFunctions/arm_fir_decimate_f32.c ****     }
 308:./Libraries/CMSIS/DSP/Source/FilteringFunctions/arm_fir_decimate_f32.c **** 
 309:./Libraries/CMSIS/DSP/Source/FilteringFunctions/arm_fir_decimate_f32.c ****     temp = vpadd_f32(vget_low_f32(sum0v),vget_high_f32(sum0v));
 310:./Libraries/CMSIS/DSP/Source/FilteringFunctions/arm_fir_decimate_f32.c ****     sum0 = temp[0] + temp[1];
 311:./Libraries/CMSIS/DSP/Source/FilteringFunctions/arm_fir_decimate_f32.c **** 
 312:./Libraries/CMSIS/DSP/Source/FilteringFunctions/arm_fir_decimate_f32.c ****     /* If the filter length is not a multiple of 4, compute the remaining filter taps */
 313:./Libraries/CMSIS/DSP/Source/FilteringFunctions/arm_fir_decimate_f32.c ****     tapCnt = numTaps % 0x4U;
 314:./Libraries/CMSIS/DSP/Source/FilteringFunctions/arm_fir_decimate_f32.c **** 
 315:./Libraries/CMSIS/DSP/Source/FilteringFunctions/arm_fir_decimate_f32.c ****     while (tapCnt > 0U)
 316:./Libraries/CMSIS/DSP/Source/FilteringFunctions/arm_fir_decimate_f32.c ****     {
ARM GAS  /tmp/cczIha8f.s 			page 7


 317:./Libraries/CMSIS/DSP/Source/FilteringFunctions/arm_fir_decimate_f32.c ****       /* Read coefficients */
 318:./Libraries/CMSIS/DSP/Source/FilteringFunctions/arm_fir_decimate_f32.c ****       c0 = *(pb++);
 319:./Libraries/CMSIS/DSP/Source/FilteringFunctions/arm_fir_decimate_f32.c **** 
 320:./Libraries/CMSIS/DSP/Source/FilteringFunctions/arm_fir_decimate_f32.c ****       /* Fetch 1 state variable */
 321:./Libraries/CMSIS/DSP/Source/FilteringFunctions/arm_fir_decimate_f32.c ****       x0 = *(px++);
 322:./Libraries/CMSIS/DSP/Source/FilteringFunctions/arm_fir_decimate_f32.c **** 
 323:./Libraries/CMSIS/DSP/Source/FilteringFunctions/arm_fir_decimate_f32.c ****       /* Perform the multiply-accumulate */
 324:./Libraries/CMSIS/DSP/Source/FilteringFunctions/arm_fir_decimate_f32.c ****       sum0 += x0 * c0;
 325:./Libraries/CMSIS/DSP/Source/FilteringFunctions/arm_fir_decimate_f32.c **** 
 326:./Libraries/CMSIS/DSP/Source/FilteringFunctions/arm_fir_decimate_f32.c ****       /* Decrement the loop counter */
 327:./Libraries/CMSIS/DSP/Source/FilteringFunctions/arm_fir_decimate_f32.c ****       tapCnt--;
 328:./Libraries/CMSIS/DSP/Source/FilteringFunctions/arm_fir_decimate_f32.c ****     }
 329:./Libraries/CMSIS/DSP/Source/FilteringFunctions/arm_fir_decimate_f32.c **** 
 330:./Libraries/CMSIS/DSP/Source/FilteringFunctions/arm_fir_decimate_f32.c ****     /* Advance the state pointer by the decimation factor
 331:./Libraries/CMSIS/DSP/Source/FilteringFunctions/arm_fir_decimate_f32.c ****      * to process the next group of decimation factor number samples */
 332:./Libraries/CMSIS/DSP/Source/FilteringFunctions/arm_fir_decimate_f32.c ****     pState = pState + S->M;
 333:./Libraries/CMSIS/DSP/Source/FilteringFunctions/arm_fir_decimate_f32.c **** 
 334:./Libraries/CMSIS/DSP/Source/FilteringFunctions/arm_fir_decimate_f32.c ****     /* The result is in the accumulator, store in the destination buffer. */
 335:./Libraries/CMSIS/DSP/Source/FilteringFunctions/arm_fir_decimate_f32.c ****     *pDst++ = sum0;
 336:./Libraries/CMSIS/DSP/Source/FilteringFunctions/arm_fir_decimate_f32.c **** 
 337:./Libraries/CMSIS/DSP/Source/FilteringFunctions/arm_fir_decimate_f32.c ****     /* Decrement the loop counter */
 338:./Libraries/CMSIS/DSP/Source/FilteringFunctions/arm_fir_decimate_f32.c ****     blkCntN4--;
 339:./Libraries/CMSIS/DSP/Source/FilteringFunctions/arm_fir_decimate_f32.c ****   }
 340:./Libraries/CMSIS/DSP/Source/FilteringFunctions/arm_fir_decimate_f32.c **** 
 341:./Libraries/CMSIS/DSP/Source/FilteringFunctions/arm_fir_decimate_f32.c ****   /* Processing is complete.
 342:./Libraries/CMSIS/DSP/Source/FilteringFunctions/arm_fir_decimate_f32.c ****    ** Now copy the last numTaps - 1 samples to the satrt of the state buffer.
 343:./Libraries/CMSIS/DSP/Source/FilteringFunctions/arm_fir_decimate_f32.c ****    ** This prepares the state buffer for the next function call. */
 344:./Libraries/CMSIS/DSP/Source/FilteringFunctions/arm_fir_decimate_f32.c **** 
 345:./Libraries/CMSIS/DSP/Source/FilteringFunctions/arm_fir_decimate_f32.c ****   /* Points to the start of the state buffer */
 346:./Libraries/CMSIS/DSP/Source/FilteringFunctions/arm_fir_decimate_f32.c ****   pStateCurnt = S->pState;
 347:./Libraries/CMSIS/DSP/Source/FilteringFunctions/arm_fir_decimate_f32.c **** 
 348:./Libraries/CMSIS/DSP/Source/FilteringFunctions/arm_fir_decimate_f32.c ****   i = (numTaps - 1U) >> 2;
 349:./Libraries/CMSIS/DSP/Source/FilteringFunctions/arm_fir_decimate_f32.c **** 
 350:./Libraries/CMSIS/DSP/Source/FilteringFunctions/arm_fir_decimate_f32.c ****   /* Copy data */
 351:./Libraries/CMSIS/DSP/Source/FilteringFunctions/arm_fir_decimate_f32.c ****   while (i > 0U)
 352:./Libraries/CMSIS/DSP/Source/FilteringFunctions/arm_fir_decimate_f32.c ****   {
 353:./Libraries/CMSIS/DSP/Source/FilteringFunctions/arm_fir_decimate_f32.c ****     sum0v = vld1q_f32(pState);
 354:./Libraries/CMSIS/DSP/Source/FilteringFunctions/arm_fir_decimate_f32.c ****     vst1q_f32(pStateCurnt,sum0v);
 355:./Libraries/CMSIS/DSP/Source/FilteringFunctions/arm_fir_decimate_f32.c ****     pState += 4;
 356:./Libraries/CMSIS/DSP/Source/FilteringFunctions/arm_fir_decimate_f32.c ****     pStateCurnt += 4;
 357:./Libraries/CMSIS/DSP/Source/FilteringFunctions/arm_fir_decimate_f32.c **** 
 358:./Libraries/CMSIS/DSP/Source/FilteringFunctions/arm_fir_decimate_f32.c ****     /* Decrement the loop counter */
 359:./Libraries/CMSIS/DSP/Source/FilteringFunctions/arm_fir_decimate_f32.c ****     i--;
 360:./Libraries/CMSIS/DSP/Source/FilteringFunctions/arm_fir_decimate_f32.c ****   }
 361:./Libraries/CMSIS/DSP/Source/FilteringFunctions/arm_fir_decimate_f32.c **** 
 362:./Libraries/CMSIS/DSP/Source/FilteringFunctions/arm_fir_decimate_f32.c ****   i = (numTaps - 1U) % 0x04U;
 363:./Libraries/CMSIS/DSP/Source/FilteringFunctions/arm_fir_decimate_f32.c **** 
 364:./Libraries/CMSIS/DSP/Source/FilteringFunctions/arm_fir_decimate_f32.c ****   /* Copy data */
 365:./Libraries/CMSIS/DSP/Source/FilteringFunctions/arm_fir_decimate_f32.c ****   while (i > 0U)
 366:./Libraries/CMSIS/DSP/Source/FilteringFunctions/arm_fir_decimate_f32.c ****   {
 367:./Libraries/CMSIS/DSP/Source/FilteringFunctions/arm_fir_decimate_f32.c ****     *pStateCurnt++ = *pState++;
 368:./Libraries/CMSIS/DSP/Source/FilteringFunctions/arm_fir_decimate_f32.c **** 
 369:./Libraries/CMSIS/DSP/Source/FilteringFunctions/arm_fir_decimate_f32.c ****     /* Decrement the loop counter */
 370:./Libraries/CMSIS/DSP/Source/FilteringFunctions/arm_fir_decimate_f32.c ****     i--;
 371:./Libraries/CMSIS/DSP/Source/FilteringFunctions/arm_fir_decimate_f32.c ****   }
 372:./Libraries/CMSIS/DSP/Source/FilteringFunctions/arm_fir_decimate_f32.c **** }
 373:./Libraries/CMSIS/DSP/Source/FilteringFunctions/arm_fir_decimate_f32.c **** #else
ARM GAS  /tmp/cczIha8f.s 			page 8


 374:./Libraries/CMSIS/DSP/Source/FilteringFunctions/arm_fir_decimate_f32.c **** void arm_fir_decimate_f32(
 375:./Libraries/CMSIS/DSP/Source/FilteringFunctions/arm_fir_decimate_f32.c ****   const arm_fir_decimate_instance_f32 * S,
 376:./Libraries/CMSIS/DSP/Source/FilteringFunctions/arm_fir_decimate_f32.c ****   const float32_t * pSrc,
 377:./Libraries/CMSIS/DSP/Source/FilteringFunctions/arm_fir_decimate_f32.c ****         float32_t * pDst,
 378:./Libraries/CMSIS/DSP/Source/FilteringFunctions/arm_fir_decimate_f32.c ****         uint32_t blockSize)
 379:./Libraries/CMSIS/DSP/Source/FilteringFunctions/arm_fir_decimate_f32.c **** {
  28              		.loc 1 379 1
  29              		.cfi_startproc
  30              		@ args = 0, pretend = 0, frame = 72
  31              		@ frame_needed = 1, uses_anonymous_args = 0
  32              		@ link register save eliminated.
  33 0000 80B4     		push	{r7}
  34              	.LCFI0:
  35              		.cfi_def_cfa_offset 4
  36              		.cfi_offset 7, -4
  37 0002 93B0     		sub	sp, sp, #76
  38              	.LCFI1:
  39              		.cfi_def_cfa_offset 80
  40 0004 00AF     		add	r7, sp, #0
  41              	.LCFI2:
  42              		.cfi_def_cfa_register 7
  43 0006 F860     		str	r0, [r7, #12]
  44 0008 B960     		str	r1, [r7, #8]
  45 000a 7A60     		str	r2, [r7, #4]
  46 000c 3B60     		str	r3, [r7]
 380:./Libraries/CMSIS/DSP/Source/FilteringFunctions/arm_fir_decimate_f32.c ****         float32_t *pState = S->pState;                 /* State pointer */
  47              		.loc 1 380 20
  48 000e FB68     		ldr	r3, [r7, #12]
  49 0010 9B68     		ldr	r3, [r3, #8]
  50 0012 7B64     		str	r3, [r7, #68]
 381:./Libraries/CMSIS/DSP/Source/FilteringFunctions/arm_fir_decimate_f32.c ****   const float32_t *pCoeffs = S->pCoeffs;               /* Coefficient pointer */
  51              		.loc 1 381 20
  52 0014 FB68     		ldr	r3, [r7, #12]
  53 0016 5B68     		ldr	r3, [r3, #4]
  54 0018 7B62     		str	r3, [r7, #36]
 382:./Libraries/CMSIS/DSP/Source/FilteringFunctions/arm_fir_decimate_f32.c ****         float32_t *pStateCur;                          /* Points to the current sample of the state
 383:./Libraries/CMSIS/DSP/Source/FilteringFunctions/arm_fir_decimate_f32.c ****         float32_t *px0;                                /* Temporary pointer for state buffer */
 384:./Libraries/CMSIS/DSP/Source/FilteringFunctions/arm_fir_decimate_f32.c ****   const float32_t *pb;                                 /* Temporary pointer for coefficient buffer 
 385:./Libraries/CMSIS/DSP/Source/FilteringFunctions/arm_fir_decimate_f32.c ****         float32_t x0, c0;                              /* Temporary variables to hold state and coe
 386:./Libraries/CMSIS/DSP/Source/FilteringFunctions/arm_fir_decimate_f32.c ****         float32_t acc0;                                /* Accumulator */
 387:./Libraries/CMSIS/DSP/Source/FilteringFunctions/arm_fir_decimate_f32.c ****         uint32_t numTaps = S->numTaps;                 /* Number of filter coefficients in the filt
  55              		.loc 1 387 29
  56 001a FB68     		ldr	r3, [r7, #12]
  57 001c 5B88     		ldrh	r3, [r3, #2]
  58              		.loc 1 387 18
  59 001e 3B62     		str	r3, [r7, #32]
 388:./Libraries/CMSIS/DSP/Source/FilteringFunctions/arm_fir_decimate_f32.c ****         uint32_t i, tapCnt, blkCnt, outBlockSize = blockSize / S->M;  /* Loop counters */
  60              		.loc 1 388 65
  61 0020 FB68     		ldr	r3, [r7, #12]
  62 0022 1B78     		ldrb	r3, [r3]	@ zero_extendqisi2
  63 0024 1A46     		mov	r2, r3
  64              		.loc 1 388 37
  65 0026 3B68     		ldr	r3, [r7]
  66 0028 B3FBF2F3 		udiv	r3, r3, r2
  67 002c FB61     		str	r3, [r7, #28]
 389:./Libraries/CMSIS/DSP/Source/FilteringFunctions/arm_fir_decimate_f32.c **** 
 390:./Libraries/CMSIS/DSP/Source/FilteringFunctions/arm_fir_decimate_f32.c **** #if defined (ARM_MATH_LOOPUNROLL)
ARM GAS  /tmp/cczIha8f.s 			page 9


 391:./Libraries/CMSIS/DSP/Source/FilteringFunctions/arm_fir_decimate_f32.c ****         float32_t *px1, *px2, *px3;
 392:./Libraries/CMSIS/DSP/Source/FilteringFunctions/arm_fir_decimate_f32.c ****         float32_t x1, x2, x3;
 393:./Libraries/CMSIS/DSP/Source/FilteringFunctions/arm_fir_decimate_f32.c ****         float32_t acc1, acc2, acc3;
 394:./Libraries/CMSIS/DSP/Source/FilteringFunctions/arm_fir_decimate_f32.c **** #endif
 395:./Libraries/CMSIS/DSP/Source/FilteringFunctions/arm_fir_decimate_f32.c **** 
 396:./Libraries/CMSIS/DSP/Source/FilteringFunctions/arm_fir_decimate_f32.c ****   /* S->pState buffer contains previous frame (numTaps - 1) samples */
 397:./Libraries/CMSIS/DSP/Source/FilteringFunctions/arm_fir_decimate_f32.c ****   /* pStateCur points to the location where the new input data should be written */
 398:./Libraries/CMSIS/DSP/Source/FilteringFunctions/arm_fir_decimate_f32.c ****   pStateCur = S->pState + (numTaps - 1U);
  68              		.loc 1 398 16
  69 002e FB68     		ldr	r3, [r7, #12]
  70 0030 9A68     		ldr	r2, [r3, #8]
  71              		.loc 1 398 25
  72 0032 396A     		ldr	r1, [r7, #32]
  73 0034 6FF04043 		mvn	r3, #-1073741824
  74 0038 0B44     		add	r3, r3, r1
  75 003a 9B00     		lsls	r3, r3, #2
  76              		.loc 1 398 13
  77 003c 1344     		add	r3, r3, r2
  78 003e 3B64     		str	r3, [r7, #64]
 399:./Libraries/CMSIS/DSP/Source/FilteringFunctions/arm_fir_decimate_f32.c **** 
 400:./Libraries/CMSIS/DSP/Source/FilteringFunctions/arm_fir_decimate_f32.c **** #if defined (ARM_MATH_LOOPUNROLL)
 401:./Libraries/CMSIS/DSP/Source/FilteringFunctions/arm_fir_decimate_f32.c **** 
 402:./Libraries/CMSIS/DSP/Source/FilteringFunctions/arm_fir_decimate_f32.c ****     /* Loop unrolling: Compute 4 samples at a time */
 403:./Libraries/CMSIS/DSP/Source/FilteringFunctions/arm_fir_decimate_f32.c ****   blkCnt = outBlockSize >> 2U;
 404:./Libraries/CMSIS/DSP/Source/FilteringFunctions/arm_fir_decimate_f32.c **** 
 405:./Libraries/CMSIS/DSP/Source/FilteringFunctions/arm_fir_decimate_f32.c ****   /* Samples loop unrolled by 4 */
 406:./Libraries/CMSIS/DSP/Source/FilteringFunctions/arm_fir_decimate_f32.c ****   while (blkCnt > 0U)
 407:./Libraries/CMSIS/DSP/Source/FilteringFunctions/arm_fir_decimate_f32.c ****   {
 408:./Libraries/CMSIS/DSP/Source/FilteringFunctions/arm_fir_decimate_f32.c ****     /* Copy 4 * decimation factor number of new input samples into the state buffer */
 409:./Libraries/CMSIS/DSP/Source/FilteringFunctions/arm_fir_decimate_f32.c ****     i = S->M * 4;
 410:./Libraries/CMSIS/DSP/Source/FilteringFunctions/arm_fir_decimate_f32.c **** 
 411:./Libraries/CMSIS/DSP/Source/FilteringFunctions/arm_fir_decimate_f32.c ****     do
 412:./Libraries/CMSIS/DSP/Source/FilteringFunctions/arm_fir_decimate_f32.c ****     {
 413:./Libraries/CMSIS/DSP/Source/FilteringFunctions/arm_fir_decimate_f32.c ****       *pStateCur++ = *pSrc++;
 414:./Libraries/CMSIS/DSP/Source/FilteringFunctions/arm_fir_decimate_f32.c **** 
 415:./Libraries/CMSIS/DSP/Source/FilteringFunctions/arm_fir_decimate_f32.c ****     } while (--i);
 416:./Libraries/CMSIS/DSP/Source/FilteringFunctions/arm_fir_decimate_f32.c **** 
 417:./Libraries/CMSIS/DSP/Source/FilteringFunctions/arm_fir_decimate_f32.c ****     /* Set accumulators to zero */
 418:./Libraries/CMSIS/DSP/Source/FilteringFunctions/arm_fir_decimate_f32.c ****     acc0 = 0.0f;
 419:./Libraries/CMSIS/DSP/Source/FilteringFunctions/arm_fir_decimate_f32.c ****     acc1 = 0.0f;
 420:./Libraries/CMSIS/DSP/Source/FilteringFunctions/arm_fir_decimate_f32.c ****     acc2 = 0.0f;
 421:./Libraries/CMSIS/DSP/Source/FilteringFunctions/arm_fir_decimate_f32.c ****     acc3 = 0.0f;
 422:./Libraries/CMSIS/DSP/Source/FilteringFunctions/arm_fir_decimate_f32.c **** 
 423:./Libraries/CMSIS/DSP/Source/FilteringFunctions/arm_fir_decimate_f32.c ****     /* Initialize state pointer for all the samples */
 424:./Libraries/CMSIS/DSP/Source/FilteringFunctions/arm_fir_decimate_f32.c ****     px0 = pState;
 425:./Libraries/CMSIS/DSP/Source/FilteringFunctions/arm_fir_decimate_f32.c ****     px1 = pState + S->M;
 426:./Libraries/CMSIS/DSP/Source/FilteringFunctions/arm_fir_decimate_f32.c ****     px2 = pState + 2 * S->M;
 427:./Libraries/CMSIS/DSP/Source/FilteringFunctions/arm_fir_decimate_f32.c ****     px3 = pState + 3 * S->M;
 428:./Libraries/CMSIS/DSP/Source/FilteringFunctions/arm_fir_decimate_f32.c **** 
 429:./Libraries/CMSIS/DSP/Source/FilteringFunctions/arm_fir_decimate_f32.c ****     /* Initialize coeff pointer */
 430:./Libraries/CMSIS/DSP/Source/FilteringFunctions/arm_fir_decimate_f32.c ****     pb = pCoeffs;
 431:./Libraries/CMSIS/DSP/Source/FilteringFunctions/arm_fir_decimate_f32.c **** 
 432:./Libraries/CMSIS/DSP/Source/FilteringFunctions/arm_fir_decimate_f32.c ****     /* Loop unrolling: Compute 4 taps at a time */
 433:./Libraries/CMSIS/DSP/Source/FilteringFunctions/arm_fir_decimate_f32.c ****     tapCnt = numTaps >> 2U;
 434:./Libraries/CMSIS/DSP/Source/FilteringFunctions/arm_fir_decimate_f32.c **** 
 435:./Libraries/CMSIS/DSP/Source/FilteringFunctions/arm_fir_decimate_f32.c ****     while (tapCnt > 0U)
 436:./Libraries/CMSIS/DSP/Source/FilteringFunctions/arm_fir_decimate_f32.c ****     {
ARM GAS  /tmp/cczIha8f.s 			page 10


 437:./Libraries/CMSIS/DSP/Source/FilteringFunctions/arm_fir_decimate_f32.c ****       /* Read the b[numTaps-1] coefficient */
 438:./Libraries/CMSIS/DSP/Source/FilteringFunctions/arm_fir_decimate_f32.c ****       c0 = *(pb++);
 439:./Libraries/CMSIS/DSP/Source/FilteringFunctions/arm_fir_decimate_f32.c **** 
 440:./Libraries/CMSIS/DSP/Source/FilteringFunctions/arm_fir_decimate_f32.c ****       /* Read x[n-numTaps-1] sample for acc0 */
 441:./Libraries/CMSIS/DSP/Source/FilteringFunctions/arm_fir_decimate_f32.c ****       x0 = *(px0++);
 442:./Libraries/CMSIS/DSP/Source/FilteringFunctions/arm_fir_decimate_f32.c ****       /* Read x[n-numTaps-1] sample for acc1 */
 443:./Libraries/CMSIS/DSP/Source/FilteringFunctions/arm_fir_decimate_f32.c ****       x1 = *(px1++);
 444:./Libraries/CMSIS/DSP/Source/FilteringFunctions/arm_fir_decimate_f32.c ****       /* Read x[n-numTaps-1] sample for acc2 */
 445:./Libraries/CMSIS/DSP/Source/FilteringFunctions/arm_fir_decimate_f32.c ****       x2 = *(px2++);
 446:./Libraries/CMSIS/DSP/Source/FilteringFunctions/arm_fir_decimate_f32.c ****       /* Read x[n-numTaps-1] sample for acc3 */
 447:./Libraries/CMSIS/DSP/Source/FilteringFunctions/arm_fir_decimate_f32.c ****       x3 = *(px3++);
 448:./Libraries/CMSIS/DSP/Source/FilteringFunctions/arm_fir_decimate_f32.c **** 
 449:./Libraries/CMSIS/DSP/Source/FilteringFunctions/arm_fir_decimate_f32.c ****       /* Perform the multiply-accumulate */
 450:./Libraries/CMSIS/DSP/Source/FilteringFunctions/arm_fir_decimate_f32.c ****       acc0 += x0 * c0;
 451:./Libraries/CMSIS/DSP/Source/FilteringFunctions/arm_fir_decimate_f32.c ****       acc1 += x1 * c0;
 452:./Libraries/CMSIS/DSP/Source/FilteringFunctions/arm_fir_decimate_f32.c ****       acc2 += x2 * c0;
 453:./Libraries/CMSIS/DSP/Source/FilteringFunctions/arm_fir_decimate_f32.c ****       acc3 += x3 * c0;
 454:./Libraries/CMSIS/DSP/Source/FilteringFunctions/arm_fir_decimate_f32.c **** 
 455:./Libraries/CMSIS/DSP/Source/FilteringFunctions/arm_fir_decimate_f32.c ****       /* Read the b[numTaps-2] coefficient */
 456:./Libraries/CMSIS/DSP/Source/FilteringFunctions/arm_fir_decimate_f32.c ****       c0 = *(pb++);
 457:./Libraries/CMSIS/DSP/Source/FilteringFunctions/arm_fir_decimate_f32.c **** 
 458:./Libraries/CMSIS/DSP/Source/FilteringFunctions/arm_fir_decimate_f32.c ****       /* Read x[n-numTaps-2] sample for acc0, acc1, acc2, acc3 */
 459:./Libraries/CMSIS/DSP/Source/FilteringFunctions/arm_fir_decimate_f32.c ****       x0 = *(px0++);
 460:./Libraries/CMSIS/DSP/Source/FilteringFunctions/arm_fir_decimate_f32.c ****       x1 = *(px1++);
 461:./Libraries/CMSIS/DSP/Source/FilteringFunctions/arm_fir_decimate_f32.c ****       x2 = *(px2++);
 462:./Libraries/CMSIS/DSP/Source/FilteringFunctions/arm_fir_decimate_f32.c ****       x3 = *(px3++);
 463:./Libraries/CMSIS/DSP/Source/FilteringFunctions/arm_fir_decimate_f32.c **** 
 464:./Libraries/CMSIS/DSP/Source/FilteringFunctions/arm_fir_decimate_f32.c ****       /* Perform the multiply-accumulate */
 465:./Libraries/CMSIS/DSP/Source/FilteringFunctions/arm_fir_decimate_f32.c ****       acc0 += x0 * c0;
 466:./Libraries/CMSIS/DSP/Source/FilteringFunctions/arm_fir_decimate_f32.c ****       acc1 += x1 * c0;
 467:./Libraries/CMSIS/DSP/Source/FilteringFunctions/arm_fir_decimate_f32.c ****       acc2 += x2 * c0;
 468:./Libraries/CMSIS/DSP/Source/FilteringFunctions/arm_fir_decimate_f32.c ****       acc3 += x3 * c0;
 469:./Libraries/CMSIS/DSP/Source/FilteringFunctions/arm_fir_decimate_f32.c **** 
 470:./Libraries/CMSIS/DSP/Source/FilteringFunctions/arm_fir_decimate_f32.c ****       /* Read the b[numTaps-3] coefficient */
 471:./Libraries/CMSIS/DSP/Source/FilteringFunctions/arm_fir_decimate_f32.c ****       c0 = *(pb++);
 472:./Libraries/CMSIS/DSP/Source/FilteringFunctions/arm_fir_decimate_f32.c **** 
 473:./Libraries/CMSIS/DSP/Source/FilteringFunctions/arm_fir_decimate_f32.c ****       /* Read x[n-numTaps-3] sample acc0, acc1, acc2, acc3 */
 474:./Libraries/CMSIS/DSP/Source/FilteringFunctions/arm_fir_decimate_f32.c ****       x0 = *(px0++);
 475:./Libraries/CMSIS/DSP/Source/FilteringFunctions/arm_fir_decimate_f32.c ****       x1 = *(px1++);
 476:./Libraries/CMSIS/DSP/Source/FilteringFunctions/arm_fir_decimate_f32.c ****       x2 = *(px2++);
 477:./Libraries/CMSIS/DSP/Source/FilteringFunctions/arm_fir_decimate_f32.c ****       x3 = *(px3++);
 478:./Libraries/CMSIS/DSP/Source/FilteringFunctions/arm_fir_decimate_f32.c **** 
 479:./Libraries/CMSIS/DSP/Source/FilteringFunctions/arm_fir_decimate_f32.c ****       /* Perform the multiply-accumulate */
 480:./Libraries/CMSIS/DSP/Source/FilteringFunctions/arm_fir_decimate_f32.c ****       acc0 += x0 * c0;
 481:./Libraries/CMSIS/DSP/Source/FilteringFunctions/arm_fir_decimate_f32.c ****       acc1 += x1 * c0;
 482:./Libraries/CMSIS/DSP/Source/FilteringFunctions/arm_fir_decimate_f32.c ****       acc2 += x2 * c0;
 483:./Libraries/CMSIS/DSP/Source/FilteringFunctions/arm_fir_decimate_f32.c ****       acc3 += x3 * c0;
 484:./Libraries/CMSIS/DSP/Source/FilteringFunctions/arm_fir_decimate_f32.c **** 
 485:./Libraries/CMSIS/DSP/Source/FilteringFunctions/arm_fir_decimate_f32.c ****       /* Read the b[numTaps-4] coefficient */
 486:./Libraries/CMSIS/DSP/Source/FilteringFunctions/arm_fir_decimate_f32.c ****       c0 = *(pb++);
 487:./Libraries/CMSIS/DSP/Source/FilteringFunctions/arm_fir_decimate_f32.c **** 
 488:./Libraries/CMSIS/DSP/Source/FilteringFunctions/arm_fir_decimate_f32.c ****       /* Read x[n-numTaps-4] sample acc0, acc1, acc2, acc3 */
 489:./Libraries/CMSIS/DSP/Source/FilteringFunctions/arm_fir_decimate_f32.c ****       x0 = *(px0++);
 490:./Libraries/CMSIS/DSP/Source/FilteringFunctions/arm_fir_decimate_f32.c ****       x1 = *(px1++);
 491:./Libraries/CMSIS/DSP/Source/FilteringFunctions/arm_fir_decimate_f32.c ****       x2 = *(px2++);
 492:./Libraries/CMSIS/DSP/Source/FilteringFunctions/arm_fir_decimate_f32.c ****       x3 = *(px3++);
 493:./Libraries/CMSIS/DSP/Source/FilteringFunctions/arm_fir_decimate_f32.c **** 
ARM GAS  /tmp/cczIha8f.s 			page 11


 494:./Libraries/CMSIS/DSP/Source/FilteringFunctions/arm_fir_decimate_f32.c ****       /* Perform the multiply-accumulate */
 495:./Libraries/CMSIS/DSP/Source/FilteringFunctions/arm_fir_decimate_f32.c ****       acc0 += x0 * c0;
 496:./Libraries/CMSIS/DSP/Source/FilteringFunctions/arm_fir_decimate_f32.c ****       acc1 += x1 * c0;
 497:./Libraries/CMSIS/DSP/Source/FilteringFunctions/arm_fir_decimate_f32.c ****       acc2 += x2 * c0;
 498:./Libraries/CMSIS/DSP/Source/FilteringFunctions/arm_fir_decimate_f32.c ****       acc3 += x3 * c0;
 499:./Libraries/CMSIS/DSP/Source/FilteringFunctions/arm_fir_decimate_f32.c **** 
 500:./Libraries/CMSIS/DSP/Source/FilteringFunctions/arm_fir_decimate_f32.c ****       /* Decrement loop counter */
 501:./Libraries/CMSIS/DSP/Source/FilteringFunctions/arm_fir_decimate_f32.c ****       tapCnt--;
 502:./Libraries/CMSIS/DSP/Source/FilteringFunctions/arm_fir_decimate_f32.c ****     }
 503:./Libraries/CMSIS/DSP/Source/FilteringFunctions/arm_fir_decimate_f32.c **** 
 504:./Libraries/CMSIS/DSP/Source/FilteringFunctions/arm_fir_decimate_f32.c ****     /* Loop unrolling: Compute remaining taps */
 505:./Libraries/CMSIS/DSP/Source/FilteringFunctions/arm_fir_decimate_f32.c ****     tapCnt = numTaps % 0x4U;
 506:./Libraries/CMSIS/DSP/Source/FilteringFunctions/arm_fir_decimate_f32.c **** 
 507:./Libraries/CMSIS/DSP/Source/FilteringFunctions/arm_fir_decimate_f32.c ****     while (tapCnt > 0U)
 508:./Libraries/CMSIS/DSP/Source/FilteringFunctions/arm_fir_decimate_f32.c ****     {
 509:./Libraries/CMSIS/DSP/Source/FilteringFunctions/arm_fir_decimate_f32.c ****       /* Read coefficients */
 510:./Libraries/CMSIS/DSP/Source/FilteringFunctions/arm_fir_decimate_f32.c ****       c0 = *(pb++);
 511:./Libraries/CMSIS/DSP/Source/FilteringFunctions/arm_fir_decimate_f32.c **** 
 512:./Libraries/CMSIS/DSP/Source/FilteringFunctions/arm_fir_decimate_f32.c ****       /* Fetch state variables for acc0, acc1, acc2, acc3 */
 513:./Libraries/CMSIS/DSP/Source/FilteringFunctions/arm_fir_decimate_f32.c ****       x0 = *(px0++);
 514:./Libraries/CMSIS/DSP/Source/FilteringFunctions/arm_fir_decimate_f32.c ****       x1 = *(px1++);
 515:./Libraries/CMSIS/DSP/Source/FilteringFunctions/arm_fir_decimate_f32.c ****       x2 = *(px2++);
 516:./Libraries/CMSIS/DSP/Source/FilteringFunctions/arm_fir_decimate_f32.c ****       x3 = *(px3++);
 517:./Libraries/CMSIS/DSP/Source/FilteringFunctions/arm_fir_decimate_f32.c **** 
 518:./Libraries/CMSIS/DSP/Source/FilteringFunctions/arm_fir_decimate_f32.c ****       /* Perform the multiply-accumulate */
 519:./Libraries/CMSIS/DSP/Source/FilteringFunctions/arm_fir_decimate_f32.c ****       acc0 += x0 * c0;
 520:./Libraries/CMSIS/DSP/Source/FilteringFunctions/arm_fir_decimate_f32.c ****       acc1 += x1 * c0;
 521:./Libraries/CMSIS/DSP/Source/FilteringFunctions/arm_fir_decimate_f32.c ****       acc2 += x2 * c0;
 522:./Libraries/CMSIS/DSP/Source/FilteringFunctions/arm_fir_decimate_f32.c ****       acc3 += x3 * c0;
 523:./Libraries/CMSIS/DSP/Source/FilteringFunctions/arm_fir_decimate_f32.c **** 
 524:./Libraries/CMSIS/DSP/Source/FilteringFunctions/arm_fir_decimate_f32.c ****       /* Decrement loop counter */
 525:./Libraries/CMSIS/DSP/Source/FilteringFunctions/arm_fir_decimate_f32.c ****       tapCnt--;
 526:./Libraries/CMSIS/DSP/Source/FilteringFunctions/arm_fir_decimate_f32.c ****     }
 527:./Libraries/CMSIS/DSP/Source/FilteringFunctions/arm_fir_decimate_f32.c **** 
 528:./Libraries/CMSIS/DSP/Source/FilteringFunctions/arm_fir_decimate_f32.c ****     /* Advance the state pointer by the decimation factor
 529:./Libraries/CMSIS/DSP/Source/FilteringFunctions/arm_fir_decimate_f32.c ****      * to process the next group of decimation factor number samples */
 530:./Libraries/CMSIS/DSP/Source/FilteringFunctions/arm_fir_decimate_f32.c ****     pState = pState + S->M * 4;
 531:./Libraries/CMSIS/DSP/Source/FilteringFunctions/arm_fir_decimate_f32.c **** 
 532:./Libraries/CMSIS/DSP/Source/FilteringFunctions/arm_fir_decimate_f32.c ****     /* The result is in the accumulator, store in the destination buffer. */
 533:./Libraries/CMSIS/DSP/Source/FilteringFunctions/arm_fir_decimate_f32.c ****     *pDst++ = acc0;
 534:./Libraries/CMSIS/DSP/Source/FilteringFunctions/arm_fir_decimate_f32.c ****     *pDst++ = acc1;
 535:./Libraries/CMSIS/DSP/Source/FilteringFunctions/arm_fir_decimate_f32.c ****     *pDst++ = acc2;
 536:./Libraries/CMSIS/DSP/Source/FilteringFunctions/arm_fir_decimate_f32.c ****     *pDst++ = acc3;
 537:./Libraries/CMSIS/DSP/Source/FilteringFunctions/arm_fir_decimate_f32.c **** 
 538:./Libraries/CMSIS/DSP/Source/FilteringFunctions/arm_fir_decimate_f32.c ****     /* Decrement loop counter */
 539:./Libraries/CMSIS/DSP/Source/FilteringFunctions/arm_fir_decimate_f32.c ****     blkCnt--;
 540:./Libraries/CMSIS/DSP/Source/FilteringFunctions/arm_fir_decimate_f32.c ****   }
 541:./Libraries/CMSIS/DSP/Source/FilteringFunctions/arm_fir_decimate_f32.c **** 
 542:./Libraries/CMSIS/DSP/Source/FilteringFunctions/arm_fir_decimate_f32.c ****   /* Loop unrolling: Compute remaining samples */
 543:./Libraries/CMSIS/DSP/Source/FilteringFunctions/arm_fir_decimate_f32.c ****   blkCnt = outBlockSize % 0x4U;
 544:./Libraries/CMSIS/DSP/Source/FilteringFunctions/arm_fir_decimate_f32.c **** 
 545:./Libraries/CMSIS/DSP/Source/FilteringFunctions/arm_fir_decimate_f32.c **** #else
 546:./Libraries/CMSIS/DSP/Source/FilteringFunctions/arm_fir_decimate_f32.c **** 
 547:./Libraries/CMSIS/DSP/Source/FilteringFunctions/arm_fir_decimate_f32.c ****   /* Initialize blkCnt with number of samples */
 548:./Libraries/CMSIS/DSP/Source/FilteringFunctions/arm_fir_decimate_f32.c ****   blkCnt = outBlockSize;
  79              		.loc 1 548 10
  80 0040 FB69     		ldr	r3, [r7, #28]
ARM GAS  /tmp/cczIha8f.s 			page 12


  81 0042 BB62     		str	r3, [r7, #40]
 549:./Libraries/CMSIS/DSP/Source/FilteringFunctions/arm_fir_decimate_f32.c **** 
 550:./Libraries/CMSIS/DSP/Source/FilteringFunctions/arm_fir_decimate_f32.c **** #endif /* #if defined (ARM_MATH_LOOPUNROLL) */
 551:./Libraries/CMSIS/DSP/Source/FilteringFunctions/arm_fir_decimate_f32.c **** 
 552:./Libraries/CMSIS/DSP/Source/FilteringFunctions/arm_fir_decimate_f32.c ****   while (blkCnt > 0U)
  82              		.loc 1 552 9
  83 0044 44E0     		b	.L2
  84              	.L6:
 553:./Libraries/CMSIS/DSP/Source/FilteringFunctions/arm_fir_decimate_f32.c ****   {
 554:./Libraries/CMSIS/DSP/Source/FilteringFunctions/arm_fir_decimate_f32.c ****     /* Copy decimation factor number of new input samples into the state buffer */
 555:./Libraries/CMSIS/DSP/Source/FilteringFunctions/arm_fir_decimate_f32.c ****     i = S->M;
  85              		.loc 1 555 10
  86 0046 FB68     		ldr	r3, [r7, #12]
  87 0048 1B78     		ldrb	r3, [r3]	@ zero_extendqisi2
  88              		.loc 1 555 7
  89 004a 3B63     		str	r3, [r7, #48]
  90              	.L3:
 556:./Libraries/CMSIS/DSP/Source/FilteringFunctions/arm_fir_decimate_f32.c **** 
 557:./Libraries/CMSIS/DSP/Source/FilteringFunctions/arm_fir_decimate_f32.c ****     do
 558:./Libraries/CMSIS/DSP/Source/FilteringFunctions/arm_fir_decimate_f32.c ****     {
 559:./Libraries/CMSIS/DSP/Source/FilteringFunctions/arm_fir_decimate_f32.c ****       *pStateCur++ = *pSrc++;
  91              		.loc 1 559 27 discriminator 1
  92 004c BA68     		ldr	r2, [r7, #8]
  93 004e 131D     		adds	r3, r2, #4
  94 0050 BB60     		str	r3, [r7, #8]
  95              		.loc 1 559 17 discriminator 1
  96 0052 3B6C     		ldr	r3, [r7, #64]
  97 0054 191D     		adds	r1, r3, #4
  98 0056 3964     		str	r1, [r7, #64]
  99              		.loc 1 559 22 discriminator 1
 100 0058 1268     		ldr	r2, [r2]	@ float
 101              		.loc 1 559 20 discriminator 1
 102 005a 1A60     		str	r2, [r3]	@ float
 560:./Libraries/CMSIS/DSP/Source/FilteringFunctions/arm_fir_decimate_f32.c **** 
 561:./Libraries/CMSIS/DSP/Source/FilteringFunctions/arm_fir_decimate_f32.c ****     } while (--i);
 103              		.loc 1 561 5 discriminator 1
 104 005c 3B6B     		ldr	r3, [r7, #48]
 105 005e 013B     		subs	r3, r3, #1
 106 0060 3B63     		str	r3, [r7, #48]
 107 0062 3B6B     		ldr	r3, [r7, #48]
 108 0064 002B     		cmp	r3, #0
 109 0066 F1D1     		bne	.L3
 562:./Libraries/CMSIS/DSP/Source/FilteringFunctions/arm_fir_decimate_f32.c **** 
 563:./Libraries/CMSIS/DSP/Source/FilteringFunctions/arm_fir_decimate_f32.c ****     /* Set accumulator to zero */
 564:./Libraries/CMSIS/DSP/Source/FilteringFunctions/arm_fir_decimate_f32.c ****     acc0 = 0.0f;
 110              		.loc 1 564 10
 111 0068 4FF00003 		mov	r3, #0
 112 006c 7B63     		str	r3, [r7, #52]	@ float
 565:./Libraries/CMSIS/DSP/Source/FilteringFunctions/arm_fir_decimate_f32.c **** 
 566:./Libraries/CMSIS/DSP/Source/FilteringFunctions/arm_fir_decimate_f32.c ****     /* Initialize state pointer */
 567:./Libraries/CMSIS/DSP/Source/FilteringFunctions/arm_fir_decimate_f32.c ****     px0 = pState;
 113              		.loc 1 567 9
 114 006e 7B6C     		ldr	r3, [r7, #68]
 115 0070 FB63     		str	r3, [r7, #60]
 568:./Libraries/CMSIS/DSP/Source/FilteringFunctions/arm_fir_decimate_f32.c **** 
 569:./Libraries/CMSIS/DSP/Source/FilteringFunctions/arm_fir_decimate_f32.c ****     /* Initialize coeff pointer */
 570:./Libraries/CMSIS/DSP/Source/FilteringFunctions/arm_fir_decimate_f32.c ****     pb = pCoeffs;
ARM GAS  /tmp/cczIha8f.s 			page 13


 116              		.loc 1 570 8
 117 0072 7B6A     		ldr	r3, [r7, #36]
 118 0074 BB63     		str	r3, [r7, #56]
 571:./Libraries/CMSIS/DSP/Source/FilteringFunctions/arm_fir_decimate_f32.c **** 
 572:./Libraries/CMSIS/DSP/Source/FilteringFunctions/arm_fir_decimate_f32.c **** #if defined (ARM_MATH_LOOPUNROLL)
 573:./Libraries/CMSIS/DSP/Source/FilteringFunctions/arm_fir_decimate_f32.c **** 
 574:./Libraries/CMSIS/DSP/Source/FilteringFunctions/arm_fir_decimate_f32.c ****     /* Loop unrolling: Compute 4 taps at a time */
 575:./Libraries/CMSIS/DSP/Source/FilteringFunctions/arm_fir_decimate_f32.c ****     tapCnt = numTaps >> 2U;
 576:./Libraries/CMSIS/DSP/Source/FilteringFunctions/arm_fir_decimate_f32.c **** 
 577:./Libraries/CMSIS/DSP/Source/FilteringFunctions/arm_fir_decimate_f32.c ****     while (tapCnt > 0U)
 578:./Libraries/CMSIS/DSP/Source/FilteringFunctions/arm_fir_decimate_f32.c ****     {
 579:./Libraries/CMSIS/DSP/Source/FilteringFunctions/arm_fir_decimate_f32.c ****       /* Read the b[numTaps-1] coefficient */
 580:./Libraries/CMSIS/DSP/Source/FilteringFunctions/arm_fir_decimate_f32.c ****       c0 = *pb++;
 581:./Libraries/CMSIS/DSP/Source/FilteringFunctions/arm_fir_decimate_f32.c **** 
 582:./Libraries/CMSIS/DSP/Source/FilteringFunctions/arm_fir_decimate_f32.c ****       /* Read x[n-numTaps-1] sample */
 583:./Libraries/CMSIS/DSP/Source/FilteringFunctions/arm_fir_decimate_f32.c ****       x0 = *px0++;
 584:./Libraries/CMSIS/DSP/Source/FilteringFunctions/arm_fir_decimate_f32.c **** 
 585:./Libraries/CMSIS/DSP/Source/FilteringFunctions/arm_fir_decimate_f32.c ****       /* Perform the multiply-accumulate */
 586:./Libraries/CMSIS/DSP/Source/FilteringFunctions/arm_fir_decimate_f32.c ****       acc0 += x0 * c0;
 587:./Libraries/CMSIS/DSP/Source/FilteringFunctions/arm_fir_decimate_f32.c **** 
 588:./Libraries/CMSIS/DSP/Source/FilteringFunctions/arm_fir_decimate_f32.c ****       /* Read the b[numTaps-2] coefficient */
 589:./Libraries/CMSIS/DSP/Source/FilteringFunctions/arm_fir_decimate_f32.c ****       c0 = *pb++;
 590:./Libraries/CMSIS/DSP/Source/FilteringFunctions/arm_fir_decimate_f32.c **** 
 591:./Libraries/CMSIS/DSP/Source/FilteringFunctions/arm_fir_decimate_f32.c ****       /* Read x[n-numTaps-2] sample */
 592:./Libraries/CMSIS/DSP/Source/FilteringFunctions/arm_fir_decimate_f32.c ****       x0 = *px0++;
 593:./Libraries/CMSIS/DSP/Source/FilteringFunctions/arm_fir_decimate_f32.c **** 
 594:./Libraries/CMSIS/DSP/Source/FilteringFunctions/arm_fir_decimate_f32.c ****       /* Perform the multiply-accumulate */
 595:./Libraries/CMSIS/DSP/Source/FilteringFunctions/arm_fir_decimate_f32.c ****       acc0 += x0 * c0;
 596:./Libraries/CMSIS/DSP/Source/FilteringFunctions/arm_fir_decimate_f32.c **** 
 597:./Libraries/CMSIS/DSP/Source/FilteringFunctions/arm_fir_decimate_f32.c ****       /* Read the b[numTaps-3] coefficient */
 598:./Libraries/CMSIS/DSP/Source/FilteringFunctions/arm_fir_decimate_f32.c ****       c0 = *pb++;
 599:./Libraries/CMSIS/DSP/Source/FilteringFunctions/arm_fir_decimate_f32.c **** 
 600:./Libraries/CMSIS/DSP/Source/FilteringFunctions/arm_fir_decimate_f32.c ****       /* Read x[n-numTaps-3] sample */
 601:./Libraries/CMSIS/DSP/Source/FilteringFunctions/arm_fir_decimate_f32.c ****       x0 = *px0++;
 602:./Libraries/CMSIS/DSP/Source/FilteringFunctions/arm_fir_decimate_f32.c **** 
 603:./Libraries/CMSIS/DSP/Source/FilteringFunctions/arm_fir_decimate_f32.c ****       /* Perform the multiply-accumulate */
 604:./Libraries/CMSIS/DSP/Source/FilteringFunctions/arm_fir_decimate_f32.c ****       acc0 += x0 * c0;
 605:./Libraries/CMSIS/DSP/Source/FilteringFunctions/arm_fir_decimate_f32.c **** 
 606:./Libraries/CMSIS/DSP/Source/FilteringFunctions/arm_fir_decimate_f32.c ****       /* Read the b[numTaps-4] coefficient */
 607:./Libraries/CMSIS/DSP/Source/FilteringFunctions/arm_fir_decimate_f32.c ****       c0 = *pb++;
 608:./Libraries/CMSIS/DSP/Source/FilteringFunctions/arm_fir_decimate_f32.c **** 
 609:./Libraries/CMSIS/DSP/Source/FilteringFunctions/arm_fir_decimate_f32.c ****       /* Read x[n-numTaps-4] sample */
 610:./Libraries/CMSIS/DSP/Source/FilteringFunctions/arm_fir_decimate_f32.c ****       x0 = *px0++;
 611:./Libraries/CMSIS/DSP/Source/FilteringFunctions/arm_fir_decimate_f32.c **** 
 612:./Libraries/CMSIS/DSP/Source/FilteringFunctions/arm_fir_decimate_f32.c ****       /* Perform the multiply-accumulate */
 613:./Libraries/CMSIS/DSP/Source/FilteringFunctions/arm_fir_decimate_f32.c ****       acc0 += x0 * c0;
 614:./Libraries/CMSIS/DSP/Source/FilteringFunctions/arm_fir_decimate_f32.c **** 
 615:./Libraries/CMSIS/DSP/Source/FilteringFunctions/arm_fir_decimate_f32.c ****       /* Decrement loop counter */
 616:./Libraries/CMSIS/DSP/Source/FilteringFunctions/arm_fir_decimate_f32.c ****       tapCnt--;
 617:./Libraries/CMSIS/DSP/Source/FilteringFunctions/arm_fir_decimate_f32.c ****     }
 618:./Libraries/CMSIS/DSP/Source/FilteringFunctions/arm_fir_decimate_f32.c **** 
 619:./Libraries/CMSIS/DSP/Source/FilteringFunctions/arm_fir_decimate_f32.c ****     /* Loop unrolling: Compute remaining taps */
 620:./Libraries/CMSIS/DSP/Source/FilteringFunctions/arm_fir_decimate_f32.c ****     tapCnt = numTaps % 0x4U;
 621:./Libraries/CMSIS/DSP/Source/FilteringFunctions/arm_fir_decimate_f32.c **** 
 622:./Libraries/CMSIS/DSP/Source/FilteringFunctions/arm_fir_decimate_f32.c **** #else
 623:./Libraries/CMSIS/DSP/Source/FilteringFunctions/arm_fir_decimate_f32.c **** 
 624:./Libraries/CMSIS/DSP/Source/FilteringFunctions/arm_fir_decimate_f32.c ****     /* Initialize tapCnt with number of taps */
ARM GAS  /tmp/cczIha8f.s 			page 14


 625:./Libraries/CMSIS/DSP/Source/FilteringFunctions/arm_fir_decimate_f32.c ****     tapCnt = numTaps;
 119              		.loc 1 625 12
 120 0076 3B6A     		ldr	r3, [r7, #32]
 121 0078 FB62     		str	r3, [r7, #44]
 626:./Libraries/CMSIS/DSP/Source/FilteringFunctions/arm_fir_decimate_f32.c **** 
 627:./Libraries/CMSIS/DSP/Source/FilteringFunctions/arm_fir_decimate_f32.c **** #endif /* #if defined (ARM_MATH_LOOPUNROLL) */
 628:./Libraries/CMSIS/DSP/Source/FilteringFunctions/arm_fir_decimate_f32.c **** 
 629:./Libraries/CMSIS/DSP/Source/FilteringFunctions/arm_fir_decimate_f32.c ****     while (tapCnt > 0U)
 122              		.loc 1 629 11
 123 007a 18E0     		b	.L4
 124              	.L5:
 630:./Libraries/CMSIS/DSP/Source/FilteringFunctions/arm_fir_decimate_f32.c ****     {
 631:./Libraries/CMSIS/DSP/Source/FilteringFunctions/arm_fir_decimate_f32.c ****       /* Read coefficients */
 632:./Libraries/CMSIS/DSP/Source/FilteringFunctions/arm_fir_decimate_f32.c ****       c0 = *pb++;
 125              		.loc 1 632 15
 126 007c BB6B     		ldr	r3, [r7, #56]
 127 007e 1A1D     		adds	r2, r3, #4
 128 0080 BA63     		str	r2, [r7, #56]
 129              		.loc 1 632 10
 130 0082 1B68     		ldr	r3, [r3]	@ float
 131 0084 BB61     		str	r3, [r7, #24]	@ float
 633:./Libraries/CMSIS/DSP/Source/FilteringFunctions/arm_fir_decimate_f32.c **** 
 634:./Libraries/CMSIS/DSP/Source/FilteringFunctions/arm_fir_decimate_f32.c ****       /* Fetch 1 state variable */
 635:./Libraries/CMSIS/DSP/Source/FilteringFunctions/arm_fir_decimate_f32.c ****       x0 = *px0++;
 132              		.loc 1 635 16
 133 0086 FB6B     		ldr	r3, [r7, #60]
 134 0088 1A1D     		adds	r2, r3, #4
 135 008a FA63     		str	r2, [r7, #60]
 136              		.loc 1 635 10
 137 008c 1B68     		ldr	r3, [r3]	@ float
 138 008e 7B61     		str	r3, [r7, #20]	@ float
 636:./Libraries/CMSIS/DSP/Source/FilteringFunctions/arm_fir_decimate_f32.c **** 
 637:./Libraries/CMSIS/DSP/Source/FilteringFunctions/arm_fir_decimate_f32.c ****       /* Perform the multiply-accumulate */
 638:./Libraries/CMSIS/DSP/Source/FilteringFunctions/arm_fir_decimate_f32.c ****       acc0 += x0 * c0;
 139              		.loc 1 638 18
 140 0090 97ED057A 		vldr.32	s14, [r7, #20]
 141 0094 D7ED067A 		vldr.32	s15, [r7, #24]
 142 0098 67EE277A 		vmul.f32	s15, s14, s15
 143              		.loc 1 638 12
 144 009c 97ED0D7A 		vldr.32	s14, [r7, #52]
 145 00a0 77EE277A 		vadd.f32	s15, s14, s15
 146 00a4 C7ED0D7A 		vstr.32	s15, [r7, #52]
 639:./Libraries/CMSIS/DSP/Source/FilteringFunctions/arm_fir_decimate_f32.c **** 
 640:./Libraries/CMSIS/DSP/Source/FilteringFunctions/arm_fir_decimate_f32.c ****       /* Decrement loop counter */
 641:./Libraries/CMSIS/DSP/Source/FilteringFunctions/arm_fir_decimate_f32.c ****       tapCnt--;
 147              		.loc 1 641 13
 148 00a8 FB6A     		ldr	r3, [r7, #44]
 149 00aa 013B     		subs	r3, r3, #1
 150 00ac FB62     		str	r3, [r7, #44]
 151              	.L4:
 629:./Libraries/CMSIS/DSP/Source/FilteringFunctions/arm_fir_decimate_f32.c ****     {
 152              		.loc 1 629 11
 153 00ae FB6A     		ldr	r3, [r7, #44]
 154 00b0 002B     		cmp	r3, #0
 155 00b2 E3D1     		bne	.L5
 642:./Libraries/CMSIS/DSP/Source/FilteringFunctions/arm_fir_decimate_f32.c ****     }
 643:./Libraries/CMSIS/DSP/Source/FilteringFunctions/arm_fir_decimate_f32.c **** 
ARM GAS  /tmp/cczIha8f.s 			page 15


 644:./Libraries/CMSIS/DSP/Source/FilteringFunctions/arm_fir_decimate_f32.c ****     /* Advance the state pointer by the decimation factor
 645:./Libraries/CMSIS/DSP/Source/FilteringFunctions/arm_fir_decimate_f32.c ****      * to process the next group of decimation factor number samples */
 646:./Libraries/CMSIS/DSP/Source/FilteringFunctions/arm_fir_decimate_f32.c ****     pState = pState + S->M;
 156              		.loc 1 646 24
 157 00b4 FB68     		ldr	r3, [r7, #12]
 158 00b6 1B78     		ldrb	r3, [r3]	@ zero_extendqisi2
 159              		.loc 1 646 21
 160 00b8 9B00     		lsls	r3, r3, #2
 161              		.loc 1 646 12
 162 00ba 7A6C     		ldr	r2, [r7, #68]
 163 00bc 1344     		add	r3, r3, r2
 164 00be 7B64     		str	r3, [r7, #68]
 647:./Libraries/CMSIS/DSP/Source/FilteringFunctions/arm_fir_decimate_f32.c **** 
 648:./Libraries/CMSIS/DSP/Source/FilteringFunctions/arm_fir_decimate_f32.c ****     /* The result is in the accumulator, store in the destination buffer. */
 649:./Libraries/CMSIS/DSP/Source/FilteringFunctions/arm_fir_decimate_f32.c ****     *pDst++ = acc0;
 165              		.loc 1 649 10
 166 00c0 7B68     		ldr	r3, [r7, #4]
 167 00c2 1A1D     		adds	r2, r3, #4
 168 00c4 7A60     		str	r2, [r7, #4]
 169              		.loc 1 649 13
 170 00c6 7A6B     		ldr	r2, [r7, #52]	@ float
 171 00c8 1A60     		str	r2, [r3]	@ float
 650:./Libraries/CMSIS/DSP/Source/FilteringFunctions/arm_fir_decimate_f32.c **** 
 651:./Libraries/CMSIS/DSP/Source/FilteringFunctions/arm_fir_decimate_f32.c ****     /* Decrement loop counter */
 652:./Libraries/CMSIS/DSP/Source/FilteringFunctions/arm_fir_decimate_f32.c ****     blkCnt--;
 172              		.loc 1 652 11
 173 00ca BB6A     		ldr	r3, [r7, #40]
 174 00cc 013B     		subs	r3, r3, #1
 175 00ce BB62     		str	r3, [r7, #40]
 176              	.L2:
 552:./Libraries/CMSIS/DSP/Source/FilteringFunctions/arm_fir_decimate_f32.c ****   {
 177              		.loc 1 552 9
 178 00d0 BB6A     		ldr	r3, [r7, #40]
 179 00d2 002B     		cmp	r3, #0
 180 00d4 B7D1     		bne	.L6
 653:./Libraries/CMSIS/DSP/Source/FilteringFunctions/arm_fir_decimate_f32.c ****   }
 654:./Libraries/CMSIS/DSP/Source/FilteringFunctions/arm_fir_decimate_f32.c **** 
 655:./Libraries/CMSIS/DSP/Source/FilteringFunctions/arm_fir_decimate_f32.c ****   /* Processing is complete.
 656:./Libraries/CMSIS/DSP/Source/FilteringFunctions/arm_fir_decimate_f32.c ****      Now copy the last numTaps - 1 samples to the satrt of the state buffer.
 657:./Libraries/CMSIS/DSP/Source/FilteringFunctions/arm_fir_decimate_f32.c ****      This prepares the state buffer for the next function call. */
 658:./Libraries/CMSIS/DSP/Source/FilteringFunctions/arm_fir_decimate_f32.c **** 
 659:./Libraries/CMSIS/DSP/Source/FilteringFunctions/arm_fir_decimate_f32.c ****   /* Points to the start of the state buffer */
 660:./Libraries/CMSIS/DSP/Source/FilteringFunctions/arm_fir_decimate_f32.c ****   pStateCur = S->pState;
 181              		.loc 1 660 13
 182 00d6 FB68     		ldr	r3, [r7, #12]
 183 00d8 9B68     		ldr	r3, [r3, #8]
 184 00da 3B64     		str	r3, [r7, #64]
 661:./Libraries/CMSIS/DSP/Source/FilteringFunctions/arm_fir_decimate_f32.c **** 
 662:./Libraries/CMSIS/DSP/Source/FilteringFunctions/arm_fir_decimate_f32.c **** #if defined (ARM_MATH_LOOPUNROLL)
 663:./Libraries/CMSIS/DSP/Source/FilteringFunctions/arm_fir_decimate_f32.c **** 
 664:./Libraries/CMSIS/DSP/Source/FilteringFunctions/arm_fir_decimate_f32.c ****   /* Loop unrolling: Compute 4 taps at a time */
 665:./Libraries/CMSIS/DSP/Source/FilteringFunctions/arm_fir_decimate_f32.c ****   tapCnt = (numTaps - 1U) >> 2U;
 666:./Libraries/CMSIS/DSP/Source/FilteringFunctions/arm_fir_decimate_f32.c **** 
 667:./Libraries/CMSIS/DSP/Source/FilteringFunctions/arm_fir_decimate_f32.c ****   /* Copy data */
 668:./Libraries/CMSIS/DSP/Source/FilteringFunctions/arm_fir_decimate_f32.c ****   while (tapCnt > 0U)
 669:./Libraries/CMSIS/DSP/Source/FilteringFunctions/arm_fir_decimate_f32.c ****   {
 670:./Libraries/CMSIS/DSP/Source/FilteringFunctions/arm_fir_decimate_f32.c ****     *pStateCur++ = *pState++;
ARM GAS  /tmp/cczIha8f.s 			page 16


 671:./Libraries/CMSIS/DSP/Source/FilteringFunctions/arm_fir_decimate_f32.c ****     *pStateCur++ = *pState++;
 672:./Libraries/CMSIS/DSP/Source/FilteringFunctions/arm_fir_decimate_f32.c ****     *pStateCur++ = *pState++;
 673:./Libraries/CMSIS/DSP/Source/FilteringFunctions/arm_fir_decimate_f32.c ****     *pStateCur++ = *pState++;
 674:./Libraries/CMSIS/DSP/Source/FilteringFunctions/arm_fir_decimate_f32.c **** 
 675:./Libraries/CMSIS/DSP/Source/FilteringFunctions/arm_fir_decimate_f32.c ****     /* Decrement loop counter */
 676:./Libraries/CMSIS/DSP/Source/FilteringFunctions/arm_fir_decimate_f32.c ****     tapCnt--;
 677:./Libraries/CMSIS/DSP/Source/FilteringFunctions/arm_fir_decimate_f32.c ****   }
 678:./Libraries/CMSIS/DSP/Source/FilteringFunctions/arm_fir_decimate_f32.c **** 
 679:./Libraries/CMSIS/DSP/Source/FilteringFunctions/arm_fir_decimate_f32.c ****   /* Loop unrolling: Compute remaining taps */
 680:./Libraries/CMSIS/DSP/Source/FilteringFunctions/arm_fir_decimate_f32.c ****   tapCnt = (numTaps - 1U) % 0x04U;
 681:./Libraries/CMSIS/DSP/Source/FilteringFunctions/arm_fir_decimate_f32.c **** 
 682:./Libraries/CMSIS/DSP/Source/FilteringFunctions/arm_fir_decimate_f32.c **** #else
 683:./Libraries/CMSIS/DSP/Source/FilteringFunctions/arm_fir_decimate_f32.c **** 
 684:./Libraries/CMSIS/DSP/Source/FilteringFunctions/arm_fir_decimate_f32.c ****   /* Initialize tapCnt with number of taps */
 685:./Libraries/CMSIS/DSP/Source/FilteringFunctions/arm_fir_decimate_f32.c ****   tapCnt = (numTaps - 1U);
 185              		.loc 1 685 10
 186 00dc 3B6A     		ldr	r3, [r7, #32]
 187 00de 013B     		subs	r3, r3, #1
 188 00e0 FB62     		str	r3, [r7, #44]
 686:./Libraries/CMSIS/DSP/Source/FilteringFunctions/arm_fir_decimate_f32.c **** 
 687:./Libraries/CMSIS/DSP/Source/FilteringFunctions/arm_fir_decimate_f32.c **** #endif /* #if defined (ARM_MATH_LOOPUNROLL) */
 688:./Libraries/CMSIS/DSP/Source/FilteringFunctions/arm_fir_decimate_f32.c **** 
 689:./Libraries/CMSIS/DSP/Source/FilteringFunctions/arm_fir_decimate_f32.c ****   /* Copy data */
 690:./Libraries/CMSIS/DSP/Source/FilteringFunctions/arm_fir_decimate_f32.c ****   while (tapCnt > 0U)
 189              		.loc 1 690 9
 190 00e2 0AE0     		b	.L7
 191              	.L8:
 691:./Libraries/CMSIS/DSP/Source/FilteringFunctions/arm_fir_decimate_f32.c ****   {
 692:./Libraries/CMSIS/DSP/Source/FilteringFunctions/arm_fir_decimate_f32.c ****     *pStateCur++ = *pState++;
 192              		.loc 1 692 27
 193 00e4 7A6C     		ldr	r2, [r7, #68]
 194 00e6 131D     		adds	r3, r2, #4
 195 00e8 7B64     		str	r3, [r7, #68]
 196              		.loc 1 692 15
 197 00ea 3B6C     		ldr	r3, [r7, #64]
 198 00ec 191D     		adds	r1, r3, #4
 199 00ee 3964     		str	r1, [r7, #64]
 200              		.loc 1 692 20
 201 00f0 1268     		ldr	r2, [r2]	@ float
 202              		.loc 1 692 18
 203 00f2 1A60     		str	r2, [r3]	@ float
 693:./Libraries/CMSIS/DSP/Source/FilteringFunctions/arm_fir_decimate_f32.c **** 
 694:./Libraries/CMSIS/DSP/Source/FilteringFunctions/arm_fir_decimate_f32.c ****     /* Decrement loop counter */
 695:./Libraries/CMSIS/DSP/Source/FilteringFunctions/arm_fir_decimate_f32.c ****     tapCnt--;
 204              		.loc 1 695 11
 205 00f4 FB6A     		ldr	r3, [r7, #44]
 206 00f6 013B     		subs	r3, r3, #1
 207 00f8 FB62     		str	r3, [r7, #44]
 208              	.L7:
 690:./Libraries/CMSIS/DSP/Source/FilteringFunctions/arm_fir_decimate_f32.c ****   {
 209              		.loc 1 690 9
 210 00fa FB6A     		ldr	r3, [r7, #44]
 211 00fc 002B     		cmp	r3, #0
 212 00fe F1D1     		bne	.L8
 696:./Libraries/CMSIS/DSP/Source/FilteringFunctions/arm_fir_decimate_f32.c ****   }
 697:./Libraries/CMSIS/DSP/Source/FilteringFunctions/arm_fir_decimate_f32.c **** 
 698:./Libraries/CMSIS/DSP/Source/FilteringFunctions/arm_fir_decimate_f32.c **** }
ARM GAS  /tmp/cczIha8f.s 			page 17


 213              		.loc 1 698 1
 214 0100 00BF     		nop
 215 0102 00BF     		nop
 216 0104 4C37     		adds	r7, r7, #76
 217              	.LCFI3:
 218              		.cfi_def_cfa_offset 4
 219 0106 BD46     		mov	sp, r7
 220              	.LCFI4:
 221              		.cfi_def_cfa_register 13
 222              		@ sp needed
 223 0108 5DF8047B 		ldr	r7, [sp], #4
 224              	.LCFI5:
 225              		.cfi_restore 7
 226              		.cfi_def_cfa_offset 0
 227 010c 7047     		bx	lr
 228              		.cfi_endproc
 229              	.LFE145:
 231              		.text
 232              	.Letext0:
 233              		.file 2 "/usr/lib/gcc/arm-none-eabi/9.2.1/include/stdint.h"
 234              		.file 3 "/usr/lib/gcc/arm-none-eabi/9.2.1/include/stddef.h"
 235              		.file 4 "/usr/include/newlib/sys/_types.h"
 236              		.file 5 "/usr/include/newlib/sys/reent.h"
 237              		.file 6 "/usr/include/newlib/sys/lock.h"
 238              		.file 7 "/usr/include/newlib/math.h"
 239              		.file 8 "./Libraries/CMSIS/DSP/Include/arm_math.h"
ARM GAS  /tmp/cczIha8f.s 			page 18

