ARM GAS  /tmp/ccpTtnNz.s 			page 1


   1              		.cpu cortex-m7
   2              		.eabi_attribute 28, 1
   3              		.eabi_attribute 20, 1
   4              		.eabi_attribute 21, 1
   5              		.eabi_attribute 23, 3
   6              		.eabi_attribute 24, 1
   7              		.eabi_attribute 25, 1
   8              		.eabi_attribute 26, 1
   9              		.eabi_attribute 30, 6
  10              		.eabi_attribute 34, 1
  11              		.eabi_attribute 18, 4
  12              		.file	"arm_fir_decimate_init_q31.c"
  13              		.text
  14              	.Ltext0:
  15              		.cfi_sections	.debug_frame
  16              		.section	.text.arm_fir_decimate_init_q31,"ax",%progbits
  17              		.align	1
  18              		.global	arm_fir_decimate_init_q31
  19              		.arch armv7e-m
  20              		.syntax unified
  21              		.thumb
  22              		.thumb_func
  23              		.fpu fpv5-d16
  25              	arm_fir_decimate_init_q31:
  26              	.LFB145:
  27              		.file 1 "./Libraries/CMSIS/DSP/Source/FilteringFunctions/arm_fir_decimate_init_q31.c"
   1:./Libraries/CMSIS/DSP/Source/FilteringFunctions/arm_fir_decimate_init_q31.c **** /* ----------------------------------------------------------------------
   2:./Libraries/CMSIS/DSP/Source/FilteringFunctions/arm_fir_decimate_init_q31.c ****  * Project:      CMSIS DSP Library
   3:./Libraries/CMSIS/DSP/Source/FilteringFunctions/arm_fir_decimate_init_q31.c ****  * Title:        arm_fir_decimate_init_q31.c
   4:./Libraries/CMSIS/DSP/Source/FilteringFunctions/arm_fir_decimate_init_q31.c ****  * Description:  Initialization function for Q31 FIR Decimation filter
   5:./Libraries/CMSIS/DSP/Source/FilteringFunctions/arm_fir_decimate_init_q31.c ****  *
   6:./Libraries/CMSIS/DSP/Source/FilteringFunctions/arm_fir_decimate_init_q31.c ****  * $Date:        18. March 2019
   7:./Libraries/CMSIS/DSP/Source/FilteringFunctions/arm_fir_decimate_init_q31.c ****  * $Revision:    V1.6.0
   8:./Libraries/CMSIS/DSP/Source/FilteringFunctions/arm_fir_decimate_init_q31.c ****  *
   9:./Libraries/CMSIS/DSP/Source/FilteringFunctions/arm_fir_decimate_init_q31.c ****  * Target Processor: Cortex-M cores
  10:./Libraries/CMSIS/DSP/Source/FilteringFunctions/arm_fir_decimate_init_q31.c ****  * -------------------------------------------------------------------- */
  11:./Libraries/CMSIS/DSP/Source/FilteringFunctions/arm_fir_decimate_init_q31.c **** /*
  12:./Libraries/CMSIS/DSP/Source/FilteringFunctions/arm_fir_decimate_init_q31.c ****  * Copyright (C) 2010-2019 ARM Limited or its affiliates. All rights reserved.
  13:./Libraries/CMSIS/DSP/Source/FilteringFunctions/arm_fir_decimate_init_q31.c ****  *
  14:./Libraries/CMSIS/DSP/Source/FilteringFunctions/arm_fir_decimate_init_q31.c ****  * SPDX-License-Identifier: Apache-2.0
  15:./Libraries/CMSIS/DSP/Source/FilteringFunctions/arm_fir_decimate_init_q31.c ****  *
  16:./Libraries/CMSIS/DSP/Source/FilteringFunctions/arm_fir_decimate_init_q31.c ****  * Licensed under the Apache License, Version 2.0 (the License); you may
  17:./Libraries/CMSIS/DSP/Source/FilteringFunctions/arm_fir_decimate_init_q31.c ****  * not use this file except in compliance with the License.
  18:./Libraries/CMSIS/DSP/Source/FilteringFunctions/arm_fir_decimate_init_q31.c ****  * You may obtain a copy of the License at
  19:./Libraries/CMSIS/DSP/Source/FilteringFunctions/arm_fir_decimate_init_q31.c ****  *
  20:./Libraries/CMSIS/DSP/Source/FilteringFunctions/arm_fir_decimate_init_q31.c ****  * www.apache.org/licenses/LICENSE-2.0
  21:./Libraries/CMSIS/DSP/Source/FilteringFunctions/arm_fir_decimate_init_q31.c ****  *
  22:./Libraries/CMSIS/DSP/Source/FilteringFunctions/arm_fir_decimate_init_q31.c ****  * Unless required by applicable law or agreed to in writing, software
  23:./Libraries/CMSIS/DSP/Source/FilteringFunctions/arm_fir_decimate_init_q31.c ****  * distributed under the License is distributed on an AS IS BASIS, WITHOUT
  24:./Libraries/CMSIS/DSP/Source/FilteringFunctions/arm_fir_decimate_init_q31.c ****  * WARRANTIES OR CONDITIONS OF ANY KIND, either express or implied.
  25:./Libraries/CMSIS/DSP/Source/FilteringFunctions/arm_fir_decimate_init_q31.c ****  * See the License for the specific language governing permissions and
  26:./Libraries/CMSIS/DSP/Source/FilteringFunctions/arm_fir_decimate_init_q31.c ****  * limitations under the License.
  27:./Libraries/CMSIS/DSP/Source/FilteringFunctions/arm_fir_decimate_init_q31.c ****  */
  28:./Libraries/CMSIS/DSP/Source/FilteringFunctions/arm_fir_decimate_init_q31.c **** 
  29:./Libraries/CMSIS/DSP/Source/FilteringFunctions/arm_fir_decimate_init_q31.c **** #include "arm_math.h"
  30:./Libraries/CMSIS/DSP/Source/FilteringFunctions/arm_fir_decimate_init_q31.c **** 
  31:./Libraries/CMSIS/DSP/Source/FilteringFunctions/arm_fir_decimate_init_q31.c **** /**
ARM GAS  /tmp/ccpTtnNz.s 			page 2


  32:./Libraries/CMSIS/DSP/Source/FilteringFunctions/arm_fir_decimate_init_q31.c ****   @ingroup groupFilters
  33:./Libraries/CMSIS/DSP/Source/FilteringFunctions/arm_fir_decimate_init_q31.c ****  */
  34:./Libraries/CMSIS/DSP/Source/FilteringFunctions/arm_fir_decimate_init_q31.c **** 
  35:./Libraries/CMSIS/DSP/Source/FilteringFunctions/arm_fir_decimate_init_q31.c **** /**
  36:./Libraries/CMSIS/DSP/Source/FilteringFunctions/arm_fir_decimate_init_q31.c ****   @addtogroup FIR_decimate
  37:./Libraries/CMSIS/DSP/Source/FilteringFunctions/arm_fir_decimate_init_q31.c ****   @{
  38:./Libraries/CMSIS/DSP/Source/FilteringFunctions/arm_fir_decimate_init_q31.c ****  */
  39:./Libraries/CMSIS/DSP/Source/FilteringFunctions/arm_fir_decimate_init_q31.c **** 
  40:./Libraries/CMSIS/DSP/Source/FilteringFunctions/arm_fir_decimate_init_q31.c **** /**
  41:./Libraries/CMSIS/DSP/Source/FilteringFunctions/arm_fir_decimate_init_q31.c ****   @brief         Initialization function for the Q31 FIR decimator.
  42:./Libraries/CMSIS/DSP/Source/FilteringFunctions/arm_fir_decimate_init_q31.c ****   @param[in,out] S          points to an instance of the Q31 FIR decimator structure
  43:./Libraries/CMSIS/DSP/Source/FilteringFunctions/arm_fir_decimate_init_q31.c ****   @param[in]     numTaps    number of coefficients in the filter
  44:./Libraries/CMSIS/DSP/Source/FilteringFunctions/arm_fir_decimate_init_q31.c ****   @param[in]     M          decimation factor
  45:./Libraries/CMSIS/DSP/Source/FilteringFunctions/arm_fir_decimate_init_q31.c ****   @param[in]     pCoeffs    points to the filter coefficients
  46:./Libraries/CMSIS/DSP/Source/FilteringFunctions/arm_fir_decimate_init_q31.c ****   @param[in]     pState     points to the state buffer
  47:./Libraries/CMSIS/DSP/Source/FilteringFunctions/arm_fir_decimate_init_q31.c ****   @param[in]     blockSize  number of input samples to process
  48:./Libraries/CMSIS/DSP/Source/FilteringFunctions/arm_fir_decimate_init_q31.c ****   @return        execution  status
  49:./Libraries/CMSIS/DSP/Source/FilteringFunctions/arm_fir_decimate_init_q31.c ****                    - \ref ARM_MATH_SUCCESS      : Operation successful
  50:./Libraries/CMSIS/DSP/Source/FilteringFunctions/arm_fir_decimate_init_q31.c ****                    - \ref ARM_MATH_LENGTH_ERROR : <code>blockSize</code> is not a multiple of <code
  51:./Libraries/CMSIS/DSP/Source/FilteringFunctions/arm_fir_decimate_init_q31.c **** 
  52:./Libraries/CMSIS/DSP/Source/FilteringFunctions/arm_fir_decimate_init_q31.c ****   @par           Details
  53:./Libraries/CMSIS/DSP/Source/FilteringFunctions/arm_fir_decimate_init_q31.c ****                    <code>pCoeffs</code> points to the array of filter coefficients stored in time r
  54:./Libraries/CMSIS/DSP/Source/FilteringFunctions/arm_fir_decimate_init_q31.c ****   <pre>
  55:./Libraries/CMSIS/DSP/Source/FilteringFunctions/arm_fir_decimate_init_q31.c ****       {b[numTaps-1], b[numTaps-2], b[N-2], ..., b[1], b[0]}
  56:./Libraries/CMSIS/DSP/Source/FilteringFunctions/arm_fir_decimate_init_q31.c ****   </pre>
  57:./Libraries/CMSIS/DSP/Source/FilteringFunctions/arm_fir_decimate_init_q31.c ****   @par
  58:./Libraries/CMSIS/DSP/Source/FilteringFunctions/arm_fir_decimate_init_q31.c ****                    <code>pState</code> points to the array of state variables.
  59:./Libraries/CMSIS/DSP/Source/FilteringFunctions/arm_fir_decimate_init_q31.c ****                    <code>pState</code> is of length <code>numTaps+blockSize-1</code> words where <c
  60:./Libraries/CMSIS/DSP/Source/FilteringFunctions/arm_fir_decimate_init_q31.c ****                    <code>M</code> is the decimation factor.
  61:./Libraries/CMSIS/DSP/Source/FilteringFunctions/arm_fir_decimate_init_q31.c ****  */
  62:./Libraries/CMSIS/DSP/Source/FilteringFunctions/arm_fir_decimate_init_q31.c **** 
  63:./Libraries/CMSIS/DSP/Source/FilteringFunctions/arm_fir_decimate_init_q31.c **** arm_status arm_fir_decimate_init_q31(
  64:./Libraries/CMSIS/DSP/Source/FilteringFunctions/arm_fir_decimate_init_q31.c ****         arm_fir_decimate_instance_q31 * S,
  65:./Libraries/CMSIS/DSP/Source/FilteringFunctions/arm_fir_decimate_init_q31.c ****         uint16_t numTaps,
  66:./Libraries/CMSIS/DSP/Source/FilteringFunctions/arm_fir_decimate_init_q31.c ****         uint8_t M,
  67:./Libraries/CMSIS/DSP/Source/FilteringFunctions/arm_fir_decimate_init_q31.c ****   const q31_t * pCoeffs,
  68:./Libraries/CMSIS/DSP/Source/FilteringFunctions/arm_fir_decimate_init_q31.c ****         q31_t * pState,
  69:./Libraries/CMSIS/DSP/Source/FilteringFunctions/arm_fir_decimate_init_q31.c ****         uint32_t blockSize)
  70:./Libraries/CMSIS/DSP/Source/FilteringFunctions/arm_fir_decimate_init_q31.c **** {
  28              		.loc 1 70 1
  29              		.cfi_startproc
  30              		@ args = 8, pretend = 0, frame = 24
  31              		@ frame_needed = 1, uses_anonymous_args = 0
  32 0000 80B5     		push	{r7, lr}
  33              	.LCFI0:
  34              		.cfi_def_cfa_offset 8
  35              		.cfi_offset 7, -8
  36              		.cfi_offset 14, -4
  37 0002 86B0     		sub	sp, sp, #24
  38              	.LCFI1:
  39              		.cfi_def_cfa_offset 32
  40 0004 00AF     		add	r7, sp, #0
  41              	.LCFI2:
  42              		.cfi_def_cfa_register 7
  43 0006 F860     		str	r0, [r7, #12]
  44 0008 7B60     		str	r3, [r7, #4]
  45 000a 0B46     		mov	r3, r1	@ movhi
ARM GAS  /tmp/ccpTtnNz.s 			page 3


  46 000c 7B81     		strh	r3, [r7, #10]	@ movhi
  47 000e 1346     		mov	r3, r2
  48 0010 7B72     		strb	r3, [r7, #9]
  71:./Libraries/CMSIS/DSP/Source/FilteringFunctions/arm_fir_decimate_init_q31.c ****   arm_status status;
  72:./Libraries/CMSIS/DSP/Source/FilteringFunctions/arm_fir_decimate_init_q31.c **** 
  73:./Libraries/CMSIS/DSP/Source/FilteringFunctions/arm_fir_decimate_init_q31.c ****   /* The size of the input block must be a multiple of the decimation factor */
  74:./Libraries/CMSIS/DSP/Source/FilteringFunctions/arm_fir_decimate_init_q31.c ****   if ((blockSize % M) != 0U)
  49              		.loc 1 74 18
  50 0012 7A7A     		ldrb	r2, [r7, #9]	@ zero_extendqisi2
  51 0014 7B6A     		ldr	r3, [r7, #36]
  52 0016 B3FBF2F1 		udiv	r1, r3, r2
  53 001a 02FB01F2 		mul	r2, r2, r1
  54 001e 9B1A     		subs	r3, r3, r2
  55              		.loc 1 74 6
  56 0020 002B     		cmp	r3, #0
  57 0022 02D0     		beq	.L2
  75:./Libraries/CMSIS/DSP/Source/FilteringFunctions/arm_fir_decimate_init_q31.c ****   {
  76:./Libraries/CMSIS/DSP/Source/FilteringFunctions/arm_fir_decimate_init_q31.c ****     /* Set status as ARM_MATH_LENGTH_ERROR */
  77:./Libraries/CMSIS/DSP/Source/FilteringFunctions/arm_fir_decimate_init_q31.c ****     status = ARM_MATH_LENGTH_ERROR;
  58              		.loc 1 77 12
  59 0024 FE23     		movs	r3, #254
  60 0026 FB75     		strb	r3, [r7, #23]
  61 0028 17E0     		b	.L3
  62              	.L2:
  78:./Libraries/CMSIS/DSP/Source/FilteringFunctions/arm_fir_decimate_init_q31.c ****   }
  79:./Libraries/CMSIS/DSP/Source/FilteringFunctions/arm_fir_decimate_init_q31.c ****   else
  80:./Libraries/CMSIS/DSP/Source/FilteringFunctions/arm_fir_decimate_init_q31.c ****   {
  81:./Libraries/CMSIS/DSP/Source/FilteringFunctions/arm_fir_decimate_init_q31.c ****     /* Assign filter taps */
  82:./Libraries/CMSIS/DSP/Source/FilteringFunctions/arm_fir_decimate_init_q31.c ****     S->numTaps = numTaps;
  63              		.loc 1 82 16
  64 002a FB68     		ldr	r3, [r7, #12]
  65 002c 7A89     		ldrh	r2, [r7, #10]	@ movhi
  66 002e 5A80     		strh	r2, [r3, #2]	@ movhi
  83:./Libraries/CMSIS/DSP/Source/FilteringFunctions/arm_fir_decimate_init_q31.c **** 
  84:./Libraries/CMSIS/DSP/Source/FilteringFunctions/arm_fir_decimate_init_q31.c ****     /* Assign coefficient pointer */
  85:./Libraries/CMSIS/DSP/Source/FilteringFunctions/arm_fir_decimate_init_q31.c ****     S->pCoeffs = pCoeffs;
  67              		.loc 1 85 16
  68 0030 FB68     		ldr	r3, [r7, #12]
  69 0032 7A68     		ldr	r2, [r7, #4]
  70 0034 5A60     		str	r2, [r3, #4]
  86:./Libraries/CMSIS/DSP/Source/FilteringFunctions/arm_fir_decimate_init_q31.c **** 
  87:./Libraries/CMSIS/DSP/Source/FilteringFunctions/arm_fir_decimate_init_q31.c ****     /* Clear the state buffer. The size is always (blockSize + numTaps - 1) */
  88:./Libraries/CMSIS/DSP/Source/FilteringFunctions/arm_fir_decimate_init_q31.c ****     memset(pState, 0, (numTaps + (blockSize - 1U)) * sizeof(q31_t));
  71              		.loc 1 88 32
  72 0036 7A89     		ldrh	r2, [r7, #10]
  73 0038 7B6A     		ldr	r3, [r7, #36]
  74 003a 1344     		add	r3, r3, r2
  75 003c 013B     		subs	r3, r3, #1
  76              		.loc 1 88 52
  77 003e 9B00     		lsls	r3, r3, #2
  78              		.loc 1 88 5
  79 0040 1A46     		mov	r2, r3
  80 0042 0021     		movs	r1, #0
  81 0044 386A     		ldr	r0, [r7, #32]
  82 0046 FFF7FEFF 		bl	memset
  89:./Libraries/CMSIS/DSP/Source/FilteringFunctions/arm_fir_decimate_init_q31.c **** 
  90:./Libraries/CMSIS/DSP/Source/FilteringFunctions/arm_fir_decimate_init_q31.c ****     /* Assign state pointer */
ARM GAS  /tmp/ccpTtnNz.s 			page 4


  91:./Libraries/CMSIS/DSP/Source/FilteringFunctions/arm_fir_decimate_init_q31.c ****     S->pState = pState;
  83              		.loc 1 91 15
  84 004a FB68     		ldr	r3, [r7, #12]
  85 004c 3A6A     		ldr	r2, [r7, #32]
  86 004e 9A60     		str	r2, [r3, #8]
  92:./Libraries/CMSIS/DSP/Source/FilteringFunctions/arm_fir_decimate_init_q31.c **** 
  93:./Libraries/CMSIS/DSP/Source/FilteringFunctions/arm_fir_decimate_init_q31.c ****     /* Assign Decimation Factor */
  94:./Libraries/CMSIS/DSP/Source/FilteringFunctions/arm_fir_decimate_init_q31.c ****     S->M = M;
  87              		.loc 1 94 10
  88 0050 FB68     		ldr	r3, [r7, #12]
  89 0052 7A7A     		ldrb	r2, [r7, #9]
  90 0054 1A70     		strb	r2, [r3]
  95:./Libraries/CMSIS/DSP/Source/FilteringFunctions/arm_fir_decimate_init_q31.c **** 
  96:./Libraries/CMSIS/DSP/Source/FilteringFunctions/arm_fir_decimate_init_q31.c ****     status = ARM_MATH_SUCCESS;
  91              		.loc 1 96 12
  92 0056 0023     		movs	r3, #0
  93 0058 FB75     		strb	r3, [r7, #23]
  94              	.L3:
  97:./Libraries/CMSIS/DSP/Source/FilteringFunctions/arm_fir_decimate_init_q31.c ****   }
  98:./Libraries/CMSIS/DSP/Source/FilteringFunctions/arm_fir_decimate_init_q31.c **** 
  99:./Libraries/CMSIS/DSP/Source/FilteringFunctions/arm_fir_decimate_init_q31.c ****   return (status);
  95              		.loc 1 99 10
  96 005a 97F91730 		ldrsb	r3, [r7, #23]
 100:./Libraries/CMSIS/DSP/Source/FilteringFunctions/arm_fir_decimate_init_q31.c **** 
 101:./Libraries/CMSIS/DSP/Source/FilteringFunctions/arm_fir_decimate_init_q31.c **** }
  97              		.loc 1 101 1
  98 005e 1846     		mov	r0, r3
  99 0060 1837     		adds	r7, r7, #24
 100              	.LCFI3:
 101              		.cfi_def_cfa_offset 8
 102 0062 BD46     		mov	sp, r7
 103              	.LCFI4:
 104              		.cfi_def_cfa_register 13
 105              		@ sp needed
 106 0064 80BD     		pop	{r7, pc}
 107              		.cfi_endproc
 108              	.LFE145:
 110              		.text
 111              	.Letext0:
 112              		.file 2 "/usr/lib/gcc/arm-none-eabi/9.2.1/include/stdint.h"
 113              		.file 3 "/usr/lib/gcc/arm-none-eabi/9.2.1/include/stddef.h"
 114              		.file 4 "/usr/include/newlib/sys/_types.h"
 115              		.file 5 "/usr/include/newlib/sys/reent.h"
 116              		.file 6 "/usr/include/newlib/sys/lock.h"
 117              		.file 7 "/usr/include/newlib/math.h"
 118              		.file 8 "./Libraries/CMSIS/DSP/Include/arm_math.h"
ARM GAS  /tmp/ccpTtnNz.s 			page 5

