ARM GAS  /tmp/ccPrOTFM.s 			page 1


   1              		.cpu cortex-m7
   2              		.eabi_attribute 28, 1
   3              		.eabi_attribute 20, 1
   4              		.eabi_attribute 21, 1
   5              		.eabi_attribute 23, 3
   6              		.eabi_attribute 24, 1
   7              		.eabi_attribute 25, 1
   8              		.eabi_attribute 26, 1
   9              		.eabi_attribute 30, 6
  10              		.eabi_attribute 34, 1
  11              		.eabi_attribute 18, 4
  12              		.file	"arm_fir_fast_q15.c"
  13              		.text
  14              	.Ltext0:
  15              		.cfi_sections	.debug_frame
  16              		.section	.text.arm_fir_fast_q15,"ax",%progbits
  17              		.align	1
  18              		.global	arm_fir_fast_q15
  19              		.arch armv7e-m
  20              		.syntax unified
  21              		.thumb
  22              		.thumb_func
  23              		.fpu fpv5-d16
  25              	arm_fir_fast_q15:
  26              	.LFB145:
  27              		.file 1 "./Libraries/CMSIS/DSP/Source/FilteringFunctions/arm_fir_fast_q15.c"
   1:./Libraries/CMSIS/DSP/Source/FilteringFunctions/arm_fir_fast_q15.c **** /* ----------------------------------------------------------------------
   2:./Libraries/CMSIS/DSP/Source/FilteringFunctions/arm_fir_fast_q15.c ****  * Project:      CMSIS DSP Library
   3:./Libraries/CMSIS/DSP/Source/FilteringFunctions/arm_fir_fast_q15.c ****  * Title:        arm_fir_fast_q15.c
   4:./Libraries/CMSIS/DSP/Source/FilteringFunctions/arm_fir_fast_q15.c ****  * Description:  Q15 Fast FIR filter processing function
   5:./Libraries/CMSIS/DSP/Source/FilteringFunctions/arm_fir_fast_q15.c ****  *
   6:./Libraries/CMSIS/DSP/Source/FilteringFunctions/arm_fir_fast_q15.c ****  * $Date:        18. March 2019
   7:./Libraries/CMSIS/DSP/Source/FilteringFunctions/arm_fir_fast_q15.c ****  * $Revision:    V1.6.0
   8:./Libraries/CMSIS/DSP/Source/FilteringFunctions/arm_fir_fast_q15.c ****  *
   9:./Libraries/CMSIS/DSP/Source/FilteringFunctions/arm_fir_fast_q15.c ****  * Target Processor: Cortex-M cores
  10:./Libraries/CMSIS/DSP/Source/FilteringFunctions/arm_fir_fast_q15.c ****  * -------------------------------------------------------------------- */
  11:./Libraries/CMSIS/DSP/Source/FilteringFunctions/arm_fir_fast_q15.c **** /*
  12:./Libraries/CMSIS/DSP/Source/FilteringFunctions/arm_fir_fast_q15.c ****  * Copyright (C) 2010-2019 ARM Limited or its affiliates. All rights reserved.
  13:./Libraries/CMSIS/DSP/Source/FilteringFunctions/arm_fir_fast_q15.c ****  *
  14:./Libraries/CMSIS/DSP/Source/FilteringFunctions/arm_fir_fast_q15.c ****  * SPDX-License-Identifier: Apache-2.0
  15:./Libraries/CMSIS/DSP/Source/FilteringFunctions/arm_fir_fast_q15.c ****  *
  16:./Libraries/CMSIS/DSP/Source/FilteringFunctions/arm_fir_fast_q15.c ****  * Licensed under the Apache License, Version 2.0 (the License); you may
  17:./Libraries/CMSIS/DSP/Source/FilteringFunctions/arm_fir_fast_q15.c ****  * not use this file except in compliance with the License.
  18:./Libraries/CMSIS/DSP/Source/FilteringFunctions/arm_fir_fast_q15.c ****  * You may obtain a copy of the License at
  19:./Libraries/CMSIS/DSP/Source/FilteringFunctions/arm_fir_fast_q15.c ****  *
  20:./Libraries/CMSIS/DSP/Source/FilteringFunctions/arm_fir_fast_q15.c ****  * www.apache.org/licenses/LICENSE-2.0
  21:./Libraries/CMSIS/DSP/Source/FilteringFunctions/arm_fir_fast_q15.c ****  *
  22:./Libraries/CMSIS/DSP/Source/FilteringFunctions/arm_fir_fast_q15.c ****  * Unless required by applicable law or agreed to in writing, software
  23:./Libraries/CMSIS/DSP/Source/FilteringFunctions/arm_fir_fast_q15.c ****  * distributed under the License is distributed on an AS IS BASIS, WITHOUT
  24:./Libraries/CMSIS/DSP/Source/FilteringFunctions/arm_fir_fast_q15.c ****  * WARRANTIES OR CONDITIONS OF ANY KIND, either express or implied.
  25:./Libraries/CMSIS/DSP/Source/FilteringFunctions/arm_fir_fast_q15.c ****  * See the License for the specific language governing permissions and
  26:./Libraries/CMSIS/DSP/Source/FilteringFunctions/arm_fir_fast_q15.c ****  * limitations under the License.
  27:./Libraries/CMSIS/DSP/Source/FilteringFunctions/arm_fir_fast_q15.c ****  */
  28:./Libraries/CMSIS/DSP/Source/FilteringFunctions/arm_fir_fast_q15.c **** 
  29:./Libraries/CMSIS/DSP/Source/FilteringFunctions/arm_fir_fast_q15.c **** #include "arm_math.h"
  30:./Libraries/CMSIS/DSP/Source/FilteringFunctions/arm_fir_fast_q15.c **** 
  31:./Libraries/CMSIS/DSP/Source/FilteringFunctions/arm_fir_fast_q15.c **** /**
ARM GAS  /tmp/ccPrOTFM.s 			page 2


  32:./Libraries/CMSIS/DSP/Source/FilteringFunctions/arm_fir_fast_q15.c ****   @ingroup groupFilters
  33:./Libraries/CMSIS/DSP/Source/FilteringFunctions/arm_fir_fast_q15.c ****  */
  34:./Libraries/CMSIS/DSP/Source/FilteringFunctions/arm_fir_fast_q15.c **** 
  35:./Libraries/CMSIS/DSP/Source/FilteringFunctions/arm_fir_fast_q15.c **** /**
  36:./Libraries/CMSIS/DSP/Source/FilteringFunctions/arm_fir_fast_q15.c ****   @addtogroup FIR
  37:./Libraries/CMSIS/DSP/Source/FilteringFunctions/arm_fir_fast_q15.c ****   @{
  38:./Libraries/CMSIS/DSP/Source/FilteringFunctions/arm_fir_fast_q15.c ****  */
  39:./Libraries/CMSIS/DSP/Source/FilteringFunctions/arm_fir_fast_q15.c **** 
  40:./Libraries/CMSIS/DSP/Source/FilteringFunctions/arm_fir_fast_q15.c **** /**
  41:./Libraries/CMSIS/DSP/Source/FilteringFunctions/arm_fir_fast_q15.c ****   @brief         Processing function for the Q15 FIR filter (fast version).
  42:./Libraries/CMSIS/DSP/Source/FilteringFunctions/arm_fir_fast_q15.c ****   @param[in]     S          points to an instance of the Q15 FIR filter structure
  43:./Libraries/CMSIS/DSP/Source/FilteringFunctions/arm_fir_fast_q15.c ****   @param[in]     pSrc       points to the block of input data
  44:./Libraries/CMSIS/DSP/Source/FilteringFunctions/arm_fir_fast_q15.c ****   @param[out]    pDst       points to the block of output data
  45:./Libraries/CMSIS/DSP/Source/FilteringFunctions/arm_fir_fast_q15.c ****   @param[in]     blockSize  number of samples to process
  46:./Libraries/CMSIS/DSP/Source/FilteringFunctions/arm_fir_fast_q15.c ****   @return        none
  47:./Libraries/CMSIS/DSP/Source/FilteringFunctions/arm_fir_fast_q15.c **** 
  48:./Libraries/CMSIS/DSP/Source/FilteringFunctions/arm_fir_fast_q15.c ****   @par           Scaling and Overflow Behavior
  49:./Libraries/CMSIS/DSP/Source/FilteringFunctions/arm_fir_fast_q15.c ****                    This fast version uses a 32-bit accumulator with 2.30 format.
  50:./Libraries/CMSIS/DSP/Source/FilteringFunctions/arm_fir_fast_q15.c ****                    The accumulator maintains full precision of the intermediate multiplication resu
  51:./Libraries/CMSIS/DSP/Source/FilteringFunctions/arm_fir_fast_q15.c ****                    Thus, if the accumulator result overflows it wraps around and distorts the resul
  52:./Libraries/CMSIS/DSP/Source/FilteringFunctions/arm_fir_fast_q15.c ****                    In order to avoid overflows completely the input signal must be scaled down by l
  53:./Libraries/CMSIS/DSP/Source/FilteringFunctions/arm_fir_fast_q15.c ****                    The 2.30 accumulator is then truncated to 2.15 format and saturated to yield the
  54:./Libraries/CMSIS/DSP/Source/FilteringFunctions/arm_fir_fast_q15.c **** 
  55:./Libraries/CMSIS/DSP/Source/FilteringFunctions/arm_fir_fast_q15.c ****   @remark
  56:./Libraries/CMSIS/DSP/Source/FilteringFunctions/arm_fir_fast_q15.c ****                    Refer to \ref arm_fir_q15() for a slower implementation of this function which u
  57:./Libraries/CMSIS/DSP/Source/FilteringFunctions/arm_fir_fast_q15.c ****                    Use function \ref arm_fir_init_q15() to initialize the filter structure.
  58:./Libraries/CMSIS/DSP/Source/FilteringFunctions/arm_fir_fast_q15.c ****  */
  59:./Libraries/CMSIS/DSP/Source/FilteringFunctions/arm_fir_fast_q15.c **** 
  60:./Libraries/CMSIS/DSP/Source/FilteringFunctions/arm_fir_fast_q15.c **** void arm_fir_fast_q15(
  61:./Libraries/CMSIS/DSP/Source/FilteringFunctions/arm_fir_fast_q15.c ****   const arm_fir_instance_q15 * S,
  62:./Libraries/CMSIS/DSP/Source/FilteringFunctions/arm_fir_fast_q15.c ****   const q15_t * pSrc,
  63:./Libraries/CMSIS/DSP/Source/FilteringFunctions/arm_fir_fast_q15.c ****         q15_t * pDst,
  64:./Libraries/CMSIS/DSP/Source/FilteringFunctions/arm_fir_fast_q15.c ****         uint32_t blockSize)
  65:./Libraries/CMSIS/DSP/Source/FilteringFunctions/arm_fir_fast_q15.c **** {
  28              		.loc 1 65 1
  29              		.cfi_startproc
  30              		@ args = 0, pretend = 0, frame = 64
  31              		@ frame_needed = 1, uses_anonymous_args = 0
  32              		@ link register save eliminated.
  33 0000 80B4     		push	{r7}
  34              	.LCFI0:
  35              		.cfi_def_cfa_offset 4
  36              		.cfi_offset 7, -4
  37 0002 91B0     		sub	sp, sp, #68
  38              	.LCFI1:
  39              		.cfi_def_cfa_offset 72
  40 0004 00AF     		add	r7, sp, #0
  41              	.LCFI2:
  42              		.cfi_def_cfa_register 7
  43 0006 F860     		str	r0, [r7, #12]
  44 0008 B960     		str	r1, [r7, #8]
  45 000a 7A60     		str	r2, [r7, #4]
  46 000c 3B60     		str	r3, [r7]
  66:./Libraries/CMSIS/DSP/Source/FilteringFunctions/arm_fir_fast_q15.c ****         q15_t *pState = S->pState;                     /* State pointer */
  47              		.loc 1 66 16
  48 000e FB68     		ldr	r3, [r7, #12]
  49 0010 5B68     		ldr	r3, [r3, #4]
ARM GAS  /tmp/ccPrOTFM.s 			page 3


  50 0012 FB63     		str	r3, [r7, #60]
  67:./Libraries/CMSIS/DSP/Source/FilteringFunctions/arm_fir_fast_q15.c ****   const q15_t *pCoeffs = S->pCoeffs;                   /* Coefficient pointer */
  51              		.loc 1 67 16
  52 0014 FB68     		ldr	r3, [r7, #12]
  53 0016 9B68     		ldr	r3, [r3, #8]
  54 0018 3B62     		str	r3, [r7, #32]
  68:./Libraries/CMSIS/DSP/Source/FilteringFunctions/arm_fir_fast_q15.c ****         q15_t *pStateCurnt;                            /* Points to the current sample of the state
  69:./Libraries/CMSIS/DSP/Source/FilteringFunctions/arm_fir_fast_q15.c ****         q15_t *px;                                     /* Temporary pointer for state buffer */
  70:./Libraries/CMSIS/DSP/Source/FilteringFunctions/arm_fir_fast_q15.c ****   const q15_t *pb;                                     /* Temporary pointer for coefficient buffer 
  71:./Libraries/CMSIS/DSP/Source/FilteringFunctions/arm_fir_fast_q15.c ****         q31_t acc0;                                    /* Accumulators */
  72:./Libraries/CMSIS/DSP/Source/FilteringFunctions/arm_fir_fast_q15.c ****         uint32_t numTaps = S->numTaps;                 /* Number of filter coefficients in the filt
  55              		.loc 1 72 29
  56 001a FB68     		ldr	r3, [r7, #12]
  57 001c 1B88     		ldrh	r3, [r3]
  58              		.loc 1 72 18
  59 001e FB61     		str	r3, [r7, #28]
  73:./Libraries/CMSIS/DSP/Source/FilteringFunctions/arm_fir_fast_q15.c ****         uint32_t tapCnt, blkCnt;                       /* Loop counters */
  74:./Libraries/CMSIS/DSP/Source/FilteringFunctions/arm_fir_fast_q15.c **** 
  75:./Libraries/CMSIS/DSP/Source/FilteringFunctions/arm_fir_fast_q15.c **** #if defined (ARM_MATH_LOOPUNROLL)
  76:./Libraries/CMSIS/DSP/Source/FilteringFunctions/arm_fir_fast_q15.c ****         q31_t acc1, acc2, acc3;                        /* Accumulators */
  77:./Libraries/CMSIS/DSP/Source/FilteringFunctions/arm_fir_fast_q15.c ****         q31_t x0, x1, x2, c0;                          /* Temporary variables to hold state and coe
  78:./Libraries/CMSIS/DSP/Source/FilteringFunctions/arm_fir_fast_q15.c **** #endif
  79:./Libraries/CMSIS/DSP/Source/FilteringFunctions/arm_fir_fast_q15.c **** 
  80:./Libraries/CMSIS/DSP/Source/FilteringFunctions/arm_fir_fast_q15.c ****   /* S->pState points to state array which contains previous frame (numTaps - 1) samples */
  81:./Libraries/CMSIS/DSP/Source/FilteringFunctions/arm_fir_fast_q15.c ****   /* pStateCurnt points to the location where the new input data should be written */
  82:./Libraries/CMSIS/DSP/Source/FilteringFunctions/arm_fir_fast_q15.c ****   pStateCurnt = &(S->pState[(numTaps - 1U)]);
  60              		.loc 1 82 20
  61 0020 FB68     		ldr	r3, [r7, #12]
  62 0022 5A68     		ldr	r2, [r3, #4]
  63              		.loc 1 82 28
  64 0024 F969     		ldr	r1, [r7, #28]
  65 0026 6FF00043 		mvn	r3, #-2147483648
  66 002a 0B44     		add	r3, r3, r1
  67 002c 5B00     		lsls	r3, r3, #1
  68              		.loc 1 82 15
  69 002e 1344     		add	r3, r3, r2
  70 0030 BB63     		str	r3, [r7, #56]
  83:./Libraries/CMSIS/DSP/Source/FilteringFunctions/arm_fir_fast_q15.c **** 
  84:./Libraries/CMSIS/DSP/Source/FilteringFunctions/arm_fir_fast_q15.c **** #if defined (ARM_MATH_LOOPUNROLL)
  85:./Libraries/CMSIS/DSP/Source/FilteringFunctions/arm_fir_fast_q15.c **** 
  86:./Libraries/CMSIS/DSP/Source/FilteringFunctions/arm_fir_fast_q15.c ****   /* Loop unrolling: Compute 4 output values simultaneously.
  87:./Libraries/CMSIS/DSP/Source/FilteringFunctions/arm_fir_fast_q15.c ****    * The variables acc0 ... acc3 hold output values that are being computed:
  88:./Libraries/CMSIS/DSP/Source/FilteringFunctions/arm_fir_fast_q15.c ****    *
  89:./Libraries/CMSIS/DSP/Source/FilteringFunctions/arm_fir_fast_q15.c ****    *    acc0 =  b[numTaps-1] * x[n-numTaps-1] + b[numTaps-2] * x[n-numTaps-2] + b[numTaps-3] * x[n-
  90:./Libraries/CMSIS/DSP/Source/FilteringFunctions/arm_fir_fast_q15.c ****    *    acc1 =  b[numTaps-1] * x[n-numTaps]   + b[numTaps-2] * x[n-numTaps-1] + b[numTaps-3] * x[n-
  91:./Libraries/CMSIS/DSP/Source/FilteringFunctions/arm_fir_fast_q15.c ****    *    acc2 =  b[numTaps-1] * x[n-numTaps+1] + b[numTaps-2] * x[n-numTaps]   + b[numTaps-3] * x[n-
  92:./Libraries/CMSIS/DSP/Source/FilteringFunctions/arm_fir_fast_q15.c ****    *    acc3 =  b[numTaps-1] * x[n-numTaps+2] + b[numTaps-2] * x[n-numTaps+1] + b[numTaps-3] * x[n-
  93:./Libraries/CMSIS/DSP/Source/FilteringFunctions/arm_fir_fast_q15.c ****    */
  94:./Libraries/CMSIS/DSP/Source/FilteringFunctions/arm_fir_fast_q15.c ****   blkCnt = blockSize >> 2U;
  95:./Libraries/CMSIS/DSP/Source/FilteringFunctions/arm_fir_fast_q15.c **** 
  96:./Libraries/CMSIS/DSP/Source/FilteringFunctions/arm_fir_fast_q15.c ****   while (blkCnt > 0U)
  97:./Libraries/CMSIS/DSP/Source/FilteringFunctions/arm_fir_fast_q15.c ****   {
  98:./Libraries/CMSIS/DSP/Source/FilteringFunctions/arm_fir_fast_q15.c ****     /* Copy 4 new input samples into the state buffer. */
  99:./Libraries/CMSIS/DSP/Source/FilteringFunctions/arm_fir_fast_q15.c ****     *pStateCurnt++ = *pSrc++;
 100:./Libraries/CMSIS/DSP/Source/FilteringFunctions/arm_fir_fast_q15.c ****     *pStateCurnt++ = *pSrc++;
 101:./Libraries/CMSIS/DSP/Source/FilteringFunctions/arm_fir_fast_q15.c ****     *pStateCurnt++ = *pSrc++;
 102:./Libraries/CMSIS/DSP/Source/FilteringFunctions/arm_fir_fast_q15.c ****     *pStateCurnt++ = *pSrc++;
ARM GAS  /tmp/ccPrOTFM.s 			page 4


 103:./Libraries/CMSIS/DSP/Source/FilteringFunctions/arm_fir_fast_q15.c **** 
 104:./Libraries/CMSIS/DSP/Source/FilteringFunctions/arm_fir_fast_q15.c ****     /* Set all accumulators to zero */
 105:./Libraries/CMSIS/DSP/Source/FilteringFunctions/arm_fir_fast_q15.c ****     acc0 = 0;
 106:./Libraries/CMSIS/DSP/Source/FilteringFunctions/arm_fir_fast_q15.c ****     acc1 = 0;
 107:./Libraries/CMSIS/DSP/Source/FilteringFunctions/arm_fir_fast_q15.c ****     acc2 = 0;
 108:./Libraries/CMSIS/DSP/Source/FilteringFunctions/arm_fir_fast_q15.c ****     acc3 = 0;
 109:./Libraries/CMSIS/DSP/Source/FilteringFunctions/arm_fir_fast_q15.c **** 
 110:./Libraries/CMSIS/DSP/Source/FilteringFunctions/arm_fir_fast_q15.c ****     /* Typecast q15_t pointer to q31_t pointer for state reading in q31_t */
 111:./Libraries/CMSIS/DSP/Source/FilteringFunctions/arm_fir_fast_q15.c ****     px = pState;
 112:./Libraries/CMSIS/DSP/Source/FilteringFunctions/arm_fir_fast_q15.c **** 
 113:./Libraries/CMSIS/DSP/Source/FilteringFunctions/arm_fir_fast_q15.c ****     /* Typecast q15_t pointer to q31_t pointer for coefficient reading in q31_t */
 114:./Libraries/CMSIS/DSP/Source/FilteringFunctions/arm_fir_fast_q15.c ****     pb = pCoeffs;
 115:./Libraries/CMSIS/DSP/Source/FilteringFunctions/arm_fir_fast_q15.c **** 
 116:./Libraries/CMSIS/DSP/Source/FilteringFunctions/arm_fir_fast_q15.c ****     /* Read the first two samples from the state buffer:  x[n-N], x[n-N-1] */
 117:./Libraries/CMSIS/DSP/Source/FilteringFunctions/arm_fir_fast_q15.c ****     x0 = read_q15x2_ia (&px);
 118:./Libraries/CMSIS/DSP/Source/FilteringFunctions/arm_fir_fast_q15.c **** 
 119:./Libraries/CMSIS/DSP/Source/FilteringFunctions/arm_fir_fast_q15.c ****     /* Read the third and forth samples from the state buffer: x[n-N-2], x[n-N-3] */
 120:./Libraries/CMSIS/DSP/Source/FilteringFunctions/arm_fir_fast_q15.c ****     x2 = read_q15x2_ia (&px);
 121:./Libraries/CMSIS/DSP/Source/FilteringFunctions/arm_fir_fast_q15.c **** 
 122:./Libraries/CMSIS/DSP/Source/FilteringFunctions/arm_fir_fast_q15.c ****     /* Loop over the number of taps.  Unroll by a factor of 4.
 123:./Libraries/CMSIS/DSP/Source/FilteringFunctions/arm_fir_fast_q15.c ****        Repeat until we've computed numTaps-(numTaps%4) coefficients. */
 124:./Libraries/CMSIS/DSP/Source/FilteringFunctions/arm_fir_fast_q15.c ****     tapCnt = numTaps >> 2U;
 125:./Libraries/CMSIS/DSP/Source/FilteringFunctions/arm_fir_fast_q15.c **** 
 126:./Libraries/CMSIS/DSP/Source/FilteringFunctions/arm_fir_fast_q15.c ****     while (tapCnt > 0U)
 127:./Libraries/CMSIS/DSP/Source/FilteringFunctions/arm_fir_fast_q15.c ****     {
 128:./Libraries/CMSIS/DSP/Source/FilteringFunctions/arm_fir_fast_q15.c ****       /* Read the first two coefficients using SIMD:  b[N] and b[N-1] coefficients */
 129:./Libraries/CMSIS/DSP/Source/FilteringFunctions/arm_fir_fast_q15.c ****       c0 = read_q15x2_ia ((q15_t **) &pb);
 130:./Libraries/CMSIS/DSP/Source/FilteringFunctions/arm_fir_fast_q15.c **** 
 131:./Libraries/CMSIS/DSP/Source/FilteringFunctions/arm_fir_fast_q15.c ****       /* acc0 +=  b[N] * x[n-N] + b[N-1] * x[n-N-1] */
 132:./Libraries/CMSIS/DSP/Source/FilteringFunctions/arm_fir_fast_q15.c ****       acc0 = __SMLAD(x0, c0, acc0);
 133:./Libraries/CMSIS/DSP/Source/FilteringFunctions/arm_fir_fast_q15.c **** 
 134:./Libraries/CMSIS/DSP/Source/FilteringFunctions/arm_fir_fast_q15.c ****       /* acc2 +=  b[N] * x[n-N-2] + b[N-1] * x[n-N-3] */
 135:./Libraries/CMSIS/DSP/Source/FilteringFunctions/arm_fir_fast_q15.c ****       acc2 = __SMLAD(x2, c0, acc2);
 136:./Libraries/CMSIS/DSP/Source/FilteringFunctions/arm_fir_fast_q15.c **** 
 137:./Libraries/CMSIS/DSP/Source/FilteringFunctions/arm_fir_fast_q15.c ****       /* pack  x[n-N-1] and x[n-N-2] */
 138:./Libraries/CMSIS/DSP/Source/FilteringFunctions/arm_fir_fast_q15.c **** #ifndef ARM_MATH_BIG_ENDIAN
 139:./Libraries/CMSIS/DSP/Source/FilteringFunctions/arm_fir_fast_q15.c ****       x1 = __PKHBT(x2, x0, 0);
 140:./Libraries/CMSIS/DSP/Source/FilteringFunctions/arm_fir_fast_q15.c **** #else
 141:./Libraries/CMSIS/DSP/Source/FilteringFunctions/arm_fir_fast_q15.c ****       x1 = __PKHBT(x0, x2, 0);
 142:./Libraries/CMSIS/DSP/Source/FilteringFunctions/arm_fir_fast_q15.c **** #endif
 143:./Libraries/CMSIS/DSP/Source/FilteringFunctions/arm_fir_fast_q15.c **** 
 144:./Libraries/CMSIS/DSP/Source/FilteringFunctions/arm_fir_fast_q15.c ****       /* Read state x[n-N-4], x[n-N-5] */
 145:./Libraries/CMSIS/DSP/Source/FilteringFunctions/arm_fir_fast_q15.c ****       x0 = read_q15x2_ia (&px);
 146:./Libraries/CMSIS/DSP/Source/FilteringFunctions/arm_fir_fast_q15.c **** 
 147:./Libraries/CMSIS/DSP/Source/FilteringFunctions/arm_fir_fast_q15.c ****       /* acc1 +=  b[N] * x[n-N-1] + b[N-1] * x[n-N-2] */
 148:./Libraries/CMSIS/DSP/Source/FilteringFunctions/arm_fir_fast_q15.c ****       acc1 = __SMLADX(x1, c0, acc1);
 149:./Libraries/CMSIS/DSP/Source/FilteringFunctions/arm_fir_fast_q15.c **** 
 150:./Libraries/CMSIS/DSP/Source/FilteringFunctions/arm_fir_fast_q15.c ****       /* pack  x[n-N-3] and x[n-N-4] */
 151:./Libraries/CMSIS/DSP/Source/FilteringFunctions/arm_fir_fast_q15.c **** #ifndef ARM_MATH_BIG_ENDIAN
 152:./Libraries/CMSIS/DSP/Source/FilteringFunctions/arm_fir_fast_q15.c ****       x1 = __PKHBT(x0, x2, 0);
 153:./Libraries/CMSIS/DSP/Source/FilteringFunctions/arm_fir_fast_q15.c **** #else
 154:./Libraries/CMSIS/DSP/Source/FilteringFunctions/arm_fir_fast_q15.c ****       x1 = __PKHBT(x2, x0, 0);
 155:./Libraries/CMSIS/DSP/Source/FilteringFunctions/arm_fir_fast_q15.c **** #endif
 156:./Libraries/CMSIS/DSP/Source/FilteringFunctions/arm_fir_fast_q15.c **** 
 157:./Libraries/CMSIS/DSP/Source/FilteringFunctions/arm_fir_fast_q15.c ****       /* acc3 +=  b[N] * x[n-N-3] + b[N-1] * x[n-N-4] */
 158:./Libraries/CMSIS/DSP/Source/FilteringFunctions/arm_fir_fast_q15.c ****       acc3 = __SMLADX(x1, c0, acc3);
 159:./Libraries/CMSIS/DSP/Source/FilteringFunctions/arm_fir_fast_q15.c **** 
ARM GAS  /tmp/ccPrOTFM.s 			page 5


 160:./Libraries/CMSIS/DSP/Source/FilteringFunctions/arm_fir_fast_q15.c ****       /* Read coefficients b[N-2], b[N-3] */
 161:./Libraries/CMSIS/DSP/Source/FilteringFunctions/arm_fir_fast_q15.c ****       c0 = read_q15x2_ia ((q15_t **) &pb);
 162:./Libraries/CMSIS/DSP/Source/FilteringFunctions/arm_fir_fast_q15.c **** 
 163:./Libraries/CMSIS/DSP/Source/FilteringFunctions/arm_fir_fast_q15.c ****       /* acc0 +=  b[N-2] * x[n-N-2] + b[N-3] * x[n-N-3] */
 164:./Libraries/CMSIS/DSP/Source/FilteringFunctions/arm_fir_fast_q15.c ****       acc0 = __SMLAD(x2, c0, acc0);
 165:./Libraries/CMSIS/DSP/Source/FilteringFunctions/arm_fir_fast_q15.c **** 
 166:./Libraries/CMSIS/DSP/Source/FilteringFunctions/arm_fir_fast_q15.c ****       /* Read state x[n-N-6], x[n-N-7] with offset */
 167:./Libraries/CMSIS/DSP/Source/FilteringFunctions/arm_fir_fast_q15.c ****       x2 = read_q15x2_ia (&px);
 168:./Libraries/CMSIS/DSP/Source/FilteringFunctions/arm_fir_fast_q15.c **** 
 169:./Libraries/CMSIS/DSP/Source/FilteringFunctions/arm_fir_fast_q15.c ****       /* acc2 +=  b[N-2] * x[n-N-4] + b[N-3] * x[n-N-5] */
 170:./Libraries/CMSIS/DSP/Source/FilteringFunctions/arm_fir_fast_q15.c ****       acc2 = __SMLAD(x0, c0, acc2);
 171:./Libraries/CMSIS/DSP/Source/FilteringFunctions/arm_fir_fast_q15.c **** 
 172:./Libraries/CMSIS/DSP/Source/FilteringFunctions/arm_fir_fast_q15.c ****       /* acc1 +=  b[N-2] * x[n-N-3] + b[N-3] * x[n-N-4] */
 173:./Libraries/CMSIS/DSP/Source/FilteringFunctions/arm_fir_fast_q15.c ****       acc1 = __SMLADX(x1, c0, acc1);
 174:./Libraries/CMSIS/DSP/Source/FilteringFunctions/arm_fir_fast_q15.c **** 
 175:./Libraries/CMSIS/DSP/Source/FilteringFunctions/arm_fir_fast_q15.c ****       /* pack  x[n-N-5] and x[n-N-6] */
 176:./Libraries/CMSIS/DSP/Source/FilteringFunctions/arm_fir_fast_q15.c **** #ifndef ARM_MATH_BIG_ENDIAN
 177:./Libraries/CMSIS/DSP/Source/FilteringFunctions/arm_fir_fast_q15.c ****       x1 = __PKHBT(x2, x0, 0);
 178:./Libraries/CMSIS/DSP/Source/FilteringFunctions/arm_fir_fast_q15.c **** #else
 179:./Libraries/CMSIS/DSP/Source/FilteringFunctions/arm_fir_fast_q15.c ****       x1 = __PKHBT(x0, x2, 0);
 180:./Libraries/CMSIS/DSP/Source/FilteringFunctions/arm_fir_fast_q15.c **** #endif
 181:./Libraries/CMSIS/DSP/Source/FilteringFunctions/arm_fir_fast_q15.c **** 
 182:./Libraries/CMSIS/DSP/Source/FilteringFunctions/arm_fir_fast_q15.c ****       /* acc3 +=  b[N-2] * x[n-N-5] + b[N-3] * x[n-N-6] */
 183:./Libraries/CMSIS/DSP/Source/FilteringFunctions/arm_fir_fast_q15.c ****       acc3 = __SMLADX(x1, c0, acc3);
 184:./Libraries/CMSIS/DSP/Source/FilteringFunctions/arm_fir_fast_q15.c **** 
 185:./Libraries/CMSIS/DSP/Source/FilteringFunctions/arm_fir_fast_q15.c ****       /* Decrement tap count */
 186:./Libraries/CMSIS/DSP/Source/FilteringFunctions/arm_fir_fast_q15.c ****       tapCnt--;
 187:./Libraries/CMSIS/DSP/Source/FilteringFunctions/arm_fir_fast_q15.c ****     }
 188:./Libraries/CMSIS/DSP/Source/FilteringFunctions/arm_fir_fast_q15.c **** 
 189:./Libraries/CMSIS/DSP/Source/FilteringFunctions/arm_fir_fast_q15.c ****     /* If the filter length is not a multiple of 4, compute the remaining filter taps.
 190:./Libraries/CMSIS/DSP/Source/FilteringFunctions/arm_fir_fast_q15.c ****        This is always be 2 taps since the filter length is even. */
 191:./Libraries/CMSIS/DSP/Source/FilteringFunctions/arm_fir_fast_q15.c ****     if ((numTaps & 0x3U) != 0U)
 192:./Libraries/CMSIS/DSP/Source/FilteringFunctions/arm_fir_fast_q15.c ****     {
 193:./Libraries/CMSIS/DSP/Source/FilteringFunctions/arm_fir_fast_q15.c ****       /* Read last two coefficients */
 194:./Libraries/CMSIS/DSP/Source/FilteringFunctions/arm_fir_fast_q15.c ****       c0 = read_q15x2_ia ((q15_t **) &pb);
 195:./Libraries/CMSIS/DSP/Source/FilteringFunctions/arm_fir_fast_q15.c **** 
 196:./Libraries/CMSIS/DSP/Source/FilteringFunctions/arm_fir_fast_q15.c ****       /* Perform the multiply-accumulates */
 197:./Libraries/CMSIS/DSP/Source/FilteringFunctions/arm_fir_fast_q15.c ****       acc0 = __SMLAD(x0, c0, acc0);
 198:./Libraries/CMSIS/DSP/Source/FilteringFunctions/arm_fir_fast_q15.c ****       acc2 = __SMLAD(x2, c0, acc2);
 199:./Libraries/CMSIS/DSP/Source/FilteringFunctions/arm_fir_fast_q15.c **** 
 200:./Libraries/CMSIS/DSP/Source/FilteringFunctions/arm_fir_fast_q15.c ****       /* pack state variables */
 201:./Libraries/CMSIS/DSP/Source/FilteringFunctions/arm_fir_fast_q15.c **** #ifndef ARM_MATH_BIG_ENDIAN
 202:./Libraries/CMSIS/DSP/Source/FilteringFunctions/arm_fir_fast_q15.c ****       x1 = __PKHBT(x2, x0, 0);
 203:./Libraries/CMSIS/DSP/Source/FilteringFunctions/arm_fir_fast_q15.c **** #else
 204:./Libraries/CMSIS/DSP/Source/FilteringFunctions/arm_fir_fast_q15.c ****       x1 = __PKHBT(x0, x2, 0);
 205:./Libraries/CMSIS/DSP/Source/FilteringFunctions/arm_fir_fast_q15.c **** #endif
 206:./Libraries/CMSIS/DSP/Source/FilteringFunctions/arm_fir_fast_q15.c **** 
 207:./Libraries/CMSIS/DSP/Source/FilteringFunctions/arm_fir_fast_q15.c ****       /* Read last state variables */
 208:./Libraries/CMSIS/DSP/Source/FilteringFunctions/arm_fir_fast_q15.c ****       x0 = read_q15x2 (px);
 209:./Libraries/CMSIS/DSP/Source/FilteringFunctions/arm_fir_fast_q15.c **** 
 210:./Libraries/CMSIS/DSP/Source/FilteringFunctions/arm_fir_fast_q15.c ****       /* Perform the multiply-accumulates */
 211:./Libraries/CMSIS/DSP/Source/FilteringFunctions/arm_fir_fast_q15.c ****       acc1 = __SMLADX(x1, c0, acc1);
 212:./Libraries/CMSIS/DSP/Source/FilteringFunctions/arm_fir_fast_q15.c **** 
 213:./Libraries/CMSIS/DSP/Source/FilteringFunctions/arm_fir_fast_q15.c ****       /* pack state variables */
 214:./Libraries/CMSIS/DSP/Source/FilteringFunctions/arm_fir_fast_q15.c **** #ifndef ARM_MATH_BIG_ENDIAN
 215:./Libraries/CMSIS/DSP/Source/FilteringFunctions/arm_fir_fast_q15.c ****       x1 = __PKHBT(x0, x2, 0);
 216:./Libraries/CMSIS/DSP/Source/FilteringFunctions/arm_fir_fast_q15.c **** #else
ARM GAS  /tmp/ccPrOTFM.s 			page 6


 217:./Libraries/CMSIS/DSP/Source/FilteringFunctions/arm_fir_fast_q15.c ****       x1 = __PKHBT(x2, x0, 0);
 218:./Libraries/CMSIS/DSP/Source/FilteringFunctions/arm_fir_fast_q15.c **** #endif
 219:./Libraries/CMSIS/DSP/Source/FilteringFunctions/arm_fir_fast_q15.c **** 
 220:./Libraries/CMSIS/DSP/Source/FilteringFunctions/arm_fir_fast_q15.c ****       /* Perform the multiply-accumulates */
 221:./Libraries/CMSIS/DSP/Source/FilteringFunctions/arm_fir_fast_q15.c ****       acc3 = __SMLADX(x1, c0, acc3);
 222:./Libraries/CMSIS/DSP/Source/FilteringFunctions/arm_fir_fast_q15.c ****     }
 223:./Libraries/CMSIS/DSP/Source/FilteringFunctions/arm_fir_fast_q15.c **** 
 224:./Libraries/CMSIS/DSP/Source/FilteringFunctions/arm_fir_fast_q15.c ****     /* The results in the 4 accumulators are in 2.30 format. Convert to 1.15 with saturation.
 225:./Libraries/CMSIS/DSP/Source/FilteringFunctions/arm_fir_fast_q15.c ****        Then store the 4 outputs in the destination buffer. */
 226:./Libraries/CMSIS/DSP/Source/FilteringFunctions/arm_fir_fast_q15.c **** #ifndef ARM_MATH_BIG_ENDIAN
 227:./Libraries/CMSIS/DSP/Source/FilteringFunctions/arm_fir_fast_q15.c ****     write_q15x2_ia (&pDst, __PKHBT(__SSAT((acc0 >> 15), 16), __SSAT((acc1 >> 15), 16), 16));
 228:./Libraries/CMSIS/DSP/Source/FilteringFunctions/arm_fir_fast_q15.c ****     write_q15x2_ia (&pDst, __PKHBT(__SSAT((acc2 >> 15), 16), __SSAT((acc3 >> 15), 16), 16));
 229:./Libraries/CMSIS/DSP/Source/FilteringFunctions/arm_fir_fast_q15.c **** #else
 230:./Libraries/CMSIS/DSP/Source/FilteringFunctions/arm_fir_fast_q15.c ****     write_q15x2_ia (&pDst, __PKHBT(__SSAT((acc1 >> 15), 16), __SSAT((acc0 >> 15), 16), 16));
 231:./Libraries/CMSIS/DSP/Source/FilteringFunctions/arm_fir_fast_q15.c ****     write_q15x2_ia (&pDst, __PKHBT(__SSAT((acc3 >> 15), 16), __SSAT((acc2 >> 15), 16), 16));
 232:./Libraries/CMSIS/DSP/Source/FilteringFunctions/arm_fir_fast_q15.c **** #endif /* #ifndef ARM_MATH_BIG_ENDIAN */
 233:./Libraries/CMSIS/DSP/Source/FilteringFunctions/arm_fir_fast_q15.c **** 
 234:./Libraries/CMSIS/DSP/Source/FilteringFunctions/arm_fir_fast_q15.c ****     /* Advance the state pointer by 4 to process the next group of 4 samples */
 235:./Libraries/CMSIS/DSP/Source/FilteringFunctions/arm_fir_fast_q15.c ****     pState = pState + 4U;
 236:./Libraries/CMSIS/DSP/Source/FilteringFunctions/arm_fir_fast_q15.c **** 
 237:./Libraries/CMSIS/DSP/Source/FilteringFunctions/arm_fir_fast_q15.c ****     /* Decrement loop counter */
 238:./Libraries/CMSIS/DSP/Source/FilteringFunctions/arm_fir_fast_q15.c ****     blkCnt--;
 239:./Libraries/CMSIS/DSP/Source/FilteringFunctions/arm_fir_fast_q15.c ****   }
 240:./Libraries/CMSIS/DSP/Source/FilteringFunctions/arm_fir_fast_q15.c **** 
 241:./Libraries/CMSIS/DSP/Source/FilteringFunctions/arm_fir_fast_q15.c ****   /* Loop unrolling: Compute remaining output samples */
 242:./Libraries/CMSIS/DSP/Source/FilteringFunctions/arm_fir_fast_q15.c ****   blkCnt = blockSize % 0x4U;
 243:./Libraries/CMSIS/DSP/Source/FilteringFunctions/arm_fir_fast_q15.c **** 
 244:./Libraries/CMSIS/DSP/Source/FilteringFunctions/arm_fir_fast_q15.c **** #else
 245:./Libraries/CMSIS/DSP/Source/FilteringFunctions/arm_fir_fast_q15.c **** 
 246:./Libraries/CMSIS/DSP/Source/FilteringFunctions/arm_fir_fast_q15.c ****   /* Initialize blkCnt with number of taps */
 247:./Libraries/CMSIS/DSP/Source/FilteringFunctions/arm_fir_fast_q15.c ****   blkCnt = blockSize;
  71              		.loc 1 247 10
  72 0032 3B68     		ldr	r3, [r7]
  73 0034 7B62     		str	r3, [r7, #36]
 248:./Libraries/CMSIS/DSP/Source/FilteringFunctions/arm_fir_fast_q15.c **** 
 249:./Libraries/CMSIS/DSP/Source/FilteringFunctions/arm_fir_fast_q15.c **** #endif /* #if defined (ARM_MATH_LOOPUNROLL) */
 250:./Libraries/CMSIS/DSP/Source/FilteringFunctions/arm_fir_fast_q15.c **** 
 251:./Libraries/CMSIS/DSP/Source/FilteringFunctions/arm_fir_fast_q15.c ****   while (blkCnt > 0U)
  74              		.loc 1 251 9
  75 0036 4AE0     		b	.L2
  76              	.L4:
 252:./Libraries/CMSIS/DSP/Source/FilteringFunctions/arm_fir_fast_q15.c ****   {
 253:./Libraries/CMSIS/DSP/Source/FilteringFunctions/arm_fir_fast_q15.c ****     /* Copy two samples into state buffer */
 254:./Libraries/CMSIS/DSP/Source/FilteringFunctions/arm_fir_fast_q15.c ****     *pStateCurnt++ = *pSrc++;
  77              		.loc 1 254 27
  78 0038 BA68     		ldr	r2, [r7, #8]
  79 003a 931C     		adds	r3, r2, #2
  80 003c BB60     		str	r3, [r7, #8]
  81              		.loc 1 254 17
  82 003e BB6B     		ldr	r3, [r7, #56]
  83 0040 991C     		adds	r1, r3, #2
  84 0042 B963     		str	r1, [r7, #56]
  85              		.loc 1 254 22
  86 0044 B2F90020 		ldrsh	r2, [r2]
  87              		.loc 1 254 20
  88 0048 1A80     		strh	r2, [r3]	@ movhi
 255:./Libraries/CMSIS/DSP/Source/FilteringFunctions/arm_fir_fast_q15.c **** 
ARM GAS  /tmp/ccPrOTFM.s 			page 7


 256:./Libraries/CMSIS/DSP/Source/FilteringFunctions/arm_fir_fast_q15.c ****     /* Set the accumulator to zero */
 257:./Libraries/CMSIS/DSP/Source/FilteringFunctions/arm_fir_fast_q15.c ****     acc0 = 0;
  89              		.loc 1 257 10
  90 004a 0023     		movs	r3, #0
  91 004c FB62     		str	r3, [r7, #44]
 258:./Libraries/CMSIS/DSP/Source/FilteringFunctions/arm_fir_fast_q15.c **** 
 259:./Libraries/CMSIS/DSP/Source/FilteringFunctions/arm_fir_fast_q15.c ****     /* Use SIMD to hold states and coefficients */
 260:./Libraries/CMSIS/DSP/Source/FilteringFunctions/arm_fir_fast_q15.c ****     px = pState;
  92              		.loc 1 260 8
  93 004e FB6B     		ldr	r3, [r7, #60]
  94 0050 7B63     		str	r3, [r7, #52]
 261:./Libraries/CMSIS/DSP/Source/FilteringFunctions/arm_fir_fast_q15.c ****     pb = pCoeffs;
  95              		.loc 1 261 8
  96 0052 3B6A     		ldr	r3, [r7, #32]
  97 0054 3B63     		str	r3, [r7, #48]
 262:./Libraries/CMSIS/DSP/Source/FilteringFunctions/arm_fir_fast_q15.c **** 
 263:./Libraries/CMSIS/DSP/Source/FilteringFunctions/arm_fir_fast_q15.c ****     tapCnt = numTaps >> 1U;
  98              		.loc 1 263 12
  99 0056 FB69     		ldr	r3, [r7, #28]
 100 0058 5B08     		lsrs	r3, r3, #1
 101 005a BB62     		str	r3, [r7, #40]
 102              	.L3:
 264:./Libraries/CMSIS/DSP/Source/FilteringFunctions/arm_fir_fast_q15.c **** 
 265:./Libraries/CMSIS/DSP/Source/FilteringFunctions/arm_fir_fast_q15.c ****     do
 266:./Libraries/CMSIS/DSP/Source/FilteringFunctions/arm_fir_fast_q15.c ****     {
 267:./Libraries/CMSIS/DSP/Source/FilteringFunctions/arm_fir_fast_q15.c ****       acc0 += (q31_t) *px++ * *pb++;
 103              		.loc 1 267 26 discriminator 1
 104 005c 7B6B     		ldr	r3, [r7, #52]
 105 005e 9A1C     		adds	r2, r3, #2
 106 0060 7A63     		str	r2, [r7, #52]
 107              		.loc 1 267 23 discriminator 1
 108 0062 B3F90030 		ldrsh	r3, [r3]
 109              		.loc 1 267 15 discriminator 1
 110 0066 1946     		mov	r1, r3
 111              		.loc 1 267 34 discriminator 1
 112 0068 3B6B     		ldr	r3, [r7, #48]
 113 006a 9A1C     		adds	r2, r3, #2
 114 006c 3A63     		str	r2, [r7, #48]
 115              		.loc 1 267 31 discriminator 1
 116 006e B3F90030 		ldrsh	r3, [r3]
 117              		.loc 1 267 29 discriminator 1
 118 0072 03FB01F3 		mul	r3, r3, r1
 119              		.loc 1 267 12 discriminator 1
 120 0076 FA6A     		ldr	r2, [r7, #44]
 121 0078 1344     		add	r3, r3, r2
 122 007a FB62     		str	r3, [r7, #44]
 268:./Libraries/CMSIS/DSP/Source/FilteringFunctions/arm_fir_fast_q15.c **** 	  acc0 += (q31_t) *px++ * *pb++;
 123              		.loc 1 268 23 discriminator 1
 124 007c 7B6B     		ldr	r3, [r7, #52]
 125 007e 9A1C     		adds	r2, r3, #2
 126 0080 7A63     		str	r2, [r7, #52]
 127              		.loc 1 268 20 discriminator 1
 128 0082 B3F90030 		ldrsh	r3, [r3]
 129              		.loc 1 268 12 discriminator 1
 130 0086 1946     		mov	r1, r3
 131              		.loc 1 268 31 discriminator 1
 132 0088 3B6B     		ldr	r3, [r7, #48]
ARM GAS  /tmp/ccPrOTFM.s 			page 8


 133 008a 9A1C     		adds	r2, r3, #2
 134 008c 3A63     		str	r2, [r7, #48]
 135              		.loc 1 268 28 discriminator 1
 136 008e B3F90030 		ldrsh	r3, [r3]
 137              		.loc 1 268 26 discriminator 1
 138 0092 03FB01F3 		mul	r3, r3, r1
 139              		.loc 1 268 9 discriminator 1
 140 0096 FA6A     		ldr	r2, [r7, #44]
 141 0098 1344     		add	r3, r3, r2
 142 009a FB62     		str	r3, [r7, #44]
 269:./Libraries/CMSIS/DSP/Source/FilteringFunctions/arm_fir_fast_q15.c **** 
 270:./Libraries/CMSIS/DSP/Source/FilteringFunctions/arm_fir_fast_q15.c ****       tapCnt--;
 143              		.loc 1 270 13 discriminator 1
 144 009c BB6A     		ldr	r3, [r7, #40]
 145 009e 013B     		subs	r3, r3, #1
 146 00a0 BB62     		str	r3, [r7, #40]
 271:./Libraries/CMSIS/DSP/Source/FilteringFunctions/arm_fir_fast_q15.c ****     }
 272:./Libraries/CMSIS/DSP/Source/FilteringFunctions/arm_fir_fast_q15.c ****     while (tapCnt > 0U);
 147              		.loc 1 272 5 discriminator 1
 148 00a2 BB6A     		ldr	r3, [r7, #40]
 149 00a4 002B     		cmp	r3, #0
 150 00a6 D9D1     		bne	.L3
 151              	.LBB2:
 273:./Libraries/CMSIS/DSP/Source/FilteringFunctions/arm_fir_fast_q15.c **** 
 274:./Libraries/CMSIS/DSP/Source/FilteringFunctions/arm_fir_fast_q15.c ****     /* The result is in 2.30 format. Convert to 1.15 with saturation.
 275:./Libraries/CMSIS/DSP/Source/FilteringFunctions/arm_fir_fast_q15.c ****        Then store the output in the destination buffer. */
 276:./Libraries/CMSIS/DSP/Source/FilteringFunctions/arm_fir_fast_q15.c ****     *pDst++ = (q15_t) (__SSAT((acc0 >> 15), 16));
 152              		.loc 1 276 24
 153 00a8 FB6A     		ldr	r3, [r7, #44]
 154 00aa DB13     		asrs	r3, r3, #15
 155 00ac BB61     		str	r3, [r7, #24]
 156 00ae BB69     		ldr	r3, [r7, #24]
 157              		.syntax unified
 158              	@ 276 "./Libraries/CMSIS/DSP/Source/FilteringFunctions/arm_fir_fast_q15.c" 1
 159 00b0 03F30F03 		ssat r3, #16, r3
 160              	@ 0 "" 2
 161              		.thumb
 162              		.syntax unified
 163 00b4 7B61     		str	r3, [r7, #20]
 164 00b6 7969     		ldr	r1, [r7, #20]
 165              	.LBE2:
 166              		.loc 1 276 10
 167 00b8 7B68     		ldr	r3, [r7, #4]
 168 00ba 9A1C     		adds	r2, r3, #2
 169 00bc 7A60     		str	r2, [r7, #4]
 170              		.loc 1 276 15
 171 00be 0AB2     		sxth	r2, r1
 172              		.loc 1 276 13
 173 00c0 1A80     		strh	r2, [r3]	@ movhi
 277:./Libraries/CMSIS/DSP/Source/FilteringFunctions/arm_fir_fast_q15.c **** 
 278:./Libraries/CMSIS/DSP/Source/FilteringFunctions/arm_fir_fast_q15.c ****     /* Advance state pointer by 1 for the next sample */
 279:./Libraries/CMSIS/DSP/Source/FilteringFunctions/arm_fir_fast_q15.c ****     pState = pState + 1U;
 174              		.loc 1 279 12
 175 00c2 FB6B     		ldr	r3, [r7, #60]
 176 00c4 0233     		adds	r3, r3, #2
 177 00c6 FB63     		str	r3, [r7, #60]
 280:./Libraries/CMSIS/DSP/Source/FilteringFunctions/arm_fir_fast_q15.c **** 
ARM GAS  /tmp/ccPrOTFM.s 			page 9


 281:./Libraries/CMSIS/DSP/Source/FilteringFunctions/arm_fir_fast_q15.c ****     /* Decrement loop counter */
 282:./Libraries/CMSIS/DSP/Source/FilteringFunctions/arm_fir_fast_q15.c ****     blkCnt--;
 178              		.loc 1 282 11
 179 00c8 7B6A     		ldr	r3, [r7, #36]
 180 00ca 013B     		subs	r3, r3, #1
 181 00cc 7B62     		str	r3, [r7, #36]
 182              	.L2:
 251:./Libraries/CMSIS/DSP/Source/FilteringFunctions/arm_fir_fast_q15.c ****   {
 183              		.loc 1 251 9
 184 00ce 7B6A     		ldr	r3, [r7, #36]
 185 00d0 002B     		cmp	r3, #0
 186 00d2 B1D1     		bne	.L4
 283:./Libraries/CMSIS/DSP/Source/FilteringFunctions/arm_fir_fast_q15.c ****   }
 284:./Libraries/CMSIS/DSP/Source/FilteringFunctions/arm_fir_fast_q15.c **** 
 285:./Libraries/CMSIS/DSP/Source/FilteringFunctions/arm_fir_fast_q15.c ****   /* Processing is complete.
 286:./Libraries/CMSIS/DSP/Source/FilteringFunctions/arm_fir_fast_q15.c ****      Now copy the last numTaps - 1 samples to the start of the state buffer.
 287:./Libraries/CMSIS/DSP/Source/FilteringFunctions/arm_fir_fast_q15.c ****      This prepares the state buffer for the next function call. */
 288:./Libraries/CMSIS/DSP/Source/FilteringFunctions/arm_fir_fast_q15.c **** 
 289:./Libraries/CMSIS/DSP/Source/FilteringFunctions/arm_fir_fast_q15.c ****   /* Points to the start of the state buffer */
 290:./Libraries/CMSIS/DSP/Source/FilteringFunctions/arm_fir_fast_q15.c ****   pStateCurnt = S->pState;
 187              		.loc 1 290 15
 188 00d4 FB68     		ldr	r3, [r7, #12]
 189 00d6 5B68     		ldr	r3, [r3, #4]
 190 00d8 BB63     		str	r3, [r7, #56]
 291:./Libraries/CMSIS/DSP/Source/FilteringFunctions/arm_fir_fast_q15.c **** 
 292:./Libraries/CMSIS/DSP/Source/FilteringFunctions/arm_fir_fast_q15.c **** #if defined (ARM_MATH_LOOPUNROLL)
 293:./Libraries/CMSIS/DSP/Source/FilteringFunctions/arm_fir_fast_q15.c **** 
 294:./Libraries/CMSIS/DSP/Source/FilteringFunctions/arm_fir_fast_q15.c ****   /* Loop unrolling: Compute 4 taps at a time */
 295:./Libraries/CMSIS/DSP/Source/FilteringFunctions/arm_fir_fast_q15.c ****   tapCnt = (numTaps - 1U) >> 2U;
 296:./Libraries/CMSIS/DSP/Source/FilteringFunctions/arm_fir_fast_q15.c **** 
 297:./Libraries/CMSIS/DSP/Source/FilteringFunctions/arm_fir_fast_q15.c ****   /* Copy data */
 298:./Libraries/CMSIS/DSP/Source/FilteringFunctions/arm_fir_fast_q15.c ****   while (tapCnt > 0U)
 299:./Libraries/CMSIS/DSP/Source/FilteringFunctions/arm_fir_fast_q15.c ****   {
 300:./Libraries/CMSIS/DSP/Source/FilteringFunctions/arm_fir_fast_q15.c ****     *pStateCurnt++ = *pState++;
 301:./Libraries/CMSIS/DSP/Source/FilteringFunctions/arm_fir_fast_q15.c ****     *pStateCurnt++ = *pState++;
 302:./Libraries/CMSIS/DSP/Source/FilteringFunctions/arm_fir_fast_q15.c ****     *pStateCurnt++ = *pState++;
 303:./Libraries/CMSIS/DSP/Source/FilteringFunctions/arm_fir_fast_q15.c ****     *pStateCurnt++ = *pState++;
 304:./Libraries/CMSIS/DSP/Source/FilteringFunctions/arm_fir_fast_q15.c **** 
 305:./Libraries/CMSIS/DSP/Source/FilteringFunctions/arm_fir_fast_q15.c ****     /* Decrement loop counter */
 306:./Libraries/CMSIS/DSP/Source/FilteringFunctions/arm_fir_fast_q15.c ****     tapCnt--;
 307:./Libraries/CMSIS/DSP/Source/FilteringFunctions/arm_fir_fast_q15.c ****   }
 308:./Libraries/CMSIS/DSP/Source/FilteringFunctions/arm_fir_fast_q15.c **** 
 309:./Libraries/CMSIS/DSP/Source/FilteringFunctions/arm_fir_fast_q15.c ****   /* Calculate remaining number of copies */
 310:./Libraries/CMSIS/DSP/Source/FilteringFunctions/arm_fir_fast_q15.c ****   tapCnt = (numTaps - 1U) % 0x4U;
 311:./Libraries/CMSIS/DSP/Source/FilteringFunctions/arm_fir_fast_q15.c **** 
 312:./Libraries/CMSIS/DSP/Source/FilteringFunctions/arm_fir_fast_q15.c **** #else
 313:./Libraries/CMSIS/DSP/Source/FilteringFunctions/arm_fir_fast_q15.c **** 
 314:./Libraries/CMSIS/DSP/Source/FilteringFunctions/arm_fir_fast_q15.c ****   /* Initialize tapCnt with number of taps */
 315:./Libraries/CMSIS/DSP/Source/FilteringFunctions/arm_fir_fast_q15.c ****   tapCnt = (numTaps - 1U);
 191              		.loc 1 315 10
 192 00da FB69     		ldr	r3, [r7, #28]
 193 00dc 013B     		subs	r3, r3, #1
 194 00de BB62     		str	r3, [r7, #40]
 316:./Libraries/CMSIS/DSP/Source/FilteringFunctions/arm_fir_fast_q15.c **** 
 317:./Libraries/CMSIS/DSP/Source/FilteringFunctions/arm_fir_fast_q15.c **** #endif /* #if defined (ARM_MATH_LOOPUNROLL) */
 318:./Libraries/CMSIS/DSP/Source/FilteringFunctions/arm_fir_fast_q15.c **** 
 319:./Libraries/CMSIS/DSP/Source/FilteringFunctions/arm_fir_fast_q15.c ****   /* Copy remaining data */
ARM GAS  /tmp/ccPrOTFM.s 			page 10


 320:./Libraries/CMSIS/DSP/Source/FilteringFunctions/arm_fir_fast_q15.c ****   while (tapCnt > 0U)
 195              		.loc 1 320 9
 196 00e0 0BE0     		b	.L5
 197              	.L6:
 321:./Libraries/CMSIS/DSP/Source/FilteringFunctions/arm_fir_fast_q15.c ****   {
 322:./Libraries/CMSIS/DSP/Source/FilteringFunctions/arm_fir_fast_q15.c ****     *pStateCurnt++ = *pState++;
 198              		.loc 1 322 29
 199 00e2 FA6B     		ldr	r2, [r7, #60]
 200 00e4 931C     		adds	r3, r2, #2
 201 00e6 FB63     		str	r3, [r7, #60]
 202              		.loc 1 322 17
 203 00e8 BB6B     		ldr	r3, [r7, #56]
 204 00ea 991C     		adds	r1, r3, #2
 205 00ec B963     		str	r1, [r7, #56]
 206              		.loc 1 322 22
 207 00ee B2F90020 		ldrsh	r2, [r2]
 208              		.loc 1 322 20
 209 00f2 1A80     		strh	r2, [r3]	@ movhi
 323:./Libraries/CMSIS/DSP/Source/FilteringFunctions/arm_fir_fast_q15.c **** 
 324:./Libraries/CMSIS/DSP/Source/FilteringFunctions/arm_fir_fast_q15.c ****     /* Decrement loop counter */
 325:./Libraries/CMSIS/DSP/Source/FilteringFunctions/arm_fir_fast_q15.c ****     tapCnt--;
 210              		.loc 1 325 11
 211 00f4 BB6A     		ldr	r3, [r7, #40]
 212 00f6 013B     		subs	r3, r3, #1
 213 00f8 BB62     		str	r3, [r7, #40]
 214              	.L5:
 320:./Libraries/CMSIS/DSP/Source/FilteringFunctions/arm_fir_fast_q15.c ****   {
 215              		.loc 1 320 9
 216 00fa BB6A     		ldr	r3, [r7, #40]
 217 00fc 002B     		cmp	r3, #0
 218 00fe F0D1     		bne	.L6
 326:./Libraries/CMSIS/DSP/Source/FilteringFunctions/arm_fir_fast_q15.c ****   }
 327:./Libraries/CMSIS/DSP/Source/FilteringFunctions/arm_fir_fast_q15.c **** 
 328:./Libraries/CMSIS/DSP/Source/FilteringFunctions/arm_fir_fast_q15.c **** }
 219              		.loc 1 328 1
 220 0100 00BF     		nop
 221 0102 00BF     		nop
 222 0104 4437     		adds	r7, r7, #68
 223              	.LCFI3:
 224              		.cfi_def_cfa_offset 4
 225 0106 BD46     		mov	sp, r7
 226              	.LCFI4:
 227              		.cfi_def_cfa_register 13
 228              		@ sp needed
 229 0108 5DF8047B 		ldr	r7, [sp], #4
 230              	.LCFI5:
 231              		.cfi_restore 7
 232              		.cfi_def_cfa_offset 0
 233 010c 7047     		bx	lr
 234              		.cfi_endproc
 235              	.LFE145:
 237              		.text
 238              	.Letext0:
 239              		.file 2 "/usr/lib/gcc/arm-none-eabi/9.2.1/include/stdint.h"
 240              		.file 3 "/usr/lib/gcc/arm-none-eabi/9.2.1/include/stddef.h"
 241              		.file 4 "/usr/include/newlib/sys/_types.h"
 242              		.file 5 "/usr/include/newlib/sys/reent.h"
ARM GAS  /tmp/ccPrOTFM.s 			page 11


 243              		.file 6 "/usr/include/newlib/sys/lock.h"
 244              		.file 7 "/usr/include/newlib/math.h"
 245              		.file 8 "./Libraries/CMSIS/DSP/Include/arm_math.h"
ARM GAS  /tmp/ccPrOTFM.s 			page 12

