ARM GAS  /tmp/cctlMF5N.s 			page 1


   1              		.cpu cortex-m7
   2              		.eabi_attribute 28, 1
   3              		.eabi_attribute 20, 1
   4              		.eabi_attribute 21, 1
   5              		.eabi_attribute 23, 3
   6              		.eabi_attribute 24, 1
   7              		.eabi_attribute 25, 1
   8              		.eabi_attribute 26, 1
   9              		.eabi_attribute 30, 6
  10              		.eabi_attribute 34, 1
  11              		.eabi_attribute 18, 4
  12              		.file	"arm_fir_lattice_q31.c"
  13              		.text
  14              	.Ltext0:
  15              		.cfi_sections	.debug_frame
  16              		.section	.text.arm_fir_lattice_q31,"ax",%progbits
  17              		.align	1
  18              		.global	arm_fir_lattice_q31
  19              		.arch armv7e-m
  20              		.syntax unified
  21              		.thumb
  22              		.thumb_func
  23              		.fpu fpv5-d16
  25              	arm_fir_lattice_q31:
  26              	.LFB145:
  27              		.file 1 "./Libraries/CMSIS/DSP/Source/FilteringFunctions/arm_fir_lattice_q31.c"
   1:./Libraries/CMSIS/DSP/Source/FilteringFunctions/arm_fir_lattice_q31.c **** /* ----------------------------------------------------------------------
   2:./Libraries/CMSIS/DSP/Source/FilteringFunctions/arm_fir_lattice_q31.c ****  * Project:      CMSIS DSP Library
   3:./Libraries/CMSIS/DSP/Source/FilteringFunctions/arm_fir_lattice_q31.c ****  * Title:        arm_fir_lattice_q31.c
   4:./Libraries/CMSIS/DSP/Source/FilteringFunctions/arm_fir_lattice_q31.c ****  * Description:  Q31 FIR lattice filter processing function
   5:./Libraries/CMSIS/DSP/Source/FilteringFunctions/arm_fir_lattice_q31.c ****  *
   6:./Libraries/CMSIS/DSP/Source/FilteringFunctions/arm_fir_lattice_q31.c ****  * $Date:        18. March 2019
   7:./Libraries/CMSIS/DSP/Source/FilteringFunctions/arm_fir_lattice_q31.c ****  * $Revision:    V1.6.0
   8:./Libraries/CMSIS/DSP/Source/FilteringFunctions/arm_fir_lattice_q31.c ****  *
   9:./Libraries/CMSIS/DSP/Source/FilteringFunctions/arm_fir_lattice_q31.c ****  * Target Processor: Cortex-M cores
  10:./Libraries/CMSIS/DSP/Source/FilteringFunctions/arm_fir_lattice_q31.c ****  * -------------------------------------------------------------------- */
  11:./Libraries/CMSIS/DSP/Source/FilteringFunctions/arm_fir_lattice_q31.c **** /*
  12:./Libraries/CMSIS/DSP/Source/FilteringFunctions/arm_fir_lattice_q31.c ****  * Copyright (C) 2010-2019 ARM Limited or its affiliates. All rights reserved.
  13:./Libraries/CMSIS/DSP/Source/FilteringFunctions/arm_fir_lattice_q31.c ****  *
  14:./Libraries/CMSIS/DSP/Source/FilteringFunctions/arm_fir_lattice_q31.c ****  * SPDX-License-Identifier: Apache-2.0
  15:./Libraries/CMSIS/DSP/Source/FilteringFunctions/arm_fir_lattice_q31.c ****  *
  16:./Libraries/CMSIS/DSP/Source/FilteringFunctions/arm_fir_lattice_q31.c ****  * Licensed under the Apache License, Version 2.0 (the License); you may
  17:./Libraries/CMSIS/DSP/Source/FilteringFunctions/arm_fir_lattice_q31.c ****  * not use this file except in compliance with the License.
  18:./Libraries/CMSIS/DSP/Source/FilteringFunctions/arm_fir_lattice_q31.c ****  * You may obtain a copy of the License at
  19:./Libraries/CMSIS/DSP/Source/FilteringFunctions/arm_fir_lattice_q31.c ****  *
  20:./Libraries/CMSIS/DSP/Source/FilteringFunctions/arm_fir_lattice_q31.c ****  * www.apache.org/licenses/LICENSE-2.0
  21:./Libraries/CMSIS/DSP/Source/FilteringFunctions/arm_fir_lattice_q31.c ****  *
  22:./Libraries/CMSIS/DSP/Source/FilteringFunctions/arm_fir_lattice_q31.c ****  * Unless required by applicable law or agreed to in writing, software
  23:./Libraries/CMSIS/DSP/Source/FilteringFunctions/arm_fir_lattice_q31.c ****  * distributed under the License is distributed on an AS IS BASIS, WITHOUT
  24:./Libraries/CMSIS/DSP/Source/FilteringFunctions/arm_fir_lattice_q31.c ****  * WARRANTIES OR CONDITIONS OF ANY KIND, either express or implied.
  25:./Libraries/CMSIS/DSP/Source/FilteringFunctions/arm_fir_lattice_q31.c ****  * See the License for the specific language governing permissions and
  26:./Libraries/CMSIS/DSP/Source/FilteringFunctions/arm_fir_lattice_q31.c ****  * limitations under the License.
  27:./Libraries/CMSIS/DSP/Source/FilteringFunctions/arm_fir_lattice_q31.c ****  */
  28:./Libraries/CMSIS/DSP/Source/FilteringFunctions/arm_fir_lattice_q31.c **** 
  29:./Libraries/CMSIS/DSP/Source/FilteringFunctions/arm_fir_lattice_q31.c **** #include "arm_math.h"
  30:./Libraries/CMSIS/DSP/Source/FilteringFunctions/arm_fir_lattice_q31.c **** 
  31:./Libraries/CMSIS/DSP/Source/FilteringFunctions/arm_fir_lattice_q31.c **** /**
ARM GAS  /tmp/cctlMF5N.s 			page 2


  32:./Libraries/CMSIS/DSP/Source/FilteringFunctions/arm_fir_lattice_q31.c ****   @ingroup groupFilters
  33:./Libraries/CMSIS/DSP/Source/FilteringFunctions/arm_fir_lattice_q31.c ****  */
  34:./Libraries/CMSIS/DSP/Source/FilteringFunctions/arm_fir_lattice_q31.c **** 
  35:./Libraries/CMSIS/DSP/Source/FilteringFunctions/arm_fir_lattice_q31.c **** /**
  36:./Libraries/CMSIS/DSP/Source/FilteringFunctions/arm_fir_lattice_q31.c ****   @addtogroup FIR_Lattice
  37:./Libraries/CMSIS/DSP/Source/FilteringFunctions/arm_fir_lattice_q31.c ****   @{
  38:./Libraries/CMSIS/DSP/Source/FilteringFunctions/arm_fir_lattice_q31.c ****  */
  39:./Libraries/CMSIS/DSP/Source/FilteringFunctions/arm_fir_lattice_q31.c **** 
  40:./Libraries/CMSIS/DSP/Source/FilteringFunctions/arm_fir_lattice_q31.c **** /**
  41:./Libraries/CMSIS/DSP/Source/FilteringFunctions/arm_fir_lattice_q31.c ****   @brief         Processing function for the Q31 FIR lattice filter.
  42:./Libraries/CMSIS/DSP/Source/FilteringFunctions/arm_fir_lattice_q31.c ****   @param[in]     S          points to an instance of the Q31 FIR lattice structure
  43:./Libraries/CMSIS/DSP/Source/FilteringFunctions/arm_fir_lattice_q31.c ****   @param[in]     pSrc       points to the block of input data
  44:./Libraries/CMSIS/DSP/Source/FilteringFunctions/arm_fir_lattice_q31.c ****   @param[out]    pDst       points to the block of output data
  45:./Libraries/CMSIS/DSP/Source/FilteringFunctions/arm_fir_lattice_q31.c ****   @param[in]     blockSize  number of samples to process
  46:./Libraries/CMSIS/DSP/Source/FilteringFunctions/arm_fir_lattice_q31.c ****   @return        none
  47:./Libraries/CMSIS/DSP/Source/FilteringFunctions/arm_fir_lattice_q31.c **** 
  48:./Libraries/CMSIS/DSP/Source/FilteringFunctions/arm_fir_lattice_q31.c ****   @par           Scaling and Overflow Behavior
  49:./Libraries/CMSIS/DSP/Source/FilteringFunctions/arm_fir_lattice_q31.c ****                    In order to avoid overflows the input signal must be scaled down by 2*log2(numSt
  50:./Libraries/CMSIS/DSP/Source/FilteringFunctions/arm_fir_lattice_q31.c ****  */
  51:./Libraries/CMSIS/DSP/Source/FilteringFunctions/arm_fir_lattice_q31.c **** 
  52:./Libraries/CMSIS/DSP/Source/FilteringFunctions/arm_fir_lattice_q31.c **** void arm_fir_lattice_q31(
  53:./Libraries/CMSIS/DSP/Source/FilteringFunctions/arm_fir_lattice_q31.c ****   const arm_fir_lattice_instance_q31 * S,
  54:./Libraries/CMSIS/DSP/Source/FilteringFunctions/arm_fir_lattice_q31.c ****   const q31_t * pSrc,
  55:./Libraries/CMSIS/DSP/Source/FilteringFunctions/arm_fir_lattice_q31.c ****         q31_t * pDst,
  56:./Libraries/CMSIS/DSP/Source/FilteringFunctions/arm_fir_lattice_q31.c ****         uint32_t blockSize)
  57:./Libraries/CMSIS/DSP/Source/FilteringFunctions/arm_fir_lattice_q31.c **** {
  28              		.loc 1 57 1
  29              		.cfi_startproc
  30              		@ args = 0, pretend = 0, frame = 64
  31              		@ frame_needed = 1, uses_anonymous_args = 0
  32              		@ link register save eliminated.
  33 0000 B0B4     		push	{r4, r5, r7}
  34              	.LCFI0:
  35              		.cfi_def_cfa_offset 12
  36              		.cfi_offset 4, -12
  37              		.cfi_offset 5, -8
  38              		.cfi_offset 7, -4
  39 0002 91B0     		sub	sp, sp, #68
  40              	.LCFI1:
  41              		.cfi_def_cfa_offset 80
  42 0004 00AF     		add	r7, sp, #0
  43              	.LCFI2:
  44              		.cfi_def_cfa_register 7
  45 0006 F860     		str	r0, [r7, #12]
  46 0008 B960     		str	r1, [r7, #8]
  47 000a 7A60     		str	r2, [r7, #4]
  48 000c 3B60     		str	r3, [r7]
  58:./Libraries/CMSIS/DSP/Source/FilteringFunctions/arm_fir_lattice_q31.c ****         q31_t *pState = S->pState;                     /* State pointer */
  49              		.loc 1 58 16
  50 000e FB68     		ldr	r3, [r7, #12]
  51 0010 5B68     		ldr	r3, [r3, #4]
  52 0012 7B62     		str	r3, [r7, #36]
  59:./Libraries/CMSIS/DSP/Source/FilteringFunctions/arm_fir_lattice_q31.c ****   const q31_t *pCoeffs = S->pCoeffs;                   /* Coefficient pointer */
  53              		.loc 1 59 16
  54 0014 FB68     		ldr	r3, [r7, #12]
  55 0016 9B68     		ldr	r3, [r3, #8]
  56 0018 3B62     		str	r3, [r7, #32]
ARM GAS  /tmp/cctlMF5N.s 			page 3


  60:./Libraries/CMSIS/DSP/Source/FilteringFunctions/arm_fir_lattice_q31.c ****         q31_t *px;                                     /* Temporary state pointer */
  61:./Libraries/CMSIS/DSP/Source/FilteringFunctions/arm_fir_lattice_q31.c ****   const q31_t *pk;                                     /* Temporary coefficient pointer */
  62:./Libraries/CMSIS/DSP/Source/FilteringFunctions/arm_fir_lattice_q31.c ****         uint32_t numStages = S->numStages;             /* Number of stages in the filter */
  57              		.loc 1 62 31
  58 001a FB68     		ldr	r3, [r7, #12]
  59 001c 1B88     		ldrh	r3, [r3]
  60              		.loc 1 62 18
  61 001e FB61     		str	r3, [r7, #28]
  63:./Libraries/CMSIS/DSP/Source/FilteringFunctions/arm_fir_lattice_q31.c ****         uint32_t blkCnt, stageCnt;                     /* Loop counters */
  64:./Libraries/CMSIS/DSP/Source/FilteringFunctions/arm_fir_lattice_q31.c ****         q31_t fcurr0, fnext0, gnext0, gcurr0;          /* Temporary variables */
  65:./Libraries/CMSIS/DSP/Source/FilteringFunctions/arm_fir_lattice_q31.c **** 
  66:./Libraries/CMSIS/DSP/Source/FilteringFunctions/arm_fir_lattice_q31.c **** #if (1)
  67:./Libraries/CMSIS/DSP/Source/FilteringFunctions/arm_fir_lattice_q31.c **** //#if !defined(ARM_MATH_CM0_FAMILY)
  68:./Libraries/CMSIS/DSP/Source/FilteringFunctions/arm_fir_lattice_q31.c **** 
  69:./Libraries/CMSIS/DSP/Source/FilteringFunctions/arm_fir_lattice_q31.c **** #if defined (ARM_MATH_LOOPUNROLL)
  70:./Libraries/CMSIS/DSP/Source/FilteringFunctions/arm_fir_lattice_q31.c ****         q31_t fcurr1, fnext1, gnext1;                  /* Temporary variables for second sample in 
  71:./Libraries/CMSIS/DSP/Source/FilteringFunctions/arm_fir_lattice_q31.c ****         q31_t fcurr2, fnext2, gnext2;                  /* Temporary variables for third sample in l
  72:./Libraries/CMSIS/DSP/Source/FilteringFunctions/arm_fir_lattice_q31.c ****         q31_t fcurr3, fnext3, gnext3;                  /* Temporary variables for fourth sample in 
  73:./Libraries/CMSIS/DSP/Source/FilteringFunctions/arm_fir_lattice_q31.c **** #endif
  74:./Libraries/CMSIS/DSP/Source/FilteringFunctions/arm_fir_lattice_q31.c **** 
  75:./Libraries/CMSIS/DSP/Source/FilteringFunctions/arm_fir_lattice_q31.c ****   gcurr0 = 0;
  62              		.loc 1 75 10
  63 0020 0023     		movs	r3, #0
  64 0022 BB61     		str	r3, [r7, #24]
  76:./Libraries/CMSIS/DSP/Source/FilteringFunctions/arm_fir_lattice_q31.c **** 
  77:./Libraries/CMSIS/DSP/Source/FilteringFunctions/arm_fir_lattice_q31.c **** #if defined (ARM_MATH_LOOPUNROLL)
  78:./Libraries/CMSIS/DSP/Source/FilteringFunctions/arm_fir_lattice_q31.c **** 
  79:./Libraries/CMSIS/DSP/Source/FilteringFunctions/arm_fir_lattice_q31.c ****   /* Loop unrolling: Compute 4 outputs at a time */
  80:./Libraries/CMSIS/DSP/Source/FilteringFunctions/arm_fir_lattice_q31.c ****   blkCnt = blockSize >> 2U;
  81:./Libraries/CMSIS/DSP/Source/FilteringFunctions/arm_fir_lattice_q31.c **** 
  82:./Libraries/CMSIS/DSP/Source/FilteringFunctions/arm_fir_lattice_q31.c ****   while (blkCnt > 0U)
  83:./Libraries/CMSIS/DSP/Source/FilteringFunctions/arm_fir_lattice_q31.c ****   {
  84:./Libraries/CMSIS/DSP/Source/FilteringFunctions/arm_fir_lattice_q31.c ****     /* Read two samples from input buffer */
  85:./Libraries/CMSIS/DSP/Source/FilteringFunctions/arm_fir_lattice_q31.c ****     /* f0(n) = x(n) */
  86:./Libraries/CMSIS/DSP/Source/FilteringFunctions/arm_fir_lattice_q31.c ****     fcurr0 = *pSrc++;
  87:./Libraries/CMSIS/DSP/Source/FilteringFunctions/arm_fir_lattice_q31.c ****     fcurr1 = *pSrc++;
  88:./Libraries/CMSIS/DSP/Source/FilteringFunctions/arm_fir_lattice_q31.c **** 
  89:./Libraries/CMSIS/DSP/Source/FilteringFunctions/arm_fir_lattice_q31.c ****     /* Initialize state pointer */
  90:./Libraries/CMSIS/DSP/Source/FilteringFunctions/arm_fir_lattice_q31.c ****     px = pState;
  91:./Libraries/CMSIS/DSP/Source/FilteringFunctions/arm_fir_lattice_q31.c **** 
  92:./Libraries/CMSIS/DSP/Source/FilteringFunctions/arm_fir_lattice_q31.c ****     /* Initialize coeff pointer */
  93:./Libraries/CMSIS/DSP/Source/FilteringFunctions/arm_fir_lattice_q31.c ****     pk = pCoeffs;
  94:./Libraries/CMSIS/DSP/Source/FilteringFunctions/arm_fir_lattice_q31.c **** 
  95:./Libraries/CMSIS/DSP/Source/FilteringFunctions/arm_fir_lattice_q31.c ****     /* Read g0(n-1) from state buffer */
  96:./Libraries/CMSIS/DSP/Source/FilteringFunctions/arm_fir_lattice_q31.c ****     gcurr0 = *px;
  97:./Libraries/CMSIS/DSP/Source/FilteringFunctions/arm_fir_lattice_q31.c **** 
  98:./Libraries/CMSIS/DSP/Source/FilteringFunctions/arm_fir_lattice_q31.c ****     /* Process first sample for first tap */
  99:./Libraries/CMSIS/DSP/Source/FilteringFunctions/arm_fir_lattice_q31.c ****     /* f1(n) = f0(n) +  K1 * g0(n-1) */
 100:./Libraries/CMSIS/DSP/Source/FilteringFunctions/arm_fir_lattice_q31.c ****     fnext0 = (q31_t) (((q63_t) gcurr0 * (*pk)) >> 32U);
 101:./Libraries/CMSIS/DSP/Source/FilteringFunctions/arm_fir_lattice_q31.c ****     fnext0 = (fnext0 << 1U) + fcurr0;
 102:./Libraries/CMSIS/DSP/Source/FilteringFunctions/arm_fir_lattice_q31.c **** 
 103:./Libraries/CMSIS/DSP/Source/FilteringFunctions/arm_fir_lattice_q31.c ****     /* g1(n) = f0(n) * K1  +  g0(n-1) */
 104:./Libraries/CMSIS/DSP/Source/FilteringFunctions/arm_fir_lattice_q31.c ****     gnext0 = (q31_t) (((q63_t) fcurr0 * (*pk)) >> 32U);
 105:./Libraries/CMSIS/DSP/Source/FilteringFunctions/arm_fir_lattice_q31.c ****     gnext0 = (gnext0 << 1U) + gcurr0;
 106:./Libraries/CMSIS/DSP/Source/FilteringFunctions/arm_fir_lattice_q31.c **** 
 107:./Libraries/CMSIS/DSP/Source/FilteringFunctions/arm_fir_lattice_q31.c ****     /* Process second sample for first tap */
 108:./Libraries/CMSIS/DSP/Source/FilteringFunctions/arm_fir_lattice_q31.c ****     fnext1 = (q31_t) (((q63_t) fcurr0 * (*pk)) >> 32U);
ARM GAS  /tmp/cctlMF5N.s 			page 4


 109:./Libraries/CMSIS/DSP/Source/FilteringFunctions/arm_fir_lattice_q31.c ****     fnext1 = (fnext1 << 1U) + fcurr1;
 110:./Libraries/CMSIS/DSP/Source/FilteringFunctions/arm_fir_lattice_q31.c ****     gnext1 = (q31_t) (((q63_t) fcurr1 * (*pk)) >> 32U);
 111:./Libraries/CMSIS/DSP/Source/FilteringFunctions/arm_fir_lattice_q31.c ****     gnext1 = (gnext1 << 1U) + fcurr0;
 112:./Libraries/CMSIS/DSP/Source/FilteringFunctions/arm_fir_lattice_q31.c **** 
 113:./Libraries/CMSIS/DSP/Source/FilteringFunctions/arm_fir_lattice_q31.c ****     /* Read next two samples from input buffer */
 114:./Libraries/CMSIS/DSP/Source/FilteringFunctions/arm_fir_lattice_q31.c ****     /* f0(n+2) = x(n+2) */
 115:./Libraries/CMSIS/DSP/Source/FilteringFunctions/arm_fir_lattice_q31.c ****     fcurr2 = *pSrc++;
 116:./Libraries/CMSIS/DSP/Source/FilteringFunctions/arm_fir_lattice_q31.c ****     fcurr3 = *pSrc++;
 117:./Libraries/CMSIS/DSP/Source/FilteringFunctions/arm_fir_lattice_q31.c **** 
 118:./Libraries/CMSIS/DSP/Source/FilteringFunctions/arm_fir_lattice_q31.c ****     /* Process third sample for first tap */
 119:./Libraries/CMSIS/DSP/Source/FilteringFunctions/arm_fir_lattice_q31.c ****     fnext2 = (q31_t) (((q63_t) fcurr1 * (*pk)) >> 32U);
 120:./Libraries/CMSIS/DSP/Source/FilteringFunctions/arm_fir_lattice_q31.c ****     fnext2 = (fnext2 << 1U) + fcurr2;
 121:./Libraries/CMSIS/DSP/Source/FilteringFunctions/arm_fir_lattice_q31.c ****     gnext2 = (q31_t) (((q63_t) fcurr2 * (*pk)) >> 32U);
 122:./Libraries/CMSIS/DSP/Source/FilteringFunctions/arm_fir_lattice_q31.c ****     gnext2 = (gnext2 << 1U) + fcurr1;
 123:./Libraries/CMSIS/DSP/Source/FilteringFunctions/arm_fir_lattice_q31.c **** 
 124:./Libraries/CMSIS/DSP/Source/FilteringFunctions/arm_fir_lattice_q31.c ****     /* Process fourth sample for first tap */
 125:./Libraries/CMSIS/DSP/Source/FilteringFunctions/arm_fir_lattice_q31.c ****     fnext3 = (q31_t) (((q63_t) fcurr2 * (*pk  )) >> 32U);
 126:./Libraries/CMSIS/DSP/Source/FilteringFunctions/arm_fir_lattice_q31.c ****     fnext3 = (fnext3 << 1U) + fcurr3;
 127:./Libraries/CMSIS/DSP/Source/FilteringFunctions/arm_fir_lattice_q31.c ****     gnext3 = (q31_t) (((q63_t) fcurr3 * (*pk++)) >> 32U);
 128:./Libraries/CMSIS/DSP/Source/FilteringFunctions/arm_fir_lattice_q31.c ****     gnext3 = (gnext3 << 1U) + fcurr2;
 129:./Libraries/CMSIS/DSP/Source/FilteringFunctions/arm_fir_lattice_q31.c **** 
 130:./Libraries/CMSIS/DSP/Source/FilteringFunctions/arm_fir_lattice_q31.c ****     /* Copy only last input sample into the state buffer
 131:./Libraries/CMSIS/DSP/Source/FilteringFunctions/arm_fir_lattice_q31.c ****        which will be used for next samples processing */
 132:./Libraries/CMSIS/DSP/Source/FilteringFunctions/arm_fir_lattice_q31.c ****     *px++ = fcurr3;
 133:./Libraries/CMSIS/DSP/Source/FilteringFunctions/arm_fir_lattice_q31.c **** 
 134:./Libraries/CMSIS/DSP/Source/FilteringFunctions/arm_fir_lattice_q31.c ****     /* Update of f values for next coefficient set processing */
 135:./Libraries/CMSIS/DSP/Source/FilteringFunctions/arm_fir_lattice_q31.c ****     fcurr0 = fnext0;
 136:./Libraries/CMSIS/DSP/Source/FilteringFunctions/arm_fir_lattice_q31.c ****     fcurr1 = fnext1;
 137:./Libraries/CMSIS/DSP/Source/FilteringFunctions/arm_fir_lattice_q31.c ****     fcurr2 = fnext2;
 138:./Libraries/CMSIS/DSP/Source/FilteringFunctions/arm_fir_lattice_q31.c ****     fcurr3 = fnext3;
 139:./Libraries/CMSIS/DSP/Source/FilteringFunctions/arm_fir_lattice_q31.c **** 
 140:./Libraries/CMSIS/DSP/Source/FilteringFunctions/arm_fir_lattice_q31.c ****     /* Loop unrolling.  Process 4 taps at a time . */
 141:./Libraries/CMSIS/DSP/Source/FilteringFunctions/arm_fir_lattice_q31.c ****     stageCnt = (numStages - 1U) >> 2U;
 142:./Libraries/CMSIS/DSP/Source/FilteringFunctions/arm_fir_lattice_q31.c **** 
 143:./Libraries/CMSIS/DSP/Source/FilteringFunctions/arm_fir_lattice_q31.c ****     /* Loop over the number of taps.  Unroll by a factor of 4.
 144:./Libraries/CMSIS/DSP/Source/FilteringFunctions/arm_fir_lattice_q31.c ****        Repeat until we've computed numStages-3 coefficients. */
 145:./Libraries/CMSIS/DSP/Source/FilteringFunctions/arm_fir_lattice_q31.c **** 
 146:./Libraries/CMSIS/DSP/Source/FilteringFunctions/arm_fir_lattice_q31.c ****     /* Process 2nd, 3rd, 4th and 5th taps ... here */
 147:./Libraries/CMSIS/DSP/Source/FilteringFunctions/arm_fir_lattice_q31.c ****     while (stageCnt > 0U)
 148:./Libraries/CMSIS/DSP/Source/FilteringFunctions/arm_fir_lattice_q31.c ****     {
 149:./Libraries/CMSIS/DSP/Source/FilteringFunctions/arm_fir_lattice_q31.c ****       /* Read g1(n-1), g3(n-1) .... from state */
 150:./Libraries/CMSIS/DSP/Source/FilteringFunctions/arm_fir_lattice_q31.c ****       gcurr0 = *px;
 151:./Libraries/CMSIS/DSP/Source/FilteringFunctions/arm_fir_lattice_q31.c **** 
 152:./Libraries/CMSIS/DSP/Source/FilteringFunctions/arm_fir_lattice_q31.c ****       /* save g1(n) in state buffer */
 153:./Libraries/CMSIS/DSP/Source/FilteringFunctions/arm_fir_lattice_q31.c ****       *px++ = gnext3;
 154:./Libraries/CMSIS/DSP/Source/FilteringFunctions/arm_fir_lattice_q31.c **** 
 155:./Libraries/CMSIS/DSP/Source/FilteringFunctions/arm_fir_lattice_q31.c ****       /* Process first sample for 2nd, 6th .. tap */
 156:./Libraries/CMSIS/DSP/Source/FilteringFunctions/arm_fir_lattice_q31.c ****       /* Sample processing for K2, K6.... */
 157:./Libraries/CMSIS/DSP/Source/FilteringFunctions/arm_fir_lattice_q31.c ****       /* f1(n) = f0(n) +  K1 * g0(n-1) */
 158:./Libraries/CMSIS/DSP/Source/FilteringFunctions/arm_fir_lattice_q31.c ****       fnext0 = (q31_t) (((q63_t) gcurr0 * (*pk)) >> 32U);
 159:./Libraries/CMSIS/DSP/Source/FilteringFunctions/arm_fir_lattice_q31.c ****       fnext0 = (fnext0 << 1U) + fcurr0;
 160:./Libraries/CMSIS/DSP/Source/FilteringFunctions/arm_fir_lattice_q31.c **** 
 161:./Libraries/CMSIS/DSP/Source/FilteringFunctions/arm_fir_lattice_q31.c ****       /* Process second sample for 2nd, 6th .. tap */
 162:./Libraries/CMSIS/DSP/Source/FilteringFunctions/arm_fir_lattice_q31.c ****       /* for sample 2 processing */
 163:./Libraries/CMSIS/DSP/Source/FilteringFunctions/arm_fir_lattice_q31.c ****       fnext1 = (q31_t) (((q63_t) gnext0 * (*pk)) >> 32U);
 164:./Libraries/CMSIS/DSP/Source/FilteringFunctions/arm_fir_lattice_q31.c ****       fnext1 = (fnext1 << 1U) + fcurr1;
 165:./Libraries/CMSIS/DSP/Source/FilteringFunctions/arm_fir_lattice_q31.c **** 
ARM GAS  /tmp/cctlMF5N.s 			page 5


 166:./Libraries/CMSIS/DSP/Source/FilteringFunctions/arm_fir_lattice_q31.c ****       /* Process third sample for 2nd, 6th .. tap */
 167:./Libraries/CMSIS/DSP/Source/FilteringFunctions/arm_fir_lattice_q31.c ****       fnext2 = (q31_t) (((q63_t) gnext1 * (*pk)) >> 32U);
 168:./Libraries/CMSIS/DSP/Source/FilteringFunctions/arm_fir_lattice_q31.c ****       fnext2 = (fnext2 << 1U) + fcurr2;
 169:./Libraries/CMSIS/DSP/Source/FilteringFunctions/arm_fir_lattice_q31.c **** 
 170:./Libraries/CMSIS/DSP/Source/FilteringFunctions/arm_fir_lattice_q31.c ****       /* Process fourth sample for 2nd, 6th .. tap */
 171:./Libraries/CMSIS/DSP/Source/FilteringFunctions/arm_fir_lattice_q31.c ****       fnext3 = (q31_t) (((q63_t) gnext2 * (*pk)) >> 32U);
 172:./Libraries/CMSIS/DSP/Source/FilteringFunctions/arm_fir_lattice_q31.c ****       fnext3 = (fnext3 << 1U) + fcurr3;
 173:./Libraries/CMSIS/DSP/Source/FilteringFunctions/arm_fir_lattice_q31.c **** 
 174:./Libraries/CMSIS/DSP/Source/FilteringFunctions/arm_fir_lattice_q31.c ****       /* g1(n) = f0(n) * K1  +  g0(n-1) */
 175:./Libraries/CMSIS/DSP/Source/FilteringFunctions/arm_fir_lattice_q31.c ****       /* Calculation of state values for next stage */
 176:./Libraries/CMSIS/DSP/Source/FilteringFunctions/arm_fir_lattice_q31.c ****       gnext3 = (q31_t) (((q63_t) fcurr3 * (*pk)) >> 32U);
 177:./Libraries/CMSIS/DSP/Source/FilteringFunctions/arm_fir_lattice_q31.c ****       gnext3 = (gnext3 << 1U) + gnext2;
 178:./Libraries/CMSIS/DSP/Source/FilteringFunctions/arm_fir_lattice_q31.c **** 
 179:./Libraries/CMSIS/DSP/Source/FilteringFunctions/arm_fir_lattice_q31.c ****       gnext2 = (q31_t) (((q63_t) fcurr2 * (*pk)) >> 32U);
 180:./Libraries/CMSIS/DSP/Source/FilteringFunctions/arm_fir_lattice_q31.c ****       gnext2 = (gnext2 << 1U) + gnext1;
 181:./Libraries/CMSIS/DSP/Source/FilteringFunctions/arm_fir_lattice_q31.c **** 
 182:./Libraries/CMSIS/DSP/Source/FilteringFunctions/arm_fir_lattice_q31.c ****       gnext1 = (q31_t) (((q63_t) fcurr1 * (*pk)) >> 32U);
 183:./Libraries/CMSIS/DSP/Source/FilteringFunctions/arm_fir_lattice_q31.c ****       gnext1 = (gnext1 << 1U) + gnext0;
 184:./Libraries/CMSIS/DSP/Source/FilteringFunctions/arm_fir_lattice_q31.c **** 
 185:./Libraries/CMSIS/DSP/Source/FilteringFunctions/arm_fir_lattice_q31.c ****       gnext0 = (q31_t) (((q63_t) fcurr0 * (*pk++)) >> 32U);
 186:./Libraries/CMSIS/DSP/Source/FilteringFunctions/arm_fir_lattice_q31.c ****       gnext0 = (gnext0 << 1U) + gcurr0;
 187:./Libraries/CMSIS/DSP/Source/FilteringFunctions/arm_fir_lattice_q31.c **** 
 188:./Libraries/CMSIS/DSP/Source/FilteringFunctions/arm_fir_lattice_q31.c **** 
 189:./Libraries/CMSIS/DSP/Source/FilteringFunctions/arm_fir_lattice_q31.c ****       /* Read g2(n-1), g4(n-1) .... from state */
 190:./Libraries/CMSIS/DSP/Source/FilteringFunctions/arm_fir_lattice_q31.c ****       gcurr0 = *px;
 191:./Libraries/CMSIS/DSP/Source/FilteringFunctions/arm_fir_lattice_q31.c **** 
 192:./Libraries/CMSIS/DSP/Source/FilteringFunctions/arm_fir_lattice_q31.c ****       /* save g1(n) in state buffer */
 193:./Libraries/CMSIS/DSP/Source/FilteringFunctions/arm_fir_lattice_q31.c ****       *px++ = gnext3;
 194:./Libraries/CMSIS/DSP/Source/FilteringFunctions/arm_fir_lattice_q31.c **** 
 195:./Libraries/CMSIS/DSP/Source/FilteringFunctions/arm_fir_lattice_q31.c ****       /* Sample processing for K3, K7.... */
 196:./Libraries/CMSIS/DSP/Source/FilteringFunctions/arm_fir_lattice_q31.c ****       /* Process first sample for 3rd, 7th .. tap */
 197:./Libraries/CMSIS/DSP/Source/FilteringFunctions/arm_fir_lattice_q31.c ****       /* f3(n) = f2(n) +  K3 * g2(n-1) */
 198:./Libraries/CMSIS/DSP/Source/FilteringFunctions/arm_fir_lattice_q31.c ****       fcurr0 = (q31_t) (((q63_t) gcurr0 * (*pk)) >> 32U);
 199:./Libraries/CMSIS/DSP/Source/FilteringFunctions/arm_fir_lattice_q31.c ****       fcurr0 = (fcurr0 << 1U) + fnext0;
 200:./Libraries/CMSIS/DSP/Source/FilteringFunctions/arm_fir_lattice_q31.c **** 
 201:./Libraries/CMSIS/DSP/Source/FilteringFunctions/arm_fir_lattice_q31.c ****       /* Process second sample for 3rd, 7th .. tap */
 202:./Libraries/CMSIS/DSP/Source/FilteringFunctions/arm_fir_lattice_q31.c ****       fcurr1 = (q31_t) (((q63_t) gnext0 * (*pk)) >> 32U);
 203:./Libraries/CMSIS/DSP/Source/FilteringFunctions/arm_fir_lattice_q31.c ****       fcurr1 = (fcurr1 << 1U) + fnext1;
 204:./Libraries/CMSIS/DSP/Source/FilteringFunctions/arm_fir_lattice_q31.c **** 
 205:./Libraries/CMSIS/DSP/Source/FilteringFunctions/arm_fir_lattice_q31.c ****       /* Process third sample for 3rd, 7th .. tap */
 206:./Libraries/CMSIS/DSP/Source/FilteringFunctions/arm_fir_lattice_q31.c ****       fcurr2 = (q31_t) (((q63_t) gnext1 * (*pk)) >> 32U);
 207:./Libraries/CMSIS/DSP/Source/FilteringFunctions/arm_fir_lattice_q31.c ****       fcurr2 = (fcurr2 << 1U) + fnext2;
 208:./Libraries/CMSIS/DSP/Source/FilteringFunctions/arm_fir_lattice_q31.c **** 
 209:./Libraries/CMSIS/DSP/Source/FilteringFunctions/arm_fir_lattice_q31.c ****       /* Process fourth sample for 3rd, 7th .. tap */
 210:./Libraries/CMSIS/DSP/Source/FilteringFunctions/arm_fir_lattice_q31.c ****       fcurr3 = (q31_t) (((q63_t) gnext2 * (*pk)) >> 32U);
 211:./Libraries/CMSIS/DSP/Source/FilteringFunctions/arm_fir_lattice_q31.c ****       fcurr3 = (fcurr3 << 1U) + fnext3;
 212:./Libraries/CMSIS/DSP/Source/FilteringFunctions/arm_fir_lattice_q31.c **** 
 213:./Libraries/CMSIS/DSP/Source/FilteringFunctions/arm_fir_lattice_q31.c ****       /* Calculation of state values for next stage */
 214:./Libraries/CMSIS/DSP/Source/FilteringFunctions/arm_fir_lattice_q31.c ****       /* g3(n) = f2(n) * K3  +  g2(n-1) */
 215:./Libraries/CMSIS/DSP/Source/FilteringFunctions/arm_fir_lattice_q31.c ****       gnext3 = (q31_t) (((q63_t) fnext3 * (*pk)) >> 32U);
 216:./Libraries/CMSIS/DSP/Source/FilteringFunctions/arm_fir_lattice_q31.c ****       gnext3 = (gnext3 << 1U) + gnext2;
 217:./Libraries/CMSIS/DSP/Source/FilteringFunctions/arm_fir_lattice_q31.c **** 
 218:./Libraries/CMSIS/DSP/Source/FilteringFunctions/arm_fir_lattice_q31.c ****       gnext2 = (q31_t) (((q63_t) fnext2 * (*pk)) >> 32U);
 219:./Libraries/CMSIS/DSP/Source/FilteringFunctions/arm_fir_lattice_q31.c ****       gnext2 = (gnext2 << 1U) + gnext1;
 220:./Libraries/CMSIS/DSP/Source/FilteringFunctions/arm_fir_lattice_q31.c **** 
 221:./Libraries/CMSIS/DSP/Source/FilteringFunctions/arm_fir_lattice_q31.c ****       gnext1 = (q31_t) (((q63_t) fnext1 * (*pk)) >> 32U);
 222:./Libraries/CMSIS/DSP/Source/FilteringFunctions/arm_fir_lattice_q31.c ****       gnext1 = (gnext1 << 1U) + gnext0;
ARM GAS  /tmp/cctlMF5N.s 			page 6


 223:./Libraries/CMSIS/DSP/Source/FilteringFunctions/arm_fir_lattice_q31.c **** 
 224:./Libraries/CMSIS/DSP/Source/FilteringFunctions/arm_fir_lattice_q31.c ****       gnext0 = (q31_t) (((q63_t) fnext0 * (*pk++)) >> 32U);
 225:./Libraries/CMSIS/DSP/Source/FilteringFunctions/arm_fir_lattice_q31.c ****       gnext0 = (gnext0 << 1U) + gcurr0;
 226:./Libraries/CMSIS/DSP/Source/FilteringFunctions/arm_fir_lattice_q31.c **** 
 227:./Libraries/CMSIS/DSP/Source/FilteringFunctions/arm_fir_lattice_q31.c ****       /* Read g1(n-1), g3(n-1) .... from state */
 228:./Libraries/CMSIS/DSP/Source/FilteringFunctions/arm_fir_lattice_q31.c ****       gcurr0 = *px;
 229:./Libraries/CMSIS/DSP/Source/FilteringFunctions/arm_fir_lattice_q31.c **** 
 230:./Libraries/CMSIS/DSP/Source/FilteringFunctions/arm_fir_lattice_q31.c ****       /* save g1(n) in state buffer */
 231:./Libraries/CMSIS/DSP/Source/FilteringFunctions/arm_fir_lattice_q31.c ****       *px++ = gnext3;
 232:./Libraries/CMSIS/DSP/Source/FilteringFunctions/arm_fir_lattice_q31.c **** 
 233:./Libraries/CMSIS/DSP/Source/FilteringFunctions/arm_fir_lattice_q31.c ****       /* Sample processing for K4, K8.... */
 234:./Libraries/CMSIS/DSP/Source/FilteringFunctions/arm_fir_lattice_q31.c ****       /* Process first sample for 4th, 8th .. tap */
 235:./Libraries/CMSIS/DSP/Source/FilteringFunctions/arm_fir_lattice_q31.c ****       /* f4(n) = f3(n) +  K4 * g3(n-1) */
 236:./Libraries/CMSIS/DSP/Source/FilteringFunctions/arm_fir_lattice_q31.c ****       fnext0 = (q31_t) (((q63_t) gcurr0 * (*pk)) >> 32U);
 237:./Libraries/CMSIS/DSP/Source/FilteringFunctions/arm_fir_lattice_q31.c ****       fnext0 = (fnext0 << 1U) + fcurr0;
 238:./Libraries/CMSIS/DSP/Source/FilteringFunctions/arm_fir_lattice_q31.c **** 
 239:./Libraries/CMSIS/DSP/Source/FilteringFunctions/arm_fir_lattice_q31.c ****       /* Process second sample for 4th, 8th .. tap */
 240:./Libraries/CMSIS/DSP/Source/FilteringFunctions/arm_fir_lattice_q31.c ****       /* for sample 2 processing */
 241:./Libraries/CMSIS/DSP/Source/FilteringFunctions/arm_fir_lattice_q31.c ****       fnext1 = (q31_t) (((q63_t) gnext0 * (*pk)) >> 32U);
 242:./Libraries/CMSIS/DSP/Source/FilteringFunctions/arm_fir_lattice_q31.c ****       fnext1 = (fnext1 << 1U) + fcurr1;
 243:./Libraries/CMSIS/DSP/Source/FilteringFunctions/arm_fir_lattice_q31.c **** 
 244:./Libraries/CMSIS/DSP/Source/FilteringFunctions/arm_fir_lattice_q31.c ****       /* Process third sample for 4th, 8th .. tap */
 245:./Libraries/CMSIS/DSP/Source/FilteringFunctions/arm_fir_lattice_q31.c ****       fnext2 = (q31_t) (((q63_t) gnext1 * (*pk)) >> 32U);
 246:./Libraries/CMSIS/DSP/Source/FilteringFunctions/arm_fir_lattice_q31.c ****       fnext2 = (fnext2 << 1U) + fcurr2;
 247:./Libraries/CMSIS/DSP/Source/FilteringFunctions/arm_fir_lattice_q31.c **** 
 248:./Libraries/CMSIS/DSP/Source/FilteringFunctions/arm_fir_lattice_q31.c ****       /* Process fourth sample for 4th, 8th .. tap */
 249:./Libraries/CMSIS/DSP/Source/FilteringFunctions/arm_fir_lattice_q31.c ****       fnext3 = (q31_t) (((q63_t) gnext2 * (*pk)) >> 32U);
 250:./Libraries/CMSIS/DSP/Source/FilteringFunctions/arm_fir_lattice_q31.c ****       fnext3 = (fnext3 << 1U) + fcurr3;
 251:./Libraries/CMSIS/DSP/Source/FilteringFunctions/arm_fir_lattice_q31.c **** 
 252:./Libraries/CMSIS/DSP/Source/FilteringFunctions/arm_fir_lattice_q31.c ****       /* g4(n) = f3(n) * K4  +  g3(n-1) */
 253:./Libraries/CMSIS/DSP/Source/FilteringFunctions/arm_fir_lattice_q31.c ****       /* Calculation of state values for next stage */
 254:./Libraries/CMSIS/DSP/Source/FilteringFunctions/arm_fir_lattice_q31.c ****       gnext3 = (q31_t) (((q63_t) fcurr3 * (*pk)) >> 32U);
 255:./Libraries/CMSIS/DSP/Source/FilteringFunctions/arm_fir_lattice_q31.c ****       gnext3 = (gnext3 << 1U) + gnext2;
 256:./Libraries/CMSIS/DSP/Source/FilteringFunctions/arm_fir_lattice_q31.c **** 
 257:./Libraries/CMSIS/DSP/Source/FilteringFunctions/arm_fir_lattice_q31.c ****       gnext2 = (q31_t) (((q63_t) fcurr2 * (*pk)) >> 32U);
 258:./Libraries/CMSIS/DSP/Source/FilteringFunctions/arm_fir_lattice_q31.c ****       gnext2 = (gnext2 << 1U) + gnext1;
 259:./Libraries/CMSIS/DSP/Source/FilteringFunctions/arm_fir_lattice_q31.c **** 
 260:./Libraries/CMSIS/DSP/Source/FilteringFunctions/arm_fir_lattice_q31.c ****       gnext1 = (q31_t) (((q63_t) fcurr1 * (*pk)) >> 32U);
 261:./Libraries/CMSIS/DSP/Source/FilteringFunctions/arm_fir_lattice_q31.c ****       gnext1 = (gnext1 << 1U) + gnext0;
 262:./Libraries/CMSIS/DSP/Source/FilteringFunctions/arm_fir_lattice_q31.c **** 
 263:./Libraries/CMSIS/DSP/Source/FilteringFunctions/arm_fir_lattice_q31.c ****       gnext0 = (q31_t) (((q63_t) fcurr0 * (*pk++)) >> 32U);
 264:./Libraries/CMSIS/DSP/Source/FilteringFunctions/arm_fir_lattice_q31.c ****       gnext0 = (gnext0 << 1U) + gcurr0;
 265:./Libraries/CMSIS/DSP/Source/FilteringFunctions/arm_fir_lattice_q31.c **** 
 266:./Libraries/CMSIS/DSP/Source/FilteringFunctions/arm_fir_lattice_q31.c ****       /* Read g2(n-1), g4(n-1) .... from state */
 267:./Libraries/CMSIS/DSP/Source/FilteringFunctions/arm_fir_lattice_q31.c ****       gcurr0 = *px;
 268:./Libraries/CMSIS/DSP/Source/FilteringFunctions/arm_fir_lattice_q31.c **** 
 269:./Libraries/CMSIS/DSP/Source/FilteringFunctions/arm_fir_lattice_q31.c ****       /* save g4(n) in state buffer */
 270:./Libraries/CMSIS/DSP/Source/FilteringFunctions/arm_fir_lattice_q31.c ****       *px++ = gnext3;
 271:./Libraries/CMSIS/DSP/Source/FilteringFunctions/arm_fir_lattice_q31.c **** 
 272:./Libraries/CMSIS/DSP/Source/FilteringFunctions/arm_fir_lattice_q31.c ****       /* Sample processing for K5, K9.... */
 273:./Libraries/CMSIS/DSP/Source/FilteringFunctions/arm_fir_lattice_q31.c ****       /* Process first sample for 5th, 9th .. tap */
 274:./Libraries/CMSIS/DSP/Source/FilteringFunctions/arm_fir_lattice_q31.c ****       /* f5(n) = f4(n) +  K5 * g4(n-1) */
 275:./Libraries/CMSIS/DSP/Source/FilteringFunctions/arm_fir_lattice_q31.c ****       fcurr0 = (q31_t) (((q63_t) gcurr0 * (*pk)) >> 32U);
 276:./Libraries/CMSIS/DSP/Source/FilteringFunctions/arm_fir_lattice_q31.c ****       fcurr0 = (fcurr0 << 1U) + fnext0;
 277:./Libraries/CMSIS/DSP/Source/FilteringFunctions/arm_fir_lattice_q31.c **** 
 278:./Libraries/CMSIS/DSP/Source/FilteringFunctions/arm_fir_lattice_q31.c ****       /* Process second sample for 5th, 9th .. tap */
 279:./Libraries/CMSIS/DSP/Source/FilteringFunctions/arm_fir_lattice_q31.c ****       fcurr1 = (q31_t) (((q63_t) gnext0 * (*pk)) >> 32U);
ARM GAS  /tmp/cctlMF5N.s 			page 7


 280:./Libraries/CMSIS/DSP/Source/FilteringFunctions/arm_fir_lattice_q31.c ****       fcurr1 = (fcurr1 << 1U) + fnext1;
 281:./Libraries/CMSIS/DSP/Source/FilteringFunctions/arm_fir_lattice_q31.c **** 
 282:./Libraries/CMSIS/DSP/Source/FilteringFunctions/arm_fir_lattice_q31.c ****       /* Process third sample for 5th, 9th .. tap */
 283:./Libraries/CMSIS/DSP/Source/FilteringFunctions/arm_fir_lattice_q31.c ****       fcurr2 = (q31_t) (((q63_t) gnext1 * (*pk)) >> 32U);
 284:./Libraries/CMSIS/DSP/Source/FilteringFunctions/arm_fir_lattice_q31.c ****       fcurr2 = (fcurr2 << 1U) + fnext2;
 285:./Libraries/CMSIS/DSP/Source/FilteringFunctions/arm_fir_lattice_q31.c **** 
 286:./Libraries/CMSIS/DSP/Source/FilteringFunctions/arm_fir_lattice_q31.c ****       /* Process fourth sample for 5th, 9th .. tap */
 287:./Libraries/CMSIS/DSP/Source/FilteringFunctions/arm_fir_lattice_q31.c ****       fcurr3 = (q31_t) (((q63_t) gnext2 * (*pk)) >> 32U);
 288:./Libraries/CMSIS/DSP/Source/FilteringFunctions/arm_fir_lattice_q31.c ****       fcurr3 = (fcurr3 << 1U) + fnext3;
 289:./Libraries/CMSIS/DSP/Source/FilteringFunctions/arm_fir_lattice_q31.c **** 
 290:./Libraries/CMSIS/DSP/Source/FilteringFunctions/arm_fir_lattice_q31.c ****       /* Calculation of state values for next stage */
 291:./Libraries/CMSIS/DSP/Source/FilteringFunctions/arm_fir_lattice_q31.c ****       /* g5(n) = f4(n) * K5  +  g4(n-1) */
 292:./Libraries/CMSIS/DSP/Source/FilteringFunctions/arm_fir_lattice_q31.c ****       gnext3 = (q31_t) (((q63_t) fnext3 * (*pk)) >> 32U);
 293:./Libraries/CMSIS/DSP/Source/FilteringFunctions/arm_fir_lattice_q31.c ****       gnext3 = (gnext3 << 1U) + gnext2;
 294:./Libraries/CMSIS/DSP/Source/FilteringFunctions/arm_fir_lattice_q31.c **** 
 295:./Libraries/CMSIS/DSP/Source/FilteringFunctions/arm_fir_lattice_q31.c ****       gnext2 = (q31_t) (((q63_t) fnext2 * (*pk)) >> 32U);
 296:./Libraries/CMSIS/DSP/Source/FilteringFunctions/arm_fir_lattice_q31.c ****       gnext2 = (gnext2 << 1U) + gnext1;
 297:./Libraries/CMSIS/DSP/Source/FilteringFunctions/arm_fir_lattice_q31.c **** 
 298:./Libraries/CMSIS/DSP/Source/FilteringFunctions/arm_fir_lattice_q31.c ****       gnext1 = (q31_t) (((q63_t) fnext1 * (*pk)) >> 32U);
 299:./Libraries/CMSIS/DSP/Source/FilteringFunctions/arm_fir_lattice_q31.c ****       gnext1 = (gnext1 << 1U) + gnext0;
 300:./Libraries/CMSIS/DSP/Source/FilteringFunctions/arm_fir_lattice_q31.c **** 
 301:./Libraries/CMSIS/DSP/Source/FilteringFunctions/arm_fir_lattice_q31.c ****       gnext0 = (q31_t) (((q63_t) fnext0 * (*pk++)) >> 32U);
 302:./Libraries/CMSIS/DSP/Source/FilteringFunctions/arm_fir_lattice_q31.c ****       gnext0 = (gnext0 << 1U) + gcurr0;
 303:./Libraries/CMSIS/DSP/Source/FilteringFunctions/arm_fir_lattice_q31.c **** 
 304:./Libraries/CMSIS/DSP/Source/FilteringFunctions/arm_fir_lattice_q31.c ****       stageCnt--;
 305:./Libraries/CMSIS/DSP/Source/FilteringFunctions/arm_fir_lattice_q31.c ****     }
 306:./Libraries/CMSIS/DSP/Source/FilteringFunctions/arm_fir_lattice_q31.c **** 
 307:./Libraries/CMSIS/DSP/Source/FilteringFunctions/arm_fir_lattice_q31.c ****     /* If the (filter length -1) is not a multiple of 4, compute the remaining filter taps */
 308:./Libraries/CMSIS/DSP/Source/FilteringFunctions/arm_fir_lattice_q31.c ****     stageCnt = (numStages - 1U) % 0x4U;
 309:./Libraries/CMSIS/DSP/Source/FilteringFunctions/arm_fir_lattice_q31.c **** 
 310:./Libraries/CMSIS/DSP/Source/FilteringFunctions/arm_fir_lattice_q31.c ****     while (stageCnt > 0U)
 311:./Libraries/CMSIS/DSP/Source/FilteringFunctions/arm_fir_lattice_q31.c ****     {
 312:./Libraries/CMSIS/DSP/Source/FilteringFunctions/arm_fir_lattice_q31.c ****       gcurr0 = *px;
 313:./Libraries/CMSIS/DSP/Source/FilteringFunctions/arm_fir_lattice_q31.c **** 
 314:./Libraries/CMSIS/DSP/Source/FilteringFunctions/arm_fir_lattice_q31.c ****       /* save g value in state buffer */
 315:./Libraries/CMSIS/DSP/Source/FilteringFunctions/arm_fir_lattice_q31.c ****       *px++ = gnext3;
 316:./Libraries/CMSIS/DSP/Source/FilteringFunctions/arm_fir_lattice_q31.c **** 
 317:./Libraries/CMSIS/DSP/Source/FilteringFunctions/arm_fir_lattice_q31.c ****       /* Process four samples for last three taps here */
 318:./Libraries/CMSIS/DSP/Source/FilteringFunctions/arm_fir_lattice_q31.c ****       fnext0 = (q31_t) (((q63_t) gcurr0 * (*pk)) >> 32U);
 319:./Libraries/CMSIS/DSP/Source/FilteringFunctions/arm_fir_lattice_q31.c ****       fnext0 = (fnext0 << 1U) + fcurr0;
 320:./Libraries/CMSIS/DSP/Source/FilteringFunctions/arm_fir_lattice_q31.c **** 
 321:./Libraries/CMSIS/DSP/Source/FilteringFunctions/arm_fir_lattice_q31.c ****       fnext1 = (q31_t) (((q63_t) gnext0 * (*pk)) >> 32U);
 322:./Libraries/CMSIS/DSP/Source/FilteringFunctions/arm_fir_lattice_q31.c ****       fnext1 = (fnext1 << 1U) + fcurr1;
 323:./Libraries/CMSIS/DSP/Source/FilteringFunctions/arm_fir_lattice_q31.c **** 
 324:./Libraries/CMSIS/DSP/Source/FilteringFunctions/arm_fir_lattice_q31.c ****       fnext2 = (q31_t) (((q63_t) gnext1 * (*pk)) >> 32U);
 325:./Libraries/CMSIS/DSP/Source/FilteringFunctions/arm_fir_lattice_q31.c ****       fnext2 = (fnext2 << 1U) + fcurr2;
 326:./Libraries/CMSIS/DSP/Source/FilteringFunctions/arm_fir_lattice_q31.c **** 
 327:./Libraries/CMSIS/DSP/Source/FilteringFunctions/arm_fir_lattice_q31.c ****       fnext3 = (q31_t) (((q63_t) gnext2 * (*pk)) >> 32U);
 328:./Libraries/CMSIS/DSP/Source/FilteringFunctions/arm_fir_lattice_q31.c ****       fnext3 = (fnext3 << 1U) + fcurr3;
 329:./Libraries/CMSIS/DSP/Source/FilteringFunctions/arm_fir_lattice_q31.c **** 
 330:./Libraries/CMSIS/DSP/Source/FilteringFunctions/arm_fir_lattice_q31.c ****       /* g1(n) = f0(n) * K1  +  g0(n-1) */
 331:./Libraries/CMSIS/DSP/Source/FilteringFunctions/arm_fir_lattice_q31.c ****       gnext3 = (q31_t) (((q63_t) fcurr3 * (*pk)) >> 32U);
 332:./Libraries/CMSIS/DSP/Source/FilteringFunctions/arm_fir_lattice_q31.c ****       gnext3 = (gnext3 << 1U) + gnext2;
 333:./Libraries/CMSIS/DSP/Source/FilteringFunctions/arm_fir_lattice_q31.c **** 
 334:./Libraries/CMSIS/DSP/Source/FilteringFunctions/arm_fir_lattice_q31.c ****       gnext2 = (q31_t) (((q63_t) fcurr2 * (*pk)) >> 32U);
 335:./Libraries/CMSIS/DSP/Source/FilteringFunctions/arm_fir_lattice_q31.c ****       gnext2 = (gnext2 << 1U) + gnext1;
 336:./Libraries/CMSIS/DSP/Source/FilteringFunctions/arm_fir_lattice_q31.c **** 
ARM GAS  /tmp/cctlMF5N.s 			page 8


 337:./Libraries/CMSIS/DSP/Source/FilteringFunctions/arm_fir_lattice_q31.c ****       gnext1 = (q31_t) (((q63_t) fcurr1 * (*pk)) >> 32U);
 338:./Libraries/CMSIS/DSP/Source/FilteringFunctions/arm_fir_lattice_q31.c ****       gnext1 = (gnext1 << 1U) + gnext0;
 339:./Libraries/CMSIS/DSP/Source/FilteringFunctions/arm_fir_lattice_q31.c **** 
 340:./Libraries/CMSIS/DSP/Source/FilteringFunctions/arm_fir_lattice_q31.c ****       gnext0 = (q31_t) (((q63_t) fcurr0 * (*pk++)) >> 32U);
 341:./Libraries/CMSIS/DSP/Source/FilteringFunctions/arm_fir_lattice_q31.c ****       gnext0 = (gnext0 << 1U) + gcurr0;
 342:./Libraries/CMSIS/DSP/Source/FilteringFunctions/arm_fir_lattice_q31.c **** 
 343:./Libraries/CMSIS/DSP/Source/FilteringFunctions/arm_fir_lattice_q31.c ****       /* Update of f values for next coefficient set processing */
 344:./Libraries/CMSIS/DSP/Source/FilteringFunctions/arm_fir_lattice_q31.c ****       fcurr0 = fnext0;
 345:./Libraries/CMSIS/DSP/Source/FilteringFunctions/arm_fir_lattice_q31.c ****       fcurr1 = fnext1;
 346:./Libraries/CMSIS/DSP/Source/FilteringFunctions/arm_fir_lattice_q31.c ****       fcurr2 = fnext2;
 347:./Libraries/CMSIS/DSP/Source/FilteringFunctions/arm_fir_lattice_q31.c ****       fcurr3 = fnext3;
 348:./Libraries/CMSIS/DSP/Source/FilteringFunctions/arm_fir_lattice_q31.c **** 
 349:./Libraries/CMSIS/DSP/Source/FilteringFunctions/arm_fir_lattice_q31.c ****       stageCnt--;
 350:./Libraries/CMSIS/DSP/Source/FilteringFunctions/arm_fir_lattice_q31.c ****     }
 351:./Libraries/CMSIS/DSP/Source/FilteringFunctions/arm_fir_lattice_q31.c **** 
 352:./Libraries/CMSIS/DSP/Source/FilteringFunctions/arm_fir_lattice_q31.c ****     /* The results in the 4 accumulators, store in the destination buffer. */
 353:./Libraries/CMSIS/DSP/Source/FilteringFunctions/arm_fir_lattice_q31.c ****     /* y(n) = fN(n) */
 354:./Libraries/CMSIS/DSP/Source/FilteringFunctions/arm_fir_lattice_q31.c ****     *pDst++ = fcurr0;
 355:./Libraries/CMSIS/DSP/Source/FilteringFunctions/arm_fir_lattice_q31.c ****     *pDst++ = fcurr1;
 356:./Libraries/CMSIS/DSP/Source/FilteringFunctions/arm_fir_lattice_q31.c ****     *pDst++ = fcurr2;
 357:./Libraries/CMSIS/DSP/Source/FilteringFunctions/arm_fir_lattice_q31.c ****     *pDst++ = fcurr3;
 358:./Libraries/CMSIS/DSP/Source/FilteringFunctions/arm_fir_lattice_q31.c **** 
 359:./Libraries/CMSIS/DSP/Source/FilteringFunctions/arm_fir_lattice_q31.c ****     blkCnt--;
 360:./Libraries/CMSIS/DSP/Source/FilteringFunctions/arm_fir_lattice_q31.c ****   }
 361:./Libraries/CMSIS/DSP/Source/FilteringFunctions/arm_fir_lattice_q31.c **** 
 362:./Libraries/CMSIS/DSP/Source/FilteringFunctions/arm_fir_lattice_q31.c ****   /* Loop unrolling: Compute remaining outputs */
 363:./Libraries/CMSIS/DSP/Source/FilteringFunctions/arm_fir_lattice_q31.c ****   blkCnt = blockSize % 0x4U;
 364:./Libraries/CMSIS/DSP/Source/FilteringFunctions/arm_fir_lattice_q31.c **** 
 365:./Libraries/CMSIS/DSP/Source/FilteringFunctions/arm_fir_lattice_q31.c **** #else
 366:./Libraries/CMSIS/DSP/Source/FilteringFunctions/arm_fir_lattice_q31.c **** 
 367:./Libraries/CMSIS/DSP/Source/FilteringFunctions/arm_fir_lattice_q31.c ****   /* Initialize blkCnt with number of samples */
 368:./Libraries/CMSIS/DSP/Source/FilteringFunctions/arm_fir_lattice_q31.c ****   blkCnt = blockSize;
  65              		.loc 1 368 10
  66 0024 3B68     		ldr	r3, [r7]
  67 0026 7B63     		str	r3, [r7, #52]
 369:./Libraries/CMSIS/DSP/Source/FilteringFunctions/arm_fir_lattice_q31.c **** 
 370:./Libraries/CMSIS/DSP/Source/FilteringFunctions/arm_fir_lattice_q31.c **** #endif /* #if defined (ARM_MATH_LOOPUNROLL) */
 371:./Libraries/CMSIS/DSP/Source/FilteringFunctions/arm_fir_lattice_q31.c **** 
 372:./Libraries/CMSIS/DSP/Source/FilteringFunctions/arm_fir_lattice_q31.c ****   while (blkCnt > 0U)
  68              		.loc 1 372 9
  69 0028 AEE0     		b	.L2
  70              	.L5:
 373:./Libraries/CMSIS/DSP/Source/FilteringFunctions/arm_fir_lattice_q31.c ****   {
 374:./Libraries/CMSIS/DSP/Source/FilteringFunctions/arm_fir_lattice_q31.c ****     /* f0(n) = x(n) */
 375:./Libraries/CMSIS/DSP/Source/FilteringFunctions/arm_fir_lattice_q31.c ****     fcurr0 = *pSrc++;
  71              		.loc 1 375 19
  72 002a BB68     		ldr	r3, [r7, #8]
  73 002c 1A1D     		adds	r2, r3, #4
  74 002e BA60     		str	r2, [r7, #8]
  75              		.loc 1 375 12
  76 0030 1B68     		ldr	r3, [r3]
  77 0032 FB62     		str	r3, [r7, #44]
 376:./Libraries/CMSIS/DSP/Source/FilteringFunctions/arm_fir_lattice_q31.c **** 
 377:./Libraries/CMSIS/DSP/Source/FilteringFunctions/arm_fir_lattice_q31.c ****     /* Initialize state pointer */
 378:./Libraries/CMSIS/DSP/Source/FilteringFunctions/arm_fir_lattice_q31.c ****     px = pState;
  78              		.loc 1 378 8
  79 0034 7B6A     		ldr	r3, [r7, #36]
ARM GAS  /tmp/cctlMF5N.s 			page 9


  80 0036 FB63     		str	r3, [r7, #60]
 379:./Libraries/CMSIS/DSP/Source/FilteringFunctions/arm_fir_lattice_q31.c **** 
 380:./Libraries/CMSIS/DSP/Source/FilteringFunctions/arm_fir_lattice_q31.c ****     /* Initialize coeff pointer */
 381:./Libraries/CMSIS/DSP/Source/FilteringFunctions/arm_fir_lattice_q31.c ****     pk = pCoeffs;
  81              		.loc 1 381 8
  82 0038 3B6A     		ldr	r3, [r7, #32]
  83 003a BB63     		str	r3, [r7, #56]
 382:./Libraries/CMSIS/DSP/Source/FilteringFunctions/arm_fir_lattice_q31.c **** 
 383:./Libraries/CMSIS/DSP/Source/FilteringFunctions/arm_fir_lattice_q31.c ****     /* read g2(n) from state buffer */
 384:./Libraries/CMSIS/DSP/Source/FilteringFunctions/arm_fir_lattice_q31.c ****     gcurr0 = *px;
  84              		.loc 1 384 12
  85 003c FB6B     		ldr	r3, [r7, #60]
  86 003e 1B68     		ldr	r3, [r3]
  87 0040 BB61     		str	r3, [r7, #24]
 385:./Libraries/CMSIS/DSP/Source/FilteringFunctions/arm_fir_lattice_q31.c **** 
 386:./Libraries/CMSIS/DSP/Source/FilteringFunctions/arm_fir_lattice_q31.c ****     /* for sample 1 processing */
 387:./Libraries/CMSIS/DSP/Source/FilteringFunctions/arm_fir_lattice_q31.c ****     /* f1(n) = f0(n) +  K1 * g0(n-1) */
 388:./Libraries/CMSIS/DSP/Source/FilteringFunctions/arm_fir_lattice_q31.c ****     fnext0 = (q31_t) (((q63_t) gcurr0 * (*pk)) >> 32U);
  88              		.loc 1 388 24
  89 0042 BB69     		ldr	r3, [r7, #24]
  90 0044 1846     		mov	r0, r3
  91 0046 4FEAE071 		asr	r1, r0, #31
  92              		.loc 1 388 42
  93 004a BB6B     		ldr	r3, [r7, #56]
  94 004c 1B68     		ldr	r3, [r3]
  95 004e 1A46     		mov	r2, r3
  96 0050 4FEAE273 		asr	r3, r2, #31
  97              		.loc 1 388 39
  98 0054 02FB01F5 		mul	r5, r2, r1
  99 0058 00FB03F4 		mul	r4, r0, r3
 100 005c 2C44     		add	r4, r4, r5
 101 005e A0FB0223 		umull	r2, r3, r0, r2
 102 0062 E118     		adds	r1, r4, r3
 103 0064 0B46     		mov	r3, r1
 104              		.loc 1 388 48
 105 0066 4FF00000 		mov	r0, #0
 106 006a 4FF00001 		mov	r1, #0
 107 006e 1800     		movs	r0, r3
 108 0070 D917     		asrs	r1, r3, #31
 109              		.loc 1 388 12
 110 0072 0346     		mov	r3, r0
 111 0074 7B61     		str	r3, [r7, #20]
 389:./Libraries/CMSIS/DSP/Source/FilteringFunctions/arm_fir_lattice_q31.c ****     fnext0 = (fnext0 << 1U) + fcurr0;
 112              		.loc 1 389 22
 113 0076 7B69     		ldr	r3, [r7, #20]
 114 0078 5B00     		lsls	r3, r3, #1
 115              		.loc 1 389 12
 116 007a FA6A     		ldr	r2, [r7, #44]
 117 007c 1344     		add	r3, r3, r2
 118 007e 7B61     		str	r3, [r7, #20]
 390:./Libraries/CMSIS/DSP/Source/FilteringFunctions/arm_fir_lattice_q31.c **** 
 391:./Libraries/CMSIS/DSP/Source/FilteringFunctions/arm_fir_lattice_q31.c ****     /* g1(n) = f0(n) * K1  +  g0(n-1) */
 392:./Libraries/CMSIS/DSP/Source/FilteringFunctions/arm_fir_lattice_q31.c ****     gnext0 = (q31_t) (((q63_t) fcurr0 * (*pk++)) >> 32U);
 119              		.loc 1 392 24
 120 0080 FB6A     		ldr	r3, [r7, #44]
 121 0082 1846     		mov	r0, r3
 122 0084 4FEAE071 		asr	r1, r0, #31
ARM GAS  /tmp/cctlMF5N.s 			page 10


 123              		.loc 1 392 45
 124 0088 BB6B     		ldr	r3, [r7, #56]
 125 008a 1A1D     		adds	r2, r3, #4
 126 008c BA63     		str	r2, [r7, #56]
 127              		.loc 1 392 42
 128 008e 1B68     		ldr	r3, [r3]
 129 0090 1A46     		mov	r2, r3
 130 0092 4FEAE273 		asr	r3, r2, #31
 131              		.loc 1 392 39
 132 0096 02FB01F5 		mul	r5, r2, r1
 133 009a 00FB03F4 		mul	r4, r0, r3
 134 009e 2C44     		add	r4, r4, r5
 135 00a0 A0FB0223 		umull	r2, r3, r0, r2
 136 00a4 E118     		adds	r1, r4, r3
 137 00a6 0B46     		mov	r3, r1
 138              		.loc 1 392 50
 139 00a8 4FF00000 		mov	r0, #0
 140 00ac 4FF00001 		mov	r1, #0
 141 00b0 1800     		movs	r0, r3
 142 00b2 D917     		asrs	r1, r3, #31
 143              		.loc 1 392 12
 144 00b4 0346     		mov	r3, r0
 145 00b6 BB62     		str	r3, [r7, #40]
 393:./Libraries/CMSIS/DSP/Source/FilteringFunctions/arm_fir_lattice_q31.c ****     gnext0 = (gnext0 << 1U) + gcurr0;
 146              		.loc 1 393 22
 147 00b8 BB6A     		ldr	r3, [r7, #40]
 148 00ba 5B00     		lsls	r3, r3, #1
 149              		.loc 1 393 12
 150 00bc BA69     		ldr	r2, [r7, #24]
 151 00be 1344     		add	r3, r3, r2
 152 00c0 BB62     		str	r3, [r7, #40]
 394:./Libraries/CMSIS/DSP/Source/FilteringFunctions/arm_fir_lattice_q31.c **** 
 395:./Libraries/CMSIS/DSP/Source/FilteringFunctions/arm_fir_lattice_q31.c ****     /* save g1(n) in state buffer */
 396:./Libraries/CMSIS/DSP/Source/FilteringFunctions/arm_fir_lattice_q31.c ****     *px++ = fcurr0;
 153              		.loc 1 396 8
 154 00c2 FB6B     		ldr	r3, [r7, #60]
 155 00c4 1A1D     		adds	r2, r3, #4
 156 00c6 FA63     		str	r2, [r7, #60]
 157              		.loc 1 396 11
 158 00c8 FA6A     		ldr	r2, [r7, #44]
 159 00ca 1A60     		str	r2, [r3]
 397:./Libraries/CMSIS/DSP/Source/FilteringFunctions/arm_fir_lattice_q31.c **** 
 398:./Libraries/CMSIS/DSP/Source/FilteringFunctions/arm_fir_lattice_q31.c ****     /* f1(n) is saved in fcurr0 for next stage processing */
 399:./Libraries/CMSIS/DSP/Source/FilteringFunctions/arm_fir_lattice_q31.c ****     fcurr0 = fnext0;
 160              		.loc 1 399 12
 161 00cc 7B69     		ldr	r3, [r7, #20]
 162 00ce FB62     		str	r3, [r7, #44]
 400:./Libraries/CMSIS/DSP/Source/FilteringFunctions/arm_fir_lattice_q31.c **** 
 401:./Libraries/CMSIS/DSP/Source/FilteringFunctions/arm_fir_lattice_q31.c ****     stageCnt = (numStages - 1U);
 163              		.loc 1 401 14
 164 00d0 FB69     		ldr	r3, [r7, #28]
 165 00d2 013B     		subs	r3, r3, #1
 166 00d4 3B63     		str	r3, [r7, #48]
 402:./Libraries/CMSIS/DSP/Source/FilteringFunctions/arm_fir_lattice_q31.c **** 
 403:./Libraries/CMSIS/DSP/Source/FilteringFunctions/arm_fir_lattice_q31.c ****     /* stage loop */
 404:./Libraries/CMSIS/DSP/Source/FilteringFunctions/arm_fir_lattice_q31.c ****     while (stageCnt > 0U)
 167              		.loc 1 404 11
ARM GAS  /tmp/cctlMF5N.s 			page 11


 168 00d6 4CE0     		b	.L3
 169              	.L4:
 405:./Libraries/CMSIS/DSP/Source/FilteringFunctions/arm_fir_lattice_q31.c ****     {
 406:./Libraries/CMSIS/DSP/Source/FilteringFunctions/arm_fir_lattice_q31.c ****       /* read g2(n) from state buffer */
 407:./Libraries/CMSIS/DSP/Source/FilteringFunctions/arm_fir_lattice_q31.c ****       gcurr0 = *px;
 170              		.loc 1 407 14
 171 00d8 FB6B     		ldr	r3, [r7, #60]
 172 00da 1B68     		ldr	r3, [r3]
 173 00dc BB61     		str	r3, [r7, #24]
 408:./Libraries/CMSIS/DSP/Source/FilteringFunctions/arm_fir_lattice_q31.c **** 
 409:./Libraries/CMSIS/DSP/Source/FilteringFunctions/arm_fir_lattice_q31.c ****       /* save g1(n) in state buffer */
 410:./Libraries/CMSIS/DSP/Source/FilteringFunctions/arm_fir_lattice_q31.c ****       *px++ = gnext0;
 174              		.loc 1 410 10
 175 00de FB6B     		ldr	r3, [r7, #60]
 176 00e0 1A1D     		adds	r2, r3, #4
 177 00e2 FA63     		str	r2, [r7, #60]
 178              		.loc 1 410 13
 179 00e4 BA6A     		ldr	r2, [r7, #40]
 180 00e6 1A60     		str	r2, [r3]
 411:./Libraries/CMSIS/DSP/Source/FilteringFunctions/arm_fir_lattice_q31.c **** 
 412:./Libraries/CMSIS/DSP/Source/FilteringFunctions/arm_fir_lattice_q31.c ****       /* Sample processing for K2, K3.... */
 413:./Libraries/CMSIS/DSP/Source/FilteringFunctions/arm_fir_lattice_q31.c ****       /* f2(n) = f1(n) +  K2 * g1(n-1) */
 414:./Libraries/CMSIS/DSP/Source/FilteringFunctions/arm_fir_lattice_q31.c ****       fnext0 = (q31_t) (((q63_t) gcurr0 * (*pk)) >> 32U);
 181              		.loc 1 414 26
 182 00e8 BB69     		ldr	r3, [r7, #24]
 183 00ea 1846     		mov	r0, r3
 184 00ec 4FEAE071 		asr	r1, r0, #31
 185              		.loc 1 414 44
 186 00f0 BB6B     		ldr	r3, [r7, #56]
 187 00f2 1B68     		ldr	r3, [r3]
 188 00f4 1A46     		mov	r2, r3
 189 00f6 4FEAE273 		asr	r3, r2, #31
 190              		.loc 1 414 41
 191 00fa 02FB01F5 		mul	r5, r2, r1
 192 00fe 00FB03F4 		mul	r4, r0, r3
 193 0102 2C44     		add	r4, r4, r5
 194 0104 A0FB0223 		umull	r2, r3, r0, r2
 195 0108 E118     		adds	r1, r4, r3
 196 010a 0B46     		mov	r3, r1
 197              		.loc 1 414 50
 198 010c 4FF00000 		mov	r0, #0
 199 0110 4FF00001 		mov	r1, #0
 200 0114 1800     		movs	r0, r3
 201 0116 D917     		asrs	r1, r3, #31
 202              		.loc 1 414 14
 203 0118 0346     		mov	r3, r0
 204 011a 7B61     		str	r3, [r7, #20]
 415:./Libraries/CMSIS/DSP/Source/FilteringFunctions/arm_fir_lattice_q31.c ****       fnext0 = (fnext0 << 1U) + fcurr0;
 205              		.loc 1 415 24
 206 011c 7B69     		ldr	r3, [r7, #20]
 207 011e 5B00     		lsls	r3, r3, #1
 208              		.loc 1 415 14
 209 0120 FA6A     		ldr	r2, [r7, #44]
 210 0122 1344     		add	r3, r3, r2
 211 0124 7B61     		str	r3, [r7, #20]
 416:./Libraries/CMSIS/DSP/Source/FilteringFunctions/arm_fir_lattice_q31.c **** 
 417:./Libraries/CMSIS/DSP/Source/FilteringFunctions/arm_fir_lattice_q31.c ****       /* g2(n) = f1(n) * K2  +  g1(n-1) */
ARM GAS  /tmp/cctlMF5N.s 			page 12


 418:./Libraries/CMSIS/DSP/Source/FilteringFunctions/arm_fir_lattice_q31.c ****       gnext0 = (q31_t) (((q63_t) fcurr0 * (*pk++)) >> 32U);
 212              		.loc 1 418 26
 213 0126 FB6A     		ldr	r3, [r7, #44]
 214 0128 1846     		mov	r0, r3
 215 012a 4FEAE071 		asr	r1, r0, #31
 216              		.loc 1 418 47
 217 012e BB6B     		ldr	r3, [r7, #56]
 218 0130 1A1D     		adds	r2, r3, #4
 219 0132 BA63     		str	r2, [r7, #56]
 220              		.loc 1 418 44
 221 0134 1B68     		ldr	r3, [r3]
 222 0136 1A46     		mov	r2, r3
 223 0138 4FEAE273 		asr	r3, r2, #31
 224              		.loc 1 418 41
 225 013c 02FB01F5 		mul	r5, r2, r1
 226 0140 00FB03F4 		mul	r4, r0, r3
 227 0144 2C44     		add	r4, r4, r5
 228 0146 A0FB0223 		umull	r2, r3, r0, r2
 229 014a E118     		adds	r1, r4, r3
 230 014c 0B46     		mov	r3, r1
 231              		.loc 1 418 52
 232 014e 4FF00000 		mov	r0, #0
 233 0152 4FF00001 		mov	r1, #0
 234 0156 1800     		movs	r0, r3
 235 0158 D917     		asrs	r1, r3, #31
 236              		.loc 1 418 14
 237 015a 0346     		mov	r3, r0
 238 015c BB62     		str	r3, [r7, #40]
 419:./Libraries/CMSIS/DSP/Source/FilteringFunctions/arm_fir_lattice_q31.c ****       gnext0 = (gnext0 << 1U) + gcurr0;
 239              		.loc 1 419 24
 240 015e BB6A     		ldr	r3, [r7, #40]
 241 0160 5B00     		lsls	r3, r3, #1
 242              		.loc 1 419 14
 243 0162 BA69     		ldr	r2, [r7, #24]
 244 0164 1344     		add	r3, r3, r2
 245 0166 BB62     		str	r3, [r7, #40]
 420:./Libraries/CMSIS/DSP/Source/FilteringFunctions/arm_fir_lattice_q31.c **** 
 421:./Libraries/CMSIS/DSP/Source/FilteringFunctions/arm_fir_lattice_q31.c ****       /* f1(n) is saved in fcurr0 for next stage processing */
 422:./Libraries/CMSIS/DSP/Source/FilteringFunctions/arm_fir_lattice_q31.c ****       fcurr0 = fnext0;
 246              		.loc 1 422 14
 247 0168 7B69     		ldr	r3, [r7, #20]
 248 016a FB62     		str	r3, [r7, #44]
 423:./Libraries/CMSIS/DSP/Source/FilteringFunctions/arm_fir_lattice_q31.c **** 
 424:./Libraries/CMSIS/DSP/Source/FilteringFunctions/arm_fir_lattice_q31.c ****       stageCnt--;
 249              		.loc 1 424 15
 250 016c 3B6B     		ldr	r3, [r7, #48]
 251 016e 013B     		subs	r3, r3, #1
 252 0170 3B63     		str	r3, [r7, #48]
 253              	.L3:
 404:./Libraries/CMSIS/DSP/Source/FilteringFunctions/arm_fir_lattice_q31.c ****     {
 254              		.loc 1 404 11
 255 0172 3B6B     		ldr	r3, [r7, #48]
 256 0174 002B     		cmp	r3, #0
 257 0176 AFD1     		bne	.L4
 425:./Libraries/CMSIS/DSP/Source/FilteringFunctions/arm_fir_lattice_q31.c ****     }
 426:./Libraries/CMSIS/DSP/Source/FilteringFunctions/arm_fir_lattice_q31.c **** 
 427:./Libraries/CMSIS/DSP/Source/FilteringFunctions/arm_fir_lattice_q31.c ****     /* y(n) = fN(n) */
ARM GAS  /tmp/cctlMF5N.s 			page 13


 428:./Libraries/CMSIS/DSP/Source/FilteringFunctions/arm_fir_lattice_q31.c ****     *pDst++ = fcurr0;
 258              		.loc 1 428 10
 259 0178 7B68     		ldr	r3, [r7, #4]
 260 017a 1A1D     		adds	r2, r3, #4
 261 017c 7A60     		str	r2, [r7, #4]
 262              		.loc 1 428 13
 263 017e FA6A     		ldr	r2, [r7, #44]
 264 0180 1A60     		str	r2, [r3]
 429:./Libraries/CMSIS/DSP/Source/FilteringFunctions/arm_fir_lattice_q31.c **** 
 430:./Libraries/CMSIS/DSP/Source/FilteringFunctions/arm_fir_lattice_q31.c ****     blkCnt--;
 265              		.loc 1 430 11
 266 0182 7B6B     		ldr	r3, [r7, #52]
 267 0184 013B     		subs	r3, r3, #1
 268 0186 7B63     		str	r3, [r7, #52]
 269              	.L2:
 372:./Libraries/CMSIS/DSP/Source/FilteringFunctions/arm_fir_lattice_q31.c ****   {
 270              		.loc 1 372 9
 271 0188 7B6B     		ldr	r3, [r7, #52]
 272 018a 002B     		cmp	r3, #0
 273 018c 7FF44DAF 		bne	.L5
 431:./Libraries/CMSIS/DSP/Source/FilteringFunctions/arm_fir_lattice_q31.c ****   }
 432:./Libraries/CMSIS/DSP/Source/FilteringFunctions/arm_fir_lattice_q31.c **** 
 433:./Libraries/CMSIS/DSP/Source/FilteringFunctions/arm_fir_lattice_q31.c **** #else
 434:./Libraries/CMSIS/DSP/Source/FilteringFunctions/arm_fir_lattice_q31.c **** /* alternate version for CM0_FAMILY */
 435:./Libraries/CMSIS/DSP/Source/FilteringFunctions/arm_fir_lattice_q31.c **** 
 436:./Libraries/CMSIS/DSP/Source/FilteringFunctions/arm_fir_lattice_q31.c ****   blkCnt = blockSize;
 437:./Libraries/CMSIS/DSP/Source/FilteringFunctions/arm_fir_lattice_q31.c **** 
 438:./Libraries/CMSIS/DSP/Source/FilteringFunctions/arm_fir_lattice_q31.c ****   while (blkCnt > 0U)
 439:./Libraries/CMSIS/DSP/Source/FilteringFunctions/arm_fir_lattice_q31.c ****   {
 440:./Libraries/CMSIS/DSP/Source/FilteringFunctions/arm_fir_lattice_q31.c ****     /* f0(n) = x(n) */
 441:./Libraries/CMSIS/DSP/Source/FilteringFunctions/arm_fir_lattice_q31.c ****     fcurr0 = *pSrc++;
 442:./Libraries/CMSIS/DSP/Source/FilteringFunctions/arm_fir_lattice_q31.c **** 
 443:./Libraries/CMSIS/DSP/Source/FilteringFunctions/arm_fir_lattice_q31.c ****     /* Initialize state pointer */
 444:./Libraries/CMSIS/DSP/Source/FilteringFunctions/arm_fir_lattice_q31.c ****     px = pState;
 445:./Libraries/CMSIS/DSP/Source/FilteringFunctions/arm_fir_lattice_q31.c **** 
 446:./Libraries/CMSIS/DSP/Source/FilteringFunctions/arm_fir_lattice_q31.c ****     /* Initialize coeff pointer */
 447:./Libraries/CMSIS/DSP/Source/FilteringFunctions/arm_fir_lattice_q31.c ****     pk = pCoeffs;
 448:./Libraries/CMSIS/DSP/Source/FilteringFunctions/arm_fir_lattice_q31.c **** 
 449:./Libraries/CMSIS/DSP/Source/FilteringFunctions/arm_fir_lattice_q31.c ****     /* read g0(n-1) from state buffer */
 450:./Libraries/CMSIS/DSP/Source/FilteringFunctions/arm_fir_lattice_q31.c ****     gcurr0 = *px;
 451:./Libraries/CMSIS/DSP/Source/FilteringFunctions/arm_fir_lattice_q31.c **** 
 452:./Libraries/CMSIS/DSP/Source/FilteringFunctions/arm_fir_lattice_q31.c ****     /* for sample 1 processing */
 453:./Libraries/CMSIS/DSP/Source/FilteringFunctions/arm_fir_lattice_q31.c ****     /* f1(n) = f0(n) +  K1 * g0(n-1) */
 454:./Libraries/CMSIS/DSP/Source/FilteringFunctions/arm_fir_lattice_q31.c ****     fnext0 = (q31_t) (((q63_t) gcurr0 * (*pk)) >> 32U);
 455:./Libraries/CMSIS/DSP/Source/FilteringFunctions/arm_fir_lattice_q31.c ****     fnext0 = (fnext << 1U) + fcurr0;
 456:./Libraries/CMSIS/DSP/Source/FilteringFunctions/arm_fir_lattice_q31.c **** 
 457:./Libraries/CMSIS/DSP/Source/FilteringFunctions/arm_fir_lattice_q31.c ****     /* g1(n) = f0(n) * K1  +  g0(n-1) */
 458:./Libraries/CMSIS/DSP/Source/FilteringFunctions/arm_fir_lattice_q31.c ****     gnext0 = (q31_t) (((q63_t) fcurr0 * (*pk++)) >> 32U);
 459:./Libraries/CMSIS/DSP/Source/FilteringFunctions/arm_fir_lattice_q31.c ****     gnext0 = (gnext0 << 1U) + gcurr0;
 460:./Libraries/CMSIS/DSP/Source/FilteringFunctions/arm_fir_lattice_q31.c **** 
 461:./Libraries/CMSIS/DSP/Source/FilteringFunctions/arm_fir_lattice_q31.c ****     /* save f0(n) in state buffer */
 462:./Libraries/CMSIS/DSP/Source/FilteringFunctions/arm_fir_lattice_q31.c ****     *px++ = fcurr0;
 463:./Libraries/CMSIS/DSP/Source/FilteringFunctions/arm_fir_lattice_q31.c **** 
 464:./Libraries/CMSIS/DSP/Source/FilteringFunctions/arm_fir_lattice_q31.c ****     /* f1(n) is saved in fcurr for next stage processing */
 465:./Libraries/CMSIS/DSP/Source/FilteringFunctions/arm_fir_lattice_q31.c ****     fcurr0 = fnext0;
 466:./Libraries/CMSIS/DSP/Source/FilteringFunctions/arm_fir_lattice_q31.c **** 
 467:./Libraries/CMSIS/DSP/Source/FilteringFunctions/arm_fir_lattice_q31.c ****     stageCnt = (numStages - 1U);
ARM GAS  /tmp/cctlMF5N.s 			page 14


 468:./Libraries/CMSIS/DSP/Source/FilteringFunctions/arm_fir_lattice_q31.c **** 
 469:./Libraries/CMSIS/DSP/Source/FilteringFunctions/arm_fir_lattice_q31.c ****     /* stage loop */
 470:./Libraries/CMSIS/DSP/Source/FilteringFunctions/arm_fir_lattice_q31.c ****     while (stageCnt > 0U)
 471:./Libraries/CMSIS/DSP/Source/FilteringFunctions/arm_fir_lattice_q31.c ****     {
 472:./Libraries/CMSIS/DSP/Source/FilteringFunctions/arm_fir_lattice_q31.c ****       /* read g1(n-1) from state buffer */
 473:./Libraries/CMSIS/DSP/Source/FilteringFunctions/arm_fir_lattice_q31.c ****       gcurr0 = *px;
 474:./Libraries/CMSIS/DSP/Source/FilteringFunctions/arm_fir_lattice_q31.c **** 
 475:./Libraries/CMSIS/DSP/Source/FilteringFunctions/arm_fir_lattice_q31.c ****       /* save g0(n-1) in state buffer */
 476:./Libraries/CMSIS/DSP/Source/FilteringFunctions/arm_fir_lattice_q31.c ****       *px++ = gnext0;
 477:./Libraries/CMSIS/DSP/Source/FilteringFunctions/arm_fir_lattice_q31.c **** 
 478:./Libraries/CMSIS/DSP/Source/FilteringFunctions/arm_fir_lattice_q31.c ****       /* Sample processing for K2, K3.... */
 479:./Libraries/CMSIS/DSP/Source/FilteringFunctions/arm_fir_lattice_q31.c ****       /* f2(n) = f1(n) +  K2 * g1(n-1) */
 480:./Libraries/CMSIS/DSP/Source/FilteringFunctions/arm_fir_lattice_q31.c ****       fnext0 = (q31_t) (((q63_t) gcurr0 * (*pk)) >> 32U);
 481:./Libraries/CMSIS/DSP/Source/FilteringFunctions/arm_fir_lattice_q31.c ****       fnext0 = (fnext0 << 1U) + fcurr0;
 482:./Libraries/CMSIS/DSP/Source/FilteringFunctions/arm_fir_lattice_q31.c **** 
 483:./Libraries/CMSIS/DSP/Source/FilteringFunctions/arm_fir_lattice_q31.c ****       /* g2(n) = f1(n) * K2  +  g1(n-1) */
 484:./Libraries/CMSIS/DSP/Source/FilteringFunctions/arm_fir_lattice_q31.c ****       gnext0 = (q31_t) (((q63_t) fcurr0 * (*pk++)) >> 32U);
 485:./Libraries/CMSIS/DSP/Source/FilteringFunctions/arm_fir_lattice_q31.c ****       gnext0 = (gnext0 << 1U) + gcurr0;
 486:./Libraries/CMSIS/DSP/Source/FilteringFunctions/arm_fir_lattice_q31.c **** 
 487:./Libraries/CMSIS/DSP/Source/FilteringFunctions/arm_fir_lattice_q31.c ****       /* f1(n) is saved in fcurr0 for next stage processing */
 488:./Libraries/CMSIS/DSP/Source/FilteringFunctions/arm_fir_lattice_q31.c ****       fcurr0 = fnext0;
 489:./Libraries/CMSIS/DSP/Source/FilteringFunctions/arm_fir_lattice_q31.c **** 
 490:./Libraries/CMSIS/DSP/Source/FilteringFunctions/arm_fir_lattice_q31.c ****       stageCnt--;
 491:./Libraries/CMSIS/DSP/Source/FilteringFunctions/arm_fir_lattice_q31.c ****     }
 492:./Libraries/CMSIS/DSP/Source/FilteringFunctions/arm_fir_lattice_q31.c **** 
 493:./Libraries/CMSIS/DSP/Source/FilteringFunctions/arm_fir_lattice_q31.c ****     /* y(n) = fN(n) */
 494:./Libraries/CMSIS/DSP/Source/FilteringFunctions/arm_fir_lattice_q31.c ****     *pDst++ = fcurr0;
 495:./Libraries/CMSIS/DSP/Source/FilteringFunctions/arm_fir_lattice_q31.c **** 
 496:./Libraries/CMSIS/DSP/Source/FilteringFunctions/arm_fir_lattice_q31.c ****     blkCnt--;
 497:./Libraries/CMSIS/DSP/Source/FilteringFunctions/arm_fir_lattice_q31.c ****   }
 498:./Libraries/CMSIS/DSP/Source/FilteringFunctions/arm_fir_lattice_q31.c **** 
 499:./Libraries/CMSIS/DSP/Source/FilteringFunctions/arm_fir_lattice_q31.c **** #endif /* #if !defined(ARM_MATH_CM0_FAMILY) */
 500:./Libraries/CMSIS/DSP/Source/FilteringFunctions/arm_fir_lattice_q31.c **** 
 501:./Libraries/CMSIS/DSP/Source/FilteringFunctions/arm_fir_lattice_q31.c **** }
 274              		.loc 1 501 1
 275 0190 00BF     		nop
 276 0192 00BF     		nop
 277 0194 4437     		adds	r7, r7, #68
 278              	.LCFI3:
 279              		.cfi_def_cfa_offset 12
 280 0196 BD46     		mov	sp, r7
 281              	.LCFI4:
 282              		.cfi_def_cfa_register 13
 283              		@ sp needed
 284 0198 B0BC     		pop	{r4, r5, r7}
 285              	.LCFI5:
 286              		.cfi_restore 7
 287              		.cfi_restore 5
 288              		.cfi_restore 4
 289              		.cfi_def_cfa_offset 0
 290 019a 7047     		bx	lr
 291              		.cfi_endproc
 292              	.LFE145:
 294              		.text
 295              	.Letext0:
 296              		.file 2 "/usr/lib/gcc/arm-none-eabi/9.2.1/include/stdint.h"
 297              		.file 3 "/usr/lib/gcc/arm-none-eabi/9.2.1/include/stddef.h"
ARM GAS  /tmp/cctlMF5N.s 			page 15


 298              		.file 4 "/usr/include/newlib/sys/_types.h"
 299              		.file 5 "/usr/include/newlib/sys/reent.h"
 300              		.file 6 "/usr/include/newlib/sys/lock.h"
 301              		.file 7 "/usr/include/newlib/math.h"
 302              		.file 8 "./Libraries/CMSIS/DSP/Include/arm_math.h"
ARM GAS  /tmp/cctlMF5N.s 			page 16

