ARM GAS  /tmp/ccoueSN0.s 			page 1


   1              		.cpu cortex-m7
   2              		.eabi_attribute 28, 1
   3              		.eabi_attribute 20, 1
   4              		.eabi_attribute 21, 1
   5              		.eabi_attribute 23, 3
   6              		.eabi_attribute 24, 1
   7              		.eabi_attribute 25, 1
   8              		.eabi_attribute 26, 1
   9              		.eabi_attribute 30, 6
  10              		.eabi_attribute 34, 1
  11              		.eabi_attribute 18, 4
  12              		.file	"arm_cmplx_dot_prod_q15.c"
  13              		.text
  14              	.Ltext0:
  15              		.cfi_sections	.debug_frame
  16              		.section	.text.arm_cmplx_dot_prod_q15,"ax",%progbits
  17              		.align	1
  18              		.global	arm_cmplx_dot_prod_q15
  19              		.arch armv7e-m
  20              		.syntax unified
  21              		.thumb
  22              		.thumb_func
  23              		.fpu fpv5-d16
  25              	arm_cmplx_dot_prod_q15:
  26              	.LFB145:
  27              		.file 1 "./Libraries/CMSIS/DSP/Source/ComplexMathFunctions/arm_cmplx_dot_prod_q15.c"
   1:./Libraries/CMSIS/DSP/Source/ComplexMathFunctions/arm_cmplx_dot_prod_q15.c **** /* ----------------------------------------------------------------------
   2:./Libraries/CMSIS/DSP/Source/ComplexMathFunctions/arm_cmplx_dot_prod_q15.c ****  * Project:      CMSIS DSP Library
   3:./Libraries/CMSIS/DSP/Source/ComplexMathFunctions/arm_cmplx_dot_prod_q15.c ****  * Title:        arm_cmplx_dot_prod_q15.c
   4:./Libraries/CMSIS/DSP/Source/ComplexMathFunctions/arm_cmplx_dot_prod_q15.c ****  * Description:  Processing function for the Q15 Complex Dot product
   5:./Libraries/CMSIS/DSP/Source/ComplexMathFunctions/arm_cmplx_dot_prod_q15.c ****  *
   6:./Libraries/CMSIS/DSP/Source/ComplexMathFunctions/arm_cmplx_dot_prod_q15.c ****  * $Date:        18. March 2019
   7:./Libraries/CMSIS/DSP/Source/ComplexMathFunctions/arm_cmplx_dot_prod_q15.c ****  * $Revision:    V1.6.0
   8:./Libraries/CMSIS/DSP/Source/ComplexMathFunctions/arm_cmplx_dot_prod_q15.c ****  *
   9:./Libraries/CMSIS/DSP/Source/ComplexMathFunctions/arm_cmplx_dot_prod_q15.c ****  * Target Processor: Cortex-M cores
  10:./Libraries/CMSIS/DSP/Source/ComplexMathFunctions/arm_cmplx_dot_prod_q15.c ****  * -------------------------------------------------------------------- */
  11:./Libraries/CMSIS/DSP/Source/ComplexMathFunctions/arm_cmplx_dot_prod_q15.c **** /*
  12:./Libraries/CMSIS/DSP/Source/ComplexMathFunctions/arm_cmplx_dot_prod_q15.c ****  * Copyright (C) 2010-2019 ARM Limited or its affiliates. All rights reserved.
  13:./Libraries/CMSIS/DSP/Source/ComplexMathFunctions/arm_cmplx_dot_prod_q15.c ****  *
  14:./Libraries/CMSIS/DSP/Source/ComplexMathFunctions/arm_cmplx_dot_prod_q15.c ****  * SPDX-License-Identifier: Apache-2.0
  15:./Libraries/CMSIS/DSP/Source/ComplexMathFunctions/arm_cmplx_dot_prod_q15.c ****  *
  16:./Libraries/CMSIS/DSP/Source/ComplexMathFunctions/arm_cmplx_dot_prod_q15.c ****  * Licensed under the Apache License, Version 2.0 (the License); you may
  17:./Libraries/CMSIS/DSP/Source/ComplexMathFunctions/arm_cmplx_dot_prod_q15.c ****  * not use this file except in compliance with the License.
  18:./Libraries/CMSIS/DSP/Source/ComplexMathFunctions/arm_cmplx_dot_prod_q15.c ****  * You may obtain a copy of the License at
  19:./Libraries/CMSIS/DSP/Source/ComplexMathFunctions/arm_cmplx_dot_prod_q15.c ****  *
  20:./Libraries/CMSIS/DSP/Source/ComplexMathFunctions/arm_cmplx_dot_prod_q15.c ****  * www.apache.org/licenses/LICENSE-2.0
  21:./Libraries/CMSIS/DSP/Source/ComplexMathFunctions/arm_cmplx_dot_prod_q15.c ****  *
  22:./Libraries/CMSIS/DSP/Source/ComplexMathFunctions/arm_cmplx_dot_prod_q15.c ****  * Unless required by applicable law or agreed to in writing, software
  23:./Libraries/CMSIS/DSP/Source/ComplexMathFunctions/arm_cmplx_dot_prod_q15.c ****  * distributed under the License is distributed on an AS IS BASIS, WITHOUT
  24:./Libraries/CMSIS/DSP/Source/ComplexMathFunctions/arm_cmplx_dot_prod_q15.c ****  * WARRANTIES OR CONDITIONS OF ANY KIND, either express or implied.
  25:./Libraries/CMSIS/DSP/Source/ComplexMathFunctions/arm_cmplx_dot_prod_q15.c ****  * See the License for the specific language governing permissions and
  26:./Libraries/CMSIS/DSP/Source/ComplexMathFunctions/arm_cmplx_dot_prod_q15.c ****  * limitations under the License.
  27:./Libraries/CMSIS/DSP/Source/ComplexMathFunctions/arm_cmplx_dot_prod_q15.c ****  */
  28:./Libraries/CMSIS/DSP/Source/ComplexMathFunctions/arm_cmplx_dot_prod_q15.c **** 
  29:./Libraries/CMSIS/DSP/Source/ComplexMathFunctions/arm_cmplx_dot_prod_q15.c **** #include "arm_math.h"
  30:./Libraries/CMSIS/DSP/Source/ComplexMathFunctions/arm_cmplx_dot_prod_q15.c **** 
  31:./Libraries/CMSIS/DSP/Source/ComplexMathFunctions/arm_cmplx_dot_prod_q15.c **** /**
ARM GAS  /tmp/ccoueSN0.s 			page 2


  32:./Libraries/CMSIS/DSP/Source/ComplexMathFunctions/arm_cmplx_dot_prod_q15.c ****   @ingroup groupCmplxMath
  33:./Libraries/CMSIS/DSP/Source/ComplexMathFunctions/arm_cmplx_dot_prod_q15.c ****  */
  34:./Libraries/CMSIS/DSP/Source/ComplexMathFunctions/arm_cmplx_dot_prod_q15.c **** 
  35:./Libraries/CMSIS/DSP/Source/ComplexMathFunctions/arm_cmplx_dot_prod_q15.c **** /**
  36:./Libraries/CMSIS/DSP/Source/ComplexMathFunctions/arm_cmplx_dot_prod_q15.c ****   @addtogroup cmplx_dot_prod
  37:./Libraries/CMSIS/DSP/Source/ComplexMathFunctions/arm_cmplx_dot_prod_q15.c ****   @{
  38:./Libraries/CMSIS/DSP/Source/ComplexMathFunctions/arm_cmplx_dot_prod_q15.c ****  */
  39:./Libraries/CMSIS/DSP/Source/ComplexMathFunctions/arm_cmplx_dot_prod_q15.c **** 
  40:./Libraries/CMSIS/DSP/Source/ComplexMathFunctions/arm_cmplx_dot_prod_q15.c **** /**
  41:./Libraries/CMSIS/DSP/Source/ComplexMathFunctions/arm_cmplx_dot_prod_q15.c ****   @brief         Q15 complex dot product.
  42:./Libraries/CMSIS/DSP/Source/ComplexMathFunctions/arm_cmplx_dot_prod_q15.c ****   @param[in]     pSrcA       points to the first input vector
  43:./Libraries/CMSIS/DSP/Source/ComplexMathFunctions/arm_cmplx_dot_prod_q15.c ****   @param[in]     pSrcB       points to the second input vector
  44:./Libraries/CMSIS/DSP/Source/ComplexMathFunctions/arm_cmplx_dot_prod_q15.c ****   @param[in]     numSamples  number of samples in each vector
  45:./Libraries/CMSIS/DSP/Source/ComplexMathFunctions/arm_cmplx_dot_prod_q15.c ****   @param[out]    realResult  real part of the result returned here
  46:./Libraries/CMSIS/DSP/Source/ComplexMathFunctions/arm_cmplx_dot_prod_q15.c ****   @param[out]    imagResult  imaginary part of the result returned her
  47:./Libraries/CMSIS/DSP/Source/ComplexMathFunctions/arm_cmplx_dot_prod_q15.c ****   @return        none
  48:./Libraries/CMSIS/DSP/Source/ComplexMathFunctions/arm_cmplx_dot_prod_q15.c **** 
  49:./Libraries/CMSIS/DSP/Source/ComplexMathFunctions/arm_cmplx_dot_prod_q15.c ****   @par           Scaling and Overflow Behavior
  50:./Libraries/CMSIS/DSP/Source/ComplexMathFunctions/arm_cmplx_dot_prod_q15.c ****                    The function is implemented using an internal 64-bit accumulator.
  51:./Libraries/CMSIS/DSP/Source/ComplexMathFunctions/arm_cmplx_dot_prod_q15.c ****                    The intermediate 1.15 by 1.15 multiplications are performed with full precision 
  52:./Libraries/CMSIS/DSP/Source/ComplexMathFunctions/arm_cmplx_dot_prod_q15.c ****                    These are accumulated in a 64-bit accumulator with 34.30 precision.
  53:./Libraries/CMSIS/DSP/Source/ComplexMathFunctions/arm_cmplx_dot_prod_q15.c ****                    As a final step, the accumulators are converted to 8.24 format.
  54:./Libraries/CMSIS/DSP/Source/ComplexMathFunctions/arm_cmplx_dot_prod_q15.c ****                    The return results <code>realResult</code> and <code>imagResult</code> are in 8.
  55:./Libraries/CMSIS/DSP/Source/ComplexMathFunctions/arm_cmplx_dot_prod_q15.c ****  */
  56:./Libraries/CMSIS/DSP/Source/ComplexMathFunctions/arm_cmplx_dot_prod_q15.c **** 
  57:./Libraries/CMSIS/DSP/Source/ComplexMathFunctions/arm_cmplx_dot_prod_q15.c **** void arm_cmplx_dot_prod_q15(
  58:./Libraries/CMSIS/DSP/Source/ComplexMathFunctions/arm_cmplx_dot_prod_q15.c ****   const q15_t * pSrcA,
  59:./Libraries/CMSIS/DSP/Source/ComplexMathFunctions/arm_cmplx_dot_prod_q15.c ****   const q15_t * pSrcB,
  60:./Libraries/CMSIS/DSP/Source/ComplexMathFunctions/arm_cmplx_dot_prod_q15.c ****         uint32_t numSamples,
  61:./Libraries/CMSIS/DSP/Source/ComplexMathFunctions/arm_cmplx_dot_prod_q15.c ****         q31_t * realResult,
  62:./Libraries/CMSIS/DSP/Source/ComplexMathFunctions/arm_cmplx_dot_prod_q15.c ****         q31_t * imagResult)
  63:./Libraries/CMSIS/DSP/Source/ComplexMathFunctions/arm_cmplx_dot_prod_q15.c **** {
  28              		.loc 1 63 1
  29              		.cfi_startproc
  30              		@ args = 4, pretend = 0, frame = 56
  31              		@ frame_needed = 1, uses_anonymous_args = 0
  32              		@ link register save eliminated.
  33 0000 2DE9F00F 		push	{r4, r5, r6, r7, r8, r9, r10, fp}
  34              	.LCFI0:
  35              		.cfi_def_cfa_offset 32
  36              		.cfi_offset 4, -32
  37              		.cfi_offset 5, -28
  38              		.cfi_offset 6, -24
  39              		.cfi_offset 7, -20
  40              		.cfi_offset 8, -16
  41              		.cfi_offset 9, -12
  42              		.cfi_offset 10, -8
  43              		.cfi_offset 11, -4
  44 0004 8EB0     		sub	sp, sp, #56
  45              	.LCFI1:
  46              		.cfi_def_cfa_offset 88
  47 0006 00AF     		add	r7, sp, #0
  48              	.LCFI2:
  49              		.cfi_def_cfa_register 7
  50 0008 7861     		str	r0, [r7, #20]
  51 000a 3961     		str	r1, [r7, #16]
  52 000c FA60     		str	r2, [r7, #12]
ARM GAS  /tmp/ccoueSN0.s 			page 3


  53 000e BB60     		str	r3, [r7, #8]
  64:./Libraries/CMSIS/DSP/Source/ComplexMathFunctions/arm_cmplx_dot_prod_q15.c ****         uint32_t blkCnt;                               /* Loop counter */
  65:./Libraries/CMSIS/DSP/Source/ComplexMathFunctions/arm_cmplx_dot_prod_q15.c ****         q63_t real_sum = 0, imag_sum = 0;              /* Temporary result variables */
  54              		.loc 1 65 15
  55 0010 4FF00002 		mov	r2, #0
  56 0014 4FF00003 		mov	r3, #0
  57 0018 C7E90A23 		strd	r2, [r7, #40]
  58              		.loc 1 65 29
  59 001c 4FF00002 		mov	r2, #0
  60 0020 4FF00003 		mov	r3, #0
  61 0024 C7E90823 		strd	r2, [r7, #32]
  66:./Libraries/CMSIS/DSP/Source/ComplexMathFunctions/arm_cmplx_dot_prod_q15.c ****         q15_t a0,b0,c0,d0;
  67:./Libraries/CMSIS/DSP/Source/ComplexMathFunctions/arm_cmplx_dot_prod_q15.c **** 
  68:./Libraries/CMSIS/DSP/Source/ComplexMathFunctions/arm_cmplx_dot_prod_q15.c **** #if defined (ARM_MATH_LOOPUNROLL)
  69:./Libraries/CMSIS/DSP/Source/ComplexMathFunctions/arm_cmplx_dot_prod_q15.c **** 
  70:./Libraries/CMSIS/DSP/Source/ComplexMathFunctions/arm_cmplx_dot_prod_q15.c ****   /* Loop unrolling: Compute 4 outputs at a time */
  71:./Libraries/CMSIS/DSP/Source/ComplexMathFunctions/arm_cmplx_dot_prod_q15.c ****   blkCnt = numSamples >> 2U;
  72:./Libraries/CMSIS/DSP/Source/ComplexMathFunctions/arm_cmplx_dot_prod_q15.c **** 
  73:./Libraries/CMSIS/DSP/Source/ComplexMathFunctions/arm_cmplx_dot_prod_q15.c ****   while (blkCnt > 0U)
  74:./Libraries/CMSIS/DSP/Source/ComplexMathFunctions/arm_cmplx_dot_prod_q15.c ****   {
  75:./Libraries/CMSIS/DSP/Source/ComplexMathFunctions/arm_cmplx_dot_prod_q15.c ****     a0 = *pSrcA++;
  76:./Libraries/CMSIS/DSP/Source/ComplexMathFunctions/arm_cmplx_dot_prod_q15.c ****     b0 = *pSrcA++;
  77:./Libraries/CMSIS/DSP/Source/ComplexMathFunctions/arm_cmplx_dot_prod_q15.c ****     c0 = *pSrcB++;
  78:./Libraries/CMSIS/DSP/Source/ComplexMathFunctions/arm_cmplx_dot_prod_q15.c ****     d0 = *pSrcB++;
  79:./Libraries/CMSIS/DSP/Source/ComplexMathFunctions/arm_cmplx_dot_prod_q15.c **** 
  80:./Libraries/CMSIS/DSP/Source/ComplexMathFunctions/arm_cmplx_dot_prod_q15.c ****     real_sum += (q31_t)a0 * c0;
  81:./Libraries/CMSIS/DSP/Source/ComplexMathFunctions/arm_cmplx_dot_prod_q15.c ****     imag_sum += (q31_t)a0 * d0;
  82:./Libraries/CMSIS/DSP/Source/ComplexMathFunctions/arm_cmplx_dot_prod_q15.c ****     real_sum -= (q31_t)b0 * d0;
  83:./Libraries/CMSIS/DSP/Source/ComplexMathFunctions/arm_cmplx_dot_prod_q15.c ****     imag_sum += (q31_t)b0 * c0;
  84:./Libraries/CMSIS/DSP/Source/ComplexMathFunctions/arm_cmplx_dot_prod_q15.c **** 
  85:./Libraries/CMSIS/DSP/Source/ComplexMathFunctions/arm_cmplx_dot_prod_q15.c ****     a0 = *pSrcA++;
  86:./Libraries/CMSIS/DSP/Source/ComplexMathFunctions/arm_cmplx_dot_prod_q15.c ****     b0 = *pSrcA++;
  87:./Libraries/CMSIS/DSP/Source/ComplexMathFunctions/arm_cmplx_dot_prod_q15.c ****     c0 = *pSrcB++;
  88:./Libraries/CMSIS/DSP/Source/ComplexMathFunctions/arm_cmplx_dot_prod_q15.c ****     d0 = *pSrcB++;
  89:./Libraries/CMSIS/DSP/Source/ComplexMathFunctions/arm_cmplx_dot_prod_q15.c **** 
  90:./Libraries/CMSIS/DSP/Source/ComplexMathFunctions/arm_cmplx_dot_prod_q15.c ****     real_sum += (q31_t)a0 * c0;
  91:./Libraries/CMSIS/DSP/Source/ComplexMathFunctions/arm_cmplx_dot_prod_q15.c ****     imag_sum += (q31_t)a0 * d0;
  92:./Libraries/CMSIS/DSP/Source/ComplexMathFunctions/arm_cmplx_dot_prod_q15.c ****     real_sum -= (q31_t)b0 * d0;
  93:./Libraries/CMSIS/DSP/Source/ComplexMathFunctions/arm_cmplx_dot_prod_q15.c ****     imag_sum += (q31_t)b0 * c0;
  94:./Libraries/CMSIS/DSP/Source/ComplexMathFunctions/arm_cmplx_dot_prod_q15.c **** 
  95:./Libraries/CMSIS/DSP/Source/ComplexMathFunctions/arm_cmplx_dot_prod_q15.c ****     a0 = *pSrcA++;
  96:./Libraries/CMSIS/DSP/Source/ComplexMathFunctions/arm_cmplx_dot_prod_q15.c ****     b0 = *pSrcA++;
  97:./Libraries/CMSIS/DSP/Source/ComplexMathFunctions/arm_cmplx_dot_prod_q15.c ****     c0 = *pSrcB++;
  98:./Libraries/CMSIS/DSP/Source/ComplexMathFunctions/arm_cmplx_dot_prod_q15.c ****     d0 = *pSrcB++;
  99:./Libraries/CMSIS/DSP/Source/ComplexMathFunctions/arm_cmplx_dot_prod_q15.c **** 
 100:./Libraries/CMSIS/DSP/Source/ComplexMathFunctions/arm_cmplx_dot_prod_q15.c ****     real_sum += (q31_t)a0 * c0;
 101:./Libraries/CMSIS/DSP/Source/ComplexMathFunctions/arm_cmplx_dot_prod_q15.c ****     imag_sum += (q31_t)a0 * d0;
 102:./Libraries/CMSIS/DSP/Source/ComplexMathFunctions/arm_cmplx_dot_prod_q15.c ****     real_sum -= (q31_t)b0 * d0;
 103:./Libraries/CMSIS/DSP/Source/ComplexMathFunctions/arm_cmplx_dot_prod_q15.c ****     imag_sum += (q31_t)b0 * c0;
 104:./Libraries/CMSIS/DSP/Source/ComplexMathFunctions/arm_cmplx_dot_prod_q15.c **** 
 105:./Libraries/CMSIS/DSP/Source/ComplexMathFunctions/arm_cmplx_dot_prod_q15.c ****     a0 = *pSrcA++;
 106:./Libraries/CMSIS/DSP/Source/ComplexMathFunctions/arm_cmplx_dot_prod_q15.c ****     b0 = *pSrcA++;
 107:./Libraries/CMSIS/DSP/Source/ComplexMathFunctions/arm_cmplx_dot_prod_q15.c ****     c0 = *pSrcB++;
 108:./Libraries/CMSIS/DSP/Source/ComplexMathFunctions/arm_cmplx_dot_prod_q15.c ****     d0 = *pSrcB++;
 109:./Libraries/CMSIS/DSP/Source/ComplexMathFunctions/arm_cmplx_dot_prod_q15.c **** 
 110:./Libraries/CMSIS/DSP/Source/ComplexMathFunctions/arm_cmplx_dot_prod_q15.c ****     real_sum += (q31_t)a0 * c0;
 111:./Libraries/CMSIS/DSP/Source/ComplexMathFunctions/arm_cmplx_dot_prod_q15.c ****     imag_sum += (q31_t)a0 * d0;
ARM GAS  /tmp/ccoueSN0.s 			page 4


 112:./Libraries/CMSIS/DSP/Source/ComplexMathFunctions/arm_cmplx_dot_prod_q15.c ****     real_sum -= (q31_t)b0 * d0;
 113:./Libraries/CMSIS/DSP/Source/ComplexMathFunctions/arm_cmplx_dot_prod_q15.c ****     imag_sum += (q31_t)b0 * c0;
 114:./Libraries/CMSIS/DSP/Source/ComplexMathFunctions/arm_cmplx_dot_prod_q15.c **** 
 115:./Libraries/CMSIS/DSP/Source/ComplexMathFunctions/arm_cmplx_dot_prod_q15.c ****     /* Decrement loop counter */
 116:./Libraries/CMSIS/DSP/Source/ComplexMathFunctions/arm_cmplx_dot_prod_q15.c ****     blkCnt--;
 117:./Libraries/CMSIS/DSP/Source/ComplexMathFunctions/arm_cmplx_dot_prod_q15.c ****   }
 118:./Libraries/CMSIS/DSP/Source/ComplexMathFunctions/arm_cmplx_dot_prod_q15.c **** 
 119:./Libraries/CMSIS/DSP/Source/ComplexMathFunctions/arm_cmplx_dot_prod_q15.c ****   /* Loop unrolling: Compute remaining outputs */
 120:./Libraries/CMSIS/DSP/Source/ComplexMathFunctions/arm_cmplx_dot_prod_q15.c ****   blkCnt = numSamples % 0x4U;
 121:./Libraries/CMSIS/DSP/Source/ComplexMathFunctions/arm_cmplx_dot_prod_q15.c **** 
 122:./Libraries/CMSIS/DSP/Source/ComplexMathFunctions/arm_cmplx_dot_prod_q15.c **** #else
 123:./Libraries/CMSIS/DSP/Source/ComplexMathFunctions/arm_cmplx_dot_prod_q15.c **** 
 124:./Libraries/CMSIS/DSP/Source/ComplexMathFunctions/arm_cmplx_dot_prod_q15.c ****   /* Initialize blkCnt with number of samples */
 125:./Libraries/CMSIS/DSP/Source/ComplexMathFunctions/arm_cmplx_dot_prod_q15.c ****   blkCnt = numSamples;
  62              		.loc 1 125 10
  63 0028 FB68     		ldr	r3, [r7, #12]
  64 002a 7B63     		str	r3, [r7, #52]
 126:./Libraries/CMSIS/DSP/Source/ComplexMathFunctions/arm_cmplx_dot_prod_q15.c **** 
 127:./Libraries/CMSIS/DSP/Source/ComplexMathFunctions/arm_cmplx_dot_prod_q15.c **** #endif /* #if defined (ARM_MATH_LOOPUNROLL) */
 128:./Libraries/CMSIS/DSP/Source/ComplexMathFunctions/arm_cmplx_dot_prod_q15.c **** 
 129:./Libraries/CMSIS/DSP/Source/ComplexMathFunctions/arm_cmplx_dot_prod_q15.c ****   while (blkCnt > 0U)
  65              		.loc 1 129 9
  66 002c 5CE0     		b	.L2
  67              	.L3:
 130:./Libraries/CMSIS/DSP/Source/ComplexMathFunctions/arm_cmplx_dot_prod_q15.c ****   {
 131:./Libraries/CMSIS/DSP/Source/ComplexMathFunctions/arm_cmplx_dot_prod_q15.c ****     a0 = *pSrcA++;
  68              		.loc 1 131 16
  69 002e 7B69     		ldr	r3, [r7, #20]
  70 0030 9A1C     		adds	r2, r3, #2
  71 0032 7A61     		str	r2, [r7, #20]
  72              		.loc 1 131 8
  73 0034 1B88     		ldrh	r3, [r3]	@ movhi
  74 0036 FB83     		strh	r3, [r7, #30]	@ movhi
 132:./Libraries/CMSIS/DSP/Source/ComplexMathFunctions/arm_cmplx_dot_prod_q15.c ****     b0 = *pSrcA++;
  75              		.loc 1 132 16
  76 0038 7B69     		ldr	r3, [r7, #20]
  77 003a 9A1C     		adds	r2, r3, #2
  78 003c 7A61     		str	r2, [r7, #20]
  79              		.loc 1 132 8
  80 003e 1B88     		ldrh	r3, [r3]	@ movhi
  81 0040 BB83     		strh	r3, [r7, #28]	@ movhi
 133:./Libraries/CMSIS/DSP/Source/ComplexMathFunctions/arm_cmplx_dot_prod_q15.c ****     c0 = *pSrcB++;
  82              		.loc 1 133 16
  83 0042 3B69     		ldr	r3, [r7, #16]
  84 0044 9A1C     		adds	r2, r3, #2
  85 0046 3A61     		str	r2, [r7, #16]
  86              		.loc 1 133 8
  87 0048 1B88     		ldrh	r3, [r3]	@ movhi
  88 004a 7B83     		strh	r3, [r7, #26]	@ movhi
 134:./Libraries/CMSIS/DSP/Source/ComplexMathFunctions/arm_cmplx_dot_prod_q15.c ****     d0 = *pSrcB++;
  89              		.loc 1 134 16
  90 004c 3B69     		ldr	r3, [r7, #16]
  91 004e 9A1C     		adds	r2, r3, #2
  92 0050 3A61     		str	r2, [r7, #16]
  93              		.loc 1 134 8
  94 0052 1B88     		ldrh	r3, [r3]	@ movhi
  95 0054 3B83     		strh	r3, [r7, #24]	@ movhi
ARM GAS  /tmp/ccoueSN0.s 			page 5


 135:./Libraries/CMSIS/DSP/Source/ComplexMathFunctions/arm_cmplx_dot_prod_q15.c **** 
 136:./Libraries/CMSIS/DSP/Source/ComplexMathFunctions/arm_cmplx_dot_prod_q15.c ****     real_sum += (q31_t)a0 * c0;
  96              		.loc 1 136 17
  97 0056 B7F91E30 		ldrsh	r3, [r7, #30]
  98              		.loc 1 136 27
  99 005a B7F91A20 		ldrsh	r2, [r7, #26]
 100 005e 02FB03F3 		mul	r3, r2, r3
 101 0062 1A46     		mov	r2, r3
 102 0064 4FEAE273 		asr	r3, r2, #31
 103              		.loc 1 136 14
 104 0068 D7E90A01 		ldrd	r0, [r7, #40]
 105 006c 8418     		adds	r4, r0, r2
 106 006e 41EB0305 		adc	r5, r1, r3
 107 0072 C7E90A45 		strd	r4, [r7, #40]
 137:./Libraries/CMSIS/DSP/Source/ComplexMathFunctions/arm_cmplx_dot_prod_q15.c ****     imag_sum += (q31_t)a0 * d0;
 108              		.loc 1 137 17
 109 0076 B7F91E30 		ldrsh	r3, [r7, #30]
 110              		.loc 1 137 27
 111 007a B7F91820 		ldrsh	r2, [r7, #24]
 112 007e 02FB03F3 		mul	r3, r2, r3
 113 0082 1A46     		mov	r2, r3
 114 0084 4FEAE273 		asr	r3, r2, #31
 115              		.loc 1 137 14
 116 0088 D7E90801 		ldrd	r0, [r7, #32]
 117 008c 10EB0208 		adds	r8, r0, r2
 118 0090 41EB0309 		adc	r9, r1, r3
 119 0094 C7E90889 		strd	r8, [r7, #32]
 138:./Libraries/CMSIS/DSP/Source/ComplexMathFunctions/arm_cmplx_dot_prod_q15.c ****     real_sum -= (q31_t)b0 * d0;
 120              		.loc 1 138 17
 121 0098 B7F91C30 		ldrsh	r3, [r7, #28]
 122              		.loc 1 138 27
 123 009c B7F91820 		ldrsh	r2, [r7, #24]
 124 00a0 02FB03F3 		mul	r3, r2, r3
 125 00a4 1A46     		mov	r2, r3
 126 00a6 4FEAE273 		asr	r3, r2, #31
 127              		.loc 1 138 14
 128 00aa D7E90A01 		ldrd	r0, [r7, #40]
 129 00ae B0EB020A 		subs	r10, r0, r2
 130 00b2 61EB030B 		sbc	fp, r1, r3
 131 00b6 C7E90AAB 		strd	r10, [r7, #40]
 139:./Libraries/CMSIS/DSP/Source/ComplexMathFunctions/arm_cmplx_dot_prod_q15.c ****     imag_sum += (q31_t)b0 * c0;
 132              		.loc 1 139 17
 133 00ba B7F91C30 		ldrsh	r3, [r7, #28]
 134              		.loc 1 139 27
 135 00be B7F91A20 		ldrsh	r2, [r7, #26]
 136 00c2 02FB03F3 		mul	r3, r2, r3
 137 00c6 1A46     		mov	r2, r3
 138 00c8 4FEAE273 		asr	r3, r2, #31
 139              		.loc 1 139 14
 140 00cc D7E90801 		ldrd	r0, [r7, #32]
 141 00d0 8618     		adds	r6, r0, r2
 142 00d2 3E60     		str	r6, [r7]
 143 00d4 41EB0303 		adc	r3, r1, r3
 144 00d8 7B60     		str	r3, [r7, #4]
 145 00da D7E90023 		ldrd	r2, [r7]
 146 00de C7E90823 		strd	r2, [r7, #32]
 140:./Libraries/CMSIS/DSP/Source/ComplexMathFunctions/arm_cmplx_dot_prod_q15.c **** 
ARM GAS  /tmp/ccoueSN0.s 			page 6


 141:./Libraries/CMSIS/DSP/Source/ComplexMathFunctions/arm_cmplx_dot_prod_q15.c ****     /* Decrement loop counter */
 142:./Libraries/CMSIS/DSP/Source/ComplexMathFunctions/arm_cmplx_dot_prod_q15.c ****     blkCnt--;
 147              		.loc 1 142 11
 148 00e2 7B6B     		ldr	r3, [r7, #52]
 149 00e4 013B     		subs	r3, r3, #1
 150 00e6 7B63     		str	r3, [r7, #52]
 151              	.L2:
 129:./Libraries/CMSIS/DSP/Source/ComplexMathFunctions/arm_cmplx_dot_prod_q15.c ****   {
 152              		.loc 1 129 9
 153 00e8 7B6B     		ldr	r3, [r7, #52]
 154 00ea 002B     		cmp	r3, #0
 155 00ec 9FD1     		bne	.L3
 143:./Libraries/CMSIS/DSP/Source/ComplexMathFunctions/arm_cmplx_dot_prod_q15.c ****   }
 144:./Libraries/CMSIS/DSP/Source/ComplexMathFunctions/arm_cmplx_dot_prod_q15.c **** 
 145:./Libraries/CMSIS/DSP/Source/ComplexMathFunctions/arm_cmplx_dot_prod_q15.c ****   /* Store real and imaginary result in 8.24 format  */
 146:./Libraries/CMSIS/DSP/Source/ComplexMathFunctions/arm_cmplx_dot_prod_q15.c ****   /* Convert real data in 34.30 to 8.24 by 6 right shifts */
 147:./Libraries/CMSIS/DSP/Source/ComplexMathFunctions/arm_cmplx_dot_prod_q15.c ****   *realResult = (q31_t) (real_sum >> 6);
 156              		.loc 1 147 35
 157 00ee D7E90A01 		ldrd	r0, [r7, #40]
 158 00f2 4FF00002 		mov	r2, #0
 159 00f6 4FF00003 		mov	r3, #0
 160 00fa 8209     		lsrs	r2, r0, #6
 161 00fc 42EA8162 		orr	r2, r2, r1, lsl #26
 162 0100 8B11     		asrs	r3, r1, #6
 163              		.loc 1 147 15
 164 0102 BB68     		ldr	r3, [r7, #8]
 165 0104 1A60     		str	r2, [r3]
 148:./Libraries/CMSIS/DSP/Source/ComplexMathFunctions/arm_cmplx_dot_prod_q15.c ****   /* Convert imaginary data in 34.30 to 8.24 by 6 right shifts */
 149:./Libraries/CMSIS/DSP/Source/ComplexMathFunctions/arm_cmplx_dot_prod_q15.c ****   *imagResult = (q31_t) (imag_sum >> 6);
 166              		.loc 1 149 35
 167 0106 D7E90801 		ldrd	r0, [r7, #32]
 168 010a 4FF00002 		mov	r2, #0
 169 010e 4FF00003 		mov	r3, #0
 170 0112 8209     		lsrs	r2, r0, #6
 171 0114 42EA8162 		orr	r2, r2, r1, lsl #26
 172 0118 8B11     		asrs	r3, r1, #6
 173              		.loc 1 149 15
 174 011a BB6D     		ldr	r3, [r7, #88]
 175 011c 1A60     		str	r2, [r3]
 150:./Libraries/CMSIS/DSP/Source/ComplexMathFunctions/arm_cmplx_dot_prod_q15.c **** }
 176              		.loc 1 150 1
 177 011e 00BF     		nop
 178 0120 3837     		adds	r7, r7, #56
 179              	.LCFI3:
 180              		.cfi_def_cfa_offset 32
 181 0122 BD46     		mov	sp, r7
 182              	.LCFI4:
 183              		.cfi_def_cfa_register 13
 184              		@ sp needed
 185 0124 BDE8F00F 		pop	{r4, r5, r6, r7, r8, r9, r10, fp}
 186              	.LCFI5:
 187              		.cfi_restore 11
 188              		.cfi_restore 10
 189              		.cfi_restore 9
 190              		.cfi_restore 8
 191              		.cfi_restore 7
 192              		.cfi_restore 6
ARM GAS  /tmp/ccoueSN0.s 			page 7


 193              		.cfi_restore 5
 194              		.cfi_restore 4
 195              		.cfi_def_cfa_offset 0
 196 0128 7047     		bx	lr
 197              		.cfi_endproc
 198              	.LFE145:
 200              		.text
 201              	.Letext0:
 202              		.file 2 "/usr/lib/gcc/arm-none-eabi/9.2.1/include/stdint.h"
 203              		.file 3 "/usr/lib/gcc/arm-none-eabi/9.2.1/include/stddef.h"
 204              		.file 4 "/usr/include/newlib/sys/_types.h"
 205              		.file 5 "/usr/include/newlib/sys/reent.h"
 206              		.file 6 "/usr/include/newlib/sys/lock.h"
 207              		.file 7 "/usr/include/newlib/math.h"
 208              		.file 8 "./Libraries/CMSIS/DSP/Include/arm_math.h"
ARM GAS  /tmp/ccoueSN0.s 			page 8

