ARM GAS  /tmp/ccgsg9xu.s 			page 1


   1              		.cpu cortex-m7
   2              		.eabi_attribute 28, 1
   3              		.eabi_attribute 20, 1
   4              		.eabi_attribute 21, 1
   5              		.eabi_attribute 23, 3
   6              		.eabi_attribute 24, 1
   7              		.eabi_attribute 25, 1
   8              		.eabi_attribute 26, 1
   9              		.eabi_attribute 30, 6
  10              		.eabi_attribute 34, 1
  11              		.eabi_attribute 18, 4
  12              		.file	"arm_fir_lattice_q15.c"
  13              		.text
  14              	.Ltext0:
  15              		.cfi_sections	.debug_frame
  16              		.section	.text.arm_fir_lattice_q15,"ax",%progbits
  17              		.align	1
  18              		.global	arm_fir_lattice_q15
  19              		.arch armv7e-m
  20              		.syntax unified
  21              		.thumb
  22              		.thumb_func
  23              		.fpu fpv5-d16
  25              	arm_fir_lattice_q15:
  26              	.LFB145:
  27              		.file 1 "./Libraries/CMSIS/DSP/Source/FilteringFunctions/arm_fir_lattice_q15.c"
   1:./Libraries/CMSIS/DSP/Source/FilteringFunctions/arm_fir_lattice_q15.c **** /* ----------------------------------------------------------------------
   2:./Libraries/CMSIS/DSP/Source/FilteringFunctions/arm_fir_lattice_q15.c ****  * Project:      CMSIS DSP Library
   3:./Libraries/CMSIS/DSP/Source/FilteringFunctions/arm_fir_lattice_q15.c ****  * Title:        arm_fir_lattice_q15.c
   4:./Libraries/CMSIS/DSP/Source/FilteringFunctions/arm_fir_lattice_q15.c ****  * Description:  Q15 FIR lattice filter processing function
   5:./Libraries/CMSIS/DSP/Source/FilteringFunctions/arm_fir_lattice_q15.c ****  *
   6:./Libraries/CMSIS/DSP/Source/FilteringFunctions/arm_fir_lattice_q15.c ****  * $Date:        18. March 2019
   7:./Libraries/CMSIS/DSP/Source/FilteringFunctions/arm_fir_lattice_q15.c ****  * $Revision:    V1.6.0
   8:./Libraries/CMSIS/DSP/Source/FilteringFunctions/arm_fir_lattice_q15.c ****  *
   9:./Libraries/CMSIS/DSP/Source/FilteringFunctions/arm_fir_lattice_q15.c ****  * Target Processor: Cortex-M cores
  10:./Libraries/CMSIS/DSP/Source/FilteringFunctions/arm_fir_lattice_q15.c ****  * -------------------------------------------------------------------- */
  11:./Libraries/CMSIS/DSP/Source/FilteringFunctions/arm_fir_lattice_q15.c **** /*
  12:./Libraries/CMSIS/DSP/Source/FilteringFunctions/arm_fir_lattice_q15.c ****  * Copyright (C) 2010-2019 ARM Limited or its affiliates. All rights reserved.
  13:./Libraries/CMSIS/DSP/Source/FilteringFunctions/arm_fir_lattice_q15.c ****  *
  14:./Libraries/CMSIS/DSP/Source/FilteringFunctions/arm_fir_lattice_q15.c ****  * SPDX-License-Identifier: Apache-2.0
  15:./Libraries/CMSIS/DSP/Source/FilteringFunctions/arm_fir_lattice_q15.c ****  *
  16:./Libraries/CMSIS/DSP/Source/FilteringFunctions/arm_fir_lattice_q15.c ****  * Licensed under the Apache License, Version 2.0 (the License); you may
  17:./Libraries/CMSIS/DSP/Source/FilteringFunctions/arm_fir_lattice_q15.c ****  * not use this file except in compliance with the License.
  18:./Libraries/CMSIS/DSP/Source/FilteringFunctions/arm_fir_lattice_q15.c ****  * You may obtain a copy of the License at
  19:./Libraries/CMSIS/DSP/Source/FilteringFunctions/arm_fir_lattice_q15.c ****  *
  20:./Libraries/CMSIS/DSP/Source/FilteringFunctions/arm_fir_lattice_q15.c ****  * www.apache.org/licenses/LICENSE-2.0
  21:./Libraries/CMSIS/DSP/Source/FilteringFunctions/arm_fir_lattice_q15.c ****  *
  22:./Libraries/CMSIS/DSP/Source/FilteringFunctions/arm_fir_lattice_q15.c ****  * Unless required by applicable law or agreed to in writing, software
  23:./Libraries/CMSIS/DSP/Source/FilteringFunctions/arm_fir_lattice_q15.c ****  * distributed under the License is distributed on an AS IS BASIS, WITHOUT
  24:./Libraries/CMSIS/DSP/Source/FilteringFunctions/arm_fir_lattice_q15.c ****  * WARRANTIES OR CONDITIONS OF ANY KIND, either express or implied.
  25:./Libraries/CMSIS/DSP/Source/FilteringFunctions/arm_fir_lattice_q15.c ****  * See the License for the specific language governing permissions and
  26:./Libraries/CMSIS/DSP/Source/FilteringFunctions/arm_fir_lattice_q15.c ****  * limitations under the License.
  27:./Libraries/CMSIS/DSP/Source/FilteringFunctions/arm_fir_lattice_q15.c ****  */
  28:./Libraries/CMSIS/DSP/Source/FilteringFunctions/arm_fir_lattice_q15.c **** 
  29:./Libraries/CMSIS/DSP/Source/FilteringFunctions/arm_fir_lattice_q15.c **** #include "arm_math.h"
  30:./Libraries/CMSIS/DSP/Source/FilteringFunctions/arm_fir_lattice_q15.c **** 
  31:./Libraries/CMSIS/DSP/Source/FilteringFunctions/arm_fir_lattice_q15.c **** /**
ARM GAS  /tmp/ccgsg9xu.s 			page 2


  32:./Libraries/CMSIS/DSP/Source/FilteringFunctions/arm_fir_lattice_q15.c ****   @ingroup groupFilters
  33:./Libraries/CMSIS/DSP/Source/FilteringFunctions/arm_fir_lattice_q15.c ****  */
  34:./Libraries/CMSIS/DSP/Source/FilteringFunctions/arm_fir_lattice_q15.c **** 
  35:./Libraries/CMSIS/DSP/Source/FilteringFunctions/arm_fir_lattice_q15.c **** /**
  36:./Libraries/CMSIS/DSP/Source/FilteringFunctions/arm_fir_lattice_q15.c ****   @addtogroup FIR_Lattice
  37:./Libraries/CMSIS/DSP/Source/FilteringFunctions/arm_fir_lattice_q15.c ****   @{
  38:./Libraries/CMSIS/DSP/Source/FilteringFunctions/arm_fir_lattice_q15.c ****  */
  39:./Libraries/CMSIS/DSP/Source/FilteringFunctions/arm_fir_lattice_q15.c **** 
  40:./Libraries/CMSIS/DSP/Source/FilteringFunctions/arm_fir_lattice_q15.c **** /**
  41:./Libraries/CMSIS/DSP/Source/FilteringFunctions/arm_fir_lattice_q15.c ****   @brief         Processing function for Q15 FIR lattice filter.
  42:./Libraries/CMSIS/DSP/Source/FilteringFunctions/arm_fir_lattice_q15.c ****   @param[in]     S          points to an instance of the Q15 FIR lattice structure
  43:./Libraries/CMSIS/DSP/Source/FilteringFunctions/arm_fir_lattice_q15.c ****   @param[in]     pSrc       points to the block of input data
  44:./Libraries/CMSIS/DSP/Source/FilteringFunctions/arm_fir_lattice_q15.c ****   @param[out]    pDst       points to the block of output data
  45:./Libraries/CMSIS/DSP/Source/FilteringFunctions/arm_fir_lattice_q15.c ****   @param[in]     blockSize  number of samples to process
  46:./Libraries/CMSIS/DSP/Source/FilteringFunctions/arm_fir_lattice_q15.c ****   @return        none
  47:./Libraries/CMSIS/DSP/Source/FilteringFunctions/arm_fir_lattice_q15.c ****  */
  48:./Libraries/CMSIS/DSP/Source/FilteringFunctions/arm_fir_lattice_q15.c **** 
  49:./Libraries/CMSIS/DSP/Source/FilteringFunctions/arm_fir_lattice_q15.c **** void arm_fir_lattice_q15(
  50:./Libraries/CMSIS/DSP/Source/FilteringFunctions/arm_fir_lattice_q15.c ****   const arm_fir_lattice_instance_q15 * S,
  51:./Libraries/CMSIS/DSP/Source/FilteringFunctions/arm_fir_lattice_q15.c ****   const q15_t * pSrc,
  52:./Libraries/CMSIS/DSP/Source/FilteringFunctions/arm_fir_lattice_q15.c ****         q15_t * pDst,
  53:./Libraries/CMSIS/DSP/Source/FilteringFunctions/arm_fir_lattice_q15.c ****         uint32_t blockSize)
  54:./Libraries/CMSIS/DSP/Source/FilteringFunctions/arm_fir_lattice_q15.c **** {
  28              		.loc 1 54 1
  29              		.cfi_startproc
  30              		@ args = 0, pretend = 0, frame = 104
  31              		@ frame_needed = 1, uses_anonymous_args = 0
  32              		@ link register save eliminated.
  33 0000 80B4     		push	{r7}
  34              	.LCFI0:
  35              		.cfi_def_cfa_offset 4
  36              		.cfi_offset 7, -4
  37 0002 9BB0     		sub	sp, sp, #108
  38              	.LCFI1:
  39              		.cfi_def_cfa_offset 112
  40 0004 00AF     		add	r7, sp, #0
  41              	.LCFI2:
  42              		.cfi_def_cfa_register 7
  43 0006 F860     		str	r0, [r7, #12]
  44 0008 B960     		str	r1, [r7, #8]
  45 000a 7A60     		str	r2, [r7, #4]
  46 000c 3B60     		str	r3, [r7]
  55:./Libraries/CMSIS/DSP/Source/FilteringFunctions/arm_fir_lattice_q15.c ****         q15_t *pState = S->pState;                     /* State pointer */
  47              		.loc 1 55 16
  48 000e FB68     		ldr	r3, [r7, #12]
  49 0010 5B68     		ldr	r3, [r3, #4]
  50 0012 FB64     		str	r3, [r7, #76]
  56:./Libraries/CMSIS/DSP/Source/FilteringFunctions/arm_fir_lattice_q15.c ****   const q15_t *pCoeffs = S->pCoeffs;                   /* Coefficient pointer */
  51              		.loc 1 56 16
  52 0014 FB68     		ldr	r3, [r7, #12]
  53 0016 9B68     		ldr	r3, [r3, #8]
  54 0018 BB64     		str	r3, [r7, #72]
  57:./Libraries/CMSIS/DSP/Source/FilteringFunctions/arm_fir_lattice_q15.c ****         q15_t *px;                                     /* Temporary state pointer */
  58:./Libraries/CMSIS/DSP/Source/FilteringFunctions/arm_fir_lattice_q15.c ****   const q15_t *pk;                                     /* Temporary coefficient pointer */
  59:./Libraries/CMSIS/DSP/Source/FilteringFunctions/arm_fir_lattice_q15.c ****         uint32_t numStages = S->numStages;             /* Number of stages in the filter */
  55              		.loc 1 59 31
  56 001a FB68     		ldr	r3, [r7, #12]
ARM GAS  /tmp/ccgsg9xu.s 			page 3


  57 001c 1B88     		ldrh	r3, [r3]
  58              		.loc 1 59 18
  59 001e 7B64     		str	r3, [r7, #68]
  60:./Libraries/CMSIS/DSP/Source/FilteringFunctions/arm_fir_lattice_q15.c ****         uint32_t blkCnt, stageCnt;                     /* Loop counters */
  61:./Libraries/CMSIS/DSP/Source/FilteringFunctions/arm_fir_lattice_q15.c ****         q31_t fcurr0, fnext0, gnext0, gcurr0;          /* Temporary variables */
  62:./Libraries/CMSIS/DSP/Source/FilteringFunctions/arm_fir_lattice_q15.c **** 
  63:./Libraries/CMSIS/DSP/Source/FilteringFunctions/arm_fir_lattice_q15.c **** #if (1)
  64:./Libraries/CMSIS/DSP/Source/FilteringFunctions/arm_fir_lattice_q15.c **** //#if !defined(ARM_MATH_CM0_FAMILY)
  65:./Libraries/CMSIS/DSP/Source/FilteringFunctions/arm_fir_lattice_q15.c **** 
  66:./Libraries/CMSIS/DSP/Source/FilteringFunctions/arm_fir_lattice_q15.c **** #if defined (ARM_MATH_LOOPUNROLL)
  67:./Libraries/CMSIS/DSP/Source/FilteringFunctions/arm_fir_lattice_q15.c ****   q31_t fcurr1, fnext1, gnext1;                  /* Temporary variables for second sample in loop u
  68:./Libraries/CMSIS/DSP/Source/FilteringFunctions/arm_fir_lattice_q15.c ****   q31_t fcurr2, fnext2, gnext2;                  /* Temporary variables for third sample in loop un
  69:./Libraries/CMSIS/DSP/Source/FilteringFunctions/arm_fir_lattice_q15.c ****   q31_t fcurr3, fnext3, gnext3;                  /* Temporary variables for fourth sample in loop u
  70:./Libraries/CMSIS/DSP/Source/FilteringFunctions/arm_fir_lattice_q15.c **** #endif
  71:./Libraries/CMSIS/DSP/Source/FilteringFunctions/arm_fir_lattice_q15.c **** 
  72:./Libraries/CMSIS/DSP/Source/FilteringFunctions/arm_fir_lattice_q15.c ****   gcurr0 = 0;
  60              		.loc 1 72 10
  61 0020 0023     		movs	r3, #0
  62 0022 3B64     		str	r3, [r7, #64]
  73:./Libraries/CMSIS/DSP/Source/FilteringFunctions/arm_fir_lattice_q15.c **** 
  74:./Libraries/CMSIS/DSP/Source/FilteringFunctions/arm_fir_lattice_q15.c **** #if defined (ARM_MATH_LOOPUNROLL)
  75:./Libraries/CMSIS/DSP/Source/FilteringFunctions/arm_fir_lattice_q15.c **** 
  76:./Libraries/CMSIS/DSP/Source/FilteringFunctions/arm_fir_lattice_q15.c ****   /* Loop unrolling: Compute 4 outputs at a time */
  77:./Libraries/CMSIS/DSP/Source/FilteringFunctions/arm_fir_lattice_q15.c ****   blkCnt = blockSize >> 2U;
  78:./Libraries/CMSIS/DSP/Source/FilteringFunctions/arm_fir_lattice_q15.c **** 
  79:./Libraries/CMSIS/DSP/Source/FilteringFunctions/arm_fir_lattice_q15.c ****   while (blkCnt > 0U)
  80:./Libraries/CMSIS/DSP/Source/FilteringFunctions/arm_fir_lattice_q15.c ****   {
  81:./Libraries/CMSIS/DSP/Source/FilteringFunctions/arm_fir_lattice_q15.c ****     /* Read two samples from input buffer */
  82:./Libraries/CMSIS/DSP/Source/FilteringFunctions/arm_fir_lattice_q15.c ****     /* f0(n) = x(n) */
  83:./Libraries/CMSIS/DSP/Source/FilteringFunctions/arm_fir_lattice_q15.c ****     fcurr0 = *pSrc++;
  84:./Libraries/CMSIS/DSP/Source/FilteringFunctions/arm_fir_lattice_q15.c ****     fcurr1 = *pSrc++;
  85:./Libraries/CMSIS/DSP/Source/FilteringFunctions/arm_fir_lattice_q15.c **** 
  86:./Libraries/CMSIS/DSP/Source/FilteringFunctions/arm_fir_lattice_q15.c ****     /* Initialize state pointer */
  87:./Libraries/CMSIS/DSP/Source/FilteringFunctions/arm_fir_lattice_q15.c ****     px = pState;
  88:./Libraries/CMSIS/DSP/Source/FilteringFunctions/arm_fir_lattice_q15.c **** 
  89:./Libraries/CMSIS/DSP/Source/FilteringFunctions/arm_fir_lattice_q15.c ****     /* Initialize coeff pointer */
  90:./Libraries/CMSIS/DSP/Source/FilteringFunctions/arm_fir_lattice_q15.c ****     pk = pCoeffs;
  91:./Libraries/CMSIS/DSP/Source/FilteringFunctions/arm_fir_lattice_q15.c **** 
  92:./Libraries/CMSIS/DSP/Source/FilteringFunctions/arm_fir_lattice_q15.c ****     /* Read g0(n-1) from state buffer */
  93:./Libraries/CMSIS/DSP/Source/FilteringFunctions/arm_fir_lattice_q15.c ****     gcurr0 = *px;
  94:./Libraries/CMSIS/DSP/Source/FilteringFunctions/arm_fir_lattice_q15.c **** 
  95:./Libraries/CMSIS/DSP/Source/FilteringFunctions/arm_fir_lattice_q15.c ****     /* Process first sample for first tap */
  96:./Libraries/CMSIS/DSP/Source/FilteringFunctions/arm_fir_lattice_q15.c ****     /* f1(n) = f0(n) +  K1 * g0(n-1) */
  97:./Libraries/CMSIS/DSP/Source/FilteringFunctions/arm_fir_lattice_q15.c ****     fnext0 = (q31_t) ((gcurr0 * (*pk)) >> 15U) + fcurr0;
  98:./Libraries/CMSIS/DSP/Source/FilteringFunctions/arm_fir_lattice_q15.c ****     fnext0 = __SSAT(fnext0, 16);
  99:./Libraries/CMSIS/DSP/Source/FilteringFunctions/arm_fir_lattice_q15.c **** 
 100:./Libraries/CMSIS/DSP/Source/FilteringFunctions/arm_fir_lattice_q15.c ****     /* g1(n) = f0(n) * K1  +  g0(n-1) */
 101:./Libraries/CMSIS/DSP/Source/FilteringFunctions/arm_fir_lattice_q15.c ****     gnext0 = (q31_t) ((fcurr0 * (*pk)) >> 15U) + gcurr0;
 102:./Libraries/CMSIS/DSP/Source/FilteringFunctions/arm_fir_lattice_q15.c ****     gnext0 = __SSAT(gnext0, 16);
 103:./Libraries/CMSIS/DSP/Source/FilteringFunctions/arm_fir_lattice_q15.c **** 
 104:./Libraries/CMSIS/DSP/Source/FilteringFunctions/arm_fir_lattice_q15.c ****     /* Process second sample for first tap */
 105:./Libraries/CMSIS/DSP/Source/FilteringFunctions/arm_fir_lattice_q15.c ****     fnext1 = (q31_t) ((fcurr0 * (*pk)) >> 15U) + fcurr1;
 106:./Libraries/CMSIS/DSP/Source/FilteringFunctions/arm_fir_lattice_q15.c ****     fnext1 = __SSAT(fnext1, 16);
 107:./Libraries/CMSIS/DSP/Source/FilteringFunctions/arm_fir_lattice_q15.c ****     gnext1 = (q31_t) ((fcurr1 * (*pk)) >> 15U) + fcurr0;
 108:./Libraries/CMSIS/DSP/Source/FilteringFunctions/arm_fir_lattice_q15.c ****     gnext1 = __SSAT(gnext1, 16);
 109:./Libraries/CMSIS/DSP/Source/FilteringFunctions/arm_fir_lattice_q15.c **** 
 110:./Libraries/CMSIS/DSP/Source/FilteringFunctions/arm_fir_lattice_q15.c ****     /* Read next two samples from input buffer */
ARM GAS  /tmp/ccgsg9xu.s 			page 4


 111:./Libraries/CMSIS/DSP/Source/FilteringFunctions/arm_fir_lattice_q15.c ****     /* f0(n+2) = x(n+2) */
 112:./Libraries/CMSIS/DSP/Source/FilteringFunctions/arm_fir_lattice_q15.c ****     fcurr2 = *pSrc++;
 113:./Libraries/CMSIS/DSP/Source/FilteringFunctions/arm_fir_lattice_q15.c ****     fcurr3 = *pSrc++;
 114:./Libraries/CMSIS/DSP/Source/FilteringFunctions/arm_fir_lattice_q15.c **** 
 115:./Libraries/CMSIS/DSP/Source/FilteringFunctions/arm_fir_lattice_q15.c ****     /* Process third sample for first tap */
 116:./Libraries/CMSIS/DSP/Source/FilteringFunctions/arm_fir_lattice_q15.c ****     fnext2 = (q31_t) ((fcurr1 * (*pk)) >> 15U) + fcurr2;
 117:./Libraries/CMSIS/DSP/Source/FilteringFunctions/arm_fir_lattice_q15.c ****     fnext2 = __SSAT(fnext2, 16);
 118:./Libraries/CMSIS/DSP/Source/FilteringFunctions/arm_fir_lattice_q15.c ****     gnext2 = (q31_t) ((fcurr2 * (*pk)) >> 15U) + fcurr1;
 119:./Libraries/CMSIS/DSP/Source/FilteringFunctions/arm_fir_lattice_q15.c ****     gnext2 = __SSAT(gnext2, 16);
 120:./Libraries/CMSIS/DSP/Source/FilteringFunctions/arm_fir_lattice_q15.c **** 
 121:./Libraries/CMSIS/DSP/Source/FilteringFunctions/arm_fir_lattice_q15.c ****     /* Process fourth sample for first tap */
 122:./Libraries/CMSIS/DSP/Source/FilteringFunctions/arm_fir_lattice_q15.c ****     fnext3 = (q31_t) ((fcurr2 * (*pk  )) >> 15U) + fcurr3;
 123:./Libraries/CMSIS/DSP/Source/FilteringFunctions/arm_fir_lattice_q15.c ****     fnext3 = __SSAT(fnext3, 16);
 124:./Libraries/CMSIS/DSP/Source/FilteringFunctions/arm_fir_lattice_q15.c ****     gnext3 = (q31_t) ((fcurr3 * (*pk++)) >> 15U) + fcurr2;
 125:./Libraries/CMSIS/DSP/Source/FilteringFunctions/arm_fir_lattice_q15.c ****     gnext3 = __SSAT(gnext3, 16);
 126:./Libraries/CMSIS/DSP/Source/FilteringFunctions/arm_fir_lattice_q15.c **** 
 127:./Libraries/CMSIS/DSP/Source/FilteringFunctions/arm_fir_lattice_q15.c ****     /* Copy only last input sample into the state buffer
 128:./Libraries/CMSIS/DSP/Source/FilteringFunctions/arm_fir_lattice_q15.c ****        which will be used for next samples processing */
 129:./Libraries/CMSIS/DSP/Source/FilteringFunctions/arm_fir_lattice_q15.c ****     *px++ = (q15_t) fcurr3;
 130:./Libraries/CMSIS/DSP/Source/FilteringFunctions/arm_fir_lattice_q15.c **** 
 131:./Libraries/CMSIS/DSP/Source/FilteringFunctions/arm_fir_lattice_q15.c ****     /* Update of f values for next coefficient set processing */
 132:./Libraries/CMSIS/DSP/Source/FilteringFunctions/arm_fir_lattice_q15.c ****     fcurr0 = fnext0;
 133:./Libraries/CMSIS/DSP/Source/FilteringFunctions/arm_fir_lattice_q15.c ****     fcurr1 = fnext1;
 134:./Libraries/CMSIS/DSP/Source/FilteringFunctions/arm_fir_lattice_q15.c ****     fcurr2 = fnext2;
 135:./Libraries/CMSIS/DSP/Source/FilteringFunctions/arm_fir_lattice_q15.c ****     fcurr3 = fnext3;
 136:./Libraries/CMSIS/DSP/Source/FilteringFunctions/arm_fir_lattice_q15.c **** 
 137:./Libraries/CMSIS/DSP/Source/FilteringFunctions/arm_fir_lattice_q15.c ****     /* Loop unrolling.  Process 4 taps at a time . */
 138:./Libraries/CMSIS/DSP/Source/FilteringFunctions/arm_fir_lattice_q15.c ****     stageCnt = (numStages - 1U) >> 2U;
 139:./Libraries/CMSIS/DSP/Source/FilteringFunctions/arm_fir_lattice_q15.c **** 
 140:./Libraries/CMSIS/DSP/Source/FilteringFunctions/arm_fir_lattice_q15.c ****     /* Loop over the number of taps.  Unroll by a factor of 4.
 141:./Libraries/CMSIS/DSP/Source/FilteringFunctions/arm_fir_lattice_q15.c ****        Repeat until we've computed numStages-3 coefficients. */
 142:./Libraries/CMSIS/DSP/Source/FilteringFunctions/arm_fir_lattice_q15.c **** 
 143:./Libraries/CMSIS/DSP/Source/FilteringFunctions/arm_fir_lattice_q15.c ****     /* Process 2nd, 3rd, 4th and 5th taps ... here */
 144:./Libraries/CMSIS/DSP/Source/FilteringFunctions/arm_fir_lattice_q15.c ****     while (stageCnt > 0U)
 145:./Libraries/CMSIS/DSP/Source/FilteringFunctions/arm_fir_lattice_q15.c ****     {
 146:./Libraries/CMSIS/DSP/Source/FilteringFunctions/arm_fir_lattice_q15.c ****       /* Read g1(n-1), g3(n-1) .... from state */
 147:./Libraries/CMSIS/DSP/Source/FilteringFunctions/arm_fir_lattice_q15.c ****       gcurr0 = *px;
 148:./Libraries/CMSIS/DSP/Source/FilteringFunctions/arm_fir_lattice_q15.c **** 
 149:./Libraries/CMSIS/DSP/Source/FilteringFunctions/arm_fir_lattice_q15.c ****       /* save g1(n) in state buffer */
 150:./Libraries/CMSIS/DSP/Source/FilteringFunctions/arm_fir_lattice_q15.c ****       *px++ = (q15_t) gnext3;
 151:./Libraries/CMSIS/DSP/Source/FilteringFunctions/arm_fir_lattice_q15.c **** 
 152:./Libraries/CMSIS/DSP/Source/FilteringFunctions/arm_fir_lattice_q15.c ****       /* Process first sample for 2nd, 6th .. tap */
 153:./Libraries/CMSIS/DSP/Source/FilteringFunctions/arm_fir_lattice_q15.c ****       /* Sample processing for K2, K6.... */
 154:./Libraries/CMSIS/DSP/Source/FilteringFunctions/arm_fir_lattice_q15.c ****       /* f1(n) = f0(n) +  K1 * g0(n-1) */
 155:./Libraries/CMSIS/DSP/Source/FilteringFunctions/arm_fir_lattice_q15.c ****       fnext0 = (q31_t) ((gcurr0 * (*pk)) >> 15U) + fcurr0;
 156:./Libraries/CMSIS/DSP/Source/FilteringFunctions/arm_fir_lattice_q15.c ****       fnext0 = __SSAT(fnext0, 16);
 157:./Libraries/CMSIS/DSP/Source/FilteringFunctions/arm_fir_lattice_q15.c **** 
 158:./Libraries/CMSIS/DSP/Source/FilteringFunctions/arm_fir_lattice_q15.c ****       /* Process second sample for 2nd, 6th .. tap */
 159:./Libraries/CMSIS/DSP/Source/FilteringFunctions/arm_fir_lattice_q15.c ****       /* for sample 2 processing */
 160:./Libraries/CMSIS/DSP/Source/FilteringFunctions/arm_fir_lattice_q15.c ****       fnext1 = (q31_t) ((gnext0 * (*pk)) >> 15U) + fcurr1;
 161:./Libraries/CMSIS/DSP/Source/FilteringFunctions/arm_fir_lattice_q15.c ****       fnext1 = __SSAT(fnext1, 16);
 162:./Libraries/CMSIS/DSP/Source/FilteringFunctions/arm_fir_lattice_q15.c **** 
 163:./Libraries/CMSIS/DSP/Source/FilteringFunctions/arm_fir_lattice_q15.c ****       /* Process third sample for 2nd, 6th .. tap */
 164:./Libraries/CMSIS/DSP/Source/FilteringFunctions/arm_fir_lattice_q15.c ****       fnext2 = (q31_t) ((gnext1 * (*pk)) >> 15U) + fcurr2;
 165:./Libraries/CMSIS/DSP/Source/FilteringFunctions/arm_fir_lattice_q15.c ****       fnext2 = __SSAT(fnext2, 16);
 166:./Libraries/CMSIS/DSP/Source/FilteringFunctions/arm_fir_lattice_q15.c **** 
 167:./Libraries/CMSIS/DSP/Source/FilteringFunctions/arm_fir_lattice_q15.c ****       /* Process fourth sample for 2nd, 6th .. tap */
ARM GAS  /tmp/ccgsg9xu.s 			page 5


 168:./Libraries/CMSIS/DSP/Source/FilteringFunctions/arm_fir_lattice_q15.c ****       fnext3 = (q31_t) ((gnext2 * (*pk)) >> 15U) + fcurr3;
 169:./Libraries/CMSIS/DSP/Source/FilteringFunctions/arm_fir_lattice_q15.c ****       fnext3 = __SSAT(fnext3, 16);
 170:./Libraries/CMSIS/DSP/Source/FilteringFunctions/arm_fir_lattice_q15.c **** 
 171:./Libraries/CMSIS/DSP/Source/FilteringFunctions/arm_fir_lattice_q15.c ****       /* g1(n) = f0(n) * K1  +  g0(n-1) */
 172:./Libraries/CMSIS/DSP/Source/FilteringFunctions/arm_fir_lattice_q15.c ****       /* Calculation of state values for next stage */
 173:./Libraries/CMSIS/DSP/Source/FilteringFunctions/arm_fir_lattice_q15.c ****       gnext3 = (q31_t) ((fcurr3 * (*pk)) >> 15U) + gnext2;
 174:./Libraries/CMSIS/DSP/Source/FilteringFunctions/arm_fir_lattice_q15.c ****       gnext3 = __SSAT(gnext3, 16);
 175:./Libraries/CMSIS/DSP/Source/FilteringFunctions/arm_fir_lattice_q15.c **** 
 176:./Libraries/CMSIS/DSP/Source/FilteringFunctions/arm_fir_lattice_q15.c ****       gnext2 = (q31_t) ((fcurr2 * (*pk)) >> 15U) + gnext1;
 177:./Libraries/CMSIS/DSP/Source/FilteringFunctions/arm_fir_lattice_q15.c ****       gnext2 = __SSAT(gnext2, 16);
 178:./Libraries/CMSIS/DSP/Source/FilteringFunctions/arm_fir_lattice_q15.c **** 
 179:./Libraries/CMSIS/DSP/Source/FilteringFunctions/arm_fir_lattice_q15.c ****       gnext1 = (q31_t) ((fcurr1 * (*pk)) >> 15U) + gnext0;
 180:./Libraries/CMSIS/DSP/Source/FilteringFunctions/arm_fir_lattice_q15.c ****       gnext1 = __SSAT(gnext1, 16);
 181:./Libraries/CMSIS/DSP/Source/FilteringFunctions/arm_fir_lattice_q15.c **** 
 182:./Libraries/CMSIS/DSP/Source/FilteringFunctions/arm_fir_lattice_q15.c ****       gnext0 = (q31_t) ((fcurr0 * (*pk++)) >> 15U) + gcurr0;
 183:./Libraries/CMSIS/DSP/Source/FilteringFunctions/arm_fir_lattice_q15.c ****       gnext0 = __SSAT(gnext0, 16);
 184:./Libraries/CMSIS/DSP/Source/FilteringFunctions/arm_fir_lattice_q15.c **** 
 185:./Libraries/CMSIS/DSP/Source/FilteringFunctions/arm_fir_lattice_q15.c **** 
 186:./Libraries/CMSIS/DSP/Source/FilteringFunctions/arm_fir_lattice_q15.c ****       /* Read g2(n-1), g4(n-1) .... from state */
 187:./Libraries/CMSIS/DSP/Source/FilteringFunctions/arm_fir_lattice_q15.c ****       gcurr0 = *px;
 188:./Libraries/CMSIS/DSP/Source/FilteringFunctions/arm_fir_lattice_q15.c **** 
 189:./Libraries/CMSIS/DSP/Source/FilteringFunctions/arm_fir_lattice_q15.c ****       /* save g1(n) in state buffer */
 190:./Libraries/CMSIS/DSP/Source/FilteringFunctions/arm_fir_lattice_q15.c ****       *px++ = (q15_t) gnext3;
 191:./Libraries/CMSIS/DSP/Source/FilteringFunctions/arm_fir_lattice_q15.c **** 
 192:./Libraries/CMSIS/DSP/Source/FilteringFunctions/arm_fir_lattice_q15.c ****       /* Sample processing for K3, K7.... */
 193:./Libraries/CMSIS/DSP/Source/FilteringFunctions/arm_fir_lattice_q15.c ****       /* Process first sample for 3rd, 7th .. tap */
 194:./Libraries/CMSIS/DSP/Source/FilteringFunctions/arm_fir_lattice_q15.c ****       /* f3(n) = f2(n) +  K3 * g2(n-1) */
 195:./Libraries/CMSIS/DSP/Source/FilteringFunctions/arm_fir_lattice_q15.c ****       fcurr0 = (q31_t) ((gcurr0 * (*pk)) >> 15U) + fnext0;
 196:./Libraries/CMSIS/DSP/Source/FilteringFunctions/arm_fir_lattice_q15.c ****       fcurr0 = __SSAT(fcurr0, 16);
 197:./Libraries/CMSIS/DSP/Source/FilteringFunctions/arm_fir_lattice_q15.c **** 
 198:./Libraries/CMSIS/DSP/Source/FilteringFunctions/arm_fir_lattice_q15.c ****       /* Process second sample for 3rd, 7th .. tap */
 199:./Libraries/CMSIS/DSP/Source/FilteringFunctions/arm_fir_lattice_q15.c ****       fcurr1 = (q31_t) ((gnext0 * (*pk)) >> 15U) + fnext1;
 200:./Libraries/CMSIS/DSP/Source/FilteringFunctions/arm_fir_lattice_q15.c ****       fcurr1 = __SSAT(fcurr1, 16);
 201:./Libraries/CMSIS/DSP/Source/FilteringFunctions/arm_fir_lattice_q15.c **** 
 202:./Libraries/CMSIS/DSP/Source/FilteringFunctions/arm_fir_lattice_q15.c ****       /* Process third sample for 3rd, 7th .. tap */
 203:./Libraries/CMSIS/DSP/Source/FilteringFunctions/arm_fir_lattice_q15.c ****       fcurr2 = (q31_t) ((gnext1 * (*pk)) >> 15U) + fnext2;
 204:./Libraries/CMSIS/DSP/Source/FilteringFunctions/arm_fir_lattice_q15.c ****       fcurr2 = __SSAT(fcurr2, 16);
 205:./Libraries/CMSIS/DSP/Source/FilteringFunctions/arm_fir_lattice_q15.c **** 
 206:./Libraries/CMSIS/DSP/Source/FilteringFunctions/arm_fir_lattice_q15.c ****       /* Process fourth sample for 3rd, 7th .. tap */
 207:./Libraries/CMSIS/DSP/Source/FilteringFunctions/arm_fir_lattice_q15.c ****       fcurr3 = (q31_t) ((gnext2 * (*pk)) >> 15U) + fnext3;
 208:./Libraries/CMSIS/DSP/Source/FilteringFunctions/arm_fir_lattice_q15.c ****       fcurr3 = __SSAT(fcurr3, 16);
 209:./Libraries/CMSIS/DSP/Source/FilteringFunctions/arm_fir_lattice_q15.c **** 
 210:./Libraries/CMSIS/DSP/Source/FilteringFunctions/arm_fir_lattice_q15.c ****       /* Calculation of state values for next stage */
 211:./Libraries/CMSIS/DSP/Source/FilteringFunctions/arm_fir_lattice_q15.c ****       /* g3(n) = f2(n) * K3  +  g2(n-1) */
 212:./Libraries/CMSIS/DSP/Source/FilteringFunctions/arm_fir_lattice_q15.c ****       gnext3 = (q31_t) ((fnext3 * (*pk)) >> 15U) + gnext2;
 213:./Libraries/CMSIS/DSP/Source/FilteringFunctions/arm_fir_lattice_q15.c ****       gnext3 = __SSAT(gnext3, 16);
 214:./Libraries/CMSIS/DSP/Source/FilteringFunctions/arm_fir_lattice_q15.c **** 
 215:./Libraries/CMSIS/DSP/Source/FilteringFunctions/arm_fir_lattice_q15.c ****       gnext2 = (q31_t) ((fnext2 * (*pk)) >> 15U) + gnext1;
 216:./Libraries/CMSIS/DSP/Source/FilteringFunctions/arm_fir_lattice_q15.c ****       gnext2 = __SSAT(gnext2, 16);
 217:./Libraries/CMSIS/DSP/Source/FilteringFunctions/arm_fir_lattice_q15.c **** 
 218:./Libraries/CMSIS/DSP/Source/FilteringFunctions/arm_fir_lattice_q15.c ****       gnext1 = (q31_t) ((fnext1 * (*pk)) >> 15U) + gnext0;
 219:./Libraries/CMSIS/DSP/Source/FilteringFunctions/arm_fir_lattice_q15.c ****       gnext1 = __SSAT(gnext1, 16);
 220:./Libraries/CMSIS/DSP/Source/FilteringFunctions/arm_fir_lattice_q15.c **** 
 221:./Libraries/CMSIS/DSP/Source/FilteringFunctions/arm_fir_lattice_q15.c ****       gnext0 = (q31_t) ((fnext0 * (*pk++)) >> 15U) + gcurr0;
 222:./Libraries/CMSIS/DSP/Source/FilteringFunctions/arm_fir_lattice_q15.c ****       gnext0 = __SSAT(gnext0, 16);
 223:./Libraries/CMSIS/DSP/Source/FilteringFunctions/arm_fir_lattice_q15.c **** 
 224:./Libraries/CMSIS/DSP/Source/FilteringFunctions/arm_fir_lattice_q15.c ****       /* Read g1(n-1), g3(n-1) .... from state */
ARM GAS  /tmp/ccgsg9xu.s 			page 6


 225:./Libraries/CMSIS/DSP/Source/FilteringFunctions/arm_fir_lattice_q15.c ****       gcurr0 = *px;
 226:./Libraries/CMSIS/DSP/Source/FilteringFunctions/arm_fir_lattice_q15.c **** 
 227:./Libraries/CMSIS/DSP/Source/FilteringFunctions/arm_fir_lattice_q15.c ****       /* save g1(n) in state buffer */
 228:./Libraries/CMSIS/DSP/Source/FilteringFunctions/arm_fir_lattice_q15.c ****       *px++ = (q15_t) gnext3;
 229:./Libraries/CMSIS/DSP/Source/FilteringFunctions/arm_fir_lattice_q15.c **** 
 230:./Libraries/CMSIS/DSP/Source/FilteringFunctions/arm_fir_lattice_q15.c ****       /* Sample processing for K4, K8.... */
 231:./Libraries/CMSIS/DSP/Source/FilteringFunctions/arm_fir_lattice_q15.c ****       /* Process first sample for 4th, 8th .. tap */
 232:./Libraries/CMSIS/DSP/Source/FilteringFunctions/arm_fir_lattice_q15.c ****       /* f4(n) = f3(n) +  K4 * g3(n-1) */
 233:./Libraries/CMSIS/DSP/Source/FilteringFunctions/arm_fir_lattice_q15.c ****       fnext0 = (q31_t) ((gcurr0 * (*pk)) >> 15U) + fcurr0;
 234:./Libraries/CMSIS/DSP/Source/FilteringFunctions/arm_fir_lattice_q15.c ****       fnext0 = __SSAT(fnext0, 16);
 235:./Libraries/CMSIS/DSP/Source/FilteringFunctions/arm_fir_lattice_q15.c **** 
 236:./Libraries/CMSIS/DSP/Source/FilteringFunctions/arm_fir_lattice_q15.c ****       /* Process second sample for 4th, 8th .. tap */
 237:./Libraries/CMSIS/DSP/Source/FilteringFunctions/arm_fir_lattice_q15.c ****       /* for sample 2 processing */
 238:./Libraries/CMSIS/DSP/Source/FilteringFunctions/arm_fir_lattice_q15.c ****       fnext1 = (q31_t) ((gnext0 * (*pk)) >> 15U) + fcurr1;
 239:./Libraries/CMSIS/DSP/Source/FilteringFunctions/arm_fir_lattice_q15.c ****       fnext1 = __SSAT(fnext1, 16);
 240:./Libraries/CMSIS/DSP/Source/FilteringFunctions/arm_fir_lattice_q15.c **** 
 241:./Libraries/CMSIS/DSP/Source/FilteringFunctions/arm_fir_lattice_q15.c ****       /* Process third sample for 4th, 8th .. tap */
 242:./Libraries/CMSIS/DSP/Source/FilteringFunctions/arm_fir_lattice_q15.c ****       fnext2 = (q31_t) ((gnext1 * (*pk)) >> 15U) + fcurr2;
 243:./Libraries/CMSIS/DSP/Source/FilteringFunctions/arm_fir_lattice_q15.c ****       fnext2 = __SSAT(fnext2, 16);
 244:./Libraries/CMSIS/DSP/Source/FilteringFunctions/arm_fir_lattice_q15.c **** 
 245:./Libraries/CMSIS/DSP/Source/FilteringFunctions/arm_fir_lattice_q15.c ****       /* Process fourth sample for 4th, 8th .. tap */
 246:./Libraries/CMSIS/DSP/Source/FilteringFunctions/arm_fir_lattice_q15.c ****       fnext3 = (q31_t) ((gnext2 * (*pk)) >> 15U) + fcurr3;
 247:./Libraries/CMSIS/DSP/Source/FilteringFunctions/arm_fir_lattice_q15.c ****       fnext3 = __SSAT(fnext3, 16);
 248:./Libraries/CMSIS/DSP/Source/FilteringFunctions/arm_fir_lattice_q15.c **** 
 249:./Libraries/CMSIS/DSP/Source/FilteringFunctions/arm_fir_lattice_q15.c ****       /* g4(n) = f3(n) * K4  +  g3(n-1) */
 250:./Libraries/CMSIS/DSP/Source/FilteringFunctions/arm_fir_lattice_q15.c ****       /* Calculation of state values for next stage */
 251:./Libraries/CMSIS/DSP/Source/FilteringFunctions/arm_fir_lattice_q15.c ****       gnext3 = (q31_t) ((fcurr3 * (*pk)) >> 15U) + gnext2;
 252:./Libraries/CMSIS/DSP/Source/FilteringFunctions/arm_fir_lattice_q15.c ****       gnext3 = __SSAT(gnext3, 16);
 253:./Libraries/CMSIS/DSP/Source/FilteringFunctions/arm_fir_lattice_q15.c **** 
 254:./Libraries/CMSIS/DSP/Source/FilteringFunctions/arm_fir_lattice_q15.c ****       gnext2 = (q31_t) ((fcurr2 * (*pk)) >> 15U) + gnext1;
 255:./Libraries/CMSIS/DSP/Source/FilteringFunctions/arm_fir_lattice_q15.c ****       gnext2 = __SSAT(gnext2, 16);
 256:./Libraries/CMSIS/DSP/Source/FilteringFunctions/arm_fir_lattice_q15.c **** 
 257:./Libraries/CMSIS/DSP/Source/FilteringFunctions/arm_fir_lattice_q15.c ****       gnext1 = (q31_t) ((fcurr1 * (*pk)) >> 15U) + gnext0;
 258:./Libraries/CMSIS/DSP/Source/FilteringFunctions/arm_fir_lattice_q15.c ****       gnext1 = __SSAT(gnext1, 16);
 259:./Libraries/CMSIS/DSP/Source/FilteringFunctions/arm_fir_lattice_q15.c **** 
 260:./Libraries/CMSIS/DSP/Source/FilteringFunctions/arm_fir_lattice_q15.c ****       gnext0 = (q31_t) ((fcurr0 * (*pk++)) >> 15U) + gcurr0;
 261:./Libraries/CMSIS/DSP/Source/FilteringFunctions/arm_fir_lattice_q15.c ****       gnext0 = __SSAT(gnext0, 16);
 262:./Libraries/CMSIS/DSP/Source/FilteringFunctions/arm_fir_lattice_q15.c **** 
 263:./Libraries/CMSIS/DSP/Source/FilteringFunctions/arm_fir_lattice_q15.c ****       /* Read g2(n-1), g4(n-1) .... from state */
 264:./Libraries/CMSIS/DSP/Source/FilteringFunctions/arm_fir_lattice_q15.c ****       gcurr0 = *px;
 265:./Libraries/CMSIS/DSP/Source/FilteringFunctions/arm_fir_lattice_q15.c **** 
 266:./Libraries/CMSIS/DSP/Source/FilteringFunctions/arm_fir_lattice_q15.c ****       /* save g4(n) in state buffer */
 267:./Libraries/CMSIS/DSP/Source/FilteringFunctions/arm_fir_lattice_q15.c ****       *px++ = (q15_t) gnext3;
 268:./Libraries/CMSIS/DSP/Source/FilteringFunctions/arm_fir_lattice_q15.c **** 
 269:./Libraries/CMSIS/DSP/Source/FilteringFunctions/arm_fir_lattice_q15.c ****       /* Sample processing for K5, K9.... */
 270:./Libraries/CMSIS/DSP/Source/FilteringFunctions/arm_fir_lattice_q15.c ****       /* Process first sample for 5th, 9th .. tap */
 271:./Libraries/CMSIS/DSP/Source/FilteringFunctions/arm_fir_lattice_q15.c ****       /* f5(n) = f4(n) +  K5 * g4(n-1) */
 272:./Libraries/CMSIS/DSP/Source/FilteringFunctions/arm_fir_lattice_q15.c ****       fcurr0 = (q31_t) ((gcurr0 * (*pk)) >> 15U) + fnext0;
 273:./Libraries/CMSIS/DSP/Source/FilteringFunctions/arm_fir_lattice_q15.c ****       fcurr0 = __SSAT(fcurr0, 16);
 274:./Libraries/CMSIS/DSP/Source/FilteringFunctions/arm_fir_lattice_q15.c **** 
 275:./Libraries/CMSIS/DSP/Source/FilteringFunctions/arm_fir_lattice_q15.c ****       /* Process second sample for 5th, 9th .. tap */
 276:./Libraries/CMSIS/DSP/Source/FilteringFunctions/arm_fir_lattice_q15.c ****       fcurr1 = (q31_t) ((gnext0 * (*pk)) >> 15U) + fnext1;
 277:./Libraries/CMSIS/DSP/Source/FilteringFunctions/arm_fir_lattice_q15.c ****       fcurr1 = __SSAT(fcurr1, 16);
 278:./Libraries/CMSIS/DSP/Source/FilteringFunctions/arm_fir_lattice_q15.c **** 
 279:./Libraries/CMSIS/DSP/Source/FilteringFunctions/arm_fir_lattice_q15.c ****       /* Process third sample for 5th, 9th .. tap */
 280:./Libraries/CMSIS/DSP/Source/FilteringFunctions/arm_fir_lattice_q15.c ****       fcurr2 = (q31_t) ((gnext1 * (*pk)) >> 15U) + fnext2;
 281:./Libraries/CMSIS/DSP/Source/FilteringFunctions/arm_fir_lattice_q15.c ****       fcurr2 = __SSAT(fcurr2, 16);
ARM GAS  /tmp/ccgsg9xu.s 			page 7


 282:./Libraries/CMSIS/DSP/Source/FilteringFunctions/arm_fir_lattice_q15.c **** 
 283:./Libraries/CMSIS/DSP/Source/FilteringFunctions/arm_fir_lattice_q15.c ****       /* Process fourth sample for 5th, 9th .. tap */
 284:./Libraries/CMSIS/DSP/Source/FilteringFunctions/arm_fir_lattice_q15.c ****       fcurr3 = (q31_t) ((gnext2 * (*pk)) >> 15U) + fnext3;
 285:./Libraries/CMSIS/DSP/Source/FilteringFunctions/arm_fir_lattice_q15.c ****       fcurr3 = __SSAT(fcurr3, 16);
 286:./Libraries/CMSIS/DSP/Source/FilteringFunctions/arm_fir_lattice_q15.c **** 
 287:./Libraries/CMSIS/DSP/Source/FilteringFunctions/arm_fir_lattice_q15.c ****       /* Calculation of state values for next stage */
 288:./Libraries/CMSIS/DSP/Source/FilteringFunctions/arm_fir_lattice_q15.c ****       /* g5(n) = f4(n) * K5  +  g4(n-1) */
 289:./Libraries/CMSIS/DSP/Source/FilteringFunctions/arm_fir_lattice_q15.c ****       gnext3 = (q31_t) ((fnext3 * (*pk)) >> 15U) + gnext2;
 290:./Libraries/CMSIS/DSP/Source/FilteringFunctions/arm_fir_lattice_q15.c ****       gnext3 = __SSAT(gnext3, 16);
 291:./Libraries/CMSIS/DSP/Source/FilteringFunctions/arm_fir_lattice_q15.c **** 
 292:./Libraries/CMSIS/DSP/Source/FilteringFunctions/arm_fir_lattice_q15.c ****       gnext2 = (q31_t) ((fnext2 * (*pk)) >> 15U) + gnext1;
 293:./Libraries/CMSIS/DSP/Source/FilteringFunctions/arm_fir_lattice_q15.c ****       gnext2 = __SSAT(gnext2, 16);
 294:./Libraries/CMSIS/DSP/Source/FilteringFunctions/arm_fir_lattice_q15.c **** 
 295:./Libraries/CMSIS/DSP/Source/FilteringFunctions/arm_fir_lattice_q15.c ****       gnext1 = (q31_t) ((fnext1 * (*pk)) >> 15U) + gnext0;
 296:./Libraries/CMSIS/DSP/Source/FilteringFunctions/arm_fir_lattice_q15.c ****       gnext1 = __SSAT(gnext1, 16);
 297:./Libraries/CMSIS/DSP/Source/FilteringFunctions/arm_fir_lattice_q15.c **** 
 298:./Libraries/CMSIS/DSP/Source/FilteringFunctions/arm_fir_lattice_q15.c ****       gnext0 = (q31_t) ((fnext0 * (*pk++)) >> 15U) + gcurr0;
 299:./Libraries/CMSIS/DSP/Source/FilteringFunctions/arm_fir_lattice_q15.c ****       gnext0 = __SSAT(gnext0, 16);
 300:./Libraries/CMSIS/DSP/Source/FilteringFunctions/arm_fir_lattice_q15.c **** 
 301:./Libraries/CMSIS/DSP/Source/FilteringFunctions/arm_fir_lattice_q15.c ****       stageCnt--;
 302:./Libraries/CMSIS/DSP/Source/FilteringFunctions/arm_fir_lattice_q15.c ****     }
 303:./Libraries/CMSIS/DSP/Source/FilteringFunctions/arm_fir_lattice_q15.c **** 
 304:./Libraries/CMSIS/DSP/Source/FilteringFunctions/arm_fir_lattice_q15.c ****     /* If the (filter length -1) is not a multiple of 4, compute the remaining filter taps */
 305:./Libraries/CMSIS/DSP/Source/FilteringFunctions/arm_fir_lattice_q15.c ****     stageCnt = (numStages - 1U) % 0x4U;
 306:./Libraries/CMSIS/DSP/Source/FilteringFunctions/arm_fir_lattice_q15.c **** 
 307:./Libraries/CMSIS/DSP/Source/FilteringFunctions/arm_fir_lattice_q15.c ****     while (stageCnt > 0U)
 308:./Libraries/CMSIS/DSP/Source/FilteringFunctions/arm_fir_lattice_q15.c ****     {
 309:./Libraries/CMSIS/DSP/Source/FilteringFunctions/arm_fir_lattice_q15.c ****       gcurr0 = *px;
 310:./Libraries/CMSIS/DSP/Source/FilteringFunctions/arm_fir_lattice_q15.c **** 
 311:./Libraries/CMSIS/DSP/Source/FilteringFunctions/arm_fir_lattice_q15.c ****       /* save g value in state buffer */
 312:./Libraries/CMSIS/DSP/Source/FilteringFunctions/arm_fir_lattice_q15.c ****       *px++ = (q15_t) gnext3;
 313:./Libraries/CMSIS/DSP/Source/FilteringFunctions/arm_fir_lattice_q15.c **** 
 314:./Libraries/CMSIS/DSP/Source/FilteringFunctions/arm_fir_lattice_q15.c ****       /* Process four samples for last three taps here */
 315:./Libraries/CMSIS/DSP/Source/FilteringFunctions/arm_fir_lattice_q15.c ****       fnext0 = (q31_t) ((gcurr0 * (*pk)) >> 15U) + fcurr0;
 316:./Libraries/CMSIS/DSP/Source/FilteringFunctions/arm_fir_lattice_q15.c ****       fnext0 = __SSAT(fnext0, 16);
 317:./Libraries/CMSIS/DSP/Source/FilteringFunctions/arm_fir_lattice_q15.c **** 
 318:./Libraries/CMSIS/DSP/Source/FilteringFunctions/arm_fir_lattice_q15.c ****       fnext1 = (q31_t) ((gnext0 * (*pk)) >> 15U) + fcurr1;
 319:./Libraries/CMSIS/DSP/Source/FilteringFunctions/arm_fir_lattice_q15.c ****       fnext1 = __SSAT(fnext1, 16);
 320:./Libraries/CMSIS/DSP/Source/FilteringFunctions/arm_fir_lattice_q15.c **** 
 321:./Libraries/CMSIS/DSP/Source/FilteringFunctions/arm_fir_lattice_q15.c ****       fnext2 = (q31_t) ((gnext1 * (*pk)) >> 15U) + fcurr2;
 322:./Libraries/CMSIS/DSP/Source/FilteringFunctions/arm_fir_lattice_q15.c ****       fnext2 = __SSAT(fnext2, 16);
 323:./Libraries/CMSIS/DSP/Source/FilteringFunctions/arm_fir_lattice_q15.c **** 
 324:./Libraries/CMSIS/DSP/Source/FilteringFunctions/arm_fir_lattice_q15.c ****       fnext3 = (q31_t) ((gnext2 * (*pk)) >> 15U) + fcurr3;
 325:./Libraries/CMSIS/DSP/Source/FilteringFunctions/arm_fir_lattice_q15.c ****       fnext3 = __SSAT(fnext3, 16);
 326:./Libraries/CMSIS/DSP/Source/FilteringFunctions/arm_fir_lattice_q15.c **** 
 327:./Libraries/CMSIS/DSP/Source/FilteringFunctions/arm_fir_lattice_q15.c ****       /* g1(n) = f0(n) * K1  +  g0(n-1) */
 328:./Libraries/CMSIS/DSP/Source/FilteringFunctions/arm_fir_lattice_q15.c ****       gnext3 = (q31_t) ((fcurr3 * (*pk)) >> 15U) + gnext2;
 329:./Libraries/CMSIS/DSP/Source/FilteringFunctions/arm_fir_lattice_q15.c ****       gnext3 = __SSAT(gnext3, 16);
 330:./Libraries/CMSIS/DSP/Source/FilteringFunctions/arm_fir_lattice_q15.c **** 
 331:./Libraries/CMSIS/DSP/Source/FilteringFunctions/arm_fir_lattice_q15.c ****       gnext2 = (q31_t) ((fcurr2 * (*pk)) >> 15U) + gnext1;
 332:./Libraries/CMSIS/DSP/Source/FilteringFunctions/arm_fir_lattice_q15.c ****       gnext2 = __SSAT(gnext2, 16);
 333:./Libraries/CMSIS/DSP/Source/FilteringFunctions/arm_fir_lattice_q15.c **** 
 334:./Libraries/CMSIS/DSP/Source/FilteringFunctions/arm_fir_lattice_q15.c ****       gnext1 = (q31_t) ((fcurr1 * (*pk)) >> 15U) + gnext0;
 335:./Libraries/CMSIS/DSP/Source/FilteringFunctions/arm_fir_lattice_q15.c ****       gnext1 = __SSAT(gnext1, 16);
 336:./Libraries/CMSIS/DSP/Source/FilteringFunctions/arm_fir_lattice_q15.c **** 
 337:./Libraries/CMSIS/DSP/Source/FilteringFunctions/arm_fir_lattice_q15.c ****       gnext0 = (q31_t) ((fcurr0 * (*pk++)) >> 15U) + gcurr0;
 338:./Libraries/CMSIS/DSP/Source/FilteringFunctions/arm_fir_lattice_q15.c ****       gnext0 = __SSAT(gnext0, 16);
ARM GAS  /tmp/ccgsg9xu.s 			page 8


 339:./Libraries/CMSIS/DSP/Source/FilteringFunctions/arm_fir_lattice_q15.c **** 
 340:./Libraries/CMSIS/DSP/Source/FilteringFunctions/arm_fir_lattice_q15.c ****       /* Update of f values for next coefficient set processing */
 341:./Libraries/CMSIS/DSP/Source/FilteringFunctions/arm_fir_lattice_q15.c ****       fcurr0 = fnext0;
 342:./Libraries/CMSIS/DSP/Source/FilteringFunctions/arm_fir_lattice_q15.c ****       fcurr1 = fnext1;
 343:./Libraries/CMSIS/DSP/Source/FilteringFunctions/arm_fir_lattice_q15.c ****       fcurr2 = fnext2;
 344:./Libraries/CMSIS/DSP/Source/FilteringFunctions/arm_fir_lattice_q15.c ****       fcurr3 = fnext3;
 345:./Libraries/CMSIS/DSP/Source/FilteringFunctions/arm_fir_lattice_q15.c **** 
 346:./Libraries/CMSIS/DSP/Source/FilteringFunctions/arm_fir_lattice_q15.c ****       stageCnt--;
 347:./Libraries/CMSIS/DSP/Source/FilteringFunctions/arm_fir_lattice_q15.c ****     }
 348:./Libraries/CMSIS/DSP/Source/FilteringFunctions/arm_fir_lattice_q15.c **** 
 349:./Libraries/CMSIS/DSP/Source/FilteringFunctions/arm_fir_lattice_q15.c ****     /* The results in the 4 accumulators, store in the destination buffer. */
 350:./Libraries/CMSIS/DSP/Source/FilteringFunctions/arm_fir_lattice_q15.c ****     /* y(n) = fN(n) */
 351:./Libraries/CMSIS/DSP/Source/FilteringFunctions/arm_fir_lattice_q15.c **** 
 352:./Libraries/CMSIS/DSP/Source/FilteringFunctions/arm_fir_lattice_q15.c **** #ifndef  ARM_MATH_BIG_ENDIAN
 353:./Libraries/CMSIS/DSP/Source/FilteringFunctions/arm_fir_lattice_q15.c ****     write_q15x2_ia (&pDst, __PKHBT(fcurr0, fcurr1, 16));
 354:./Libraries/CMSIS/DSP/Source/FilteringFunctions/arm_fir_lattice_q15.c ****     write_q15x2_ia (&pDst, __PKHBT(fcurr2, fcurr3, 16));
 355:./Libraries/CMSIS/DSP/Source/FilteringFunctions/arm_fir_lattice_q15.c **** #else
 356:./Libraries/CMSIS/DSP/Source/FilteringFunctions/arm_fir_lattice_q15.c ****     write_q15x2_ia (&pDst, __PKHBT(fcurr1, fcurr0, 16));
 357:./Libraries/CMSIS/DSP/Source/FilteringFunctions/arm_fir_lattice_q15.c ****     write_q15x2_ia (&pDst, __PKHBT(fcurr3, fcurr2, 16));
 358:./Libraries/CMSIS/DSP/Source/FilteringFunctions/arm_fir_lattice_q15.c **** #endif /* #ifndef  ARM_MATH_BIG_ENDIAN */
 359:./Libraries/CMSIS/DSP/Source/FilteringFunctions/arm_fir_lattice_q15.c **** 
 360:./Libraries/CMSIS/DSP/Source/FilteringFunctions/arm_fir_lattice_q15.c ****     blkCnt--;
 361:./Libraries/CMSIS/DSP/Source/FilteringFunctions/arm_fir_lattice_q15.c ****   }
 362:./Libraries/CMSIS/DSP/Source/FilteringFunctions/arm_fir_lattice_q15.c **** 
 363:./Libraries/CMSIS/DSP/Source/FilteringFunctions/arm_fir_lattice_q15.c ****   /* Loop unrolling: Compute remaining outputs */
 364:./Libraries/CMSIS/DSP/Source/FilteringFunctions/arm_fir_lattice_q15.c ****   blkCnt = blockSize % 0x4U;
 365:./Libraries/CMSIS/DSP/Source/FilteringFunctions/arm_fir_lattice_q15.c **** 
 366:./Libraries/CMSIS/DSP/Source/FilteringFunctions/arm_fir_lattice_q15.c **** #else
 367:./Libraries/CMSIS/DSP/Source/FilteringFunctions/arm_fir_lattice_q15.c **** 
 368:./Libraries/CMSIS/DSP/Source/FilteringFunctions/arm_fir_lattice_q15.c ****   /* Initialize blkCnt with number of samples */
 369:./Libraries/CMSIS/DSP/Source/FilteringFunctions/arm_fir_lattice_q15.c ****   blkCnt = blockSize;
  63              		.loc 1 369 10
  64 0024 3B68     		ldr	r3, [r7]
  65 0026 FB65     		str	r3, [r7, #92]
 370:./Libraries/CMSIS/DSP/Source/FilteringFunctions/arm_fir_lattice_q15.c **** 
 371:./Libraries/CMSIS/DSP/Source/FilteringFunctions/arm_fir_lattice_q15.c **** #endif /* #if defined (ARM_MATH_LOOPUNROLL) */
 372:./Libraries/CMSIS/DSP/Source/FilteringFunctions/arm_fir_lattice_q15.c **** 
 373:./Libraries/CMSIS/DSP/Source/FilteringFunctions/arm_fir_lattice_q15.c ****   while (blkCnt > 0U)
  66              		.loc 1 373 9
  67 0028 8AE0     		b	.L2
  68              	.L5:
 374:./Libraries/CMSIS/DSP/Source/FilteringFunctions/arm_fir_lattice_q15.c ****   {
 375:./Libraries/CMSIS/DSP/Source/FilteringFunctions/arm_fir_lattice_q15.c ****     /* f0(n) = x(n) */
 376:./Libraries/CMSIS/DSP/Source/FilteringFunctions/arm_fir_lattice_q15.c ****     fcurr0 = *pSrc++;
  69              		.loc 1 376 19
  70 002a BB68     		ldr	r3, [r7, #8]
  71 002c 9A1C     		adds	r2, r3, #2
  72 002e BA60     		str	r2, [r7, #8]
  73              		.loc 1 376 14
  74 0030 B3F90030 		ldrsh	r3, [r3]
  75              		.loc 1 376 12
  76 0034 7B65     		str	r3, [r7, #84]
 377:./Libraries/CMSIS/DSP/Source/FilteringFunctions/arm_fir_lattice_q15.c **** 
 378:./Libraries/CMSIS/DSP/Source/FilteringFunctions/arm_fir_lattice_q15.c ****     /* Initialize state pointer */
 379:./Libraries/CMSIS/DSP/Source/FilteringFunctions/arm_fir_lattice_q15.c ****     px = pState;
  77              		.loc 1 379 8
  78 0036 FB6C     		ldr	r3, [r7, #76]
ARM GAS  /tmp/ccgsg9xu.s 			page 9


  79 0038 7B66     		str	r3, [r7, #100]
 380:./Libraries/CMSIS/DSP/Source/FilteringFunctions/arm_fir_lattice_q15.c **** 
 381:./Libraries/CMSIS/DSP/Source/FilteringFunctions/arm_fir_lattice_q15.c ****     /* Initialize coeff pointer */
 382:./Libraries/CMSIS/DSP/Source/FilteringFunctions/arm_fir_lattice_q15.c ****     pk = pCoeffs;
  80              		.loc 1 382 8
  81 003a BB6C     		ldr	r3, [r7, #72]
  82 003c 3B66     		str	r3, [r7, #96]
 383:./Libraries/CMSIS/DSP/Source/FilteringFunctions/arm_fir_lattice_q15.c **** 
 384:./Libraries/CMSIS/DSP/Source/FilteringFunctions/arm_fir_lattice_q15.c ****     /* read g2(n) from state buffer */
 385:./Libraries/CMSIS/DSP/Source/FilteringFunctions/arm_fir_lattice_q15.c ****     gcurr0 = *px;
  83              		.loc 1 385 14
  84 003e 7B6E     		ldr	r3, [r7, #100]
  85 0040 B3F90030 		ldrsh	r3, [r3]
  86              		.loc 1 385 12
  87 0044 3B64     		str	r3, [r7, #64]
 386:./Libraries/CMSIS/DSP/Source/FilteringFunctions/arm_fir_lattice_q15.c **** 
 387:./Libraries/CMSIS/DSP/Source/FilteringFunctions/arm_fir_lattice_q15.c ****     /* for sample 1 processing */
 388:./Libraries/CMSIS/DSP/Source/FilteringFunctions/arm_fir_lattice_q15.c ****     /* f1(n) = f0(n) +  K1 * g0(n-1) */
 389:./Libraries/CMSIS/DSP/Source/FilteringFunctions/arm_fir_lattice_q15.c ****     fnext0 = (((q31_t) gcurr0 * (*pk)) >> 15U) + fcurr0;
  88              		.loc 1 389 34
  89 0046 3B6E     		ldr	r3, [r7, #96]
  90 0048 B3F90030 		ldrsh	r3, [r3]
  91 004c 1A46     		mov	r2, r3
  92              		.loc 1 389 31
  93 004e 3B6C     		ldr	r3, [r7, #64]
  94 0050 03FB02F3 		mul	r3, r3, r2
  95              		.loc 1 389 40
  96 0054 DB13     		asrs	r3, r3, #15
  97              		.loc 1 389 12
  98 0056 7A6D     		ldr	r2, [r7, #84]
  99 0058 1344     		add	r3, r3, r2
 100 005a FB63     		str	r3, [r7, #60]
 101              	.LBB2:
 390:./Libraries/CMSIS/DSP/Source/FilteringFunctions/arm_fir_lattice_q15.c ****     fnext0 = __SSAT(fnext0, 16);
 102              		.loc 1 390 14
 103 005c FB6B     		ldr	r3, [r7, #60]
 104 005e BB63     		str	r3, [r7, #56]
 105 0060 BB6B     		ldr	r3, [r7, #56]
 106              		.syntax unified
 107              	@ 390 "./Libraries/CMSIS/DSP/Source/FilteringFunctions/arm_fir_lattice_q15.c" 1
 108 0062 03F30F03 		ssat r3, #16, r3
 109              	@ 0 "" 2
 110              		.thumb
 111              		.syntax unified
 112 0066 7B63     		str	r3, [r7, #52]
 113 0068 7B6B     		ldr	r3, [r7, #52]
 114              	.LBE2:
 115              		.loc 1 390 12
 116 006a FB63     		str	r3, [r7, #60]
 391:./Libraries/CMSIS/DSP/Source/FilteringFunctions/arm_fir_lattice_q15.c **** 
 392:./Libraries/CMSIS/DSP/Source/FilteringFunctions/arm_fir_lattice_q15.c ****     /* g1(n) = f0(n) * K1  +  g0(n-1) */
 393:./Libraries/CMSIS/DSP/Source/FilteringFunctions/arm_fir_lattice_q15.c ****     gnext0 = (((q31_t) fcurr0 * (*pk++)) >> 15U) + gcurr0;
 117              		.loc 1 393 37
 118 006c 3B6E     		ldr	r3, [r7, #96]
 119 006e 9A1C     		adds	r2, r3, #2
 120 0070 3A66     		str	r2, [r7, #96]
 121              		.loc 1 393 34
ARM GAS  /tmp/ccgsg9xu.s 			page 10


 122 0072 B3F90030 		ldrsh	r3, [r3]
 123 0076 1A46     		mov	r2, r3
 124              		.loc 1 393 31
 125 0078 7B6D     		ldr	r3, [r7, #84]
 126 007a 03FB02F3 		mul	r3, r3, r2
 127              		.loc 1 393 42
 128 007e DB13     		asrs	r3, r3, #15
 129              		.loc 1 393 12
 130 0080 3A6C     		ldr	r2, [r7, #64]
 131 0082 1344     		add	r3, r3, r2
 132 0084 3B65     		str	r3, [r7, #80]
 133              	.LBB3:
 394:./Libraries/CMSIS/DSP/Source/FilteringFunctions/arm_fir_lattice_q15.c ****     gnext0 = __SSAT(gnext0, 16);
 134              		.loc 1 394 14
 135 0086 3B6D     		ldr	r3, [r7, #80]
 136 0088 3B63     		str	r3, [r7, #48]
 137 008a 3B6B     		ldr	r3, [r7, #48]
 138              		.syntax unified
 139              	@ 394 "./Libraries/CMSIS/DSP/Source/FilteringFunctions/arm_fir_lattice_q15.c" 1
 140 008c 03F30F03 		ssat r3, #16, r3
 141              	@ 0 "" 2
 142              		.thumb
 143              		.syntax unified
 144 0090 FB62     		str	r3, [r7, #44]
 145 0092 FB6A     		ldr	r3, [r7, #44]
 146              	.LBE3:
 147              		.loc 1 394 12
 148 0094 3B65     		str	r3, [r7, #80]
 395:./Libraries/CMSIS/DSP/Source/FilteringFunctions/arm_fir_lattice_q15.c **** 
 396:./Libraries/CMSIS/DSP/Source/FilteringFunctions/arm_fir_lattice_q15.c ****     /* save g1(n) in state buffer */
 397:./Libraries/CMSIS/DSP/Source/FilteringFunctions/arm_fir_lattice_q15.c ****     *px++ = (q15_t) fcurr0;
 149              		.loc 1 397 8
 150 0096 7B6E     		ldr	r3, [r7, #100]
 151 0098 9A1C     		adds	r2, r3, #2
 152 009a 7A66     		str	r2, [r7, #100]
 153              		.loc 1 397 13
 154 009c 7A6D     		ldr	r2, [r7, #84]
 155 009e 12B2     		sxth	r2, r2
 156              		.loc 1 397 11
 157 00a0 1A80     		strh	r2, [r3]	@ movhi
 398:./Libraries/CMSIS/DSP/Source/FilteringFunctions/arm_fir_lattice_q15.c **** 
 399:./Libraries/CMSIS/DSP/Source/FilteringFunctions/arm_fir_lattice_q15.c ****     /* f1(n) is saved in fcurr0 for next stage processing */
 400:./Libraries/CMSIS/DSP/Source/FilteringFunctions/arm_fir_lattice_q15.c ****     fcurr0 = fnext0;
 158              		.loc 1 400 12
 159 00a2 FB6B     		ldr	r3, [r7, #60]
 160 00a4 7B65     		str	r3, [r7, #84]
 401:./Libraries/CMSIS/DSP/Source/FilteringFunctions/arm_fir_lattice_q15.c **** 
 402:./Libraries/CMSIS/DSP/Source/FilteringFunctions/arm_fir_lattice_q15.c ****     stageCnt = (numStages - 1U);
 161              		.loc 1 402 14
 162 00a6 7B6C     		ldr	r3, [r7, #68]
 163 00a8 013B     		subs	r3, r3, #1
 164 00aa BB65     		str	r3, [r7, #88]
 403:./Libraries/CMSIS/DSP/Source/FilteringFunctions/arm_fir_lattice_q15.c **** 
 404:./Libraries/CMSIS/DSP/Source/FilteringFunctions/arm_fir_lattice_q15.c ****     /* stage loop */
 405:./Libraries/CMSIS/DSP/Source/FilteringFunctions/arm_fir_lattice_q15.c ****     while (stageCnt > 0U)
 165              		.loc 1 405 11
 166 00ac 36E0     		b	.L3
ARM GAS  /tmp/ccgsg9xu.s 			page 11


 167              	.L4:
 406:./Libraries/CMSIS/DSP/Source/FilteringFunctions/arm_fir_lattice_q15.c ****     {
 407:./Libraries/CMSIS/DSP/Source/FilteringFunctions/arm_fir_lattice_q15.c ****       /* read g2(n) from state buffer */
 408:./Libraries/CMSIS/DSP/Source/FilteringFunctions/arm_fir_lattice_q15.c ****       gcurr0 = *px;
 168              		.loc 1 408 16
 169 00ae 7B6E     		ldr	r3, [r7, #100]
 170 00b0 B3F90030 		ldrsh	r3, [r3]
 171              		.loc 1 408 14
 172 00b4 3B64     		str	r3, [r7, #64]
 409:./Libraries/CMSIS/DSP/Source/FilteringFunctions/arm_fir_lattice_q15.c **** 
 410:./Libraries/CMSIS/DSP/Source/FilteringFunctions/arm_fir_lattice_q15.c ****       /* save g1(n) in state buffer */
 411:./Libraries/CMSIS/DSP/Source/FilteringFunctions/arm_fir_lattice_q15.c ****       *px++ = (q15_t) gnext0;
 173              		.loc 1 411 10
 174 00b6 7B6E     		ldr	r3, [r7, #100]
 175 00b8 9A1C     		adds	r2, r3, #2
 176 00ba 7A66     		str	r2, [r7, #100]
 177              		.loc 1 411 15
 178 00bc 3A6D     		ldr	r2, [r7, #80]
 179 00be 12B2     		sxth	r2, r2
 180              		.loc 1 411 13
 181 00c0 1A80     		strh	r2, [r3]	@ movhi
 412:./Libraries/CMSIS/DSP/Source/FilteringFunctions/arm_fir_lattice_q15.c **** 
 413:./Libraries/CMSIS/DSP/Source/FilteringFunctions/arm_fir_lattice_q15.c ****       /* Sample processing for K2, K3.... */
 414:./Libraries/CMSIS/DSP/Source/FilteringFunctions/arm_fir_lattice_q15.c ****       /* f2(n) = f1(n) +  K2 * g1(n-1) */
 415:./Libraries/CMSIS/DSP/Source/FilteringFunctions/arm_fir_lattice_q15.c ****       fnext0 = (((q31_t) gcurr0 * (*pk)) >> 15U) + fcurr0;
 182              		.loc 1 415 36
 183 00c2 3B6E     		ldr	r3, [r7, #96]
 184 00c4 B3F90030 		ldrsh	r3, [r3]
 185 00c8 1A46     		mov	r2, r3
 186              		.loc 1 415 33
 187 00ca 3B6C     		ldr	r3, [r7, #64]
 188 00cc 03FB02F3 		mul	r3, r3, r2
 189              		.loc 1 415 42
 190 00d0 DB13     		asrs	r3, r3, #15
 191              		.loc 1 415 14
 192 00d2 7A6D     		ldr	r2, [r7, #84]
 193 00d4 1344     		add	r3, r3, r2
 194 00d6 FB63     		str	r3, [r7, #60]
 195              	.LBB4:
 416:./Libraries/CMSIS/DSP/Source/FilteringFunctions/arm_fir_lattice_q15.c ****       fnext0 = __SSAT(fnext0, 16);
 196              		.loc 1 416 16
 197 00d8 FB6B     		ldr	r3, [r7, #60]
 198 00da 3B62     		str	r3, [r7, #32]
 199 00dc 3B6A     		ldr	r3, [r7, #32]
 200              		.syntax unified
 201              	@ 416 "./Libraries/CMSIS/DSP/Source/FilteringFunctions/arm_fir_lattice_q15.c" 1
 202 00de 03F30F03 		ssat r3, #16, r3
 203              	@ 0 "" 2
 204              		.thumb
 205              		.syntax unified
 206 00e2 FB61     		str	r3, [r7, #28]
 207 00e4 FB69     		ldr	r3, [r7, #28]
 208              	.LBE4:
 209              		.loc 1 416 14
 210 00e6 FB63     		str	r3, [r7, #60]
 417:./Libraries/CMSIS/DSP/Source/FilteringFunctions/arm_fir_lattice_q15.c **** 
 418:./Libraries/CMSIS/DSP/Source/FilteringFunctions/arm_fir_lattice_q15.c ****       /* g2(n) = f1(n) * K2  +  g1(n-1) */
ARM GAS  /tmp/ccgsg9xu.s 			page 12


 419:./Libraries/CMSIS/DSP/Source/FilteringFunctions/arm_fir_lattice_q15.c ****       gnext0 = (((q31_t) fcurr0 * (*pk++)) >> 15U) + gcurr0;
 211              		.loc 1 419 39
 212 00e8 3B6E     		ldr	r3, [r7, #96]
 213 00ea 9A1C     		adds	r2, r3, #2
 214 00ec 3A66     		str	r2, [r7, #96]
 215              		.loc 1 419 36
 216 00ee B3F90030 		ldrsh	r3, [r3]
 217 00f2 1A46     		mov	r2, r3
 218              		.loc 1 419 33
 219 00f4 7B6D     		ldr	r3, [r7, #84]
 220 00f6 03FB02F3 		mul	r3, r3, r2
 221              		.loc 1 419 44
 222 00fa DB13     		asrs	r3, r3, #15
 223              		.loc 1 419 14
 224 00fc 3A6C     		ldr	r2, [r7, #64]
 225 00fe 1344     		add	r3, r3, r2
 226 0100 3B65     		str	r3, [r7, #80]
 227              	.LBB5:
 420:./Libraries/CMSIS/DSP/Source/FilteringFunctions/arm_fir_lattice_q15.c ****       gnext0 = __SSAT(gnext0, 16);
 228              		.loc 1 420 16
 229 0102 3B6D     		ldr	r3, [r7, #80]
 230 0104 BB61     		str	r3, [r7, #24]
 231 0106 BB69     		ldr	r3, [r7, #24]
 232              		.syntax unified
 233              	@ 420 "./Libraries/CMSIS/DSP/Source/FilteringFunctions/arm_fir_lattice_q15.c" 1
 234 0108 03F30F03 		ssat r3, #16, r3
 235              	@ 0 "" 2
 236              		.thumb
 237              		.syntax unified
 238 010c 7B61     		str	r3, [r7, #20]
 239 010e 7B69     		ldr	r3, [r7, #20]
 240              	.LBE5:
 241              		.loc 1 420 14
 242 0110 3B65     		str	r3, [r7, #80]
 421:./Libraries/CMSIS/DSP/Source/FilteringFunctions/arm_fir_lattice_q15.c **** 
 422:./Libraries/CMSIS/DSP/Source/FilteringFunctions/arm_fir_lattice_q15.c ****       /* f1(n) is saved in fcurr0 for next stage processing */
 423:./Libraries/CMSIS/DSP/Source/FilteringFunctions/arm_fir_lattice_q15.c ****       fcurr0 = fnext0;
 243              		.loc 1 423 14
 244 0112 FB6B     		ldr	r3, [r7, #60]
 245 0114 7B65     		str	r3, [r7, #84]
 424:./Libraries/CMSIS/DSP/Source/FilteringFunctions/arm_fir_lattice_q15.c **** 
 425:./Libraries/CMSIS/DSP/Source/FilteringFunctions/arm_fir_lattice_q15.c ****       stageCnt--;
 246              		.loc 1 425 15
 247 0116 BB6D     		ldr	r3, [r7, #88]
 248 0118 013B     		subs	r3, r3, #1
 249 011a BB65     		str	r3, [r7, #88]
 250              	.L3:
 405:./Libraries/CMSIS/DSP/Source/FilteringFunctions/arm_fir_lattice_q15.c ****     {
 251              		.loc 1 405 11
 252 011c BB6D     		ldr	r3, [r7, #88]
 253 011e 002B     		cmp	r3, #0
 254 0120 C5D1     		bne	.L4
 255              	.LBB6:
 426:./Libraries/CMSIS/DSP/Source/FilteringFunctions/arm_fir_lattice_q15.c ****     }
 427:./Libraries/CMSIS/DSP/Source/FilteringFunctions/arm_fir_lattice_q15.c **** 
 428:./Libraries/CMSIS/DSP/Source/FilteringFunctions/arm_fir_lattice_q15.c ****     /* y(n) = fN(n) */
 429:./Libraries/CMSIS/DSP/Source/FilteringFunctions/arm_fir_lattice_q15.c ****     *pDst++ = __SSAT(fcurr0, 16);
ARM GAS  /tmp/ccgsg9xu.s 			page 13


 256              		.loc 1 429 15
 257 0122 7B6D     		ldr	r3, [r7, #84]
 258 0124 BB62     		str	r3, [r7, #40]
 259 0126 BB6A     		ldr	r3, [r7, #40]
 260              		.syntax unified
 261              	@ 429 "./Libraries/CMSIS/DSP/Source/FilteringFunctions/arm_fir_lattice_q15.c" 1
 262 0128 03F30F03 		ssat r3, #16, r3
 263              	@ 0 "" 2
 264              		.thumb
 265              		.syntax unified
 266 012c 7B62     		str	r3, [r7, #36]
 267 012e 796A     		ldr	r1, [r7, #36]
 268              	.LBE6:
 269              		.loc 1 429 10
 270 0130 7B68     		ldr	r3, [r7, #4]
 271 0132 9A1C     		adds	r2, r3, #2
 272 0134 7A60     		str	r2, [r7, #4]
 273              		.loc 1 429 13
 274 0136 0AB2     		sxth	r2, r1
 275 0138 1A80     		strh	r2, [r3]	@ movhi
 430:./Libraries/CMSIS/DSP/Source/FilteringFunctions/arm_fir_lattice_q15.c **** 
 431:./Libraries/CMSIS/DSP/Source/FilteringFunctions/arm_fir_lattice_q15.c ****     blkCnt--;
 276              		.loc 1 431 11
 277 013a FB6D     		ldr	r3, [r7, #92]
 278 013c 013B     		subs	r3, r3, #1
 279 013e FB65     		str	r3, [r7, #92]
 280              	.L2:
 373:./Libraries/CMSIS/DSP/Source/FilteringFunctions/arm_fir_lattice_q15.c ****   {
 281              		.loc 1 373 9
 282 0140 FB6D     		ldr	r3, [r7, #92]
 283 0142 002B     		cmp	r3, #0
 284 0144 7FF471AF 		bne	.L5
 432:./Libraries/CMSIS/DSP/Source/FilteringFunctions/arm_fir_lattice_q15.c ****   }
 433:./Libraries/CMSIS/DSP/Source/FilteringFunctions/arm_fir_lattice_q15.c **** 
 434:./Libraries/CMSIS/DSP/Source/FilteringFunctions/arm_fir_lattice_q15.c **** #else
 435:./Libraries/CMSIS/DSP/Source/FilteringFunctions/arm_fir_lattice_q15.c **** /* alternate version for CM0_FAMILY */
 436:./Libraries/CMSIS/DSP/Source/FilteringFunctions/arm_fir_lattice_q15.c **** 
 437:./Libraries/CMSIS/DSP/Source/FilteringFunctions/arm_fir_lattice_q15.c ****   blkCnt = blockSize;
 438:./Libraries/CMSIS/DSP/Source/FilteringFunctions/arm_fir_lattice_q15.c **** 
 439:./Libraries/CMSIS/DSP/Source/FilteringFunctions/arm_fir_lattice_q15.c ****   while (blkCnt > 0U)
 440:./Libraries/CMSIS/DSP/Source/FilteringFunctions/arm_fir_lattice_q15.c ****   {
 441:./Libraries/CMSIS/DSP/Source/FilteringFunctions/arm_fir_lattice_q15.c ****     /* f0(n) = x(n) */
 442:./Libraries/CMSIS/DSP/Source/FilteringFunctions/arm_fir_lattice_q15.c ****     fcurr0 = *pSrc++;
 443:./Libraries/CMSIS/DSP/Source/FilteringFunctions/arm_fir_lattice_q15.c **** 
 444:./Libraries/CMSIS/DSP/Source/FilteringFunctions/arm_fir_lattice_q15.c ****     /* Initialize state pointer */
 445:./Libraries/CMSIS/DSP/Source/FilteringFunctions/arm_fir_lattice_q15.c ****     px = pState;
 446:./Libraries/CMSIS/DSP/Source/FilteringFunctions/arm_fir_lattice_q15.c **** 
 447:./Libraries/CMSIS/DSP/Source/FilteringFunctions/arm_fir_lattice_q15.c ****     /* Initialize coeff pointer */
 448:./Libraries/CMSIS/DSP/Source/FilteringFunctions/arm_fir_lattice_q15.c ****     pk = pCoeffs;
 449:./Libraries/CMSIS/DSP/Source/FilteringFunctions/arm_fir_lattice_q15.c **** 
 450:./Libraries/CMSIS/DSP/Source/FilteringFunctions/arm_fir_lattice_q15.c ****     /* read g0(n-1) from state buffer */
 451:./Libraries/CMSIS/DSP/Source/FilteringFunctions/arm_fir_lattice_q15.c ****     gcurr0 = *px;
 452:./Libraries/CMSIS/DSP/Source/FilteringFunctions/arm_fir_lattice_q15.c **** 
 453:./Libraries/CMSIS/DSP/Source/FilteringFunctions/arm_fir_lattice_q15.c ****     /* for sample 1 processing */
 454:./Libraries/CMSIS/DSP/Source/FilteringFunctions/arm_fir_lattice_q15.c ****     /* f1(n) = f0(n) +  K1 * g0(n-1) */
 455:./Libraries/CMSIS/DSP/Source/FilteringFunctions/arm_fir_lattice_q15.c ****     fnext0 = ((gcurr0 * (*pk)) >> 15U) + fcurr0;
 456:./Libraries/CMSIS/DSP/Source/FilteringFunctions/arm_fir_lattice_q15.c ****     fnext0 = __SSAT(fnext, 16);
ARM GAS  /tmp/ccgsg9xu.s 			page 14


 457:./Libraries/CMSIS/DSP/Source/FilteringFunctions/arm_fir_lattice_q15.c **** 
 458:./Libraries/CMSIS/DSP/Source/FilteringFunctions/arm_fir_lattice_q15.c ****     /* g1(n) = f0(n) * K1  +  g0(n-1) */
 459:./Libraries/CMSIS/DSP/Source/FilteringFunctions/arm_fir_lattice_q15.c ****     gnext0 = ((fcurr0 * (*pk++)) >> 15U) + gcurr0;
 460:./Libraries/CMSIS/DSP/Source/FilteringFunctions/arm_fir_lattice_q15.c ****     gnext0 = __SSAT(gnext0, 16);
 461:./Libraries/CMSIS/DSP/Source/FilteringFunctions/arm_fir_lattice_q15.c **** 
 462:./Libraries/CMSIS/DSP/Source/FilteringFunctions/arm_fir_lattice_q15.c ****     /* save f0(n) in state buffer */
 463:./Libraries/CMSIS/DSP/Source/FilteringFunctions/arm_fir_lattice_q15.c ****     *px++ = (q15_t) fcurr0;
 464:./Libraries/CMSIS/DSP/Source/FilteringFunctions/arm_fir_lattice_q15.c **** 
 465:./Libraries/CMSIS/DSP/Source/FilteringFunctions/arm_fir_lattice_q15.c ****     /* f1(n) is saved in fcurr for next stage processing */
 466:./Libraries/CMSIS/DSP/Source/FilteringFunctions/arm_fir_lattice_q15.c ****     fcurr0 = fnext0;
 467:./Libraries/CMSIS/DSP/Source/FilteringFunctions/arm_fir_lattice_q15.c **** 
 468:./Libraries/CMSIS/DSP/Source/FilteringFunctions/arm_fir_lattice_q15.c ****     stageCnt = (numStages - 1U);
 469:./Libraries/CMSIS/DSP/Source/FilteringFunctions/arm_fir_lattice_q15.c **** 
 470:./Libraries/CMSIS/DSP/Source/FilteringFunctions/arm_fir_lattice_q15.c ****     /* stage loop */
 471:./Libraries/CMSIS/DSP/Source/FilteringFunctions/arm_fir_lattice_q15.c ****     while (stageCnt > 0U)
 472:./Libraries/CMSIS/DSP/Source/FilteringFunctions/arm_fir_lattice_q15.c ****     {
 473:./Libraries/CMSIS/DSP/Source/FilteringFunctions/arm_fir_lattice_q15.c ****       /* read g1(n-1) from state buffer */
 474:./Libraries/CMSIS/DSP/Source/FilteringFunctions/arm_fir_lattice_q15.c ****       gcurr0 = *px;
 475:./Libraries/CMSIS/DSP/Source/FilteringFunctions/arm_fir_lattice_q15.c **** 
 476:./Libraries/CMSIS/DSP/Source/FilteringFunctions/arm_fir_lattice_q15.c ****       /* save g0(n-1) in state buffer */
 477:./Libraries/CMSIS/DSP/Source/FilteringFunctions/arm_fir_lattice_q15.c ****       *px++ = (q15_t) gnext0;
 478:./Libraries/CMSIS/DSP/Source/FilteringFunctions/arm_fir_lattice_q15.c **** 
 479:./Libraries/CMSIS/DSP/Source/FilteringFunctions/arm_fir_lattice_q15.c ****       /* Sample processing for K2, K3.... */
 480:./Libraries/CMSIS/DSP/Source/FilteringFunctions/arm_fir_lattice_q15.c ****       /* f2(n) = f1(n) +  K2 * g1(n-1) */
 481:./Libraries/CMSIS/DSP/Source/FilteringFunctions/arm_fir_lattice_q15.c ****       fnext0 = ((gcurr0 * (*pk)) >> 15U) + fcurr0;
 482:./Libraries/CMSIS/DSP/Source/FilteringFunctions/arm_fir_lattice_q15.c ****       fnext0 = __SSAT(fnext0, 16);
 483:./Libraries/CMSIS/DSP/Source/FilteringFunctions/arm_fir_lattice_q15.c **** 
 484:./Libraries/CMSIS/DSP/Source/FilteringFunctions/arm_fir_lattice_q15.c ****       /* g2(n) = f1(n) * K2  +  g1(n-1) */
 485:./Libraries/CMSIS/DSP/Source/FilteringFunctions/arm_fir_lattice_q15.c ****       gnext0 = ((fcurr0 * (*pk++)) >> 15U) + gcurr0;
 486:./Libraries/CMSIS/DSP/Source/FilteringFunctions/arm_fir_lattice_q15.c ****       gnext0 = __SSAT(gnext0, 16);
 487:./Libraries/CMSIS/DSP/Source/FilteringFunctions/arm_fir_lattice_q15.c **** 
 488:./Libraries/CMSIS/DSP/Source/FilteringFunctions/arm_fir_lattice_q15.c ****       /* f1(n) is saved in fcurr0 for next stage processing */
 489:./Libraries/CMSIS/DSP/Source/FilteringFunctions/arm_fir_lattice_q15.c ****       fcurr0 = fnext0;
 490:./Libraries/CMSIS/DSP/Source/FilteringFunctions/arm_fir_lattice_q15.c **** 
 491:./Libraries/CMSIS/DSP/Source/FilteringFunctions/arm_fir_lattice_q15.c ****       stageCnt--;
 492:./Libraries/CMSIS/DSP/Source/FilteringFunctions/arm_fir_lattice_q15.c ****     }
 493:./Libraries/CMSIS/DSP/Source/FilteringFunctions/arm_fir_lattice_q15.c **** 
 494:./Libraries/CMSIS/DSP/Source/FilteringFunctions/arm_fir_lattice_q15.c ****     /* y(n) = fN(n) */
 495:./Libraries/CMSIS/DSP/Source/FilteringFunctions/arm_fir_lattice_q15.c ****     *pDst++ = __SSAT(fcurr0, 16);
 496:./Libraries/CMSIS/DSP/Source/FilteringFunctions/arm_fir_lattice_q15.c **** 
 497:./Libraries/CMSIS/DSP/Source/FilteringFunctions/arm_fir_lattice_q15.c ****     blkCnt--;
 498:./Libraries/CMSIS/DSP/Source/FilteringFunctions/arm_fir_lattice_q15.c ****   }
 499:./Libraries/CMSIS/DSP/Source/FilteringFunctions/arm_fir_lattice_q15.c **** 
 500:./Libraries/CMSIS/DSP/Source/FilteringFunctions/arm_fir_lattice_q15.c **** #endif /* #if !defined(ARM_MATH_CM0_FAMILY) */
 501:./Libraries/CMSIS/DSP/Source/FilteringFunctions/arm_fir_lattice_q15.c **** 
 502:./Libraries/CMSIS/DSP/Source/FilteringFunctions/arm_fir_lattice_q15.c **** }
 285              		.loc 1 502 1
 286 0148 00BF     		nop
 287 014a 00BF     		nop
 288 014c 6C37     		adds	r7, r7, #108
 289              	.LCFI3:
 290              		.cfi_def_cfa_offset 4
 291 014e BD46     		mov	sp, r7
 292              	.LCFI4:
 293              		.cfi_def_cfa_register 13
 294              		@ sp needed
 295 0150 5DF8047B 		ldr	r7, [sp], #4
ARM GAS  /tmp/ccgsg9xu.s 			page 15


 296              	.LCFI5:
 297              		.cfi_restore 7
 298              		.cfi_def_cfa_offset 0
 299 0154 7047     		bx	lr
 300              		.cfi_endproc
 301              	.LFE145:
 303              		.text
 304              	.Letext0:
 305              		.file 2 "/usr/lib/gcc/arm-none-eabi/9.2.1/include/stdint.h"
 306              		.file 3 "/usr/lib/gcc/arm-none-eabi/9.2.1/include/stddef.h"
 307              		.file 4 "/usr/include/newlib/sys/_types.h"
 308              		.file 5 "/usr/include/newlib/sys/reent.h"
 309              		.file 6 "/usr/include/newlib/sys/lock.h"
 310              		.file 7 "/usr/include/newlib/math.h"
 311              		.file 8 "./Libraries/CMSIS/DSP/Include/arm_math.h"
ARM GAS  /tmp/ccgsg9xu.s 			page 16

