ARM GAS  /tmp/ccPDwxX3.s 			page 1


   1              		.cpu cortex-m7
   2              		.eabi_attribute 28, 1
   3              		.eabi_attribute 20, 1
   4              		.eabi_attribute 21, 1
   5              		.eabi_attribute 23, 3
   6              		.eabi_attribute 24, 1
   7              		.eabi_attribute 25, 1
   8              		.eabi_attribute 26, 1
   9              		.eabi_attribute 30, 6
  10              		.eabi_attribute 34, 1
  11              		.eabi_attribute 18, 4
  12              		.file	"arm_float_to_q7.c"
  13              		.text
  14              	.Ltext0:
  15              		.cfi_sections	.debug_frame
  16              		.section	.text.arm_float_to_q7,"ax",%progbits
  17              		.align	1
  18              		.global	arm_float_to_q7
  19              		.arch armv7e-m
  20              		.syntax unified
  21              		.thumb
  22              		.thumb_func
  23              		.fpu fpv5-d16
  25              	arm_float_to_q7:
  26              	.LFB145:
  27              		.file 1 "./Libraries/CMSIS/DSP/Source/SupportFunctions/arm_float_to_q7.c"
   1:./Libraries/CMSIS/DSP/Source/SupportFunctions/arm_float_to_q7.c **** /* ----------------------------------------------------------------------
   2:./Libraries/CMSIS/DSP/Source/SupportFunctions/arm_float_to_q7.c ****  * Project:      CMSIS DSP Library
   3:./Libraries/CMSIS/DSP/Source/SupportFunctions/arm_float_to_q7.c ****  * Title:        arm_float_to_q7.c
   4:./Libraries/CMSIS/DSP/Source/SupportFunctions/arm_float_to_q7.c ****  * Description:  Converts the elements of the floating-point vector to Q7 vector
   5:./Libraries/CMSIS/DSP/Source/SupportFunctions/arm_float_to_q7.c ****  *
   6:./Libraries/CMSIS/DSP/Source/SupportFunctions/arm_float_to_q7.c ****  * $Date:        18. March 2019
   7:./Libraries/CMSIS/DSP/Source/SupportFunctions/arm_float_to_q7.c ****  * $Revision:    V1.6.0
   8:./Libraries/CMSIS/DSP/Source/SupportFunctions/arm_float_to_q7.c ****  *
   9:./Libraries/CMSIS/DSP/Source/SupportFunctions/arm_float_to_q7.c ****  * Target Processor: Cortex-M cores
  10:./Libraries/CMSIS/DSP/Source/SupportFunctions/arm_float_to_q7.c ****  * -------------------------------------------------------------------- */
  11:./Libraries/CMSIS/DSP/Source/SupportFunctions/arm_float_to_q7.c **** /*
  12:./Libraries/CMSIS/DSP/Source/SupportFunctions/arm_float_to_q7.c ****  * Copyright (C) 2010-2019 ARM Limited or its affiliates. All rights reserved.
  13:./Libraries/CMSIS/DSP/Source/SupportFunctions/arm_float_to_q7.c ****  *
  14:./Libraries/CMSIS/DSP/Source/SupportFunctions/arm_float_to_q7.c ****  * SPDX-License-Identifier: Apache-2.0
  15:./Libraries/CMSIS/DSP/Source/SupportFunctions/arm_float_to_q7.c ****  *
  16:./Libraries/CMSIS/DSP/Source/SupportFunctions/arm_float_to_q7.c ****  * Licensed under the Apache License, Version 2.0 (the License); you may
  17:./Libraries/CMSIS/DSP/Source/SupportFunctions/arm_float_to_q7.c ****  * not use this file except in compliance with the License.
  18:./Libraries/CMSIS/DSP/Source/SupportFunctions/arm_float_to_q7.c ****  * You may obtain a copy of the License at
  19:./Libraries/CMSIS/DSP/Source/SupportFunctions/arm_float_to_q7.c ****  *
  20:./Libraries/CMSIS/DSP/Source/SupportFunctions/arm_float_to_q7.c ****  * www.apache.org/licenses/LICENSE-2.0
  21:./Libraries/CMSIS/DSP/Source/SupportFunctions/arm_float_to_q7.c ****  *
  22:./Libraries/CMSIS/DSP/Source/SupportFunctions/arm_float_to_q7.c ****  * Unless required by applicable law or agreed to in writing, software
  23:./Libraries/CMSIS/DSP/Source/SupportFunctions/arm_float_to_q7.c ****  * distributed under the License is distributed on an AS IS BASIS, WITHOUT
  24:./Libraries/CMSIS/DSP/Source/SupportFunctions/arm_float_to_q7.c ****  * WARRANTIES OR CONDITIONS OF ANY KIND, either express or implied.
  25:./Libraries/CMSIS/DSP/Source/SupportFunctions/arm_float_to_q7.c ****  * See the License for the specific language governing permissions and
  26:./Libraries/CMSIS/DSP/Source/SupportFunctions/arm_float_to_q7.c ****  * limitations under the License.
  27:./Libraries/CMSIS/DSP/Source/SupportFunctions/arm_float_to_q7.c ****  */
  28:./Libraries/CMSIS/DSP/Source/SupportFunctions/arm_float_to_q7.c **** 
  29:./Libraries/CMSIS/DSP/Source/SupportFunctions/arm_float_to_q7.c **** #include "arm_math.h"
  30:./Libraries/CMSIS/DSP/Source/SupportFunctions/arm_float_to_q7.c **** 
  31:./Libraries/CMSIS/DSP/Source/SupportFunctions/arm_float_to_q7.c **** /**
ARM GAS  /tmp/ccPDwxX3.s 			page 2


  32:./Libraries/CMSIS/DSP/Source/SupportFunctions/arm_float_to_q7.c ****   @ingroup groupSupport
  33:./Libraries/CMSIS/DSP/Source/SupportFunctions/arm_float_to_q7.c ****  */
  34:./Libraries/CMSIS/DSP/Source/SupportFunctions/arm_float_to_q7.c **** 
  35:./Libraries/CMSIS/DSP/Source/SupportFunctions/arm_float_to_q7.c **** /**
  36:./Libraries/CMSIS/DSP/Source/SupportFunctions/arm_float_to_q7.c ****   @addtogroup float_to_x
  37:./Libraries/CMSIS/DSP/Source/SupportFunctions/arm_float_to_q7.c ****   @{
  38:./Libraries/CMSIS/DSP/Source/SupportFunctions/arm_float_to_q7.c ****  */
  39:./Libraries/CMSIS/DSP/Source/SupportFunctions/arm_float_to_q7.c **** 
  40:./Libraries/CMSIS/DSP/Source/SupportFunctions/arm_float_to_q7.c **** /**
  41:./Libraries/CMSIS/DSP/Source/SupportFunctions/arm_float_to_q7.c ****  * @brief Converts the elements of the floating-point vector to Q7 vector.
  42:./Libraries/CMSIS/DSP/Source/SupportFunctions/arm_float_to_q7.c ****  * @param[in]       *pSrc points to the floating-point input vector
  43:./Libraries/CMSIS/DSP/Source/SupportFunctions/arm_float_to_q7.c ****  * @param[out]      *pDst points to the Q7 output vector
  44:./Libraries/CMSIS/DSP/Source/SupportFunctions/arm_float_to_q7.c ****  * @param[in]       blockSize length of the input vector
  45:./Libraries/CMSIS/DSP/Source/SupportFunctions/arm_float_to_q7.c ****  * @return none.
  46:./Libraries/CMSIS/DSP/Source/SupportFunctions/arm_float_to_q7.c ****  *
  47:./Libraries/CMSIS/DSP/Source/SupportFunctions/arm_float_to_q7.c ****  *\par Description:
  48:./Libraries/CMSIS/DSP/Source/SupportFunctions/arm_float_to_q7.c ****  * \par
  49:./Libraries/CMSIS/DSP/Source/SupportFunctions/arm_float_to_q7.c ****  * The equation used for the conversion process is:
  50:./Libraries/CMSIS/DSP/Source/SupportFunctions/arm_float_to_q7.c ****  * <pre>
  51:./Libraries/CMSIS/DSP/Source/SupportFunctions/arm_float_to_q7.c ****  * 	pDst[n] = (q7_t)(pSrc[n] * 128);   0 <= n < blockSize.
  52:./Libraries/CMSIS/DSP/Source/SupportFunctions/arm_float_to_q7.c ****  * </pre>
  53:./Libraries/CMSIS/DSP/Source/SupportFunctions/arm_float_to_q7.c ****  * \par Scaling and Overflow Behavior:
  54:./Libraries/CMSIS/DSP/Source/SupportFunctions/arm_float_to_q7.c ****  * \par
  55:./Libraries/CMSIS/DSP/Source/SupportFunctions/arm_float_to_q7.c ****  * The function uses saturating arithmetic.
  56:./Libraries/CMSIS/DSP/Source/SupportFunctions/arm_float_to_q7.c ****  * Results outside of the allowable Q7 range [0x80 0x7F] will be saturated.
  57:./Libraries/CMSIS/DSP/Source/SupportFunctions/arm_float_to_q7.c ****  * \note
  58:./Libraries/CMSIS/DSP/Source/SupportFunctions/arm_float_to_q7.c ****  * In order to apply rounding, the library should be rebuilt with the ROUNDING macro
  59:./Libraries/CMSIS/DSP/Source/SupportFunctions/arm_float_to_q7.c ****  * defined in the preprocessor section of project options.
  60:./Libraries/CMSIS/DSP/Source/SupportFunctions/arm_float_to_q7.c ****  */
  61:./Libraries/CMSIS/DSP/Source/SupportFunctions/arm_float_to_q7.c **** 
  62:./Libraries/CMSIS/DSP/Source/SupportFunctions/arm_float_to_q7.c **** #if defined(ARM_MATH_NEON)
  63:./Libraries/CMSIS/DSP/Source/SupportFunctions/arm_float_to_q7.c **** void arm_float_to_q7(
  64:./Libraries/CMSIS/DSP/Source/SupportFunctions/arm_float_to_q7.c ****   const float32_t * pSrc,
  65:./Libraries/CMSIS/DSP/Source/SupportFunctions/arm_float_to_q7.c ****   q7_t * pDst,
  66:./Libraries/CMSIS/DSP/Source/SupportFunctions/arm_float_to_q7.c ****   uint32_t blockSize)
  67:./Libraries/CMSIS/DSP/Source/SupportFunctions/arm_float_to_q7.c **** {
  68:./Libraries/CMSIS/DSP/Source/SupportFunctions/arm_float_to_q7.c ****   const float32_t *pIn = pSrc;                         /* Src pointer */
  69:./Libraries/CMSIS/DSP/Source/SupportFunctions/arm_float_to_q7.c ****   uint32_t blkCnt;                               /* loop counter */
  70:./Libraries/CMSIS/DSP/Source/SupportFunctions/arm_float_to_q7.c **** 
  71:./Libraries/CMSIS/DSP/Source/SupportFunctions/arm_float_to_q7.c ****   float32_t in;
  72:./Libraries/CMSIS/DSP/Source/SupportFunctions/arm_float_to_q7.c ****   float32x4_t inV;
  73:./Libraries/CMSIS/DSP/Source/SupportFunctions/arm_float_to_q7.c ****   #ifdef ARM_MATH_ROUNDING
  74:./Libraries/CMSIS/DSP/Source/SupportFunctions/arm_float_to_q7.c ****   float32x4_t zeroV = vdupq_n_f32(0.0f);
  75:./Libraries/CMSIS/DSP/Source/SupportFunctions/arm_float_to_q7.c ****   float32x4_t pHalf = vdupq_n_f32(0.5f / 128.0f);
  76:./Libraries/CMSIS/DSP/Source/SupportFunctions/arm_float_to_q7.c ****   float32x4_t mHalf = vdupq_n_f32(-0.5f / 128.0f);
  77:./Libraries/CMSIS/DSP/Source/SupportFunctions/arm_float_to_q7.c ****   float32x4_t r;
  78:./Libraries/CMSIS/DSP/Source/SupportFunctions/arm_float_to_q7.c ****   uint32x4_t cmp;
  79:./Libraries/CMSIS/DSP/Source/SupportFunctions/arm_float_to_q7.c ****   #endif
  80:./Libraries/CMSIS/DSP/Source/SupportFunctions/arm_float_to_q7.c **** 
  81:./Libraries/CMSIS/DSP/Source/SupportFunctions/arm_float_to_q7.c ****   int32x4_t cvt;
  82:./Libraries/CMSIS/DSP/Source/SupportFunctions/arm_float_to_q7.c ****   int16x4_t cvt1,cvt2;
  83:./Libraries/CMSIS/DSP/Source/SupportFunctions/arm_float_to_q7.c ****   int8x8_t outV;
  84:./Libraries/CMSIS/DSP/Source/SupportFunctions/arm_float_to_q7.c **** 
  85:./Libraries/CMSIS/DSP/Source/SupportFunctions/arm_float_to_q7.c ****   blkCnt = blockSize >> 3U;
  86:./Libraries/CMSIS/DSP/Source/SupportFunctions/arm_float_to_q7.c **** 
  87:./Libraries/CMSIS/DSP/Source/SupportFunctions/arm_float_to_q7.c ****   /* Compute 8 outputs at a time.
  88:./Libraries/CMSIS/DSP/Source/SupportFunctions/arm_float_to_q7.c ****    ** a second loop below computes the remaining 1 to 7 samples. */
ARM GAS  /tmp/ccPDwxX3.s 			page 3


  89:./Libraries/CMSIS/DSP/Source/SupportFunctions/arm_float_to_q7.c ****   while (blkCnt > 0U)
  90:./Libraries/CMSIS/DSP/Source/SupportFunctions/arm_float_to_q7.c ****   {
  91:./Libraries/CMSIS/DSP/Source/SupportFunctions/arm_float_to_q7.c **** 
  92:./Libraries/CMSIS/DSP/Source/SupportFunctions/arm_float_to_q7.c **** #ifdef ARM_MATH_ROUNDING
  93:./Libraries/CMSIS/DSP/Source/SupportFunctions/arm_float_to_q7.c ****     /* C = A * 128 */
  94:./Libraries/CMSIS/DSP/Source/SupportFunctions/arm_float_to_q7.c ****     /* Convert from float to q7 and then store the results in the destination buffer */
  95:./Libraries/CMSIS/DSP/Source/SupportFunctions/arm_float_to_q7.c ****     inV = vld1q_f32(pIn);
  96:./Libraries/CMSIS/DSP/Source/SupportFunctions/arm_float_to_q7.c ****     cmp = vcgtq_f32(inV,zeroV);
  97:./Libraries/CMSIS/DSP/Source/SupportFunctions/arm_float_to_q7.c ****     r = vbslq_f32(cmp,pHalf,mHalf);
  98:./Libraries/CMSIS/DSP/Source/SupportFunctions/arm_float_to_q7.c ****     inV = vaddq_f32(inV, r);
  99:./Libraries/CMSIS/DSP/Source/SupportFunctions/arm_float_to_q7.c ****     cvt1 = vqmovn_s32(vcvtq_n_s32_f32(inV,7));
 100:./Libraries/CMSIS/DSP/Source/SupportFunctions/arm_float_to_q7.c ****     pIn += 4;
 101:./Libraries/CMSIS/DSP/Source/SupportFunctions/arm_float_to_q7.c **** 
 102:./Libraries/CMSIS/DSP/Source/SupportFunctions/arm_float_to_q7.c ****     inV = vld1q_f32(pIn);
 103:./Libraries/CMSIS/DSP/Source/SupportFunctions/arm_float_to_q7.c ****     cmp = vcgtq_f32(inV,zeroV);
 104:./Libraries/CMSIS/DSP/Source/SupportFunctions/arm_float_to_q7.c ****     r = vbslq_f32(cmp,pHalf,mHalf);
 105:./Libraries/CMSIS/DSP/Source/SupportFunctions/arm_float_to_q7.c ****     inV = vaddq_f32(inV, r);
 106:./Libraries/CMSIS/DSP/Source/SupportFunctions/arm_float_to_q7.c ****     cvt2 = vqmovn_s32(vcvtq_n_s32_f32(inV,7));
 107:./Libraries/CMSIS/DSP/Source/SupportFunctions/arm_float_to_q7.c ****     pIn += 4;
 108:./Libraries/CMSIS/DSP/Source/SupportFunctions/arm_float_to_q7.c ****     
 109:./Libraries/CMSIS/DSP/Source/SupportFunctions/arm_float_to_q7.c ****     outV = vqmovn_s16(vcombine_s16(cvt1,cvt2));
 110:./Libraries/CMSIS/DSP/Source/SupportFunctions/arm_float_to_q7.c ****     vst1_s8(pDst, outV);
 111:./Libraries/CMSIS/DSP/Source/SupportFunctions/arm_float_to_q7.c ****     pDst += 8;
 112:./Libraries/CMSIS/DSP/Source/SupportFunctions/arm_float_to_q7.c **** 
 113:./Libraries/CMSIS/DSP/Source/SupportFunctions/arm_float_to_q7.c **** #else
 114:./Libraries/CMSIS/DSP/Source/SupportFunctions/arm_float_to_q7.c **** 
 115:./Libraries/CMSIS/DSP/Source/SupportFunctions/arm_float_to_q7.c ****     /* C = A * 128 */
 116:./Libraries/CMSIS/DSP/Source/SupportFunctions/arm_float_to_q7.c ****     /* Convert from float to q7 and then store the results in the destination buffer */
 117:./Libraries/CMSIS/DSP/Source/SupportFunctions/arm_float_to_q7.c ****     inV = vld1q_f32(pIn);
 118:./Libraries/CMSIS/DSP/Source/SupportFunctions/arm_float_to_q7.c ****     cvt1 = vqmovn_s32(vcvtq_n_s32_f32(inV,7));
 119:./Libraries/CMSIS/DSP/Source/SupportFunctions/arm_float_to_q7.c ****     pIn += 4;
 120:./Libraries/CMSIS/DSP/Source/SupportFunctions/arm_float_to_q7.c **** 
 121:./Libraries/CMSIS/DSP/Source/SupportFunctions/arm_float_to_q7.c ****     inV = vld1q_f32(pIn);
 122:./Libraries/CMSIS/DSP/Source/SupportFunctions/arm_float_to_q7.c ****     cvt2 = vqmovn_s32(vcvtq_n_s32_f32(inV,7));
 123:./Libraries/CMSIS/DSP/Source/SupportFunctions/arm_float_to_q7.c ****     pIn += 4;
 124:./Libraries/CMSIS/DSP/Source/SupportFunctions/arm_float_to_q7.c **** 
 125:./Libraries/CMSIS/DSP/Source/SupportFunctions/arm_float_to_q7.c ****     outV = vqmovn_s16(vcombine_s16(cvt1,cvt2));
 126:./Libraries/CMSIS/DSP/Source/SupportFunctions/arm_float_to_q7.c **** 
 127:./Libraries/CMSIS/DSP/Source/SupportFunctions/arm_float_to_q7.c ****     vst1_s8(pDst, outV);
 128:./Libraries/CMSIS/DSP/Source/SupportFunctions/arm_float_to_q7.c ****     pDst += 8;
 129:./Libraries/CMSIS/DSP/Source/SupportFunctions/arm_float_to_q7.c **** #endif /*      #ifdef ARM_MATH_ROUNDING        */
 130:./Libraries/CMSIS/DSP/Source/SupportFunctions/arm_float_to_q7.c **** 
 131:./Libraries/CMSIS/DSP/Source/SupportFunctions/arm_float_to_q7.c ****     /* Decrement the loop counter */
 132:./Libraries/CMSIS/DSP/Source/SupportFunctions/arm_float_to_q7.c ****     blkCnt--;
 133:./Libraries/CMSIS/DSP/Source/SupportFunctions/arm_float_to_q7.c ****   }
 134:./Libraries/CMSIS/DSP/Source/SupportFunctions/arm_float_to_q7.c **** 
 135:./Libraries/CMSIS/DSP/Source/SupportFunctions/arm_float_to_q7.c ****   /* If the blockSize is not a multiple of 4, compute any remaining output samples here.
 136:./Libraries/CMSIS/DSP/Source/SupportFunctions/arm_float_to_q7.c ****    ** No loop unrolling is used. */
 137:./Libraries/CMSIS/DSP/Source/SupportFunctions/arm_float_to_q7.c ****   blkCnt = blockSize & 7;
 138:./Libraries/CMSIS/DSP/Source/SupportFunctions/arm_float_to_q7.c **** 
 139:./Libraries/CMSIS/DSP/Source/SupportFunctions/arm_float_to_q7.c ****   while (blkCnt > 0U)
 140:./Libraries/CMSIS/DSP/Source/SupportFunctions/arm_float_to_q7.c ****   {
 141:./Libraries/CMSIS/DSP/Source/SupportFunctions/arm_float_to_q7.c **** 
 142:./Libraries/CMSIS/DSP/Source/SupportFunctions/arm_float_to_q7.c **** #ifdef ARM_MATH_ROUNDING
 143:./Libraries/CMSIS/DSP/Source/SupportFunctions/arm_float_to_q7.c ****     /* C = A * 128 */
 144:./Libraries/CMSIS/DSP/Source/SupportFunctions/arm_float_to_q7.c ****     /* Convert from float to q7 and then store the results in the destination buffer */
 145:./Libraries/CMSIS/DSP/Source/SupportFunctions/arm_float_to_q7.c ****     in = *pIn++;
ARM GAS  /tmp/ccPDwxX3.s 			page 4


 146:./Libraries/CMSIS/DSP/Source/SupportFunctions/arm_float_to_q7.c ****     in = (in * 128);
 147:./Libraries/CMSIS/DSP/Source/SupportFunctions/arm_float_to_q7.c ****     in += in > 0.0f ? 0.5f : -0.5f;
 148:./Libraries/CMSIS/DSP/Source/SupportFunctions/arm_float_to_q7.c ****     *pDst++ = (q7_t) (__SSAT((q15_t) (in), 8));
 149:./Libraries/CMSIS/DSP/Source/SupportFunctions/arm_float_to_q7.c **** 
 150:./Libraries/CMSIS/DSP/Source/SupportFunctions/arm_float_to_q7.c **** #else
 151:./Libraries/CMSIS/DSP/Source/SupportFunctions/arm_float_to_q7.c **** 
 152:./Libraries/CMSIS/DSP/Source/SupportFunctions/arm_float_to_q7.c ****     /* C = A * 128 */
 153:./Libraries/CMSIS/DSP/Source/SupportFunctions/arm_float_to_q7.c ****     /* Convert from float to q7 and then store the results in the destination buffer */
 154:./Libraries/CMSIS/DSP/Source/SupportFunctions/arm_float_to_q7.c ****     *pDst++ = __SSAT((q31_t) (*pIn++ * 128.0f), 8);
 155:./Libraries/CMSIS/DSP/Source/SupportFunctions/arm_float_to_q7.c **** 
 156:./Libraries/CMSIS/DSP/Source/SupportFunctions/arm_float_to_q7.c **** #endif /*      #ifdef ARM_MATH_ROUNDING        */
 157:./Libraries/CMSIS/DSP/Source/SupportFunctions/arm_float_to_q7.c **** 
 158:./Libraries/CMSIS/DSP/Source/SupportFunctions/arm_float_to_q7.c ****     /* Decrement the loop counter */
 159:./Libraries/CMSIS/DSP/Source/SupportFunctions/arm_float_to_q7.c ****     blkCnt--;
 160:./Libraries/CMSIS/DSP/Source/SupportFunctions/arm_float_to_q7.c ****   }
 161:./Libraries/CMSIS/DSP/Source/SupportFunctions/arm_float_to_q7.c **** 
 162:./Libraries/CMSIS/DSP/Source/SupportFunctions/arm_float_to_q7.c **** }
 163:./Libraries/CMSIS/DSP/Source/SupportFunctions/arm_float_to_q7.c **** #else
 164:./Libraries/CMSIS/DSP/Source/SupportFunctions/arm_float_to_q7.c **** void arm_float_to_q7(
 165:./Libraries/CMSIS/DSP/Source/SupportFunctions/arm_float_to_q7.c ****   const float32_t * pSrc,
 166:./Libraries/CMSIS/DSP/Source/SupportFunctions/arm_float_to_q7.c ****         q7_t * pDst,
 167:./Libraries/CMSIS/DSP/Source/SupportFunctions/arm_float_to_q7.c ****         uint32_t blockSize)
 168:./Libraries/CMSIS/DSP/Source/SupportFunctions/arm_float_to_q7.c **** {
  28              		.loc 1 168 1
  29              		.cfi_startproc
  30              		@ args = 0, pretend = 0, frame = 32
  31              		@ frame_needed = 1, uses_anonymous_args = 0
  32              		@ link register save eliminated.
  33 0000 80B4     		push	{r7}
  34              	.LCFI0:
  35              		.cfi_def_cfa_offset 4
  36              		.cfi_offset 7, -4
  37 0002 89B0     		sub	sp, sp, #36
  38              	.LCFI1:
  39              		.cfi_def_cfa_offset 40
  40 0004 00AF     		add	r7, sp, #0
  41              	.LCFI2:
  42              		.cfi_def_cfa_register 7
  43 0006 F860     		str	r0, [r7, #12]
  44 0008 B960     		str	r1, [r7, #8]
  45 000a 7A60     		str	r2, [r7, #4]
 169:./Libraries/CMSIS/DSP/Source/SupportFunctions/arm_float_to_q7.c ****         uint32_t blkCnt;                               /* Loop counter */
 170:./Libraries/CMSIS/DSP/Source/SupportFunctions/arm_float_to_q7.c ****   const float32_t *pIn = pSrc;                         /* Source pointer */
  46              		.loc 1 170 20
  47 000c FB68     		ldr	r3, [r7, #12]
  48 000e BB61     		str	r3, [r7, #24]
 171:./Libraries/CMSIS/DSP/Source/SupportFunctions/arm_float_to_q7.c **** 
 172:./Libraries/CMSIS/DSP/Source/SupportFunctions/arm_float_to_q7.c **** #ifdef ARM_MATH_ROUNDING
 173:./Libraries/CMSIS/DSP/Source/SupportFunctions/arm_float_to_q7.c ****         float32_t in;
 174:./Libraries/CMSIS/DSP/Source/SupportFunctions/arm_float_to_q7.c **** #endif /* #ifdef ARM_MATH_ROUNDING */
 175:./Libraries/CMSIS/DSP/Source/SupportFunctions/arm_float_to_q7.c **** 
 176:./Libraries/CMSIS/DSP/Source/SupportFunctions/arm_float_to_q7.c **** #if defined (ARM_MATH_LOOPUNROLL)
 177:./Libraries/CMSIS/DSP/Source/SupportFunctions/arm_float_to_q7.c **** 
 178:./Libraries/CMSIS/DSP/Source/SupportFunctions/arm_float_to_q7.c ****   /* Loop unrolling: Compute 4 outputs at a time */
 179:./Libraries/CMSIS/DSP/Source/SupportFunctions/arm_float_to_q7.c ****   blkCnt = blockSize >> 2U;
 180:./Libraries/CMSIS/DSP/Source/SupportFunctions/arm_float_to_q7.c **** 
 181:./Libraries/CMSIS/DSP/Source/SupportFunctions/arm_float_to_q7.c ****   while (blkCnt > 0U)
ARM GAS  /tmp/ccPDwxX3.s 			page 5


 182:./Libraries/CMSIS/DSP/Source/SupportFunctions/arm_float_to_q7.c ****   {
 183:./Libraries/CMSIS/DSP/Source/SupportFunctions/arm_float_to_q7.c ****     /* C = A * 128 */
 184:./Libraries/CMSIS/DSP/Source/SupportFunctions/arm_float_to_q7.c **** 
 185:./Libraries/CMSIS/DSP/Source/SupportFunctions/arm_float_to_q7.c ****     /* Convert from float to q7 and store result in destination buffer */
 186:./Libraries/CMSIS/DSP/Source/SupportFunctions/arm_float_to_q7.c **** #ifdef ARM_MATH_ROUNDING
 187:./Libraries/CMSIS/DSP/Source/SupportFunctions/arm_float_to_q7.c **** 
 188:./Libraries/CMSIS/DSP/Source/SupportFunctions/arm_float_to_q7.c ****     in = (*pIn++ * 128);
 189:./Libraries/CMSIS/DSP/Source/SupportFunctions/arm_float_to_q7.c ****     in += in > 0.0f ? 0.5f : -0.5f;
 190:./Libraries/CMSIS/DSP/Source/SupportFunctions/arm_float_to_q7.c ****     *pDst++ = (q7_t) (__SSAT((q15_t) (in), 8));
 191:./Libraries/CMSIS/DSP/Source/SupportFunctions/arm_float_to_q7.c **** 
 192:./Libraries/CMSIS/DSP/Source/SupportFunctions/arm_float_to_q7.c ****     in = (*pIn++ * 128);
 193:./Libraries/CMSIS/DSP/Source/SupportFunctions/arm_float_to_q7.c ****     in += in > 0.0f ? 0.5f : -0.5f;
 194:./Libraries/CMSIS/DSP/Source/SupportFunctions/arm_float_to_q7.c ****     *pDst++ = (q7_t) (__SSAT((q15_t) (in), 8));
 195:./Libraries/CMSIS/DSP/Source/SupportFunctions/arm_float_to_q7.c **** 
 196:./Libraries/CMSIS/DSP/Source/SupportFunctions/arm_float_to_q7.c ****     in = (*pIn++ * 128);
 197:./Libraries/CMSIS/DSP/Source/SupportFunctions/arm_float_to_q7.c ****     in += in > 0.0f ? 0.5f : -0.5f;
 198:./Libraries/CMSIS/DSP/Source/SupportFunctions/arm_float_to_q7.c ****     *pDst++ = (q7_t) (__SSAT((q15_t) (in), 8));
 199:./Libraries/CMSIS/DSP/Source/SupportFunctions/arm_float_to_q7.c **** 
 200:./Libraries/CMSIS/DSP/Source/SupportFunctions/arm_float_to_q7.c ****     in = (*pIn++ * 128);
 201:./Libraries/CMSIS/DSP/Source/SupportFunctions/arm_float_to_q7.c ****     in += in > 0.0f ? 0.5f : -0.5f;
 202:./Libraries/CMSIS/DSP/Source/SupportFunctions/arm_float_to_q7.c ****     *pDst++ = (q7_t) (__SSAT((q15_t) (in), 8));
 203:./Libraries/CMSIS/DSP/Source/SupportFunctions/arm_float_to_q7.c **** 
 204:./Libraries/CMSIS/DSP/Source/SupportFunctions/arm_float_to_q7.c **** #else
 205:./Libraries/CMSIS/DSP/Source/SupportFunctions/arm_float_to_q7.c **** 
 206:./Libraries/CMSIS/DSP/Source/SupportFunctions/arm_float_to_q7.c ****     *pDst++ = __SSAT((q31_t) (*pIn++ * 128.0f), 8);
 207:./Libraries/CMSIS/DSP/Source/SupportFunctions/arm_float_to_q7.c ****     *pDst++ = __SSAT((q31_t) (*pIn++ * 128.0f), 8);
 208:./Libraries/CMSIS/DSP/Source/SupportFunctions/arm_float_to_q7.c ****     *pDst++ = __SSAT((q31_t) (*pIn++ * 128.0f), 8);
 209:./Libraries/CMSIS/DSP/Source/SupportFunctions/arm_float_to_q7.c ****     *pDst++ = __SSAT((q31_t) (*pIn++ * 128.0f), 8);
 210:./Libraries/CMSIS/DSP/Source/SupportFunctions/arm_float_to_q7.c **** 
 211:./Libraries/CMSIS/DSP/Source/SupportFunctions/arm_float_to_q7.c **** #endif /* #ifdef ARM_MATH_ROUNDING */
 212:./Libraries/CMSIS/DSP/Source/SupportFunctions/arm_float_to_q7.c **** 
 213:./Libraries/CMSIS/DSP/Source/SupportFunctions/arm_float_to_q7.c ****     /* Decrement loop counter */
 214:./Libraries/CMSIS/DSP/Source/SupportFunctions/arm_float_to_q7.c ****     blkCnt--;
 215:./Libraries/CMSIS/DSP/Source/SupportFunctions/arm_float_to_q7.c ****   }
 216:./Libraries/CMSIS/DSP/Source/SupportFunctions/arm_float_to_q7.c **** 
 217:./Libraries/CMSIS/DSP/Source/SupportFunctions/arm_float_to_q7.c ****   /* Loop unrolling: Compute remaining outputs */
 218:./Libraries/CMSIS/DSP/Source/SupportFunctions/arm_float_to_q7.c ****   blkCnt = blockSize % 0x4U;
 219:./Libraries/CMSIS/DSP/Source/SupportFunctions/arm_float_to_q7.c **** 
 220:./Libraries/CMSIS/DSP/Source/SupportFunctions/arm_float_to_q7.c **** #else
 221:./Libraries/CMSIS/DSP/Source/SupportFunctions/arm_float_to_q7.c **** 
 222:./Libraries/CMSIS/DSP/Source/SupportFunctions/arm_float_to_q7.c ****   /* Initialize blkCnt with number of samples */
 223:./Libraries/CMSIS/DSP/Source/SupportFunctions/arm_float_to_q7.c ****   blkCnt = blockSize;
  49              		.loc 1 223 10
  50 0010 7B68     		ldr	r3, [r7, #4]
  51 0012 FB61     		str	r3, [r7, #28]
 224:./Libraries/CMSIS/DSP/Source/SupportFunctions/arm_float_to_q7.c **** 
 225:./Libraries/CMSIS/DSP/Source/SupportFunctions/arm_float_to_q7.c **** #endif /* #if defined (ARM_MATH_LOOPUNROLL) */
 226:./Libraries/CMSIS/DSP/Source/SupportFunctions/arm_float_to_q7.c **** 
 227:./Libraries/CMSIS/DSP/Source/SupportFunctions/arm_float_to_q7.c ****   while (blkCnt > 0U)
  52              		.loc 1 227 9
  53 0014 1AE0     		b	.L2
  54              	.L3:
  55              	.LBB2:
 228:./Libraries/CMSIS/DSP/Source/SupportFunctions/arm_float_to_q7.c ****   {
 229:./Libraries/CMSIS/DSP/Source/SupportFunctions/arm_float_to_q7.c ****     /* C = A * 128 */
 230:./Libraries/CMSIS/DSP/Source/SupportFunctions/arm_float_to_q7.c **** 
 231:./Libraries/CMSIS/DSP/Source/SupportFunctions/arm_float_to_q7.c ****     /* Convert from float to q7 and store result in destination buffer */
ARM GAS  /tmp/ccPDwxX3.s 			page 6


 232:./Libraries/CMSIS/DSP/Source/SupportFunctions/arm_float_to_q7.c **** #ifdef ARM_MATH_ROUNDING
 233:./Libraries/CMSIS/DSP/Source/SupportFunctions/arm_float_to_q7.c **** 
 234:./Libraries/CMSIS/DSP/Source/SupportFunctions/arm_float_to_q7.c ****     in = (*pIn++ * 128);
 235:./Libraries/CMSIS/DSP/Source/SupportFunctions/arm_float_to_q7.c ****     in += in > 0.0f ? 0.5f : -0.5f;
 236:./Libraries/CMSIS/DSP/Source/SupportFunctions/arm_float_to_q7.c ****     *pDst++ = (q7_t) (__SSAT((q15_t) (in), 8));
 237:./Libraries/CMSIS/DSP/Source/SupportFunctions/arm_float_to_q7.c **** 
 238:./Libraries/CMSIS/DSP/Source/SupportFunctions/arm_float_to_q7.c **** #else
 239:./Libraries/CMSIS/DSP/Source/SupportFunctions/arm_float_to_q7.c **** 
 240:./Libraries/CMSIS/DSP/Source/SupportFunctions/arm_float_to_q7.c ****     *pDst++ = (q7_t) __SSAT((q31_t) (*pIn++ * 128.0f), 8);
  56              		.loc 1 240 22
  57 0016 BB69     		ldr	r3, [r7, #24]
  58 0018 1A1D     		adds	r2, r3, #4
  59 001a BA61     		str	r2, [r7, #24]
  60 001c D3ED007A 		vldr.32	s15, [r3]
  61 0020 9FED0F7A 		vldr.32	s14, .L4
  62 0024 67EE877A 		vmul.f32	s15, s15, s14
  63 0028 FDEEE77A 		vcvt.s32.f32	s15, s15
  64 002c 17EE903A 		vmov	r3, s15	@ int
  65 0030 7B61     		str	r3, [r7, #20]
  66 0032 7B69     		ldr	r3, [r7, #20]
  67              		.syntax unified
  68              	@ 240 "./Libraries/CMSIS/DSP/Source/SupportFunctions/arm_float_to_q7.c" 1
  69 0034 03F30703 		ssat r3, #8, r3
  70              	@ 0 "" 2
  71              		.thumb
  72              		.syntax unified
  73 0038 3B61     		str	r3, [r7, #16]
  74 003a 3969     		ldr	r1, [r7, #16]
  75              	.LBE2:
  76              		.loc 1 240 10
  77 003c BB68     		ldr	r3, [r7, #8]
  78 003e 5A1C     		adds	r2, r3, #1
  79 0040 BA60     		str	r2, [r7, #8]
  80              		.loc 1 240 15
  81 0042 4AB2     		sxtb	r2, r1
  82              		.loc 1 240 13
  83 0044 1A70     		strb	r2, [r3]
 241:./Libraries/CMSIS/DSP/Source/SupportFunctions/arm_float_to_q7.c **** 
 242:./Libraries/CMSIS/DSP/Source/SupportFunctions/arm_float_to_q7.c **** #endif /* #ifdef ARM_MATH_ROUNDING */
 243:./Libraries/CMSIS/DSP/Source/SupportFunctions/arm_float_to_q7.c **** 
 244:./Libraries/CMSIS/DSP/Source/SupportFunctions/arm_float_to_q7.c ****     /* Decrement loop counter */
 245:./Libraries/CMSIS/DSP/Source/SupportFunctions/arm_float_to_q7.c ****     blkCnt--;
  84              		.loc 1 245 11
  85 0046 FB69     		ldr	r3, [r7, #28]
  86 0048 013B     		subs	r3, r3, #1
  87 004a FB61     		str	r3, [r7, #28]
  88              	.L2:
 227:./Libraries/CMSIS/DSP/Source/SupportFunctions/arm_float_to_q7.c ****   {
  89              		.loc 1 227 9
  90 004c FB69     		ldr	r3, [r7, #28]
  91 004e 002B     		cmp	r3, #0
  92 0050 E1D1     		bne	.L3
 246:./Libraries/CMSIS/DSP/Source/SupportFunctions/arm_float_to_q7.c ****   }
 247:./Libraries/CMSIS/DSP/Source/SupportFunctions/arm_float_to_q7.c **** 
 248:./Libraries/CMSIS/DSP/Source/SupportFunctions/arm_float_to_q7.c **** }
  93              		.loc 1 248 1
  94 0052 00BF     		nop
ARM GAS  /tmp/ccPDwxX3.s 			page 7


  95 0054 00BF     		nop
  96 0056 2437     		adds	r7, r7, #36
  97              	.LCFI3:
  98              		.cfi_def_cfa_offset 4
  99 0058 BD46     		mov	sp, r7
 100              	.LCFI4:
 101              		.cfi_def_cfa_register 13
 102              		@ sp needed
 103 005a 5DF8047B 		ldr	r7, [sp], #4
 104              	.LCFI5:
 105              		.cfi_restore 7
 106              		.cfi_def_cfa_offset 0
 107 005e 7047     		bx	lr
 108              	.L5:
 109              		.align	2
 110              	.L4:
 111 0060 00000043 		.word	1124073472
 112              		.cfi_endproc
 113              	.LFE145:
 115              		.text
 116              	.Letext0:
 117              		.file 2 "/usr/lib/gcc/arm-none-eabi/9.2.1/include/stdint.h"
 118              		.file 3 "/usr/lib/gcc/arm-none-eabi/9.2.1/include/stddef.h"
 119              		.file 4 "/usr/include/newlib/sys/_types.h"
 120              		.file 5 "/usr/include/newlib/sys/reent.h"
 121              		.file 6 "/usr/include/newlib/sys/lock.h"
 122              		.file 7 "/usr/include/newlib/math.h"
 123              		.file 8 "./Libraries/CMSIS/DSP/Include/arm_math.h"
ARM GAS  /tmp/ccPDwxX3.s 			page 8

