ARM GAS  /tmp/ccr95kGy.s 			page 1


   1              		.cpu cortex-m7
   2              		.eabi_attribute 28, 1
   3              		.eabi_attribute 20, 1
   4              		.eabi_attribute 21, 1
   5              		.eabi_attribute 23, 3
   6              		.eabi_attribute 24, 1
   7              		.eabi_attribute 25, 1
   8              		.eabi_attribute 26, 1
   9              		.eabi_attribute 30, 6
  10              		.eabi_attribute 34, 1
  11              		.eabi_attribute 18, 4
  12              		.file	"arm_cfft_radix4_f32.c"
  13              		.text
  14              	.Ltext0:
  15              		.cfi_sections	.debug_frame
  16              		.section	.text.arm_cfft_radix4_f32,"ax",%progbits
  17              		.align	1
  18              		.global	arm_cfft_radix4_f32
  19              		.arch armv7e-m
  20              		.syntax unified
  21              		.thumb
  22              		.thumb_func
  23              		.fpu fpv5-d16
  25              	arm_cfft_radix4_f32:
  26              	.LFB145:
  27              		.file 1 "./Libraries/CMSIS/DSP/Source/TransformFunctions/arm_cfft_radix4_f32.c"
   1:./Libraries/CMSIS/DSP/Source/TransformFunctions/arm_cfft_radix4_f32.c **** /* ----------------------------------------------------------------------
   2:./Libraries/CMSIS/DSP/Source/TransformFunctions/arm_cfft_radix4_f32.c ****  * Project:      CMSIS DSP Library
   3:./Libraries/CMSIS/DSP/Source/TransformFunctions/arm_cfft_radix4_f32.c ****  * Title:        arm_cfft_radix4_f32.c
   4:./Libraries/CMSIS/DSP/Source/TransformFunctions/arm_cfft_radix4_f32.c ****  * Description:  Radix-4 Decimation in Frequency CFFT & CIFFT Floating point processing function
   5:./Libraries/CMSIS/DSP/Source/TransformFunctions/arm_cfft_radix4_f32.c ****  *
   6:./Libraries/CMSIS/DSP/Source/TransformFunctions/arm_cfft_radix4_f32.c ****  * $Date:        18. March 2019
   7:./Libraries/CMSIS/DSP/Source/TransformFunctions/arm_cfft_radix4_f32.c ****  * $Revision:    V1.6.0
   8:./Libraries/CMSIS/DSP/Source/TransformFunctions/arm_cfft_radix4_f32.c ****  *
   9:./Libraries/CMSIS/DSP/Source/TransformFunctions/arm_cfft_radix4_f32.c ****  * Target Processor: Cortex-M cores
  10:./Libraries/CMSIS/DSP/Source/TransformFunctions/arm_cfft_radix4_f32.c ****  * -------------------------------------------------------------------- */
  11:./Libraries/CMSIS/DSP/Source/TransformFunctions/arm_cfft_radix4_f32.c **** /*
  12:./Libraries/CMSIS/DSP/Source/TransformFunctions/arm_cfft_radix4_f32.c ****  * Copyright (C) 2010-2019 ARM Limited or its affiliates. All rights reserved.
  13:./Libraries/CMSIS/DSP/Source/TransformFunctions/arm_cfft_radix4_f32.c ****  *
  14:./Libraries/CMSIS/DSP/Source/TransformFunctions/arm_cfft_radix4_f32.c ****  * SPDX-License-Identifier: Apache-2.0
  15:./Libraries/CMSIS/DSP/Source/TransformFunctions/arm_cfft_radix4_f32.c ****  *
  16:./Libraries/CMSIS/DSP/Source/TransformFunctions/arm_cfft_radix4_f32.c ****  * Licensed under the Apache License, Version 2.0 (the License); you may
  17:./Libraries/CMSIS/DSP/Source/TransformFunctions/arm_cfft_radix4_f32.c ****  * not use this file except in compliance with the License.
  18:./Libraries/CMSIS/DSP/Source/TransformFunctions/arm_cfft_radix4_f32.c ****  * You may obtain a copy of the License at
  19:./Libraries/CMSIS/DSP/Source/TransformFunctions/arm_cfft_radix4_f32.c ****  *
  20:./Libraries/CMSIS/DSP/Source/TransformFunctions/arm_cfft_radix4_f32.c ****  * www.apache.org/licenses/LICENSE-2.0
  21:./Libraries/CMSIS/DSP/Source/TransformFunctions/arm_cfft_radix4_f32.c ****  *
  22:./Libraries/CMSIS/DSP/Source/TransformFunctions/arm_cfft_radix4_f32.c ****  * Unless required by applicable law or agreed to in writing, software
  23:./Libraries/CMSIS/DSP/Source/TransformFunctions/arm_cfft_radix4_f32.c ****  * distributed under the License is distributed on an AS IS BASIS, WITHOUT
  24:./Libraries/CMSIS/DSP/Source/TransformFunctions/arm_cfft_radix4_f32.c ****  * WARRANTIES OR CONDITIONS OF ANY KIND, either express or implied.
  25:./Libraries/CMSIS/DSP/Source/TransformFunctions/arm_cfft_radix4_f32.c ****  * See the License for the specific language governing permissions and
  26:./Libraries/CMSIS/DSP/Source/TransformFunctions/arm_cfft_radix4_f32.c ****  * limitations under the License.
  27:./Libraries/CMSIS/DSP/Source/TransformFunctions/arm_cfft_radix4_f32.c ****  */
  28:./Libraries/CMSIS/DSP/Source/TransformFunctions/arm_cfft_radix4_f32.c **** 
  29:./Libraries/CMSIS/DSP/Source/TransformFunctions/arm_cfft_radix4_f32.c **** #include "arm_math.h"
  30:./Libraries/CMSIS/DSP/Source/TransformFunctions/arm_cfft_radix4_f32.c **** 
  31:./Libraries/CMSIS/DSP/Source/TransformFunctions/arm_cfft_radix4_f32.c **** extern void arm_bitreversal_f32(
ARM GAS  /tmp/ccr95kGy.s 			page 2


  32:./Libraries/CMSIS/DSP/Source/TransformFunctions/arm_cfft_radix4_f32.c ****         float32_t * pSrc,
  33:./Libraries/CMSIS/DSP/Source/TransformFunctions/arm_cfft_radix4_f32.c ****         uint16_t fftSize,
  34:./Libraries/CMSIS/DSP/Source/TransformFunctions/arm_cfft_radix4_f32.c ****         uint16_t bitRevFactor,
  35:./Libraries/CMSIS/DSP/Source/TransformFunctions/arm_cfft_radix4_f32.c ****   const uint16_t * pBitRevTab);
  36:./Libraries/CMSIS/DSP/Source/TransformFunctions/arm_cfft_radix4_f32.c **** 
  37:./Libraries/CMSIS/DSP/Source/TransformFunctions/arm_cfft_radix4_f32.c **** void arm_radix4_butterfly_f32(
  38:./Libraries/CMSIS/DSP/Source/TransformFunctions/arm_cfft_radix4_f32.c ****         float32_t * pSrc,
  39:./Libraries/CMSIS/DSP/Source/TransformFunctions/arm_cfft_radix4_f32.c ****         uint16_t fftLen,
  40:./Libraries/CMSIS/DSP/Source/TransformFunctions/arm_cfft_radix4_f32.c ****   const float32_t * pCoef,
  41:./Libraries/CMSIS/DSP/Source/TransformFunctions/arm_cfft_radix4_f32.c ****         uint16_t twidCoefModifier);
  42:./Libraries/CMSIS/DSP/Source/TransformFunctions/arm_cfft_radix4_f32.c **** 
  43:./Libraries/CMSIS/DSP/Source/TransformFunctions/arm_cfft_radix4_f32.c **** void arm_radix4_butterfly_inverse_f32(
  44:./Libraries/CMSIS/DSP/Source/TransformFunctions/arm_cfft_radix4_f32.c ****         float32_t * pSrc,
  45:./Libraries/CMSIS/DSP/Source/TransformFunctions/arm_cfft_radix4_f32.c ****         uint16_t fftLen,
  46:./Libraries/CMSIS/DSP/Source/TransformFunctions/arm_cfft_radix4_f32.c ****   const float32_t * pCoef,
  47:./Libraries/CMSIS/DSP/Source/TransformFunctions/arm_cfft_radix4_f32.c ****         uint16_t twidCoefModifier,
  48:./Libraries/CMSIS/DSP/Source/TransformFunctions/arm_cfft_radix4_f32.c ****         float32_t onebyfftLen);
  49:./Libraries/CMSIS/DSP/Source/TransformFunctions/arm_cfft_radix4_f32.c **** 
  50:./Libraries/CMSIS/DSP/Source/TransformFunctions/arm_cfft_radix4_f32.c **** 
  51:./Libraries/CMSIS/DSP/Source/TransformFunctions/arm_cfft_radix4_f32.c **** /**
  52:./Libraries/CMSIS/DSP/Source/TransformFunctions/arm_cfft_radix4_f32.c ****   @ingroup groupTransforms
  53:./Libraries/CMSIS/DSP/Source/TransformFunctions/arm_cfft_radix4_f32.c ****  */
  54:./Libraries/CMSIS/DSP/Source/TransformFunctions/arm_cfft_radix4_f32.c **** 
  55:./Libraries/CMSIS/DSP/Source/TransformFunctions/arm_cfft_radix4_f32.c **** /**
  56:./Libraries/CMSIS/DSP/Source/TransformFunctions/arm_cfft_radix4_f32.c ****   @addtogroup ComplexFFT
  57:./Libraries/CMSIS/DSP/Source/TransformFunctions/arm_cfft_radix4_f32.c ****   @{
  58:./Libraries/CMSIS/DSP/Source/TransformFunctions/arm_cfft_radix4_f32.c ****  */
  59:./Libraries/CMSIS/DSP/Source/TransformFunctions/arm_cfft_radix4_f32.c **** 
  60:./Libraries/CMSIS/DSP/Source/TransformFunctions/arm_cfft_radix4_f32.c **** /**
  61:./Libraries/CMSIS/DSP/Source/TransformFunctions/arm_cfft_radix4_f32.c ****   @brief         Processing function for the floating-point Radix-4 CFFT/CIFFT.
  62:./Libraries/CMSIS/DSP/Source/TransformFunctions/arm_cfft_radix4_f32.c ****   @deprecated    Do not use this function. It has been superseded by \ref arm_cfft_f32 and will be 
  63:./Libraries/CMSIS/DSP/Source/TransformFunctions/arm_cfft_radix4_f32.c ****   @param[in]     S    points to an instance of the floating-point Radix-4 CFFT/CIFFT structure
  64:./Libraries/CMSIS/DSP/Source/TransformFunctions/arm_cfft_radix4_f32.c ****   @param[in,out] pSrc points to the complex data buffer of size <code>2*fftLen</code>. Processing o
  65:./Libraries/CMSIS/DSP/Source/TransformFunctions/arm_cfft_radix4_f32.c ****   @return        none
  66:./Libraries/CMSIS/DSP/Source/TransformFunctions/arm_cfft_radix4_f32.c ****  */
  67:./Libraries/CMSIS/DSP/Source/TransformFunctions/arm_cfft_radix4_f32.c **** 
  68:./Libraries/CMSIS/DSP/Source/TransformFunctions/arm_cfft_radix4_f32.c **** void arm_cfft_radix4_f32(
  69:./Libraries/CMSIS/DSP/Source/TransformFunctions/arm_cfft_radix4_f32.c ****   const arm_cfft_radix4_instance_f32 * S,
  70:./Libraries/CMSIS/DSP/Source/TransformFunctions/arm_cfft_radix4_f32.c ****         float32_t * pSrc)
  71:./Libraries/CMSIS/DSP/Source/TransformFunctions/arm_cfft_radix4_f32.c **** {
  28              		.loc 1 71 1
  29              		.cfi_startproc
  30              		@ args = 0, pretend = 0, frame = 8
  31              		@ frame_needed = 1, uses_anonymous_args = 0
  32 0000 80B5     		push	{r7, lr}
  33              	.LCFI0:
  34              		.cfi_def_cfa_offset 8
  35              		.cfi_offset 7, -8
  36              		.cfi_offset 14, -4
  37 0002 82B0     		sub	sp, sp, #8
  38              	.LCFI1:
  39              		.cfi_def_cfa_offset 16
  40 0004 00AF     		add	r7, sp, #0
  41              	.LCFI2:
  42              		.cfi_def_cfa_register 7
  43 0006 7860     		str	r0, [r7, #4]
  44 0008 3960     		str	r1, [r7]
ARM GAS  /tmp/ccr95kGy.s 			page 3


  72:./Libraries/CMSIS/DSP/Source/TransformFunctions/arm_cfft_radix4_f32.c ****    if (S->ifftFlag == 1U)
  45              		.loc 1 72 9
  46 000a 7B68     		ldr	r3, [r7, #4]
  47 000c 9B78     		ldrb	r3, [r3, #2]	@ zero_extendqisi2
  48              		.loc 1 72 7
  49 000e 012B     		cmp	r3, #1
  50 0010 0FD1     		bne	.L2
  73:./Libraries/CMSIS/DSP/Source/TransformFunctions/arm_cfft_radix4_f32.c ****    {
  74:./Libraries/CMSIS/DSP/Source/TransformFunctions/arm_cfft_radix4_f32.c ****       /*  Complex IFFT radix-4  */
  75:./Libraries/CMSIS/DSP/Source/TransformFunctions/arm_cfft_radix4_f32.c ****       arm_radix4_butterfly_inverse_f32(pSrc, S->fftLen, S->pTwiddle, S->twidCoefModifier, S->onebyf
  51              		.loc 1 75 7
  52 0012 7B68     		ldr	r3, [r7, #4]
  53 0014 1988     		ldrh	r1, [r3]
  54 0016 7B68     		ldr	r3, [r7, #4]
  55 0018 5A68     		ldr	r2, [r3, #4]
  56 001a 7B68     		ldr	r3, [r7, #4]
  57 001c 9889     		ldrh	r0, [r3, #12]
  58 001e 7B68     		ldr	r3, [r7, #4]
  59 0020 D3ED047A 		vldr.32	s15, [r3, #16]
  60 0024 B0EE670A 		vmov.f32	s0, s15
  61 0028 0346     		mov	r3, r0
  62 002a 3868     		ldr	r0, [r7]
  63 002c FFF7FEFF 		bl	arm_radix4_butterfly_inverse_f32
  64 0030 08E0     		b	.L3
  65              	.L2:
  76:./Libraries/CMSIS/DSP/Source/TransformFunctions/arm_cfft_radix4_f32.c ****    }
  77:./Libraries/CMSIS/DSP/Source/TransformFunctions/arm_cfft_radix4_f32.c ****    else
  78:./Libraries/CMSIS/DSP/Source/TransformFunctions/arm_cfft_radix4_f32.c ****    {
  79:./Libraries/CMSIS/DSP/Source/TransformFunctions/arm_cfft_radix4_f32.c ****       /*  Complex FFT radix-4  */
  80:./Libraries/CMSIS/DSP/Source/TransformFunctions/arm_cfft_radix4_f32.c ****       arm_radix4_butterfly_f32(pSrc, S->fftLen, S->pTwiddle, S->twidCoefModifier);
  66              		.loc 1 80 7
  67 0032 7B68     		ldr	r3, [r7, #4]
  68 0034 1988     		ldrh	r1, [r3]
  69 0036 7B68     		ldr	r3, [r7, #4]
  70 0038 5A68     		ldr	r2, [r3, #4]
  71 003a 7B68     		ldr	r3, [r7, #4]
  72 003c 9B89     		ldrh	r3, [r3, #12]
  73 003e 3868     		ldr	r0, [r7]
  74 0040 FFF7FEFF 		bl	arm_radix4_butterfly_f32
  75              	.L3:
  81:./Libraries/CMSIS/DSP/Source/TransformFunctions/arm_cfft_radix4_f32.c ****    }
  82:./Libraries/CMSIS/DSP/Source/TransformFunctions/arm_cfft_radix4_f32.c **** 
  83:./Libraries/CMSIS/DSP/Source/TransformFunctions/arm_cfft_radix4_f32.c ****    if (S->bitReverseFlag == 1U)
  76              		.loc 1 83 9
  77 0044 7B68     		ldr	r3, [r7, #4]
  78 0046 DB78     		ldrb	r3, [r3, #3]	@ zero_extendqisi2
  79              		.loc 1 83 7
  80 0048 012B     		cmp	r3, #1
  81 004a 08D1     		bne	.L5
  84:./Libraries/CMSIS/DSP/Source/TransformFunctions/arm_cfft_radix4_f32.c ****    {
  85:./Libraries/CMSIS/DSP/Source/TransformFunctions/arm_cfft_radix4_f32.c ****       /*  Bit Reversal */
  86:./Libraries/CMSIS/DSP/Source/TransformFunctions/arm_cfft_radix4_f32.c ****       arm_bitreversal_f32(pSrc, S->fftLen, S->bitRevFactor, S->pBitRevTable);
  82              		.loc 1 86 7
  83 004c 7B68     		ldr	r3, [r7, #4]
  84 004e 1988     		ldrh	r1, [r3]
  85 0050 7B68     		ldr	r3, [r7, #4]
  86 0052 DA89     		ldrh	r2, [r3, #14]
ARM GAS  /tmp/ccr95kGy.s 			page 4


  87 0054 7B68     		ldr	r3, [r7, #4]
  88 0056 9B68     		ldr	r3, [r3, #8]
  89 0058 3868     		ldr	r0, [r7]
  90 005a FFF7FEFF 		bl	arm_bitreversal_f32
  91              	.L5:
  87:./Libraries/CMSIS/DSP/Source/TransformFunctions/arm_cfft_radix4_f32.c ****    }
  88:./Libraries/CMSIS/DSP/Source/TransformFunctions/arm_cfft_radix4_f32.c **** 
  89:./Libraries/CMSIS/DSP/Source/TransformFunctions/arm_cfft_radix4_f32.c **** }
  92              		.loc 1 89 1
  93 005e 00BF     		nop
  94 0060 0837     		adds	r7, r7, #8
  95              	.LCFI3:
  96              		.cfi_def_cfa_offset 8
  97 0062 BD46     		mov	sp, r7
  98              	.LCFI4:
  99              		.cfi_def_cfa_register 13
 100              		@ sp needed
 101 0064 80BD     		pop	{r7, pc}
 102              		.cfi_endproc
 103              	.LFE145:
 105              		.section	.text.arm_radix4_butterfly_f32,"ax",%progbits
 106              		.align	1
 107              		.global	arm_radix4_butterfly_f32
 108              		.syntax unified
 109              		.thumb
 110              		.thumb_func
 111              		.fpu fpv5-d16
 113              	arm_radix4_butterfly_f32:
 114              	.LFB146:
  90:./Libraries/CMSIS/DSP/Source/TransformFunctions/arm_cfft_radix4_f32.c **** 
  91:./Libraries/CMSIS/DSP/Source/TransformFunctions/arm_cfft_radix4_f32.c **** /**
  92:./Libraries/CMSIS/DSP/Source/TransformFunctions/arm_cfft_radix4_f32.c ****   @} end of ComplexFFT group
  93:./Libraries/CMSIS/DSP/Source/TransformFunctions/arm_cfft_radix4_f32.c ****  */
  94:./Libraries/CMSIS/DSP/Source/TransformFunctions/arm_cfft_radix4_f32.c **** 
  95:./Libraries/CMSIS/DSP/Source/TransformFunctions/arm_cfft_radix4_f32.c **** /* ----------------------------------------------------------------------
  96:./Libraries/CMSIS/DSP/Source/TransformFunctions/arm_cfft_radix4_f32.c ****  * Internal helper function used by the FFTs
  97:./Libraries/CMSIS/DSP/Source/TransformFunctions/arm_cfft_radix4_f32.c ****  * ---------------------------------------------------------------------- */
  98:./Libraries/CMSIS/DSP/Source/TransformFunctions/arm_cfft_radix4_f32.c **** 
  99:./Libraries/CMSIS/DSP/Source/TransformFunctions/arm_cfft_radix4_f32.c **** /**
 100:./Libraries/CMSIS/DSP/Source/TransformFunctions/arm_cfft_radix4_f32.c ****   brief         Core function for the floating-point CFFT butterfly process.
 101:./Libraries/CMSIS/DSP/Source/TransformFunctions/arm_cfft_radix4_f32.c ****   param[in,out] pSrc             points to the in-place buffer of floating-point data type
 102:./Libraries/CMSIS/DSP/Source/TransformFunctions/arm_cfft_radix4_f32.c ****   param[in]     fftLen           length of the FFT
 103:./Libraries/CMSIS/DSP/Source/TransformFunctions/arm_cfft_radix4_f32.c ****   param[in]     pCoef            points to the twiddle coefficient buffer
 104:./Libraries/CMSIS/DSP/Source/TransformFunctions/arm_cfft_radix4_f32.c ****   param[in]     twidCoefModifier twiddle coefficient modifier that supports different size FFTs wit
 105:./Libraries/CMSIS/DSP/Source/TransformFunctions/arm_cfft_radix4_f32.c ****   return        none
 106:./Libraries/CMSIS/DSP/Source/TransformFunctions/arm_cfft_radix4_f32.c ****  */
 107:./Libraries/CMSIS/DSP/Source/TransformFunctions/arm_cfft_radix4_f32.c **** 
 108:./Libraries/CMSIS/DSP/Source/TransformFunctions/arm_cfft_radix4_f32.c **** void arm_radix4_butterfly_f32(
 109:./Libraries/CMSIS/DSP/Source/TransformFunctions/arm_cfft_radix4_f32.c ****         float32_t * pSrc,
 110:./Libraries/CMSIS/DSP/Source/TransformFunctions/arm_cfft_radix4_f32.c ****         uint16_t fftLen,
 111:./Libraries/CMSIS/DSP/Source/TransformFunctions/arm_cfft_radix4_f32.c ****   const float32_t * pCoef,
 112:./Libraries/CMSIS/DSP/Source/TransformFunctions/arm_cfft_radix4_f32.c ****         uint16_t twidCoefModifier)
 113:./Libraries/CMSIS/DSP/Source/TransformFunctions/arm_cfft_radix4_f32.c **** {
 115              		.loc 1 113 1
 116              		.cfi_startproc
 117              		@ args = 0, pretend = 0, frame = 112
 118              		@ frame_needed = 1, uses_anonymous_args = 0
ARM GAS  /tmp/ccr95kGy.s 			page 5


 119              		@ link register save eliminated.
 120 0000 80B4     		push	{r7}
 121              	.LCFI5:
 122              		.cfi_def_cfa_offset 4
 123              		.cfi_offset 7, -4
 124 0002 9DB0     		sub	sp, sp, #116
 125              	.LCFI6:
 126              		.cfi_def_cfa_offset 120
 127 0004 00AF     		add	r7, sp, #0
 128              	.LCFI7:
 129              		.cfi_def_cfa_register 7
 130 0006 F860     		str	r0, [r7, #12]
 131 0008 7A60     		str	r2, [r7, #4]
 132 000a 1A46     		mov	r2, r3
 133 000c 0B46     		mov	r3, r1	@ movhi
 134 000e 7B81     		strh	r3, [r7, #10]	@ movhi
 135 0010 1346     		mov	r3, r2	@ movhi
 136 0012 3B81     		strh	r3, [r7, #8]	@ movhi
 114:./Libraries/CMSIS/DSP/Source/TransformFunctions/arm_cfft_radix4_f32.c ****         float32_t co1, co2, co3, si1, si2, si3;
 115:./Libraries/CMSIS/DSP/Source/TransformFunctions/arm_cfft_radix4_f32.c ****         uint32_t ia1, ia2, ia3;
 116:./Libraries/CMSIS/DSP/Source/TransformFunctions/arm_cfft_radix4_f32.c ****         uint32_t i0, i1, i2, i3;
 117:./Libraries/CMSIS/DSP/Source/TransformFunctions/arm_cfft_radix4_f32.c ****         uint32_t n1, n2, j, k;
 118:./Libraries/CMSIS/DSP/Source/TransformFunctions/arm_cfft_radix4_f32.c **** 
 119:./Libraries/CMSIS/DSP/Source/TransformFunctions/arm_cfft_radix4_f32.c **** #if defined (ARM_MATH_LOOPUNROLL)
 120:./Libraries/CMSIS/DSP/Source/TransformFunctions/arm_cfft_radix4_f32.c **** 
 121:./Libraries/CMSIS/DSP/Source/TransformFunctions/arm_cfft_radix4_f32.c ****         float32_t xaIn, yaIn, xbIn, ybIn, xcIn, ycIn, xdIn, ydIn;
 122:./Libraries/CMSIS/DSP/Source/TransformFunctions/arm_cfft_radix4_f32.c ****         float32_t Xaplusc, Xbplusd, Yaplusc, Ybplusd, Xaminusc, Xbminusd, Yaminusc,
 123:./Libraries/CMSIS/DSP/Source/TransformFunctions/arm_cfft_radix4_f32.c ****         Ybminusd;
 124:./Libraries/CMSIS/DSP/Source/TransformFunctions/arm_cfft_radix4_f32.c ****         float32_t Xb12C_out, Yb12C_out, Xc12C_out, Yc12C_out, Xd12C_out, Yd12C_out;
 125:./Libraries/CMSIS/DSP/Source/TransformFunctions/arm_cfft_radix4_f32.c ****         float32_t Xb12_out, Yb12_out, Xc12_out, Yc12_out, Xd12_out, Yd12_out;
 126:./Libraries/CMSIS/DSP/Source/TransformFunctions/arm_cfft_radix4_f32.c ****         float32_t *ptr1;
 127:./Libraries/CMSIS/DSP/Source/TransformFunctions/arm_cfft_radix4_f32.c ****         float32_t p0,p1,p2,p3,p4,p5;
 128:./Libraries/CMSIS/DSP/Source/TransformFunctions/arm_cfft_radix4_f32.c ****         float32_t a0,a1,a2,a3,a4,a5,a6,a7;
 129:./Libraries/CMSIS/DSP/Source/TransformFunctions/arm_cfft_radix4_f32.c **** 
 130:./Libraries/CMSIS/DSP/Source/TransformFunctions/arm_cfft_radix4_f32.c ****    /*  Initializations for the first stage */
 131:./Libraries/CMSIS/DSP/Source/TransformFunctions/arm_cfft_radix4_f32.c ****    n2 = fftLen;
 132:./Libraries/CMSIS/DSP/Source/TransformFunctions/arm_cfft_radix4_f32.c ****    n1 = n2;
 133:./Libraries/CMSIS/DSP/Source/TransformFunctions/arm_cfft_radix4_f32.c **** 
 134:./Libraries/CMSIS/DSP/Source/TransformFunctions/arm_cfft_radix4_f32.c ****    /* n2 = fftLen/4 */
 135:./Libraries/CMSIS/DSP/Source/TransformFunctions/arm_cfft_radix4_f32.c ****    n2 >>= 2U;
 136:./Libraries/CMSIS/DSP/Source/TransformFunctions/arm_cfft_radix4_f32.c ****    i0 = 0U;
 137:./Libraries/CMSIS/DSP/Source/TransformFunctions/arm_cfft_radix4_f32.c ****    ia1 = 0U;
 138:./Libraries/CMSIS/DSP/Source/TransformFunctions/arm_cfft_radix4_f32.c **** 
 139:./Libraries/CMSIS/DSP/Source/TransformFunctions/arm_cfft_radix4_f32.c ****    j = n2;
 140:./Libraries/CMSIS/DSP/Source/TransformFunctions/arm_cfft_radix4_f32.c **** 
 141:./Libraries/CMSIS/DSP/Source/TransformFunctions/arm_cfft_radix4_f32.c ****    /*  Calculation of first stage */
 142:./Libraries/CMSIS/DSP/Source/TransformFunctions/arm_cfft_radix4_f32.c ****    do
 143:./Libraries/CMSIS/DSP/Source/TransformFunctions/arm_cfft_radix4_f32.c ****    {
 144:./Libraries/CMSIS/DSP/Source/TransformFunctions/arm_cfft_radix4_f32.c ****       /*  index calculation for the input as, */
 145:./Libraries/CMSIS/DSP/Source/TransformFunctions/arm_cfft_radix4_f32.c ****       /*  pSrc[i0 + 0], pSrc[i0 + fftLen/4], pSrc[i0 + fftLen/2], pSrc[i0 + 3fftLen/4] */
 146:./Libraries/CMSIS/DSP/Source/TransformFunctions/arm_cfft_radix4_f32.c ****       i1 = i0 + n2;
 147:./Libraries/CMSIS/DSP/Source/TransformFunctions/arm_cfft_radix4_f32.c ****       i2 = i1 + n2;
 148:./Libraries/CMSIS/DSP/Source/TransformFunctions/arm_cfft_radix4_f32.c ****       i3 = i2 + n2;
 149:./Libraries/CMSIS/DSP/Source/TransformFunctions/arm_cfft_radix4_f32.c **** 
 150:./Libraries/CMSIS/DSP/Source/TransformFunctions/arm_cfft_radix4_f32.c ****       xaIn = pSrc[(2U * i0)];
 151:./Libraries/CMSIS/DSP/Source/TransformFunctions/arm_cfft_radix4_f32.c ****       yaIn = pSrc[(2U * i0) + 1U];
 152:./Libraries/CMSIS/DSP/Source/TransformFunctions/arm_cfft_radix4_f32.c **** 
ARM GAS  /tmp/ccr95kGy.s 			page 6


 153:./Libraries/CMSIS/DSP/Source/TransformFunctions/arm_cfft_radix4_f32.c ****       xbIn = pSrc[(2U * i1)];
 154:./Libraries/CMSIS/DSP/Source/TransformFunctions/arm_cfft_radix4_f32.c ****       ybIn = pSrc[(2U * i1) + 1U];
 155:./Libraries/CMSIS/DSP/Source/TransformFunctions/arm_cfft_radix4_f32.c **** 
 156:./Libraries/CMSIS/DSP/Source/TransformFunctions/arm_cfft_radix4_f32.c ****       xcIn = pSrc[(2U * i2)];
 157:./Libraries/CMSIS/DSP/Source/TransformFunctions/arm_cfft_radix4_f32.c ****       ycIn = pSrc[(2U * i2) + 1U];
 158:./Libraries/CMSIS/DSP/Source/TransformFunctions/arm_cfft_radix4_f32.c **** 
 159:./Libraries/CMSIS/DSP/Source/TransformFunctions/arm_cfft_radix4_f32.c ****       xdIn = pSrc[(2U * i3)];
 160:./Libraries/CMSIS/DSP/Source/TransformFunctions/arm_cfft_radix4_f32.c ****       ydIn = pSrc[(2U * i3) + 1U];
 161:./Libraries/CMSIS/DSP/Source/TransformFunctions/arm_cfft_radix4_f32.c **** 
 162:./Libraries/CMSIS/DSP/Source/TransformFunctions/arm_cfft_radix4_f32.c ****       /* xa + xc */
 163:./Libraries/CMSIS/DSP/Source/TransformFunctions/arm_cfft_radix4_f32.c ****       Xaplusc = xaIn + xcIn;
 164:./Libraries/CMSIS/DSP/Source/TransformFunctions/arm_cfft_radix4_f32.c ****       /* xb + xd */
 165:./Libraries/CMSIS/DSP/Source/TransformFunctions/arm_cfft_radix4_f32.c ****       Xbplusd = xbIn + xdIn;
 166:./Libraries/CMSIS/DSP/Source/TransformFunctions/arm_cfft_radix4_f32.c ****       /* ya + yc */
 167:./Libraries/CMSIS/DSP/Source/TransformFunctions/arm_cfft_radix4_f32.c ****       Yaplusc = yaIn + ycIn;
 168:./Libraries/CMSIS/DSP/Source/TransformFunctions/arm_cfft_radix4_f32.c ****       /* yb + yd */
 169:./Libraries/CMSIS/DSP/Source/TransformFunctions/arm_cfft_radix4_f32.c ****       Ybplusd = ybIn + ydIn;
 170:./Libraries/CMSIS/DSP/Source/TransformFunctions/arm_cfft_radix4_f32.c **** 
 171:./Libraries/CMSIS/DSP/Source/TransformFunctions/arm_cfft_radix4_f32.c ****       /*  index calculation for the coefficients */
 172:./Libraries/CMSIS/DSP/Source/TransformFunctions/arm_cfft_radix4_f32.c ****       ia2 = ia1 + ia1;
 173:./Libraries/CMSIS/DSP/Source/TransformFunctions/arm_cfft_radix4_f32.c ****       co2 = pCoef[ia2 * 2U];
 174:./Libraries/CMSIS/DSP/Source/TransformFunctions/arm_cfft_radix4_f32.c ****       si2 = pCoef[(ia2 * 2U) + 1U];
 175:./Libraries/CMSIS/DSP/Source/TransformFunctions/arm_cfft_radix4_f32.c **** 
 176:./Libraries/CMSIS/DSP/Source/TransformFunctions/arm_cfft_radix4_f32.c ****       /* xa - xc */
 177:./Libraries/CMSIS/DSP/Source/TransformFunctions/arm_cfft_radix4_f32.c ****       Xaminusc = xaIn - xcIn;
 178:./Libraries/CMSIS/DSP/Source/TransformFunctions/arm_cfft_radix4_f32.c ****       /* xb - xd */
 179:./Libraries/CMSIS/DSP/Source/TransformFunctions/arm_cfft_radix4_f32.c ****       Xbminusd = xbIn - xdIn;
 180:./Libraries/CMSIS/DSP/Source/TransformFunctions/arm_cfft_radix4_f32.c ****       /* ya - yc */
 181:./Libraries/CMSIS/DSP/Source/TransformFunctions/arm_cfft_radix4_f32.c ****       Yaminusc = yaIn - ycIn;
 182:./Libraries/CMSIS/DSP/Source/TransformFunctions/arm_cfft_radix4_f32.c ****       /* yb - yd */
 183:./Libraries/CMSIS/DSP/Source/TransformFunctions/arm_cfft_radix4_f32.c ****       Ybminusd = ybIn - ydIn;
 184:./Libraries/CMSIS/DSP/Source/TransformFunctions/arm_cfft_radix4_f32.c **** 
 185:./Libraries/CMSIS/DSP/Source/TransformFunctions/arm_cfft_radix4_f32.c ****       /* xa' = xa + xb + xc + xd */
 186:./Libraries/CMSIS/DSP/Source/TransformFunctions/arm_cfft_radix4_f32.c ****       pSrc[(2U * i0)] = Xaplusc + Xbplusd;
 187:./Libraries/CMSIS/DSP/Source/TransformFunctions/arm_cfft_radix4_f32.c ****       /* ya' = ya + yb + yc + yd */
 188:./Libraries/CMSIS/DSP/Source/TransformFunctions/arm_cfft_radix4_f32.c ****       pSrc[(2U * i0) + 1U] = Yaplusc + Ybplusd;
 189:./Libraries/CMSIS/DSP/Source/TransformFunctions/arm_cfft_radix4_f32.c **** 
 190:./Libraries/CMSIS/DSP/Source/TransformFunctions/arm_cfft_radix4_f32.c ****       /* (xa - xc) + (yb - yd) */
 191:./Libraries/CMSIS/DSP/Source/TransformFunctions/arm_cfft_radix4_f32.c ****       Xb12C_out = (Xaminusc + Ybminusd);
 192:./Libraries/CMSIS/DSP/Source/TransformFunctions/arm_cfft_radix4_f32.c ****       /* (ya - yc) + (xb - xd) */
 193:./Libraries/CMSIS/DSP/Source/TransformFunctions/arm_cfft_radix4_f32.c ****       Yb12C_out = (Yaminusc - Xbminusd);
 194:./Libraries/CMSIS/DSP/Source/TransformFunctions/arm_cfft_radix4_f32.c ****       /* (xa + xc) - (xb + xd) */
 195:./Libraries/CMSIS/DSP/Source/TransformFunctions/arm_cfft_radix4_f32.c ****       Xc12C_out = (Xaplusc - Xbplusd);
 196:./Libraries/CMSIS/DSP/Source/TransformFunctions/arm_cfft_radix4_f32.c ****       /* (ya + yc) - (yb + yd) */
 197:./Libraries/CMSIS/DSP/Source/TransformFunctions/arm_cfft_radix4_f32.c ****       Yc12C_out = (Yaplusc - Ybplusd);
 198:./Libraries/CMSIS/DSP/Source/TransformFunctions/arm_cfft_radix4_f32.c ****       /* (xa - xc) - (yb - yd) */
 199:./Libraries/CMSIS/DSP/Source/TransformFunctions/arm_cfft_radix4_f32.c ****       Xd12C_out = (Xaminusc - Ybminusd);
 200:./Libraries/CMSIS/DSP/Source/TransformFunctions/arm_cfft_radix4_f32.c ****       /* (ya - yc) + (xb - xd) */
 201:./Libraries/CMSIS/DSP/Source/TransformFunctions/arm_cfft_radix4_f32.c ****       Yd12C_out = (Xbminusd + Yaminusc);
 202:./Libraries/CMSIS/DSP/Source/TransformFunctions/arm_cfft_radix4_f32.c **** 
 203:./Libraries/CMSIS/DSP/Source/TransformFunctions/arm_cfft_radix4_f32.c ****       co1 = pCoef[ia1 * 2U];
 204:./Libraries/CMSIS/DSP/Source/TransformFunctions/arm_cfft_radix4_f32.c ****       si1 = pCoef[(ia1 * 2U) + 1U];
 205:./Libraries/CMSIS/DSP/Source/TransformFunctions/arm_cfft_radix4_f32.c **** 
 206:./Libraries/CMSIS/DSP/Source/TransformFunctions/arm_cfft_radix4_f32.c ****       /*  index calculation for the coefficients */
 207:./Libraries/CMSIS/DSP/Source/TransformFunctions/arm_cfft_radix4_f32.c ****       ia3 = ia2 + ia1;
 208:./Libraries/CMSIS/DSP/Source/TransformFunctions/arm_cfft_radix4_f32.c ****       co3 = pCoef[ia3 * 2U];
 209:./Libraries/CMSIS/DSP/Source/TransformFunctions/arm_cfft_radix4_f32.c ****       si3 = pCoef[(ia3 * 2U) + 1U];
ARM GAS  /tmp/ccr95kGy.s 			page 7


 210:./Libraries/CMSIS/DSP/Source/TransformFunctions/arm_cfft_radix4_f32.c **** 
 211:./Libraries/CMSIS/DSP/Source/TransformFunctions/arm_cfft_radix4_f32.c ****       Xb12_out = Xb12C_out * co1;
 212:./Libraries/CMSIS/DSP/Source/TransformFunctions/arm_cfft_radix4_f32.c ****       Yb12_out = Yb12C_out * co1;
 213:./Libraries/CMSIS/DSP/Source/TransformFunctions/arm_cfft_radix4_f32.c ****       Xc12_out = Xc12C_out * co2;
 214:./Libraries/CMSIS/DSP/Source/TransformFunctions/arm_cfft_radix4_f32.c ****       Yc12_out = Yc12C_out * co2;
 215:./Libraries/CMSIS/DSP/Source/TransformFunctions/arm_cfft_radix4_f32.c ****       Xd12_out = Xd12C_out * co3;
 216:./Libraries/CMSIS/DSP/Source/TransformFunctions/arm_cfft_radix4_f32.c ****       Yd12_out = Yd12C_out * co3;
 217:./Libraries/CMSIS/DSP/Source/TransformFunctions/arm_cfft_radix4_f32.c **** 
 218:./Libraries/CMSIS/DSP/Source/TransformFunctions/arm_cfft_radix4_f32.c ****       /* xb' = (xa+yb-xc-yd)co1 - (ya-xb-yc+xd)(si1) */
 219:./Libraries/CMSIS/DSP/Source/TransformFunctions/arm_cfft_radix4_f32.c ****       //Xb12_out -= Yb12C_out * si1;
 220:./Libraries/CMSIS/DSP/Source/TransformFunctions/arm_cfft_radix4_f32.c ****       p0 = Yb12C_out * si1;
 221:./Libraries/CMSIS/DSP/Source/TransformFunctions/arm_cfft_radix4_f32.c ****       /* yb' = (ya-xb-yc+xd)co1 + (xa+yb-xc-yd)(si1) */
 222:./Libraries/CMSIS/DSP/Source/TransformFunctions/arm_cfft_radix4_f32.c ****       //Yb12_out += Xb12C_out * si1;
 223:./Libraries/CMSIS/DSP/Source/TransformFunctions/arm_cfft_radix4_f32.c ****       p1 = Xb12C_out * si1;
 224:./Libraries/CMSIS/DSP/Source/TransformFunctions/arm_cfft_radix4_f32.c ****       /* xc' = (xa-xb+xc-xd)co2 - (ya-yb+yc-yd)(si2) */
 225:./Libraries/CMSIS/DSP/Source/TransformFunctions/arm_cfft_radix4_f32.c ****       //Xc12_out -= Yc12C_out * si2;
 226:./Libraries/CMSIS/DSP/Source/TransformFunctions/arm_cfft_radix4_f32.c ****       p2 = Yc12C_out * si2;
 227:./Libraries/CMSIS/DSP/Source/TransformFunctions/arm_cfft_radix4_f32.c ****       /* yc' = (ya-yb+yc-yd)co2 + (xa-xb+xc-xd)(si2) */
 228:./Libraries/CMSIS/DSP/Source/TransformFunctions/arm_cfft_radix4_f32.c ****       //Yc12_out += Xc12C_out * si2;
 229:./Libraries/CMSIS/DSP/Source/TransformFunctions/arm_cfft_radix4_f32.c ****       p3 = Xc12C_out * si2;
 230:./Libraries/CMSIS/DSP/Source/TransformFunctions/arm_cfft_radix4_f32.c ****       /* xd' = (xa-yb-xc+yd)co3 - (ya+xb-yc-xd)(si3) */
 231:./Libraries/CMSIS/DSP/Source/TransformFunctions/arm_cfft_radix4_f32.c ****       //Xd12_out -= Yd12C_out * si3;
 232:./Libraries/CMSIS/DSP/Source/TransformFunctions/arm_cfft_radix4_f32.c ****       p4 = Yd12C_out * si3;
 233:./Libraries/CMSIS/DSP/Source/TransformFunctions/arm_cfft_radix4_f32.c ****       /* yd' = (ya+xb-yc-xd)co3 + (xa-yb-xc+yd)(si3) */
 234:./Libraries/CMSIS/DSP/Source/TransformFunctions/arm_cfft_radix4_f32.c ****       //Yd12_out += Xd12C_out * si3;
 235:./Libraries/CMSIS/DSP/Source/TransformFunctions/arm_cfft_radix4_f32.c ****       p5 = Xd12C_out * si3;
 236:./Libraries/CMSIS/DSP/Source/TransformFunctions/arm_cfft_radix4_f32.c **** 
 237:./Libraries/CMSIS/DSP/Source/TransformFunctions/arm_cfft_radix4_f32.c ****       Xb12_out += p0;
 238:./Libraries/CMSIS/DSP/Source/TransformFunctions/arm_cfft_radix4_f32.c ****       Yb12_out -= p1;
 239:./Libraries/CMSIS/DSP/Source/TransformFunctions/arm_cfft_radix4_f32.c ****       Xc12_out += p2;
 240:./Libraries/CMSIS/DSP/Source/TransformFunctions/arm_cfft_radix4_f32.c ****       Yc12_out -= p3;
 241:./Libraries/CMSIS/DSP/Source/TransformFunctions/arm_cfft_radix4_f32.c ****       Xd12_out += p4;
 242:./Libraries/CMSIS/DSP/Source/TransformFunctions/arm_cfft_radix4_f32.c ****       Yd12_out -= p5;
 243:./Libraries/CMSIS/DSP/Source/TransformFunctions/arm_cfft_radix4_f32.c **** 
 244:./Libraries/CMSIS/DSP/Source/TransformFunctions/arm_cfft_radix4_f32.c ****       /* xc' = (xa-xb+xc-xd)co2 + (ya-yb+yc-yd)(si2) */
 245:./Libraries/CMSIS/DSP/Source/TransformFunctions/arm_cfft_radix4_f32.c ****       pSrc[2U * i1] = Xc12_out;
 246:./Libraries/CMSIS/DSP/Source/TransformFunctions/arm_cfft_radix4_f32.c **** 
 247:./Libraries/CMSIS/DSP/Source/TransformFunctions/arm_cfft_radix4_f32.c ****       /* yc' = (ya-yb+yc-yd)co2 - (xa-xb+xc-xd)(si2) */
 248:./Libraries/CMSIS/DSP/Source/TransformFunctions/arm_cfft_radix4_f32.c ****       pSrc[(2U * i1) + 1U] = Yc12_out;
 249:./Libraries/CMSIS/DSP/Source/TransformFunctions/arm_cfft_radix4_f32.c **** 
 250:./Libraries/CMSIS/DSP/Source/TransformFunctions/arm_cfft_radix4_f32.c ****       /* xb' = (xa+yb-xc-yd)co1 + (ya-xb-yc+xd)(si1) */
 251:./Libraries/CMSIS/DSP/Source/TransformFunctions/arm_cfft_radix4_f32.c ****       pSrc[2U * i2] = Xb12_out;
 252:./Libraries/CMSIS/DSP/Source/TransformFunctions/arm_cfft_radix4_f32.c **** 
 253:./Libraries/CMSIS/DSP/Source/TransformFunctions/arm_cfft_radix4_f32.c ****       /* yb' = (ya-xb-yc+xd)co1 - (xa+yb-xc-yd)(si1) */
 254:./Libraries/CMSIS/DSP/Source/TransformFunctions/arm_cfft_radix4_f32.c ****       pSrc[(2U * i2) + 1U] = Yb12_out;
 255:./Libraries/CMSIS/DSP/Source/TransformFunctions/arm_cfft_radix4_f32.c **** 
 256:./Libraries/CMSIS/DSP/Source/TransformFunctions/arm_cfft_radix4_f32.c ****       /* xd' = (xa-yb-xc+yd)co3 + (ya+xb-yc-xd)(si3) */
 257:./Libraries/CMSIS/DSP/Source/TransformFunctions/arm_cfft_radix4_f32.c ****       pSrc[2U * i3] = Xd12_out;
 258:./Libraries/CMSIS/DSP/Source/TransformFunctions/arm_cfft_radix4_f32.c **** 
 259:./Libraries/CMSIS/DSP/Source/TransformFunctions/arm_cfft_radix4_f32.c ****       /* yd' = (ya+xb-yc-xd)co3 - (xa-yb-xc+yd)(si3) */
 260:./Libraries/CMSIS/DSP/Source/TransformFunctions/arm_cfft_radix4_f32.c ****       pSrc[(2U * i3) + 1U] = Yd12_out;
 261:./Libraries/CMSIS/DSP/Source/TransformFunctions/arm_cfft_radix4_f32.c **** 
 262:./Libraries/CMSIS/DSP/Source/TransformFunctions/arm_cfft_radix4_f32.c ****       /*  Twiddle coefficients index modifier */
 263:./Libraries/CMSIS/DSP/Source/TransformFunctions/arm_cfft_radix4_f32.c ****       ia1 += twidCoefModifier;
 264:./Libraries/CMSIS/DSP/Source/TransformFunctions/arm_cfft_radix4_f32.c **** 
 265:./Libraries/CMSIS/DSP/Source/TransformFunctions/arm_cfft_radix4_f32.c ****       /*  Updating input index */
 266:./Libraries/CMSIS/DSP/Source/TransformFunctions/arm_cfft_radix4_f32.c ****       i0++;
ARM GAS  /tmp/ccr95kGy.s 			page 8


 267:./Libraries/CMSIS/DSP/Source/TransformFunctions/arm_cfft_radix4_f32.c **** 
 268:./Libraries/CMSIS/DSP/Source/TransformFunctions/arm_cfft_radix4_f32.c ****    }
 269:./Libraries/CMSIS/DSP/Source/TransformFunctions/arm_cfft_radix4_f32.c ****    while (--j);
 270:./Libraries/CMSIS/DSP/Source/TransformFunctions/arm_cfft_radix4_f32.c **** 
 271:./Libraries/CMSIS/DSP/Source/TransformFunctions/arm_cfft_radix4_f32.c ****    twidCoefModifier <<= 2U;
 272:./Libraries/CMSIS/DSP/Source/TransformFunctions/arm_cfft_radix4_f32.c **** 
 273:./Libraries/CMSIS/DSP/Source/TransformFunctions/arm_cfft_radix4_f32.c ****    /*  Calculation of second stage to excluding last stage */
 274:./Libraries/CMSIS/DSP/Source/TransformFunctions/arm_cfft_radix4_f32.c ****    for (k = fftLen >> 2U; k > 4U; k >>= 2U)
 275:./Libraries/CMSIS/DSP/Source/TransformFunctions/arm_cfft_radix4_f32.c ****    {
 276:./Libraries/CMSIS/DSP/Source/TransformFunctions/arm_cfft_radix4_f32.c ****       /*  Initializations for the first stage */
 277:./Libraries/CMSIS/DSP/Source/TransformFunctions/arm_cfft_radix4_f32.c ****       n1 = n2;
 278:./Libraries/CMSIS/DSP/Source/TransformFunctions/arm_cfft_radix4_f32.c ****       n2 >>= 2U;
 279:./Libraries/CMSIS/DSP/Source/TransformFunctions/arm_cfft_radix4_f32.c ****       ia1 = 0U;
 280:./Libraries/CMSIS/DSP/Source/TransformFunctions/arm_cfft_radix4_f32.c **** 
 281:./Libraries/CMSIS/DSP/Source/TransformFunctions/arm_cfft_radix4_f32.c ****       /*  Calculation of first stage */
 282:./Libraries/CMSIS/DSP/Source/TransformFunctions/arm_cfft_radix4_f32.c ****       j = 0;
 283:./Libraries/CMSIS/DSP/Source/TransformFunctions/arm_cfft_radix4_f32.c ****       do
 284:./Libraries/CMSIS/DSP/Source/TransformFunctions/arm_cfft_radix4_f32.c ****       {
 285:./Libraries/CMSIS/DSP/Source/TransformFunctions/arm_cfft_radix4_f32.c ****          /*  index calculation for the coefficients */
 286:./Libraries/CMSIS/DSP/Source/TransformFunctions/arm_cfft_radix4_f32.c ****          ia2 = ia1 + ia1;
 287:./Libraries/CMSIS/DSP/Source/TransformFunctions/arm_cfft_radix4_f32.c ****          ia3 = ia2 + ia1;
 288:./Libraries/CMSIS/DSP/Source/TransformFunctions/arm_cfft_radix4_f32.c ****          co1 = pCoef[(ia1 * 2U)];
 289:./Libraries/CMSIS/DSP/Source/TransformFunctions/arm_cfft_radix4_f32.c ****          si1 = pCoef[(ia1 * 2U) + 1U];
 290:./Libraries/CMSIS/DSP/Source/TransformFunctions/arm_cfft_radix4_f32.c ****          co2 = pCoef[(ia2 * 2U)];
 291:./Libraries/CMSIS/DSP/Source/TransformFunctions/arm_cfft_radix4_f32.c ****          si2 = pCoef[(ia2 * 2U) + 1U];
 292:./Libraries/CMSIS/DSP/Source/TransformFunctions/arm_cfft_radix4_f32.c ****          co3 = pCoef[(ia3 * 2U)];
 293:./Libraries/CMSIS/DSP/Source/TransformFunctions/arm_cfft_radix4_f32.c ****          si3 = pCoef[(ia3 * 2U) + 1U];
 294:./Libraries/CMSIS/DSP/Source/TransformFunctions/arm_cfft_radix4_f32.c **** 
 295:./Libraries/CMSIS/DSP/Source/TransformFunctions/arm_cfft_radix4_f32.c ****          /*  Twiddle coefficients index modifier */
 296:./Libraries/CMSIS/DSP/Source/TransformFunctions/arm_cfft_radix4_f32.c ****          ia1 += twidCoefModifier;
 297:./Libraries/CMSIS/DSP/Source/TransformFunctions/arm_cfft_radix4_f32.c **** 
 298:./Libraries/CMSIS/DSP/Source/TransformFunctions/arm_cfft_radix4_f32.c ****          i0 = j;
 299:./Libraries/CMSIS/DSP/Source/TransformFunctions/arm_cfft_radix4_f32.c ****          do
 300:./Libraries/CMSIS/DSP/Source/TransformFunctions/arm_cfft_radix4_f32.c ****          {
 301:./Libraries/CMSIS/DSP/Source/TransformFunctions/arm_cfft_radix4_f32.c ****             /*  index calculation for the input as, */
 302:./Libraries/CMSIS/DSP/Source/TransformFunctions/arm_cfft_radix4_f32.c ****             /*  pSrc[i0 + 0], pSrc[i0 + fftLen/4], pSrc[i0 + fftLen/2], pSrc[i0 + 3fftLen/4] */
 303:./Libraries/CMSIS/DSP/Source/TransformFunctions/arm_cfft_radix4_f32.c ****             i1 = i0 + n2;
 304:./Libraries/CMSIS/DSP/Source/TransformFunctions/arm_cfft_radix4_f32.c ****             i2 = i1 + n2;
 305:./Libraries/CMSIS/DSP/Source/TransformFunctions/arm_cfft_radix4_f32.c ****             i3 = i2 + n2;
 306:./Libraries/CMSIS/DSP/Source/TransformFunctions/arm_cfft_radix4_f32.c **** 
 307:./Libraries/CMSIS/DSP/Source/TransformFunctions/arm_cfft_radix4_f32.c ****             xaIn = pSrc[(2U * i0)];
 308:./Libraries/CMSIS/DSP/Source/TransformFunctions/arm_cfft_radix4_f32.c ****             yaIn = pSrc[(2U * i0) + 1U];
 309:./Libraries/CMSIS/DSP/Source/TransformFunctions/arm_cfft_radix4_f32.c **** 
 310:./Libraries/CMSIS/DSP/Source/TransformFunctions/arm_cfft_radix4_f32.c ****             xbIn = pSrc[(2U * i1)];
 311:./Libraries/CMSIS/DSP/Source/TransformFunctions/arm_cfft_radix4_f32.c ****             ybIn = pSrc[(2U * i1) + 1U];
 312:./Libraries/CMSIS/DSP/Source/TransformFunctions/arm_cfft_radix4_f32.c **** 
 313:./Libraries/CMSIS/DSP/Source/TransformFunctions/arm_cfft_radix4_f32.c ****             xcIn = pSrc[(2U * i2)];
 314:./Libraries/CMSIS/DSP/Source/TransformFunctions/arm_cfft_radix4_f32.c ****             ycIn = pSrc[(2U * i2) + 1U];
 315:./Libraries/CMSIS/DSP/Source/TransformFunctions/arm_cfft_radix4_f32.c **** 
 316:./Libraries/CMSIS/DSP/Source/TransformFunctions/arm_cfft_radix4_f32.c ****             xdIn = pSrc[(2U * i3)];
 317:./Libraries/CMSIS/DSP/Source/TransformFunctions/arm_cfft_radix4_f32.c ****             ydIn = pSrc[(2U * i3) + 1U];
 318:./Libraries/CMSIS/DSP/Source/TransformFunctions/arm_cfft_radix4_f32.c **** 
 319:./Libraries/CMSIS/DSP/Source/TransformFunctions/arm_cfft_radix4_f32.c ****             /* xa - xc */
 320:./Libraries/CMSIS/DSP/Source/TransformFunctions/arm_cfft_radix4_f32.c ****             Xaminusc = xaIn - xcIn;
 321:./Libraries/CMSIS/DSP/Source/TransformFunctions/arm_cfft_radix4_f32.c ****             /* (xb - xd) */
 322:./Libraries/CMSIS/DSP/Source/TransformFunctions/arm_cfft_radix4_f32.c ****             Xbminusd = xbIn - xdIn;
 323:./Libraries/CMSIS/DSP/Source/TransformFunctions/arm_cfft_radix4_f32.c ****             /* ya - yc */
ARM GAS  /tmp/ccr95kGy.s 			page 9


 324:./Libraries/CMSIS/DSP/Source/TransformFunctions/arm_cfft_radix4_f32.c ****             Yaminusc = yaIn - ycIn;
 325:./Libraries/CMSIS/DSP/Source/TransformFunctions/arm_cfft_radix4_f32.c ****             /* (yb - yd) */
 326:./Libraries/CMSIS/DSP/Source/TransformFunctions/arm_cfft_radix4_f32.c ****             Ybminusd = ybIn - ydIn;
 327:./Libraries/CMSIS/DSP/Source/TransformFunctions/arm_cfft_radix4_f32.c **** 
 328:./Libraries/CMSIS/DSP/Source/TransformFunctions/arm_cfft_radix4_f32.c ****             /* xa + xc */
 329:./Libraries/CMSIS/DSP/Source/TransformFunctions/arm_cfft_radix4_f32.c ****             Xaplusc = xaIn + xcIn;
 330:./Libraries/CMSIS/DSP/Source/TransformFunctions/arm_cfft_radix4_f32.c ****             /* xb + xd */
 331:./Libraries/CMSIS/DSP/Source/TransformFunctions/arm_cfft_radix4_f32.c ****             Xbplusd = xbIn + xdIn;
 332:./Libraries/CMSIS/DSP/Source/TransformFunctions/arm_cfft_radix4_f32.c ****             /* ya + yc */
 333:./Libraries/CMSIS/DSP/Source/TransformFunctions/arm_cfft_radix4_f32.c ****             Yaplusc = yaIn + ycIn;
 334:./Libraries/CMSIS/DSP/Source/TransformFunctions/arm_cfft_radix4_f32.c ****             /* yb + yd */
 335:./Libraries/CMSIS/DSP/Source/TransformFunctions/arm_cfft_radix4_f32.c ****             Ybplusd = ybIn + ydIn;
 336:./Libraries/CMSIS/DSP/Source/TransformFunctions/arm_cfft_radix4_f32.c **** 
 337:./Libraries/CMSIS/DSP/Source/TransformFunctions/arm_cfft_radix4_f32.c ****             /* (xa - xc) + (yb - yd) */
 338:./Libraries/CMSIS/DSP/Source/TransformFunctions/arm_cfft_radix4_f32.c ****             Xb12C_out = (Xaminusc + Ybminusd);
 339:./Libraries/CMSIS/DSP/Source/TransformFunctions/arm_cfft_radix4_f32.c ****             /* (ya - yc) -  (xb - xd) */
 340:./Libraries/CMSIS/DSP/Source/TransformFunctions/arm_cfft_radix4_f32.c ****             Yb12C_out = (Yaminusc - Xbminusd);
 341:./Libraries/CMSIS/DSP/Source/TransformFunctions/arm_cfft_radix4_f32.c ****             /* xa + xc -(xb + xd) */
 342:./Libraries/CMSIS/DSP/Source/TransformFunctions/arm_cfft_radix4_f32.c ****             Xc12C_out = (Xaplusc - Xbplusd);
 343:./Libraries/CMSIS/DSP/Source/TransformFunctions/arm_cfft_radix4_f32.c ****             /* (ya + yc) - (yb + yd) */
 344:./Libraries/CMSIS/DSP/Source/TransformFunctions/arm_cfft_radix4_f32.c ****             Yc12C_out = (Yaplusc - Ybplusd);
 345:./Libraries/CMSIS/DSP/Source/TransformFunctions/arm_cfft_radix4_f32.c ****             /* (xa - xc) - (yb - yd) */
 346:./Libraries/CMSIS/DSP/Source/TransformFunctions/arm_cfft_radix4_f32.c ****             Xd12C_out = (Xaminusc - Ybminusd);
 347:./Libraries/CMSIS/DSP/Source/TransformFunctions/arm_cfft_radix4_f32.c ****             /* (ya - yc) +  (xb - xd) */
 348:./Libraries/CMSIS/DSP/Source/TransformFunctions/arm_cfft_radix4_f32.c ****             Yd12C_out = (Xbminusd + Yaminusc);
 349:./Libraries/CMSIS/DSP/Source/TransformFunctions/arm_cfft_radix4_f32.c **** 
 350:./Libraries/CMSIS/DSP/Source/TransformFunctions/arm_cfft_radix4_f32.c ****             pSrc[(2U * i0)] = Xaplusc + Xbplusd;
 351:./Libraries/CMSIS/DSP/Source/TransformFunctions/arm_cfft_radix4_f32.c ****             pSrc[(2U * i0) + 1U] = Yaplusc + Ybplusd;
 352:./Libraries/CMSIS/DSP/Source/TransformFunctions/arm_cfft_radix4_f32.c **** 
 353:./Libraries/CMSIS/DSP/Source/TransformFunctions/arm_cfft_radix4_f32.c ****             Xb12_out = Xb12C_out * co1;
 354:./Libraries/CMSIS/DSP/Source/TransformFunctions/arm_cfft_radix4_f32.c ****             Yb12_out = Yb12C_out * co1;
 355:./Libraries/CMSIS/DSP/Source/TransformFunctions/arm_cfft_radix4_f32.c ****             Xc12_out = Xc12C_out * co2;
 356:./Libraries/CMSIS/DSP/Source/TransformFunctions/arm_cfft_radix4_f32.c ****             Yc12_out = Yc12C_out * co2;
 357:./Libraries/CMSIS/DSP/Source/TransformFunctions/arm_cfft_radix4_f32.c ****             Xd12_out = Xd12C_out * co3;
 358:./Libraries/CMSIS/DSP/Source/TransformFunctions/arm_cfft_radix4_f32.c ****             Yd12_out = Yd12C_out * co3;
 359:./Libraries/CMSIS/DSP/Source/TransformFunctions/arm_cfft_radix4_f32.c **** 
 360:./Libraries/CMSIS/DSP/Source/TransformFunctions/arm_cfft_radix4_f32.c ****             /* xb' = (xa+yb-xc-yd)co1 - (ya-xb-yc+xd)(si1) */
 361:./Libraries/CMSIS/DSP/Source/TransformFunctions/arm_cfft_radix4_f32.c ****             //Xb12_out -= Yb12C_out * si1;
 362:./Libraries/CMSIS/DSP/Source/TransformFunctions/arm_cfft_radix4_f32.c ****             p0 = Yb12C_out * si1;
 363:./Libraries/CMSIS/DSP/Source/TransformFunctions/arm_cfft_radix4_f32.c ****             /* yb' = (ya-xb-yc+xd)co1 + (xa+yb-xc-yd)(si1) */
 364:./Libraries/CMSIS/DSP/Source/TransformFunctions/arm_cfft_radix4_f32.c ****             //Yb12_out += Xb12C_out * si1;
 365:./Libraries/CMSIS/DSP/Source/TransformFunctions/arm_cfft_radix4_f32.c ****             p1 = Xb12C_out * si1;
 366:./Libraries/CMSIS/DSP/Source/TransformFunctions/arm_cfft_radix4_f32.c ****             /* xc' = (xa-xb+xc-xd)co2 - (ya-yb+yc-yd)(si2) */
 367:./Libraries/CMSIS/DSP/Source/TransformFunctions/arm_cfft_radix4_f32.c ****             //Xc12_out -= Yc12C_out * si2;
 368:./Libraries/CMSIS/DSP/Source/TransformFunctions/arm_cfft_radix4_f32.c ****             p2 = Yc12C_out * si2;
 369:./Libraries/CMSIS/DSP/Source/TransformFunctions/arm_cfft_radix4_f32.c ****             /* yc' = (ya-yb+yc-yd)co2 + (xa-xb+xc-xd)(si2) */
 370:./Libraries/CMSIS/DSP/Source/TransformFunctions/arm_cfft_radix4_f32.c ****             //Yc12_out += Xc12C_out * si2;
 371:./Libraries/CMSIS/DSP/Source/TransformFunctions/arm_cfft_radix4_f32.c ****             p3 = Xc12C_out * si2;
 372:./Libraries/CMSIS/DSP/Source/TransformFunctions/arm_cfft_radix4_f32.c ****             /* xd' = (xa-yb-xc+yd)co3 - (ya+xb-yc-xd)(si3) */
 373:./Libraries/CMSIS/DSP/Source/TransformFunctions/arm_cfft_radix4_f32.c ****             //Xd12_out -= Yd12C_out * si3;
 374:./Libraries/CMSIS/DSP/Source/TransformFunctions/arm_cfft_radix4_f32.c ****             p4 = Yd12C_out * si3;
 375:./Libraries/CMSIS/DSP/Source/TransformFunctions/arm_cfft_radix4_f32.c ****             /* yd' = (ya+xb-yc-xd)co3 + (xa-yb-xc+yd)(si3) */
 376:./Libraries/CMSIS/DSP/Source/TransformFunctions/arm_cfft_radix4_f32.c ****             //Yd12_out += Xd12C_out * si3;
 377:./Libraries/CMSIS/DSP/Source/TransformFunctions/arm_cfft_radix4_f32.c ****             p5 = Xd12C_out * si3;
 378:./Libraries/CMSIS/DSP/Source/TransformFunctions/arm_cfft_radix4_f32.c **** 
 379:./Libraries/CMSIS/DSP/Source/TransformFunctions/arm_cfft_radix4_f32.c ****             Xb12_out += p0;
 380:./Libraries/CMSIS/DSP/Source/TransformFunctions/arm_cfft_radix4_f32.c ****             Yb12_out -= p1;
ARM GAS  /tmp/ccr95kGy.s 			page 10


 381:./Libraries/CMSIS/DSP/Source/TransformFunctions/arm_cfft_radix4_f32.c ****             Xc12_out += p2;
 382:./Libraries/CMSIS/DSP/Source/TransformFunctions/arm_cfft_radix4_f32.c ****             Yc12_out -= p3;
 383:./Libraries/CMSIS/DSP/Source/TransformFunctions/arm_cfft_radix4_f32.c ****             Xd12_out += p4;
 384:./Libraries/CMSIS/DSP/Source/TransformFunctions/arm_cfft_radix4_f32.c ****             Yd12_out -= p5;
 385:./Libraries/CMSIS/DSP/Source/TransformFunctions/arm_cfft_radix4_f32.c **** 
 386:./Libraries/CMSIS/DSP/Source/TransformFunctions/arm_cfft_radix4_f32.c ****             /* xc' = (xa-xb+xc-xd)co2 + (ya-yb+yc-yd)(si2) */
 387:./Libraries/CMSIS/DSP/Source/TransformFunctions/arm_cfft_radix4_f32.c ****             pSrc[2U * i1] = Xc12_out;
 388:./Libraries/CMSIS/DSP/Source/TransformFunctions/arm_cfft_radix4_f32.c **** 
 389:./Libraries/CMSIS/DSP/Source/TransformFunctions/arm_cfft_radix4_f32.c ****             /* yc' = (ya-yb+yc-yd)co2 - (xa-xb+xc-xd)(si2) */
 390:./Libraries/CMSIS/DSP/Source/TransformFunctions/arm_cfft_radix4_f32.c ****             pSrc[(2U * i1) + 1U] = Yc12_out;
 391:./Libraries/CMSIS/DSP/Source/TransformFunctions/arm_cfft_radix4_f32.c **** 
 392:./Libraries/CMSIS/DSP/Source/TransformFunctions/arm_cfft_radix4_f32.c ****             /* xb' = (xa+yb-xc-yd)co1 + (ya-xb-yc+xd)(si1) */
 393:./Libraries/CMSIS/DSP/Source/TransformFunctions/arm_cfft_radix4_f32.c ****             pSrc[2U * i2] = Xb12_out;
 394:./Libraries/CMSIS/DSP/Source/TransformFunctions/arm_cfft_radix4_f32.c **** 
 395:./Libraries/CMSIS/DSP/Source/TransformFunctions/arm_cfft_radix4_f32.c ****             /* yb' = (ya-xb-yc+xd)co1 - (xa+yb-xc-yd)(si1) */
 396:./Libraries/CMSIS/DSP/Source/TransformFunctions/arm_cfft_radix4_f32.c ****             pSrc[(2U * i2) + 1U] = Yb12_out;
 397:./Libraries/CMSIS/DSP/Source/TransformFunctions/arm_cfft_radix4_f32.c **** 
 398:./Libraries/CMSIS/DSP/Source/TransformFunctions/arm_cfft_radix4_f32.c ****             /* xd' = (xa-yb-xc+yd)co3 + (ya+xb-yc-xd)(si3) */
 399:./Libraries/CMSIS/DSP/Source/TransformFunctions/arm_cfft_radix4_f32.c ****             pSrc[2U * i3] = Xd12_out;
 400:./Libraries/CMSIS/DSP/Source/TransformFunctions/arm_cfft_radix4_f32.c **** 
 401:./Libraries/CMSIS/DSP/Source/TransformFunctions/arm_cfft_radix4_f32.c ****             /* yd' = (ya+xb-yc-xd)co3 - (xa-yb-xc+yd)(si3) */
 402:./Libraries/CMSIS/DSP/Source/TransformFunctions/arm_cfft_radix4_f32.c ****             pSrc[(2U * i3) + 1U] = Yd12_out;
 403:./Libraries/CMSIS/DSP/Source/TransformFunctions/arm_cfft_radix4_f32.c **** 
 404:./Libraries/CMSIS/DSP/Source/TransformFunctions/arm_cfft_radix4_f32.c ****             i0 += n1;
 405:./Libraries/CMSIS/DSP/Source/TransformFunctions/arm_cfft_radix4_f32.c ****          } while (i0 < fftLen);
 406:./Libraries/CMSIS/DSP/Source/TransformFunctions/arm_cfft_radix4_f32.c ****          j++;
 407:./Libraries/CMSIS/DSP/Source/TransformFunctions/arm_cfft_radix4_f32.c ****       } while (j <= (n2 - 1U));
 408:./Libraries/CMSIS/DSP/Source/TransformFunctions/arm_cfft_radix4_f32.c ****       twidCoefModifier <<= 2U;
 409:./Libraries/CMSIS/DSP/Source/TransformFunctions/arm_cfft_radix4_f32.c ****    }
 410:./Libraries/CMSIS/DSP/Source/TransformFunctions/arm_cfft_radix4_f32.c **** 
 411:./Libraries/CMSIS/DSP/Source/TransformFunctions/arm_cfft_radix4_f32.c ****    j = fftLen >> 2;
 412:./Libraries/CMSIS/DSP/Source/TransformFunctions/arm_cfft_radix4_f32.c ****    ptr1 = &pSrc[0];
 413:./Libraries/CMSIS/DSP/Source/TransformFunctions/arm_cfft_radix4_f32.c **** 
 414:./Libraries/CMSIS/DSP/Source/TransformFunctions/arm_cfft_radix4_f32.c ****    /*  Calculations of last stage */
 415:./Libraries/CMSIS/DSP/Source/TransformFunctions/arm_cfft_radix4_f32.c ****    do
 416:./Libraries/CMSIS/DSP/Source/TransformFunctions/arm_cfft_radix4_f32.c ****    {
 417:./Libraries/CMSIS/DSP/Source/TransformFunctions/arm_cfft_radix4_f32.c ****       xaIn = ptr1[0];
 418:./Libraries/CMSIS/DSP/Source/TransformFunctions/arm_cfft_radix4_f32.c ****       yaIn = ptr1[1];
 419:./Libraries/CMSIS/DSP/Source/TransformFunctions/arm_cfft_radix4_f32.c ****       xbIn = ptr1[2];
 420:./Libraries/CMSIS/DSP/Source/TransformFunctions/arm_cfft_radix4_f32.c ****       ybIn = ptr1[3];
 421:./Libraries/CMSIS/DSP/Source/TransformFunctions/arm_cfft_radix4_f32.c ****       xcIn = ptr1[4];
 422:./Libraries/CMSIS/DSP/Source/TransformFunctions/arm_cfft_radix4_f32.c ****       ycIn = ptr1[5];
 423:./Libraries/CMSIS/DSP/Source/TransformFunctions/arm_cfft_radix4_f32.c ****       xdIn = ptr1[6];
 424:./Libraries/CMSIS/DSP/Source/TransformFunctions/arm_cfft_radix4_f32.c ****       ydIn = ptr1[7];
 425:./Libraries/CMSIS/DSP/Source/TransformFunctions/arm_cfft_radix4_f32.c **** 
 426:./Libraries/CMSIS/DSP/Source/TransformFunctions/arm_cfft_radix4_f32.c ****       /* xa + xc */
 427:./Libraries/CMSIS/DSP/Source/TransformFunctions/arm_cfft_radix4_f32.c ****       Xaplusc = xaIn + xcIn;
 428:./Libraries/CMSIS/DSP/Source/TransformFunctions/arm_cfft_radix4_f32.c **** 
 429:./Libraries/CMSIS/DSP/Source/TransformFunctions/arm_cfft_radix4_f32.c ****       /* xa - xc */
 430:./Libraries/CMSIS/DSP/Source/TransformFunctions/arm_cfft_radix4_f32.c ****       Xaminusc = xaIn - xcIn;
 431:./Libraries/CMSIS/DSP/Source/TransformFunctions/arm_cfft_radix4_f32.c **** 
 432:./Libraries/CMSIS/DSP/Source/TransformFunctions/arm_cfft_radix4_f32.c ****       /* ya + yc */
 433:./Libraries/CMSIS/DSP/Source/TransformFunctions/arm_cfft_radix4_f32.c ****       Yaplusc = yaIn + ycIn;
 434:./Libraries/CMSIS/DSP/Source/TransformFunctions/arm_cfft_radix4_f32.c **** 
 435:./Libraries/CMSIS/DSP/Source/TransformFunctions/arm_cfft_radix4_f32.c ****       /* ya - yc */
 436:./Libraries/CMSIS/DSP/Source/TransformFunctions/arm_cfft_radix4_f32.c ****       Yaminusc = yaIn - ycIn;
 437:./Libraries/CMSIS/DSP/Source/TransformFunctions/arm_cfft_radix4_f32.c **** 
ARM GAS  /tmp/ccr95kGy.s 			page 11


 438:./Libraries/CMSIS/DSP/Source/TransformFunctions/arm_cfft_radix4_f32.c ****       /* xb + xd */
 439:./Libraries/CMSIS/DSP/Source/TransformFunctions/arm_cfft_radix4_f32.c ****       Xbplusd = xbIn + xdIn;
 440:./Libraries/CMSIS/DSP/Source/TransformFunctions/arm_cfft_radix4_f32.c **** 
 441:./Libraries/CMSIS/DSP/Source/TransformFunctions/arm_cfft_radix4_f32.c ****       /* yb + yd */
 442:./Libraries/CMSIS/DSP/Source/TransformFunctions/arm_cfft_radix4_f32.c ****       Ybplusd = ybIn + ydIn;
 443:./Libraries/CMSIS/DSP/Source/TransformFunctions/arm_cfft_radix4_f32.c **** 
 444:./Libraries/CMSIS/DSP/Source/TransformFunctions/arm_cfft_radix4_f32.c ****       /* (xb-xd) */
 445:./Libraries/CMSIS/DSP/Source/TransformFunctions/arm_cfft_radix4_f32.c ****       Xbminusd = xbIn - xdIn;
 446:./Libraries/CMSIS/DSP/Source/TransformFunctions/arm_cfft_radix4_f32.c **** 
 447:./Libraries/CMSIS/DSP/Source/TransformFunctions/arm_cfft_radix4_f32.c ****       /* (yb-yd) */
 448:./Libraries/CMSIS/DSP/Source/TransformFunctions/arm_cfft_radix4_f32.c ****       Ybminusd = ybIn - ydIn;
 449:./Libraries/CMSIS/DSP/Source/TransformFunctions/arm_cfft_radix4_f32.c **** 
 450:./Libraries/CMSIS/DSP/Source/TransformFunctions/arm_cfft_radix4_f32.c ****       /* xa' = xa + xb + xc + xd */
 451:./Libraries/CMSIS/DSP/Source/TransformFunctions/arm_cfft_radix4_f32.c ****       a0 = (Xaplusc + Xbplusd);
 452:./Libraries/CMSIS/DSP/Source/TransformFunctions/arm_cfft_radix4_f32.c ****       /* ya' = ya + yb + yc + yd */
 453:./Libraries/CMSIS/DSP/Source/TransformFunctions/arm_cfft_radix4_f32.c ****       a1 = (Yaplusc + Ybplusd);
 454:./Libraries/CMSIS/DSP/Source/TransformFunctions/arm_cfft_radix4_f32.c ****       /* xc' = (xa-xb+xc-xd) */
 455:./Libraries/CMSIS/DSP/Source/TransformFunctions/arm_cfft_radix4_f32.c ****       a2 = (Xaplusc - Xbplusd);
 456:./Libraries/CMSIS/DSP/Source/TransformFunctions/arm_cfft_radix4_f32.c ****       /* yc' = (ya-yb+yc-yd) */
 457:./Libraries/CMSIS/DSP/Source/TransformFunctions/arm_cfft_radix4_f32.c ****       a3 = (Yaplusc - Ybplusd);
 458:./Libraries/CMSIS/DSP/Source/TransformFunctions/arm_cfft_radix4_f32.c ****       /* xb' = (xa+yb-xc-yd) */
 459:./Libraries/CMSIS/DSP/Source/TransformFunctions/arm_cfft_radix4_f32.c ****       a4 = (Xaminusc + Ybminusd);
 460:./Libraries/CMSIS/DSP/Source/TransformFunctions/arm_cfft_radix4_f32.c ****       /* yb' = (ya-xb-yc+xd) */
 461:./Libraries/CMSIS/DSP/Source/TransformFunctions/arm_cfft_radix4_f32.c ****       a5 = (Yaminusc - Xbminusd);
 462:./Libraries/CMSIS/DSP/Source/TransformFunctions/arm_cfft_radix4_f32.c ****       /* xd' = (xa-yb-xc+yd)) */
 463:./Libraries/CMSIS/DSP/Source/TransformFunctions/arm_cfft_radix4_f32.c ****       a6 = (Xaminusc - Ybminusd);
 464:./Libraries/CMSIS/DSP/Source/TransformFunctions/arm_cfft_radix4_f32.c ****       /* yd' = (ya+xb-yc-xd) */
 465:./Libraries/CMSIS/DSP/Source/TransformFunctions/arm_cfft_radix4_f32.c ****       a7 = (Xbminusd + Yaminusc);
 466:./Libraries/CMSIS/DSP/Source/TransformFunctions/arm_cfft_radix4_f32.c **** 
 467:./Libraries/CMSIS/DSP/Source/TransformFunctions/arm_cfft_radix4_f32.c ****       ptr1[0] = a0;
 468:./Libraries/CMSIS/DSP/Source/TransformFunctions/arm_cfft_radix4_f32.c ****       ptr1[1] = a1;
 469:./Libraries/CMSIS/DSP/Source/TransformFunctions/arm_cfft_radix4_f32.c ****       ptr1[2] = a2;
 470:./Libraries/CMSIS/DSP/Source/TransformFunctions/arm_cfft_radix4_f32.c ****       ptr1[3] = a3;
 471:./Libraries/CMSIS/DSP/Source/TransformFunctions/arm_cfft_radix4_f32.c ****       ptr1[4] = a4;
 472:./Libraries/CMSIS/DSP/Source/TransformFunctions/arm_cfft_radix4_f32.c ****       ptr1[5] = a5;
 473:./Libraries/CMSIS/DSP/Source/TransformFunctions/arm_cfft_radix4_f32.c ****       ptr1[6] = a6;
 474:./Libraries/CMSIS/DSP/Source/TransformFunctions/arm_cfft_radix4_f32.c ****       ptr1[7] = a7;
 475:./Libraries/CMSIS/DSP/Source/TransformFunctions/arm_cfft_radix4_f32.c **** 
 476:./Libraries/CMSIS/DSP/Source/TransformFunctions/arm_cfft_radix4_f32.c ****       /* increment pointer by 8 */
 477:./Libraries/CMSIS/DSP/Source/TransformFunctions/arm_cfft_radix4_f32.c ****       ptr1 += 8U;
 478:./Libraries/CMSIS/DSP/Source/TransformFunctions/arm_cfft_radix4_f32.c ****    } while (--j);
 479:./Libraries/CMSIS/DSP/Source/TransformFunctions/arm_cfft_radix4_f32.c **** 
 480:./Libraries/CMSIS/DSP/Source/TransformFunctions/arm_cfft_radix4_f32.c **** #else
 481:./Libraries/CMSIS/DSP/Source/TransformFunctions/arm_cfft_radix4_f32.c **** 
 482:./Libraries/CMSIS/DSP/Source/TransformFunctions/arm_cfft_radix4_f32.c ****         float32_t t1, t2, r1, r2, s1, s2;
 483:./Libraries/CMSIS/DSP/Source/TransformFunctions/arm_cfft_radix4_f32.c **** 
 484:./Libraries/CMSIS/DSP/Source/TransformFunctions/arm_cfft_radix4_f32.c ****    /* Initializations for the fft calculation */
 485:./Libraries/CMSIS/DSP/Source/TransformFunctions/arm_cfft_radix4_f32.c ****    n2 = fftLen;
 137              		.loc 1 485 7
 138 0014 7B89     		ldrh	r3, [r7, #10]
 139 0016 7B66     		str	r3, [r7, #100]
 486:./Libraries/CMSIS/DSP/Source/TransformFunctions/arm_cfft_radix4_f32.c ****    n1 = n2;
 140              		.loc 1 486 7
 141 0018 7B6E     		ldr	r3, [r7, #100]
 142 001a BB65     		str	r3, [r7, #88]
 487:./Libraries/CMSIS/DSP/Source/TransformFunctions/arm_cfft_radix4_f32.c ****    for (k = fftLen; k > 1U; k >>= 2U)
 143              		.loc 1 487 11
ARM GAS  /tmp/ccr95kGy.s 			page 12


 144 001c 7B89     		ldrh	r3, [r7, #10]
 145 001e FB65     		str	r3, [r7, #92]
 146              		.loc 1 487 4
 147 0020 ACE1     		b	.L7
 148              	.L10:
 488:./Libraries/CMSIS/DSP/Source/TransformFunctions/arm_cfft_radix4_f32.c ****    {
 489:./Libraries/CMSIS/DSP/Source/TransformFunctions/arm_cfft_radix4_f32.c ****       /*  Initializations for the fft calculation */
 490:./Libraries/CMSIS/DSP/Source/TransformFunctions/arm_cfft_radix4_f32.c ****       n1 = n2;
 149              		.loc 1 490 10
 150 0022 7B6E     		ldr	r3, [r7, #100]
 151 0024 BB65     		str	r3, [r7, #88]
 491:./Libraries/CMSIS/DSP/Source/TransformFunctions/arm_cfft_radix4_f32.c ****       n2 >>= 2U;
 152              		.loc 1 491 10
 153 0026 7B6E     		ldr	r3, [r7, #100]
 154 0028 9B08     		lsrs	r3, r3, #2
 155 002a 7B66     		str	r3, [r7, #100]
 492:./Libraries/CMSIS/DSP/Source/TransformFunctions/arm_cfft_radix4_f32.c ****       ia1 = 0U;
 156              		.loc 1 492 11
 157 002c 0023     		movs	r3, #0
 158 002e FB66     		str	r3, [r7, #108]
 493:./Libraries/CMSIS/DSP/Source/TransformFunctions/arm_cfft_radix4_f32.c **** 
 494:./Libraries/CMSIS/DSP/Source/TransformFunctions/arm_cfft_radix4_f32.c ****       /*  FFT Calculation */
 495:./Libraries/CMSIS/DSP/Source/TransformFunctions/arm_cfft_radix4_f32.c ****       j = 0;
 159              		.loc 1 495 9
 160 0030 0023     		movs	r3, #0
 161 0032 3B66     		str	r3, [r7, #96]
 162              	.L9:
 496:./Libraries/CMSIS/DSP/Source/TransformFunctions/arm_cfft_radix4_f32.c ****       do
 497:./Libraries/CMSIS/DSP/Source/TransformFunctions/arm_cfft_radix4_f32.c ****       {
 498:./Libraries/CMSIS/DSP/Source/TransformFunctions/arm_cfft_radix4_f32.c ****          /*  index calculation for the coefficients */
 499:./Libraries/CMSIS/DSP/Source/TransformFunctions/arm_cfft_radix4_f32.c ****          ia2 = ia1 + ia1;
 163              		.loc 1 499 14
 164 0034 FB6E     		ldr	r3, [r7, #108]
 165 0036 5B00     		lsls	r3, r3, #1
 166 0038 7B65     		str	r3, [r7, #84]
 500:./Libraries/CMSIS/DSP/Source/TransformFunctions/arm_cfft_radix4_f32.c ****          ia3 = ia2 + ia1;
 167              		.loc 1 500 14
 168 003a 7A6D     		ldr	r2, [r7, #84]
 169 003c FB6E     		ldr	r3, [r7, #108]
 170 003e 1344     		add	r3, r3, r2
 171 0040 3B65     		str	r3, [r7, #80]
 501:./Libraries/CMSIS/DSP/Source/TransformFunctions/arm_cfft_radix4_f32.c ****          co1 = pCoef[ia1 * 2U];
 172              		.loc 1 501 21
 173 0042 FB6E     		ldr	r3, [r7, #108]
 174 0044 DB00     		lsls	r3, r3, #3
 175 0046 7A68     		ldr	r2, [r7, #4]
 176 0048 1344     		add	r3, r3, r2
 177              		.loc 1 501 14
 178 004a 1B68     		ldr	r3, [r3]	@ float
 179 004c FB64     		str	r3, [r7, #76]	@ float
 502:./Libraries/CMSIS/DSP/Source/TransformFunctions/arm_cfft_radix4_f32.c ****          si1 = pCoef[(ia1 * 2U) + 1U];
 180              		.loc 1 502 21
 181 004e FB6E     		ldr	r3, [r7, #108]
 182 0050 DB00     		lsls	r3, r3, #3
 183 0052 0433     		adds	r3, r3, #4
 184 0054 7A68     		ldr	r2, [r7, #4]
 185 0056 1344     		add	r3, r3, r2
ARM GAS  /tmp/ccr95kGy.s 			page 13


 186              		.loc 1 502 14
 187 0058 1B68     		ldr	r3, [r3]	@ float
 188 005a BB64     		str	r3, [r7, #72]	@ float
 503:./Libraries/CMSIS/DSP/Source/TransformFunctions/arm_cfft_radix4_f32.c ****          co2 = pCoef[ia2 * 2U];
 189              		.loc 1 503 21
 190 005c 7B6D     		ldr	r3, [r7, #84]
 191 005e DB00     		lsls	r3, r3, #3
 192 0060 7A68     		ldr	r2, [r7, #4]
 193 0062 1344     		add	r3, r3, r2
 194              		.loc 1 503 14
 195 0064 1B68     		ldr	r3, [r3]	@ float
 196 0066 7B64     		str	r3, [r7, #68]	@ float
 504:./Libraries/CMSIS/DSP/Source/TransformFunctions/arm_cfft_radix4_f32.c ****          si2 = pCoef[(ia2 * 2U) + 1U];
 197              		.loc 1 504 21
 198 0068 7B6D     		ldr	r3, [r7, #84]
 199 006a DB00     		lsls	r3, r3, #3
 200 006c 0433     		adds	r3, r3, #4
 201 006e 7A68     		ldr	r2, [r7, #4]
 202 0070 1344     		add	r3, r3, r2
 203              		.loc 1 504 14
 204 0072 1B68     		ldr	r3, [r3]	@ float
 205 0074 3B64     		str	r3, [r7, #64]	@ float
 505:./Libraries/CMSIS/DSP/Source/TransformFunctions/arm_cfft_radix4_f32.c ****          co3 = pCoef[ia3 * 2U];
 206              		.loc 1 505 21
 207 0076 3B6D     		ldr	r3, [r7, #80]
 208 0078 DB00     		lsls	r3, r3, #3
 209 007a 7A68     		ldr	r2, [r7, #4]
 210 007c 1344     		add	r3, r3, r2
 211              		.loc 1 505 14
 212 007e 1B68     		ldr	r3, [r3]	@ float
 213 0080 FB63     		str	r3, [r7, #60]	@ float
 506:./Libraries/CMSIS/DSP/Source/TransformFunctions/arm_cfft_radix4_f32.c ****          si3 = pCoef[(ia3 * 2U) + 1U];
 214              		.loc 1 506 21
 215 0082 3B6D     		ldr	r3, [r7, #80]
 216 0084 DB00     		lsls	r3, r3, #3
 217 0086 0433     		adds	r3, r3, #4
 218 0088 7A68     		ldr	r2, [r7, #4]
 219 008a 1344     		add	r3, r3, r2
 220              		.loc 1 506 14
 221 008c 1B68     		ldr	r3, [r3]	@ float
 222 008e BB63     		str	r3, [r7, #56]	@ float
 507:./Libraries/CMSIS/DSP/Source/TransformFunctions/arm_cfft_radix4_f32.c **** 
 508:./Libraries/CMSIS/DSP/Source/TransformFunctions/arm_cfft_radix4_f32.c ****          /*  Twiddle coefficients index modifier */
 509:./Libraries/CMSIS/DSP/Source/TransformFunctions/arm_cfft_radix4_f32.c ****          ia1 = ia1 + twidCoefModifier;
 223              		.loc 1 509 20
 224 0090 3B89     		ldrh	r3, [r7, #8]
 225              		.loc 1 509 14
 226 0092 FA6E     		ldr	r2, [r7, #108]
 227 0094 1344     		add	r3, r3, r2
 228 0096 FB66     		str	r3, [r7, #108]
 510:./Libraries/CMSIS/DSP/Source/TransformFunctions/arm_cfft_radix4_f32.c **** 
 511:./Libraries/CMSIS/DSP/Source/TransformFunctions/arm_cfft_radix4_f32.c ****          i0 = j;
 229              		.loc 1 511 13
 230 0098 3B6E     		ldr	r3, [r7, #96]
 231 009a BB66     		str	r3, [r7, #104]
 232              	.L8:
 512:./Libraries/CMSIS/DSP/Source/TransformFunctions/arm_cfft_radix4_f32.c ****          do
ARM GAS  /tmp/ccr95kGy.s 			page 14


 513:./Libraries/CMSIS/DSP/Source/TransformFunctions/arm_cfft_radix4_f32.c ****          {
 514:./Libraries/CMSIS/DSP/Source/TransformFunctions/arm_cfft_radix4_f32.c ****             /*  index calculation for the input as, */
 515:./Libraries/CMSIS/DSP/Source/TransformFunctions/arm_cfft_radix4_f32.c ****             /*  pSrc[i0 + 0], pSrc[i0 + fftLen/4], pSrc[i0 + fftLen/2], pSrc[i0 + 3fftLen/4] */
 516:./Libraries/CMSIS/DSP/Source/TransformFunctions/arm_cfft_radix4_f32.c ****             i1 = i0 + n2;
 233              		.loc 1 516 16 discriminator 1
 234 009c BA6E     		ldr	r2, [r7, #104]
 235 009e 7B6E     		ldr	r3, [r7, #100]
 236 00a0 1344     		add	r3, r3, r2
 237 00a2 7B63     		str	r3, [r7, #52]
 517:./Libraries/CMSIS/DSP/Source/TransformFunctions/arm_cfft_radix4_f32.c ****             i2 = i1 + n2;
 238              		.loc 1 517 16 discriminator 1
 239 00a4 7A6B     		ldr	r2, [r7, #52]
 240 00a6 7B6E     		ldr	r3, [r7, #100]
 241 00a8 1344     		add	r3, r3, r2
 242 00aa 3B63     		str	r3, [r7, #48]
 518:./Libraries/CMSIS/DSP/Source/TransformFunctions/arm_cfft_radix4_f32.c ****             i3 = i2 + n2;
 243              		.loc 1 518 16 discriminator 1
 244 00ac 3A6B     		ldr	r2, [r7, #48]
 245 00ae 7B6E     		ldr	r3, [r7, #100]
 246 00b0 1344     		add	r3, r3, r2
 247 00b2 FB62     		str	r3, [r7, #44]
 519:./Libraries/CMSIS/DSP/Source/TransformFunctions/arm_cfft_radix4_f32.c **** 
 520:./Libraries/CMSIS/DSP/Source/TransformFunctions/arm_cfft_radix4_f32.c ****             /* xa + xc */
 521:./Libraries/CMSIS/DSP/Source/TransformFunctions/arm_cfft_radix4_f32.c ****             r1 = pSrc[(2U * i0)] + pSrc[(2U * i2)];
 248              		.loc 1 521 22 discriminator 1
 249 00b4 BB6E     		ldr	r3, [r7, #104]
 250 00b6 DB00     		lsls	r3, r3, #3
 251 00b8 FA68     		ldr	r2, [r7, #12]
 252 00ba 1344     		add	r3, r3, r2
 253 00bc 93ED007A 		vldr.32	s14, [r3]
 254              		.loc 1 521 40 discriminator 1
 255 00c0 3B6B     		ldr	r3, [r7, #48]
 256 00c2 DB00     		lsls	r3, r3, #3
 257 00c4 FA68     		ldr	r2, [r7, #12]
 258 00c6 1344     		add	r3, r3, r2
 259 00c8 D3ED007A 		vldr.32	s15, [r3]
 260              		.loc 1 521 16 discriminator 1
 261 00cc 77EE277A 		vadd.f32	s15, s14, s15
 262 00d0 C7ED0A7A 		vstr.32	s15, [r7, #40]
 522:./Libraries/CMSIS/DSP/Source/TransformFunctions/arm_cfft_radix4_f32.c **** 
 523:./Libraries/CMSIS/DSP/Source/TransformFunctions/arm_cfft_radix4_f32.c ****             /* xa - xc */
 524:./Libraries/CMSIS/DSP/Source/TransformFunctions/arm_cfft_radix4_f32.c ****             r2 = pSrc[(2U * i0)] - pSrc[(2U * i2)];
 263              		.loc 1 524 22 discriminator 1
 264 00d4 BB6E     		ldr	r3, [r7, #104]
 265 00d6 DB00     		lsls	r3, r3, #3
 266 00d8 FA68     		ldr	r2, [r7, #12]
 267 00da 1344     		add	r3, r3, r2
 268 00dc 93ED007A 		vldr.32	s14, [r3]
 269              		.loc 1 524 40 discriminator 1
 270 00e0 3B6B     		ldr	r3, [r7, #48]
 271 00e2 DB00     		lsls	r3, r3, #3
 272 00e4 FA68     		ldr	r2, [r7, #12]
 273 00e6 1344     		add	r3, r3, r2
 274 00e8 D3ED007A 		vldr.32	s15, [r3]
 275              		.loc 1 524 16 discriminator 1
 276 00ec 77EE677A 		vsub.f32	s15, s14, s15
 277 00f0 C7ED097A 		vstr.32	s15, [r7, #36]
ARM GAS  /tmp/ccr95kGy.s 			page 15


 525:./Libraries/CMSIS/DSP/Source/TransformFunctions/arm_cfft_radix4_f32.c **** 
 526:./Libraries/CMSIS/DSP/Source/TransformFunctions/arm_cfft_radix4_f32.c ****             /* ya + yc */
 527:./Libraries/CMSIS/DSP/Source/TransformFunctions/arm_cfft_radix4_f32.c ****             s1 = pSrc[(2U * i0) + 1U] + pSrc[(2U * i2) + 1U];
 278              		.loc 1 527 22 discriminator 1
 279 00f4 BB6E     		ldr	r3, [r7, #104]
 280 00f6 DB00     		lsls	r3, r3, #3
 281 00f8 0433     		adds	r3, r3, #4
 282 00fa FA68     		ldr	r2, [r7, #12]
 283 00fc 1344     		add	r3, r3, r2
 284 00fe 93ED007A 		vldr.32	s14, [r3]
 285              		.loc 1 527 45 discriminator 1
 286 0102 3B6B     		ldr	r3, [r7, #48]
 287 0104 DB00     		lsls	r3, r3, #3
 288 0106 0433     		adds	r3, r3, #4
 289 0108 FA68     		ldr	r2, [r7, #12]
 290 010a 1344     		add	r3, r3, r2
 291 010c D3ED007A 		vldr.32	s15, [r3]
 292              		.loc 1 527 16 discriminator 1
 293 0110 77EE277A 		vadd.f32	s15, s14, s15
 294 0114 C7ED087A 		vstr.32	s15, [r7, #32]
 528:./Libraries/CMSIS/DSP/Source/TransformFunctions/arm_cfft_radix4_f32.c **** 
 529:./Libraries/CMSIS/DSP/Source/TransformFunctions/arm_cfft_radix4_f32.c ****             /* ya - yc */
 530:./Libraries/CMSIS/DSP/Source/TransformFunctions/arm_cfft_radix4_f32.c ****             s2 = pSrc[(2U * i0) + 1U] - pSrc[(2U * i2) + 1U];
 295              		.loc 1 530 22 discriminator 1
 296 0118 BB6E     		ldr	r3, [r7, #104]
 297 011a DB00     		lsls	r3, r3, #3
 298 011c 0433     		adds	r3, r3, #4
 299 011e FA68     		ldr	r2, [r7, #12]
 300 0120 1344     		add	r3, r3, r2
 301 0122 93ED007A 		vldr.32	s14, [r3]
 302              		.loc 1 530 45 discriminator 1
 303 0126 3B6B     		ldr	r3, [r7, #48]
 304 0128 DB00     		lsls	r3, r3, #3
 305 012a 0433     		adds	r3, r3, #4
 306 012c FA68     		ldr	r2, [r7, #12]
 307 012e 1344     		add	r3, r3, r2
 308 0130 D3ED007A 		vldr.32	s15, [r3]
 309              		.loc 1 530 16 discriminator 1
 310 0134 77EE677A 		vsub.f32	s15, s14, s15
 311 0138 C7ED077A 		vstr.32	s15, [r7, #28]
 531:./Libraries/CMSIS/DSP/Source/TransformFunctions/arm_cfft_radix4_f32.c **** 
 532:./Libraries/CMSIS/DSP/Source/TransformFunctions/arm_cfft_radix4_f32.c ****             /* xb + xd */
 533:./Libraries/CMSIS/DSP/Source/TransformFunctions/arm_cfft_radix4_f32.c ****             t1 = pSrc[2U * i1] + pSrc[2U * i3];
 312              		.loc 1 533 22 discriminator 1
 313 013c 7B6B     		ldr	r3, [r7, #52]
 314 013e DB00     		lsls	r3, r3, #3
 315 0140 FA68     		ldr	r2, [r7, #12]
 316 0142 1344     		add	r3, r3, r2
 317 0144 93ED007A 		vldr.32	s14, [r3]
 318              		.loc 1 533 38 discriminator 1
 319 0148 FB6A     		ldr	r3, [r7, #44]
 320 014a DB00     		lsls	r3, r3, #3
 321 014c FA68     		ldr	r2, [r7, #12]
 322 014e 1344     		add	r3, r3, r2
 323 0150 D3ED007A 		vldr.32	s15, [r3]
 324              		.loc 1 533 16 discriminator 1
 325 0154 77EE277A 		vadd.f32	s15, s14, s15
ARM GAS  /tmp/ccr95kGy.s 			page 16


 326 0158 C7ED067A 		vstr.32	s15, [r7, #24]
 534:./Libraries/CMSIS/DSP/Source/TransformFunctions/arm_cfft_radix4_f32.c **** 
 535:./Libraries/CMSIS/DSP/Source/TransformFunctions/arm_cfft_radix4_f32.c ****             /* xa' = xa + xb + xc + xd */
 536:./Libraries/CMSIS/DSP/Source/TransformFunctions/arm_cfft_radix4_f32.c ****             pSrc[2U * i0] = r1 + t1;
 327              		.loc 1 536 17 discriminator 1
 328 015c BB6E     		ldr	r3, [r7, #104]
 329 015e DB00     		lsls	r3, r3, #3
 330 0160 FA68     		ldr	r2, [r7, #12]
 331 0162 1344     		add	r3, r3, r2
 332              		.loc 1 536 32 discriminator 1
 333 0164 97ED0A7A 		vldr.32	s14, [r7, #40]
 334 0168 D7ED067A 		vldr.32	s15, [r7, #24]
 335 016c 77EE277A 		vadd.f32	s15, s14, s15
 336              		.loc 1 536 27 discriminator 1
 337 0170 C3ED007A 		vstr.32	s15, [r3]
 537:./Libraries/CMSIS/DSP/Source/TransformFunctions/arm_cfft_radix4_f32.c **** 
 538:./Libraries/CMSIS/DSP/Source/TransformFunctions/arm_cfft_radix4_f32.c ****             /* xa + xc -(xb + xd) */
 539:./Libraries/CMSIS/DSP/Source/TransformFunctions/arm_cfft_radix4_f32.c ****             r1 = r1 - t1;
 338              		.loc 1 539 16 discriminator 1
 339 0174 97ED0A7A 		vldr.32	s14, [r7, #40]
 340 0178 D7ED067A 		vldr.32	s15, [r7, #24]
 341 017c 77EE677A 		vsub.f32	s15, s14, s15
 342 0180 C7ED0A7A 		vstr.32	s15, [r7, #40]
 540:./Libraries/CMSIS/DSP/Source/TransformFunctions/arm_cfft_radix4_f32.c **** 
 541:./Libraries/CMSIS/DSP/Source/TransformFunctions/arm_cfft_radix4_f32.c ****             /* yb + yd */
 542:./Libraries/CMSIS/DSP/Source/TransformFunctions/arm_cfft_radix4_f32.c ****             t2 = pSrc[(2U * i1) + 1U] + pSrc[(2U * i3) + 1U];
 343              		.loc 1 542 22 discriminator 1
 344 0184 7B6B     		ldr	r3, [r7, #52]
 345 0186 DB00     		lsls	r3, r3, #3
 346 0188 0433     		adds	r3, r3, #4
 347 018a FA68     		ldr	r2, [r7, #12]
 348 018c 1344     		add	r3, r3, r2
 349 018e 93ED007A 		vldr.32	s14, [r3]
 350              		.loc 1 542 45 discriminator 1
 351 0192 FB6A     		ldr	r3, [r7, #44]
 352 0194 DB00     		lsls	r3, r3, #3
 353 0196 0433     		adds	r3, r3, #4
 354 0198 FA68     		ldr	r2, [r7, #12]
 355 019a 1344     		add	r3, r3, r2
 356 019c D3ED007A 		vldr.32	s15, [r3]
 357              		.loc 1 542 16 discriminator 1
 358 01a0 77EE277A 		vadd.f32	s15, s14, s15
 359 01a4 C7ED057A 		vstr.32	s15, [r7, #20]
 543:./Libraries/CMSIS/DSP/Source/TransformFunctions/arm_cfft_radix4_f32.c **** 
 544:./Libraries/CMSIS/DSP/Source/TransformFunctions/arm_cfft_radix4_f32.c ****             /* ya' = ya + yb + yc + yd */
 545:./Libraries/CMSIS/DSP/Source/TransformFunctions/arm_cfft_radix4_f32.c ****             pSrc[(2U * i0) + 1U] = s1 + t2;
 360              		.loc 1 545 17 discriminator 1
 361 01a8 BB6E     		ldr	r3, [r7, #104]
 362 01aa DB00     		lsls	r3, r3, #3
 363 01ac 0433     		adds	r3, r3, #4
 364 01ae FA68     		ldr	r2, [r7, #12]
 365 01b0 1344     		add	r3, r3, r2
 366              		.loc 1 545 39 discriminator 1
 367 01b2 97ED087A 		vldr.32	s14, [r7, #32]
 368 01b6 D7ED057A 		vldr.32	s15, [r7, #20]
 369 01ba 77EE277A 		vadd.f32	s15, s14, s15
 370              		.loc 1 545 34 discriminator 1
ARM GAS  /tmp/ccr95kGy.s 			page 17


 371 01be C3ED007A 		vstr.32	s15, [r3]
 546:./Libraries/CMSIS/DSP/Source/TransformFunctions/arm_cfft_radix4_f32.c **** 
 547:./Libraries/CMSIS/DSP/Source/TransformFunctions/arm_cfft_radix4_f32.c ****             /* (ya + yc) - (yb + yd) */
 548:./Libraries/CMSIS/DSP/Source/TransformFunctions/arm_cfft_radix4_f32.c ****             s1 = s1 - t2;
 372              		.loc 1 548 16 discriminator 1
 373 01c2 97ED087A 		vldr.32	s14, [r7, #32]
 374 01c6 D7ED057A 		vldr.32	s15, [r7, #20]
 375 01ca 77EE677A 		vsub.f32	s15, s14, s15
 376 01ce C7ED087A 		vstr.32	s15, [r7, #32]
 549:./Libraries/CMSIS/DSP/Source/TransformFunctions/arm_cfft_radix4_f32.c **** 
 550:./Libraries/CMSIS/DSP/Source/TransformFunctions/arm_cfft_radix4_f32.c ****             /* (yb - yd) */
 551:./Libraries/CMSIS/DSP/Source/TransformFunctions/arm_cfft_radix4_f32.c ****             t1 = pSrc[(2U * i1) + 1U] - pSrc[(2U * i3) + 1U];
 377              		.loc 1 551 22 discriminator 1
 378 01d2 7B6B     		ldr	r3, [r7, #52]
 379 01d4 DB00     		lsls	r3, r3, #3
 380 01d6 0433     		adds	r3, r3, #4
 381 01d8 FA68     		ldr	r2, [r7, #12]
 382 01da 1344     		add	r3, r3, r2
 383 01dc 93ED007A 		vldr.32	s14, [r3]
 384              		.loc 1 551 45 discriminator 1
 385 01e0 FB6A     		ldr	r3, [r7, #44]
 386 01e2 DB00     		lsls	r3, r3, #3
 387 01e4 0433     		adds	r3, r3, #4
 388 01e6 FA68     		ldr	r2, [r7, #12]
 389 01e8 1344     		add	r3, r3, r2
 390 01ea D3ED007A 		vldr.32	s15, [r3]
 391              		.loc 1 551 16 discriminator 1
 392 01ee 77EE677A 		vsub.f32	s15, s14, s15
 393 01f2 C7ED067A 		vstr.32	s15, [r7, #24]
 552:./Libraries/CMSIS/DSP/Source/TransformFunctions/arm_cfft_radix4_f32.c **** 
 553:./Libraries/CMSIS/DSP/Source/TransformFunctions/arm_cfft_radix4_f32.c ****             /* (xb - xd) */
 554:./Libraries/CMSIS/DSP/Source/TransformFunctions/arm_cfft_radix4_f32.c ****             t2 = pSrc[2U * i1] - pSrc[2U * i3];
 394              		.loc 1 554 22 discriminator 1
 395 01f6 7B6B     		ldr	r3, [r7, #52]
 396 01f8 DB00     		lsls	r3, r3, #3
 397 01fa FA68     		ldr	r2, [r7, #12]
 398 01fc 1344     		add	r3, r3, r2
 399 01fe 93ED007A 		vldr.32	s14, [r3]
 400              		.loc 1 554 38 discriminator 1
 401 0202 FB6A     		ldr	r3, [r7, #44]
 402 0204 DB00     		lsls	r3, r3, #3
 403 0206 FA68     		ldr	r2, [r7, #12]
 404 0208 1344     		add	r3, r3, r2
 405 020a D3ED007A 		vldr.32	s15, [r3]
 406              		.loc 1 554 16 discriminator 1
 407 020e 77EE677A 		vsub.f32	s15, s14, s15
 408 0212 C7ED057A 		vstr.32	s15, [r7, #20]
 555:./Libraries/CMSIS/DSP/Source/TransformFunctions/arm_cfft_radix4_f32.c **** 
 556:./Libraries/CMSIS/DSP/Source/TransformFunctions/arm_cfft_radix4_f32.c ****             /* xc' = (xa-xb+xc-xd)co2 + (ya-yb+yc-yd)(si2) */
 557:./Libraries/CMSIS/DSP/Source/TransformFunctions/arm_cfft_radix4_f32.c ****             pSrc[2U * i1] = (r1 * co2) + (s1 * si2);
 409              		.loc 1 557 33 discriminator 1
 410 0216 97ED0A7A 		vldr.32	s14, [r7, #40]
 411 021a D7ED117A 		vldr.32	s15, [r7, #68]
 412 021e 27EE277A 		vmul.f32	s14, s14, s15
 413              		.loc 1 557 46 discriminator 1
 414 0222 D7ED086A 		vldr.32	s13, [r7, #32]
 415 0226 D7ED107A 		vldr.32	s15, [r7, #64]
ARM GAS  /tmp/ccr95kGy.s 			page 18


 416 022a 66EEA77A 		vmul.f32	s15, s13, s15
 417              		.loc 1 557 17 discriminator 1
 418 022e 7B6B     		ldr	r3, [r7, #52]
 419 0230 DB00     		lsls	r3, r3, #3
 420 0232 FA68     		ldr	r2, [r7, #12]
 421 0234 1344     		add	r3, r3, r2
 422              		.loc 1 557 40 discriminator 1
 423 0236 77EE277A 		vadd.f32	s15, s14, s15
 424              		.loc 1 557 27 discriminator 1
 425 023a C3ED007A 		vstr.32	s15, [r3]
 558:./Libraries/CMSIS/DSP/Source/TransformFunctions/arm_cfft_radix4_f32.c **** 
 559:./Libraries/CMSIS/DSP/Source/TransformFunctions/arm_cfft_radix4_f32.c ****             /* yc' = (ya-yb+yc-yd)co2 - (xa-xb+xc-xd)(si2) */
 560:./Libraries/CMSIS/DSP/Source/TransformFunctions/arm_cfft_radix4_f32.c ****             pSrc[(2U * i1) + 1U] = (s1 * co2) - (r1 * si2);
 426              		.loc 1 560 40 discriminator 1
 427 023e 97ED087A 		vldr.32	s14, [r7, #32]
 428 0242 D7ED117A 		vldr.32	s15, [r7, #68]
 429 0246 27EE277A 		vmul.f32	s14, s14, s15
 430              		.loc 1 560 53 discriminator 1
 431 024a D7ED0A6A 		vldr.32	s13, [r7, #40]
 432 024e D7ED107A 		vldr.32	s15, [r7, #64]
 433 0252 66EEA77A 		vmul.f32	s15, s13, s15
 434              		.loc 1 560 17 discriminator 1
 435 0256 7B6B     		ldr	r3, [r7, #52]
 436 0258 DB00     		lsls	r3, r3, #3
 437 025a 0433     		adds	r3, r3, #4
 438 025c FA68     		ldr	r2, [r7, #12]
 439 025e 1344     		add	r3, r3, r2
 440              		.loc 1 560 47 discriminator 1
 441 0260 77EE677A 		vsub.f32	s15, s14, s15
 442              		.loc 1 560 34 discriminator 1
 443 0264 C3ED007A 		vstr.32	s15, [r3]
 561:./Libraries/CMSIS/DSP/Source/TransformFunctions/arm_cfft_radix4_f32.c **** 
 562:./Libraries/CMSIS/DSP/Source/TransformFunctions/arm_cfft_radix4_f32.c ****             /* (xa - xc) + (yb - yd) */
 563:./Libraries/CMSIS/DSP/Source/TransformFunctions/arm_cfft_radix4_f32.c ****             r1 = r2 + t1;
 444              		.loc 1 563 16 discriminator 1
 445 0268 97ED097A 		vldr.32	s14, [r7, #36]
 446 026c D7ED067A 		vldr.32	s15, [r7, #24]
 447 0270 77EE277A 		vadd.f32	s15, s14, s15
 448 0274 C7ED0A7A 		vstr.32	s15, [r7, #40]
 564:./Libraries/CMSIS/DSP/Source/TransformFunctions/arm_cfft_radix4_f32.c **** 
 565:./Libraries/CMSIS/DSP/Source/TransformFunctions/arm_cfft_radix4_f32.c ****             /* (xa - xc) - (yb - yd) */
 566:./Libraries/CMSIS/DSP/Source/TransformFunctions/arm_cfft_radix4_f32.c ****             r2 = r2 - t1;
 449              		.loc 1 566 16 discriminator 1
 450 0278 97ED097A 		vldr.32	s14, [r7, #36]
 451 027c D7ED067A 		vldr.32	s15, [r7, #24]
 452 0280 77EE677A 		vsub.f32	s15, s14, s15
 453 0284 C7ED097A 		vstr.32	s15, [r7, #36]
 567:./Libraries/CMSIS/DSP/Source/TransformFunctions/arm_cfft_radix4_f32.c **** 
 568:./Libraries/CMSIS/DSP/Source/TransformFunctions/arm_cfft_radix4_f32.c ****             /* (ya - yc) -  (xb - xd) */
 569:./Libraries/CMSIS/DSP/Source/TransformFunctions/arm_cfft_radix4_f32.c ****             s1 = s2 - t2;
 454              		.loc 1 569 16 discriminator 1
 455 0288 97ED077A 		vldr.32	s14, [r7, #28]
 456 028c D7ED057A 		vldr.32	s15, [r7, #20]
 457 0290 77EE677A 		vsub.f32	s15, s14, s15
 458 0294 C7ED087A 		vstr.32	s15, [r7, #32]
 570:./Libraries/CMSIS/DSP/Source/TransformFunctions/arm_cfft_radix4_f32.c **** 
 571:./Libraries/CMSIS/DSP/Source/TransformFunctions/arm_cfft_radix4_f32.c ****             /* (ya - yc) +  (xb - xd) */
ARM GAS  /tmp/ccr95kGy.s 			page 19


 572:./Libraries/CMSIS/DSP/Source/TransformFunctions/arm_cfft_radix4_f32.c ****             s2 = s2 + t2;
 459              		.loc 1 572 16 discriminator 1
 460 0298 97ED077A 		vldr.32	s14, [r7, #28]
 461 029c D7ED057A 		vldr.32	s15, [r7, #20]
 462 02a0 77EE277A 		vadd.f32	s15, s14, s15
 463 02a4 C7ED077A 		vstr.32	s15, [r7, #28]
 573:./Libraries/CMSIS/DSP/Source/TransformFunctions/arm_cfft_radix4_f32.c **** 
 574:./Libraries/CMSIS/DSP/Source/TransformFunctions/arm_cfft_radix4_f32.c ****             /* xb' = (xa+yb-xc-yd)co1 + (ya-xb-yc+xd)(si1) */
 575:./Libraries/CMSIS/DSP/Source/TransformFunctions/arm_cfft_radix4_f32.c ****             pSrc[2U * i2] = (r1 * co1) + (s1 * si1);
 464              		.loc 1 575 33 discriminator 1
 465 02a8 97ED0A7A 		vldr.32	s14, [r7, #40]
 466 02ac D7ED137A 		vldr.32	s15, [r7, #76]
 467 02b0 27EE277A 		vmul.f32	s14, s14, s15
 468              		.loc 1 575 46 discriminator 1
 469 02b4 D7ED086A 		vldr.32	s13, [r7, #32]
 470 02b8 D7ED127A 		vldr.32	s15, [r7, #72]
 471 02bc 66EEA77A 		vmul.f32	s15, s13, s15
 472              		.loc 1 575 17 discriminator 1
 473 02c0 3B6B     		ldr	r3, [r7, #48]
 474 02c2 DB00     		lsls	r3, r3, #3
 475 02c4 FA68     		ldr	r2, [r7, #12]
 476 02c6 1344     		add	r3, r3, r2
 477              		.loc 1 575 40 discriminator 1
 478 02c8 77EE277A 		vadd.f32	s15, s14, s15
 479              		.loc 1 575 27 discriminator 1
 480 02cc C3ED007A 		vstr.32	s15, [r3]
 576:./Libraries/CMSIS/DSP/Source/TransformFunctions/arm_cfft_radix4_f32.c **** 
 577:./Libraries/CMSIS/DSP/Source/TransformFunctions/arm_cfft_radix4_f32.c ****             /* yb' = (ya-xb-yc+xd)co1 - (xa+yb-xc-yd)(si1) */
 578:./Libraries/CMSIS/DSP/Source/TransformFunctions/arm_cfft_radix4_f32.c ****             pSrc[(2U * i2) + 1U] = (s1 * co1) - (r1 * si1);
 481              		.loc 1 578 40 discriminator 1
 482 02d0 97ED087A 		vldr.32	s14, [r7, #32]
 483 02d4 D7ED137A 		vldr.32	s15, [r7, #76]
 484 02d8 27EE277A 		vmul.f32	s14, s14, s15
 485              		.loc 1 578 53 discriminator 1
 486 02dc D7ED0A6A 		vldr.32	s13, [r7, #40]
 487 02e0 D7ED127A 		vldr.32	s15, [r7, #72]
 488 02e4 66EEA77A 		vmul.f32	s15, s13, s15
 489              		.loc 1 578 17 discriminator 1
 490 02e8 3B6B     		ldr	r3, [r7, #48]
 491 02ea DB00     		lsls	r3, r3, #3
 492 02ec 0433     		adds	r3, r3, #4
 493 02ee FA68     		ldr	r2, [r7, #12]
 494 02f0 1344     		add	r3, r3, r2
 495              		.loc 1 578 47 discriminator 1
 496 02f2 77EE677A 		vsub.f32	s15, s14, s15
 497              		.loc 1 578 34 discriminator 1
 498 02f6 C3ED007A 		vstr.32	s15, [r3]
 579:./Libraries/CMSIS/DSP/Source/TransformFunctions/arm_cfft_radix4_f32.c **** 
 580:./Libraries/CMSIS/DSP/Source/TransformFunctions/arm_cfft_radix4_f32.c ****             /* xd' = (xa-yb-xc+yd)co3 + (ya+xb-yc-xd)(si3) */
 581:./Libraries/CMSIS/DSP/Source/TransformFunctions/arm_cfft_radix4_f32.c ****             pSrc[2U * i3] = (r2 * co3) + (s2 * si3);
 499              		.loc 1 581 33 discriminator 1
 500 02fa 97ED097A 		vldr.32	s14, [r7, #36]
 501 02fe D7ED0F7A 		vldr.32	s15, [r7, #60]
 502 0302 27EE277A 		vmul.f32	s14, s14, s15
 503              		.loc 1 581 46 discriminator 1
 504 0306 D7ED076A 		vldr.32	s13, [r7, #28]
 505 030a D7ED0E7A 		vldr.32	s15, [r7, #56]
ARM GAS  /tmp/ccr95kGy.s 			page 20


 506 030e 66EEA77A 		vmul.f32	s15, s13, s15
 507              		.loc 1 581 17 discriminator 1
 508 0312 FB6A     		ldr	r3, [r7, #44]
 509 0314 DB00     		lsls	r3, r3, #3
 510 0316 FA68     		ldr	r2, [r7, #12]
 511 0318 1344     		add	r3, r3, r2
 512              		.loc 1 581 40 discriminator 1
 513 031a 77EE277A 		vadd.f32	s15, s14, s15
 514              		.loc 1 581 27 discriminator 1
 515 031e C3ED007A 		vstr.32	s15, [r3]
 582:./Libraries/CMSIS/DSP/Source/TransformFunctions/arm_cfft_radix4_f32.c **** 
 583:./Libraries/CMSIS/DSP/Source/TransformFunctions/arm_cfft_radix4_f32.c ****             /* yd' = (ya+xb-yc-xd)co3 - (xa-yb-xc+yd)(si3) */
 584:./Libraries/CMSIS/DSP/Source/TransformFunctions/arm_cfft_radix4_f32.c ****             pSrc[(2U * i3) + 1U] = (s2 * co3) - (r2 * si3);
 516              		.loc 1 584 40 discriminator 1
 517 0322 97ED077A 		vldr.32	s14, [r7, #28]
 518 0326 D7ED0F7A 		vldr.32	s15, [r7, #60]
 519 032a 27EE277A 		vmul.f32	s14, s14, s15
 520              		.loc 1 584 53 discriminator 1
 521 032e D7ED096A 		vldr.32	s13, [r7, #36]
 522 0332 D7ED0E7A 		vldr.32	s15, [r7, #56]
 523 0336 66EEA77A 		vmul.f32	s15, s13, s15
 524              		.loc 1 584 17 discriminator 1
 525 033a FB6A     		ldr	r3, [r7, #44]
 526 033c DB00     		lsls	r3, r3, #3
 527 033e 0433     		adds	r3, r3, #4
 528 0340 FA68     		ldr	r2, [r7, #12]
 529 0342 1344     		add	r3, r3, r2
 530              		.loc 1 584 47 discriminator 1
 531 0344 77EE677A 		vsub.f32	s15, s14, s15
 532              		.loc 1 584 34 discriminator 1
 533 0348 C3ED007A 		vstr.32	s15, [r3]
 585:./Libraries/CMSIS/DSP/Source/TransformFunctions/arm_cfft_radix4_f32.c **** 
 586:./Libraries/CMSIS/DSP/Source/TransformFunctions/arm_cfft_radix4_f32.c ****             i0 += n1;
 534              		.loc 1 586 16 discriminator 1
 535 034c BA6E     		ldr	r2, [r7, #104]
 536 034e BB6D     		ldr	r3, [r7, #88]
 537 0350 1344     		add	r3, r3, r2
 538 0352 BB66     		str	r3, [r7, #104]
 587:./Libraries/CMSIS/DSP/Source/TransformFunctions/arm_cfft_radix4_f32.c ****          } while ( i0 < fftLen);
 539              		.loc 1 587 23 discriminator 1
 540 0354 7B89     		ldrh	r3, [r7, #10]
 541              		.loc 1 587 10 discriminator 1
 542 0356 BA6E     		ldr	r2, [r7, #104]
 543 0358 9A42     		cmp	r2, r3
 544 035a FFF49FAE 		bcc	.L8
 588:./Libraries/CMSIS/DSP/Source/TransformFunctions/arm_cfft_radix4_f32.c ****          j++;
 545              		.loc 1 588 11
 546 035e 3B6E     		ldr	r3, [r7, #96]
 547 0360 0133     		adds	r3, r3, #1
 548 0362 3B66     		str	r3, [r7, #96]
 589:./Libraries/CMSIS/DSP/Source/TransformFunctions/arm_cfft_radix4_f32.c ****       } while (j <= (n2 - 1U));
 549              		.loc 1 589 25
 550 0364 7B6E     		ldr	r3, [r7, #100]
 551 0366 013B     		subs	r3, r3, #1
 552              		.loc 1 589 7
 553 0368 3A6E     		ldr	r2, [r7, #96]
 554 036a 9A42     		cmp	r2, r3
ARM GAS  /tmp/ccr95kGy.s 			page 21


 555 036c 7FF662AE 		bls	.L9
 590:./Libraries/CMSIS/DSP/Source/TransformFunctions/arm_cfft_radix4_f32.c ****       twidCoefModifier <<= 2U;
 556              		.loc 1 590 24 discriminator 2
 557 0370 3B89     		ldrh	r3, [r7, #8]	@ movhi
 558 0372 9B00     		lsls	r3, r3, #2
 559 0374 3B81     		strh	r3, [r7, #8]	@ movhi
 487:./Libraries/CMSIS/DSP/Source/TransformFunctions/arm_cfft_radix4_f32.c ****    {
 560              		.loc 1 487 31 discriminator 2
 561 0376 FB6D     		ldr	r3, [r7, #92]
 562 0378 9B08     		lsrs	r3, r3, #2
 563 037a FB65     		str	r3, [r7, #92]
 564              	.L7:
 487:./Libraries/CMSIS/DSP/Source/TransformFunctions/arm_cfft_radix4_f32.c ****    {
 565              		.loc 1 487 4 discriminator 1
 566 037c FB6D     		ldr	r3, [r7, #92]
 567 037e 012B     		cmp	r3, #1
 568 0380 3FF64FAE 		bhi	.L10
 591:./Libraries/CMSIS/DSP/Source/TransformFunctions/arm_cfft_radix4_f32.c ****    }
 592:./Libraries/CMSIS/DSP/Source/TransformFunctions/arm_cfft_radix4_f32.c **** 
 593:./Libraries/CMSIS/DSP/Source/TransformFunctions/arm_cfft_radix4_f32.c **** #endif /* #if defined (ARM_MATH_LOOPUNROLL) */
 594:./Libraries/CMSIS/DSP/Source/TransformFunctions/arm_cfft_radix4_f32.c **** 
 595:./Libraries/CMSIS/DSP/Source/TransformFunctions/arm_cfft_radix4_f32.c **** }
 569              		.loc 1 595 1
 570 0384 00BF     		nop
 571 0386 00BF     		nop
 572 0388 7437     		adds	r7, r7, #116
 573              	.LCFI8:
 574              		.cfi_def_cfa_offset 4
 575 038a BD46     		mov	sp, r7
 576              	.LCFI9:
 577              		.cfi_def_cfa_register 13
 578              		@ sp needed
 579 038c 5DF8047B 		ldr	r7, [sp], #4
 580              	.LCFI10:
 581              		.cfi_restore 7
 582              		.cfi_def_cfa_offset 0
 583 0390 7047     		bx	lr
 584              		.cfi_endproc
 585              	.LFE146:
 587              		.section	.text.arm_radix4_butterfly_inverse_f32,"ax",%progbits
 588              		.align	1
 589              		.global	arm_radix4_butterfly_inverse_f32
 590              		.syntax unified
 591              		.thumb
 592              		.thumb_func
 593              		.fpu fpv5-d16
 595              	arm_radix4_butterfly_inverse_f32:
 596              	.LFB147:
 596:./Libraries/CMSIS/DSP/Source/TransformFunctions/arm_cfft_radix4_f32.c **** 
 597:./Libraries/CMSIS/DSP/Source/TransformFunctions/arm_cfft_radix4_f32.c **** /**
 598:./Libraries/CMSIS/DSP/Source/TransformFunctions/arm_cfft_radix4_f32.c ****   brief         Core function for the floating-point CIFFT butterfly process.
 599:./Libraries/CMSIS/DSP/Source/TransformFunctions/arm_cfft_radix4_f32.c ****   param[in,out] pSrc             points to the in-place buffer of floating-point data type
 600:./Libraries/CMSIS/DSP/Source/TransformFunctions/arm_cfft_radix4_f32.c ****   param[in]     fftLen           length of the FFT
 601:./Libraries/CMSIS/DSP/Source/TransformFunctions/arm_cfft_radix4_f32.c ****   param[in]     pCoef            points to twiddle coefficient buffer
 602:./Libraries/CMSIS/DSP/Source/TransformFunctions/arm_cfft_radix4_f32.c ****   param[in]     twidCoefModifier twiddle coefficient modifier that supports different size FFTs wit
 603:./Libraries/CMSIS/DSP/Source/TransformFunctions/arm_cfft_radix4_f32.c ****   param[in]     onebyfftLen      value of 1/fftLen
 604:./Libraries/CMSIS/DSP/Source/TransformFunctions/arm_cfft_radix4_f32.c ****   return        none
ARM GAS  /tmp/ccr95kGy.s 			page 22


 605:./Libraries/CMSIS/DSP/Source/TransformFunctions/arm_cfft_radix4_f32.c ****  */
 606:./Libraries/CMSIS/DSP/Source/TransformFunctions/arm_cfft_radix4_f32.c **** 
 607:./Libraries/CMSIS/DSP/Source/TransformFunctions/arm_cfft_radix4_f32.c **** void arm_radix4_butterfly_inverse_f32(
 608:./Libraries/CMSIS/DSP/Source/TransformFunctions/arm_cfft_radix4_f32.c ****         float32_t * pSrc,
 609:./Libraries/CMSIS/DSP/Source/TransformFunctions/arm_cfft_radix4_f32.c ****         uint16_t fftLen,
 610:./Libraries/CMSIS/DSP/Source/TransformFunctions/arm_cfft_radix4_f32.c ****   const float32_t * pCoef,
 611:./Libraries/CMSIS/DSP/Source/TransformFunctions/arm_cfft_radix4_f32.c ****         uint16_t twidCoefModifier,
 612:./Libraries/CMSIS/DSP/Source/TransformFunctions/arm_cfft_radix4_f32.c ****         float32_t onebyfftLen)
 613:./Libraries/CMSIS/DSP/Source/TransformFunctions/arm_cfft_radix4_f32.c **** {
 597              		.loc 1 613 1
 598              		.cfi_startproc
 599              		@ args = 0, pretend = 0, frame = 112
 600              		@ frame_needed = 1, uses_anonymous_args = 0
 601              		@ link register save eliminated.
 602 0000 80B4     		push	{r7}
 603              	.LCFI11:
 604              		.cfi_def_cfa_offset 4
 605              		.cfi_offset 7, -4
 606 0002 9DB0     		sub	sp, sp, #116
 607              	.LCFI12:
 608              		.cfi_def_cfa_offset 120
 609 0004 00AF     		add	r7, sp, #0
 610              	.LCFI13:
 611              		.cfi_def_cfa_register 7
 612 0006 F860     		str	r0, [r7, #12]
 613 0008 7A60     		str	r2, [r7, #4]
 614 000a 1A46     		mov	r2, r3
 615 000c 87ED000A 		vstr.32	s0, [r7]
 616 0010 0B46     		mov	r3, r1	@ movhi
 617 0012 7B81     		strh	r3, [r7, #10]	@ movhi
 618 0014 1346     		mov	r3, r2	@ movhi
 619 0016 3B81     		strh	r3, [r7, #8]	@ movhi
 614:./Libraries/CMSIS/DSP/Source/TransformFunctions/arm_cfft_radix4_f32.c ****         float32_t co1, co2, co3, si1, si2, si3;
 615:./Libraries/CMSIS/DSP/Source/TransformFunctions/arm_cfft_radix4_f32.c ****         uint32_t ia1, ia2, ia3;
 616:./Libraries/CMSIS/DSP/Source/TransformFunctions/arm_cfft_radix4_f32.c ****         uint32_t i0, i1, i2, i3;
 617:./Libraries/CMSIS/DSP/Source/TransformFunctions/arm_cfft_radix4_f32.c ****         uint32_t n1, n2, j, k;
 618:./Libraries/CMSIS/DSP/Source/TransformFunctions/arm_cfft_radix4_f32.c **** 
 619:./Libraries/CMSIS/DSP/Source/TransformFunctions/arm_cfft_radix4_f32.c **** #if defined (ARM_MATH_LOOPUNROLL)
 620:./Libraries/CMSIS/DSP/Source/TransformFunctions/arm_cfft_radix4_f32.c **** 
 621:./Libraries/CMSIS/DSP/Source/TransformFunctions/arm_cfft_radix4_f32.c ****         float32_t xaIn, yaIn, xbIn, ybIn, xcIn, ycIn, xdIn, ydIn;
 622:./Libraries/CMSIS/DSP/Source/TransformFunctions/arm_cfft_radix4_f32.c ****         float32_t Xaplusc, Xbplusd, Yaplusc, Ybplusd, Xaminusc, Xbminusd, Yaminusc,
 623:./Libraries/CMSIS/DSP/Source/TransformFunctions/arm_cfft_radix4_f32.c ****         Ybminusd;
 624:./Libraries/CMSIS/DSP/Source/TransformFunctions/arm_cfft_radix4_f32.c ****         float32_t Xb12C_out, Yb12C_out, Xc12C_out, Yc12C_out, Xd12C_out, Yd12C_out;
 625:./Libraries/CMSIS/DSP/Source/TransformFunctions/arm_cfft_radix4_f32.c ****         float32_t Xb12_out, Yb12_out, Xc12_out, Yc12_out, Xd12_out, Yd12_out;
 626:./Libraries/CMSIS/DSP/Source/TransformFunctions/arm_cfft_radix4_f32.c ****         float32_t *ptr1;
 627:./Libraries/CMSIS/DSP/Source/TransformFunctions/arm_cfft_radix4_f32.c ****         float32_t p0,p1,p2,p3,p4,p5,p6,p7;
 628:./Libraries/CMSIS/DSP/Source/TransformFunctions/arm_cfft_radix4_f32.c ****         float32_t a0,a1,a2,a3,a4,a5,a6,a7;
 629:./Libraries/CMSIS/DSP/Source/TransformFunctions/arm_cfft_radix4_f32.c **** 
 630:./Libraries/CMSIS/DSP/Source/TransformFunctions/arm_cfft_radix4_f32.c **** 
 631:./Libraries/CMSIS/DSP/Source/TransformFunctions/arm_cfft_radix4_f32.c ****    /*  Initializations for the first stage */
 632:./Libraries/CMSIS/DSP/Source/TransformFunctions/arm_cfft_radix4_f32.c ****    n2 = fftLen;
 633:./Libraries/CMSIS/DSP/Source/TransformFunctions/arm_cfft_radix4_f32.c ****    n1 = n2;
 634:./Libraries/CMSIS/DSP/Source/TransformFunctions/arm_cfft_radix4_f32.c **** 
 635:./Libraries/CMSIS/DSP/Source/TransformFunctions/arm_cfft_radix4_f32.c ****    /* n2 = fftLen/4 */
 636:./Libraries/CMSIS/DSP/Source/TransformFunctions/arm_cfft_radix4_f32.c ****    n2 >>= 2U;
 637:./Libraries/CMSIS/DSP/Source/TransformFunctions/arm_cfft_radix4_f32.c ****    i0 = 0U;
 638:./Libraries/CMSIS/DSP/Source/TransformFunctions/arm_cfft_radix4_f32.c ****    ia1 = 0U;
ARM GAS  /tmp/ccr95kGy.s 			page 23


 639:./Libraries/CMSIS/DSP/Source/TransformFunctions/arm_cfft_radix4_f32.c **** 
 640:./Libraries/CMSIS/DSP/Source/TransformFunctions/arm_cfft_radix4_f32.c ****    j = n2;
 641:./Libraries/CMSIS/DSP/Source/TransformFunctions/arm_cfft_radix4_f32.c **** 
 642:./Libraries/CMSIS/DSP/Source/TransformFunctions/arm_cfft_radix4_f32.c ****    /*  Calculation of first stage */
 643:./Libraries/CMSIS/DSP/Source/TransformFunctions/arm_cfft_radix4_f32.c ****    do
 644:./Libraries/CMSIS/DSP/Source/TransformFunctions/arm_cfft_radix4_f32.c ****    {
 645:./Libraries/CMSIS/DSP/Source/TransformFunctions/arm_cfft_radix4_f32.c ****       /*  index calculation for the input as, */
 646:./Libraries/CMSIS/DSP/Source/TransformFunctions/arm_cfft_radix4_f32.c ****       /*  pSrc[i0 + 0], pSrc[i0 + fftLen/4], pSrc[i0 + fftLen/2], pSrc[i0 + 3fftLen/4] */
 647:./Libraries/CMSIS/DSP/Source/TransformFunctions/arm_cfft_radix4_f32.c ****       i1 = i0 + n2;
 648:./Libraries/CMSIS/DSP/Source/TransformFunctions/arm_cfft_radix4_f32.c ****       i2 = i1 + n2;
 649:./Libraries/CMSIS/DSP/Source/TransformFunctions/arm_cfft_radix4_f32.c ****       i3 = i2 + n2;
 650:./Libraries/CMSIS/DSP/Source/TransformFunctions/arm_cfft_radix4_f32.c **** 
 651:./Libraries/CMSIS/DSP/Source/TransformFunctions/arm_cfft_radix4_f32.c ****       /*  Butterfly implementation */
 652:./Libraries/CMSIS/DSP/Source/TransformFunctions/arm_cfft_radix4_f32.c ****       xaIn = pSrc[(2U * i0)];
 653:./Libraries/CMSIS/DSP/Source/TransformFunctions/arm_cfft_radix4_f32.c ****       yaIn = pSrc[(2U * i0) + 1U];
 654:./Libraries/CMSIS/DSP/Source/TransformFunctions/arm_cfft_radix4_f32.c **** 
 655:./Libraries/CMSIS/DSP/Source/TransformFunctions/arm_cfft_radix4_f32.c ****       xcIn = pSrc[(2U * i2)];
 656:./Libraries/CMSIS/DSP/Source/TransformFunctions/arm_cfft_radix4_f32.c ****       ycIn = pSrc[(2U * i2) + 1U];
 657:./Libraries/CMSIS/DSP/Source/TransformFunctions/arm_cfft_radix4_f32.c **** 
 658:./Libraries/CMSIS/DSP/Source/TransformFunctions/arm_cfft_radix4_f32.c ****       xbIn = pSrc[(2U * i1)];
 659:./Libraries/CMSIS/DSP/Source/TransformFunctions/arm_cfft_radix4_f32.c ****       ybIn = pSrc[(2U * i1) + 1U];
 660:./Libraries/CMSIS/DSP/Source/TransformFunctions/arm_cfft_radix4_f32.c **** 
 661:./Libraries/CMSIS/DSP/Source/TransformFunctions/arm_cfft_radix4_f32.c ****       xdIn = pSrc[(2U * i3)];
 662:./Libraries/CMSIS/DSP/Source/TransformFunctions/arm_cfft_radix4_f32.c ****       ydIn = pSrc[(2U * i3) + 1U];
 663:./Libraries/CMSIS/DSP/Source/TransformFunctions/arm_cfft_radix4_f32.c **** 
 664:./Libraries/CMSIS/DSP/Source/TransformFunctions/arm_cfft_radix4_f32.c ****       /* xa + xc */
 665:./Libraries/CMSIS/DSP/Source/TransformFunctions/arm_cfft_radix4_f32.c ****       Xaplusc = xaIn + xcIn;
 666:./Libraries/CMSIS/DSP/Source/TransformFunctions/arm_cfft_radix4_f32.c ****       /* xb + xd */
 667:./Libraries/CMSIS/DSP/Source/TransformFunctions/arm_cfft_radix4_f32.c ****       Xbplusd = xbIn + xdIn;
 668:./Libraries/CMSIS/DSP/Source/TransformFunctions/arm_cfft_radix4_f32.c ****       /* ya + yc */
 669:./Libraries/CMSIS/DSP/Source/TransformFunctions/arm_cfft_radix4_f32.c ****       Yaplusc = yaIn + ycIn;
 670:./Libraries/CMSIS/DSP/Source/TransformFunctions/arm_cfft_radix4_f32.c ****       /* yb + yd */
 671:./Libraries/CMSIS/DSP/Source/TransformFunctions/arm_cfft_radix4_f32.c ****       Ybplusd = ybIn + ydIn;
 672:./Libraries/CMSIS/DSP/Source/TransformFunctions/arm_cfft_radix4_f32.c **** 
 673:./Libraries/CMSIS/DSP/Source/TransformFunctions/arm_cfft_radix4_f32.c ****       /*  index calculation for the coefficients */
 674:./Libraries/CMSIS/DSP/Source/TransformFunctions/arm_cfft_radix4_f32.c ****       ia2 = ia1 + ia1;
 675:./Libraries/CMSIS/DSP/Source/TransformFunctions/arm_cfft_radix4_f32.c ****       co2 = pCoef[ia2 * 2U];
 676:./Libraries/CMSIS/DSP/Source/TransformFunctions/arm_cfft_radix4_f32.c ****       si2 = pCoef[(ia2 * 2U) + 1U];
 677:./Libraries/CMSIS/DSP/Source/TransformFunctions/arm_cfft_radix4_f32.c **** 
 678:./Libraries/CMSIS/DSP/Source/TransformFunctions/arm_cfft_radix4_f32.c ****       /* xa - xc */
 679:./Libraries/CMSIS/DSP/Source/TransformFunctions/arm_cfft_radix4_f32.c ****       Xaminusc = xaIn - xcIn;
 680:./Libraries/CMSIS/DSP/Source/TransformFunctions/arm_cfft_radix4_f32.c ****       /* xb - xd */
 681:./Libraries/CMSIS/DSP/Source/TransformFunctions/arm_cfft_radix4_f32.c ****       Xbminusd = xbIn - xdIn;
 682:./Libraries/CMSIS/DSP/Source/TransformFunctions/arm_cfft_radix4_f32.c ****       /* ya - yc */
 683:./Libraries/CMSIS/DSP/Source/TransformFunctions/arm_cfft_radix4_f32.c ****       Yaminusc = yaIn - ycIn;
 684:./Libraries/CMSIS/DSP/Source/TransformFunctions/arm_cfft_radix4_f32.c ****       /* yb - yd */
 685:./Libraries/CMSIS/DSP/Source/TransformFunctions/arm_cfft_radix4_f32.c ****       Ybminusd = ybIn - ydIn;
 686:./Libraries/CMSIS/DSP/Source/TransformFunctions/arm_cfft_radix4_f32.c **** 
 687:./Libraries/CMSIS/DSP/Source/TransformFunctions/arm_cfft_radix4_f32.c ****       /* xa' = xa + xb + xc + xd */
 688:./Libraries/CMSIS/DSP/Source/TransformFunctions/arm_cfft_radix4_f32.c ****       pSrc[(2U * i0)] = Xaplusc + Xbplusd;
 689:./Libraries/CMSIS/DSP/Source/TransformFunctions/arm_cfft_radix4_f32.c **** 
 690:./Libraries/CMSIS/DSP/Source/TransformFunctions/arm_cfft_radix4_f32.c ****       /* ya' = ya + yb + yc + yd */
 691:./Libraries/CMSIS/DSP/Source/TransformFunctions/arm_cfft_radix4_f32.c ****       pSrc[(2U * i0) + 1U] = Yaplusc + Ybplusd;
 692:./Libraries/CMSIS/DSP/Source/TransformFunctions/arm_cfft_radix4_f32.c **** 
 693:./Libraries/CMSIS/DSP/Source/TransformFunctions/arm_cfft_radix4_f32.c ****       /* (xa - xc) - (yb - yd) */
 694:./Libraries/CMSIS/DSP/Source/TransformFunctions/arm_cfft_radix4_f32.c ****       Xb12C_out = (Xaminusc - Ybminusd);
 695:./Libraries/CMSIS/DSP/Source/TransformFunctions/arm_cfft_radix4_f32.c ****       /* (ya - yc) + (xb - xd) */
ARM GAS  /tmp/ccr95kGy.s 			page 24


 696:./Libraries/CMSIS/DSP/Source/TransformFunctions/arm_cfft_radix4_f32.c ****       Yb12C_out = (Yaminusc + Xbminusd);
 697:./Libraries/CMSIS/DSP/Source/TransformFunctions/arm_cfft_radix4_f32.c ****       /* (xa + xc) - (xb + xd) */
 698:./Libraries/CMSIS/DSP/Source/TransformFunctions/arm_cfft_radix4_f32.c ****       Xc12C_out = (Xaplusc - Xbplusd);
 699:./Libraries/CMSIS/DSP/Source/TransformFunctions/arm_cfft_radix4_f32.c ****       /* (ya + yc) - (yb + yd) */
 700:./Libraries/CMSIS/DSP/Source/TransformFunctions/arm_cfft_radix4_f32.c ****       Yc12C_out = (Yaplusc - Ybplusd);
 701:./Libraries/CMSIS/DSP/Source/TransformFunctions/arm_cfft_radix4_f32.c ****       /* (xa - xc) + (yb - yd) */
 702:./Libraries/CMSIS/DSP/Source/TransformFunctions/arm_cfft_radix4_f32.c ****       Xd12C_out = (Xaminusc + Ybminusd);
 703:./Libraries/CMSIS/DSP/Source/TransformFunctions/arm_cfft_radix4_f32.c ****       /* (ya - yc) - (xb - xd) */
 704:./Libraries/CMSIS/DSP/Source/TransformFunctions/arm_cfft_radix4_f32.c ****       Yd12C_out = (Yaminusc - Xbminusd);
 705:./Libraries/CMSIS/DSP/Source/TransformFunctions/arm_cfft_radix4_f32.c **** 
 706:./Libraries/CMSIS/DSP/Source/TransformFunctions/arm_cfft_radix4_f32.c ****       co1 = pCoef[ia1 * 2U];
 707:./Libraries/CMSIS/DSP/Source/TransformFunctions/arm_cfft_radix4_f32.c ****       si1 = pCoef[(ia1 * 2U) + 1U];
 708:./Libraries/CMSIS/DSP/Source/TransformFunctions/arm_cfft_radix4_f32.c **** 
 709:./Libraries/CMSIS/DSP/Source/TransformFunctions/arm_cfft_radix4_f32.c ****       /*  index calculation for the coefficients */
 710:./Libraries/CMSIS/DSP/Source/TransformFunctions/arm_cfft_radix4_f32.c ****       ia3 = ia2 + ia1;
 711:./Libraries/CMSIS/DSP/Source/TransformFunctions/arm_cfft_radix4_f32.c ****       co3 = pCoef[ia3 * 2U];
 712:./Libraries/CMSIS/DSP/Source/TransformFunctions/arm_cfft_radix4_f32.c ****       si3 = pCoef[(ia3 * 2U) + 1U];
 713:./Libraries/CMSIS/DSP/Source/TransformFunctions/arm_cfft_radix4_f32.c **** 
 714:./Libraries/CMSIS/DSP/Source/TransformFunctions/arm_cfft_radix4_f32.c ****       Xb12_out = Xb12C_out * co1;
 715:./Libraries/CMSIS/DSP/Source/TransformFunctions/arm_cfft_radix4_f32.c ****       Yb12_out = Yb12C_out * co1;
 716:./Libraries/CMSIS/DSP/Source/TransformFunctions/arm_cfft_radix4_f32.c ****       Xc12_out = Xc12C_out * co2;
 717:./Libraries/CMSIS/DSP/Source/TransformFunctions/arm_cfft_radix4_f32.c ****       Yc12_out = Yc12C_out * co2;
 718:./Libraries/CMSIS/DSP/Source/TransformFunctions/arm_cfft_radix4_f32.c ****       Xd12_out = Xd12C_out * co3;
 719:./Libraries/CMSIS/DSP/Source/TransformFunctions/arm_cfft_radix4_f32.c ****       Yd12_out = Yd12C_out * co3;
 720:./Libraries/CMSIS/DSP/Source/TransformFunctions/arm_cfft_radix4_f32.c **** 
 721:./Libraries/CMSIS/DSP/Source/TransformFunctions/arm_cfft_radix4_f32.c ****       /* xb' = (xa+yb-xc-yd)co1 - (ya-xb-yc+xd)(si1) */
 722:./Libraries/CMSIS/DSP/Source/TransformFunctions/arm_cfft_radix4_f32.c ****       //Xb12_out -= Yb12C_out * si1;
 723:./Libraries/CMSIS/DSP/Source/TransformFunctions/arm_cfft_radix4_f32.c ****       p0 = Yb12C_out * si1;
 724:./Libraries/CMSIS/DSP/Source/TransformFunctions/arm_cfft_radix4_f32.c ****       /* yb' = (ya-xb-yc+xd)co1 + (xa+yb-xc-yd)(si1) */
 725:./Libraries/CMSIS/DSP/Source/TransformFunctions/arm_cfft_radix4_f32.c ****       //Yb12_out += Xb12C_out * si1;
 726:./Libraries/CMSIS/DSP/Source/TransformFunctions/arm_cfft_radix4_f32.c ****       p1 = Xb12C_out * si1;
 727:./Libraries/CMSIS/DSP/Source/TransformFunctions/arm_cfft_radix4_f32.c ****       /* xc' = (xa-xb+xc-xd)co2 - (ya-yb+yc-yd)(si2) */
 728:./Libraries/CMSIS/DSP/Source/TransformFunctions/arm_cfft_radix4_f32.c ****       //Xc12_out -= Yc12C_out * si2;
 729:./Libraries/CMSIS/DSP/Source/TransformFunctions/arm_cfft_radix4_f32.c ****       p2 = Yc12C_out * si2;
 730:./Libraries/CMSIS/DSP/Source/TransformFunctions/arm_cfft_radix4_f32.c ****       /* yc' = (ya-yb+yc-yd)co2 + (xa-xb+xc-xd)(si2) */
 731:./Libraries/CMSIS/DSP/Source/TransformFunctions/arm_cfft_radix4_f32.c ****       //Yc12_out += Xc12C_out * si2;
 732:./Libraries/CMSIS/DSP/Source/TransformFunctions/arm_cfft_radix4_f32.c ****       p3 = Xc12C_out * si2;
 733:./Libraries/CMSIS/DSP/Source/TransformFunctions/arm_cfft_radix4_f32.c ****       /* xd' = (xa-yb-xc+yd)co3 - (ya+xb-yc-xd)(si3) */
 734:./Libraries/CMSIS/DSP/Source/TransformFunctions/arm_cfft_radix4_f32.c ****       //Xd12_out -= Yd12C_out * si3;
 735:./Libraries/CMSIS/DSP/Source/TransformFunctions/arm_cfft_radix4_f32.c ****       p4 = Yd12C_out * si3;
 736:./Libraries/CMSIS/DSP/Source/TransformFunctions/arm_cfft_radix4_f32.c ****       /* yd' = (ya+xb-yc-xd)co3 + (xa-yb-xc+yd)(si3) */
 737:./Libraries/CMSIS/DSP/Source/TransformFunctions/arm_cfft_radix4_f32.c ****       //Yd12_out += Xd12C_out * si3;
 738:./Libraries/CMSIS/DSP/Source/TransformFunctions/arm_cfft_radix4_f32.c ****       p5 = Xd12C_out * si3;
 739:./Libraries/CMSIS/DSP/Source/TransformFunctions/arm_cfft_radix4_f32.c **** 
 740:./Libraries/CMSIS/DSP/Source/TransformFunctions/arm_cfft_radix4_f32.c ****       Xb12_out -= p0;
 741:./Libraries/CMSIS/DSP/Source/TransformFunctions/arm_cfft_radix4_f32.c ****       Yb12_out += p1;
 742:./Libraries/CMSIS/DSP/Source/TransformFunctions/arm_cfft_radix4_f32.c ****       Xc12_out -= p2;
 743:./Libraries/CMSIS/DSP/Source/TransformFunctions/arm_cfft_radix4_f32.c ****       Yc12_out += p3;
 744:./Libraries/CMSIS/DSP/Source/TransformFunctions/arm_cfft_radix4_f32.c ****       Xd12_out -= p4;
 745:./Libraries/CMSIS/DSP/Source/TransformFunctions/arm_cfft_radix4_f32.c ****       Yd12_out += p5;
 746:./Libraries/CMSIS/DSP/Source/TransformFunctions/arm_cfft_radix4_f32.c **** 
 747:./Libraries/CMSIS/DSP/Source/TransformFunctions/arm_cfft_radix4_f32.c ****       /* xc' = (xa-xb+xc-xd)co2 - (ya-yb+yc-yd)(si2) */
 748:./Libraries/CMSIS/DSP/Source/TransformFunctions/arm_cfft_radix4_f32.c ****       pSrc[2U * i1] = Xc12_out;
 749:./Libraries/CMSIS/DSP/Source/TransformFunctions/arm_cfft_radix4_f32.c **** 
 750:./Libraries/CMSIS/DSP/Source/TransformFunctions/arm_cfft_radix4_f32.c ****       /* yc' = (ya-yb+yc-yd)co2 + (xa-xb+xc-xd)(si2) */
 751:./Libraries/CMSIS/DSP/Source/TransformFunctions/arm_cfft_radix4_f32.c ****       pSrc[(2U * i1) + 1U] = Yc12_out;
 752:./Libraries/CMSIS/DSP/Source/TransformFunctions/arm_cfft_radix4_f32.c **** 
ARM GAS  /tmp/ccr95kGy.s 			page 25


 753:./Libraries/CMSIS/DSP/Source/TransformFunctions/arm_cfft_radix4_f32.c ****       /* xb' = (xa+yb-xc-yd)co1 - (ya-xb-yc+xd)(si1) */
 754:./Libraries/CMSIS/DSP/Source/TransformFunctions/arm_cfft_radix4_f32.c ****       pSrc[2U * i2] = Xb12_out;
 755:./Libraries/CMSIS/DSP/Source/TransformFunctions/arm_cfft_radix4_f32.c **** 
 756:./Libraries/CMSIS/DSP/Source/TransformFunctions/arm_cfft_radix4_f32.c ****       /* yb' = (ya-xb-yc+xd)co1 + (xa+yb-xc-yd)(si1) */
 757:./Libraries/CMSIS/DSP/Source/TransformFunctions/arm_cfft_radix4_f32.c ****       pSrc[(2U * i2) + 1U] = Yb12_out;
 758:./Libraries/CMSIS/DSP/Source/TransformFunctions/arm_cfft_radix4_f32.c **** 
 759:./Libraries/CMSIS/DSP/Source/TransformFunctions/arm_cfft_radix4_f32.c ****       /* xd' = (xa-yb-xc+yd)co3 - (ya+xb-yc-xd)(si3) */
 760:./Libraries/CMSIS/DSP/Source/TransformFunctions/arm_cfft_radix4_f32.c ****       pSrc[2U * i3] = Xd12_out;
 761:./Libraries/CMSIS/DSP/Source/TransformFunctions/arm_cfft_radix4_f32.c **** 
 762:./Libraries/CMSIS/DSP/Source/TransformFunctions/arm_cfft_radix4_f32.c ****       /* yd' = (ya+xb-yc-xd)co3 + (xa-yb-xc+yd)(si3) */
 763:./Libraries/CMSIS/DSP/Source/TransformFunctions/arm_cfft_radix4_f32.c ****       pSrc[(2U * i3) + 1U] = Yd12_out;
 764:./Libraries/CMSIS/DSP/Source/TransformFunctions/arm_cfft_radix4_f32.c **** 
 765:./Libraries/CMSIS/DSP/Source/TransformFunctions/arm_cfft_radix4_f32.c ****       /*  Twiddle coefficients index modifier */
 766:./Libraries/CMSIS/DSP/Source/TransformFunctions/arm_cfft_radix4_f32.c ****       ia1 = ia1 + twidCoefModifier;
 767:./Libraries/CMSIS/DSP/Source/TransformFunctions/arm_cfft_radix4_f32.c **** 
 768:./Libraries/CMSIS/DSP/Source/TransformFunctions/arm_cfft_radix4_f32.c ****       /*  Updating input index */
 769:./Libraries/CMSIS/DSP/Source/TransformFunctions/arm_cfft_radix4_f32.c ****       i0 = i0 + 1U;
 770:./Libraries/CMSIS/DSP/Source/TransformFunctions/arm_cfft_radix4_f32.c **** 
 771:./Libraries/CMSIS/DSP/Source/TransformFunctions/arm_cfft_radix4_f32.c ****    } while (--j);
 772:./Libraries/CMSIS/DSP/Source/TransformFunctions/arm_cfft_radix4_f32.c **** 
 773:./Libraries/CMSIS/DSP/Source/TransformFunctions/arm_cfft_radix4_f32.c ****    twidCoefModifier <<= 2U;
 774:./Libraries/CMSIS/DSP/Source/TransformFunctions/arm_cfft_radix4_f32.c **** 
 775:./Libraries/CMSIS/DSP/Source/TransformFunctions/arm_cfft_radix4_f32.c ****    /*  Calculation of second stage to excluding last stage */
 776:./Libraries/CMSIS/DSP/Source/TransformFunctions/arm_cfft_radix4_f32.c ****    for (k = fftLen >> 2U; k > 4U; k >>= 2U)
 777:./Libraries/CMSIS/DSP/Source/TransformFunctions/arm_cfft_radix4_f32.c ****    {
 778:./Libraries/CMSIS/DSP/Source/TransformFunctions/arm_cfft_radix4_f32.c ****       /*  Initializations for the first stage */
 779:./Libraries/CMSIS/DSP/Source/TransformFunctions/arm_cfft_radix4_f32.c ****       n1 = n2;
 780:./Libraries/CMSIS/DSP/Source/TransformFunctions/arm_cfft_radix4_f32.c ****       n2 >>= 2U;
 781:./Libraries/CMSIS/DSP/Source/TransformFunctions/arm_cfft_radix4_f32.c ****       ia1 = 0U;
 782:./Libraries/CMSIS/DSP/Source/TransformFunctions/arm_cfft_radix4_f32.c **** 
 783:./Libraries/CMSIS/DSP/Source/TransformFunctions/arm_cfft_radix4_f32.c ****       /*  Calculation of first stage */
 784:./Libraries/CMSIS/DSP/Source/TransformFunctions/arm_cfft_radix4_f32.c ****       j = 0;
 785:./Libraries/CMSIS/DSP/Source/TransformFunctions/arm_cfft_radix4_f32.c ****       do
 786:./Libraries/CMSIS/DSP/Source/TransformFunctions/arm_cfft_radix4_f32.c ****       {
 787:./Libraries/CMSIS/DSP/Source/TransformFunctions/arm_cfft_radix4_f32.c ****          /*  index calculation for the coefficients */
 788:./Libraries/CMSIS/DSP/Source/TransformFunctions/arm_cfft_radix4_f32.c ****          ia2 = ia1 + ia1;
 789:./Libraries/CMSIS/DSP/Source/TransformFunctions/arm_cfft_radix4_f32.c ****          ia3 = ia2 + ia1;
 790:./Libraries/CMSIS/DSP/Source/TransformFunctions/arm_cfft_radix4_f32.c ****          co1 = pCoef[ia1 * 2U];
 791:./Libraries/CMSIS/DSP/Source/TransformFunctions/arm_cfft_radix4_f32.c ****          si1 = pCoef[(ia1 * 2U) + 1U];
 792:./Libraries/CMSIS/DSP/Source/TransformFunctions/arm_cfft_radix4_f32.c ****          co2 = pCoef[ia2 * 2U];
 793:./Libraries/CMSIS/DSP/Source/TransformFunctions/arm_cfft_radix4_f32.c ****          si2 = pCoef[(ia2 * 2U) + 1U];
 794:./Libraries/CMSIS/DSP/Source/TransformFunctions/arm_cfft_radix4_f32.c ****          co3 = pCoef[ia3 * 2U];
 795:./Libraries/CMSIS/DSP/Source/TransformFunctions/arm_cfft_radix4_f32.c ****          si3 = pCoef[(ia3 * 2U) + 1U];
 796:./Libraries/CMSIS/DSP/Source/TransformFunctions/arm_cfft_radix4_f32.c **** 
 797:./Libraries/CMSIS/DSP/Source/TransformFunctions/arm_cfft_radix4_f32.c ****          /*  Twiddle coefficients index modifier */
 798:./Libraries/CMSIS/DSP/Source/TransformFunctions/arm_cfft_radix4_f32.c ****          ia1 = ia1 + twidCoefModifier;
 799:./Libraries/CMSIS/DSP/Source/TransformFunctions/arm_cfft_radix4_f32.c **** 
 800:./Libraries/CMSIS/DSP/Source/TransformFunctions/arm_cfft_radix4_f32.c ****          i0 = j;
 801:./Libraries/CMSIS/DSP/Source/TransformFunctions/arm_cfft_radix4_f32.c ****          do
 802:./Libraries/CMSIS/DSP/Source/TransformFunctions/arm_cfft_radix4_f32.c ****          {
 803:./Libraries/CMSIS/DSP/Source/TransformFunctions/arm_cfft_radix4_f32.c ****             /*  index calculation for the input as, */
 804:./Libraries/CMSIS/DSP/Source/TransformFunctions/arm_cfft_radix4_f32.c ****             /*  pSrc[i0 + 0], pSrc[i0 + fftLen/4], pSrc[i0 + fftLen/2], pSrc[i0 + 3fftLen/4] */
 805:./Libraries/CMSIS/DSP/Source/TransformFunctions/arm_cfft_radix4_f32.c ****             i1 = i0 + n2;
 806:./Libraries/CMSIS/DSP/Source/TransformFunctions/arm_cfft_radix4_f32.c ****             i2 = i1 + n2;
 807:./Libraries/CMSIS/DSP/Source/TransformFunctions/arm_cfft_radix4_f32.c ****             i3 = i2 + n2;
 808:./Libraries/CMSIS/DSP/Source/TransformFunctions/arm_cfft_radix4_f32.c **** 
 809:./Libraries/CMSIS/DSP/Source/TransformFunctions/arm_cfft_radix4_f32.c ****             xaIn = pSrc[(2U * i0)];
ARM GAS  /tmp/ccr95kGy.s 			page 26


 810:./Libraries/CMSIS/DSP/Source/TransformFunctions/arm_cfft_radix4_f32.c ****             yaIn = pSrc[(2U * i0) + 1U];
 811:./Libraries/CMSIS/DSP/Source/TransformFunctions/arm_cfft_radix4_f32.c **** 
 812:./Libraries/CMSIS/DSP/Source/TransformFunctions/arm_cfft_radix4_f32.c ****             xbIn = pSrc[(2U * i1)];
 813:./Libraries/CMSIS/DSP/Source/TransformFunctions/arm_cfft_radix4_f32.c ****             ybIn = pSrc[(2U * i1) + 1U];
 814:./Libraries/CMSIS/DSP/Source/TransformFunctions/arm_cfft_radix4_f32.c **** 
 815:./Libraries/CMSIS/DSP/Source/TransformFunctions/arm_cfft_radix4_f32.c ****             xcIn = pSrc[(2U * i2)];
 816:./Libraries/CMSIS/DSP/Source/TransformFunctions/arm_cfft_radix4_f32.c ****             ycIn = pSrc[(2U * i2) + 1U];
 817:./Libraries/CMSIS/DSP/Source/TransformFunctions/arm_cfft_radix4_f32.c **** 
 818:./Libraries/CMSIS/DSP/Source/TransformFunctions/arm_cfft_radix4_f32.c ****             xdIn = pSrc[(2U * i3)];
 819:./Libraries/CMSIS/DSP/Source/TransformFunctions/arm_cfft_radix4_f32.c ****             ydIn = pSrc[(2U * i3) + 1U];
 820:./Libraries/CMSIS/DSP/Source/TransformFunctions/arm_cfft_radix4_f32.c **** 
 821:./Libraries/CMSIS/DSP/Source/TransformFunctions/arm_cfft_radix4_f32.c ****             /* xa - xc */
 822:./Libraries/CMSIS/DSP/Source/TransformFunctions/arm_cfft_radix4_f32.c ****             Xaminusc = xaIn - xcIn;
 823:./Libraries/CMSIS/DSP/Source/TransformFunctions/arm_cfft_radix4_f32.c ****             /* (xb - xd) */
 824:./Libraries/CMSIS/DSP/Source/TransformFunctions/arm_cfft_radix4_f32.c ****             Xbminusd = xbIn - xdIn;
 825:./Libraries/CMSIS/DSP/Source/TransformFunctions/arm_cfft_radix4_f32.c ****             /* ya - yc */
 826:./Libraries/CMSIS/DSP/Source/TransformFunctions/arm_cfft_radix4_f32.c ****             Yaminusc = yaIn - ycIn;
 827:./Libraries/CMSIS/DSP/Source/TransformFunctions/arm_cfft_radix4_f32.c ****             /* (yb - yd) */
 828:./Libraries/CMSIS/DSP/Source/TransformFunctions/arm_cfft_radix4_f32.c ****             Ybminusd = ybIn - ydIn;
 829:./Libraries/CMSIS/DSP/Source/TransformFunctions/arm_cfft_radix4_f32.c **** 
 830:./Libraries/CMSIS/DSP/Source/TransformFunctions/arm_cfft_radix4_f32.c ****             /* xa + xc */
 831:./Libraries/CMSIS/DSP/Source/TransformFunctions/arm_cfft_radix4_f32.c ****             Xaplusc = xaIn + xcIn;
 832:./Libraries/CMSIS/DSP/Source/TransformFunctions/arm_cfft_radix4_f32.c ****             /* xb + xd */
 833:./Libraries/CMSIS/DSP/Source/TransformFunctions/arm_cfft_radix4_f32.c ****             Xbplusd = xbIn + xdIn;
 834:./Libraries/CMSIS/DSP/Source/TransformFunctions/arm_cfft_radix4_f32.c ****             /* ya + yc */
 835:./Libraries/CMSIS/DSP/Source/TransformFunctions/arm_cfft_radix4_f32.c ****             Yaplusc = yaIn + ycIn;
 836:./Libraries/CMSIS/DSP/Source/TransformFunctions/arm_cfft_radix4_f32.c ****             /* yb + yd */
 837:./Libraries/CMSIS/DSP/Source/TransformFunctions/arm_cfft_radix4_f32.c ****             Ybplusd = ybIn + ydIn;
 838:./Libraries/CMSIS/DSP/Source/TransformFunctions/arm_cfft_radix4_f32.c **** 
 839:./Libraries/CMSIS/DSP/Source/TransformFunctions/arm_cfft_radix4_f32.c ****             /* (xa - xc) - (yb - yd) */
 840:./Libraries/CMSIS/DSP/Source/TransformFunctions/arm_cfft_radix4_f32.c ****             Xb12C_out = (Xaminusc - Ybminusd);
 841:./Libraries/CMSIS/DSP/Source/TransformFunctions/arm_cfft_radix4_f32.c ****             /* (ya - yc) +  (xb - xd) */
 842:./Libraries/CMSIS/DSP/Source/TransformFunctions/arm_cfft_radix4_f32.c ****             Yb12C_out = (Yaminusc + Xbminusd);
 843:./Libraries/CMSIS/DSP/Source/TransformFunctions/arm_cfft_radix4_f32.c ****             /* xa + xc -(xb + xd) */
 844:./Libraries/CMSIS/DSP/Source/TransformFunctions/arm_cfft_radix4_f32.c ****             Xc12C_out = (Xaplusc - Xbplusd);
 845:./Libraries/CMSIS/DSP/Source/TransformFunctions/arm_cfft_radix4_f32.c ****             /* (ya + yc) - (yb + yd) */
 846:./Libraries/CMSIS/DSP/Source/TransformFunctions/arm_cfft_radix4_f32.c ****             Yc12C_out = (Yaplusc - Ybplusd);
 847:./Libraries/CMSIS/DSP/Source/TransformFunctions/arm_cfft_radix4_f32.c ****             /* (xa - xc) + (yb - yd) */
 848:./Libraries/CMSIS/DSP/Source/TransformFunctions/arm_cfft_radix4_f32.c ****             Xd12C_out = (Xaminusc + Ybminusd);
 849:./Libraries/CMSIS/DSP/Source/TransformFunctions/arm_cfft_radix4_f32.c ****             /* (ya - yc) -  (xb - xd) */
 850:./Libraries/CMSIS/DSP/Source/TransformFunctions/arm_cfft_radix4_f32.c ****             Yd12C_out = (Yaminusc - Xbminusd);
 851:./Libraries/CMSIS/DSP/Source/TransformFunctions/arm_cfft_radix4_f32.c **** 
 852:./Libraries/CMSIS/DSP/Source/TransformFunctions/arm_cfft_radix4_f32.c ****             pSrc[(2U * i0)] = Xaplusc + Xbplusd;
 853:./Libraries/CMSIS/DSP/Source/TransformFunctions/arm_cfft_radix4_f32.c ****             pSrc[(2U * i0) + 1U] = Yaplusc + Ybplusd;
 854:./Libraries/CMSIS/DSP/Source/TransformFunctions/arm_cfft_radix4_f32.c **** 
 855:./Libraries/CMSIS/DSP/Source/TransformFunctions/arm_cfft_radix4_f32.c ****             Xb12_out = Xb12C_out * co1;
 856:./Libraries/CMSIS/DSP/Source/TransformFunctions/arm_cfft_radix4_f32.c ****             Yb12_out = Yb12C_out * co1;
 857:./Libraries/CMSIS/DSP/Source/TransformFunctions/arm_cfft_radix4_f32.c ****             Xc12_out = Xc12C_out * co2;
 858:./Libraries/CMSIS/DSP/Source/TransformFunctions/arm_cfft_radix4_f32.c ****             Yc12_out = Yc12C_out * co2;
 859:./Libraries/CMSIS/DSP/Source/TransformFunctions/arm_cfft_radix4_f32.c ****             Xd12_out = Xd12C_out * co3;
 860:./Libraries/CMSIS/DSP/Source/TransformFunctions/arm_cfft_radix4_f32.c ****             Yd12_out = Yd12C_out * co3;
 861:./Libraries/CMSIS/DSP/Source/TransformFunctions/arm_cfft_radix4_f32.c **** 
 862:./Libraries/CMSIS/DSP/Source/TransformFunctions/arm_cfft_radix4_f32.c ****             /* xb' = (xa+yb-xc-yd)co1 - (ya-xb-yc+xd)(si1) */
 863:./Libraries/CMSIS/DSP/Source/TransformFunctions/arm_cfft_radix4_f32.c ****             //Xb12_out -= Yb12C_out * si1;
 864:./Libraries/CMSIS/DSP/Source/TransformFunctions/arm_cfft_radix4_f32.c ****             p0 = Yb12C_out * si1;
 865:./Libraries/CMSIS/DSP/Source/TransformFunctions/arm_cfft_radix4_f32.c ****             /* yb' = (ya-xb-yc+xd)co1 + (xa+yb-xc-yd)(si1) */
 866:./Libraries/CMSIS/DSP/Source/TransformFunctions/arm_cfft_radix4_f32.c ****             //Yb12_out += Xb12C_out * si1;
ARM GAS  /tmp/ccr95kGy.s 			page 27


 867:./Libraries/CMSIS/DSP/Source/TransformFunctions/arm_cfft_radix4_f32.c ****             p1 = Xb12C_out * si1;
 868:./Libraries/CMSIS/DSP/Source/TransformFunctions/arm_cfft_radix4_f32.c ****             /* xc' = (xa-xb+xc-xd)co2 - (ya-yb+yc-yd)(si2) */
 869:./Libraries/CMSIS/DSP/Source/TransformFunctions/arm_cfft_radix4_f32.c ****             //Xc12_out -= Yc12C_out * si2;
 870:./Libraries/CMSIS/DSP/Source/TransformFunctions/arm_cfft_radix4_f32.c ****             p2 = Yc12C_out * si2;
 871:./Libraries/CMSIS/DSP/Source/TransformFunctions/arm_cfft_radix4_f32.c ****             /* yc' = (ya-yb+yc-yd)co2 + (xa-xb+xc-xd)(si2) */
 872:./Libraries/CMSIS/DSP/Source/TransformFunctions/arm_cfft_radix4_f32.c ****             //Yc12_out += Xc12C_out * si2;
 873:./Libraries/CMSIS/DSP/Source/TransformFunctions/arm_cfft_radix4_f32.c ****             p3 = Xc12C_out * si2;
 874:./Libraries/CMSIS/DSP/Source/TransformFunctions/arm_cfft_radix4_f32.c ****             /* xd' = (xa-yb-xc+yd)co3 - (ya+xb-yc-xd)(si3) */
 875:./Libraries/CMSIS/DSP/Source/TransformFunctions/arm_cfft_radix4_f32.c ****             //Xd12_out -= Yd12C_out * si3;
 876:./Libraries/CMSIS/DSP/Source/TransformFunctions/arm_cfft_radix4_f32.c ****             p4 = Yd12C_out * si3;
 877:./Libraries/CMSIS/DSP/Source/TransformFunctions/arm_cfft_radix4_f32.c ****             /* yd' = (ya+xb-yc-xd)co3 + (xa-yb-xc+yd)(si3) */
 878:./Libraries/CMSIS/DSP/Source/TransformFunctions/arm_cfft_radix4_f32.c ****             //Yd12_out += Xd12C_out * si3;
 879:./Libraries/CMSIS/DSP/Source/TransformFunctions/arm_cfft_radix4_f32.c ****             p5 = Xd12C_out * si3;
 880:./Libraries/CMSIS/DSP/Source/TransformFunctions/arm_cfft_radix4_f32.c **** 
 881:./Libraries/CMSIS/DSP/Source/TransformFunctions/arm_cfft_radix4_f32.c ****             Xb12_out -= p0;
 882:./Libraries/CMSIS/DSP/Source/TransformFunctions/arm_cfft_radix4_f32.c ****             Yb12_out += p1;
 883:./Libraries/CMSIS/DSP/Source/TransformFunctions/arm_cfft_radix4_f32.c ****             Xc12_out -= p2;
 884:./Libraries/CMSIS/DSP/Source/TransformFunctions/arm_cfft_radix4_f32.c ****             Yc12_out += p3;
 885:./Libraries/CMSIS/DSP/Source/TransformFunctions/arm_cfft_radix4_f32.c ****             Xd12_out -= p4;
 886:./Libraries/CMSIS/DSP/Source/TransformFunctions/arm_cfft_radix4_f32.c ****             Yd12_out += p5;
 887:./Libraries/CMSIS/DSP/Source/TransformFunctions/arm_cfft_radix4_f32.c **** 
 888:./Libraries/CMSIS/DSP/Source/TransformFunctions/arm_cfft_radix4_f32.c ****             /* xc' = (xa-xb+xc-xd)co2 - (ya-yb+yc-yd)(si2) */
 889:./Libraries/CMSIS/DSP/Source/TransformFunctions/arm_cfft_radix4_f32.c ****             pSrc[2U * i1] = Xc12_out;
 890:./Libraries/CMSIS/DSP/Source/TransformFunctions/arm_cfft_radix4_f32.c **** 
 891:./Libraries/CMSIS/DSP/Source/TransformFunctions/arm_cfft_radix4_f32.c ****             /* yc' = (ya-yb+yc-yd)co2 + (xa-xb+xc-xd)(si2) */
 892:./Libraries/CMSIS/DSP/Source/TransformFunctions/arm_cfft_radix4_f32.c ****             pSrc[(2U * i1) + 1U] = Yc12_out;
 893:./Libraries/CMSIS/DSP/Source/TransformFunctions/arm_cfft_radix4_f32.c **** 
 894:./Libraries/CMSIS/DSP/Source/TransformFunctions/arm_cfft_radix4_f32.c ****             /* xb' = (xa+yb-xc-yd)co1 - (ya-xb-yc+xd)(si1) */
 895:./Libraries/CMSIS/DSP/Source/TransformFunctions/arm_cfft_radix4_f32.c ****             pSrc[2U * i2] = Xb12_out;
 896:./Libraries/CMSIS/DSP/Source/TransformFunctions/arm_cfft_radix4_f32.c **** 
 897:./Libraries/CMSIS/DSP/Source/TransformFunctions/arm_cfft_radix4_f32.c ****             /* yb' = (ya-xb-yc+xd)co1 + (xa+yb-xc-yd)(si1) */
 898:./Libraries/CMSIS/DSP/Source/TransformFunctions/arm_cfft_radix4_f32.c ****             pSrc[(2U * i2) + 1U] = Yb12_out;
 899:./Libraries/CMSIS/DSP/Source/TransformFunctions/arm_cfft_radix4_f32.c **** 
 900:./Libraries/CMSIS/DSP/Source/TransformFunctions/arm_cfft_radix4_f32.c ****             /* xd' = (xa-yb-xc+yd)co3 - (ya+xb-yc-xd)(si3) */
 901:./Libraries/CMSIS/DSP/Source/TransformFunctions/arm_cfft_radix4_f32.c ****             pSrc[2U * i3] = Xd12_out;
 902:./Libraries/CMSIS/DSP/Source/TransformFunctions/arm_cfft_radix4_f32.c **** 
 903:./Libraries/CMSIS/DSP/Source/TransformFunctions/arm_cfft_radix4_f32.c ****             /* yd' = (ya+xb-yc-xd)co3 + (xa-yb-xc+yd)(si3) */
 904:./Libraries/CMSIS/DSP/Source/TransformFunctions/arm_cfft_radix4_f32.c ****             pSrc[(2U * i3) + 1U] = Yd12_out;
 905:./Libraries/CMSIS/DSP/Source/TransformFunctions/arm_cfft_radix4_f32.c **** 
 906:./Libraries/CMSIS/DSP/Source/TransformFunctions/arm_cfft_radix4_f32.c ****             i0 += n1;
 907:./Libraries/CMSIS/DSP/Source/TransformFunctions/arm_cfft_radix4_f32.c ****          } while (i0 < fftLen);
 908:./Libraries/CMSIS/DSP/Source/TransformFunctions/arm_cfft_radix4_f32.c ****          j++;
 909:./Libraries/CMSIS/DSP/Source/TransformFunctions/arm_cfft_radix4_f32.c ****       } while (j <= (n2 - 1U));
 910:./Libraries/CMSIS/DSP/Source/TransformFunctions/arm_cfft_radix4_f32.c ****       twidCoefModifier <<= 2U;
 911:./Libraries/CMSIS/DSP/Source/TransformFunctions/arm_cfft_radix4_f32.c ****    }
 912:./Libraries/CMSIS/DSP/Source/TransformFunctions/arm_cfft_radix4_f32.c ****    /*  Initializations of last stage */
 913:./Libraries/CMSIS/DSP/Source/TransformFunctions/arm_cfft_radix4_f32.c **** 
 914:./Libraries/CMSIS/DSP/Source/TransformFunctions/arm_cfft_radix4_f32.c ****    j = fftLen >> 2;
 915:./Libraries/CMSIS/DSP/Source/TransformFunctions/arm_cfft_radix4_f32.c ****    ptr1 = &pSrc[0];
 916:./Libraries/CMSIS/DSP/Source/TransformFunctions/arm_cfft_radix4_f32.c **** 
 917:./Libraries/CMSIS/DSP/Source/TransformFunctions/arm_cfft_radix4_f32.c ****    /*  Calculations of last stage */
 918:./Libraries/CMSIS/DSP/Source/TransformFunctions/arm_cfft_radix4_f32.c ****    do
 919:./Libraries/CMSIS/DSP/Source/TransformFunctions/arm_cfft_radix4_f32.c ****    {
 920:./Libraries/CMSIS/DSP/Source/TransformFunctions/arm_cfft_radix4_f32.c ****       xaIn = ptr1[0];
 921:./Libraries/CMSIS/DSP/Source/TransformFunctions/arm_cfft_radix4_f32.c ****       yaIn = ptr1[1];
 922:./Libraries/CMSIS/DSP/Source/TransformFunctions/arm_cfft_radix4_f32.c ****       xbIn = ptr1[2];
 923:./Libraries/CMSIS/DSP/Source/TransformFunctions/arm_cfft_radix4_f32.c ****       ybIn = ptr1[3];
ARM GAS  /tmp/ccr95kGy.s 			page 28


 924:./Libraries/CMSIS/DSP/Source/TransformFunctions/arm_cfft_radix4_f32.c ****       xcIn = ptr1[4];
 925:./Libraries/CMSIS/DSP/Source/TransformFunctions/arm_cfft_radix4_f32.c ****       ycIn = ptr1[5];
 926:./Libraries/CMSIS/DSP/Source/TransformFunctions/arm_cfft_radix4_f32.c ****       xdIn = ptr1[6];
 927:./Libraries/CMSIS/DSP/Source/TransformFunctions/arm_cfft_radix4_f32.c ****       ydIn = ptr1[7];
 928:./Libraries/CMSIS/DSP/Source/TransformFunctions/arm_cfft_radix4_f32.c **** 
 929:./Libraries/CMSIS/DSP/Source/TransformFunctions/arm_cfft_radix4_f32.c ****       /*  Butterfly implementation */
 930:./Libraries/CMSIS/DSP/Source/TransformFunctions/arm_cfft_radix4_f32.c ****       /* xa + xc */
 931:./Libraries/CMSIS/DSP/Source/TransformFunctions/arm_cfft_radix4_f32.c ****       Xaplusc = xaIn + xcIn;
 932:./Libraries/CMSIS/DSP/Source/TransformFunctions/arm_cfft_radix4_f32.c **** 
 933:./Libraries/CMSIS/DSP/Source/TransformFunctions/arm_cfft_radix4_f32.c ****       /* xa - xc */
 934:./Libraries/CMSIS/DSP/Source/TransformFunctions/arm_cfft_radix4_f32.c ****       Xaminusc = xaIn - xcIn;
 935:./Libraries/CMSIS/DSP/Source/TransformFunctions/arm_cfft_radix4_f32.c **** 
 936:./Libraries/CMSIS/DSP/Source/TransformFunctions/arm_cfft_radix4_f32.c ****       /* ya + yc */
 937:./Libraries/CMSIS/DSP/Source/TransformFunctions/arm_cfft_radix4_f32.c ****       Yaplusc = yaIn + ycIn;
 938:./Libraries/CMSIS/DSP/Source/TransformFunctions/arm_cfft_radix4_f32.c **** 
 939:./Libraries/CMSIS/DSP/Source/TransformFunctions/arm_cfft_radix4_f32.c ****       /* ya - yc */
 940:./Libraries/CMSIS/DSP/Source/TransformFunctions/arm_cfft_radix4_f32.c ****       Yaminusc = yaIn - ycIn;
 941:./Libraries/CMSIS/DSP/Source/TransformFunctions/arm_cfft_radix4_f32.c **** 
 942:./Libraries/CMSIS/DSP/Source/TransformFunctions/arm_cfft_radix4_f32.c ****       /* xb + xd */
 943:./Libraries/CMSIS/DSP/Source/TransformFunctions/arm_cfft_radix4_f32.c ****       Xbplusd = xbIn + xdIn;
 944:./Libraries/CMSIS/DSP/Source/TransformFunctions/arm_cfft_radix4_f32.c **** 
 945:./Libraries/CMSIS/DSP/Source/TransformFunctions/arm_cfft_radix4_f32.c ****       /* yb + yd */
 946:./Libraries/CMSIS/DSP/Source/TransformFunctions/arm_cfft_radix4_f32.c ****       Ybplusd = ybIn + ydIn;
 947:./Libraries/CMSIS/DSP/Source/TransformFunctions/arm_cfft_radix4_f32.c **** 
 948:./Libraries/CMSIS/DSP/Source/TransformFunctions/arm_cfft_radix4_f32.c ****       /* (xb-xd) */
 949:./Libraries/CMSIS/DSP/Source/TransformFunctions/arm_cfft_radix4_f32.c ****       Xbminusd = xbIn - xdIn;
 950:./Libraries/CMSIS/DSP/Source/TransformFunctions/arm_cfft_radix4_f32.c **** 
 951:./Libraries/CMSIS/DSP/Source/TransformFunctions/arm_cfft_radix4_f32.c ****       /* (yb-yd) */
 952:./Libraries/CMSIS/DSP/Source/TransformFunctions/arm_cfft_radix4_f32.c ****       Ybminusd = ybIn - ydIn;
 953:./Libraries/CMSIS/DSP/Source/TransformFunctions/arm_cfft_radix4_f32.c **** 
 954:./Libraries/CMSIS/DSP/Source/TransformFunctions/arm_cfft_radix4_f32.c ****       /* xa' = (xa+xb+xc+xd) * onebyfftLen */
 955:./Libraries/CMSIS/DSP/Source/TransformFunctions/arm_cfft_radix4_f32.c ****       a0 = (Xaplusc + Xbplusd);
 956:./Libraries/CMSIS/DSP/Source/TransformFunctions/arm_cfft_radix4_f32.c ****       /* ya' = (ya+yb+yc+yd) * onebyfftLen */
 957:./Libraries/CMSIS/DSP/Source/TransformFunctions/arm_cfft_radix4_f32.c ****       a1 = (Yaplusc + Ybplusd);
 958:./Libraries/CMSIS/DSP/Source/TransformFunctions/arm_cfft_radix4_f32.c ****       /* xc' = (xa-xb+xc-xd) * onebyfftLen */
 959:./Libraries/CMSIS/DSP/Source/TransformFunctions/arm_cfft_radix4_f32.c ****       a2 = (Xaplusc - Xbplusd);
 960:./Libraries/CMSIS/DSP/Source/TransformFunctions/arm_cfft_radix4_f32.c ****       /* yc' = (ya-yb+yc-yd) * onebyfftLen  */
 961:./Libraries/CMSIS/DSP/Source/TransformFunctions/arm_cfft_radix4_f32.c ****       a3 = (Yaplusc - Ybplusd);
 962:./Libraries/CMSIS/DSP/Source/TransformFunctions/arm_cfft_radix4_f32.c ****       /* xb' = (xa-yb-xc+yd) * onebyfftLen */
 963:./Libraries/CMSIS/DSP/Source/TransformFunctions/arm_cfft_radix4_f32.c ****       a4 = (Xaminusc - Ybminusd);
 964:./Libraries/CMSIS/DSP/Source/TransformFunctions/arm_cfft_radix4_f32.c ****       /* yb' = (ya+xb-yc-xd) * onebyfftLen */
 965:./Libraries/CMSIS/DSP/Source/TransformFunctions/arm_cfft_radix4_f32.c ****       a5 = (Yaminusc + Xbminusd);
 966:./Libraries/CMSIS/DSP/Source/TransformFunctions/arm_cfft_radix4_f32.c ****       /* xd' = (xa-yb-xc+yd) * onebyfftLen */
 967:./Libraries/CMSIS/DSP/Source/TransformFunctions/arm_cfft_radix4_f32.c ****       a6 = (Xaminusc + Ybminusd);
 968:./Libraries/CMSIS/DSP/Source/TransformFunctions/arm_cfft_radix4_f32.c ****       /* yd' = (ya-xb-yc+xd) * onebyfftLen */
 969:./Libraries/CMSIS/DSP/Source/TransformFunctions/arm_cfft_radix4_f32.c ****       a7 = (Yaminusc - Xbminusd);
 970:./Libraries/CMSIS/DSP/Source/TransformFunctions/arm_cfft_radix4_f32.c **** 
 971:./Libraries/CMSIS/DSP/Source/TransformFunctions/arm_cfft_radix4_f32.c ****       p0 = a0 * onebyfftLen;
 972:./Libraries/CMSIS/DSP/Source/TransformFunctions/arm_cfft_radix4_f32.c ****       p1 = a1 * onebyfftLen;
 973:./Libraries/CMSIS/DSP/Source/TransformFunctions/arm_cfft_radix4_f32.c ****       p2 = a2 * onebyfftLen;
 974:./Libraries/CMSIS/DSP/Source/TransformFunctions/arm_cfft_radix4_f32.c ****       p3 = a3 * onebyfftLen;
 975:./Libraries/CMSIS/DSP/Source/TransformFunctions/arm_cfft_radix4_f32.c ****       p4 = a4 * onebyfftLen;
 976:./Libraries/CMSIS/DSP/Source/TransformFunctions/arm_cfft_radix4_f32.c ****       p5 = a5 * onebyfftLen;
 977:./Libraries/CMSIS/DSP/Source/TransformFunctions/arm_cfft_radix4_f32.c ****       p6 = a6 * onebyfftLen;
 978:./Libraries/CMSIS/DSP/Source/TransformFunctions/arm_cfft_radix4_f32.c ****       p7 = a7 * onebyfftLen;
 979:./Libraries/CMSIS/DSP/Source/TransformFunctions/arm_cfft_radix4_f32.c **** 
 980:./Libraries/CMSIS/DSP/Source/TransformFunctions/arm_cfft_radix4_f32.c ****       /* xa' = (xa+xb+xc+xd) * onebyfftLen */
ARM GAS  /tmp/ccr95kGy.s 			page 29


 981:./Libraries/CMSIS/DSP/Source/TransformFunctions/arm_cfft_radix4_f32.c ****       ptr1[0] = p0;
 982:./Libraries/CMSIS/DSP/Source/TransformFunctions/arm_cfft_radix4_f32.c ****       /* ya' = (ya+yb+yc+yd) * onebyfftLen */
 983:./Libraries/CMSIS/DSP/Source/TransformFunctions/arm_cfft_radix4_f32.c ****       ptr1[1] = p1;
 984:./Libraries/CMSIS/DSP/Source/TransformFunctions/arm_cfft_radix4_f32.c ****       /* xc' = (xa-xb+xc-xd) * onebyfftLen */
 985:./Libraries/CMSIS/DSP/Source/TransformFunctions/arm_cfft_radix4_f32.c ****       ptr1[2] = p2;
 986:./Libraries/CMSIS/DSP/Source/TransformFunctions/arm_cfft_radix4_f32.c ****       /* yc' = (ya-yb+yc-yd) * onebyfftLen  */
 987:./Libraries/CMSIS/DSP/Source/TransformFunctions/arm_cfft_radix4_f32.c ****       ptr1[3] = p3;
 988:./Libraries/CMSIS/DSP/Source/TransformFunctions/arm_cfft_radix4_f32.c ****       /* xb' = (xa-yb-xc+yd) * onebyfftLen */
 989:./Libraries/CMSIS/DSP/Source/TransformFunctions/arm_cfft_radix4_f32.c ****       ptr1[4] = p4;
 990:./Libraries/CMSIS/DSP/Source/TransformFunctions/arm_cfft_radix4_f32.c ****       /* yb' = (ya+xb-yc-xd) * onebyfftLen */
 991:./Libraries/CMSIS/DSP/Source/TransformFunctions/arm_cfft_radix4_f32.c ****       ptr1[5] = p5;
 992:./Libraries/CMSIS/DSP/Source/TransformFunctions/arm_cfft_radix4_f32.c ****       /* xd' = (xa-yb-xc+yd) * onebyfftLen */
 993:./Libraries/CMSIS/DSP/Source/TransformFunctions/arm_cfft_radix4_f32.c ****       ptr1[6] = p6;
 994:./Libraries/CMSIS/DSP/Source/TransformFunctions/arm_cfft_radix4_f32.c ****       /* yd' = (ya-xb-yc+xd) * onebyfftLen */
 995:./Libraries/CMSIS/DSP/Source/TransformFunctions/arm_cfft_radix4_f32.c ****       ptr1[7] = p7;
 996:./Libraries/CMSIS/DSP/Source/TransformFunctions/arm_cfft_radix4_f32.c **** 
 997:./Libraries/CMSIS/DSP/Source/TransformFunctions/arm_cfft_radix4_f32.c ****       /* increment source pointer by 8 for next calculations */
 998:./Libraries/CMSIS/DSP/Source/TransformFunctions/arm_cfft_radix4_f32.c ****       ptr1 = ptr1 + 8U;
 999:./Libraries/CMSIS/DSP/Source/TransformFunctions/arm_cfft_radix4_f32.c **** 
1000:./Libraries/CMSIS/DSP/Source/TransformFunctions/arm_cfft_radix4_f32.c ****    } while (--j);
1001:./Libraries/CMSIS/DSP/Source/TransformFunctions/arm_cfft_radix4_f32.c **** 
1002:./Libraries/CMSIS/DSP/Source/TransformFunctions/arm_cfft_radix4_f32.c **** #else
1003:./Libraries/CMSIS/DSP/Source/TransformFunctions/arm_cfft_radix4_f32.c **** 
1004:./Libraries/CMSIS/DSP/Source/TransformFunctions/arm_cfft_radix4_f32.c ****         float32_t t1, t2, r1, r2, s1, s2;
1005:./Libraries/CMSIS/DSP/Source/TransformFunctions/arm_cfft_radix4_f32.c **** 
1006:./Libraries/CMSIS/DSP/Source/TransformFunctions/arm_cfft_radix4_f32.c ****    /*  Initializations for the first stage */
1007:./Libraries/CMSIS/DSP/Source/TransformFunctions/arm_cfft_radix4_f32.c ****    n2 = fftLen;
 620              		.loc 1 1007 7
 621 0018 7B89     		ldrh	r3, [r7, #10]
 622 001a 7B66     		str	r3, [r7, #100]
1008:./Libraries/CMSIS/DSP/Source/TransformFunctions/arm_cfft_radix4_f32.c ****    n1 = n2;
 623              		.loc 1 1008 7
 624 001c 7B6E     		ldr	r3, [r7, #100]
 625 001e BB65     		str	r3, [r7, #88]
1009:./Libraries/CMSIS/DSP/Source/TransformFunctions/arm_cfft_radix4_f32.c **** 
1010:./Libraries/CMSIS/DSP/Source/TransformFunctions/arm_cfft_radix4_f32.c ****    /*  Calculation of first stage */
1011:./Libraries/CMSIS/DSP/Source/TransformFunctions/arm_cfft_radix4_f32.c ****    for (k = fftLen; k > 4U; k >>= 2U)
 626              		.loc 1 1011 11
 627 0020 7B89     		ldrh	r3, [r7, #10]
 628 0022 FB65     		str	r3, [r7, #92]
 629              		.loc 1 1011 4
 630 0024 ACE1     		b	.L12
 631              	.L15:
1012:./Libraries/CMSIS/DSP/Source/TransformFunctions/arm_cfft_radix4_f32.c ****    {
1013:./Libraries/CMSIS/DSP/Source/TransformFunctions/arm_cfft_radix4_f32.c ****       /*  Initializations for the first stage */
1014:./Libraries/CMSIS/DSP/Source/TransformFunctions/arm_cfft_radix4_f32.c ****       n1 = n2;
 632              		.loc 1 1014 10
 633 0026 7B6E     		ldr	r3, [r7, #100]
 634 0028 BB65     		str	r3, [r7, #88]
1015:./Libraries/CMSIS/DSP/Source/TransformFunctions/arm_cfft_radix4_f32.c ****       n2 >>= 2U;
 635              		.loc 1 1015 10
 636 002a 7B6E     		ldr	r3, [r7, #100]
 637 002c 9B08     		lsrs	r3, r3, #2
 638 002e 7B66     		str	r3, [r7, #100]
1016:./Libraries/CMSIS/DSP/Source/TransformFunctions/arm_cfft_radix4_f32.c ****       ia1 = 0U;
 639              		.loc 1 1016 11
 640 0030 0023     		movs	r3, #0
ARM GAS  /tmp/ccr95kGy.s 			page 30


 641 0032 FB66     		str	r3, [r7, #108]
1017:./Libraries/CMSIS/DSP/Source/TransformFunctions/arm_cfft_radix4_f32.c **** 
1018:./Libraries/CMSIS/DSP/Source/TransformFunctions/arm_cfft_radix4_f32.c ****       /*  Calculation of first stage */
1019:./Libraries/CMSIS/DSP/Source/TransformFunctions/arm_cfft_radix4_f32.c ****       j = 0;
 642              		.loc 1 1019 9
 643 0034 0023     		movs	r3, #0
 644 0036 3B66     		str	r3, [r7, #96]
 645              	.L14:
1020:./Libraries/CMSIS/DSP/Source/TransformFunctions/arm_cfft_radix4_f32.c ****       do
1021:./Libraries/CMSIS/DSP/Source/TransformFunctions/arm_cfft_radix4_f32.c ****       {
1022:./Libraries/CMSIS/DSP/Source/TransformFunctions/arm_cfft_radix4_f32.c ****          /*  index calculation for the coefficients */
1023:./Libraries/CMSIS/DSP/Source/TransformFunctions/arm_cfft_radix4_f32.c ****          ia2 = ia1 + ia1;
 646              		.loc 1 1023 14
 647 0038 FB6E     		ldr	r3, [r7, #108]
 648 003a 5B00     		lsls	r3, r3, #1
 649 003c 3B63     		str	r3, [r7, #48]
1024:./Libraries/CMSIS/DSP/Source/TransformFunctions/arm_cfft_radix4_f32.c ****          ia3 = ia2 + ia1;
 650              		.loc 1 1024 14
 651 003e 3A6B     		ldr	r2, [r7, #48]
 652 0040 FB6E     		ldr	r3, [r7, #108]
 653 0042 1344     		add	r3, r3, r2
 654 0044 FB62     		str	r3, [r7, #44]
1025:./Libraries/CMSIS/DSP/Source/TransformFunctions/arm_cfft_radix4_f32.c ****          co1 = pCoef[ia1 * 2U];
 655              		.loc 1 1025 21
 656 0046 FB6E     		ldr	r3, [r7, #108]
 657 0048 DB00     		lsls	r3, r3, #3
 658 004a 7A68     		ldr	r2, [r7, #4]
 659 004c 1344     		add	r3, r3, r2
 660              		.loc 1 1025 14
 661 004e 1B68     		ldr	r3, [r3]	@ float
 662 0050 BB62     		str	r3, [r7, #40]	@ float
1026:./Libraries/CMSIS/DSP/Source/TransformFunctions/arm_cfft_radix4_f32.c ****          si1 = pCoef[(ia1 * 2U) + 1U];
 663              		.loc 1 1026 21
 664 0052 FB6E     		ldr	r3, [r7, #108]
 665 0054 DB00     		lsls	r3, r3, #3
 666 0056 0433     		adds	r3, r3, #4
 667 0058 7A68     		ldr	r2, [r7, #4]
 668 005a 1344     		add	r3, r3, r2
 669              		.loc 1 1026 14
 670 005c 1B68     		ldr	r3, [r3]	@ float
 671 005e 7B62     		str	r3, [r7, #36]	@ float
1027:./Libraries/CMSIS/DSP/Source/TransformFunctions/arm_cfft_radix4_f32.c ****          co2 = pCoef[ia2 * 2U];
 672              		.loc 1 1027 21
 673 0060 3B6B     		ldr	r3, [r7, #48]
 674 0062 DB00     		lsls	r3, r3, #3
 675 0064 7A68     		ldr	r2, [r7, #4]
 676 0066 1344     		add	r3, r3, r2
 677              		.loc 1 1027 14
 678 0068 1B68     		ldr	r3, [r3]	@ float
 679 006a 3B62     		str	r3, [r7, #32]	@ float
1028:./Libraries/CMSIS/DSP/Source/TransformFunctions/arm_cfft_radix4_f32.c ****          si2 = pCoef[(ia2 * 2U) + 1U];
 680              		.loc 1 1028 21
 681 006c 3B6B     		ldr	r3, [r7, #48]
 682 006e DB00     		lsls	r3, r3, #3
 683 0070 0433     		adds	r3, r3, #4
 684 0072 7A68     		ldr	r2, [r7, #4]
 685 0074 1344     		add	r3, r3, r2
ARM GAS  /tmp/ccr95kGy.s 			page 31


 686              		.loc 1 1028 14
 687 0076 1B68     		ldr	r3, [r3]	@ float
 688 0078 FB61     		str	r3, [r7, #28]	@ float
1029:./Libraries/CMSIS/DSP/Source/TransformFunctions/arm_cfft_radix4_f32.c ****          co3 = pCoef[ia3 * 2U];
 689              		.loc 1 1029 21
 690 007a FB6A     		ldr	r3, [r7, #44]
 691 007c DB00     		lsls	r3, r3, #3
 692 007e 7A68     		ldr	r2, [r7, #4]
 693 0080 1344     		add	r3, r3, r2
 694              		.loc 1 1029 14
 695 0082 1B68     		ldr	r3, [r3]	@ float
 696 0084 BB61     		str	r3, [r7, #24]	@ float
1030:./Libraries/CMSIS/DSP/Source/TransformFunctions/arm_cfft_radix4_f32.c ****          si3 = pCoef[(ia3 * 2U) + 1U];
 697              		.loc 1 1030 21
 698 0086 FB6A     		ldr	r3, [r7, #44]
 699 0088 DB00     		lsls	r3, r3, #3
 700 008a 0433     		adds	r3, r3, #4
 701 008c 7A68     		ldr	r2, [r7, #4]
 702 008e 1344     		add	r3, r3, r2
 703              		.loc 1 1030 14
 704 0090 1B68     		ldr	r3, [r3]	@ float
 705 0092 7B61     		str	r3, [r7, #20]	@ float
1031:./Libraries/CMSIS/DSP/Source/TransformFunctions/arm_cfft_radix4_f32.c **** 
1032:./Libraries/CMSIS/DSP/Source/TransformFunctions/arm_cfft_radix4_f32.c ****          /*  Twiddle coefficients index modifier */
1033:./Libraries/CMSIS/DSP/Source/TransformFunctions/arm_cfft_radix4_f32.c ****          ia1 = ia1 + twidCoefModifier;
 706              		.loc 1 1033 20
 707 0094 3B89     		ldrh	r3, [r7, #8]
 708              		.loc 1 1033 14
 709 0096 FA6E     		ldr	r2, [r7, #108]
 710 0098 1344     		add	r3, r3, r2
 711 009a FB66     		str	r3, [r7, #108]
1034:./Libraries/CMSIS/DSP/Source/TransformFunctions/arm_cfft_radix4_f32.c **** 
1035:./Libraries/CMSIS/DSP/Source/TransformFunctions/arm_cfft_radix4_f32.c ****          i0 = j;
 712              		.loc 1 1035 13
 713 009c 3B6E     		ldr	r3, [r7, #96]
 714 009e BB66     		str	r3, [r7, #104]
 715              	.L13:
1036:./Libraries/CMSIS/DSP/Source/TransformFunctions/arm_cfft_radix4_f32.c ****          do
1037:./Libraries/CMSIS/DSP/Source/TransformFunctions/arm_cfft_radix4_f32.c ****          {
1038:./Libraries/CMSIS/DSP/Source/TransformFunctions/arm_cfft_radix4_f32.c ****             /*  index calculation for the input as, */
1039:./Libraries/CMSIS/DSP/Source/TransformFunctions/arm_cfft_radix4_f32.c ****             /*  pSrc[i0 + 0], pSrc[i0 + fftLen/4], pSrc[i0 + fftLen/2], pSrc[i0 + 3fftLen/4] */
1040:./Libraries/CMSIS/DSP/Source/TransformFunctions/arm_cfft_radix4_f32.c ****             i1 = i0 + n2;
 716              		.loc 1 1040 16 discriminator 1
 717 00a0 BA6E     		ldr	r2, [r7, #104]
 718 00a2 7B6E     		ldr	r3, [r7, #100]
 719 00a4 1344     		add	r3, r3, r2
 720 00a6 7B65     		str	r3, [r7, #84]
1041:./Libraries/CMSIS/DSP/Source/TransformFunctions/arm_cfft_radix4_f32.c ****             i2 = i1 + n2;
 721              		.loc 1 1041 16 discriminator 1
 722 00a8 7A6D     		ldr	r2, [r7, #84]
 723 00aa 7B6E     		ldr	r3, [r7, #100]
 724 00ac 1344     		add	r3, r3, r2
 725 00ae 3B65     		str	r3, [r7, #80]
1042:./Libraries/CMSIS/DSP/Source/TransformFunctions/arm_cfft_radix4_f32.c ****             i3 = i2 + n2;
 726              		.loc 1 1042 16 discriminator 1
 727 00b0 3A6D     		ldr	r2, [r7, #80]
 728 00b2 7B6E     		ldr	r3, [r7, #100]
ARM GAS  /tmp/ccr95kGy.s 			page 32


 729 00b4 1344     		add	r3, r3, r2
 730 00b6 FB64     		str	r3, [r7, #76]
1043:./Libraries/CMSIS/DSP/Source/TransformFunctions/arm_cfft_radix4_f32.c **** 
1044:./Libraries/CMSIS/DSP/Source/TransformFunctions/arm_cfft_radix4_f32.c ****             /* xa + xc */
1045:./Libraries/CMSIS/DSP/Source/TransformFunctions/arm_cfft_radix4_f32.c ****             r1 = pSrc[(2U * i0)] + pSrc[(2U * i2)];
 731              		.loc 1 1045 22 discriminator 1
 732 00b8 BB6E     		ldr	r3, [r7, #104]
 733 00ba DB00     		lsls	r3, r3, #3
 734 00bc FA68     		ldr	r2, [r7, #12]
 735 00be 1344     		add	r3, r3, r2
 736 00c0 93ED007A 		vldr.32	s14, [r3]
 737              		.loc 1 1045 40 discriminator 1
 738 00c4 3B6D     		ldr	r3, [r7, #80]
 739 00c6 DB00     		lsls	r3, r3, #3
 740 00c8 FA68     		ldr	r2, [r7, #12]
 741 00ca 1344     		add	r3, r3, r2
 742 00cc D3ED007A 		vldr.32	s15, [r3]
 743              		.loc 1 1045 16 discriminator 1
 744 00d0 77EE277A 		vadd.f32	s15, s14, s15
 745 00d4 C7ED127A 		vstr.32	s15, [r7, #72]
1046:./Libraries/CMSIS/DSP/Source/TransformFunctions/arm_cfft_radix4_f32.c **** 
1047:./Libraries/CMSIS/DSP/Source/TransformFunctions/arm_cfft_radix4_f32.c ****             /* xa - xc */
1048:./Libraries/CMSIS/DSP/Source/TransformFunctions/arm_cfft_radix4_f32.c ****             r2 = pSrc[(2U * i0)] - pSrc[(2U * i2)];
 746              		.loc 1 1048 22 discriminator 1
 747 00d8 BB6E     		ldr	r3, [r7, #104]
 748 00da DB00     		lsls	r3, r3, #3
 749 00dc FA68     		ldr	r2, [r7, #12]
 750 00de 1344     		add	r3, r3, r2
 751 00e0 93ED007A 		vldr.32	s14, [r3]
 752              		.loc 1 1048 40 discriminator 1
 753 00e4 3B6D     		ldr	r3, [r7, #80]
 754 00e6 DB00     		lsls	r3, r3, #3
 755 00e8 FA68     		ldr	r2, [r7, #12]
 756 00ea 1344     		add	r3, r3, r2
 757 00ec D3ED007A 		vldr.32	s15, [r3]
 758              		.loc 1 1048 16 discriminator 1
 759 00f0 77EE677A 		vsub.f32	s15, s14, s15
 760 00f4 C7ED117A 		vstr.32	s15, [r7, #68]
1049:./Libraries/CMSIS/DSP/Source/TransformFunctions/arm_cfft_radix4_f32.c **** 
1050:./Libraries/CMSIS/DSP/Source/TransformFunctions/arm_cfft_radix4_f32.c ****             /* ya + yc */
1051:./Libraries/CMSIS/DSP/Source/TransformFunctions/arm_cfft_radix4_f32.c ****             s1 = pSrc[(2U * i0) + 1U] + pSrc[(2U * i2) + 1U];
 761              		.loc 1 1051 22 discriminator 1
 762 00f8 BB6E     		ldr	r3, [r7, #104]
 763 00fa DB00     		lsls	r3, r3, #3
 764 00fc 0433     		adds	r3, r3, #4
 765 00fe FA68     		ldr	r2, [r7, #12]
 766 0100 1344     		add	r3, r3, r2
 767 0102 93ED007A 		vldr.32	s14, [r3]
 768              		.loc 1 1051 45 discriminator 1
 769 0106 3B6D     		ldr	r3, [r7, #80]
 770 0108 DB00     		lsls	r3, r3, #3
 771 010a 0433     		adds	r3, r3, #4
 772 010c FA68     		ldr	r2, [r7, #12]
 773 010e 1344     		add	r3, r3, r2
 774 0110 D3ED007A 		vldr.32	s15, [r3]
 775              		.loc 1 1051 16 discriminator 1
 776 0114 77EE277A 		vadd.f32	s15, s14, s15
ARM GAS  /tmp/ccr95kGy.s 			page 33


 777 0118 C7ED107A 		vstr.32	s15, [r7, #64]
1052:./Libraries/CMSIS/DSP/Source/TransformFunctions/arm_cfft_radix4_f32.c **** 
1053:./Libraries/CMSIS/DSP/Source/TransformFunctions/arm_cfft_radix4_f32.c ****             /* ya - yc */
1054:./Libraries/CMSIS/DSP/Source/TransformFunctions/arm_cfft_radix4_f32.c ****             s2 = pSrc[(2U * i0) + 1U] - pSrc[(2U * i2) + 1U];
 778              		.loc 1 1054 22 discriminator 1
 779 011c BB6E     		ldr	r3, [r7, #104]
 780 011e DB00     		lsls	r3, r3, #3
 781 0120 0433     		adds	r3, r3, #4
 782 0122 FA68     		ldr	r2, [r7, #12]
 783 0124 1344     		add	r3, r3, r2
 784 0126 93ED007A 		vldr.32	s14, [r3]
 785              		.loc 1 1054 45 discriminator 1
 786 012a 3B6D     		ldr	r3, [r7, #80]
 787 012c DB00     		lsls	r3, r3, #3
 788 012e 0433     		adds	r3, r3, #4
 789 0130 FA68     		ldr	r2, [r7, #12]
 790 0132 1344     		add	r3, r3, r2
 791 0134 D3ED007A 		vldr.32	s15, [r3]
 792              		.loc 1 1054 16 discriminator 1
 793 0138 77EE677A 		vsub.f32	s15, s14, s15
 794 013c C7ED0F7A 		vstr.32	s15, [r7, #60]
1055:./Libraries/CMSIS/DSP/Source/TransformFunctions/arm_cfft_radix4_f32.c **** 
1056:./Libraries/CMSIS/DSP/Source/TransformFunctions/arm_cfft_radix4_f32.c ****             /* xb + xd */
1057:./Libraries/CMSIS/DSP/Source/TransformFunctions/arm_cfft_radix4_f32.c ****             t1 = pSrc[2U * i1] + pSrc[2U * i3];
 795              		.loc 1 1057 22 discriminator 1
 796 0140 7B6D     		ldr	r3, [r7, #84]
 797 0142 DB00     		lsls	r3, r3, #3
 798 0144 FA68     		ldr	r2, [r7, #12]
 799 0146 1344     		add	r3, r3, r2
 800 0148 93ED007A 		vldr.32	s14, [r3]
 801              		.loc 1 1057 38 discriminator 1
 802 014c FB6C     		ldr	r3, [r7, #76]
 803 014e DB00     		lsls	r3, r3, #3
 804 0150 FA68     		ldr	r2, [r7, #12]
 805 0152 1344     		add	r3, r3, r2
 806 0154 D3ED007A 		vldr.32	s15, [r3]
 807              		.loc 1 1057 16 discriminator 1
 808 0158 77EE277A 		vadd.f32	s15, s14, s15
 809 015c C7ED0E7A 		vstr.32	s15, [r7, #56]
1058:./Libraries/CMSIS/DSP/Source/TransformFunctions/arm_cfft_radix4_f32.c **** 
1059:./Libraries/CMSIS/DSP/Source/TransformFunctions/arm_cfft_radix4_f32.c ****             /* xa' = xa + xb + xc + xd */
1060:./Libraries/CMSIS/DSP/Source/TransformFunctions/arm_cfft_radix4_f32.c ****             pSrc[2U * i0] = r1 + t1;
 810              		.loc 1 1060 17 discriminator 1
 811 0160 BB6E     		ldr	r3, [r7, #104]
 812 0162 DB00     		lsls	r3, r3, #3
 813 0164 FA68     		ldr	r2, [r7, #12]
 814 0166 1344     		add	r3, r3, r2
 815              		.loc 1 1060 32 discriminator 1
 816 0168 97ED127A 		vldr.32	s14, [r7, #72]
 817 016c D7ED0E7A 		vldr.32	s15, [r7, #56]
 818 0170 77EE277A 		vadd.f32	s15, s14, s15
 819              		.loc 1 1060 27 discriminator 1
 820 0174 C3ED007A 		vstr.32	s15, [r3]
1061:./Libraries/CMSIS/DSP/Source/TransformFunctions/arm_cfft_radix4_f32.c **** 
1062:./Libraries/CMSIS/DSP/Source/TransformFunctions/arm_cfft_radix4_f32.c ****             /* xa + xc -(xb + xd) */
1063:./Libraries/CMSIS/DSP/Source/TransformFunctions/arm_cfft_radix4_f32.c ****             r1 = r1 - t1;
 821              		.loc 1 1063 16 discriminator 1
ARM GAS  /tmp/ccr95kGy.s 			page 34


 822 0178 97ED127A 		vldr.32	s14, [r7, #72]
 823 017c D7ED0E7A 		vldr.32	s15, [r7, #56]
 824 0180 77EE677A 		vsub.f32	s15, s14, s15
 825 0184 C7ED127A 		vstr.32	s15, [r7, #72]
1064:./Libraries/CMSIS/DSP/Source/TransformFunctions/arm_cfft_radix4_f32.c **** 
1065:./Libraries/CMSIS/DSP/Source/TransformFunctions/arm_cfft_radix4_f32.c ****             /* yb + yd */
1066:./Libraries/CMSIS/DSP/Source/TransformFunctions/arm_cfft_radix4_f32.c ****             t2 = pSrc[(2U * i1) + 1U] + pSrc[(2U * i3) + 1U];
 826              		.loc 1 1066 22 discriminator 1
 827 0188 7B6D     		ldr	r3, [r7, #84]
 828 018a DB00     		lsls	r3, r3, #3
 829 018c 0433     		adds	r3, r3, #4
 830 018e FA68     		ldr	r2, [r7, #12]
 831 0190 1344     		add	r3, r3, r2
 832 0192 93ED007A 		vldr.32	s14, [r3]
 833              		.loc 1 1066 45 discriminator 1
 834 0196 FB6C     		ldr	r3, [r7, #76]
 835 0198 DB00     		lsls	r3, r3, #3
 836 019a 0433     		adds	r3, r3, #4
 837 019c FA68     		ldr	r2, [r7, #12]
 838 019e 1344     		add	r3, r3, r2
 839 01a0 D3ED007A 		vldr.32	s15, [r3]
 840              		.loc 1 1066 16 discriminator 1
 841 01a4 77EE277A 		vadd.f32	s15, s14, s15
 842 01a8 C7ED0D7A 		vstr.32	s15, [r7, #52]
1067:./Libraries/CMSIS/DSP/Source/TransformFunctions/arm_cfft_radix4_f32.c **** 
1068:./Libraries/CMSIS/DSP/Source/TransformFunctions/arm_cfft_radix4_f32.c ****             /* ya' = ya + yb + yc + yd */
1069:./Libraries/CMSIS/DSP/Source/TransformFunctions/arm_cfft_radix4_f32.c ****             pSrc[(2U * i0) + 1U] = s1 + t2;
 843              		.loc 1 1069 17 discriminator 1
 844 01ac BB6E     		ldr	r3, [r7, #104]
 845 01ae DB00     		lsls	r3, r3, #3
 846 01b0 0433     		adds	r3, r3, #4
 847 01b2 FA68     		ldr	r2, [r7, #12]
 848 01b4 1344     		add	r3, r3, r2
 849              		.loc 1 1069 39 discriminator 1
 850 01b6 97ED107A 		vldr.32	s14, [r7, #64]
 851 01ba D7ED0D7A 		vldr.32	s15, [r7, #52]
 852 01be 77EE277A 		vadd.f32	s15, s14, s15
 853              		.loc 1 1069 34 discriminator 1
 854 01c2 C3ED007A 		vstr.32	s15, [r3]
1070:./Libraries/CMSIS/DSP/Source/TransformFunctions/arm_cfft_radix4_f32.c **** 
1071:./Libraries/CMSIS/DSP/Source/TransformFunctions/arm_cfft_radix4_f32.c ****             /* (ya + yc) - (yb + yd) */
1072:./Libraries/CMSIS/DSP/Source/TransformFunctions/arm_cfft_radix4_f32.c ****             s1 = s1 - t2;
 855              		.loc 1 1072 16 discriminator 1
 856 01c6 97ED107A 		vldr.32	s14, [r7, #64]
 857 01ca D7ED0D7A 		vldr.32	s15, [r7, #52]
 858 01ce 77EE677A 		vsub.f32	s15, s14, s15
 859 01d2 C7ED107A 		vstr.32	s15, [r7, #64]
1073:./Libraries/CMSIS/DSP/Source/TransformFunctions/arm_cfft_radix4_f32.c **** 
1074:./Libraries/CMSIS/DSP/Source/TransformFunctions/arm_cfft_radix4_f32.c ****             /* (yb - yd) */
1075:./Libraries/CMSIS/DSP/Source/TransformFunctions/arm_cfft_radix4_f32.c ****             t1 = pSrc[(2U * i1) + 1U] - pSrc[(2U * i3) + 1U];
 860              		.loc 1 1075 22 discriminator 1
 861 01d6 7B6D     		ldr	r3, [r7, #84]
 862 01d8 DB00     		lsls	r3, r3, #3
 863 01da 0433     		adds	r3, r3, #4
 864 01dc FA68     		ldr	r2, [r7, #12]
 865 01de 1344     		add	r3, r3, r2
 866 01e0 93ED007A 		vldr.32	s14, [r3]
ARM GAS  /tmp/ccr95kGy.s 			page 35


 867              		.loc 1 1075 45 discriminator 1
 868 01e4 FB6C     		ldr	r3, [r7, #76]
 869 01e6 DB00     		lsls	r3, r3, #3
 870 01e8 0433     		adds	r3, r3, #4
 871 01ea FA68     		ldr	r2, [r7, #12]
 872 01ec 1344     		add	r3, r3, r2
 873 01ee D3ED007A 		vldr.32	s15, [r3]
 874              		.loc 1 1075 16 discriminator 1
 875 01f2 77EE677A 		vsub.f32	s15, s14, s15
 876 01f6 C7ED0E7A 		vstr.32	s15, [r7, #56]
1076:./Libraries/CMSIS/DSP/Source/TransformFunctions/arm_cfft_radix4_f32.c **** 
1077:./Libraries/CMSIS/DSP/Source/TransformFunctions/arm_cfft_radix4_f32.c ****             /* (xb - xd) */
1078:./Libraries/CMSIS/DSP/Source/TransformFunctions/arm_cfft_radix4_f32.c ****             t2 = pSrc[2U * i1] - pSrc[2U * i3];
 877              		.loc 1 1078 22 discriminator 1
 878 01fa 7B6D     		ldr	r3, [r7, #84]
 879 01fc DB00     		lsls	r3, r3, #3
 880 01fe FA68     		ldr	r2, [r7, #12]
 881 0200 1344     		add	r3, r3, r2
 882 0202 93ED007A 		vldr.32	s14, [r3]
 883              		.loc 1 1078 38 discriminator 1
 884 0206 FB6C     		ldr	r3, [r7, #76]
 885 0208 DB00     		lsls	r3, r3, #3
 886 020a FA68     		ldr	r2, [r7, #12]
 887 020c 1344     		add	r3, r3, r2
 888 020e D3ED007A 		vldr.32	s15, [r3]
 889              		.loc 1 1078 16 discriminator 1
 890 0212 77EE677A 		vsub.f32	s15, s14, s15
 891 0216 C7ED0D7A 		vstr.32	s15, [r7, #52]
1079:./Libraries/CMSIS/DSP/Source/TransformFunctions/arm_cfft_radix4_f32.c **** 
1080:./Libraries/CMSIS/DSP/Source/TransformFunctions/arm_cfft_radix4_f32.c ****             /* xc' = (xa-xb+xc-xd)co2 - (ya-yb+yc-yd)(si2) */
1081:./Libraries/CMSIS/DSP/Source/TransformFunctions/arm_cfft_radix4_f32.c ****             pSrc[2U * i1] = (r1 * co2) - (s1 * si2);
 892              		.loc 1 1081 33 discriminator 1
 893 021a 97ED127A 		vldr.32	s14, [r7, #72]
 894 021e D7ED087A 		vldr.32	s15, [r7, #32]
 895 0222 27EE277A 		vmul.f32	s14, s14, s15
 896              		.loc 1 1081 46 discriminator 1
 897 0226 D7ED106A 		vldr.32	s13, [r7, #64]
 898 022a D7ED077A 		vldr.32	s15, [r7, #28]
 899 022e 66EEA77A 		vmul.f32	s15, s13, s15
 900              		.loc 1 1081 17 discriminator 1
 901 0232 7B6D     		ldr	r3, [r7, #84]
 902 0234 DB00     		lsls	r3, r3, #3
 903 0236 FA68     		ldr	r2, [r7, #12]
 904 0238 1344     		add	r3, r3, r2
 905              		.loc 1 1081 40 discriminator 1
 906 023a 77EE677A 		vsub.f32	s15, s14, s15
 907              		.loc 1 1081 27 discriminator 1
 908 023e C3ED007A 		vstr.32	s15, [r3]
1082:./Libraries/CMSIS/DSP/Source/TransformFunctions/arm_cfft_radix4_f32.c **** 
1083:./Libraries/CMSIS/DSP/Source/TransformFunctions/arm_cfft_radix4_f32.c ****             /* yc' = (ya-yb+yc-yd)co2 + (xa-xb+xc-xd)(si2) */
1084:./Libraries/CMSIS/DSP/Source/TransformFunctions/arm_cfft_radix4_f32.c ****             pSrc[(2U * i1) + 1U] = (s1 * co2) + (r1 * si2);
 909              		.loc 1 1084 40 discriminator 1
 910 0242 97ED107A 		vldr.32	s14, [r7, #64]
 911 0246 D7ED087A 		vldr.32	s15, [r7, #32]
 912 024a 27EE277A 		vmul.f32	s14, s14, s15
 913              		.loc 1 1084 53 discriminator 1
 914 024e D7ED126A 		vldr.32	s13, [r7, #72]
ARM GAS  /tmp/ccr95kGy.s 			page 36


 915 0252 D7ED077A 		vldr.32	s15, [r7, #28]
 916 0256 66EEA77A 		vmul.f32	s15, s13, s15
 917              		.loc 1 1084 17 discriminator 1
 918 025a 7B6D     		ldr	r3, [r7, #84]
 919 025c DB00     		lsls	r3, r3, #3
 920 025e 0433     		adds	r3, r3, #4
 921 0260 FA68     		ldr	r2, [r7, #12]
 922 0262 1344     		add	r3, r3, r2
 923              		.loc 1 1084 47 discriminator 1
 924 0264 77EE277A 		vadd.f32	s15, s14, s15
 925              		.loc 1 1084 34 discriminator 1
 926 0268 C3ED007A 		vstr.32	s15, [r3]
1085:./Libraries/CMSIS/DSP/Source/TransformFunctions/arm_cfft_radix4_f32.c **** 
1086:./Libraries/CMSIS/DSP/Source/TransformFunctions/arm_cfft_radix4_f32.c ****             /* (xa - xc) - (yb - yd) */
1087:./Libraries/CMSIS/DSP/Source/TransformFunctions/arm_cfft_radix4_f32.c ****             r1 = r2 - t1;
 927              		.loc 1 1087 16 discriminator 1
 928 026c 97ED117A 		vldr.32	s14, [r7, #68]
 929 0270 D7ED0E7A 		vldr.32	s15, [r7, #56]
 930 0274 77EE677A 		vsub.f32	s15, s14, s15
 931 0278 C7ED127A 		vstr.32	s15, [r7, #72]
1088:./Libraries/CMSIS/DSP/Source/TransformFunctions/arm_cfft_radix4_f32.c **** 
1089:./Libraries/CMSIS/DSP/Source/TransformFunctions/arm_cfft_radix4_f32.c ****             /* (xa - xc) + (yb - yd) */
1090:./Libraries/CMSIS/DSP/Source/TransformFunctions/arm_cfft_radix4_f32.c ****             r2 = r2 + t1;
 932              		.loc 1 1090 16 discriminator 1
 933 027c 97ED117A 		vldr.32	s14, [r7, #68]
 934 0280 D7ED0E7A 		vldr.32	s15, [r7, #56]
 935 0284 77EE277A 		vadd.f32	s15, s14, s15
 936 0288 C7ED117A 		vstr.32	s15, [r7, #68]
1091:./Libraries/CMSIS/DSP/Source/TransformFunctions/arm_cfft_radix4_f32.c **** 
1092:./Libraries/CMSIS/DSP/Source/TransformFunctions/arm_cfft_radix4_f32.c ****             /* (ya - yc) +  (xb - xd) */
1093:./Libraries/CMSIS/DSP/Source/TransformFunctions/arm_cfft_radix4_f32.c ****             s1 = s2 + t2;
 937              		.loc 1 1093 16 discriminator 1
 938 028c 97ED0F7A 		vldr.32	s14, [r7, #60]
 939 0290 D7ED0D7A 		vldr.32	s15, [r7, #52]
 940 0294 77EE277A 		vadd.f32	s15, s14, s15
 941 0298 C7ED107A 		vstr.32	s15, [r7, #64]
1094:./Libraries/CMSIS/DSP/Source/TransformFunctions/arm_cfft_radix4_f32.c **** 
1095:./Libraries/CMSIS/DSP/Source/TransformFunctions/arm_cfft_radix4_f32.c ****             /* (ya - yc) -  (xb - xd) */
1096:./Libraries/CMSIS/DSP/Source/TransformFunctions/arm_cfft_radix4_f32.c ****             s2 = s2 - t2;
 942              		.loc 1 1096 16 discriminator 1
 943 029c 97ED0F7A 		vldr.32	s14, [r7, #60]
 944 02a0 D7ED0D7A 		vldr.32	s15, [r7, #52]
 945 02a4 77EE677A 		vsub.f32	s15, s14, s15
 946 02a8 C7ED0F7A 		vstr.32	s15, [r7, #60]
1097:./Libraries/CMSIS/DSP/Source/TransformFunctions/arm_cfft_radix4_f32.c **** 
1098:./Libraries/CMSIS/DSP/Source/TransformFunctions/arm_cfft_radix4_f32.c ****             /* xb' = (xa+yb-xc-yd)co1 - (ya-xb-yc+xd)(si1) */
1099:./Libraries/CMSIS/DSP/Source/TransformFunctions/arm_cfft_radix4_f32.c ****             pSrc[2U * i2] = (r1 * co1) - (s1 * si1);
 947              		.loc 1 1099 33 discriminator 1
 948 02ac 97ED127A 		vldr.32	s14, [r7, #72]
 949 02b0 D7ED0A7A 		vldr.32	s15, [r7, #40]
 950 02b4 27EE277A 		vmul.f32	s14, s14, s15
 951              		.loc 1 1099 46 discriminator 1
 952 02b8 D7ED106A 		vldr.32	s13, [r7, #64]
 953 02bc D7ED097A 		vldr.32	s15, [r7, #36]
 954 02c0 66EEA77A 		vmul.f32	s15, s13, s15
 955              		.loc 1 1099 17 discriminator 1
 956 02c4 3B6D     		ldr	r3, [r7, #80]
ARM GAS  /tmp/ccr95kGy.s 			page 37


 957 02c6 DB00     		lsls	r3, r3, #3
 958 02c8 FA68     		ldr	r2, [r7, #12]
 959 02ca 1344     		add	r3, r3, r2
 960              		.loc 1 1099 40 discriminator 1
 961 02cc 77EE677A 		vsub.f32	s15, s14, s15
 962              		.loc 1 1099 27 discriminator 1
 963 02d0 C3ED007A 		vstr.32	s15, [r3]
1100:./Libraries/CMSIS/DSP/Source/TransformFunctions/arm_cfft_radix4_f32.c **** 
1101:./Libraries/CMSIS/DSP/Source/TransformFunctions/arm_cfft_radix4_f32.c ****             /* yb' = (ya-xb-yc+xd)co1 + (xa+yb-xc-yd)(si1) */
1102:./Libraries/CMSIS/DSP/Source/TransformFunctions/arm_cfft_radix4_f32.c ****             pSrc[(2U * i2) + 1U] = (s1 * co1) + (r1 * si1);
 964              		.loc 1 1102 40 discriminator 1
 965 02d4 97ED107A 		vldr.32	s14, [r7, #64]
 966 02d8 D7ED0A7A 		vldr.32	s15, [r7, #40]
 967 02dc 27EE277A 		vmul.f32	s14, s14, s15
 968              		.loc 1 1102 53 discriminator 1
 969 02e0 D7ED126A 		vldr.32	s13, [r7, #72]
 970 02e4 D7ED097A 		vldr.32	s15, [r7, #36]
 971 02e8 66EEA77A 		vmul.f32	s15, s13, s15
 972              		.loc 1 1102 17 discriminator 1
 973 02ec 3B6D     		ldr	r3, [r7, #80]
 974 02ee DB00     		lsls	r3, r3, #3
 975 02f0 0433     		adds	r3, r3, #4
 976 02f2 FA68     		ldr	r2, [r7, #12]
 977 02f4 1344     		add	r3, r3, r2
 978              		.loc 1 1102 47 discriminator 1
 979 02f6 77EE277A 		vadd.f32	s15, s14, s15
 980              		.loc 1 1102 34 discriminator 1
 981 02fa C3ED007A 		vstr.32	s15, [r3]
1103:./Libraries/CMSIS/DSP/Source/TransformFunctions/arm_cfft_radix4_f32.c **** 
1104:./Libraries/CMSIS/DSP/Source/TransformFunctions/arm_cfft_radix4_f32.c ****             /* xd' = (xa-yb-xc+yd)co3 - (ya+xb-yc-xd)(si3) */
1105:./Libraries/CMSIS/DSP/Source/TransformFunctions/arm_cfft_radix4_f32.c ****             pSrc[2U * i3] = (r2 * co3) - (s2 * si3);
 982              		.loc 1 1105 33 discriminator 1
 983 02fe 97ED117A 		vldr.32	s14, [r7, #68]
 984 0302 D7ED067A 		vldr.32	s15, [r7, #24]
 985 0306 27EE277A 		vmul.f32	s14, s14, s15
 986              		.loc 1 1105 46 discriminator 1
 987 030a D7ED0F6A 		vldr.32	s13, [r7, #60]
 988 030e D7ED057A 		vldr.32	s15, [r7, #20]
 989 0312 66EEA77A 		vmul.f32	s15, s13, s15
 990              		.loc 1 1105 17 discriminator 1
 991 0316 FB6C     		ldr	r3, [r7, #76]
 992 0318 DB00     		lsls	r3, r3, #3
 993 031a FA68     		ldr	r2, [r7, #12]
 994 031c 1344     		add	r3, r3, r2
 995              		.loc 1 1105 40 discriminator 1
 996 031e 77EE677A 		vsub.f32	s15, s14, s15
 997              		.loc 1 1105 27 discriminator 1
 998 0322 C3ED007A 		vstr.32	s15, [r3]
1106:./Libraries/CMSIS/DSP/Source/TransformFunctions/arm_cfft_radix4_f32.c **** 
1107:./Libraries/CMSIS/DSP/Source/TransformFunctions/arm_cfft_radix4_f32.c ****             /* yd' = (ya+xb-yc-xd)co3 + (xa-yb-xc+yd)(si3) */
1108:./Libraries/CMSIS/DSP/Source/TransformFunctions/arm_cfft_radix4_f32.c ****             pSrc[(2U * i3) + 1U] = (s2 * co3) + (r2 * si3);
 999              		.loc 1 1108 40 discriminator 1
 1000 0326 97ED0F7A 		vldr.32	s14, [r7, #60]
 1001 032a D7ED067A 		vldr.32	s15, [r7, #24]
 1002 032e 27EE277A 		vmul.f32	s14, s14, s15
 1003              		.loc 1 1108 53 discriminator 1
 1004 0332 D7ED116A 		vldr.32	s13, [r7, #68]
ARM GAS  /tmp/ccr95kGy.s 			page 38


 1005 0336 D7ED057A 		vldr.32	s15, [r7, #20]
 1006 033a 66EEA77A 		vmul.f32	s15, s13, s15
 1007              		.loc 1 1108 17 discriminator 1
 1008 033e FB6C     		ldr	r3, [r7, #76]
 1009 0340 DB00     		lsls	r3, r3, #3
 1010 0342 0433     		adds	r3, r3, #4
 1011 0344 FA68     		ldr	r2, [r7, #12]
 1012 0346 1344     		add	r3, r3, r2
 1013              		.loc 1 1108 47 discriminator 1
 1014 0348 77EE277A 		vadd.f32	s15, s14, s15
 1015              		.loc 1 1108 34 discriminator 1
 1016 034c C3ED007A 		vstr.32	s15, [r3]
1109:./Libraries/CMSIS/DSP/Source/TransformFunctions/arm_cfft_radix4_f32.c **** 
1110:./Libraries/CMSIS/DSP/Source/TransformFunctions/arm_cfft_radix4_f32.c ****             i0 += n1;
 1017              		.loc 1 1110 16 discriminator 1
 1018 0350 BA6E     		ldr	r2, [r7, #104]
 1019 0352 BB6D     		ldr	r3, [r7, #88]
 1020 0354 1344     		add	r3, r3, r2
 1021 0356 BB66     		str	r3, [r7, #104]
1111:./Libraries/CMSIS/DSP/Source/TransformFunctions/arm_cfft_radix4_f32.c ****          } while ( i0 < fftLen);
 1022              		.loc 1 1111 23 discriminator 1
 1023 0358 7B89     		ldrh	r3, [r7, #10]
 1024              		.loc 1 1111 10 discriminator 1
 1025 035a BA6E     		ldr	r2, [r7, #104]
 1026 035c 9A42     		cmp	r2, r3
 1027 035e FFF49FAE 		bcc	.L13
1112:./Libraries/CMSIS/DSP/Source/TransformFunctions/arm_cfft_radix4_f32.c ****          j++;
 1028              		.loc 1 1112 11
 1029 0362 3B6E     		ldr	r3, [r7, #96]
 1030 0364 0133     		adds	r3, r3, #1
 1031 0366 3B66     		str	r3, [r7, #96]
1113:./Libraries/CMSIS/DSP/Source/TransformFunctions/arm_cfft_radix4_f32.c ****       } while (j <= (n2 - 1U));
 1032              		.loc 1 1113 25
 1033 0368 7B6E     		ldr	r3, [r7, #100]
 1034 036a 013B     		subs	r3, r3, #1
 1035              		.loc 1 1113 7
 1036 036c 3A6E     		ldr	r2, [r7, #96]
 1037 036e 9A42     		cmp	r2, r3
 1038 0370 7FF662AE 		bls	.L14
1114:./Libraries/CMSIS/DSP/Source/TransformFunctions/arm_cfft_radix4_f32.c ****       twidCoefModifier <<= 2U;
 1039              		.loc 1 1114 24 discriminator 2
 1040 0374 3B89     		ldrh	r3, [r7, #8]	@ movhi
 1041 0376 9B00     		lsls	r3, r3, #2
 1042 0378 3B81     		strh	r3, [r7, #8]	@ movhi
1011:./Libraries/CMSIS/DSP/Source/TransformFunctions/arm_cfft_radix4_f32.c ****    {
 1043              		.loc 1 1011 31 discriminator 2
 1044 037a FB6D     		ldr	r3, [r7, #92]
 1045 037c 9B08     		lsrs	r3, r3, #2
 1046 037e FB65     		str	r3, [r7, #92]
 1047              	.L12:
1011:./Libraries/CMSIS/DSP/Source/TransformFunctions/arm_cfft_radix4_f32.c ****    {
 1048              		.loc 1 1011 4 discriminator 1
 1049 0380 FB6D     		ldr	r3, [r7, #92]
 1050 0382 042B     		cmp	r3, #4
 1051 0384 3FF64FAE 		bhi	.L15
1115:./Libraries/CMSIS/DSP/Source/TransformFunctions/arm_cfft_radix4_f32.c ****    }
1116:./Libraries/CMSIS/DSP/Source/TransformFunctions/arm_cfft_radix4_f32.c ****    /*  Initializations of last stage */
ARM GAS  /tmp/ccr95kGy.s 			page 39


1117:./Libraries/CMSIS/DSP/Source/TransformFunctions/arm_cfft_radix4_f32.c ****    n1 = n2;
 1052              		.loc 1 1117 7
 1053 0388 7B6E     		ldr	r3, [r7, #100]
 1054 038a BB65     		str	r3, [r7, #88]
1118:./Libraries/CMSIS/DSP/Source/TransformFunctions/arm_cfft_radix4_f32.c ****    n2 >>= 2U;
 1055              		.loc 1 1118 7
 1056 038c 7B6E     		ldr	r3, [r7, #100]
 1057 038e 9B08     		lsrs	r3, r3, #2
 1058 0390 7B66     		str	r3, [r7, #100]
1119:./Libraries/CMSIS/DSP/Source/TransformFunctions/arm_cfft_radix4_f32.c **** 
1120:./Libraries/CMSIS/DSP/Source/TransformFunctions/arm_cfft_radix4_f32.c ****    /*  Calculations of last stage */
1121:./Libraries/CMSIS/DSP/Source/TransformFunctions/arm_cfft_radix4_f32.c ****    for (i0 = 0U; i0 <= (fftLen - n1); i0 += n1)
 1059              		.loc 1 1121 12
 1060 0392 0023     		movs	r3, #0
 1061 0394 BB66     		str	r3, [r7, #104]
 1062              		.loc 1 1121 4
 1063 0396 33E1     		b	.L16
 1064              	.L17:
1122:./Libraries/CMSIS/DSP/Source/TransformFunctions/arm_cfft_radix4_f32.c ****    {
1123:./Libraries/CMSIS/DSP/Source/TransformFunctions/arm_cfft_radix4_f32.c ****       /*  index calculation for the input as, */
1124:./Libraries/CMSIS/DSP/Source/TransformFunctions/arm_cfft_radix4_f32.c ****       /*  pSrc[i0 + 0], pSrc[i0 + fftLen/4], pSrc[i0 + fftLen/2], pSrc[i0 + 3fftLen/4] */
1125:./Libraries/CMSIS/DSP/Source/TransformFunctions/arm_cfft_radix4_f32.c ****       i1 = i0 + n2;
 1065              		.loc 1 1125 10 discriminator 3
 1066 0398 BA6E     		ldr	r2, [r7, #104]
 1067 039a 7B6E     		ldr	r3, [r7, #100]
 1068 039c 1344     		add	r3, r3, r2
 1069 039e 7B65     		str	r3, [r7, #84]
1126:./Libraries/CMSIS/DSP/Source/TransformFunctions/arm_cfft_radix4_f32.c ****       i2 = i1 + n2;
 1070              		.loc 1 1126 10 discriminator 3
 1071 03a0 7A6D     		ldr	r2, [r7, #84]
 1072 03a2 7B6E     		ldr	r3, [r7, #100]
 1073 03a4 1344     		add	r3, r3, r2
 1074 03a6 3B65     		str	r3, [r7, #80]
1127:./Libraries/CMSIS/DSP/Source/TransformFunctions/arm_cfft_radix4_f32.c ****       i3 = i2 + n2;
 1075              		.loc 1 1127 10 discriminator 3
 1076 03a8 3A6D     		ldr	r2, [r7, #80]
 1077 03aa 7B6E     		ldr	r3, [r7, #100]
 1078 03ac 1344     		add	r3, r3, r2
 1079 03ae FB64     		str	r3, [r7, #76]
1128:./Libraries/CMSIS/DSP/Source/TransformFunctions/arm_cfft_radix4_f32.c **** 
1129:./Libraries/CMSIS/DSP/Source/TransformFunctions/arm_cfft_radix4_f32.c ****       /*  Butterfly implementation */
1130:./Libraries/CMSIS/DSP/Source/TransformFunctions/arm_cfft_radix4_f32.c ****       /* xa + xc */
1131:./Libraries/CMSIS/DSP/Source/TransformFunctions/arm_cfft_radix4_f32.c ****       r1 = pSrc[2U * i0] + pSrc[2U * i2];
 1080              		.loc 1 1131 16 discriminator 3
 1081 03b0 BB6E     		ldr	r3, [r7, #104]
 1082 03b2 DB00     		lsls	r3, r3, #3
 1083 03b4 FA68     		ldr	r2, [r7, #12]
 1084 03b6 1344     		add	r3, r3, r2
 1085 03b8 93ED007A 		vldr.32	s14, [r3]
 1086              		.loc 1 1131 32 discriminator 3
 1087 03bc 3B6D     		ldr	r3, [r7, #80]
 1088 03be DB00     		lsls	r3, r3, #3
 1089 03c0 FA68     		ldr	r2, [r7, #12]
 1090 03c2 1344     		add	r3, r3, r2
 1091 03c4 D3ED007A 		vldr.32	s15, [r3]
 1092              		.loc 1 1131 10 discriminator 3
 1093 03c8 77EE277A 		vadd.f32	s15, s14, s15
ARM GAS  /tmp/ccr95kGy.s 			page 40


 1094 03cc C7ED127A 		vstr.32	s15, [r7, #72]
1132:./Libraries/CMSIS/DSP/Source/TransformFunctions/arm_cfft_radix4_f32.c **** 
1133:./Libraries/CMSIS/DSP/Source/TransformFunctions/arm_cfft_radix4_f32.c ****       /* xa - xc */
1134:./Libraries/CMSIS/DSP/Source/TransformFunctions/arm_cfft_radix4_f32.c ****       r2 = pSrc[2U * i0] - pSrc[2U * i2];
 1095              		.loc 1 1134 16 discriminator 3
 1096 03d0 BB6E     		ldr	r3, [r7, #104]
 1097 03d2 DB00     		lsls	r3, r3, #3
 1098 03d4 FA68     		ldr	r2, [r7, #12]
 1099 03d6 1344     		add	r3, r3, r2
 1100 03d8 93ED007A 		vldr.32	s14, [r3]
 1101              		.loc 1 1134 32 discriminator 3
 1102 03dc 3B6D     		ldr	r3, [r7, #80]
 1103 03de DB00     		lsls	r3, r3, #3
 1104 03e0 FA68     		ldr	r2, [r7, #12]
 1105 03e2 1344     		add	r3, r3, r2
 1106 03e4 D3ED007A 		vldr.32	s15, [r3]
 1107              		.loc 1 1134 10 discriminator 3
 1108 03e8 77EE677A 		vsub.f32	s15, s14, s15
 1109 03ec C7ED117A 		vstr.32	s15, [r7, #68]
1135:./Libraries/CMSIS/DSP/Source/TransformFunctions/arm_cfft_radix4_f32.c **** 
1136:./Libraries/CMSIS/DSP/Source/TransformFunctions/arm_cfft_radix4_f32.c ****       /* ya + yc */
1137:./Libraries/CMSIS/DSP/Source/TransformFunctions/arm_cfft_radix4_f32.c ****       s1 = pSrc[(2U * i0) + 1U] + pSrc[(2U * i2) + 1U];
 1110              		.loc 1 1137 16 discriminator 3
 1111 03f0 BB6E     		ldr	r3, [r7, #104]
 1112 03f2 DB00     		lsls	r3, r3, #3
 1113 03f4 0433     		adds	r3, r3, #4
 1114 03f6 FA68     		ldr	r2, [r7, #12]
 1115 03f8 1344     		add	r3, r3, r2
 1116 03fa 93ED007A 		vldr.32	s14, [r3]
 1117              		.loc 1 1137 39 discriminator 3
 1118 03fe 3B6D     		ldr	r3, [r7, #80]
 1119 0400 DB00     		lsls	r3, r3, #3
 1120 0402 0433     		adds	r3, r3, #4
 1121 0404 FA68     		ldr	r2, [r7, #12]
 1122 0406 1344     		add	r3, r3, r2
 1123 0408 D3ED007A 		vldr.32	s15, [r3]
 1124              		.loc 1 1137 10 discriminator 3
 1125 040c 77EE277A 		vadd.f32	s15, s14, s15
 1126 0410 C7ED107A 		vstr.32	s15, [r7, #64]
1138:./Libraries/CMSIS/DSP/Source/TransformFunctions/arm_cfft_radix4_f32.c **** 
1139:./Libraries/CMSIS/DSP/Source/TransformFunctions/arm_cfft_radix4_f32.c ****       /* ya - yc */
1140:./Libraries/CMSIS/DSP/Source/TransformFunctions/arm_cfft_radix4_f32.c ****       s2 = pSrc[(2U * i0) + 1U] - pSrc[(2U * i2) + 1U];
 1127              		.loc 1 1140 16 discriminator 3
 1128 0414 BB6E     		ldr	r3, [r7, #104]
 1129 0416 DB00     		lsls	r3, r3, #3
 1130 0418 0433     		adds	r3, r3, #4
 1131 041a FA68     		ldr	r2, [r7, #12]
 1132 041c 1344     		add	r3, r3, r2
 1133 041e 93ED007A 		vldr.32	s14, [r3]
 1134              		.loc 1 1140 39 discriminator 3
 1135 0422 3B6D     		ldr	r3, [r7, #80]
 1136 0424 DB00     		lsls	r3, r3, #3
 1137 0426 0433     		adds	r3, r3, #4
 1138 0428 FA68     		ldr	r2, [r7, #12]
 1139 042a 1344     		add	r3, r3, r2
 1140 042c D3ED007A 		vldr.32	s15, [r3]
 1141              		.loc 1 1140 10 discriminator 3
ARM GAS  /tmp/ccr95kGy.s 			page 41


 1142 0430 77EE677A 		vsub.f32	s15, s14, s15
 1143 0434 C7ED0F7A 		vstr.32	s15, [r7, #60]
1141:./Libraries/CMSIS/DSP/Source/TransformFunctions/arm_cfft_radix4_f32.c **** 
1142:./Libraries/CMSIS/DSP/Source/TransformFunctions/arm_cfft_radix4_f32.c ****       /* xc + xd */
1143:./Libraries/CMSIS/DSP/Source/TransformFunctions/arm_cfft_radix4_f32.c ****       t1 = pSrc[2U * i1] + pSrc[2U * i3];
 1144              		.loc 1 1143 16 discriminator 3
 1145 0438 7B6D     		ldr	r3, [r7, #84]
 1146 043a DB00     		lsls	r3, r3, #3
 1147 043c FA68     		ldr	r2, [r7, #12]
 1148 043e 1344     		add	r3, r3, r2
 1149 0440 93ED007A 		vldr.32	s14, [r3]
 1150              		.loc 1 1143 32 discriminator 3
 1151 0444 FB6C     		ldr	r3, [r7, #76]
 1152 0446 DB00     		lsls	r3, r3, #3
 1153 0448 FA68     		ldr	r2, [r7, #12]
 1154 044a 1344     		add	r3, r3, r2
 1155 044c D3ED007A 		vldr.32	s15, [r3]
 1156              		.loc 1 1143 10 discriminator 3
 1157 0450 77EE277A 		vadd.f32	s15, s14, s15
 1158 0454 C7ED0E7A 		vstr.32	s15, [r7, #56]
1144:./Libraries/CMSIS/DSP/Source/TransformFunctions/arm_cfft_radix4_f32.c **** 
1145:./Libraries/CMSIS/DSP/Source/TransformFunctions/arm_cfft_radix4_f32.c ****       /* xa' = xa + xb + xc + xd */
1146:./Libraries/CMSIS/DSP/Source/TransformFunctions/arm_cfft_radix4_f32.c ****       pSrc[2U * i0] = (r1 + t1) * onebyfftLen;
 1159              		.loc 1 1146 27 discriminator 3
 1160 0458 97ED127A 		vldr.32	s14, [r7, #72]
 1161 045c D7ED0E7A 		vldr.32	s15, [r7, #56]
 1162 0460 37EE277A 		vadd.f32	s14, s14, s15
 1163              		.loc 1 1146 11 discriminator 3
 1164 0464 BB6E     		ldr	r3, [r7, #104]
 1165 0466 DB00     		lsls	r3, r3, #3
 1166 0468 FA68     		ldr	r2, [r7, #12]
 1167 046a 1344     		add	r3, r3, r2
 1168              		.loc 1 1146 33 discriminator 3
 1169 046c D7ED007A 		vldr.32	s15, [r7]
 1170 0470 67EE277A 		vmul.f32	s15, s14, s15
 1171              		.loc 1 1146 21 discriminator 3
 1172 0474 C3ED007A 		vstr.32	s15, [r3]
1147:./Libraries/CMSIS/DSP/Source/TransformFunctions/arm_cfft_radix4_f32.c **** 
1148:./Libraries/CMSIS/DSP/Source/TransformFunctions/arm_cfft_radix4_f32.c ****       /* (xa + xb) - (xc + xd) */
1149:./Libraries/CMSIS/DSP/Source/TransformFunctions/arm_cfft_radix4_f32.c ****       r1 = r1 - t1;
 1173              		.loc 1 1149 10 discriminator 3
 1174 0478 97ED127A 		vldr.32	s14, [r7, #72]
 1175 047c D7ED0E7A 		vldr.32	s15, [r7, #56]
 1176 0480 77EE677A 		vsub.f32	s15, s14, s15
 1177 0484 C7ED127A 		vstr.32	s15, [r7, #72]
1150:./Libraries/CMSIS/DSP/Source/TransformFunctions/arm_cfft_radix4_f32.c **** 
1151:./Libraries/CMSIS/DSP/Source/TransformFunctions/arm_cfft_radix4_f32.c ****       /* yb + yd */
1152:./Libraries/CMSIS/DSP/Source/TransformFunctions/arm_cfft_radix4_f32.c ****       t2 = pSrc[(2U * i1) + 1U] + pSrc[(2U * i3) + 1U];
 1178              		.loc 1 1152 16 discriminator 3
 1179 0488 7B6D     		ldr	r3, [r7, #84]
 1180 048a DB00     		lsls	r3, r3, #3
 1181 048c 0433     		adds	r3, r3, #4
 1182 048e FA68     		ldr	r2, [r7, #12]
 1183 0490 1344     		add	r3, r3, r2
 1184 0492 93ED007A 		vldr.32	s14, [r3]
 1185              		.loc 1 1152 39 discriminator 3
 1186 0496 FB6C     		ldr	r3, [r7, #76]
ARM GAS  /tmp/ccr95kGy.s 			page 42


 1187 0498 DB00     		lsls	r3, r3, #3
 1188 049a 0433     		adds	r3, r3, #4
 1189 049c FA68     		ldr	r2, [r7, #12]
 1190 049e 1344     		add	r3, r3, r2
 1191 04a0 D3ED007A 		vldr.32	s15, [r3]
 1192              		.loc 1 1152 10 discriminator 3
 1193 04a4 77EE277A 		vadd.f32	s15, s14, s15
 1194 04a8 C7ED0D7A 		vstr.32	s15, [r7, #52]
1153:./Libraries/CMSIS/DSP/Source/TransformFunctions/arm_cfft_radix4_f32.c **** 
1154:./Libraries/CMSIS/DSP/Source/TransformFunctions/arm_cfft_radix4_f32.c ****       /* ya' = ya + yb + yc + yd */
1155:./Libraries/CMSIS/DSP/Source/TransformFunctions/arm_cfft_radix4_f32.c ****       pSrc[(2U * i0) + 1U] = (s1 + t2) * onebyfftLen;
 1195              		.loc 1 1155 34 discriminator 3
 1196 04ac 97ED107A 		vldr.32	s14, [r7, #64]
 1197 04b0 D7ED0D7A 		vldr.32	s15, [r7, #52]
 1198 04b4 37EE277A 		vadd.f32	s14, s14, s15
 1199              		.loc 1 1155 11 discriminator 3
 1200 04b8 BB6E     		ldr	r3, [r7, #104]
 1201 04ba DB00     		lsls	r3, r3, #3
 1202 04bc 0433     		adds	r3, r3, #4
 1203 04be FA68     		ldr	r2, [r7, #12]
 1204 04c0 1344     		add	r3, r3, r2
 1205              		.loc 1 1155 40 discriminator 3
 1206 04c2 D7ED007A 		vldr.32	s15, [r7]
 1207 04c6 67EE277A 		vmul.f32	s15, s14, s15
 1208              		.loc 1 1155 28 discriminator 3
 1209 04ca C3ED007A 		vstr.32	s15, [r3]
1156:./Libraries/CMSIS/DSP/Source/TransformFunctions/arm_cfft_radix4_f32.c **** 
1157:./Libraries/CMSIS/DSP/Source/TransformFunctions/arm_cfft_radix4_f32.c ****       /* (ya + yc) - (yb + yd) */
1158:./Libraries/CMSIS/DSP/Source/TransformFunctions/arm_cfft_radix4_f32.c ****       s1 = s1 - t2;
 1210              		.loc 1 1158 10 discriminator 3
 1211 04ce 97ED107A 		vldr.32	s14, [r7, #64]
 1212 04d2 D7ED0D7A 		vldr.32	s15, [r7, #52]
 1213 04d6 77EE677A 		vsub.f32	s15, s14, s15
 1214 04da C7ED107A 		vstr.32	s15, [r7, #64]
1159:./Libraries/CMSIS/DSP/Source/TransformFunctions/arm_cfft_radix4_f32.c **** 
1160:./Libraries/CMSIS/DSP/Source/TransformFunctions/arm_cfft_radix4_f32.c ****       /* (yb-yd) */
1161:./Libraries/CMSIS/DSP/Source/TransformFunctions/arm_cfft_radix4_f32.c ****       t1 = pSrc[(2U * i1) + 1U] - pSrc[(2U * i3) + 1U];
 1215              		.loc 1 1161 16 discriminator 3
 1216 04de 7B6D     		ldr	r3, [r7, #84]
 1217 04e0 DB00     		lsls	r3, r3, #3
 1218 04e2 0433     		adds	r3, r3, #4
 1219 04e4 FA68     		ldr	r2, [r7, #12]
 1220 04e6 1344     		add	r3, r3, r2
 1221 04e8 93ED007A 		vldr.32	s14, [r3]
 1222              		.loc 1 1161 39 discriminator 3
 1223 04ec FB6C     		ldr	r3, [r7, #76]
 1224 04ee DB00     		lsls	r3, r3, #3
 1225 04f0 0433     		adds	r3, r3, #4
 1226 04f2 FA68     		ldr	r2, [r7, #12]
 1227 04f4 1344     		add	r3, r3, r2
 1228 04f6 D3ED007A 		vldr.32	s15, [r3]
 1229              		.loc 1 1161 10 discriminator 3
 1230 04fa 77EE677A 		vsub.f32	s15, s14, s15
 1231 04fe C7ED0E7A 		vstr.32	s15, [r7, #56]
1162:./Libraries/CMSIS/DSP/Source/TransformFunctions/arm_cfft_radix4_f32.c **** 
1163:./Libraries/CMSIS/DSP/Source/TransformFunctions/arm_cfft_radix4_f32.c ****       /* (xb-xd) */
1164:./Libraries/CMSIS/DSP/Source/TransformFunctions/arm_cfft_radix4_f32.c ****       t2 = pSrc[2U * i1] - pSrc[2U * i3];
ARM GAS  /tmp/ccr95kGy.s 			page 43


 1232              		.loc 1 1164 16 discriminator 3
 1233 0502 7B6D     		ldr	r3, [r7, #84]
 1234 0504 DB00     		lsls	r3, r3, #3
 1235 0506 FA68     		ldr	r2, [r7, #12]
 1236 0508 1344     		add	r3, r3, r2
 1237 050a 93ED007A 		vldr.32	s14, [r3]
 1238              		.loc 1 1164 32 discriminator 3
 1239 050e FB6C     		ldr	r3, [r7, #76]
 1240 0510 DB00     		lsls	r3, r3, #3
 1241 0512 FA68     		ldr	r2, [r7, #12]
 1242 0514 1344     		add	r3, r3, r2
 1243 0516 D3ED007A 		vldr.32	s15, [r3]
 1244              		.loc 1 1164 10 discriminator 3
 1245 051a 77EE677A 		vsub.f32	s15, s14, s15
 1246 051e C7ED0D7A 		vstr.32	s15, [r7, #52]
1165:./Libraries/CMSIS/DSP/Source/TransformFunctions/arm_cfft_radix4_f32.c **** 
1166:./Libraries/CMSIS/DSP/Source/TransformFunctions/arm_cfft_radix4_f32.c ****       /* xc' = (xa-xb+xc-xd)co2 - (ya-yb+yc-yd)(si2) */
1167:./Libraries/CMSIS/DSP/Source/TransformFunctions/arm_cfft_radix4_f32.c ****       pSrc[2U * i1] = r1 * onebyfftLen;
 1247              		.loc 1 1167 11 discriminator 3
 1248 0522 7B6D     		ldr	r3, [r7, #84]
 1249 0524 DB00     		lsls	r3, r3, #3
 1250 0526 FA68     		ldr	r2, [r7, #12]
 1251 0528 1344     		add	r3, r3, r2
 1252              		.loc 1 1167 26 discriminator 3
 1253 052a 97ED127A 		vldr.32	s14, [r7, #72]
 1254 052e D7ED007A 		vldr.32	s15, [r7]
 1255 0532 67EE277A 		vmul.f32	s15, s14, s15
 1256              		.loc 1 1167 21 discriminator 3
 1257 0536 C3ED007A 		vstr.32	s15, [r3]
1168:./Libraries/CMSIS/DSP/Source/TransformFunctions/arm_cfft_radix4_f32.c **** 
1169:./Libraries/CMSIS/DSP/Source/TransformFunctions/arm_cfft_radix4_f32.c ****       /* yc' = (ya-yb+yc-yd)co2 + (xa-xb+xc-xd)(si2) */
1170:./Libraries/CMSIS/DSP/Source/TransformFunctions/arm_cfft_radix4_f32.c ****       pSrc[(2U * i1) + 1U] = s1 * onebyfftLen;
 1258              		.loc 1 1170 11 discriminator 3
 1259 053a 7B6D     		ldr	r3, [r7, #84]
 1260 053c DB00     		lsls	r3, r3, #3
 1261 053e 0433     		adds	r3, r3, #4
 1262 0540 FA68     		ldr	r2, [r7, #12]
 1263 0542 1344     		add	r3, r3, r2
 1264              		.loc 1 1170 33 discriminator 3
 1265 0544 97ED107A 		vldr.32	s14, [r7, #64]
 1266 0548 D7ED007A 		vldr.32	s15, [r7]
 1267 054c 67EE277A 		vmul.f32	s15, s14, s15
 1268              		.loc 1 1170 28 discriminator 3
 1269 0550 C3ED007A 		vstr.32	s15, [r3]
1171:./Libraries/CMSIS/DSP/Source/TransformFunctions/arm_cfft_radix4_f32.c **** 
1172:./Libraries/CMSIS/DSP/Source/TransformFunctions/arm_cfft_radix4_f32.c ****       /* (xa - xc) - (yb-yd) */
1173:./Libraries/CMSIS/DSP/Source/TransformFunctions/arm_cfft_radix4_f32.c ****       r1 = r2 - t1;
 1270              		.loc 1 1173 10 discriminator 3
 1271 0554 97ED117A 		vldr.32	s14, [r7, #68]
 1272 0558 D7ED0E7A 		vldr.32	s15, [r7, #56]
 1273 055c 77EE677A 		vsub.f32	s15, s14, s15
 1274 0560 C7ED127A 		vstr.32	s15, [r7, #72]
1174:./Libraries/CMSIS/DSP/Source/TransformFunctions/arm_cfft_radix4_f32.c **** 
1175:./Libraries/CMSIS/DSP/Source/TransformFunctions/arm_cfft_radix4_f32.c ****       /* (xa - xc) + (yb-yd) */
1176:./Libraries/CMSIS/DSP/Source/TransformFunctions/arm_cfft_radix4_f32.c ****       r2 = r2 + t1;
 1275              		.loc 1 1176 10 discriminator 3
 1276 0564 97ED117A 		vldr.32	s14, [r7, #68]
ARM GAS  /tmp/ccr95kGy.s 			page 44


 1277 0568 D7ED0E7A 		vldr.32	s15, [r7, #56]
 1278 056c 77EE277A 		vadd.f32	s15, s14, s15
 1279 0570 C7ED117A 		vstr.32	s15, [r7, #68]
1177:./Libraries/CMSIS/DSP/Source/TransformFunctions/arm_cfft_radix4_f32.c **** 
1178:./Libraries/CMSIS/DSP/Source/TransformFunctions/arm_cfft_radix4_f32.c ****       /* (ya - yc) + (xb-xd) */
1179:./Libraries/CMSIS/DSP/Source/TransformFunctions/arm_cfft_radix4_f32.c ****       s1 = s2 + t2;
 1280              		.loc 1 1179 10 discriminator 3
 1281 0574 97ED0F7A 		vldr.32	s14, [r7, #60]
 1282 0578 D7ED0D7A 		vldr.32	s15, [r7, #52]
 1283 057c 77EE277A 		vadd.f32	s15, s14, s15
 1284 0580 C7ED107A 		vstr.32	s15, [r7, #64]
1180:./Libraries/CMSIS/DSP/Source/TransformFunctions/arm_cfft_radix4_f32.c **** 
1181:./Libraries/CMSIS/DSP/Source/TransformFunctions/arm_cfft_radix4_f32.c ****       /* (ya - yc) - (xb-xd) */
1182:./Libraries/CMSIS/DSP/Source/TransformFunctions/arm_cfft_radix4_f32.c ****       s2 = s2 - t2;
 1285              		.loc 1 1182 10 discriminator 3
 1286 0584 97ED0F7A 		vldr.32	s14, [r7, #60]
 1287 0588 D7ED0D7A 		vldr.32	s15, [r7, #52]
 1288 058c 77EE677A 		vsub.f32	s15, s14, s15
 1289 0590 C7ED0F7A 		vstr.32	s15, [r7, #60]
1183:./Libraries/CMSIS/DSP/Source/TransformFunctions/arm_cfft_radix4_f32.c **** 
1184:./Libraries/CMSIS/DSP/Source/TransformFunctions/arm_cfft_radix4_f32.c ****       /* xb' = (xa+yb-xc-yd)co1 - (ya-xb-yc+xd)(si1) */
1185:./Libraries/CMSIS/DSP/Source/TransformFunctions/arm_cfft_radix4_f32.c ****       pSrc[2U * i2] = r1 * onebyfftLen;
 1290              		.loc 1 1185 11 discriminator 3
 1291 0594 3B6D     		ldr	r3, [r7, #80]
 1292 0596 DB00     		lsls	r3, r3, #3
 1293 0598 FA68     		ldr	r2, [r7, #12]
 1294 059a 1344     		add	r3, r3, r2
 1295              		.loc 1 1185 26 discriminator 3
 1296 059c 97ED127A 		vldr.32	s14, [r7, #72]
 1297 05a0 D7ED007A 		vldr.32	s15, [r7]
 1298 05a4 67EE277A 		vmul.f32	s15, s14, s15
 1299              		.loc 1 1185 21 discriminator 3
 1300 05a8 C3ED007A 		vstr.32	s15, [r3]
1186:./Libraries/CMSIS/DSP/Source/TransformFunctions/arm_cfft_radix4_f32.c **** 
1187:./Libraries/CMSIS/DSP/Source/TransformFunctions/arm_cfft_radix4_f32.c ****       /* yb' = (ya-xb-yc+xd)co1 + (xa+yb-xc-yd)(si1) */
1188:./Libraries/CMSIS/DSP/Source/TransformFunctions/arm_cfft_radix4_f32.c ****       pSrc[(2U * i2) + 1U] = s1 * onebyfftLen;
 1301              		.loc 1 1188 11 discriminator 3
 1302 05ac 3B6D     		ldr	r3, [r7, #80]
 1303 05ae DB00     		lsls	r3, r3, #3
 1304 05b0 0433     		adds	r3, r3, #4
 1305 05b2 FA68     		ldr	r2, [r7, #12]
 1306 05b4 1344     		add	r3, r3, r2
 1307              		.loc 1 1188 33 discriminator 3
 1308 05b6 97ED107A 		vldr.32	s14, [r7, #64]
 1309 05ba D7ED007A 		vldr.32	s15, [r7]
 1310 05be 67EE277A 		vmul.f32	s15, s14, s15
 1311              		.loc 1 1188 28 discriminator 3
 1312 05c2 C3ED007A 		vstr.32	s15, [r3]
1189:./Libraries/CMSIS/DSP/Source/TransformFunctions/arm_cfft_radix4_f32.c **** 
1190:./Libraries/CMSIS/DSP/Source/TransformFunctions/arm_cfft_radix4_f32.c ****       /* xd' = (xa-yb-xc+yd)co3 - (ya+xb-yc-xd)(si3) */
1191:./Libraries/CMSIS/DSP/Source/TransformFunctions/arm_cfft_radix4_f32.c ****       pSrc[2U * i3] = r2 * onebyfftLen;
 1313              		.loc 1 1191 11 discriminator 3
 1314 05c6 FB6C     		ldr	r3, [r7, #76]
 1315 05c8 DB00     		lsls	r3, r3, #3
 1316 05ca FA68     		ldr	r2, [r7, #12]
 1317 05cc 1344     		add	r3, r3, r2
 1318              		.loc 1 1191 26 discriminator 3
ARM GAS  /tmp/ccr95kGy.s 			page 45


 1319 05ce 97ED117A 		vldr.32	s14, [r7, #68]
 1320 05d2 D7ED007A 		vldr.32	s15, [r7]
 1321 05d6 67EE277A 		vmul.f32	s15, s14, s15
 1322              		.loc 1 1191 21 discriminator 3
 1323 05da C3ED007A 		vstr.32	s15, [r3]
1192:./Libraries/CMSIS/DSP/Source/TransformFunctions/arm_cfft_radix4_f32.c **** 
1193:./Libraries/CMSIS/DSP/Source/TransformFunctions/arm_cfft_radix4_f32.c ****       /* yd' = (ya+xb-yc-xd)co3 + (xa-yb-xc+yd)(si3) */
1194:./Libraries/CMSIS/DSP/Source/TransformFunctions/arm_cfft_radix4_f32.c ****       pSrc[(2U * i3) + 1U] = s2 * onebyfftLen;
 1324              		.loc 1 1194 11 discriminator 3
 1325 05de FB6C     		ldr	r3, [r7, #76]
 1326 05e0 DB00     		lsls	r3, r3, #3
 1327 05e2 0433     		adds	r3, r3, #4
 1328 05e4 FA68     		ldr	r2, [r7, #12]
 1329 05e6 1344     		add	r3, r3, r2
 1330              		.loc 1 1194 33 discriminator 3
 1331 05e8 97ED0F7A 		vldr.32	s14, [r7, #60]
 1332 05ec D7ED007A 		vldr.32	s15, [r7]
 1333 05f0 67EE277A 		vmul.f32	s15, s14, s15
 1334              		.loc 1 1194 28 discriminator 3
 1335 05f4 C3ED007A 		vstr.32	s15, [r3]
1121:./Libraries/CMSIS/DSP/Source/TransformFunctions/arm_cfft_radix4_f32.c ****    {
 1336              		.loc 1 1121 42 discriminator 3
 1337 05f8 BA6E     		ldr	r2, [r7, #104]
 1338 05fa BB6D     		ldr	r3, [r7, #88]
 1339 05fc 1344     		add	r3, r3, r2
 1340 05fe BB66     		str	r3, [r7, #104]
 1341              	.L16:
1121:./Libraries/CMSIS/DSP/Source/TransformFunctions/arm_cfft_radix4_f32.c ****    {
 1342              		.loc 1 1121 32 discriminator 1
 1343 0600 7A89     		ldrh	r2, [r7, #10]
 1344 0602 BB6D     		ldr	r3, [r7, #88]
 1345 0604 D31A     		subs	r3, r2, r3
1121:./Libraries/CMSIS/DSP/Source/TransformFunctions/arm_cfft_radix4_f32.c ****    {
 1346              		.loc 1 1121 4 discriminator 1
 1347 0606 BA6E     		ldr	r2, [r7, #104]
 1348 0608 9A42     		cmp	r2, r3
 1349 060a 7FF6C5AE 		bls	.L17
1195:./Libraries/CMSIS/DSP/Source/TransformFunctions/arm_cfft_radix4_f32.c ****    }
1196:./Libraries/CMSIS/DSP/Source/TransformFunctions/arm_cfft_radix4_f32.c **** 
1197:./Libraries/CMSIS/DSP/Source/TransformFunctions/arm_cfft_radix4_f32.c **** #endif /* #if defined (ARM_MATH_LOOPUNROLL) */
1198:./Libraries/CMSIS/DSP/Source/TransformFunctions/arm_cfft_radix4_f32.c **** }
 1350              		.loc 1 1198 1
 1351 060e 00BF     		nop
 1352 0610 00BF     		nop
 1353 0612 7437     		adds	r7, r7, #116
 1354              	.LCFI14:
 1355              		.cfi_def_cfa_offset 4
 1356 0614 BD46     		mov	sp, r7
 1357              	.LCFI15:
 1358              		.cfi_def_cfa_register 13
 1359              		@ sp needed
 1360 0616 5DF8047B 		ldr	r7, [sp], #4
 1361              	.LCFI16:
 1362              		.cfi_restore 7
 1363              		.cfi_def_cfa_offset 0
 1364 061a 7047     		bx	lr
 1365              		.cfi_endproc
ARM GAS  /tmp/ccr95kGy.s 			page 46


 1366              	.LFE147:
 1368              		.text
 1369              	.Letext0:
 1370              		.file 2 "/usr/lib/gcc/arm-none-eabi/9.2.1/include/stdint.h"
 1371              		.file 3 "/usr/lib/gcc/arm-none-eabi/9.2.1/include/stddef.h"
 1372              		.file 4 "/usr/include/newlib/sys/_types.h"
 1373              		.file 5 "/usr/include/newlib/sys/reent.h"
 1374              		.file 6 "/usr/include/newlib/sys/lock.h"
 1375              		.file 7 "/usr/include/newlib/math.h"
 1376              		.file 8 "./Libraries/CMSIS/DSP/Include/arm_math.h"
ARM GAS  /tmp/ccr95kGy.s 			page 47

