ARM GAS  /tmp/ccdicNnT.s 			page 1


   1              		.cpu cortex-m7
   2              		.eabi_attribute 28, 1
   3              		.eabi_attribute 20, 1
   4              		.eabi_attribute 21, 1
   5              		.eabi_attribute 23, 3
   6              		.eabi_attribute 24, 1
   7              		.eabi_attribute 25, 1
   8              		.eabi_attribute 26, 1
   9              		.eabi_attribute 30, 6
  10              		.eabi_attribute 34, 1
  11              		.eabi_attribute 18, 4
  12              		.file	"arm_conv_q31.c"
  13              		.text
  14              	.Ltext0:
  15              		.cfi_sections	.debug_frame
  16              		.section	.text.arm_conv_q31,"ax",%progbits
  17              		.align	1
  18              		.global	arm_conv_q31
  19              		.arch armv7e-m
  20              		.syntax unified
  21              		.thumb
  22              		.thumb_func
  23              		.fpu fpv5-d16
  25              	arm_conv_q31:
  26              	.LFB145:
  27              		.file 1 "./Libraries/CMSIS/DSP/Source/FilteringFunctions/arm_conv_q31.c"
   1:./Libraries/CMSIS/DSP/Source/FilteringFunctions/arm_conv_q31.c **** /* ----------------------------------------------------------------------
   2:./Libraries/CMSIS/DSP/Source/FilteringFunctions/arm_conv_q31.c ****  * Project:      CMSIS DSP Library
   3:./Libraries/CMSIS/DSP/Source/FilteringFunctions/arm_conv_q31.c ****  * Title:        arm_conv_q31.c
   4:./Libraries/CMSIS/DSP/Source/FilteringFunctions/arm_conv_q31.c ****  * Description:  Convolution of Q31 sequences
   5:./Libraries/CMSIS/DSP/Source/FilteringFunctions/arm_conv_q31.c ****  *
   6:./Libraries/CMSIS/DSP/Source/FilteringFunctions/arm_conv_q31.c ****  * $Date:        18. March 2019
   7:./Libraries/CMSIS/DSP/Source/FilteringFunctions/arm_conv_q31.c ****  * $Revision:    V1.6.0
   8:./Libraries/CMSIS/DSP/Source/FilteringFunctions/arm_conv_q31.c ****  *
   9:./Libraries/CMSIS/DSP/Source/FilteringFunctions/arm_conv_q31.c ****  * Target Processor: Cortex-M cores
  10:./Libraries/CMSIS/DSP/Source/FilteringFunctions/arm_conv_q31.c ****  * -------------------------------------------------------------------- */
  11:./Libraries/CMSIS/DSP/Source/FilteringFunctions/arm_conv_q31.c **** /*
  12:./Libraries/CMSIS/DSP/Source/FilteringFunctions/arm_conv_q31.c ****  * Copyright (C) 2010-2019 ARM Limited or its affiliates. All rights reserved.
  13:./Libraries/CMSIS/DSP/Source/FilteringFunctions/arm_conv_q31.c ****  *
  14:./Libraries/CMSIS/DSP/Source/FilteringFunctions/arm_conv_q31.c ****  * SPDX-License-Identifier: Apache-2.0
  15:./Libraries/CMSIS/DSP/Source/FilteringFunctions/arm_conv_q31.c ****  *
  16:./Libraries/CMSIS/DSP/Source/FilteringFunctions/arm_conv_q31.c ****  * Licensed under the Apache License, Version 2.0 (the License); you may
  17:./Libraries/CMSIS/DSP/Source/FilteringFunctions/arm_conv_q31.c ****  * not use this file except in compliance with the License.
  18:./Libraries/CMSIS/DSP/Source/FilteringFunctions/arm_conv_q31.c ****  * You may obtain a copy of the License at
  19:./Libraries/CMSIS/DSP/Source/FilteringFunctions/arm_conv_q31.c ****  *
  20:./Libraries/CMSIS/DSP/Source/FilteringFunctions/arm_conv_q31.c ****  * www.apache.org/licenses/LICENSE-2.0
  21:./Libraries/CMSIS/DSP/Source/FilteringFunctions/arm_conv_q31.c ****  *
  22:./Libraries/CMSIS/DSP/Source/FilteringFunctions/arm_conv_q31.c ****  * Unless required by applicable law or agreed to in writing, software
  23:./Libraries/CMSIS/DSP/Source/FilteringFunctions/arm_conv_q31.c ****  * distributed under the License is distributed on an AS IS BASIS, WITHOUT
  24:./Libraries/CMSIS/DSP/Source/FilteringFunctions/arm_conv_q31.c ****  * WARRANTIES OR CONDITIONS OF ANY KIND, either express or implied.
  25:./Libraries/CMSIS/DSP/Source/FilteringFunctions/arm_conv_q31.c ****  * See the License for the specific language governing permissions and
  26:./Libraries/CMSIS/DSP/Source/FilteringFunctions/arm_conv_q31.c ****  * limitations under the License.
  27:./Libraries/CMSIS/DSP/Source/FilteringFunctions/arm_conv_q31.c ****  */
  28:./Libraries/CMSIS/DSP/Source/FilteringFunctions/arm_conv_q31.c **** 
  29:./Libraries/CMSIS/DSP/Source/FilteringFunctions/arm_conv_q31.c **** #include "arm_math.h"
  30:./Libraries/CMSIS/DSP/Source/FilteringFunctions/arm_conv_q31.c **** 
  31:./Libraries/CMSIS/DSP/Source/FilteringFunctions/arm_conv_q31.c **** /**
ARM GAS  /tmp/ccdicNnT.s 			page 2


  32:./Libraries/CMSIS/DSP/Source/FilteringFunctions/arm_conv_q31.c ****   @ingroup groupFilters
  33:./Libraries/CMSIS/DSP/Source/FilteringFunctions/arm_conv_q31.c ****  */
  34:./Libraries/CMSIS/DSP/Source/FilteringFunctions/arm_conv_q31.c **** 
  35:./Libraries/CMSIS/DSP/Source/FilteringFunctions/arm_conv_q31.c **** /**
  36:./Libraries/CMSIS/DSP/Source/FilteringFunctions/arm_conv_q31.c ****   @addtogroup Conv
  37:./Libraries/CMSIS/DSP/Source/FilteringFunctions/arm_conv_q31.c ****   @{
  38:./Libraries/CMSIS/DSP/Source/FilteringFunctions/arm_conv_q31.c ****  */
  39:./Libraries/CMSIS/DSP/Source/FilteringFunctions/arm_conv_q31.c **** 
  40:./Libraries/CMSIS/DSP/Source/FilteringFunctions/arm_conv_q31.c **** /**
  41:./Libraries/CMSIS/DSP/Source/FilteringFunctions/arm_conv_q31.c ****   @brief         Convolution of Q31 sequences.
  42:./Libraries/CMSIS/DSP/Source/FilteringFunctions/arm_conv_q31.c ****   @param[in]     pSrcA      points to the first input sequence
  43:./Libraries/CMSIS/DSP/Source/FilteringFunctions/arm_conv_q31.c ****   @param[in]     srcALen    length of the first input sequence
  44:./Libraries/CMSIS/DSP/Source/FilteringFunctions/arm_conv_q31.c ****   @param[in]     pSrcB      points to the second input sequence
  45:./Libraries/CMSIS/DSP/Source/FilteringFunctions/arm_conv_q31.c ****   @param[in]     srcBLen    length of the second input sequence
  46:./Libraries/CMSIS/DSP/Source/FilteringFunctions/arm_conv_q31.c ****   @param[out]    pDst       points to the location where the output result is written.  Length srcA
  47:./Libraries/CMSIS/DSP/Source/FilteringFunctions/arm_conv_q31.c ****   @return        none
  48:./Libraries/CMSIS/DSP/Source/FilteringFunctions/arm_conv_q31.c **** 
  49:./Libraries/CMSIS/DSP/Source/FilteringFunctions/arm_conv_q31.c ****   @par           Scaling and Overflow Behavior
  50:./Libraries/CMSIS/DSP/Source/FilteringFunctions/arm_conv_q31.c ****                    The function is implemented using an internal 64-bit accumulator.
  51:./Libraries/CMSIS/DSP/Source/FilteringFunctions/arm_conv_q31.c ****                    The accumulator has a 2.62 format and maintains full precision of the intermedia
  52:./Libraries/CMSIS/DSP/Source/FilteringFunctions/arm_conv_q31.c ****                    There is no saturation on intermediate additions.
  53:./Libraries/CMSIS/DSP/Source/FilteringFunctions/arm_conv_q31.c ****                    Thus, if the accumulator overflows it wraps around and distorts the result.
  54:./Libraries/CMSIS/DSP/Source/FilteringFunctions/arm_conv_q31.c ****                    The input signals should be scaled down to avoid intermediate overflows.
  55:./Libraries/CMSIS/DSP/Source/FilteringFunctions/arm_conv_q31.c ****                    Scale down the inputs by log2(min(srcALen, srcBLen)) (log2 is read as log to the
  56:./Libraries/CMSIS/DSP/Source/FilteringFunctions/arm_conv_q31.c ****                    as maximum of min(srcALen, srcBLen) number of additions are carried internally.
  57:./Libraries/CMSIS/DSP/Source/FilteringFunctions/arm_conv_q31.c ****                    The 2.62 accumulator is right shifted by 31 bits and saturated to 1.31 format to
  58:./Libraries/CMSIS/DSP/Source/FilteringFunctions/arm_conv_q31.c **** 
  59:./Libraries/CMSIS/DSP/Source/FilteringFunctions/arm_conv_q31.c ****   @remark
  60:./Libraries/CMSIS/DSP/Source/FilteringFunctions/arm_conv_q31.c ****                    Refer to \ref arm_conv_fast_q31() for a faster but less precise implementation o
  61:./Libraries/CMSIS/DSP/Source/FilteringFunctions/arm_conv_q31.c ****  */
  62:./Libraries/CMSIS/DSP/Source/FilteringFunctions/arm_conv_q31.c **** 
  63:./Libraries/CMSIS/DSP/Source/FilteringFunctions/arm_conv_q31.c **** void arm_conv_q31(
  64:./Libraries/CMSIS/DSP/Source/FilteringFunctions/arm_conv_q31.c ****   const q31_t * pSrcA,
  65:./Libraries/CMSIS/DSP/Source/FilteringFunctions/arm_conv_q31.c ****         uint32_t srcALen,
  66:./Libraries/CMSIS/DSP/Source/FilteringFunctions/arm_conv_q31.c ****   const q31_t * pSrcB,
  67:./Libraries/CMSIS/DSP/Source/FilteringFunctions/arm_conv_q31.c ****         uint32_t srcBLen,
  68:./Libraries/CMSIS/DSP/Source/FilteringFunctions/arm_conv_q31.c ****         q31_t * pDst)
  69:./Libraries/CMSIS/DSP/Source/FilteringFunctions/arm_conv_q31.c **** {
  28              		.loc 1 69 1
  29              		.cfi_startproc
  30              		@ args = 4, pretend = 0, frame = 88
  31              		@ frame_needed = 1, uses_anonymous_args = 0
  32              		@ link register save eliminated.
  33 0000 2DE9F00F 		push	{r4, r5, r6, r7, r8, r9, r10, fp}
  34              	.LCFI0:
  35              		.cfi_def_cfa_offset 32
  36              		.cfi_offset 4, -32
  37              		.cfi_offset 5, -28
  38              		.cfi_offset 6, -24
  39              		.cfi_offset 7, -20
  40              		.cfi_offset 8, -16
  41              		.cfi_offset 9, -12
  42              		.cfi_offset 10, -8
  43              		.cfi_offset 11, -4
  44 0004 96B0     		sub	sp, sp, #88
  45              	.LCFI1:
  46              		.cfi_def_cfa_offset 120
ARM GAS  /tmp/ccdicNnT.s 			page 3


  47 0006 00AF     		add	r7, sp, #0
  48              	.LCFI2:
  49              		.cfi_def_cfa_register 7
  50 0008 7861     		str	r0, [r7, #20]
  51 000a 3961     		str	r1, [r7, #16]
  52 000c FA60     		str	r2, [r7, #12]
  53 000e BB60     		str	r3, [r7, #8]
  70:./Libraries/CMSIS/DSP/Source/FilteringFunctions/arm_conv_q31.c **** 
  71:./Libraries/CMSIS/DSP/Source/FilteringFunctions/arm_conv_q31.c **** #if (1)
  72:./Libraries/CMSIS/DSP/Source/FilteringFunctions/arm_conv_q31.c **** //#if !defined(ARM_MATH_CM0_FAMILY)
  73:./Libraries/CMSIS/DSP/Source/FilteringFunctions/arm_conv_q31.c **** 
  74:./Libraries/CMSIS/DSP/Source/FilteringFunctions/arm_conv_q31.c ****   const q31_t *pIn1;                                   /* InputA pointer */
  75:./Libraries/CMSIS/DSP/Source/FilteringFunctions/arm_conv_q31.c ****   const q31_t *pIn2;                                   /* InputB pointer */
  76:./Libraries/CMSIS/DSP/Source/FilteringFunctions/arm_conv_q31.c ****         q31_t *pOut = pDst;                            /* Output pointer */
  54              		.loc 1 76 16
  55 0010 BB6F     		ldr	r3, [r7, #120]
  56 0012 FB64     		str	r3, [r7, #76]
  77:./Libraries/CMSIS/DSP/Source/FilteringFunctions/arm_conv_q31.c ****   const q31_t *px;                                     /* Intermediate inputA pointer */
  78:./Libraries/CMSIS/DSP/Source/FilteringFunctions/arm_conv_q31.c ****   const q31_t *py;                                     /* Intermediate inputB pointer */
  79:./Libraries/CMSIS/DSP/Source/FilteringFunctions/arm_conv_q31.c ****   const q31_t *pSrc1, *pSrc2;                          /* Intermediate pointers */
  80:./Libraries/CMSIS/DSP/Source/FilteringFunctions/arm_conv_q31.c ****         q63_t sum;                                     /* Accumulators */
  81:./Libraries/CMSIS/DSP/Source/FilteringFunctions/arm_conv_q31.c ****         uint32_t blockSize1, blockSize2, blockSize3;   /* Loop counters */
  82:./Libraries/CMSIS/DSP/Source/FilteringFunctions/arm_conv_q31.c ****         uint32_t j, k, count, blkCnt;                  /* Loop counters */
  83:./Libraries/CMSIS/DSP/Source/FilteringFunctions/arm_conv_q31.c **** 
  84:./Libraries/CMSIS/DSP/Source/FilteringFunctions/arm_conv_q31.c **** #if defined (ARM_MATH_LOOPUNROLL)
  85:./Libraries/CMSIS/DSP/Source/FilteringFunctions/arm_conv_q31.c ****         q63_t acc0, acc1, acc2;                        /* Accumulators */
  86:./Libraries/CMSIS/DSP/Source/FilteringFunctions/arm_conv_q31.c ****         q31_t x0, x1, x2, c0;                          /* Temporary variables to hold state and coe
  87:./Libraries/CMSIS/DSP/Source/FilteringFunctions/arm_conv_q31.c **** #endif
  88:./Libraries/CMSIS/DSP/Source/FilteringFunctions/arm_conv_q31.c **** 
  89:./Libraries/CMSIS/DSP/Source/FilteringFunctions/arm_conv_q31.c ****   /* The algorithm implementation is based on the lengths of the inputs. */
  90:./Libraries/CMSIS/DSP/Source/FilteringFunctions/arm_conv_q31.c ****   /* srcB is always made to slide across srcA. */
  91:./Libraries/CMSIS/DSP/Source/FilteringFunctions/arm_conv_q31.c ****   /* So srcBLen is always considered as shorter or equal to srcALen */
  92:./Libraries/CMSIS/DSP/Source/FilteringFunctions/arm_conv_q31.c ****   if (srcALen >= srcBLen)
  57              		.loc 1 92 6
  58 0014 3A69     		ldr	r2, [r7, #16]
  59 0016 BB68     		ldr	r3, [r7, #8]
  60 0018 9A42     		cmp	r2, r3
  61 001a 04D3     		bcc	.L2
  93:./Libraries/CMSIS/DSP/Source/FilteringFunctions/arm_conv_q31.c ****   {
  94:./Libraries/CMSIS/DSP/Source/FilteringFunctions/arm_conv_q31.c ****     /* Initialization of inputA pointer */
  95:./Libraries/CMSIS/DSP/Source/FilteringFunctions/arm_conv_q31.c ****     pIn1 = pSrcA;
  62              		.loc 1 95 10
  63 001c 7B69     		ldr	r3, [r7, #20]
  64 001e 7B65     		str	r3, [r7, #84]
  96:./Libraries/CMSIS/DSP/Source/FilteringFunctions/arm_conv_q31.c **** 
  97:./Libraries/CMSIS/DSP/Source/FilteringFunctions/arm_conv_q31.c ****     /* Initialization of inputB pointer */
  98:./Libraries/CMSIS/DSP/Source/FilteringFunctions/arm_conv_q31.c ****     pIn2 = pSrcB;
  65              		.loc 1 98 10
  66 0020 FB68     		ldr	r3, [r7, #12]
  67 0022 3B65     		str	r3, [r7, #80]
  68 0024 09E0     		b	.L3
  69              	.L2:
  99:./Libraries/CMSIS/DSP/Source/FilteringFunctions/arm_conv_q31.c ****   }
 100:./Libraries/CMSIS/DSP/Source/FilteringFunctions/arm_conv_q31.c ****   else
 101:./Libraries/CMSIS/DSP/Source/FilteringFunctions/arm_conv_q31.c ****   {
 102:./Libraries/CMSIS/DSP/Source/FilteringFunctions/arm_conv_q31.c ****     /* Initialization of inputA pointer */
 103:./Libraries/CMSIS/DSP/Source/FilteringFunctions/arm_conv_q31.c ****     pIn1 = pSrcB;
ARM GAS  /tmp/ccdicNnT.s 			page 4


  70              		.loc 1 103 10
  71 0026 FB68     		ldr	r3, [r7, #12]
  72 0028 7B65     		str	r3, [r7, #84]
 104:./Libraries/CMSIS/DSP/Source/FilteringFunctions/arm_conv_q31.c **** 
 105:./Libraries/CMSIS/DSP/Source/FilteringFunctions/arm_conv_q31.c ****     /* Initialization of inputB pointer */
 106:./Libraries/CMSIS/DSP/Source/FilteringFunctions/arm_conv_q31.c ****     pIn2 = pSrcA;
  73              		.loc 1 106 10
  74 002a 7B69     		ldr	r3, [r7, #20]
  75 002c 3B65     		str	r3, [r7, #80]
 107:./Libraries/CMSIS/DSP/Source/FilteringFunctions/arm_conv_q31.c **** 
 108:./Libraries/CMSIS/DSP/Source/FilteringFunctions/arm_conv_q31.c ****     /* srcBLen is always considered as shorter or equal to srcALen */
 109:./Libraries/CMSIS/DSP/Source/FilteringFunctions/arm_conv_q31.c ****     j = srcBLen;
  76              		.loc 1 109 7
  77 002e BB68     		ldr	r3, [r7, #8]
  78 0030 3B62     		str	r3, [r7, #32]
 110:./Libraries/CMSIS/DSP/Source/FilteringFunctions/arm_conv_q31.c ****     srcBLen = srcALen;
  79              		.loc 1 110 13
  80 0032 3B69     		ldr	r3, [r7, #16]
  81 0034 BB60     		str	r3, [r7, #8]
 111:./Libraries/CMSIS/DSP/Source/FilteringFunctions/arm_conv_q31.c ****     srcALen = j;
  82              		.loc 1 111 13
  83 0036 3B6A     		ldr	r3, [r7, #32]
  84 0038 3B61     		str	r3, [r7, #16]
  85              	.L3:
 112:./Libraries/CMSIS/DSP/Source/FilteringFunctions/arm_conv_q31.c ****   }
 113:./Libraries/CMSIS/DSP/Source/FilteringFunctions/arm_conv_q31.c **** 
 114:./Libraries/CMSIS/DSP/Source/FilteringFunctions/arm_conv_q31.c ****   /* conv(x,y) at n = x[n] * y[0] + x[n-1] * y[1] + x[n-2] * y[2] + ...+ x[n-N+1] * y[N -1] */
 115:./Libraries/CMSIS/DSP/Source/FilteringFunctions/arm_conv_q31.c ****   /* The function is internally
 116:./Libraries/CMSIS/DSP/Source/FilteringFunctions/arm_conv_q31.c ****    * divided into three stages according to the number of multiplications that has to be
 117:./Libraries/CMSIS/DSP/Source/FilteringFunctions/arm_conv_q31.c ****    * taken place between inputA samples and inputB samples. In the first stage of the
 118:./Libraries/CMSIS/DSP/Source/FilteringFunctions/arm_conv_q31.c ****    * algorithm, the multiplications increase by one for every iteration.
 119:./Libraries/CMSIS/DSP/Source/FilteringFunctions/arm_conv_q31.c ****    * In the second stage of the algorithm, srcBLen number of multiplications are done.
 120:./Libraries/CMSIS/DSP/Source/FilteringFunctions/arm_conv_q31.c ****    * In the third stage of the algorithm, the multiplications decrease by one
 121:./Libraries/CMSIS/DSP/Source/FilteringFunctions/arm_conv_q31.c ****    * for every iteration. */
 122:./Libraries/CMSIS/DSP/Source/FilteringFunctions/arm_conv_q31.c **** 
 123:./Libraries/CMSIS/DSP/Source/FilteringFunctions/arm_conv_q31.c ****   /* The algorithm is implemented in three stages.
 124:./Libraries/CMSIS/DSP/Source/FilteringFunctions/arm_conv_q31.c ****      The loop counters of each stage is initiated here. */
 125:./Libraries/CMSIS/DSP/Source/FilteringFunctions/arm_conv_q31.c ****   blockSize1 = srcBLen - 1U;
  86              		.loc 1 125 14
  87 003a BB68     		ldr	r3, [r7, #8]
  88 003c 013B     		subs	r3, r3, #1
  89 003e 7B63     		str	r3, [r7, #52]
 126:./Libraries/CMSIS/DSP/Source/FilteringFunctions/arm_conv_q31.c ****   blockSize2 = srcALen - (srcBLen - 1U);
  90              		.loc 1 126 24
  91 0040 3A69     		ldr	r2, [r7, #16]
  92 0042 BB68     		ldr	r3, [r7, #8]
  93 0044 D31A     		subs	r3, r2, r3
  94              		.loc 1 126 14
  95 0046 0133     		adds	r3, r3, #1
  96 0048 FB61     		str	r3, [r7, #28]
 127:./Libraries/CMSIS/DSP/Source/FilteringFunctions/arm_conv_q31.c ****   blockSize3 = blockSize1;
  97              		.loc 1 127 14
  98 004a 7B6B     		ldr	r3, [r7, #52]
  99 004c 3B63     		str	r3, [r7, #48]
 128:./Libraries/CMSIS/DSP/Source/FilteringFunctions/arm_conv_q31.c **** 
 129:./Libraries/CMSIS/DSP/Source/FilteringFunctions/arm_conv_q31.c ****   /* --------------------------
 130:./Libraries/CMSIS/DSP/Source/FilteringFunctions/arm_conv_q31.c ****    * Initializations of stage1
ARM GAS  /tmp/ccdicNnT.s 			page 5


 131:./Libraries/CMSIS/DSP/Source/FilteringFunctions/arm_conv_q31.c ****    * -------------------------*/
 132:./Libraries/CMSIS/DSP/Source/FilteringFunctions/arm_conv_q31.c **** 
 133:./Libraries/CMSIS/DSP/Source/FilteringFunctions/arm_conv_q31.c ****   /* sum = x[0] * y[0]
 134:./Libraries/CMSIS/DSP/Source/FilteringFunctions/arm_conv_q31.c ****    * sum = x[0] * y[1] + x[1] * y[0]
 135:./Libraries/CMSIS/DSP/Source/FilteringFunctions/arm_conv_q31.c ****    * ....
 136:./Libraries/CMSIS/DSP/Source/FilteringFunctions/arm_conv_q31.c ****    * sum = x[0] * y[srcBlen - 1] + x[1] * y[srcBlen - 2] +...+ x[srcBLen - 1] * y[0]
 137:./Libraries/CMSIS/DSP/Source/FilteringFunctions/arm_conv_q31.c ****    */
 138:./Libraries/CMSIS/DSP/Source/FilteringFunctions/arm_conv_q31.c **** 
 139:./Libraries/CMSIS/DSP/Source/FilteringFunctions/arm_conv_q31.c ****   /* In this stage the MAC operations are increased by 1 for every iteration.
 140:./Libraries/CMSIS/DSP/Source/FilteringFunctions/arm_conv_q31.c ****      The count variable holds the number of MAC operations performed */
 141:./Libraries/CMSIS/DSP/Source/FilteringFunctions/arm_conv_q31.c ****   count = 1U;
 100              		.loc 1 141 9
 101 004e 0123     		movs	r3, #1
 102 0050 BB62     		str	r3, [r7, #40]
 142:./Libraries/CMSIS/DSP/Source/FilteringFunctions/arm_conv_q31.c **** 
 143:./Libraries/CMSIS/DSP/Source/FilteringFunctions/arm_conv_q31.c ****   /* Working pointer of inputA */
 144:./Libraries/CMSIS/DSP/Source/FilteringFunctions/arm_conv_q31.c ****   px = pIn1;
 103              		.loc 1 144 6
 104 0052 7B6D     		ldr	r3, [r7, #84]
 105 0054 BB64     		str	r3, [r7, #72]
 145:./Libraries/CMSIS/DSP/Source/FilteringFunctions/arm_conv_q31.c **** 
 146:./Libraries/CMSIS/DSP/Source/FilteringFunctions/arm_conv_q31.c ****   /* Working pointer of inputB */
 147:./Libraries/CMSIS/DSP/Source/FilteringFunctions/arm_conv_q31.c ****   py = pIn2;
 106              		.loc 1 147 6
 107 0056 3B6D     		ldr	r3, [r7, #80]
 108 0058 7B64     		str	r3, [r7, #68]
 148:./Libraries/CMSIS/DSP/Source/FilteringFunctions/arm_conv_q31.c **** 
 149:./Libraries/CMSIS/DSP/Source/FilteringFunctions/arm_conv_q31.c **** 
 150:./Libraries/CMSIS/DSP/Source/FilteringFunctions/arm_conv_q31.c ****   /* ------------------------
 151:./Libraries/CMSIS/DSP/Source/FilteringFunctions/arm_conv_q31.c ****    * Stage1 process
 152:./Libraries/CMSIS/DSP/Source/FilteringFunctions/arm_conv_q31.c ****    * ----------------------*/
 153:./Libraries/CMSIS/DSP/Source/FilteringFunctions/arm_conv_q31.c **** 
 154:./Libraries/CMSIS/DSP/Source/FilteringFunctions/arm_conv_q31.c ****   /* The first stage starts here */
 155:./Libraries/CMSIS/DSP/Source/FilteringFunctions/arm_conv_q31.c ****   while (blockSize1 > 0U)
 109              		.loc 1 155 9
 110 005a 4CE0     		b	.L4
 111              	.L7:
 156:./Libraries/CMSIS/DSP/Source/FilteringFunctions/arm_conv_q31.c ****   {
 157:./Libraries/CMSIS/DSP/Source/FilteringFunctions/arm_conv_q31.c ****     /* Accumulator is made zero for every iteration */
 158:./Libraries/CMSIS/DSP/Source/FilteringFunctions/arm_conv_q31.c ****     sum = 0;
 112              		.loc 1 158 9
 113 005c 4FF00002 		mov	r2, #0
 114 0060 4FF00003 		mov	r3, #0
 115 0064 C7E90E23 		strd	r2, [r7, #56]
 159:./Libraries/CMSIS/DSP/Source/FilteringFunctions/arm_conv_q31.c **** 
 160:./Libraries/CMSIS/DSP/Source/FilteringFunctions/arm_conv_q31.c **** #if defined (ARM_MATH_LOOPUNROLL)
 161:./Libraries/CMSIS/DSP/Source/FilteringFunctions/arm_conv_q31.c **** 
 162:./Libraries/CMSIS/DSP/Source/FilteringFunctions/arm_conv_q31.c ****     /* Loop unrolling: Compute 4 outputs at a time */
 163:./Libraries/CMSIS/DSP/Source/FilteringFunctions/arm_conv_q31.c ****     k = count >> 2U;
 164:./Libraries/CMSIS/DSP/Source/FilteringFunctions/arm_conv_q31.c **** 
 165:./Libraries/CMSIS/DSP/Source/FilteringFunctions/arm_conv_q31.c ****     while (k > 0U)
 166:./Libraries/CMSIS/DSP/Source/FilteringFunctions/arm_conv_q31.c ****     {
 167:./Libraries/CMSIS/DSP/Source/FilteringFunctions/arm_conv_q31.c ****       /* x[0] * y[srcBLen - 1] */
 168:./Libraries/CMSIS/DSP/Source/FilteringFunctions/arm_conv_q31.c ****       sum += (q63_t) *px++ * (*py--);
 169:./Libraries/CMSIS/DSP/Source/FilteringFunctions/arm_conv_q31.c **** 
 170:./Libraries/CMSIS/DSP/Source/FilteringFunctions/arm_conv_q31.c ****       /* x[1] * y[srcBLen - 2] */
 171:./Libraries/CMSIS/DSP/Source/FilteringFunctions/arm_conv_q31.c ****       sum += (q63_t) *px++ * (*py--);
ARM GAS  /tmp/ccdicNnT.s 			page 6


 172:./Libraries/CMSIS/DSP/Source/FilteringFunctions/arm_conv_q31.c **** 
 173:./Libraries/CMSIS/DSP/Source/FilteringFunctions/arm_conv_q31.c ****       /* x[2] * y[srcBLen - 3] */
 174:./Libraries/CMSIS/DSP/Source/FilteringFunctions/arm_conv_q31.c ****       sum += (q63_t) *px++ * (*py--);
 175:./Libraries/CMSIS/DSP/Source/FilteringFunctions/arm_conv_q31.c **** 
 176:./Libraries/CMSIS/DSP/Source/FilteringFunctions/arm_conv_q31.c ****       /* x[3] * y[srcBLen - 4] */
 177:./Libraries/CMSIS/DSP/Source/FilteringFunctions/arm_conv_q31.c ****       sum += (q63_t) *px++ * (*py--);
 178:./Libraries/CMSIS/DSP/Source/FilteringFunctions/arm_conv_q31.c **** 
 179:./Libraries/CMSIS/DSP/Source/FilteringFunctions/arm_conv_q31.c ****       /* Decrement loop counter */
 180:./Libraries/CMSIS/DSP/Source/FilteringFunctions/arm_conv_q31.c ****       k--;
 181:./Libraries/CMSIS/DSP/Source/FilteringFunctions/arm_conv_q31.c ****     }
 182:./Libraries/CMSIS/DSP/Source/FilteringFunctions/arm_conv_q31.c **** 
 183:./Libraries/CMSIS/DSP/Source/FilteringFunctions/arm_conv_q31.c ****     /* Loop unrolling: Compute remaining outputs */
 184:./Libraries/CMSIS/DSP/Source/FilteringFunctions/arm_conv_q31.c ****     k = count % 0x4U;
 185:./Libraries/CMSIS/DSP/Source/FilteringFunctions/arm_conv_q31.c **** 
 186:./Libraries/CMSIS/DSP/Source/FilteringFunctions/arm_conv_q31.c **** #else
 187:./Libraries/CMSIS/DSP/Source/FilteringFunctions/arm_conv_q31.c **** 
 188:./Libraries/CMSIS/DSP/Source/FilteringFunctions/arm_conv_q31.c ****     /* Initialize k with number of samples */
 189:./Libraries/CMSIS/DSP/Source/FilteringFunctions/arm_conv_q31.c ****     k = count;
 116              		.loc 1 189 7
 117 0068 BB6A     		ldr	r3, [r7, #40]
 118 006a FB62     		str	r3, [r7, #44]
 190:./Libraries/CMSIS/DSP/Source/FilteringFunctions/arm_conv_q31.c **** 
 191:./Libraries/CMSIS/DSP/Source/FilteringFunctions/arm_conv_q31.c **** #endif /* #if defined (ARM_MATH_LOOPUNROLL) */
 192:./Libraries/CMSIS/DSP/Source/FilteringFunctions/arm_conv_q31.c **** 
 193:./Libraries/CMSIS/DSP/Source/FilteringFunctions/arm_conv_q31.c ****     while (k > 0U)
 119              		.loc 1 193 11
 120 006c 24E0     		b	.L5
 121              	.L6:
 194:./Libraries/CMSIS/DSP/Source/FilteringFunctions/arm_conv_q31.c ****     {
 195:./Libraries/CMSIS/DSP/Source/FilteringFunctions/arm_conv_q31.c ****       /* Perform the multiply-accumulate */
 196:./Libraries/CMSIS/DSP/Source/FilteringFunctions/arm_conv_q31.c ****       sum += (q63_t) *px++ * *py--;
 122              		.loc 1 196 25
 123 006e BB6C     		ldr	r3, [r7, #72]
 124 0070 1A1D     		adds	r2, r3, #4
 125 0072 BA64     		str	r2, [r7, #72]
 126              		.loc 1 196 22
 127 0074 1B68     		ldr	r3, [r3]
 128              		.loc 1 196 14
 129 0076 1846     		mov	r0, r3
 130 0078 4FEAE071 		asr	r1, r0, #31
 131              		.loc 1 196 33
 132 007c 7B6C     		ldr	r3, [r7, #68]
 133 007e 1A1F     		subs	r2, r3, #4
 134 0080 7A64     		str	r2, [r7, #68]
 135              		.loc 1 196 30
 136 0082 1B68     		ldr	r3, [r3]
 137 0084 1A46     		mov	r2, r3
 138 0086 4FEAE273 		asr	r3, r2, #31
 139              		.loc 1 196 28
 140 008a 02FB01FC 		mul	ip, r2, r1
 141 008e 00FB03F6 		mul	r6, r0, r3
 142 0092 6644     		add	r6, r6, ip
 143 0094 A0FB0223 		umull	r2, r3, r0, r2
 144 0098 F118     		adds	r1, r6, r3
 145 009a 0B46     		mov	r3, r1
 146              		.loc 1 196 11
 147 009c D7E90E01 		ldrd	r0, [r7, #56]
ARM GAS  /tmp/ccdicNnT.s 			page 7


 148 00a0 8618     		adds	r6, r0, r2
 149 00a2 3E60     		str	r6, [r7]
 150 00a4 41EB0303 		adc	r3, r1, r3
 151 00a8 7B60     		str	r3, [r7, #4]
 152 00aa D7E90023 		ldrd	r2, [r7]
 153 00ae C7E90E23 		strd	r2, [r7, #56]
 197:./Libraries/CMSIS/DSP/Source/FilteringFunctions/arm_conv_q31.c **** 
 198:./Libraries/CMSIS/DSP/Source/FilteringFunctions/arm_conv_q31.c ****       /* Decrement loop counter */
 199:./Libraries/CMSIS/DSP/Source/FilteringFunctions/arm_conv_q31.c ****       k--;
 154              		.loc 1 199 8
 155 00b2 FB6A     		ldr	r3, [r7, #44]
 156 00b4 013B     		subs	r3, r3, #1
 157 00b6 FB62     		str	r3, [r7, #44]
 158              	.L5:
 193:./Libraries/CMSIS/DSP/Source/FilteringFunctions/arm_conv_q31.c ****     {
 159              		.loc 1 193 11
 160 00b8 FB6A     		ldr	r3, [r7, #44]
 161 00ba 002B     		cmp	r3, #0
 162 00bc D7D1     		bne	.L6
 200:./Libraries/CMSIS/DSP/Source/FilteringFunctions/arm_conv_q31.c ****     }
 201:./Libraries/CMSIS/DSP/Source/FilteringFunctions/arm_conv_q31.c **** 
 202:./Libraries/CMSIS/DSP/Source/FilteringFunctions/arm_conv_q31.c ****     /* Store the result in the accumulator in the destination buffer. */
 203:./Libraries/CMSIS/DSP/Source/FilteringFunctions/arm_conv_q31.c ****     *pOut++ = (q31_t) (sum >> 31);
 163              		.loc 1 203 28
 164 00be D7E90E01 		ldrd	r0, [r7, #56]
 165 00c2 4FF00002 		mov	r2, #0
 166 00c6 4FF00003 		mov	r3, #0
 167 00ca C20F     		lsrs	r2, r0, #31
 168 00cc 42EA4102 		orr	r2, r2, r1, lsl #1
 169 00d0 CB17     		asrs	r3, r1, #31
 170              		.loc 1 203 10
 171 00d2 F96C     		ldr	r1, [r7, #76]
 172 00d4 081D     		adds	r0, r1, #4
 173 00d6 F864     		str	r0, [r7, #76]
 174              		.loc 1 203 15
 175 00d8 1346     		mov	r3, r2
 176              		.loc 1 203 13
 177 00da 0B60     		str	r3, [r1]
 204:./Libraries/CMSIS/DSP/Source/FilteringFunctions/arm_conv_q31.c **** 
 205:./Libraries/CMSIS/DSP/Source/FilteringFunctions/arm_conv_q31.c ****     /* Update the inputA and inputB pointers for next MAC calculation */
 206:./Libraries/CMSIS/DSP/Source/FilteringFunctions/arm_conv_q31.c ****     py = pIn2 + count;
 178              		.loc 1 206 15
 179 00dc BB6A     		ldr	r3, [r7, #40]
 180 00de 9B00     		lsls	r3, r3, #2
 181              		.loc 1 206 8
 182 00e0 3A6D     		ldr	r2, [r7, #80]
 183 00e2 1344     		add	r3, r3, r2
 184 00e4 7B64     		str	r3, [r7, #68]
 207:./Libraries/CMSIS/DSP/Source/FilteringFunctions/arm_conv_q31.c ****     px = pIn1;
 185              		.loc 1 207 8
 186 00e6 7B6D     		ldr	r3, [r7, #84]
 187 00e8 BB64     		str	r3, [r7, #72]
 208:./Libraries/CMSIS/DSP/Source/FilteringFunctions/arm_conv_q31.c **** 
 209:./Libraries/CMSIS/DSP/Source/FilteringFunctions/arm_conv_q31.c ****     /* Increment MAC count */
 210:./Libraries/CMSIS/DSP/Source/FilteringFunctions/arm_conv_q31.c ****     count++;
 188              		.loc 1 210 10
 189 00ea BB6A     		ldr	r3, [r7, #40]
ARM GAS  /tmp/ccdicNnT.s 			page 8


 190 00ec 0133     		adds	r3, r3, #1
 191 00ee BB62     		str	r3, [r7, #40]
 211:./Libraries/CMSIS/DSP/Source/FilteringFunctions/arm_conv_q31.c **** 
 212:./Libraries/CMSIS/DSP/Source/FilteringFunctions/arm_conv_q31.c ****     /* Decrement loop counter */
 213:./Libraries/CMSIS/DSP/Source/FilteringFunctions/arm_conv_q31.c ****     blockSize1--;
 192              		.loc 1 213 15
 193 00f0 7B6B     		ldr	r3, [r7, #52]
 194 00f2 013B     		subs	r3, r3, #1
 195 00f4 7B63     		str	r3, [r7, #52]
 196              	.L4:
 155:./Libraries/CMSIS/DSP/Source/FilteringFunctions/arm_conv_q31.c ****   {
 197              		.loc 1 155 9
 198 00f6 7B6B     		ldr	r3, [r7, #52]
 199 00f8 002B     		cmp	r3, #0
 200 00fa AFD1     		bne	.L7
 214:./Libraries/CMSIS/DSP/Source/FilteringFunctions/arm_conv_q31.c ****   }
 215:./Libraries/CMSIS/DSP/Source/FilteringFunctions/arm_conv_q31.c **** 
 216:./Libraries/CMSIS/DSP/Source/FilteringFunctions/arm_conv_q31.c ****   /* --------------------------
 217:./Libraries/CMSIS/DSP/Source/FilteringFunctions/arm_conv_q31.c ****    * Initializations of stage2
 218:./Libraries/CMSIS/DSP/Source/FilteringFunctions/arm_conv_q31.c ****    * ------------------------*/
 219:./Libraries/CMSIS/DSP/Source/FilteringFunctions/arm_conv_q31.c **** 
 220:./Libraries/CMSIS/DSP/Source/FilteringFunctions/arm_conv_q31.c ****   /* sum = x[0] * y[srcBLen-1] + x[1] * y[srcBLen-2] +...+ x[srcBLen-1] * y[0]
 221:./Libraries/CMSIS/DSP/Source/FilteringFunctions/arm_conv_q31.c ****    * sum = x[1] * y[srcBLen-1] + x[2] * y[srcBLen-2] +...+ x[srcBLen]   * y[0]
 222:./Libraries/CMSIS/DSP/Source/FilteringFunctions/arm_conv_q31.c ****    * ....
 223:./Libraries/CMSIS/DSP/Source/FilteringFunctions/arm_conv_q31.c ****    * sum = x[srcALen-srcBLen-2] * y[srcBLen-1] + x[srcALen] * y[srcBLen-2] +...+ x[srcALen-1] * y[0
 224:./Libraries/CMSIS/DSP/Source/FilteringFunctions/arm_conv_q31.c ****    */
 225:./Libraries/CMSIS/DSP/Source/FilteringFunctions/arm_conv_q31.c **** 
 226:./Libraries/CMSIS/DSP/Source/FilteringFunctions/arm_conv_q31.c ****   /* Working pointer of inputA */
 227:./Libraries/CMSIS/DSP/Source/FilteringFunctions/arm_conv_q31.c ****   px = pIn1;
 201              		.loc 1 227 6
 202 00fc 7B6D     		ldr	r3, [r7, #84]
 203 00fe BB64     		str	r3, [r7, #72]
 228:./Libraries/CMSIS/DSP/Source/FilteringFunctions/arm_conv_q31.c **** 
 229:./Libraries/CMSIS/DSP/Source/FilteringFunctions/arm_conv_q31.c ****   /* Working pointer of inputB */
 230:./Libraries/CMSIS/DSP/Source/FilteringFunctions/arm_conv_q31.c ****   pSrc2 = pIn2 + (srcBLen - 1U);
 204              		.loc 1 230 16
 205 0100 BA68     		ldr	r2, [r7, #8]
 206 0102 6FF04043 		mvn	r3, #-1073741824
 207 0106 1344     		add	r3, r3, r2
 208 0108 9B00     		lsls	r3, r3, #2
 209              		.loc 1 230 9
 210 010a 3A6D     		ldr	r2, [r7, #80]
 211 010c 1344     		add	r3, r3, r2
 212 010e BB61     		str	r3, [r7, #24]
 231:./Libraries/CMSIS/DSP/Source/FilteringFunctions/arm_conv_q31.c ****   py = pSrc2;
 213              		.loc 1 231 6
 214 0110 BB69     		ldr	r3, [r7, #24]
 215 0112 7B64     		str	r3, [r7, #68]
 232:./Libraries/CMSIS/DSP/Source/FilteringFunctions/arm_conv_q31.c **** 
 233:./Libraries/CMSIS/DSP/Source/FilteringFunctions/arm_conv_q31.c ****   /* count is index by which the pointer pIn1 to be incremented */
 234:./Libraries/CMSIS/DSP/Source/FilteringFunctions/arm_conv_q31.c ****   count = 0U;
 216              		.loc 1 234 9
 217 0114 0023     		movs	r3, #0
 218 0116 BB62     		str	r3, [r7, #40]
 235:./Libraries/CMSIS/DSP/Source/FilteringFunctions/arm_conv_q31.c **** 
 236:./Libraries/CMSIS/DSP/Source/FilteringFunctions/arm_conv_q31.c ****   /* -------------------
 237:./Libraries/CMSIS/DSP/Source/FilteringFunctions/arm_conv_q31.c ****    * Stage2 process
ARM GAS  /tmp/ccdicNnT.s 			page 9


 238:./Libraries/CMSIS/DSP/Source/FilteringFunctions/arm_conv_q31.c ****    * ------------------*/
 239:./Libraries/CMSIS/DSP/Source/FilteringFunctions/arm_conv_q31.c **** 
 240:./Libraries/CMSIS/DSP/Source/FilteringFunctions/arm_conv_q31.c ****   /* Stage2 depends on srcBLen as in this stage srcBLen number of MACS are performed.
 241:./Libraries/CMSIS/DSP/Source/FilteringFunctions/arm_conv_q31.c ****    * So, to loop unroll over blockSize2,
 242:./Libraries/CMSIS/DSP/Source/FilteringFunctions/arm_conv_q31.c ****    * srcBLen should be greater than or equal to 4 */
 243:./Libraries/CMSIS/DSP/Source/FilteringFunctions/arm_conv_q31.c ****   if (srcBLen >= 4U)
 219              		.loc 1 243 6
 220 0118 BB68     		ldr	r3, [r7, #8]
 221 011a 032B     		cmp	r3, #3
 222 011c 50D9     		bls	.L8
 244:./Libraries/CMSIS/DSP/Source/FilteringFunctions/arm_conv_q31.c ****   {
 245:./Libraries/CMSIS/DSP/Source/FilteringFunctions/arm_conv_q31.c **** #if defined (ARM_MATH_LOOPUNROLL)
 246:./Libraries/CMSIS/DSP/Source/FilteringFunctions/arm_conv_q31.c **** 
 247:./Libraries/CMSIS/DSP/Source/FilteringFunctions/arm_conv_q31.c ****     /* Loop unroll by 3 */
 248:./Libraries/CMSIS/DSP/Source/FilteringFunctions/arm_conv_q31.c ****     blkCnt = blockSize2 / 3;
 249:./Libraries/CMSIS/DSP/Source/FilteringFunctions/arm_conv_q31.c **** 
 250:./Libraries/CMSIS/DSP/Source/FilteringFunctions/arm_conv_q31.c ****     while (blkCnt > 0U)
 251:./Libraries/CMSIS/DSP/Source/FilteringFunctions/arm_conv_q31.c ****     {
 252:./Libraries/CMSIS/DSP/Source/FilteringFunctions/arm_conv_q31.c ****       /* Set all accumulators to zero */
 253:./Libraries/CMSIS/DSP/Source/FilteringFunctions/arm_conv_q31.c ****       acc0 = 0;
 254:./Libraries/CMSIS/DSP/Source/FilteringFunctions/arm_conv_q31.c ****       acc1 = 0;
 255:./Libraries/CMSIS/DSP/Source/FilteringFunctions/arm_conv_q31.c ****       acc2 = 0;
 256:./Libraries/CMSIS/DSP/Source/FilteringFunctions/arm_conv_q31.c **** 
 257:./Libraries/CMSIS/DSP/Source/FilteringFunctions/arm_conv_q31.c ****       /* read x[0], x[1], x[2] samples */
 258:./Libraries/CMSIS/DSP/Source/FilteringFunctions/arm_conv_q31.c ****       x0 = *px++;
 259:./Libraries/CMSIS/DSP/Source/FilteringFunctions/arm_conv_q31.c ****       x1 = *px++;
 260:./Libraries/CMSIS/DSP/Source/FilteringFunctions/arm_conv_q31.c **** 
 261:./Libraries/CMSIS/DSP/Source/FilteringFunctions/arm_conv_q31.c ****       /* Apply loop unrolling and compute 3 MACs simultaneously. */
 262:./Libraries/CMSIS/DSP/Source/FilteringFunctions/arm_conv_q31.c ****       k = srcBLen / 3;
 263:./Libraries/CMSIS/DSP/Source/FilteringFunctions/arm_conv_q31.c **** 
 264:./Libraries/CMSIS/DSP/Source/FilteringFunctions/arm_conv_q31.c ****       /* First part of the processing with loop unrolling.  Compute 3 MACs at a time.
 265:./Libraries/CMSIS/DSP/Source/FilteringFunctions/arm_conv_q31.c ****        ** a second loop below computes MACs for the remaining 1 to 2 samples. */
 266:./Libraries/CMSIS/DSP/Source/FilteringFunctions/arm_conv_q31.c ****       do
 267:./Libraries/CMSIS/DSP/Source/FilteringFunctions/arm_conv_q31.c ****       {
 268:./Libraries/CMSIS/DSP/Source/FilteringFunctions/arm_conv_q31.c ****         /* Read y[srcBLen - 1] sample */
 269:./Libraries/CMSIS/DSP/Source/FilteringFunctions/arm_conv_q31.c ****         c0 = *(py);
 270:./Libraries/CMSIS/DSP/Source/FilteringFunctions/arm_conv_q31.c ****         /* Read x[3] sample */
 271:./Libraries/CMSIS/DSP/Source/FilteringFunctions/arm_conv_q31.c ****         x2 = *(px);
 272:./Libraries/CMSIS/DSP/Source/FilteringFunctions/arm_conv_q31.c **** 
 273:./Libraries/CMSIS/DSP/Source/FilteringFunctions/arm_conv_q31.c ****         /* Perform the multiply-accumulate */
 274:./Libraries/CMSIS/DSP/Source/FilteringFunctions/arm_conv_q31.c ****         /* acc0 +=  x[0] * y[srcBLen - 1] */
 275:./Libraries/CMSIS/DSP/Source/FilteringFunctions/arm_conv_q31.c ****         acc0 += ((q63_t) x0 * c0);
 276:./Libraries/CMSIS/DSP/Source/FilteringFunctions/arm_conv_q31.c ****         /* acc1 +=  x[1] * y[srcBLen - 1] */
 277:./Libraries/CMSIS/DSP/Source/FilteringFunctions/arm_conv_q31.c ****         acc1 += ((q63_t) x1 * c0);
 278:./Libraries/CMSIS/DSP/Source/FilteringFunctions/arm_conv_q31.c ****         /* acc2 +=  x[2] * y[srcBLen - 1] */
 279:./Libraries/CMSIS/DSP/Source/FilteringFunctions/arm_conv_q31.c ****         acc2 += ((q63_t) x2 * c0);
 280:./Libraries/CMSIS/DSP/Source/FilteringFunctions/arm_conv_q31.c **** 
 281:./Libraries/CMSIS/DSP/Source/FilteringFunctions/arm_conv_q31.c ****         /* Read y[srcBLen - 2] sample */
 282:./Libraries/CMSIS/DSP/Source/FilteringFunctions/arm_conv_q31.c ****         c0 = *(py - 1U);
 283:./Libraries/CMSIS/DSP/Source/FilteringFunctions/arm_conv_q31.c ****         /* Read x[4] sample */
 284:./Libraries/CMSIS/DSP/Source/FilteringFunctions/arm_conv_q31.c ****         x0 = *(px + 1U);
 285:./Libraries/CMSIS/DSP/Source/FilteringFunctions/arm_conv_q31.c **** 
 286:./Libraries/CMSIS/DSP/Source/FilteringFunctions/arm_conv_q31.c ****         /* Perform the multiply-accumulate */
 287:./Libraries/CMSIS/DSP/Source/FilteringFunctions/arm_conv_q31.c ****         /* acc0 +=  x[1] * y[srcBLen - 2] */
 288:./Libraries/CMSIS/DSP/Source/FilteringFunctions/arm_conv_q31.c ****         acc0 += ((q63_t) x1 * c0);
 289:./Libraries/CMSIS/DSP/Source/FilteringFunctions/arm_conv_q31.c ****         /* acc1 +=  x[2] * y[srcBLen - 2] */
 290:./Libraries/CMSIS/DSP/Source/FilteringFunctions/arm_conv_q31.c ****         acc1 += ((q63_t) x2 * c0);
ARM GAS  /tmp/ccdicNnT.s 			page 10


 291:./Libraries/CMSIS/DSP/Source/FilteringFunctions/arm_conv_q31.c ****         /* acc2 +=  x[3] * y[srcBLen - 2] */
 292:./Libraries/CMSIS/DSP/Source/FilteringFunctions/arm_conv_q31.c ****         acc2 += ((q63_t) x0 * c0);
 293:./Libraries/CMSIS/DSP/Source/FilteringFunctions/arm_conv_q31.c **** 
 294:./Libraries/CMSIS/DSP/Source/FilteringFunctions/arm_conv_q31.c ****         /* Read y[srcBLen - 3] sample */
 295:./Libraries/CMSIS/DSP/Source/FilteringFunctions/arm_conv_q31.c ****         c0 = *(py - 2U);
 296:./Libraries/CMSIS/DSP/Source/FilteringFunctions/arm_conv_q31.c ****         /* Read x[5] sample */
 297:./Libraries/CMSIS/DSP/Source/FilteringFunctions/arm_conv_q31.c ****         x1 = *(px + 2U);
 298:./Libraries/CMSIS/DSP/Source/FilteringFunctions/arm_conv_q31.c **** 
 299:./Libraries/CMSIS/DSP/Source/FilteringFunctions/arm_conv_q31.c ****         /* Perform the multiply-accumulate */
 300:./Libraries/CMSIS/DSP/Source/FilteringFunctions/arm_conv_q31.c ****         /* acc0 +=  x[2] * y[srcBLen - 3] */
 301:./Libraries/CMSIS/DSP/Source/FilteringFunctions/arm_conv_q31.c ****         acc0 += ((q63_t) x2 * c0);
 302:./Libraries/CMSIS/DSP/Source/FilteringFunctions/arm_conv_q31.c ****         /* acc1 +=  x[3] * y[srcBLen - 2] */
 303:./Libraries/CMSIS/DSP/Source/FilteringFunctions/arm_conv_q31.c ****         acc1 += ((q63_t) x0 * c0);
 304:./Libraries/CMSIS/DSP/Source/FilteringFunctions/arm_conv_q31.c ****         /* acc2 +=  x[4] * y[srcBLen - 2] */
 305:./Libraries/CMSIS/DSP/Source/FilteringFunctions/arm_conv_q31.c ****         acc2 += ((q63_t) x1 * c0);
 306:./Libraries/CMSIS/DSP/Source/FilteringFunctions/arm_conv_q31.c **** 
 307:./Libraries/CMSIS/DSP/Source/FilteringFunctions/arm_conv_q31.c ****         /* update scratch pointers */
 308:./Libraries/CMSIS/DSP/Source/FilteringFunctions/arm_conv_q31.c ****         px += 3U;
 309:./Libraries/CMSIS/DSP/Source/FilteringFunctions/arm_conv_q31.c ****         py -= 3U;
 310:./Libraries/CMSIS/DSP/Source/FilteringFunctions/arm_conv_q31.c **** 
 311:./Libraries/CMSIS/DSP/Source/FilteringFunctions/arm_conv_q31.c ****       } while (--k);
 312:./Libraries/CMSIS/DSP/Source/FilteringFunctions/arm_conv_q31.c **** 
 313:./Libraries/CMSIS/DSP/Source/FilteringFunctions/arm_conv_q31.c ****       /* If the srcBLen is not a multiple of 3, compute any remaining MACs here.
 314:./Libraries/CMSIS/DSP/Source/FilteringFunctions/arm_conv_q31.c ****        ** No loop unrolling is used. */
 315:./Libraries/CMSIS/DSP/Source/FilteringFunctions/arm_conv_q31.c ****       k = srcBLen - (3 * (srcBLen / 3));
 316:./Libraries/CMSIS/DSP/Source/FilteringFunctions/arm_conv_q31.c **** 
 317:./Libraries/CMSIS/DSP/Source/FilteringFunctions/arm_conv_q31.c ****       while (k > 0U)
 318:./Libraries/CMSIS/DSP/Source/FilteringFunctions/arm_conv_q31.c ****       {
 319:./Libraries/CMSIS/DSP/Source/FilteringFunctions/arm_conv_q31.c ****         /* Read y[srcBLen - 5] sample */
 320:./Libraries/CMSIS/DSP/Source/FilteringFunctions/arm_conv_q31.c ****         c0 = *py--;
 321:./Libraries/CMSIS/DSP/Source/FilteringFunctions/arm_conv_q31.c ****         /* Read x[7] sample */
 322:./Libraries/CMSIS/DSP/Source/FilteringFunctions/arm_conv_q31.c ****         x2 = *px++;
 323:./Libraries/CMSIS/DSP/Source/FilteringFunctions/arm_conv_q31.c **** 
 324:./Libraries/CMSIS/DSP/Source/FilteringFunctions/arm_conv_q31.c ****         /* Perform the multiply-accumulates */
 325:./Libraries/CMSIS/DSP/Source/FilteringFunctions/arm_conv_q31.c ****         /* acc0 +=  x[4] * y[srcBLen - 5] */
 326:./Libraries/CMSIS/DSP/Source/FilteringFunctions/arm_conv_q31.c ****         acc0 += ((q63_t) x0 * c0);
 327:./Libraries/CMSIS/DSP/Source/FilteringFunctions/arm_conv_q31.c ****         /* acc1 +=  x[5] * y[srcBLen - 5] */
 328:./Libraries/CMSIS/DSP/Source/FilteringFunctions/arm_conv_q31.c ****         acc1 += ((q63_t) x1 * c0);
 329:./Libraries/CMSIS/DSP/Source/FilteringFunctions/arm_conv_q31.c ****         /* acc2 +=  x[6] * y[srcBLen - 5] */
 330:./Libraries/CMSIS/DSP/Source/FilteringFunctions/arm_conv_q31.c ****         acc2 += ((q63_t) x2 * c0);
 331:./Libraries/CMSIS/DSP/Source/FilteringFunctions/arm_conv_q31.c **** 
 332:./Libraries/CMSIS/DSP/Source/FilteringFunctions/arm_conv_q31.c ****         /* Reuse the present samples for the next MAC */
 333:./Libraries/CMSIS/DSP/Source/FilteringFunctions/arm_conv_q31.c ****         x0 = x1;
 334:./Libraries/CMSIS/DSP/Source/FilteringFunctions/arm_conv_q31.c ****         x1 = x2;
 335:./Libraries/CMSIS/DSP/Source/FilteringFunctions/arm_conv_q31.c **** 
 336:./Libraries/CMSIS/DSP/Source/FilteringFunctions/arm_conv_q31.c ****         /* Decrement loop counter */
 337:./Libraries/CMSIS/DSP/Source/FilteringFunctions/arm_conv_q31.c ****         k--;
 338:./Libraries/CMSIS/DSP/Source/FilteringFunctions/arm_conv_q31.c ****       }
 339:./Libraries/CMSIS/DSP/Source/FilteringFunctions/arm_conv_q31.c **** 
 340:./Libraries/CMSIS/DSP/Source/FilteringFunctions/arm_conv_q31.c ****       /* Store the result in the accumulator in the destination buffer. */
 341:./Libraries/CMSIS/DSP/Source/FilteringFunctions/arm_conv_q31.c ****       *pOut++ = (q31_t) (acc0 >> 31);
 342:./Libraries/CMSIS/DSP/Source/FilteringFunctions/arm_conv_q31.c ****       *pOut++ = (q31_t) (acc1 >> 31);
 343:./Libraries/CMSIS/DSP/Source/FilteringFunctions/arm_conv_q31.c ****       *pOut++ = (q31_t) (acc2 >> 31);
 344:./Libraries/CMSIS/DSP/Source/FilteringFunctions/arm_conv_q31.c **** 
 345:./Libraries/CMSIS/DSP/Source/FilteringFunctions/arm_conv_q31.c ****       /* Increment the pointer pIn1 index, count by 3 */
 346:./Libraries/CMSIS/DSP/Source/FilteringFunctions/arm_conv_q31.c ****       count += 3U;
 347:./Libraries/CMSIS/DSP/Source/FilteringFunctions/arm_conv_q31.c **** 
ARM GAS  /tmp/ccdicNnT.s 			page 11


 348:./Libraries/CMSIS/DSP/Source/FilteringFunctions/arm_conv_q31.c ****       /* Update the inputA and inputB pointers for next MAC calculation */
 349:./Libraries/CMSIS/DSP/Source/FilteringFunctions/arm_conv_q31.c ****       px = pIn1 + count;
 350:./Libraries/CMSIS/DSP/Source/FilteringFunctions/arm_conv_q31.c ****       py = pSrc2;
 351:./Libraries/CMSIS/DSP/Source/FilteringFunctions/arm_conv_q31.c **** 
 352:./Libraries/CMSIS/DSP/Source/FilteringFunctions/arm_conv_q31.c ****       /* Decrement loop counter */
 353:./Libraries/CMSIS/DSP/Source/FilteringFunctions/arm_conv_q31.c ****       blkCnt--;
 354:./Libraries/CMSIS/DSP/Source/FilteringFunctions/arm_conv_q31.c ****     }
 355:./Libraries/CMSIS/DSP/Source/FilteringFunctions/arm_conv_q31.c **** 
 356:./Libraries/CMSIS/DSP/Source/FilteringFunctions/arm_conv_q31.c ****     /* Loop unrolling: Compute remaining outputs */
 357:./Libraries/CMSIS/DSP/Source/FilteringFunctions/arm_conv_q31.c ****     blkCnt = blockSize2 - 3 * (blockSize2 / 3);
 358:./Libraries/CMSIS/DSP/Source/FilteringFunctions/arm_conv_q31.c **** 
 359:./Libraries/CMSIS/DSP/Source/FilteringFunctions/arm_conv_q31.c **** #else
 360:./Libraries/CMSIS/DSP/Source/FilteringFunctions/arm_conv_q31.c **** 
 361:./Libraries/CMSIS/DSP/Source/FilteringFunctions/arm_conv_q31.c ****     /* Initialize blkCnt with number of samples */
 362:./Libraries/CMSIS/DSP/Source/FilteringFunctions/arm_conv_q31.c ****     blkCnt = blockSize2;
 223              		.loc 1 362 12
 224 011e FB69     		ldr	r3, [r7, #28]
 225 0120 7B62     		str	r3, [r7, #36]
 363:./Libraries/CMSIS/DSP/Source/FilteringFunctions/arm_conv_q31.c **** 
 364:./Libraries/CMSIS/DSP/Source/FilteringFunctions/arm_conv_q31.c **** #endif /* #if defined (ARM_MATH_LOOPUNROLL) */
 365:./Libraries/CMSIS/DSP/Source/FilteringFunctions/arm_conv_q31.c **** 
 366:./Libraries/CMSIS/DSP/Source/FilteringFunctions/arm_conv_q31.c ****     while (blkCnt > 0U)
 226              		.loc 1 366 11
 227 0122 49E0     		b	.L9
 228              	.L12:
 367:./Libraries/CMSIS/DSP/Source/FilteringFunctions/arm_conv_q31.c ****     {
 368:./Libraries/CMSIS/DSP/Source/FilteringFunctions/arm_conv_q31.c ****       /* Accumulator is made zero for every iteration */
 369:./Libraries/CMSIS/DSP/Source/FilteringFunctions/arm_conv_q31.c ****       sum = 0;
 229              		.loc 1 369 11
 230 0124 4FF00002 		mov	r2, #0
 231 0128 4FF00003 		mov	r3, #0
 232 012c C7E90E23 		strd	r2, [r7, #56]
 370:./Libraries/CMSIS/DSP/Source/FilteringFunctions/arm_conv_q31.c **** 
 371:./Libraries/CMSIS/DSP/Source/FilteringFunctions/arm_conv_q31.c **** #if defined (ARM_MATH_LOOPUNROLL)
 372:./Libraries/CMSIS/DSP/Source/FilteringFunctions/arm_conv_q31.c **** 
 373:./Libraries/CMSIS/DSP/Source/FilteringFunctions/arm_conv_q31.c ****     /* Loop unrolling: Compute 4 outputs at a time */
 374:./Libraries/CMSIS/DSP/Source/FilteringFunctions/arm_conv_q31.c ****       k = srcBLen >> 2U;
 375:./Libraries/CMSIS/DSP/Source/FilteringFunctions/arm_conv_q31.c **** 
 376:./Libraries/CMSIS/DSP/Source/FilteringFunctions/arm_conv_q31.c ****       while (k > 0U)
 377:./Libraries/CMSIS/DSP/Source/FilteringFunctions/arm_conv_q31.c ****       {
 378:./Libraries/CMSIS/DSP/Source/FilteringFunctions/arm_conv_q31.c ****         /* Perform the multiply-accumulates */
 379:./Libraries/CMSIS/DSP/Source/FilteringFunctions/arm_conv_q31.c ****         sum += (q63_t) *px++ * *py--;
 380:./Libraries/CMSIS/DSP/Source/FilteringFunctions/arm_conv_q31.c ****         sum += (q63_t) *px++ * *py--;
 381:./Libraries/CMSIS/DSP/Source/FilteringFunctions/arm_conv_q31.c ****         sum += (q63_t) *px++ * *py--;
 382:./Libraries/CMSIS/DSP/Source/FilteringFunctions/arm_conv_q31.c ****         sum += (q63_t) *px++ * *py--;
 383:./Libraries/CMSIS/DSP/Source/FilteringFunctions/arm_conv_q31.c **** 
 384:./Libraries/CMSIS/DSP/Source/FilteringFunctions/arm_conv_q31.c ****         /* Decrement loop counter */
 385:./Libraries/CMSIS/DSP/Source/FilteringFunctions/arm_conv_q31.c ****         k--;
 386:./Libraries/CMSIS/DSP/Source/FilteringFunctions/arm_conv_q31.c ****       }
 387:./Libraries/CMSIS/DSP/Source/FilteringFunctions/arm_conv_q31.c **** 
 388:./Libraries/CMSIS/DSP/Source/FilteringFunctions/arm_conv_q31.c ****       /* Loop unrolling: Compute remaining outputs */
 389:./Libraries/CMSIS/DSP/Source/FilteringFunctions/arm_conv_q31.c ****       k = srcBLen % 0x4U;
 390:./Libraries/CMSIS/DSP/Source/FilteringFunctions/arm_conv_q31.c **** 
 391:./Libraries/CMSIS/DSP/Source/FilteringFunctions/arm_conv_q31.c **** #else
 392:./Libraries/CMSIS/DSP/Source/FilteringFunctions/arm_conv_q31.c **** 
 393:./Libraries/CMSIS/DSP/Source/FilteringFunctions/arm_conv_q31.c ****       /* Initialize blkCnt with number of samples */
 394:./Libraries/CMSIS/DSP/Source/FilteringFunctions/arm_conv_q31.c ****       k = srcBLen;
ARM GAS  /tmp/ccdicNnT.s 			page 12


 233              		.loc 1 394 9
 234 0130 BB68     		ldr	r3, [r7, #8]
 235 0132 FB62     		str	r3, [r7, #44]
 395:./Libraries/CMSIS/DSP/Source/FilteringFunctions/arm_conv_q31.c **** 
 396:./Libraries/CMSIS/DSP/Source/FilteringFunctions/arm_conv_q31.c **** #endif /* #if defined (ARM_MATH_LOOPUNROLL) */
 397:./Libraries/CMSIS/DSP/Source/FilteringFunctions/arm_conv_q31.c **** 
 398:./Libraries/CMSIS/DSP/Source/FilteringFunctions/arm_conv_q31.c ****       while (k > 0U)
 236              		.loc 1 398 13
 237 0134 21E0     		b	.L10
 238              	.L11:
 399:./Libraries/CMSIS/DSP/Source/FilteringFunctions/arm_conv_q31.c ****       {
 400:./Libraries/CMSIS/DSP/Source/FilteringFunctions/arm_conv_q31.c ****         /* Perform the multiply-accumulate */
 401:./Libraries/CMSIS/DSP/Source/FilteringFunctions/arm_conv_q31.c ****         sum += (q63_t) *px++ * *py--;
 239              		.loc 1 401 27
 240 0136 BB6C     		ldr	r3, [r7, #72]
 241 0138 1A1D     		adds	r2, r3, #4
 242 013a BA64     		str	r2, [r7, #72]
 243              		.loc 1 401 24
 244 013c 1B68     		ldr	r3, [r3]
 245              		.loc 1 401 16
 246 013e 1846     		mov	r0, r3
 247 0140 4FEAE071 		asr	r1, r0, #31
 248              		.loc 1 401 35
 249 0144 7B6C     		ldr	r3, [r7, #68]
 250 0146 1A1F     		subs	r2, r3, #4
 251 0148 7A64     		str	r2, [r7, #68]
 252              		.loc 1 401 32
 253 014a 1B68     		ldr	r3, [r3]
 254 014c 1A46     		mov	r2, r3
 255 014e 4FEAE273 		asr	r3, r2, #31
 256              		.loc 1 401 30
 257 0152 02FB01FC 		mul	ip, r2, r1
 258 0156 00FB03F6 		mul	r6, r0, r3
 259 015a 6644     		add	r6, r6, ip
 260 015c A0FB0223 		umull	r2, r3, r0, r2
 261 0160 F118     		adds	r1, r6, r3
 262 0162 0B46     		mov	r3, r1
 263              		.loc 1 401 13
 264 0164 D7E90E01 		ldrd	r0, [r7, #56]
 265 0168 10EB020A 		adds	r10, r0, r2
 266 016c 41EB030B 		adc	fp, r1, r3
 267 0170 C7E90EAB 		strd	r10, [r7, #56]
 402:./Libraries/CMSIS/DSP/Source/FilteringFunctions/arm_conv_q31.c **** 
 403:./Libraries/CMSIS/DSP/Source/FilteringFunctions/arm_conv_q31.c ****         /* Decrement the loop counter */
 404:./Libraries/CMSIS/DSP/Source/FilteringFunctions/arm_conv_q31.c ****         k--;
 268              		.loc 1 404 10
 269 0174 FB6A     		ldr	r3, [r7, #44]
 270 0176 013B     		subs	r3, r3, #1
 271 0178 FB62     		str	r3, [r7, #44]
 272              	.L10:
 398:./Libraries/CMSIS/DSP/Source/FilteringFunctions/arm_conv_q31.c ****       {
 273              		.loc 1 398 13
 274 017a FB6A     		ldr	r3, [r7, #44]
 275 017c 002B     		cmp	r3, #0
 276 017e DAD1     		bne	.L11
 405:./Libraries/CMSIS/DSP/Source/FilteringFunctions/arm_conv_q31.c ****       }
 406:./Libraries/CMSIS/DSP/Source/FilteringFunctions/arm_conv_q31.c **** 
ARM GAS  /tmp/ccdicNnT.s 			page 13


 407:./Libraries/CMSIS/DSP/Source/FilteringFunctions/arm_conv_q31.c ****       /* Store the result in the accumulator in the destination buffer. */
 408:./Libraries/CMSIS/DSP/Source/FilteringFunctions/arm_conv_q31.c ****       *pOut++ = (q31_t) (sum >> 31);
 277              		.loc 1 408 30
 278 0180 D7E90E01 		ldrd	r0, [r7, #56]
 279 0184 4FF00002 		mov	r2, #0
 280 0188 4FF00003 		mov	r3, #0
 281 018c C20F     		lsrs	r2, r0, #31
 282 018e 42EA4102 		orr	r2, r2, r1, lsl #1
 283 0192 CB17     		asrs	r3, r1, #31
 284              		.loc 1 408 12
 285 0194 F96C     		ldr	r1, [r7, #76]
 286 0196 081D     		adds	r0, r1, #4
 287 0198 F864     		str	r0, [r7, #76]
 288              		.loc 1 408 17
 289 019a 1346     		mov	r3, r2
 290              		.loc 1 408 15
 291 019c 0B60     		str	r3, [r1]
 409:./Libraries/CMSIS/DSP/Source/FilteringFunctions/arm_conv_q31.c **** 
 410:./Libraries/CMSIS/DSP/Source/FilteringFunctions/arm_conv_q31.c ****       /* Increment MAC count */
 411:./Libraries/CMSIS/DSP/Source/FilteringFunctions/arm_conv_q31.c ****       count++;
 292              		.loc 1 411 12
 293 019e BB6A     		ldr	r3, [r7, #40]
 294 01a0 0133     		adds	r3, r3, #1
 295 01a2 BB62     		str	r3, [r7, #40]
 412:./Libraries/CMSIS/DSP/Source/FilteringFunctions/arm_conv_q31.c **** 
 413:./Libraries/CMSIS/DSP/Source/FilteringFunctions/arm_conv_q31.c ****       /* Update the inputA and inputB pointers for next MAC calculation */
 414:./Libraries/CMSIS/DSP/Source/FilteringFunctions/arm_conv_q31.c ****       px = pIn1 + count;
 296              		.loc 1 414 17
 297 01a4 BB6A     		ldr	r3, [r7, #40]
 298 01a6 9B00     		lsls	r3, r3, #2
 299              		.loc 1 414 10
 300 01a8 7A6D     		ldr	r2, [r7, #84]
 301 01aa 1344     		add	r3, r3, r2
 302 01ac BB64     		str	r3, [r7, #72]
 415:./Libraries/CMSIS/DSP/Source/FilteringFunctions/arm_conv_q31.c ****       py = pSrc2;
 303              		.loc 1 415 10
 304 01ae BB69     		ldr	r3, [r7, #24]
 305 01b0 7B64     		str	r3, [r7, #68]
 416:./Libraries/CMSIS/DSP/Source/FilteringFunctions/arm_conv_q31.c **** 
 417:./Libraries/CMSIS/DSP/Source/FilteringFunctions/arm_conv_q31.c ****       /* Decrement loop counter */
 418:./Libraries/CMSIS/DSP/Source/FilteringFunctions/arm_conv_q31.c ****       blkCnt--;
 306              		.loc 1 418 13
 307 01b2 7B6A     		ldr	r3, [r7, #36]
 308 01b4 013B     		subs	r3, r3, #1
 309 01b6 7B62     		str	r3, [r7, #36]
 310              	.L9:
 366:./Libraries/CMSIS/DSP/Source/FilteringFunctions/arm_conv_q31.c ****     {
 311              		.loc 1 366 11
 312 01b8 7B6A     		ldr	r3, [r7, #36]
 313 01ba 002B     		cmp	r3, #0
 314 01bc B2D1     		bne	.L12
 315 01be 4FE0     		b	.L13
 316              	.L8:
 419:./Libraries/CMSIS/DSP/Source/FilteringFunctions/arm_conv_q31.c ****     }
 420:./Libraries/CMSIS/DSP/Source/FilteringFunctions/arm_conv_q31.c ****   }
 421:./Libraries/CMSIS/DSP/Source/FilteringFunctions/arm_conv_q31.c ****   else
 422:./Libraries/CMSIS/DSP/Source/FilteringFunctions/arm_conv_q31.c ****   {
ARM GAS  /tmp/ccdicNnT.s 			page 14


 423:./Libraries/CMSIS/DSP/Source/FilteringFunctions/arm_conv_q31.c ****     /* If the srcBLen is not a multiple of 4,
 424:./Libraries/CMSIS/DSP/Source/FilteringFunctions/arm_conv_q31.c ****      * the blockSize2 loop cannot be unrolled by 4 */
 425:./Libraries/CMSIS/DSP/Source/FilteringFunctions/arm_conv_q31.c ****     blkCnt = blockSize2;
 317              		.loc 1 425 12
 318 01c0 FB69     		ldr	r3, [r7, #28]
 319 01c2 7B62     		str	r3, [r7, #36]
 426:./Libraries/CMSIS/DSP/Source/FilteringFunctions/arm_conv_q31.c **** 
 427:./Libraries/CMSIS/DSP/Source/FilteringFunctions/arm_conv_q31.c ****     while (blkCnt > 0U)
 320              		.loc 1 427 11
 321 01c4 49E0     		b	.L14
 322              	.L17:
 428:./Libraries/CMSIS/DSP/Source/FilteringFunctions/arm_conv_q31.c ****     {
 429:./Libraries/CMSIS/DSP/Source/FilteringFunctions/arm_conv_q31.c ****       /* Accumulator is made zero for every iteration */
 430:./Libraries/CMSIS/DSP/Source/FilteringFunctions/arm_conv_q31.c ****       sum = 0;
 323              		.loc 1 430 11
 324 01c6 4FF00002 		mov	r2, #0
 325 01ca 4FF00003 		mov	r3, #0
 326 01ce C7E90E23 		strd	r2, [r7, #56]
 431:./Libraries/CMSIS/DSP/Source/FilteringFunctions/arm_conv_q31.c **** 
 432:./Libraries/CMSIS/DSP/Source/FilteringFunctions/arm_conv_q31.c ****       /* srcBLen number of MACS should be performed */
 433:./Libraries/CMSIS/DSP/Source/FilteringFunctions/arm_conv_q31.c ****       k = srcBLen;
 327              		.loc 1 433 9
 328 01d2 BB68     		ldr	r3, [r7, #8]
 329 01d4 FB62     		str	r3, [r7, #44]
 434:./Libraries/CMSIS/DSP/Source/FilteringFunctions/arm_conv_q31.c **** 
 435:./Libraries/CMSIS/DSP/Source/FilteringFunctions/arm_conv_q31.c ****       while (k > 0U)
 330              		.loc 1 435 13
 331 01d6 21E0     		b	.L15
 332              	.L16:
 436:./Libraries/CMSIS/DSP/Source/FilteringFunctions/arm_conv_q31.c ****       {
 437:./Libraries/CMSIS/DSP/Source/FilteringFunctions/arm_conv_q31.c ****         /* Perform the multiply-accumulate */
 438:./Libraries/CMSIS/DSP/Source/FilteringFunctions/arm_conv_q31.c ****         sum += (q63_t) *px++ * *py--;
 333              		.loc 1 438 27
 334 01d8 BB6C     		ldr	r3, [r7, #72]
 335 01da 1A1D     		adds	r2, r3, #4
 336 01dc BA64     		str	r2, [r7, #72]
 337              		.loc 1 438 24
 338 01de 1B68     		ldr	r3, [r3]
 339              		.loc 1 438 16
 340 01e0 1846     		mov	r0, r3
 341 01e2 4FEAE071 		asr	r1, r0, #31
 342              		.loc 1 438 35
 343 01e6 7B6C     		ldr	r3, [r7, #68]
 344 01e8 1A1F     		subs	r2, r3, #4
 345 01ea 7A64     		str	r2, [r7, #68]
 346              		.loc 1 438 32
 347 01ec 1B68     		ldr	r3, [r3]
 348 01ee 1A46     		mov	r2, r3
 349 01f0 4FEAE273 		asr	r3, r2, #31
 350              		.loc 1 438 30
 351 01f4 02FB01FC 		mul	ip, r2, r1
 352 01f8 00FB03F6 		mul	r6, r0, r3
 353 01fc 6644     		add	r6, r6, ip
 354 01fe A0FB0223 		umull	r2, r3, r0, r2
 355 0202 F118     		adds	r1, r6, r3
 356 0204 0B46     		mov	r3, r1
 357              		.loc 1 438 13
ARM GAS  /tmp/ccdicNnT.s 			page 15


 358 0206 D7E90E01 		ldrd	r0, [r7, #56]
 359 020a 10EB0208 		adds	r8, r0, r2
 360 020e 41EB0309 		adc	r9, r1, r3
 361 0212 C7E90E89 		strd	r8, [r7, #56]
 439:./Libraries/CMSIS/DSP/Source/FilteringFunctions/arm_conv_q31.c **** 
 440:./Libraries/CMSIS/DSP/Source/FilteringFunctions/arm_conv_q31.c ****         /* Decrement the loop counter */
 441:./Libraries/CMSIS/DSP/Source/FilteringFunctions/arm_conv_q31.c ****         k--;
 362              		.loc 1 441 10
 363 0216 FB6A     		ldr	r3, [r7, #44]
 364 0218 013B     		subs	r3, r3, #1
 365 021a FB62     		str	r3, [r7, #44]
 366              	.L15:
 435:./Libraries/CMSIS/DSP/Source/FilteringFunctions/arm_conv_q31.c ****       {
 367              		.loc 1 435 13
 368 021c FB6A     		ldr	r3, [r7, #44]
 369 021e 002B     		cmp	r3, #0
 370 0220 DAD1     		bne	.L16
 442:./Libraries/CMSIS/DSP/Source/FilteringFunctions/arm_conv_q31.c ****       }
 443:./Libraries/CMSIS/DSP/Source/FilteringFunctions/arm_conv_q31.c **** 
 444:./Libraries/CMSIS/DSP/Source/FilteringFunctions/arm_conv_q31.c ****       /* Store the result in the accumulator in the destination buffer. */
 445:./Libraries/CMSIS/DSP/Source/FilteringFunctions/arm_conv_q31.c ****       *pOut++ = (q31_t) (sum >> 31);
 371              		.loc 1 445 30
 372 0222 D7E90E01 		ldrd	r0, [r7, #56]
 373 0226 4FF00002 		mov	r2, #0
 374 022a 4FF00003 		mov	r3, #0
 375 022e C20F     		lsrs	r2, r0, #31
 376 0230 42EA4102 		orr	r2, r2, r1, lsl #1
 377 0234 CB17     		asrs	r3, r1, #31
 378              		.loc 1 445 12
 379 0236 F96C     		ldr	r1, [r7, #76]
 380 0238 081D     		adds	r0, r1, #4
 381 023a F864     		str	r0, [r7, #76]
 382              		.loc 1 445 17
 383 023c 1346     		mov	r3, r2
 384              		.loc 1 445 15
 385 023e 0B60     		str	r3, [r1]
 446:./Libraries/CMSIS/DSP/Source/FilteringFunctions/arm_conv_q31.c **** 
 447:./Libraries/CMSIS/DSP/Source/FilteringFunctions/arm_conv_q31.c ****       /* Increment MAC count */
 448:./Libraries/CMSIS/DSP/Source/FilteringFunctions/arm_conv_q31.c ****       count++;
 386              		.loc 1 448 12
 387 0240 BB6A     		ldr	r3, [r7, #40]
 388 0242 0133     		adds	r3, r3, #1
 389 0244 BB62     		str	r3, [r7, #40]
 449:./Libraries/CMSIS/DSP/Source/FilteringFunctions/arm_conv_q31.c **** 
 450:./Libraries/CMSIS/DSP/Source/FilteringFunctions/arm_conv_q31.c ****       /* Update the inputA and inputB pointers for next MAC calculation */
 451:./Libraries/CMSIS/DSP/Source/FilteringFunctions/arm_conv_q31.c ****       px = pIn1 + count;
 390              		.loc 1 451 17
 391 0246 BB6A     		ldr	r3, [r7, #40]
 392 0248 9B00     		lsls	r3, r3, #2
 393              		.loc 1 451 10
 394 024a 7A6D     		ldr	r2, [r7, #84]
 395 024c 1344     		add	r3, r3, r2
 396 024e BB64     		str	r3, [r7, #72]
 452:./Libraries/CMSIS/DSP/Source/FilteringFunctions/arm_conv_q31.c ****       py = pSrc2;
 397              		.loc 1 452 10
 398 0250 BB69     		ldr	r3, [r7, #24]
 399 0252 7B64     		str	r3, [r7, #68]
ARM GAS  /tmp/ccdicNnT.s 			page 16


 453:./Libraries/CMSIS/DSP/Source/FilteringFunctions/arm_conv_q31.c **** 
 454:./Libraries/CMSIS/DSP/Source/FilteringFunctions/arm_conv_q31.c ****       /* Decrement loop counter */
 455:./Libraries/CMSIS/DSP/Source/FilteringFunctions/arm_conv_q31.c ****       blkCnt--;
 400              		.loc 1 455 13
 401 0254 7B6A     		ldr	r3, [r7, #36]
 402 0256 013B     		subs	r3, r3, #1
 403 0258 7B62     		str	r3, [r7, #36]
 404              	.L14:
 427:./Libraries/CMSIS/DSP/Source/FilteringFunctions/arm_conv_q31.c ****     {
 405              		.loc 1 427 11
 406 025a 7B6A     		ldr	r3, [r7, #36]
 407 025c 002B     		cmp	r3, #0
 408 025e B2D1     		bne	.L17
 409              	.L13:
 456:./Libraries/CMSIS/DSP/Source/FilteringFunctions/arm_conv_q31.c ****     }
 457:./Libraries/CMSIS/DSP/Source/FilteringFunctions/arm_conv_q31.c ****   }
 458:./Libraries/CMSIS/DSP/Source/FilteringFunctions/arm_conv_q31.c **** 
 459:./Libraries/CMSIS/DSP/Source/FilteringFunctions/arm_conv_q31.c **** 
 460:./Libraries/CMSIS/DSP/Source/FilteringFunctions/arm_conv_q31.c ****   /* --------------------------
 461:./Libraries/CMSIS/DSP/Source/FilteringFunctions/arm_conv_q31.c ****    * Initializations of stage3
 462:./Libraries/CMSIS/DSP/Source/FilteringFunctions/arm_conv_q31.c ****    * -------------------------*/
 463:./Libraries/CMSIS/DSP/Source/FilteringFunctions/arm_conv_q31.c **** 
 464:./Libraries/CMSIS/DSP/Source/FilteringFunctions/arm_conv_q31.c ****   /* sum += x[srcALen-srcBLen+1] * y[srcBLen-1] + x[srcALen-srcBLen+2] * y[srcBLen-2] +...+ x[srcAL
 465:./Libraries/CMSIS/DSP/Source/FilteringFunctions/arm_conv_q31.c ****    * sum += x[srcALen-srcBLen+2] * y[srcBLen-1] + x[srcALen-srcBLen+3] * y[srcBLen-2] +...+ x[srcAL
 466:./Libraries/CMSIS/DSP/Source/FilteringFunctions/arm_conv_q31.c ****    * ....
 467:./Libraries/CMSIS/DSP/Source/FilteringFunctions/arm_conv_q31.c ****    * sum +=  x[srcALen-2] * y[srcBLen-1] + x[srcALen-1] * y[srcBLen-2]
 468:./Libraries/CMSIS/DSP/Source/FilteringFunctions/arm_conv_q31.c ****    * sum +=  x[srcALen-1] * y[srcBLen-1]
 469:./Libraries/CMSIS/DSP/Source/FilteringFunctions/arm_conv_q31.c ****    */
 470:./Libraries/CMSIS/DSP/Source/FilteringFunctions/arm_conv_q31.c **** 
 471:./Libraries/CMSIS/DSP/Source/FilteringFunctions/arm_conv_q31.c ****   /* In this stage the MAC operations are decreased by 1 for every iteration.
 472:./Libraries/CMSIS/DSP/Source/FilteringFunctions/arm_conv_q31.c ****      The blockSize3 variable holds the number of MAC operations performed */
 473:./Libraries/CMSIS/DSP/Source/FilteringFunctions/arm_conv_q31.c **** 
 474:./Libraries/CMSIS/DSP/Source/FilteringFunctions/arm_conv_q31.c ****   /* Working pointer of inputA */
 475:./Libraries/CMSIS/DSP/Source/FilteringFunctions/arm_conv_q31.c ****   pSrc1 = (pIn1 + srcALen) - (srcBLen - 1U);
 410              		.loc 1 475 28
 411 0260 3A69     		ldr	r2, [r7, #16]
 412 0262 BB68     		ldr	r3, [r7, #8]
 413 0264 D31A     		subs	r3, r2, r3
 414 0266 0133     		adds	r3, r3, #1
 415 0268 9B00     		lsls	r3, r3, #2
 416              		.loc 1 475 9
 417 026a 7A6D     		ldr	r2, [r7, #84]
 418 026c 1344     		add	r3, r3, r2
 419 026e 3B64     		str	r3, [r7, #64]
 476:./Libraries/CMSIS/DSP/Source/FilteringFunctions/arm_conv_q31.c ****   px = pSrc1;
 420              		.loc 1 476 6
 421 0270 3B6C     		ldr	r3, [r7, #64]
 422 0272 BB64     		str	r3, [r7, #72]
 477:./Libraries/CMSIS/DSP/Source/FilteringFunctions/arm_conv_q31.c **** 
 478:./Libraries/CMSIS/DSP/Source/FilteringFunctions/arm_conv_q31.c ****   /* Working pointer of inputB */
 479:./Libraries/CMSIS/DSP/Source/FilteringFunctions/arm_conv_q31.c ****   pSrc2 = pIn2 + (srcBLen - 1U);
 423              		.loc 1 479 16
 424 0274 BA68     		ldr	r2, [r7, #8]
 425 0276 6FF04043 		mvn	r3, #-1073741824
 426 027a 1344     		add	r3, r3, r2
 427 027c 9B00     		lsls	r3, r3, #2
 428              		.loc 1 479 9
ARM GAS  /tmp/ccdicNnT.s 			page 17


 429 027e 3A6D     		ldr	r2, [r7, #80]
 430 0280 1344     		add	r3, r3, r2
 431 0282 BB61     		str	r3, [r7, #24]
 480:./Libraries/CMSIS/DSP/Source/FilteringFunctions/arm_conv_q31.c ****   py = pSrc2;
 432              		.loc 1 480 6
 433 0284 BB69     		ldr	r3, [r7, #24]
 434 0286 7B64     		str	r3, [r7, #68]
 481:./Libraries/CMSIS/DSP/Source/FilteringFunctions/arm_conv_q31.c **** 
 482:./Libraries/CMSIS/DSP/Source/FilteringFunctions/arm_conv_q31.c ****   /* -------------------
 483:./Libraries/CMSIS/DSP/Source/FilteringFunctions/arm_conv_q31.c ****    * Stage3 process
 484:./Libraries/CMSIS/DSP/Source/FilteringFunctions/arm_conv_q31.c ****    * ------------------*/
 485:./Libraries/CMSIS/DSP/Source/FilteringFunctions/arm_conv_q31.c **** 
 486:./Libraries/CMSIS/DSP/Source/FilteringFunctions/arm_conv_q31.c ****   while (blockSize3 > 0U)
 435              		.loc 1 486 9
 436 0288 45E0     		b	.L18
 437              	.L21:
 487:./Libraries/CMSIS/DSP/Source/FilteringFunctions/arm_conv_q31.c ****   {
 488:./Libraries/CMSIS/DSP/Source/FilteringFunctions/arm_conv_q31.c ****     /* Accumulator is made zero for every iteration */
 489:./Libraries/CMSIS/DSP/Source/FilteringFunctions/arm_conv_q31.c ****     sum = 0;
 438              		.loc 1 489 9
 439 028a 4FF00002 		mov	r2, #0
 440 028e 4FF00003 		mov	r3, #0
 441 0292 C7E90E23 		strd	r2, [r7, #56]
 490:./Libraries/CMSIS/DSP/Source/FilteringFunctions/arm_conv_q31.c **** 
 491:./Libraries/CMSIS/DSP/Source/FilteringFunctions/arm_conv_q31.c **** #if defined (ARM_MATH_LOOPUNROLL)
 492:./Libraries/CMSIS/DSP/Source/FilteringFunctions/arm_conv_q31.c **** 
 493:./Libraries/CMSIS/DSP/Source/FilteringFunctions/arm_conv_q31.c ****     /* Loop unrolling: Compute 4 outputs at a time */
 494:./Libraries/CMSIS/DSP/Source/FilteringFunctions/arm_conv_q31.c ****     k = blockSize3 >> 2U;
 495:./Libraries/CMSIS/DSP/Source/FilteringFunctions/arm_conv_q31.c **** 
 496:./Libraries/CMSIS/DSP/Source/FilteringFunctions/arm_conv_q31.c ****     while (k > 0U)
 497:./Libraries/CMSIS/DSP/Source/FilteringFunctions/arm_conv_q31.c ****     {
 498:./Libraries/CMSIS/DSP/Source/FilteringFunctions/arm_conv_q31.c ****       /* Perform the multiply-accumulate */
 499:./Libraries/CMSIS/DSP/Source/FilteringFunctions/arm_conv_q31.c ****       /* sum += x[srcALen - srcBLen + 1] * y[srcBLen - 1] */
 500:./Libraries/CMSIS/DSP/Source/FilteringFunctions/arm_conv_q31.c ****       sum += (q63_t) *px++ * *py--;
 501:./Libraries/CMSIS/DSP/Source/FilteringFunctions/arm_conv_q31.c **** 
 502:./Libraries/CMSIS/DSP/Source/FilteringFunctions/arm_conv_q31.c ****       /* sum += x[srcALen - srcBLen + 2] * y[srcBLen - 2] */
 503:./Libraries/CMSIS/DSP/Source/FilteringFunctions/arm_conv_q31.c ****       sum += (q63_t) *px++ * *py--;
 504:./Libraries/CMSIS/DSP/Source/FilteringFunctions/arm_conv_q31.c **** 
 505:./Libraries/CMSIS/DSP/Source/FilteringFunctions/arm_conv_q31.c ****       /* sum += x[srcALen - srcBLen + 3] * y[srcBLen - 3] */
 506:./Libraries/CMSIS/DSP/Source/FilteringFunctions/arm_conv_q31.c ****       sum += (q63_t) *px++ * *py--;
 507:./Libraries/CMSIS/DSP/Source/FilteringFunctions/arm_conv_q31.c **** 
 508:./Libraries/CMSIS/DSP/Source/FilteringFunctions/arm_conv_q31.c ****       /* sum += x[srcALen - srcBLen + 4] * y[srcBLen - 4] */
 509:./Libraries/CMSIS/DSP/Source/FilteringFunctions/arm_conv_q31.c ****       sum += (q63_t) *px++ * *py--;
 510:./Libraries/CMSIS/DSP/Source/FilteringFunctions/arm_conv_q31.c **** 
 511:./Libraries/CMSIS/DSP/Source/FilteringFunctions/arm_conv_q31.c ****       /* Decrement loop counter */
 512:./Libraries/CMSIS/DSP/Source/FilteringFunctions/arm_conv_q31.c ****       k--;
 513:./Libraries/CMSIS/DSP/Source/FilteringFunctions/arm_conv_q31.c ****     }
 514:./Libraries/CMSIS/DSP/Source/FilteringFunctions/arm_conv_q31.c **** 
 515:./Libraries/CMSIS/DSP/Source/FilteringFunctions/arm_conv_q31.c ****     /* Loop unrolling: Compute remaining outputs */
 516:./Libraries/CMSIS/DSP/Source/FilteringFunctions/arm_conv_q31.c ****     k = blockSize3 % 0x4U;
 517:./Libraries/CMSIS/DSP/Source/FilteringFunctions/arm_conv_q31.c **** 
 518:./Libraries/CMSIS/DSP/Source/FilteringFunctions/arm_conv_q31.c **** #else
 519:./Libraries/CMSIS/DSP/Source/FilteringFunctions/arm_conv_q31.c **** 
 520:./Libraries/CMSIS/DSP/Source/FilteringFunctions/arm_conv_q31.c ****     /* Initialize blkCnt with number of samples */
 521:./Libraries/CMSIS/DSP/Source/FilteringFunctions/arm_conv_q31.c ****     k = blockSize3;
 442              		.loc 1 521 7
 443 0296 3B6B     		ldr	r3, [r7, #48]
ARM GAS  /tmp/ccdicNnT.s 			page 18


 444 0298 FB62     		str	r3, [r7, #44]
 522:./Libraries/CMSIS/DSP/Source/FilteringFunctions/arm_conv_q31.c **** 
 523:./Libraries/CMSIS/DSP/Source/FilteringFunctions/arm_conv_q31.c **** #endif /* #if defined (ARM_MATH_LOOPUNROLL) */
 524:./Libraries/CMSIS/DSP/Source/FilteringFunctions/arm_conv_q31.c **** 
 525:./Libraries/CMSIS/DSP/Source/FilteringFunctions/arm_conv_q31.c ****     while (k > 0U)
 445              		.loc 1 525 11
 446 029a 20E0     		b	.L19
 447              	.L20:
 526:./Libraries/CMSIS/DSP/Source/FilteringFunctions/arm_conv_q31.c ****     {
 527:./Libraries/CMSIS/DSP/Source/FilteringFunctions/arm_conv_q31.c ****       /* Perform the multiply-accumulate */
 528:./Libraries/CMSIS/DSP/Source/FilteringFunctions/arm_conv_q31.c ****       /* sum +=  x[srcALen-1] * y[srcBLen-1] */
 529:./Libraries/CMSIS/DSP/Source/FilteringFunctions/arm_conv_q31.c ****       sum += (q63_t) *px++ * *py--;
 448              		.loc 1 529 25
 449 029c BB6C     		ldr	r3, [r7, #72]
 450 029e 1A1D     		adds	r2, r3, #4
 451 02a0 BA64     		str	r2, [r7, #72]
 452              		.loc 1 529 22
 453 02a2 1B68     		ldr	r3, [r3]
 454              		.loc 1 529 14
 455 02a4 1846     		mov	r0, r3
 456 02a6 4FEAE071 		asr	r1, r0, #31
 457              		.loc 1 529 33
 458 02aa 7B6C     		ldr	r3, [r7, #68]
 459 02ac 1A1F     		subs	r2, r3, #4
 460 02ae 7A64     		str	r2, [r7, #68]
 461              		.loc 1 529 30
 462 02b0 1B68     		ldr	r3, [r3]
 463 02b2 1A46     		mov	r2, r3
 464 02b4 4FEAE273 		asr	r3, r2, #31
 465              		.loc 1 529 28
 466 02b8 02FB01FC 		mul	ip, r2, r1
 467 02bc 00FB03F6 		mul	r6, r0, r3
 468 02c0 6644     		add	r6, r6, ip
 469 02c2 A0FB0223 		umull	r2, r3, r0, r2
 470 02c6 F118     		adds	r1, r6, r3
 471 02c8 0B46     		mov	r3, r1
 472              		.loc 1 529 11
 473 02ca D7E90E01 		ldrd	r0, [r7, #56]
 474 02ce 8418     		adds	r4, r0, r2
 475 02d0 41EB0305 		adc	r5, r1, r3
 476 02d4 C7E90E45 		strd	r4, [r7, #56]
 530:./Libraries/CMSIS/DSP/Source/FilteringFunctions/arm_conv_q31.c **** 
 531:./Libraries/CMSIS/DSP/Source/FilteringFunctions/arm_conv_q31.c ****       /* Decrement loop counter */
 532:./Libraries/CMSIS/DSP/Source/FilteringFunctions/arm_conv_q31.c ****       k--;
 477              		.loc 1 532 8
 478 02d8 FB6A     		ldr	r3, [r7, #44]
 479 02da 013B     		subs	r3, r3, #1
 480 02dc FB62     		str	r3, [r7, #44]
 481              	.L19:
 525:./Libraries/CMSIS/DSP/Source/FilteringFunctions/arm_conv_q31.c ****     {
 482              		.loc 1 525 11
 483 02de FB6A     		ldr	r3, [r7, #44]
 484 02e0 002B     		cmp	r3, #0
 485 02e2 DBD1     		bne	.L20
 533:./Libraries/CMSIS/DSP/Source/FilteringFunctions/arm_conv_q31.c ****     }
 534:./Libraries/CMSIS/DSP/Source/FilteringFunctions/arm_conv_q31.c **** 
 535:./Libraries/CMSIS/DSP/Source/FilteringFunctions/arm_conv_q31.c ****     /* Store the result in the accumulator in the destination buffer. */
ARM GAS  /tmp/ccdicNnT.s 			page 19


 536:./Libraries/CMSIS/DSP/Source/FilteringFunctions/arm_conv_q31.c ****     *pOut++ = (q31_t) (sum >> 31);
 486              		.loc 1 536 28
 487 02e4 D7E90E01 		ldrd	r0, [r7, #56]
 488 02e8 4FF00002 		mov	r2, #0
 489 02ec 4FF00003 		mov	r3, #0
 490 02f0 C20F     		lsrs	r2, r0, #31
 491 02f2 42EA4102 		orr	r2, r2, r1, lsl #1
 492 02f6 CB17     		asrs	r3, r1, #31
 493              		.loc 1 536 10
 494 02f8 F96C     		ldr	r1, [r7, #76]
 495 02fa 081D     		adds	r0, r1, #4
 496 02fc F864     		str	r0, [r7, #76]
 497              		.loc 1 536 15
 498 02fe 1346     		mov	r3, r2
 499              		.loc 1 536 13
 500 0300 0B60     		str	r3, [r1]
 537:./Libraries/CMSIS/DSP/Source/FilteringFunctions/arm_conv_q31.c **** 
 538:./Libraries/CMSIS/DSP/Source/FilteringFunctions/arm_conv_q31.c ****     /* Update the inputA and inputB pointers for next MAC calculation */
 539:./Libraries/CMSIS/DSP/Source/FilteringFunctions/arm_conv_q31.c ****     px = ++pSrc1;
 501              		.loc 1 539 8
 502 0302 3B6C     		ldr	r3, [r7, #64]
 503 0304 0433     		adds	r3, r3, #4
 504 0306 3B64     		str	r3, [r7, #64]
 505 0308 3B6C     		ldr	r3, [r7, #64]
 506 030a BB64     		str	r3, [r7, #72]
 540:./Libraries/CMSIS/DSP/Source/FilteringFunctions/arm_conv_q31.c ****     py = pSrc2;
 507              		.loc 1 540 8
 508 030c BB69     		ldr	r3, [r7, #24]
 509 030e 7B64     		str	r3, [r7, #68]
 541:./Libraries/CMSIS/DSP/Source/FilteringFunctions/arm_conv_q31.c **** 
 542:./Libraries/CMSIS/DSP/Source/FilteringFunctions/arm_conv_q31.c ****     /* Decrement loop counter */
 543:./Libraries/CMSIS/DSP/Source/FilteringFunctions/arm_conv_q31.c ****     blockSize3--;
 510              		.loc 1 543 15
 511 0310 3B6B     		ldr	r3, [r7, #48]
 512 0312 013B     		subs	r3, r3, #1
 513 0314 3B63     		str	r3, [r7, #48]
 514              	.L18:
 486:./Libraries/CMSIS/DSP/Source/FilteringFunctions/arm_conv_q31.c ****   {
 515              		.loc 1 486 9
 516 0316 3B6B     		ldr	r3, [r7, #48]
 517 0318 002B     		cmp	r3, #0
 518 031a B6D1     		bne	.L21
 544:./Libraries/CMSIS/DSP/Source/FilteringFunctions/arm_conv_q31.c ****   }
 545:./Libraries/CMSIS/DSP/Source/FilteringFunctions/arm_conv_q31.c **** 
 546:./Libraries/CMSIS/DSP/Source/FilteringFunctions/arm_conv_q31.c **** #else
 547:./Libraries/CMSIS/DSP/Source/FilteringFunctions/arm_conv_q31.c **** /* alternate version for CM0_FAMILY */
 548:./Libraries/CMSIS/DSP/Source/FilteringFunctions/arm_conv_q31.c **** 
 549:./Libraries/CMSIS/DSP/Source/FilteringFunctions/arm_conv_q31.c ****   const q31_t *pIn1 = pSrcA;                           /* InputA pointer */
 550:./Libraries/CMSIS/DSP/Source/FilteringFunctions/arm_conv_q31.c ****   const q31_t *pIn2 = pSrcB;                           /* InputB pointer */
 551:./Libraries/CMSIS/DSP/Source/FilteringFunctions/arm_conv_q31.c ****         q63_t sum;                                     /* Accumulators */
 552:./Libraries/CMSIS/DSP/Source/FilteringFunctions/arm_conv_q31.c ****         uint32_t i, j;                                 /* Loop counters */
 553:./Libraries/CMSIS/DSP/Source/FilteringFunctions/arm_conv_q31.c **** 
 554:./Libraries/CMSIS/DSP/Source/FilteringFunctions/arm_conv_q31.c ****   /* Loop to calculate convolution for output length number of times */
 555:./Libraries/CMSIS/DSP/Source/FilteringFunctions/arm_conv_q31.c ****   for (i = 0U; i < (srcALen + srcBLen - 1U); i++)
 556:./Libraries/CMSIS/DSP/Source/FilteringFunctions/arm_conv_q31.c ****   {
 557:./Libraries/CMSIS/DSP/Source/FilteringFunctions/arm_conv_q31.c ****     /* Initialize sum with zero to carry out MAC operations */
 558:./Libraries/CMSIS/DSP/Source/FilteringFunctions/arm_conv_q31.c ****     sum = 0;
ARM GAS  /tmp/ccdicNnT.s 			page 20


 559:./Libraries/CMSIS/DSP/Source/FilteringFunctions/arm_conv_q31.c **** 
 560:./Libraries/CMSIS/DSP/Source/FilteringFunctions/arm_conv_q31.c ****     /* Loop to perform MAC operations according to convolution equation */
 561:./Libraries/CMSIS/DSP/Source/FilteringFunctions/arm_conv_q31.c ****     for (j = 0U; j <= i; j++)
 562:./Libraries/CMSIS/DSP/Source/FilteringFunctions/arm_conv_q31.c ****     {
 563:./Libraries/CMSIS/DSP/Source/FilteringFunctions/arm_conv_q31.c ****       /* Check the array limitations */
 564:./Libraries/CMSIS/DSP/Source/FilteringFunctions/arm_conv_q31.c ****       if (((i - j) < srcBLen) && (j < srcALen))
 565:./Libraries/CMSIS/DSP/Source/FilteringFunctions/arm_conv_q31.c ****       {
 566:./Libraries/CMSIS/DSP/Source/FilteringFunctions/arm_conv_q31.c ****         /* z[i] += x[i-j] * y[j] */
 567:./Libraries/CMSIS/DSP/Source/FilteringFunctions/arm_conv_q31.c ****         sum += ((q63_t) pIn1[j] * pIn2[i - j]);
 568:./Libraries/CMSIS/DSP/Source/FilteringFunctions/arm_conv_q31.c ****       }
 569:./Libraries/CMSIS/DSP/Source/FilteringFunctions/arm_conv_q31.c ****     }
 570:./Libraries/CMSIS/DSP/Source/FilteringFunctions/arm_conv_q31.c **** 
 571:./Libraries/CMSIS/DSP/Source/FilteringFunctions/arm_conv_q31.c ****     /* Store the output in the destination buffer */
 572:./Libraries/CMSIS/DSP/Source/FilteringFunctions/arm_conv_q31.c ****     pDst[i] = (q31_t) (sum >> 31U);
 573:./Libraries/CMSIS/DSP/Source/FilteringFunctions/arm_conv_q31.c ****   }
 574:./Libraries/CMSIS/DSP/Source/FilteringFunctions/arm_conv_q31.c **** 
 575:./Libraries/CMSIS/DSP/Source/FilteringFunctions/arm_conv_q31.c **** #endif /* #if !defined(ARM_MATH_CM0_FAMILY) */
 576:./Libraries/CMSIS/DSP/Source/FilteringFunctions/arm_conv_q31.c **** 
 577:./Libraries/CMSIS/DSP/Source/FilteringFunctions/arm_conv_q31.c **** }
 519              		.loc 1 577 1
 520 031c 00BF     		nop
 521 031e 00BF     		nop
 522 0320 5837     		adds	r7, r7, #88
 523              	.LCFI3:
 524              		.cfi_def_cfa_offset 32
 525 0322 BD46     		mov	sp, r7
 526              	.LCFI4:
 527              		.cfi_def_cfa_register 13
 528              		@ sp needed
 529 0324 BDE8F00F 		pop	{r4, r5, r6, r7, r8, r9, r10, fp}
 530              	.LCFI5:
 531              		.cfi_restore 11
 532              		.cfi_restore 10
 533              		.cfi_restore 9
 534              		.cfi_restore 8
 535              		.cfi_restore 7
 536              		.cfi_restore 6
 537              		.cfi_restore 5
 538              		.cfi_restore 4
 539              		.cfi_def_cfa_offset 0
 540 0328 7047     		bx	lr
 541              		.cfi_endproc
 542              	.LFE145:
 544              		.text
 545              	.Letext0:
 546              		.file 2 "/usr/lib/gcc/arm-none-eabi/9.2.1/include/stdint.h"
 547              		.file 3 "/usr/lib/gcc/arm-none-eabi/9.2.1/include/stddef.h"
 548              		.file 4 "/usr/include/newlib/sys/_types.h"
 549              		.file 5 "/usr/include/newlib/sys/reent.h"
 550              		.file 6 "/usr/include/newlib/sys/lock.h"
 551              		.file 7 "/usr/include/newlib/math.h"
 552              		.file 8 "./Libraries/CMSIS/DSP/Include/arm_math.h"
ARM GAS  /tmp/ccdicNnT.s 			page 21

