ARM GAS  /tmp/ccU9e8qr.s 			page 1


   1              		.cpu cortex-m7
   2              		.eabi_attribute 28, 1
   3              		.eabi_attribute 20, 1
   4              		.eabi_attribute 21, 1
   5              		.eabi_attribute 23, 3
   6              		.eabi_attribute 24, 1
   7              		.eabi_attribute 25, 1
   8              		.eabi_attribute 26, 1
   9              		.eabi_attribute 30, 6
  10              		.eabi_attribute 34, 1
  11              		.eabi_attribute 18, 4
  12              		.file	"arm_iir_lattice_f32.c"
  13              		.text
  14              	.Ltext0:
  15              		.cfi_sections	.debug_frame
  16              		.section	.text.arm_iir_lattice_f32,"ax",%progbits
  17              		.align	1
  18              		.global	arm_iir_lattice_f32
  19              		.arch armv7e-m
  20              		.syntax unified
  21              		.thumb
  22              		.thumb_func
  23              		.fpu fpv5-d16
  25              	arm_iir_lattice_f32:
  26              	.LFB145:
  27              		.file 1 "./Libraries/CMSIS/DSP/Source/FilteringFunctions/arm_iir_lattice_f32.c"
   1:./Libraries/CMSIS/DSP/Source/FilteringFunctions/arm_iir_lattice_f32.c **** /* ----------------------------------------------------------------------
   2:./Libraries/CMSIS/DSP/Source/FilteringFunctions/arm_iir_lattice_f32.c ****  * Project:      CMSIS DSP Library
   3:./Libraries/CMSIS/DSP/Source/FilteringFunctions/arm_iir_lattice_f32.c ****  * Title:        arm_iir_lattice_f32.c
   4:./Libraries/CMSIS/DSP/Source/FilteringFunctions/arm_iir_lattice_f32.c ****  * Description:  Floating-point IIR Lattice filter processing function
   5:./Libraries/CMSIS/DSP/Source/FilteringFunctions/arm_iir_lattice_f32.c ****  *
   6:./Libraries/CMSIS/DSP/Source/FilteringFunctions/arm_iir_lattice_f32.c ****  * $Date:        18. March 2019
   7:./Libraries/CMSIS/DSP/Source/FilteringFunctions/arm_iir_lattice_f32.c ****  * $Revision:    V1.6.0
   8:./Libraries/CMSIS/DSP/Source/FilteringFunctions/arm_iir_lattice_f32.c ****  *
   9:./Libraries/CMSIS/DSP/Source/FilteringFunctions/arm_iir_lattice_f32.c ****  * Target Processor: Cortex-M cores
  10:./Libraries/CMSIS/DSP/Source/FilteringFunctions/arm_iir_lattice_f32.c ****  * -------------------------------------------------------------------- */
  11:./Libraries/CMSIS/DSP/Source/FilteringFunctions/arm_iir_lattice_f32.c **** /*
  12:./Libraries/CMSIS/DSP/Source/FilteringFunctions/arm_iir_lattice_f32.c ****  * Copyright (C) 2010-2019 ARM Limited or its affiliates. All rights reserved.
  13:./Libraries/CMSIS/DSP/Source/FilteringFunctions/arm_iir_lattice_f32.c ****  *
  14:./Libraries/CMSIS/DSP/Source/FilteringFunctions/arm_iir_lattice_f32.c ****  * SPDX-License-Identifier: Apache-2.0
  15:./Libraries/CMSIS/DSP/Source/FilteringFunctions/arm_iir_lattice_f32.c ****  *
  16:./Libraries/CMSIS/DSP/Source/FilteringFunctions/arm_iir_lattice_f32.c ****  * Licensed under the Apache License, Version 2.0 (the License); you may
  17:./Libraries/CMSIS/DSP/Source/FilteringFunctions/arm_iir_lattice_f32.c ****  * not use this file except in compliance with the License.
  18:./Libraries/CMSIS/DSP/Source/FilteringFunctions/arm_iir_lattice_f32.c ****  * You may obtain a copy of the License at
  19:./Libraries/CMSIS/DSP/Source/FilteringFunctions/arm_iir_lattice_f32.c ****  *
  20:./Libraries/CMSIS/DSP/Source/FilteringFunctions/arm_iir_lattice_f32.c ****  * www.apache.org/licenses/LICENSE-2.0
  21:./Libraries/CMSIS/DSP/Source/FilteringFunctions/arm_iir_lattice_f32.c ****  *
  22:./Libraries/CMSIS/DSP/Source/FilteringFunctions/arm_iir_lattice_f32.c ****  * Unless required by applicable law or agreed to in writing, software
  23:./Libraries/CMSIS/DSP/Source/FilteringFunctions/arm_iir_lattice_f32.c ****  * distributed under the License is distributed on an AS IS BASIS, WITHOUT
  24:./Libraries/CMSIS/DSP/Source/FilteringFunctions/arm_iir_lattice_f32.c ****  * WARRANTIES OR CONDITIONS OF ANY KIND, either express or implied.
  25:./Libraries/CMSIS/DSP/Source/FilteringFunctions/arm_iir_lattice_f32.c ****  * See the License for the specific language governing permissions and
  26:./Libraries/CMSIS/DSP/Source/FilteringFunctions/arm_iir_lattice_f32.c ****  * limitations under the License.
  27:./Libraries/CMSIS/DSP/Source/FilteringFunctions/arm_iir_lattice_f32.c ****  */
  28:./Libraries/CMSIS/DSP/Source/FilteringFunctions/arm_iir_lattice_f32.c **** 
  29:./Libraries/CMSIS/DSP/Source/FilteringFunctions/arm_iir_lattice_f32.c **** #include "arm_math.h"
  30:./Libraries/CMSIS/DSP/Source/FilteringFunctions/arm_iir_lattice_f32.c **** 
  31:./Libraries/CMSIS/DSP/Source/FilteringFunctions/arm_iir_lattice_f32.c **** /**
ARM GAS  /tmp/ccU9e8qr.s 			page 2


  32:./Libraries/CMSIS/DSP/Source/FilteringFunctions/arm_iir_lattice_f32.c ****   @ingroup groupFilters
  33:./Libraries/CMSIS/DSP/Source/FilteringFunctions/arm_iir_lattice_f32.c ****  */
  34:./Libraries/CMSIS/DSP/Source/FilteringFunctions/arm_iir_lattice_f32.c **** 
  35:./Libraries/CMSIS/DSP/Source/FilteringFunctions/arm_iir_lattice_f32.c **** /**
  36:./Libraries/CMSIS/DSP/Source/FilteringFunctions/arm_iir_lattice_f32.c ****   @defgroup IIR_Lattice Infinite Impulse Response (IIR) Lattice Filters
  37:./Libraries/CMSIS/DSP/Source/FilteringFunctions/arm_iir_lattice_f32.c **** 
  38:./Libraries/CMSIS/DSP/Source/FilteringFunctions/arm_iir_lattice_f32.c ****   This set of functions implements lattice filters
  39:./Libraries/CMSIS/DSP/Source/FilteringFunctions/arm_iir_lattice_f32.c ****   for Q15, Q31 and floating-point data types.  Lattice filters are used in a
  40:./Libraries/CMSIS/DSP/Source/FilteringFunctions/arm_iir_lattice_f32.c ****   variety of adaptive filter applications. The filter structure has feedforward and
  41:./Libraries/CMSIS/DSP/Source/FilteringFunctions/arm_iir_lattice_f32.c ****   feedback components and the net impulse response is infinite length.
  42:./Libraries/CMSIS/DSP/Source/FilteringFunctions/arm_iir_lattice_f32.c ****   The functions operate on blocks
  43:./Libraries/CMSIS/DSP/Source/FilteringFunctions/arm_iir_lattice_f32.c ****   of input and output data and each call to the function processes
  44:./Libraries/CMSIS/DSP/Source/FilteringFunctions/arm_iir_lattice_f32.c ****   <code>blockSize</code> samples through the filter.  <code>pSrc</code> and
  45:./Libraries/CMSIS/DSP/Source/FilteringFunctions/arm_iir_lattice_f32.c ****   <code>pDst</code> point to input and output arrays containing <code>blockSize</code> values.
  46:./Libraries/CMSIS/DSP/Source/FilteringFunctions/arm_iir_lattice_f32.c **** 
  47:./Libraries/CMSIS/DSP/Source/FilteringFunctions/arm_iir_lattice_f32.c ****   @par           Algorithm
  48:./Libraries/CMSIS/DSP/Source/FilteringFunctions/arm_iir_lattice_f32.c ****                    \image html IIRLattice.gif "Infinite Impulse Response Lattice filter"
  49:./Libraries/CMSIS/DSP/Source/FilteringFunctions/arm_iir_lattice_f32.c ****   @par
  50:./Libraries/CMSIS/DSP/Source/FilteringFunctions/arm_iir_lattice_f32.c ****   <pre>
  51:./Libraries/CMSIS/DSP/Source/FilteringFunctions/arm_iir_lattice_f32.c ****       fN(n)   = x(n)
  52:./Libraries/CMSIS/DSP/Source/FilteringFunctions/arm_iir_lattice_f32.c ****       fm-1(n) = fm(n) - km * gm-1(n-1)   for m = N, N-1, ..., 1
  53:./Libraries/CMSIS/DSP/Source/FilteringFunctions/arm_iir_lattice_f32.c ****       gm(n)   = km * fm-1(n) + gm-1(n-1) for m = N, N-1, ..., 1
  54:./Libraries/CMSIS/DSP/Source/FilteringFunctions/arm_iir_lattice_f32.c ****       y(n)    = vN * gN(n) + vN-1 * gN-1(n) + ...+ v0 * g0(n)
  55:./Libraries/CMSIS/DSP/Source/FilteringFunctions/arm_iir_lattice_f32.c ****   </pre>
  56:./Libraries/CMSIS/DSP/Source/FilteringFunctions/arm_iir_lattice_f32.c ****   @par
  57:./Libraries/CMSIS/DSP/Source/FilteringFunctions/arm_iir_lattice_f32.c ****                    <code>pkCoeffs</code> points to array of reflection coefficients of size <code>n
  58:./Libraries/CMSIS/DSP/Source/FilteringFunctions/arm_iir_lattice_f32.c ****                    Reflection Coefficients are stored in time-reversed order.
  59:./Libraries/CMSIS/DSP/Source/FilteringFunctions/arm_iir_lattice_f32.c ****   @par
  60:./Libraries/CMSIS/DSP/Source/FilteringFunctions/arm_iir_lattice_f32.c ****   <pre>
  61:./Libraries/CMSIS/DSP/Source/FilteringFunctions/arm_iir_lattice_f32.c ****      {kN, kN-1, ..., k1}
  62:./Libraries/CMSIS/DSP/Source/FilteringFunctions/arm_iir_lattice_f32.c ****   </pre>
  63:./Libraries/CMSIS/DSP/Source/FilteringFunctions/arm_iir_lattice_f32.c ****   @par
  64:./Libraries/CMSIS/DSP/Source/FilteringFunctions/arm_iir_lattice_f32.c ****                   <code>pvCoeffs</code> points to the array of ladder coefficients of size <code>(n
  65:./Libraries/CMSIS/DSP/Source/FilteringFunctions/arm_iir_lattice_f32.c ****                   Ladder coefficients are stored in time-reversed order.
  66:./Libraries/CMSIS/DSP/Source/FilteringFunctions/arm_iir_lattice_f32.c ****   <pre>
  67:./Libraries/CMSIS/DSP/Source/FilteringFunctions/arm_iir_lattice_f32.c ****       {vN, vN-1, ..., v0}
  68:./Libraries/CMSIS/DSP/Source/FilteringFunctions/arm_iir_lattice_f32.c ****   </pre>
  69:./Libraries/CMSIS/DSP/Source/FilteringFunctions/arm_iir_lattice_f32.c ****   @par
  70:./Libraries/CMSIS/DSP/Source/FilteringFunctions/arm_iir_lattice_f32.c ****                    <code>pState</code> points to a state array of size <code>numStages + blockSize<
  71:./Libraries/CMSIS/DSP/Source/FilteringFunctions/arm_iir_lattice_f32.c ****                    The state variables shown in the figure above (the g values) are stored in the <
  72:./Libraries/CMSIS/DSP/Source/FilteringFunctions/arm_iir_lattice_f32.c ****                    The state variables are updated after each block of data is processed; the coeff
  73:./Libraries/CMSIS/DSP/Source/FilteringFunctions/arm_iir_lattice_f32.c **** 
  74:./Libraries/CMSIS/DSP/Source/FilteringFunctions/arm_iir_lattice_f32.c ****   @par           Instance Structure
  75:./Libraries/CMSIS/DSP/Source/FilteringFunctions/arm_iir_lattice_f32.c ****                    The coefficients and state variables for a filter are stored together in an inst
  76:./Libraries/CMSIS/DSP/Source/FilteringFunctions/arm_iir_lattice_f32.c ****                    A separate instance structure must be defined for each filter.
  77:./Libraries/CMSIS/DSP/Source/FilteringFunctions/arm_iir_lattice_f32.c ****                    Coefficient arrays may be shared among several instances while state variable ar
  78:./Libraries/CMSIS/DSP/Source/FilteringFunctions/arm_iir_lattice_f32.c ****                    There are separate instance structure declarations for each of the 3 supported d
  79:./Libraries/CMSIS/DSP/Source/FilteringFunctions/arm_iir_lattice_f32.c **** 
  80:./Libraries/CMSIS/DSP/Source/FilteringFunctions/arm_iir_lattice_f32.c ****   @par           Initialization Functions
  81:./Libraries/CMSIS/DSP/Source/FilteringFunctions/arm_iir_lattice_f32.c ****                    There is also an associated initialization function for each data type.
  82:./Libraries/CMSIS/DSP/Source/FilteringFunctions/arm_iir_lattice_f32.c ****                    The initialization function performs the following operations:
  83:./Libraries/CMSIS/DSP/Source/FilteringFunctions/arm_iir_lattice_f32.c ****                    - Sets the values of the internal structure fields.
  84:./Libraries/CMSIS/DSP/Source/FilteringFunctions/arm_iir_lattice_f32.c ****                    - Zeros out the values in the state buffer.
  85:./Libraries/CMSIS/DSP/Source/FilteringFunctions/arm_iir_lattice_f32.c ****                    To do this manually without calling the init function, assign the follow subfiel
  86:./Libraries/CMSIS/DSP/Source/FilteringFunctions/arm_iir_lattice_f32.c ****                    numStages, pkCoeffs, pvCoeffs, pState. Also set all of the values in pState to z
  87:./Libraries/CMSIS/DSP/Source/FilteringFunctions/arm_iir_lattice_f32.c ****   @par
  88:./Libraries/CMSIS/DSP/Source/FilteringFunctions/arm_iir_lattice_f32.c ****                    Use of the initialization function is optional.
ARM GAS  /tmp/ccU9e8qr.s 			page 3


  89:./Libraries/CMSIS/DSP/Source/FilteringFunctions/arm_iir_lattice_f32.c ****                    However, if the initialization function is used, then the instance structure can
  90:./Libraries/CMSIS/DSP/Source/FilteringFunctions/arm_iir_lattice_f32.c ****                    To place an instance structure into a const data section, the instance structure
  91:./Libraries/CMSIS/DSP/Source/FilteringFunctions/arm_iir_lattice_f32.c ****                    Set the values in the state buffer to zeros and then manually initialize the ins
  92:./Libraries/CMSIS/DSP/Source/FilteringFunctions/arm_iir_lattice_f32.c ****   <pre>
  93:./Libraries/CMSIS/DSP/Source/FilteringFunctions/arm_iir_lattice_f32.c ****       arm_iir_lattice_instance_f32 S = {numStages, pState, pkCoeffs, pvCoeffs};
  94:./Libraries/CMSIS/DSP/Source/FilteringFunctions/arm_iir_lattice_f32.c ****       arm_iir_lattice_instance_q31 S = {numStages, pState, pkCoeffs, pvCoeffs};
  95:./Libraries/CMSIS/DSP/Source/FilteringFunctions/arm_iir_lattice_f32.c ****       arm_iir_lattice_instance_q15 S = {numStages, pState, pkCoeffs, pvCoeffs};
  96:./Libraries/CMSIS/DSP/Source/FilteringFunctions/arm_iir_lattice_f32.c ****   </pre>
  97:./Libraries/CMSIS/DSP/Source/FilteringFunctions/arm_iir_lattice_f32.c ****   @par
  98:./Libraries/CMSIS/DSP/Source/FilteringFunctions/arm_iir_lattice_f32.c ****                    where <code>numStages</code> is the number of stages in the filter; <code>pState
  99:./Libraries/CMSIS/DSP/Source/FilteringFunctions/arm_iir_lattice_f32.c ****                    <code>pkCoeffs</code> points to array of the reflection coefficients; <code>pvCo
 100:./Libraries/CMSIS/DSP/Source/FilteringFunctions/arm_iir_lattice_f32.c **** 
 101:./Libraries/CMSIS/DSP/Source/FilteringFunctions/arm_iir_lattice_f32.c ****   @par           Fixed-Point Behavior
 102:./Libraries/CMSIS/DSP/Source/FilteringFunctions/arm_iir_lattice_f32.c ****                    Care must be taken when using the fixed-point versions of the IIR lattice filter
 103:./Libraries/CMSIS/DSP/Source/FilteringFunctions/arm_iir_lattice_f32.c ****                    In particular, the overflow and saturation behavior of the accumulator used in e
 104:./Libraries/CMSIS/DSP/Source/FilteringFunctions/arm_iir_lattice_f32.c ****                    Refer to the function specific documentation below for usage guidelines.
 105:./Libraries/CMSIS/DSP/Source/FilteringFunctions/arm_iir_lattice_f32.c ****  */
 106:./Libraries/CMSIS/DSP/Source/FilteringFunctions/arm_iir_lattice_f32.c **** 
 107:./Libraries/CMSIS/DSP/Source/FilteringFunctions/arm_iir_lattice_f32.c **** /**
 108:./Libraries/CMSIS/DSP/Source/FilteringFunctions/arm_iir_lattice_f32.c ****   @addtogroup IIR_Lattice
 109:./Libraries/CMSIS/DSP/Source/FilteringFunctions/arm_iir_lattice_f32.c ****   @{
 110:./Libraries/CMSIS/DSP/Source/FilteringFunctions/arm_iir_lattice_f32.c ****  */
 111:./Libraries/CMSIS/DSP/Source/FilteringFunctions/arm_iir_lattice_f32.c **** 
 112:./Libraries/CMSIS/DSP/Source/FilteringFunctions/arm_iir_lattice_f32.c **** /**
 113:./Libraries/CMSIS/DSP/Source/FilteringFunctions/arm_iir_lattice_f32.c ****   @brief         Processing function for the floating-point IIR lattice filter.
 114:./Libraries/CMSIS/DSP/Source/FilteringFunctions/arm_iir_lattice_f32.c ****   @param[in]     S          points to an instance of the floating-point IIR lattice structure
 115:./Libraries/CMSIS/DSP/Source/FilteringFunctions/arm_iir_lattice_f32.c ****   @param[in]     pSrc       points to the block of input data
 116:./Libraries/CMSIS/DSP/Source/FilteringFunctions/arm_iir_lattice_f32.c ****   @param[out]    pDst       points to the block of output data
 117:./Libraries/CMSIS/DSP/Source/FilteringFunctions/arm_iir_lattice_f32.c ****   @param[in]     blockSize  number of samples to process
 118:./Libraries/CMSIS/DSP/Source/FilteringFunctions/arm_iir_lattice_f32.c ****   @return        none
 119:./Libraries/CMSIS/DSP/Source/FilteringFunctions/arm_iir_lattice_f32.c ****  */
 120:./Libraries/CMSIS/DSP/Source/FilteringFunctions/arm_iir_lattice_f32.c **** 
 121:./Libraries/CMSIS/DSP/Source/FilteringFunctions/arm_iir_lattice_f32.c **** void arm_iir_lattice_f32(
 122:./Libraries/CMSIS/DSP/Source/FilteringFunctions/arm_iir_lattice_f32.c ****   const arm_iir_lattice_instance_f32 * S,
 123:./Libraries/CMSIS/DSP/Source/FilteringFunctions/arm_iir_lattice_f32.c ****   const float32_t * pSrc,
 124:./Libraries/CMSIS/DSP/Source/FilteringFunctions/arm_iir_lattice_f32.c ****         float32_t * pDst,
 125:./Libraries/CMSIS/DSP/Source/FilteringFunctions/arm_iir_lattice_f32.c ****         uint32_t blockSize)
 126:./Libraries/CMSIS/DSP/Source/FilteringFunctions/arm_iir_lattice_f32.c **** {       
  28              		.loc 1 126 1
  29              		.cfi_startproc
  30              		@ args = 0, pretend = 0, frame = 72
  31              		@ frame_needed = 1, uses_anonymous_args = 0
  32              		@ link register save eliminated.
  33 0000 80B4     		push	{r7}
  34              	.LCFI0:
  35              		.cfi_def_cfa_offset 4
  36              		.cfi_offset 7, -4
  37 0002 93B0     		sub	sp, sp, #76
  38              	.LCFI1:
  39              		.cfi_def_cfa_offset 80
  40 0004 00AF     		add	r7, sp, #0
  41              	.LCFI2:
  42              		.cfi_def_cfa_register 7
  43 0006 F860     		str	r0, [r7, #12]
  44 0008 B960     		str	r1, [r7, #8]
  45 000a 7A60     		str	r2, [r7, #4]
  46 000c 3B60     		str	r3, [r7]
ARM GAS  /tmp/ccU9e8qr.s 			page 4


 127:./Libraries/CMSIS/DSP/Source/FilteringFunctions/arm_iir_lattice_f32.c ****         float32_t *pState = S->pState;                   /* State pointer */
  47              		.loc 1 127 20
  48 000e FB68     		ldr	r3, [r7, #12]
  49 0010 5B68     		ldr	r3, [r3, #4]
  50 0012 7B64     		str	r3, [r7, #68]
 128:./Libraries/CMSIS/DSP/Source/FilteringFunctions/arm_iir_lattice_f32.c ****         float32_t *pStateCur;                            /* State current pointer */
 129:./Libraries/CMSIS/DSP/Source/FilteringFunctions/arm_iir_lattice_f32.c ****         float32_t acc;                                   /* Accumlator */
 130:./Libraries/CMSIS/DSP/Source/FilteringFunctions/arm_iir_lattice_f32.c ****         float32_t fnext1, fnext2, gcurr1, gnext;         /* Temporary variables for lattice stages 
 131:./Libraries/CMSIS/DSP/Source/FilteringFunctions/arm_iir_lattice_f32.c ****         float32_t *px1, *px2, *pk, *pv;                  /* Temporary pointers for state and coef *
 132:./Libraries/CMSIS/DSP/Source/FilteringFunctions/arm_iir_lattice_f32.c ****         uint32_t numStages = S->numStages;               /* Number of stages */
  51              		.loc 1 132 31
  52 0014 FB68     		ldr	r3, [r7, #12]
  53 0016 1B88     		ldrh	r3, [r3]
  54              		.loc 1 132 18
  55 0018 FB61     		str	r3, [r7, #28]
 133:./Libraries/CMSIS/DSP/Source/FilteringFunctions/arm_iir_lattice_f32.c ****         uint32_t blkCnt, tapCnt;                         /* Temporary variables for counts */
 134:./Libraries/CMSIS/DSP/Source/FilteringFunctions/arm_iir_lattice_f32.c **** 
 135:./Libraries/CMSIS/DSP/Source/FilteringFunctions/arm_iir_lattice_f32.c **** #if defined (ARM_MATH_LOOPUNROLL)
 136:./Libraries/CMSIS/DSP/Source/FilteringFunctions/arm_iir_lattice_f32.c ****         float32_t gcurr2;                                /* Temporary variables for lattice stages 
 137:./Libraries/CMSIS/DSP/Source/FilteringFunctions/arm_iir_lattice_f32.c ****         float32_t k1, k2;
 138:./Libraries/CMSIS/DSP/Source/FilteringFunctions/arm_iir_lattice_f32.c ****         float32_t v1, v2, v3, v4;
 139:./Libraries/CMSIS/DSP/Source/FilteringFunctions/arm_iir_lattice_f32.c **** #endif
 140:./Libraries/CMSIS/DSP/Source/FilteringFunctions/arm_iir_lattice_f32.c **** 
 141:./Libraries/CMSIS/DSP/Source/FilteringFunctions/arm_iir_lattice_f32.c ****   /* initialise loop count */
 142:./Libraries/CMSIS/DSP/Source/FilteringFunctions/arm_iir_lattice_f32.c ****   blkCnt = blockSize;
  56              		.loc 1 142 10
  57 001a 3B68     		ldr	r3, [r7]
  58 001c 7B62     		str	r3, [r7, #36]
 143:./Libraries/CMSIS/DSP/Source/FilteringFunctions/arm_iir_lattice_f32.c **** 
 144:./Libraries/CMSIS/DSP/Source/FilteringFunctions/arm_iir_lattice_f32.c ****   /* Sample processing */
 145:./Libraries/CMSIS/DSP/Source/FilteringFunctions/arm_iir_lattice_f32.c ****   while (blkCnt > 0U)
  59              		.loc 1 145 9
  60 001e 6EE0     		b	.L2
  61              	.L5:
 146:./Libraries/CMSIS/DSP/Source/FilteringFunctions/arm_iir_lattice_f32.c ****   {
 147:./Libraries/CMSIS/DSP/Source/FilteringFunctions/arm_iir_lattice_f32.c ****     /* Read Sample from input buffer */
 148:./Libraries/CMSIS/DSP/Source/FilteringFunctions/arm_iir_lattice_f32.c ****     /* fN(n) = x(n) */
 149:./Libraries/CMSIS/DSP/Source/FilteringFunctions/arm_iir_lattice_f32.c ****     fnext2 = *pSrc++;
  62              		.loc 1 149 19
  63 0020 BB68     		ldr	r3, [r7, #8]
  64 0022 1A1D     		adds	r2, r3, #4
  65 0024 BA60     		str	r2, [r7, #8]
  66              		.loc 1 149 12
  67 0026 1B68     		ldr	r3, [r3]	@ float
  68 0028 BB63     		str	r3, [r7, #56]	@ float
 150:./Libraries/CMSIS/DSP/Source/FilteringFunctions/arm_iir_lattice_f32.c **** 
 151:./Libraries/CMSIS/DSP/Source/FilteringFunctions/arm_iir_lattice_f32.c ****     /* Initialize Ladder coeff pointer */
 152:./Libraries/CMSIS/DSP/Source/FilteringFunctions/arm_iir_lattice_f32.c ****     pv = &S->pvCoeffs[0];
  69              		.loc 1 152 8
  70 002a FB68     		ldr	r3, [r7, #12]
  71 002c DB68     		ldr	r3, [r3, #12]
  72 002e BB62     		str	r3, [r7, #40]
 153:./Libraries/CMSIS/DSP/Source/FilteringFunctions/arm_iir_lattice_f32.c **** 
 154:./Libraries/CMSIS/DSP/Source/FilteringFunctions/arm_iir_lattice_f32.c ****     /* Initialize Reflection coeff pointer */
 155:./Libraries/CMSIS/DSP/Source/FilteringFunctions/arm_iir_lattice_f32.c ****     pk = &S->pkCoeffs[0];
  73              		.loc 1 155 8
  74 0030 FB68     		ldr	r3, [r7, #12]
ARM GAS  /tmp/ccU9e8qr.s 			page 5


  75 0032 9B68     		ldr	r3, [r3, #8]
  76 0034 FB62     		str	r3, [r7, #44]
 156:./Libraries/CMSIS/DSP/Source/FilteringFunctions/arm_iir_lattice_f32.c **** 
 157:./Libraries/CMSIS/DSP/Source/FilteringFunctions/arm_iir_lattice_f32.c ****     /* Initialize state read pointer */
 158:./Libraries/CMSIS/DSP/Source/FilteringFunctions/arm_iir_lattice_f32.c ****     px1 = pState;
  77              		.loc 1 158 9
  78 0036 7B6C     		ldr	r3, [r7, #68]
  79 0038 7B63     		str	r3, [r7, #52]
 159:./Libraries/CMSIS/DSP/Source/FilteringFunctions/arm_iir_lattice_f32.c **** 
 160:./Libraries/CMSIS/DSP/Source/FilteringFunctions/arm_iir_lattice_f32.c ****     /* Initialize state write pointer */
 161:./Libraries/CMSIS/DSP/Source/FilteringFunctions/arm_iir_lattice_f32.c ****     px2 = pState;
  80              		.loc 1 161 9
  81 003a 7B6C     		ldr	r3, [r7, #68]
  82 003c 3B63     		str	r3, [r7, #48]
 162:./Libraries/CMSIS/DSP/Source/FilteringFunctions/arm_iir_lattice_f32.c **** 
 163:./Libraries/CMSIS/DSP/Source/FilteringFunctions/arm_iir_lattice_f32.c ****     /* Set accumulator to zero */
 164:./Libraries/CMSIS/DSP/Source/FilteringFunctions/arm_iir_lattice_f32.c ****     acc = 0.0;
  83              		.loc 1 164 9
  84 003e 4FF00003 		mov	r3, #0
  85 0042 FB63     		str	r3, [r7, #60]	@ float
 165:./Libraries/CMSIS/DSP/Source/FilteringFunctions/arm_iir_lattice_f32.c **** 
 166:./Libraries/CMSIS/DSP/Source/FilteringFunctions/arm_iir_lattice_f32.c **** #if defined (ARM_MATH_LOOPUNROLL)
 167:./Libraries/CMSIS/DSP/Source/FilteringFunctions/arm_iir_lattice_f32.c **** 
 168:./Libraries/CMSIS/DSP/Source/FilteringFunctions/arm_iir_lattice_f32.c ****     /* Loop unrolling: Compute 4 taps at a time. */
 169:./Libraries/CMSIS/DSP/Source/FilteringFunctions/arm_iir_lattice_f32.c ****     tapCnt = (numStages) >> 2U;
 170:./Libraries/CMSIS/DSP/Source/FilteringFunctions/arm_iir_lattice_f32.c **** 
 171:./Libraries/CMSIS/DSP/Source/FilteringFunctions/arm_iir_lattice_f32.c ****     while (tapCnt > 0U)
 172:./Libraries/CMSIS/DSP/Source/FilteringFunctions/arm_iir_lattice_f32.c ****     {
 173:./Libraries/CMSIS/DSP/Source/FilteringFunctions/arm_iir_lattice_f32.c ****       /* Read gN-1(n-1) from state buffer */
 174:./Libraries/CMSIS/DSP/Source/FilteringFunctions/arm_iir_lattice_f32.c ****       gcurr1 = *px1;
 175:./Libraries/CMSIS/DSP/Source/FilteringFunctions/arm_iir_lattice_f32.c **** 
 176:./Libraries/CMSIS/DSP/Source/FilteringFunctions/arm_iir_lattice_f32.c ****       /* read reflection coefficient kN */
 177:./Libraries/CMSIS/DSP/Source/FilteringFunctions/arm_iir_lattice_f32.c ****       k1 = *pk;
 178:./Libraries/CMSIS/DSP/Source/FilteringFunctions/arm_iir_lattice_f32.c **** 
 179:./Libraries/CMSIS/DSP/Source/FilteringFunctions/arm_iir_lattice_f32.c ****       /* fN-1(n) = fN(n) - kN * gN-1(n-1) */
 180:./Libraries/CMSIS/DSP/Source/FilteringFunctions/arm_iir_lattice_f32.c ****       fnext1 = fnext2 - (k1 * gcurr1);
 181:./Libraries/CMSIS/DSP/Source/FilteringFunctions/arm_iir_lattice_f32.c **** 
 182:./Libraries/CMSIS/DSP/Source/FilteringFunctions/arm_iir_lattice_f32.c ****       /* read ladder coefficient vN */
 183:./Libraries/CMSIS/DSP/Source/FilteringFunctions/arm_iir_lattice_f32.c ****       v1 = *pv;
 184:./Libraries/CMSIS/DSP/Source/FilteringFunctions/arm_iir_lattice_f32.c **** 
 185:./Libraries/CMSIS/DSP/Source/FilteringFunctions/arm_iir_lattice_f32.c ****       /* read next reflection coefficient kN-1 */
 186:./Libraries/CMSIS/DSP/Source/FilteringFunctions/arm_iir_lattice_f32.c ****       k2 = *(pk + 1U);
 187:./Libraries/CMSIS/DSP/Source/FilteringFunctions/arm_iir_lattice_f32.c **** 
 188:./Libraries/CMSIS/DSP/Source/FilteringFunctions/arm_iir_lattice_f32.c ****       /* Read gN-2(n-1) from state buffer */
 189:./Libraries/CMSIS/DSP/Source/FilteringFunctions/arm_iir_lattice_f32.c ****       gcurr2 = *(px1 + 1U);
 190:./Libraries/CMSIS/DSP/Source/FilteringFunctions/arm_iir_lattice_f32.c **** 
 191:./Libraries/CMSIS/DSP/Source/FilteringFunctions/arm_iir_lattice_f32.c ****       /* read next ladder coefficient vN-1 */
 192:./Libraries/CMSIS/DSP/Source/FilteringFunctions/arm_iir_lattice_f32.c ****       v2 = *(pv + 1U);
 193:./Libraries/CMSIS/DSP/Source/FilteringFunctions/arm_iir_lattice_f32.c **** 
 194:./Libraries/CMSIS/DSP/Source/FilteringFunctions/arm_iir_lattice_f32.c ****       /* fN-2(n) = fN-1(n) - kN-1 * gN-2(n-1) */
 195:./Libraries/CMSIS/DSP/Source/FilteringFunctions/arm_iir_lattice_f32.c ****       fnext2 = fnext1 - (k2 * gcurr2);
 196:./Libraries/CMSIS/DSP/Source/FilteringFunctions/arm_iir_lattice_f32.c **** 
 197:./Libraries/CMSIS/DSP/Source/FilteringFunctions/arm_iir_lattice_f32.c ****       /* gN(n)   = kN * fN-1(n) + gN-1(n-1) */
 198:./Libraries/CMSIS/DSP/Source/FilteringFunctions/arm_iir_lattice_f32.c ****       gnext = gcurr1 + (k1 * fnext1);
 199:./Libraries/CMSIS/DSP/Source/FilteringFunctions/arm_iir_lattice_f32.c **** 
 200:./Libraries/CMSIS/DSP/Source/FilteringFunctions/arm_iir_lattice_f32.c ****       /* read reflection coefficient kN-2 */
 201:./Libraries/CMSIS/DSP/Source/FilteringFunctions/arm_iir_lattice_f32.c ****       k1 = *(pk + 2U);
ARM GAS  /tmp/ccU9e8qr.s 			page 6


 202:./Libraries/CMSIS/DSP/Source/FilteringFunctions/arm_iir_lattice_f32.c **** 
 203:./Libraries/CMSIS/DSP/Source/FilteringFunctions/arm_iir_lattice_f32.c ****       /* write gN(n) into state for next sample processing */
 204:./Libraries/CMSIS/DSP/Source/FilteringFunctions/arm_iir_lattice_f32.c ****       *px2++ = gnext;
 205:./Libraries/CMSIS/DSP/Source/FilteringFunctions/arm_iir_lattice_f32.c **** 
 206:./Libraries/CMSIS/DSP/Source/FilteringFunctions/arm_iir_lattice_f32.c ****       /* Read gN-3(n-1) from state buffer */
 207:./Libraries/CMSIS/DSP/Source/FilteringFunctions/arm_iir_lattice_f32.c ****       gcurr1 = *(px1 + 2U);
 208:./Libraries/CMSIS/DSP/Source/FilteringFunctions/arm_iir_lattice_f32.c **** 
 209:./Libraries/CMSIS/DSP/Source/FilteringFunctions/arm_iir_lattice_f32.c ****       /* y(n) += gN(n) * vN  */
 210:./Libraries/CMSIS/DSP/Source/FilteringFunctions/arm_iir_lattice_f32.c ****       acc += (gnext * v1);
 211:./Libraries/CMSIS/DSP/Source/FilteringFunctions/arm_iir_lattice_f32.c **** 
 212:./Libraries/CMSIS/DSP/Source/FilteringFunctions/arm_iir_lattice_f32.c ****       /* fN-3(n) = fN-2(n) - kN-2 * gN-3(n-1) */
 213:./Libraries/CMSIS/DSP/Source/FilteringFunctions/arm_iir_lattice_f32.c ****       fnext1 = fnext2 - (k1 * gcurr1);
 214:./Libraries/CMSIS/DSP/Source/FilteringFunctions/arm_iir_lattice_f32.c **** 
 215:./Libraries/CMSIS/DSP/Source/FilteringFunctions/arm_iir_lattice_f32.c ****       /* gN-1(n)   = kN-1 * fN-2(n) + gN-2(n-1) */
 216:./Libraries/CMSIS/DSP/Source/FilteringFunctions/arm_iir_lattice_f32.c ****       gnext = gcurr2 + (k2 * fnext2);
 217:./Libraries/CMSIS/DSP/Source/FilteringFunctions/arm_iir_lattice_f32.c **** 
 218:./Libraries/CMSIS/DSP/Source/FilteringFunctions/arm_iir_lattice_f32.c ****       /* Read gN-4(n-1) from state buffer */
 219:./Libraries/CMSIS/DSP/Source/FilteringFunctions/arm_iir_lattice_f32.c ****       gcurr2 = *(px1 + 3U);
 220:./Libraries/CMSIS/DSP/Source/FilteringFunctions/arm_iir_lattice_f32.c **** 
 221:./Libraries/CMSIS/DSP/Source/FilteringFunctions/arm_iir_lattice_f32.c ****       /* y(n) += gN-1(n) * vN-1  */
 222:./Libraries/CMSIS/DSP/Source/FilteringFunctions/arm_iir_lattice_f32.c ****       acc += (gnext * v2);
 223:./Libraries/CMSIS/DSP/Source/FilteringFunctions/arm_iir_lattice_f32.c **** 
 224:./Libraries/CMSIS/DSP/Source/FilteringFunctions/arm_iir_lattice_f32.c ****       /* read reflection coefficient kN-3 */
 225:./Libraries/CMSIS/DSP/Source/FilteringFunctions/arm_iir_lattice_f32.c ****       k2 = *(pk + 3U);
 226:./Libraries/CMSIS/DSP/Source/FilteringFunctions/arm_iir_lattice_f32.c **** 
 227:./Libraries/CMSIS/DSP/Source/FilteringFunctions/arm_iir_lattice_f32.c ****       /* write gN-1(n) into state for next sample processing */
 228:./Libraries/CMSIS/DSP/Source/FilteringFunctions/arm_iir_lattice_f32.c ****       *px2++ = gnext;
 229:./Libraries/CMSIS/DSP/Source/FilteringFunctions/arm_iir_lattice_f32.c **** 
 230:./Libraries/CMSIS/DSP/Source/FilteringFunctions/arm_iir_lattice_f32.c ****       /* fN-4(n) = fN-3(n) - kN-3 * gN-4(n-1) */
 231:./Libraries/CMSIS/DSP/Source/FilteringFunctions/arm_iir_lattice_f32.c ****       fnext2 = fnext1 - (k2 * gcurr2);
 232:./Libraries/CMSIS/DSP/Source/FilteringFunctions/arm_iir_lattice_f32.c **** 
 233:./Libraries/CMSIS/DSP/Source/FilteringFunctions/arm_iir_lattice_f32.c ****       /* gN-2(n) = kN-2 * fN-3(n) + gN-3(n-1) */
 234:./Libraries/CMSIS/DSP/Source/FilteringFunctions/arm_iir_lattice_f32.c ****       gnext = gcurr1 + (k1 * fnext1);
 235:./Libraries/CMSIS/DSP/Source/FilteringFunctions/arm_iir_lattice_f32.c **** 
 236:./Libraries/CMSIS/DSP/Source/FilteringFunctions/arm_iir_lattice_f32.c ****       /* read ladder coefficient vN-2 */
 237:./Libraries/CMSIS/DSP/Source/FilteringFunctions/arm_iir_lattice_f32.c ****       v3 = *(pv + 2U);
 238:./Libraries/CMSIS/DSP/Source/FilteringFunctions/arm_iir_lattice_f32.c **** 
 239:./Libraries/CMSIS/DSP/Source/FilteringFunctions/arm_iir_lattice_f32.c ****       /* y(n) += gN-2(n) * vN-2  */
 240:./Libraries/CMSIS/DSP/Source/FilteringFunctions/arm_iir_lattice_f32.c ****       acc += (gnext * v3);
 241:./Libraries/CMSIS/DSP/Source/FilteringFunctions/arm_iir_lattice_f32.c **** 
 242:./Libraries/CMSIS/DSP/Source/FilteringFunctions/arm_iir_lattice_f32.c ****       /* write gN-2(n) into state for next sample processing */
 243:./Libraries/CMSIS/DSP/Source/FilteringFunctions/arm_iir_lattice_f32.c ****       *px2++ = gnext;
 244:./Libraries/CMSIS/DSP/Source/FilteringFunctions/arm_iir_lattice_f32.c **** 
 245:./Libraries/CMSIS/DSP/Source/FilteringFunctions/arm_iir_lattice_f32.c ****       /* update pointer */
 246:./Libraries/CMSIS/DSP/Source/FilteringFunctions/arm_iir_lattice_f32.c ****       pk += 4U;
 247:./Libraries/CMSIS/DSP/Source/FilteringFunctions/arm_iir_lattice_f32.c **** 
 248:./Libraries/CMSIS/DSP/Source/FilteringFunctions/arm_iir_lattice_f32.c ****       /* gN-3(n) = kN-3 * fN-4(n) + gN-4(n-1) */
 249:./Libraries/CMSIS/DSP/Source/FilteringFunctions/arm_iir_lattice_f32.c ****       gnext = (fnext2 * k2) + gcurr2;
 250:./Libraries/CMSIS/DSP/Source/FilteringFunctions/arm_iir_lattice_f32.c **** 
 251:./Libraries/CMSIS/DSP/Source/FilteringFunctions/arm_iir_lattice_f32.c ****       /* read next ladder coefficient vN-3 */
 252:./Libraries/CMSIS/DSP/Source/FilteringFunctions/arm_iir_lattice_f32.c ****       v4 = *(pv + 3U);
 253:./Libraries/CMSIS/DSP/Source/FilteringFunctions/arm_iir_lattice_f32.c **** 
 254:./Libraries/CMSIS/DSP/Source/FilteringFunctions/arm_iir_lattice_f32.c ****       /* y(n) += gN-4(n) * vN-4  */
 255:./Libraries/CMSIS/DSP/Source/FilteringFunctions/arm_iir_lattice_f32.c ****       acc += (gnext * v4);
 256:./Libraries/CMSIS/DSP/Source/FilteringFunctions/arm_iir_lattice_f32.c **** 
 257:./Libraries/CMSIS/DSP/Source/FilteringFunctions/arm_iir_lattice_f32.c ****       /* write gN-3(n) into state for next sample processing */
 258:./Libraries/CMSIS/DSP/Source/FilteringFunctions/arm_iir_lattice_f32.c ****       *px2++ = gnext;
ARM GAS  /tmp/ccU9e8qr.s 			page 7


 259:./Libraries/CMSIS/DSP/Source/FilteringFunctions/arm_iir_lattice_f32.c **** 
 260:./Libraries/CMSIS/DSP/Source/FilteringFunctions/arm_iir_lattice_f32.c ****       /* update pointers */
 261:./Libraries/CMSIS/DSP/Source/FilteringFunctions/arm_iir_lattice_f32.c ****       px1 += 4U;
 262:./Libraries/CMSIS/DSP/Source/FilteringFunctions/arm_iir_lattice_f32.c ****       pv += 4U;
 263:./Libraries/CMSIS/DSP/Source/FilteringFunctions/arm_iir_lattice_f32.c **** 
 264:./Libraries/CMSIS/DSP/Source/FilteringFunctions/arm_iir_lattice_f32.c ****       /* Decrement loop counter */
 265:./Libraries/CMSIS/DSP/Source/FilteringFunctions/arm_iir_lattice_f32.c ****       tapCnt--;
 266:./Libraries/CMSIS/DSP/Source/FilteringFunctions/arm_iir_lattice_f32.c ****     }
 267:./Libraries/CMSIS/DSP/Source/FilteringFunctions/arm_iir_lattice_f32.c **** 
 268:./Libraries/CMSIS/DSP/Source/FilteringFunctions/arm_iir_lattice_f32.c ****     /* Loop unrolling: Compute remaining taps */
 269:./Libraries/CMSIS/DSP/Source/FilteringFunctions/arm_iir_lattice_f32.c ****     tapCnt = numStages % 0x4U;
 270:./Libraries/CMSIS/DSP/Source/FilteringFunctions/arm_iir_lattice_f32.c **** 
 271:./Libraries/CMSIS/DSP/Source/FilteringFunctions/arm_iir_lattice_f32.c **** #else
 272:./Libraries/CMSIS/DSP/Source/FilteringFunctions/arm_iir_lattice_f32.c **** 
 273:./Libraries/CMSIS/DSP/Source/FilteringFunctions/arm_iir_lattice_f32.c ****     /* Initialize tapCnt with number of samples */
 274:./Libraries/CMSIS/DSP/Source/FilteringFunctions/arm_iir_lattice_f32.c ****     tapCnt = numStages;
  86              		.loc 1 274 12
  87 0044 FB69     		ldr	r3, [r7, #28]
  88 0046 3B62     		str	r3, [r7, #32]
 275:./Libraries/CMSIS/DSP/Source/FilteringFunctions/arm_iir_lattice_f32.c **** 
 276:./Libraries/CMSIS/DSP/Source/FilteringFunctions/arm_iir_lattice_f32.c **** #endif /* #if defined (ARM_MATH_LOOPUNROLL) */
 277:./Libraries/CMSIS/DSP/Source/FilteringFunctions/arm_iir_lattice_f32.c **** 
 278:./Libraries/CMSIS/DSP/Source/FilteringFunctions/arm_iir_lattice_f32.c ****     while (tapCnt > 0U)
  89              		.loc 1 278 11
  90 0048 39E0     		b	.L3
  91              	.L4:
 279:./Libraries/CMSIS/DSP/Source/FilteringFunctions/arm_iir_lattice_f32.c ****     {
 280:./Libraries/CMSIS/DSP/Source/FilteringFunctions/arm_iir_lattice_f32.c ****       gcurr1 = *px1++;
  92              		.loc 1 280 20
  93 004a 7B6B     		ldr	r3, [r7, #52]
  94 004c 1A1D     		adds	r2, r3, #4
  95 004e 7A63     		str	r2, [r7, #52]
  96              		.loc 1 280 14
  97 0050 1B68     		ldr	r3, [r3]	@ float
  98 0052 BB61     		str	r3, [r7, #24]	@ float
 281:./Libraries/CMSIS/DSP/Source/FilteringFunctions/arm_iir_lattice_f32.c ****       /* Process sample for last taps */
 282:./Libraries/CMSIS/DSP/Source/FilteringFunctions/arm_iir_lattice_f32.c ****       fnext1 = fnext2 - ((*pk) * gcurr1);
  99              		.loc 1 282 27
 100 0054 FB6A     		ldr	r3, [r7, #44]
 101 0056 93ED007A 		vldr.32	s14, [r3]
 102              		.loc 1 282 32
 103 005a D7ED067A 		vldr.32	s15, [r7, #24]
 104 005e 67EE277A 		vmul.f32	s15, s14, s15
 105              		.loc 1 282 14
 106 0062 97ED0E7A 		vldr.32	s14, [r7, #56]
 107 0066 77EE677A 		vsub.f32	s15, s14, s15
 108 006a C7ED057A 		vstr.32	s15, [r7, #20]
 283:./Libraries/CMSIS/DSP/Source/FilteringFunctions/arm_iir_lattice_f32.c ****       gnext = (fnext1 * (*pk++)) + gcurr1;
 109              		.loc 1 283 29
 110 006e FB6A     		ldr	r3, [r7, #44]
 111 0070 1A1D     		adds	r2, r3, #4
 112 0072 FA62     		str	r2, [r7, #44]
 113              		.loc 1 283 26
 114 0074 93ED007A 		vldr.32	s14, [r3]
 115              		.loc 1 283 23
 116 0078 D7ED057A 		vldr.32	s15, [r7, #20]
 117 007c 67EE277A 		vmul.f32	s15, s14, s15
ARM GAS  /tmp/ccU9e8qr.s 			page 8


 118              		.loc 1 283 13
 119 0080 97ED067A 		vldr.32	s14, [r7, #24]
 120 0084 77EE277A 		vadd.f32	s15, s14, s15
 121 0088 C7ED047A 		vstr.32	s15, [r7, #16]
 284:./Libraries/CMSIS/DSP/Source/FilteringFunctions/arm_iir_lattice_f32.c ****       /* Output samples for last taps */
 285:./Libraries/CMSIS/DSP/Source/FilteringFunctions/arm_iir_lattice_f32.c ****       acc += (gnext * (*pv++));
 122              		.loc 1 285 27
 123 008c BB6A     		ldr	r3, [r7, #40]
 124 008e 1A1D     		adds	r2, r3, #4
 125 0090 BA62     		str	r2, [r7, #40]
 126              		.loc 1 285 24
 127 0092 93ED007A 		vldr.32	s14, [r3]
 128              		.loc 1 285 21
 129 0096 D7ED047A 		vldr.32	s15, [r7, #16]
 130 009a 67EE277A 		vmul.f32	s15, s14, s15
 131              		.loc 1 285 11
 132 009e 97ED0F7A 		vldr.32	s14, [r7, #60]
 133 00a2 77EE277A 		vadd.f32	s15, s14, s15
 134 00a6 C7ED0F7A 		vstr.32	s15, [r7, #60]
 286:./Libraries/CMSIS/DSP/Source/FilteringFunctions/arm_iir_lattice_f32.c ****       *px2++ = gnext;
 135              		.loc 1 286 11
 136 00aa 3B6B     		ldr	r3, [r7, #48]
 137 00ac 1A1D     		adds	r2, r3, #4
 138 00ae 3A63     		str	r2, [r7, #48]
 139              		.loc 1 286 14
 140 00b0 3A69     		ldr	r2, [r7, #16]	@ float
 141 00b2 1A60     		str	r2, [r3]	@ float
 287:./Libraries/CMSIS/DSP/Source/FilteringFunctions/arm_iir_lattice_f32.c ****       fnext2 = fnext1;
 142              		.loc 1 287 14
 143 00b4 7B69     		ldr	r3, [r7, #20]	@ float
 144 00b6 BB63     		str	r3, [r7, #56]	@ float
 288:./Libraries/CMSIS/DSP/Source/FilteringFunctions/arm_iir_lattice_f32.c **** 
 289:./Libraries/CMSIS/DSP/Source/FilteringFunctions/arm_iir_lattice_f32.c ****       /* Decrement loop counter */
 290:./Libraries/CMSIS/DSP/Source/FilteringFunctions/arm_iir_lattice_f32.c ****       tapCnt--;
 145              		.loc 1 290 13
 146 00b8 3B6A     		ldr	r3, [r7, #32]
 147 00ba 013B     		subs	r3, r3, #1
 148 00bc 3B62     		str	r3, [r7, #32]
 149              	.L3:
 278:./Libraries/CMSIS/DSP/Source/FilteringFunctions/arm_iir_lattice_f32.c ****     {
 150              		.loc 1 278 11
 151 00be 3B6A     		ldr	r3, [r7, #32]
 152 00c0 002B     		cmp	r3, #0
 153 00c2 C2D1     		bne	.L4
 291:./Libraries/CMSIS/DSP/Source/FilteringFunctions/arm_iir_lattice_f32.c ****     }
 292:./Libraries/CMSIS/DSP/Source/FilteringFunctions/arm_iir_lattice_f32.c **** 
 293:./Libraries/CMSIS/DSP/Source/FilteringFunctions/arm_iir_lattice_f32.c ****     /* y(n) += g0(n) * v0 */
 294:./Libraries/CMSIS/DSP/Source/FilteringFunctions/arm_iir_lattice_f32.c ****     acc += (fnext2 * (*pv));
 154              		.loc 1 294 23
 155 00c4 BB6A     		ldr	r3, [r7, #40]
 156 00c6 93ED007A 		vldr.32	s14, [r3]
 157              		.loc 1 294 20
 158 00ca D7ED0E7A 		vldr.32	s15, [r7, #56]
 159 00ce 67EE277A 		vmul.f32	s15, s14, s15
 160              		.loc 1 294 9
 161 00d2 97ED0F7A 		vldr.32	s14, [r7, #60]
 162 00d6 77EE277A 		vadd.f32	s15, s14, s15
ARM GAS  /tmp/ccU9e8qr.s 			page 9


 163 00da C7ED0F7A 		vstr.32	s15, [r7, #60]
 295:./Libraries/CMSIS/DSP/Source/FilteringFunctions/arm_iir_lattice_f32.c **** 
 296:./Libraries/CMSIS/DSP/Source/FilteringFunctions/arm_iir_lattice_f32.c ****     *px2++ = fnext2;
 164              		.loc 1 296 9
 165 00de 3B6B     		ldr	r3, [r7, #48]
 166 00e0 1A1D     		adds	r2, r3, #4
 167 00e2 3A63     		str	r2, [r7, #48]
 168              		.loc 1 296 12
 169 00e4 BA6B     		ldr	r2, [r7, #56]	@ float
 170 00e6 1A60     		str	r2, [r3]	@ float
 297:./Libraries/CMSIS/DSP/Source/FilteringFunctions/arm_iir_lattice_f32.c **** 
 298:./Libraries/CMSIS/DSP/Source/FilteringFunctions/arm_iir_lattice_f32.c ****     /* write out into pDst */
 299:./Libraries/CMSIS/DSP/Source/FilteringFunctions/arm_iir_lattice_f32.c ****     *pDst++ = acc;
 171              		.loc 1 299 10
 172 00e8 7B68     		ldr	r3, [r7, #4]
 173 00ea 1A1D     		adds	r2, r3, #4
 174 00ec 7A60     		str	r2, [r7, #4]
 175              		.loc 1 299 13
 176 00ee FA6B     		ldr	r2, [r7, #60]	@ float
 177 00f0 1A60     		str	r2, [r3]	@ float
 300:./Libraries/CMSIS/DSP/Source/FilteringFunctions/arm_iir_lattice_f32.c **** 
 301:./Libraries/CMSIS/DSP/Source/FilteringFunctions/arm_iir_lattice_f32.c ****     /* Advance the state pointer by 4 to process the next group of 4 samples */
 302:./Libraries/CMSIS/DSP/Source/FilteringFunctions/arm_iir_lattice_f32.c ****     pState = pState + 1U;
 178              		.loc 1 302 12
 179 00f2 7B6C     		ldr	r3, [r7, #68]
 180 00f4 0433     		adds	r3, r3, #4
 181 00f6 7B64     		str	r3, [r7, #68]
 303:./Libraries/CMSIS/DSP/Source/FilteringFunctions/arm_iir_lattice_f32.c **** 
 304:./Libraries/CMSIS/DSP/Source/FilteringFunctions/arm_iir_lattice_f32.c ****     /* Decrement loop counter */
 305:./Libraries/CMSIS/DSP/Source/FilteringFunctions/arm_iir_lattice_f32.c ****     blkCnt--;
 182              		.loc 1 305 11
 183 00f8 7B6A     		ldr	r3, [r7, #36]
 184 00fa 013B     		subs	r3, r3, #1
 185 00fc 7B62     		str	r3, [r7, #36]
 186              	.L2:
 145:./Libraries/CMSIS/DSP/Source/FilteringFunctions/arm_iir_lattice_f32.c ****   {
 187              		.loc 1 145 9
 188 00fe 7B6A     		ldr	r3, [r7, #36]
 189 0100 002B     		cmp	r3, #0
 190 0102 8DD1     		bne	.L5
 306:./Libraries/CMSIS/DSP/Source/FilteringFunctions/arm_iir_lattice_f32.c ****   }
 307:./Libraries/CMSIS/DSP/Source/FilteringFunctions/arm_iir_lattice_f32.c **** 
 308:./Libraries/CMSIS/DSP/Source/FilteringFunctions/arm_iir_lattice_f32.c ****   /* Processing is complete. Now copy last S->numStages samples to start of the buffer
 309:./Libraries/CMSIS/DSP/Source/FilteringFunctions/arm_iir_lattice_f32.c ****      for the preperation of next frame process */
 310:./Libraries/CMSIS/DSP/Source/FilteringFunctions/arm_iir_lattice_f32.c **** 
 311:./Libraries/CMSIS/DSP/Source/FilteringFunctions/arm_iir_lattice_f32.c ****   /* Points to the start of the state buffer */
 312:./Libraries/CMSIS/DSP/Source/FilteringFunctions/arm_iir_lattice_f32.c ****   pStateCur = &S->pState[0];
 191              		.loc 1 312 13
 192 0104 FB68     		ldr	r3, [r7, #12]
 193 0106 5B68     		ldr	r3, [r3, #4]
 194 0108 3B64     		str	r3, [r7, #64]
 313:./Libraries/CMSIS/DSP/Source/FilteringFunctions/arm_iir_lattice_f32.c ****   pState = &S->pState[blockSize];
 195              		.loc 1 313 14
 196 010a FB68     		ldr	r3, [r7, #12]
 197 010c 5A68     		ldr	r2, [r3, #4]
 198              		.loc 1 313 22
 199 010e 3B68     		ldr	r3, [r7]
ARM GAS  /tmp/ccU9e8qr.s 			page 10


 200 0110 9B00     		lsls	r3, r3, #2
 201              		.loc 1 313 10
 202 0112 1344     		add	r3, r3, r2
 203 0114 7B64     		str	r3, [r7, #68]
 314:./Libraries/CMSIS/DSP/Source/FilteringFunctions/arm_iir_lattice_f32.c **** 
 315:./Libraries/CMSIS/DSP/Source/FilteringFunctions/arm_iir_lattice_f32.c ****   /* Copy data */
 316:./Libraries/CMSIS/DSP/Source/FilteringFunctions/arm_iir_lattice_f32.c **** #if defined (ARM_MATH_LOOPUNROLL)
 317:./Libraries/CMSIS/DSP/Source/FilteringFunctions/arm_iir_lattice_f32.c **** 
 318:./Libraries/CMSIS/DSP/Source/FilteringFunctions/arm_iir_lattice_f32.c ****   /* Loop unrolling: Compute 4 taps at a time. */
 319:./Libraries/CMSIS/DSP/Source/FilteringFunctions/arm_iir_lattice_f32.c ****   tapCnt = numStages >> 2U;
 320:./Libraries/CMSIS/DSP/Source/FilteringFunctions/arm_iir_lattice_f32.c **** 
 321:./Libraries/CMSIS/DSP/Source/FilteringFunctions/arm_iir_lattice_f32.c ****   while (tapCnt > 0U)
 322:./Libraries/CMSIS/DSP/Source/FilteringFunctions/arm_iir_lattice_f32.c ****   {
 323:./Libraries/CMSIS/DSP/Source/FilteringFunctions/arm_iir_lattice_f32.c ****     *pStateCur++ = *pState++;
 324:./Libraries/CMSIS/DSP/Source/FilteringFunctions/arm_iir_lattice_f32.c ****     *pStateCur++ = *pState++;
 325:./Libraries/CMSIS/DSP/Source/FilteringFunctions/arm_iir_lattice_f32.c ****     *pStateCur++ = *pState++;
 326:./Libraries/CMSIS/DSP/Source/FilteringFunctions/arm_iir_lattice_f32.c ****     *pStateCur++ = *pState++;
 327:./Libraries/CMSIS/DSP/Source/FilteringFunctions/arm_iir_lattice_f32.c **** 
 328:./Libraries/CMSIS/DSP/Source/FilteringFunctions/arm_iir_lattice_f32.c ****     /* Decrement loop counter */
 329:./Libraries/CMSIS/DSP/Source/FilteringFunctions/arm_iir_lattice_f32.c ****     tapCnt--;
 330:./Libraries/CMSIS/DSP/Source/FilteringFunctions/arm_iir_lattice_f32.c ****   }
 331:./Libraries/CMSIS/DSP/Source/FilteringFunctions/arm_iir_lattice_f32.c **** 
 332:./Libraries/CMSIS/DSP/Source/FilteringFunctions/arm_iir_lattice_f32.c ****   /* Loop unrolling: Compute remaining taps */
 333:./Libraries/CMSIS/DSP/Source/FilteringFunctions/arm_iir_lattice_f32.c ****   tapCnt = numStages % 0x4U;
 334:./Libraries/CMSIS/DSP/Source/FilteringFunctions/arm_iir_lattice_f32.c **** 
 335:./Libraries/CMSIS/DSP/Source/FilteringFunctions/arm_iir_lattice_f32.c **** #else
 336:./Libraries/CMSIS/DSP/Source/FilteringFunctions/arm_iir_lattice_f32.c **** 
 337:./Libraries/CMSIS/DSP/Source/FilteringFunctions/arm_iir_lattice_f32.c ****   /* Initialize blkCnt with number of samples */
 338:./Libraries/CMSIS/DSP/Source/FilteringFunctions/arm_iir_lattice_f32.c ****   tapCnt = numStages;
 204              		.loc 1 338 10
 205 0116 FB69     		ldr	r3, [r7, #28]
 206 0118 3B62     		str	r3, [r7, #32]
 339:./Libraries/CMSIS/DSP/Source/FilteringFunctions/arm_iir_lattice_f32.c **** 
 340:./Libraries/CMSIS/DSP/Source/FilteringFunctions/arm_iir_lattice_f32.c **** #endif /* #if defined (ARM_MATH_LOOPUNROLL) */
 341:./Libraries/CMSIS/DSP/Source/FilteringFunctions/arm_iir_lattice_f32.c **** 
 342:./Libraries/CMSIS/DSP/Source/FilteringFunctions/arm_iir_lattice_f32.c ****   while (tapCnt > 0U)
 207              		.loc 1 342 9
 208 011a 0AE0     		b	.L6
 209              	.L7:
 343:./Libraries/CMSIS/DSP/Source/FilteringFunctions/arm_iir_lattice_f32.c ****   {
 344:./Libraries/CMSIS/DSP/Source/FilteringFunctions/arm_iir_lattice_f32.c ****     *pStateCur++ = *pState++;
 210              		.loc 1 344 27
 211 011c 7A6C     		ldr	r2, [r7, #68]
 212 011e 131D     		adds	r3, r2, #4
 213 0120 7B64     		str	r3, [r7, #68]
 214              		.loc 1 344 15
 215 0122 3B6C     		ldr	r3, [r7, #64]
 216 0124 191D     		adds	r1, r3, #4
 217 0126 3964     		str	r1, [r7, #64]
 218              		.loc 1 344 20
 219 0128 1268     		ldr	r2, [r2]	@ float
 220              		.loc 1 344 18
 221 012a 1A60     		str	r2, [r3]	@ float
 345:./Libraries/CMSIS/DSP/Source/FilteringFunctions/arm_iir_lattice_f32.c **** 
 346:./Libraries/CMSIS/DSP/Source/FilteringFunctions/arm_iir_lattice_f32.c ****     /* Decrement loop counter */
 347:./Libraries/CMSIS/DSP/Source/FilteringFunctions/arm_iir_lattice_f32.c ****     tapCnt--;
 222              		.loc 1 347 11
ARM GAS  /tmp/ccU9e8qr.s 			page 11


 223 012c 3B6A     		ldr	r3, [r7, #32]
 224 012e 013B     		subs	r3, r3, #1
 225 0130 3B62     		str	r3, [r7, #32]
 226              	.L6:
 342:./Libraries/CMSIS/DSP/Source/FilteringFunctions/arm_iir_lattice_f32.c ****   {
 227              		.loc 1 342 9
 228 0132 3B6A     		ldr	r3, [r7, #32]
 229 0134 002B     		cmp	r3, #0
 230 0136 F1D1     		bne	.L7
 348:./Libraries/CMSIS/DSP/Source/FilteringFunctions/arm_iir_lattice_f32.c ****   }
 349:./Libraries/CMSIS/DSP/Source/FilteringFunctions/arm_iir_lattice_f32.c **** 
 350:./Libraries/CMSIS/DSP/Source/FilteringFunctions/arm_iir_lattice_f32.c **** }
 231              		.loc 1 350 1
 232 0138 00BF     		nop
 233 013a 00BF     		nop
 234 013c 4C37     		adds	r7, r7, #76
 235              	.LCFI3:
 236              		.cfi_def_cfa_offset 4
 237 013e BD46     		mov	sp, r7
 238              	.LCFI4:
 239              		.cfi_def_cfa_register 13
 240              		@ sp needed
 241 0140 5DF8047B 		ldr	r7, [sp], #4
 242              	.LCFI5:
 243              		.cfi_restore 7
 244              		.cfi_def_cfa_offset 0
 245 0144 7047     		bx	lr
 246              		.cfi_endproc
 247              	.LFE145:
 249              		.text
 250              	.Letext0:
 251              		.file 2 "/usr/lib/gcc/arm-none-eabi/9.2.1/include/stdint.h"
 252              		.file 3 "/usr/lib/gcc/arm-none-eabi/9.2.1/include/stddef.h"
 253              		.file 4 "/usr/include/newlib/sys/_types.h"
 254              		.file 5 "/usr/include/newlib/sys/reent.h"
 255              		.file 6 "/usr/include/newlib/sys/lock.h"
 256              		.file 7 "/usr/include/newlib/math.h"
 257              		.file 8 "./Libraries/CMSIS/DSP/Include/arm_math.h"
ARM GAS  /tmp/ccU9e8qr.s 			page 12

