ARM GAS  /tmp/ccOQzWs6.s 			page 1


   1              		.cpu cortex-m7
   2              		.eabi_attribute 28, 1
   3              		.eabi_attribute 20, 1
   4              		.eabi_attribute 21, 1
   5              		.eabi_attribute 23, 3
   6              		.eabi_attribute 24, 1
   7              		.eabi_attribute 25, 1
   8              		.eabi_attribute 26, 1
   9              		.eabi_attribute 30, 6
  10              		.eabi_attribute 34, 1
  11              		.eabi_attribute 18, 4
  12              		.file	"arm_conv_partial_q7.c"
  13              		.text
  14              	.Ltext0:
  15              		.cfi_sections	.debug_frame
  16              		.section	.text.arm_conv_partial_q7,"ax",%progbits
  17              		.align	1
  18              		.global	arm_conv_partial_q7
  19              		.arch armv7e-m
  20              		.syntax unified
  21              		.thumb
  22              		.thumb_func
  23              		.fpu fpv5-d16
  25              	arm_conv_partial_q7:
  26              	.LFB145:
  27              		.file 1 "./Libraries/CMSIS/DSP/Source/FilteringFunctions/arm_conv_partial_q7.c"
   1:./Libraries/CMSIS/DSP/Source/FilteringFunctions/arm_conv_partial_q7.c **** /* ----------------------------------------------------------------------
   2:./Libraries/CMSIS/DSP/Source/FilteringFunctions/arm_conv_partial_q7.c ****  * Project:      CMSIS DSP Library
   3:./Libraries/CMSIS/DSP/Source/FilteringFunctions/arm_conv_partial_q7.c ****  * Title:        arm_conv_partial_q7.c
   4:./Libraries/CMSIS/DSP/Source/FilteringFunctions/arm_conv_partial_q7.c ****  * Description:  Partial convolution of Q7 sequences
   5:./Libraries/CMSIS/DSP/Source/FilteringFunctions/arm_conv_partial_q7.c ****  *
   6:./Libraries/CMSIS/DSP/Source/FilteringFunctions/arm_conv_partial_q7.c ****  * $Date:        18. March 2019
   7:./Libraries/CMSIS/DSP/Source/FilteringFunctions/arm_conv_partial_q7.c ****  * $Revision:    V1.6.0
   8:./Libraries/CMSIS/DSP/Source/FilteringFunctions/arm_conv_partial_q7.c ****  *
   9:./Libraries/CMSIS/DSP/Source/FilteringFunctions/arm_conv_partial_q7.c ****  * Target Processor: Cortex-M cores
  10:./Libraries/CMSIS/DSP/Source/FilteringFunctions/arm_conv_partial_q7.c ****  * -------------------------------------------------------------------- */
  11:./Libraries/CMSIS/DSP/Source/FilteringFunctions/arm_conv_partial_q7.c **** /*
  12:./Libraries/CMSIS/DSP/Source/FilteringFunctions/arm_conv_partial_q7.c ****  * Copyright (C) 2010-2019 ARM Limited or its affiliates. All rights reserved.
  13:./Libraries/CMSIS/DSP/Source/FilteringFunctions/arm_conv_partial_q7.c ****  *
  14:./Libraries/CMSIS/DSP/Source/FilteringFunctions/arm_conv_partial_q7.c ****  * SPDX-License-Identifier: Apache-2.0
  15:./Libraries/CMSIS/DSP/Source/FilteringFunctions/arm_conv_partial_q7.c ****  *
  16:./Libraries/CMSIS/DSP/Source/FilteringFunctions/arm_conv_partial_q7.c ****  * Licensed under the Apache License, Version 2.0 (the License); you may
  17:./Libraries/CMSIS/DSP/Source/FilteringFunctions/arm_conv_partial_q7.c ****  * not use this file except in compliance with the License.
  18:./Libraries/CMSIS/DSP/Source/FilteringFunctions/arm_conv_partial_q7.c ****  * You may obtain a copy of the License at
  19:./Libraries/CMSIS/DSP/Source/FilteringFunctions/arm_conv_partial_q7.c ****  *
  20:./Libraries/CMSIS/DSP/Source/FilteringFunctions/arm_conv_partial_q7.c ****  * www.apache.org/licenses/LICENSE-2.0
  21:./Libraries/CMSIS/DSP/Source/FilteringFunctions/arm_conv_partial_q7.c ****  *
  22:./Libraries/CMSIS/DSP/Source/FilteringFunctions/arm_conv_partial_q7.c ****  * Unless required by applicable law or agreed to in writing, software
  23:./Libraries/CMSIS/DSP/Source/FilteringFunctions/arm_conv_partial_q7.c ****  * distributed under the License is distributed on an AS IS BASIS, WITHOUT
  24:./Libraries/CMSIS/DSP/Source/FilteringFunctions/arm_conv_partial_q7.c ****  * WARRANTIES OR CONDITIONS OF ANY KIND, either express or implied.
  25:./Libraries/CMSIS/DSP/Source/FilteringFunctions/arm_conv_partial_q7.c ****  * See the License for the specific language governing permissions and
  26:./Libraries/CMSIS/DSP/Source/FilteringFunctions/arm_conv_partial_q7.c ****  * limitations under the License.
  27:./Libraries/CMSIS/DSP/Source/FilteringFunctions/arm_conv_partial_q7.c ****  */
  28:./Libraries/CMSIS/DSP/Source/FilteringFunctions/arm_conv_partial_q7.c **** 
  29:./Libraries/CMSIS/DSP/Source/FilteringFunctions/arm_conv_partial_q7.c **** #include "arm_math.h"
  30:./Libraries/CMSIS/DSP/Source/FilteringFunctions/arm_conv_partial_q7.c **** 
  31:./Libraries/CMSIS/DSP/Source/FilteringFunctions/arm_conv_partial_q7.c **** /**
ARM GAS  /tmp/ccOQzWs6.s 			page 2


  32:./Libraries/CMSIS/DSP/Source/FilteringFunctions/arm_conv_partial_q7.c ****   @ingroup groupFilters
  33:./Libraries/CMSIS/DSP/Source/FilteringFunctions/arm_conv_partial_q7.c ****  */
  34:./Libraries/CMSIS/DSP/Source/FilteringFunctions/arm_conv_partial_q7.c **** 
  35:./Libraries/CMSIS/DSP/Source/FilteringFunctions/arm_conv_partial_q7.c **** /**
  36:./Libraries/CMSIS/DSP/Source/FilteringFunctions/arm_conv_partial_q7.c ****   @addtogroup PartialConv
  37:./Libraries/CMSIS/DSP/Source/FilteringFunctions/arm_conv_partial_q7.c ****   @{
  38:./Libraries/CMSIS/DSP/Source/FilteringFunctions/arm_conv_partial_q7.c ****  */
  39:./Libraries/CMSIS/DSP/Source/FilteringFunctions/arm_conv_partial_q7.c **** 
  40:./Libraries/CMSIS/DSP/Source/FilteringFunctions/arm_conv_partial_q7.c **** /**
  41:./Libraries/CMSIS/DSP/Source/FilteringFunctions/arm_conv_partial_q7.c ****   @brief         Partial convolution of Q7 sequences.
  42:./Libraries/CMSIS/DSP/Source/FilteringFunctions/arm_conv_partial_q7.c ****   @param[in]     pSrcA      points to the first input sequence
  43:./Libraries/CMSIS/DSP/Source/FilteringFunctions/arm_conv_partial_q7.c ****   @param[in]     srcALen    length of the first input sequence
  44:./Libraries/CMSIS/DSP/Source/FilteringFunctions/arm_conv_partial_q7.c ****   @param[in]     pSrcB      points to the second input sequence
  45:./Libraries/CMSIS/DSP/Source/FilteringFunctions/arm_conv_partial_q7.c ****   @param[in]     srcBLen    length of the second input sequence
  46:./Libraries/CMSIS/DSP/Source/FilteringFunctions/arm_conv_partial_q7.c ****   @param[out]    pDst       points to the location where the output result is written
  47:./Libraries/CMSIS/DSP/Source/FilteringFunctions/arm_conv_partial_q7.c ****   @param[in]     firstIndex is the first output sample to start with
  48:./Libraries/CMSIS/DSP/Source/FilteringFunctions/arm_conv_partial_q7.c ****   @param[in]     numPoints  is the number of output points to be computed
  49:./Libraries/CMSIS/DSP/Source/FilteringFunctions/arm_conv_partial_q7.c ****   @return        execution status
  50:./Libraries/CMSIS/DSP/Source/FilteringFunctions/arm_conv_partial_q7.c ****                    - \ref ARM_MATH_SUCCESS        : Operation successful
  51:./Libraries/CMSIS/DSP/Source/FilteringFunctions/arm_conv_partial_q7.c ****                    - \ref ARM_MATH_ARGUMENT_ERROR : requested subset is not in the range [0 srcALen
  52:./Libraries/CMSIS/DSP/Source/FilteringFunctions/arm_conv_partial_q7.c **** 
  53:./Libraries/CMSIS/DSP/Source/FilteringFunctions/arm_conv_partial_q7.c ****   @remark
  54:./Libraries/CMSIS/DSP/Source/FilteringFunctions/arm_conv_partial_q7.c ****                    Refer to \ref arm_conv_partial_opt_q7() for a faster implementation of this func
  55:./Libraries/CMSIS/DSP/Source/FilteringFunctions/arm_conv_partial_q7.c ****  */
  56:./Libraries/CMSIS/DSP/Source/FilteringFunctions/arm_conv_partial_q7.c **** 
  57:./Libraries/CMSIS/DSP/Source/FilteringFunctions/arm_conv_partial_q7.c **** arm_status arm_conv_partial_q7(
  58:./Libraries/CMSIS/DSP/Source/FilteringFunctions/arm_conv_partial_q7.c ****   const q7_t * pSrcA,
  59:./Libraries/CMSIS/DSP/Source/FilteringFunctions/arm_conv_partial_q7.c ****         uint32_t srcALen,
  60:./Libraries/CMSIS/DSP/Source/FilteringFunctions/arm_conv_partial_q7.c ****   const q7_t * pSrcB,
  61:./Libraries/CMSIS/DSP/Source/FilteringFunctions/arm_conv_partial_q7.c ****         uint32_t srcBLen,
  62:./Libraries/CMSIS/DSP/Source/FilteringFunctions/arm_conv_partial_q7.c ****         q7_t * pDst,
  63:./Libraries/CMSIS/DSP/Source/FilteringFunctions/arm_conv_partial_q7.c ****         uint32_t firstIndex,
  64:./Libraries/CMSIS/DSP/Source/FilteringFunctions/arm_conv_partial_q7.c ****         uint32_t numPoints)
  65:./Libraries/CMSIS/DSP/Source/FilteringFunctions/arm_conv_partial_q7.c **** {
  28              		.loc 1 65 1
  29              		.cfi_startproc
  30              		@ args = 12, pretend = 0, frame = 120
  31              		@ frame_needed = 1, uses_anonymous_args = 0
  32              		@ link register save eliminated.
  33 0000 80B4     		push	{r7}
  34              	.LCFI0:
  35              		.cfi_def_cfa_offset 4
  36              		.cfi_offset 7, -4
  37 0002 9FB0     		sub	sp, sp, #124
  38              	.LCFI1:
  39              		.cfi_def_cfa_offset 128
  40 0004 00AF     		add	r7, sp, #0
  41              	.LCFI2:
  42              		.cfi_def_cfa_register 7
  43 0006 F860     		str	r0, [r7, #12]
  44 0008 B960     		str	r1, [r7, #8]
  45 000a 7A60     		str	r2, [r7, #4]
  46 000c 3B60     		str	r3, [r7]
  66:./Libraries/CMSIS/DSP/Source/FilteringFunctions/arm_conv_partial_q7.c **** 
  67:./Libraries/CMSIS/DSP/Source/FilteringFunctions/arm_conv_partial_q7.c **** #if (1)
  68:./Libraries/CMSIS/DSP/Source/FilteringFunctions/arm_conv_partial_q7.c **** //#if !defined(ARM_MATH_CM0_FAMILY)
  69:./Libraries/CMSIS/DSP/Source/FilteringFunctions/arm_conv_partial_q7.c **** 
ARM GAS  /tmp/ccOQzWs6.s 			page 3


  70:./Libraries/CMSIS/DSP/Source/FilteringFunctions/arm_conv_partial_q7.c ****   const q7_t *pIn1;                                    /* InputA pointer */
  71:./Libraries/CMSIS/DSP/Source/FilteringFunctions/arm_conv_partial_q7.c ****   const q7_t *pIn2;                                    /* InputB pointer */
  72:./Libraries/CMSIS/DSP/Source/FilteringFunctions/arm_conv_partial_q7.c ****         q7_t *pOut = pDst;                             /* Output pointer */
  47              		.loc 1 72 15
  48 000e D7F88030 		ldr	r3, [r7, #128]
  49 0012 FB66     		str	r3, [r7, #108]
  73:./Libraries/CMSIS/DSP/Source/FilteringFunctions/arm_conv_partial_q7.c ****   const q7_t *px;                                      /* Intermediate inputA pointer */
  74:./Libraries/CMSIS/DSP/Source/FilteringFunctions/arm_conv_partial_q7.c ****   const q7_t *py;                                      /* Intermediate inputB pointer */
  75:./Libraries/CMSIS/DSP/Source/FilteringFunctions/arm_conv_partial_q7.c ****   const q7_t *pSrc1, *pSrc2;                           /* Intermediate pointers */
  76:./Libraries/CMSIS/DSP/Source/FilteringFunctions/arm_conv_partial_q7.c ****         q31_t sum;                                     /* Accumulator */
  77:./Libraries/CMSIS/DSP/Source/FilteringFunctions/arm_conv_partial_q7.c ****         uint32_t j, k, count, blkCnt, check;           /* Loop counters */
  78:./Libraries/CMSIS/DSP/Source/FilteringFunctions/arm_conv_partial_q7.c ****         int32_t blockSize1, blockSize2, blockSize3;    /* Loop counters */
  79:./Libraries/CMSIS/DSP/Source/FilteringFunctions/arm_conv_partial_q7.c ****         arm_status status;                             /* Status of Partial convolution */
  80:./Libraries/CMSIS/DSP/Source/FilteringFunctions/arm_conv_partial_q7.c **** 
  81:./Libraries/CMSIS/DSP/Source/FilteringFunctions/arm_conv_partial_q7.c **** #if defined (ARM_MATH_LOOPUNROLL)
  82:./Libraries/CMSIS/DSP/Source/FilteringFunctions/arm_conv_partial_q7.c ****         q31_t acc0, acc1, acc2, acc3;                  /* Accumulator */
  83:./Libraries/CMSIS/DSP/Source/FilteringFunctions/arm_conv_partial_q7.c ****         q31_t input1, input2;                          /* Temporary input variables */
  84:./Libraries/CMSIS/DSP/Source/FilteringFunctions/arm_conv_partial_q7.c ****         q15_t in1, in2;                                /* Temporary input variables */
  85:./Libraries/CMSIS/DSP/Source/FilteringFunctions/arm_conv_partial_q7.c ****         q7_t x0, x1, x2, x3, c0, c1;                   /* Temporary variables to hold state and coe
  86:./Libraries/CMSIS/DSP/Source/FilteringFunctions/arm_conv_partial_q7.c **** #endif
  87:./Libraries/CMSIS/DSP/Source/FilteringFunctions/arm_conv_partial_q7.c **** 
  88:./Libraries/CMSIS/DSP/Source/FilteringFunctions/arm_conv_partial_q7.c ****   /* Check for range of output samples to be calculated */
  89:./Libraries/CMSIS/DSP/Source/FilteringFunctions/arm_conv_partial_q7.c ****   if ((firstIndex + numPoints) > ((srcALen + (srcBLen - 1U))))
  50              		.loc 1 89 19
  51 0014 D7F88420 		ldr	r2, [r7, #132]
  52 0018 D7F88830 		ldr	r3, [r7, #136]
  53 001c 1A44     		add	r2, r2, r3
  54              		.loc 1 89 44
  55 001e 3968     		ldr	r1, [r7]
  56 0020 BB68     		ldr	r3, [r7, #8]
  57 0022 0B44     		add	r3, r3, r1
  58 0024 013B     		subs	r3, r3, #1
  59              		.loc 1 89 6
  60 0026 9A42     		cmp	r2, r3
  61 0028 03D9     		bls	.L2
  90:./Libraries/CMSIS/DSP/Source/FilteringFunctions/arm_conv_partial_q7.c ****   {
  91:./Libraries/CMSIS/DSP/Source/FilteringFunctions/arm_conv_partial_q7.c ****     /* Set status as ARM_MATH_ARGUMENT_ERROR */
  92:./Libraries/CMSIS/DSP/Source/FilteringFunctions/arm_conv_partial_q7.c ****     status = ARM_MATH_ARGUMENT_ERROR;
  62              		.loc 1 92 12
  63 002a FF23     		movs	r3, #255
  64 002c 87F84330 		strb	r3, [r7, #67]
  65 0030 81E1     		b	.L3
  66              	.L2:
  93:./Libraries/CMSIS/DSP/Source/FilteringFunctions/arm_conv_partial_q7.c ****   }
  94:./Libraries/CMSIS/DSP/Source/FilteringFunctions/arm_conv_partial_q7.c ****   else
  95:./Libraries/CMSIS/DSP/Source/FilteringFunctions/arm_conv_partial_q7.c ****   {
  96:./Libraries/CMSIS/DSP/Source/FilteringFunctions/arm_conv_partial_q7.c ****     /* The algorithm implementation is based on the lengths of the inputs. */
  97:./Libraries/CMSIS/DSP/Source/FilteringFunctions/arm_conv_partial_q7.c ****     /* srcB is always made to slide across srcA. */
  98:./Libraries/CMSIS/DSP/Source/FilteringFunctions/arm_conv_partial_q7.c ****     /* So srcBLen is always considered as shorter or equal to srcALen */
  99:./Libraries/CMSIS/DSP/Source/FilteringFunctions/arm_conv_partial_q7.c ****     if (srcALen >= srcBLen)
  67              		.loc 1 99 8
  68 0032 BA68     		ldr	r2, [r7, #8]
  69 0034 3B68     		ldr	r3, [r7]
  70 0036 9A42     		cmp	r2, r3
  71 0038 04D3     		bcc	.L4
 100:./Libraries/CMSIS/DSP/Source/FilteringFunctions/arm_conv_partial_q7.c ****     {
 101:./Libraries/CMSIS/DSP/Source/FilteringFunctions/arm_conv_partial_q7.c ****       /* Initialization of inputA pointer */
ARM GAS  /tmp/ccOQzWs6.s 			page 4


 102:./Libraries/CMSIS/DSP/Source/FilteringFunctions/arm_conv_partial_q7.c ****       pIn1 = pSrcA;
  72              		.loc 1 102 12
  73 003a FB68     		ldr	r3, [r7, #12]
  74 003c 7B67     		str	r3, [r7, #116]
 103:./Libraries/CMSIS/DSP/Source/FilteringFunctions/arm_conv_partial_q7.c **** 
 104:./Libraries/CMSIS/DSP/Source/FilteringFunctions/arm_conv_partial_q7.c ****       /* Initialization of inputB pointer */
 105:./Libraries/CMSIS/DSP/Source/FilteringFunctions/arm_conv_partial_q7.c ****       pIn2 = pSrcB;
  75              		.loc 1 105 12
  76 003e 7B68     		ldr	r3, [r7, #4]
  77 0040 3B67     		str	r3, [r7, #112]
  78 0042 09E0     		b	.L5
  79              	.L4:
 106:./Libraries/CMSIS/DSP/Source/FilteringFunctions/arm_conv_partial_q7.c ****     }
 107:./Libraries/CMSIS/DSP/Source/FilteringFunctions/arm_conv_partial_q7.c ****     else
 108:./Libraries/CMSIS/DSP/Source/FilteringFunctions/arm_conv_partial_q7.c ****     {
 109:./Libraries/CMSIS/DSP/Source/FilteringFunctions/arm_conv_partial_q7.c ****       /* Initialization of inputA pointer */
 110:./Libraries/CMSIS/DSP/Source/FilteringFunctions/arm_conv_partial_q7.c ****       pIn1 = pSrcB;
  80              		.loc 1 110 12
  81 0044 7B68     		ldr	r3, [r7, #4]
  82 0046 7B67     		str	r3, [r7, #116]
 111:./Libraries/CMSIS/DSP/Source/FilteringFunctions/arm_conv_partial_q7.c **** 
 112:./Libraries/CMSIS/DSP/Source/FilteringFunctions/arm_conv_partial_q7.c ****       /* Initialization of inputB pointer */
 113:./Libraries/CMSIS/DSP/Source/FilteringFunctions/arm_conv_partial_q7.c ****       pIn2 = pSrcA;
  83              		.loc 1 113 12
  84 0048 FB68     		ldr	r3, [r7, #12]
  85 004a 3B67     		str	r3, [r7, #112]
 114:./Libraries/CMSIS/DSP/Source/FilteringFunctions/arm_conv_partial_q7.c **** 
 115:./Libraries/CMSIS/DSP/Source/FilteringFunctions/arm_conv_partial_q7.c ****       /* srcBLen is always considered as shorter or equal to srcALen */
 116:./Libraries/CMSIS/DSP/Source/FilteringFunctions/arm_conv_partial_q7.c ****       j = srcBLen;
  86              		.loc 1 116 9
  87 004c 3B68     		ldr	r3, [r7]
  88 004e FB63     		str	r3, [r7, #60]
 117:./Libraries/CMSIS/DSP/Source/FilteringFunctions/arm_conv_partial_q7.c ****       srcBLen = srcALen;
  89              		.loc 1 117 15
  90 0050 BB68     		ldr	r3, [r7, #8]
  91 0052 3B60     		str	r3, [r7]
 118:./Libraries/CMSIS/DSP/Source/FilteringFunctions/arm_conv_partial_q7.c ****       srcALen = j;
  92              		.loc 1 118 15
  93 0054 FB6B     		ldr	r3, [r7, #60]
  94 0056 BB60     		str	r3, [r7, #8]
  95              	.L5:
 119:./Libraries/CMSIS/DSP/Source/FilteringFunctions/arm_conv_partial_q7.c ****     }
 120:./Libraries/CMSIS/DSP/Source/FilteringFunctions/arm_conv_partial_q7.c **** 
 121:./Libraries/CMSIS/DSP/Source/FilteringFunctions/arm_conv_partial_q7.c ****     /* Conditions to check which loopCounter holds
 122:./Libraries/CMSIS/DSP/Source/FilteringFunctions/arm_conv_partial_q7.c ****      * the first and last indices of the output samples to be calculated. */
 123:./Libraries/CMSIS/DSP/Source/FilteringFunctions/arm_conv_partial_q7.c ****     check = firstIndex + numPoints;
  96              		.loc 1 123 11
  97 0058 D7F88420 		ldr	r2, [r7, #132]
  98 005c D7F88830 		ldr	r3, [r7, #136]
  99 0060 1344     		add	r3, r3, r2
 100 0062 BB63     		str	r3, [r7, #56]
 124:./Libraries/CMSIS/DSP/Source/FilteringFunctions/arm_conv_partial_q7.c ****     blockSize3 = ((int32_t)check > (int32_t)srcALen) ? (int32_t)check - (int32_t)srcALen : 0;
 101              		.loc 1 124 19
 102 0064 BA6B     		ldr	r2, [r7, #56]
 103              		.loc 1 124 36
 104 0066 BB68     		ldr	r3, [r7, #8]
 105              		.loc 1 124 90
ARM GAS  /tmp/ccOQzWs6.s 			page 5


 106 0068 9A42     		cmp	r2, r3
 107 006a 03DD     		ble	.L6
 108              		.loc 1 124 56 discriminator 1
 109 006c BA6B     		ldr	r2, [r7, #56]
 110              		.loc 1 124 73 discriminator 1
 111 006e BB68     		ldr	r3, [r7, #8]
 112              		.loc 1 124 90 discriminator 1
 113 0070 D31A     		subs	r3, r2, r3
 114 0072 00E0     		b	.L7
 115              	.L6:
 116              		.loc 1 124 90 is_stmt 0 discriminator 2
 117 0074 0023     		movs	r3, #0
 118              	.L7:
 119              		.loc 1 124 16 is_stmt 1 discriminator 4
 120 0076 7B64     		str	r3, [r7, #68]
 125:./Libraries/CMSIS/DSP/Source/FilteringFunctions/arm_conv_partial_q7.c ****     blockSize3 = ((int32_t)firstIndex > (int32_t)srcALen - 1) ? blockSize3 - (int32_t)firstIndex + 
 121              		.loc 1 125 41 discriminator 4
 122 0078 BA68     		ldr	r2, [r7, #8]
 123              		.loc 1 125 19 discriminator 4
 124 007a D7F88430 		ldr	r3, [r7, #132]
 125              		.loc 1 125 117 discriminator 4
 126 007e 9A42     		cmp	r2, r3
 127 0080 06DC     		bgt	.L8
 128              		.loc 1 125 78 discriminator 1
 129 0082 D7F88430 		ldr	r3, [r7, #132]
 130              		.loc 1 125 76 discriminator 1
 131 0086 7A6C     		ldr	r2, [r7, #68]
 132 0088 D21A     		subs	r2, r2, r3
 133              		.loc 1 125 100 discriminator 1
 134 008a BB68     		ldr	r3, [r7, #8]
 135              		.loc 1 125 117 discriminator 1
 136 008c 1344     		add	r3, r3, r2
 137 008e 00E0     		b	.L9
 138              	.L8:
 139              		.loc 1 125 117 is_stmt 0 discriminator 2
 140 0090 7B6C     		ldr	r3, [r7, #68]
 141              	.L9:
 142              		.loc 1 125 16 is_stmt 1 discriminator 4
 143 0092 7B64     		str	r3, [r7, #68]
 126:./Libraries/CMSIS/DSP/Source/FilteringFunctions/arm_conv_partial_q7.c ****     blockSize1 = ((int32_t) srcBLen - 1) - (int32_t) firstIndex;
 144              		.loc 1 126 42 discriminator 4
 145 0094 3A68     		ldr	r2, [r7]
 146 0096 D7F88430 		ldr	r3, [r7, #132]
 147 009a D31A     		subs	r3, r2, r3
 148 009c 013B     		subs	r3, r3, #1
 149              		.loc 1 126 16 discriminator 4
 150 009e BB64     		str	r3, [r7, #72]
 127:./Libraries/CMSIS/DSP/Source/FilteringFunctions/arm_conv_partial_q7.c ****     blockSize1 = (blockSize1 > 0) ? ((check > (srcBLen - 1U)) ? blockSize1 : (int32_t) numPoints) :
 151              		.loc 1 127 99 discriminator 4
 152 00a0 BB6C     		ldr	r3, [r7, #72]
 153 00a2 002B     		cmp	r3, #0
 154 00a4 09DD     		ble	.L10
 155              		.loc 1 127 56 discriminator 1
 156 00a6 3B68     		ldr	r3, [r7]
 157 00a8 013B     		subs	r3, r3, #1
 158              		.loc 1 127 76 discriminator 1
 159 00aa BA6B     		ldr	r2, [r7, #56]
ARM GAS  /tmp/ccOQzWs6.s 			page 6


 160 00ac 9A42     		cmp	r2, r3
 161 00ae 01D9     		bls	.L11
 162              		.loc 1 127 76 is_stmt 0 discriminator 3
 163 00b0 BB6C     		ldr	r3, [r7, #72]
 164 00b2 03E0     		b	.L13
 165              	.L11:
 166              		.loc 1 127 76 discriminator 4
 167 00b4 D7F88830 		ldr	r3, [r7, #136]
 168 00b8 00E0     		b	.L13
 169              	.L10:
 170              		.loc 1 127 99 is_stmt 1 discriminator 2
 171 00ba 0023     		movs	r3, #0
 172              	.L13:
 173              		.loc 1 127 16 discriminator 8
 174 00bc BB64     		str	r3, [r7, #72]
 128:./Libraries/CMSIS/DSP/Source/FilteringFunctions/arm_conv_partial_q7.c ****     blockSize2 = (int32_t) check - ((blockSize3 + blockSize1) + (int32_t) firstIndex);
 175              		.loc 1 128 18 discriminator 8
 176 00be BA6B     		ldr	r2, [r7, #56]
 177              		.loc 1 128 49 discriminator 8
 178 00c0 796C     		ldr	r1, [r7, #68]
 179 00c2 BB6C     		ldr	r3, [r7, #72]
 180 00c4 1944     		add	r1, r1, r3
 181              		.loc 1 128 65 discriminator 8
 182 00c6 D7F88430 		ldr	r3, [r7, #132]
 183              		.loc 1 128 63 discriminator 8
 184 00ca 0B44     		add	r3, r3, r1
 185              		.loc 1 128 16 discriminator 8
 186 00cc D31A     		subs	r3, r2, r3
 187 00ce 7B63     		str	r3, [r7, #52]
 129:./Libraries/CMSIS/DSP/Source/FilteringFunctions/arm_conv_partial_q7.c ****     blockSize2 = (blockSize2 > 0) ? blockSize2 : 0;
 188              		.loc 1 129 16 discriminator 8
 189 00d0 7B6B     		ldr	r3, [r7, #52]
 190 00d2 23EAE373 		bic	r3, r3, r3, asr #31
 191 00d6 7B63     		str	r3, [r7, #52]
 130:./Libraries/CMSIS/DSP/Source/FilteringFunctions/arm_conv_partial_q7.c **** 
 131:./Libraries/CMSIS/DSP/Source/FilteringFunctions/arm_conv_partial_q7.c ****     /* conv(x,y) at n = x[n] * y[0] + x[n-1] * y[1] + x[n-2] * y[2] + ...+ x[n-N+1] * y[N -1] */
 132:./Libraries/CMSIS/DSP/Source/FilteringFunctions/arm_conv_partial_q7.c ****     /* The function is internally
 133:./Libraries/CMSIS/DSP/Source/FilteringFunctions/arm_conv_partial_q7.c ****      * divided into three stages according to the number of multiplications that has to be
 134:./Libraries/CMSIS/DSP/Source/FilteringFunctions/arm_conv_partial_q7.c ****      * taken place between inputA samples and inputB samples. In the first stage of the
 135:./Libraries/CMSIS/DSP/Source/FilteringFunctions/arm_conv_partial_q7.c ****      * algorithm, the multiplications increase by one for every iteration.
 136:./Libraries/CMSIS/DSP/Source/FilteringFunctions/arm_conv_partial_q7.c ****      * In the second stage of the algorithm, srcBLen number of multiplications are done.
 137:./Libraries/CMSIS/DSP/Source/FilteringFunctions/arm_conv_partial_q7.c ****      * In the third stage of the algorithm, the multiplications decrease by one
 138:./Libraries/CMSIS/DSP/Source/FilteringFunctions/arm_conv_partial_q7.c ****      * for every iteration. */
 139:./Libraries/CMSIS/DSP/Source/FilteringFunctions/arm_conv_partial_q7.c **** 
 140:./Libraries/CMSIS/DSP/Source/FilteringFunctions/arm_conv_partial_q7.c ****     /* Set the output pointer to point to the firstIndex
 141:./Libraries/CMSIS/DSP/Source/FilteringFunctions/arm_conv_partial_q7.c ****      * of the output sample to be calculated. */
 142:./Libraries/CMSIS/DSP/Source/FilteringFunctions/arm_conv_partial_q7.c ****     pOut = pDst + firstIndex;
 192              		.loc 1 142 10 discriminator 8
 193 00d8 D7F88020 		ldr	r2, [r7, #128]
 194 00dc D7F88430 		ldr	r3, [r7, #132]
 195 00e0 1344     		add	r3, r3, r2
 196 00e2 FB66     		str	r3, [r7, #108]
 143:./Libraries/CMSIS/DSP/Source/FilteringFunctions/arm_conv_partial_q7.c **** 
 144:./Libraries/CMSIS/DSP/Source/FilteringFunctions/arm_conv_partial_q7.c ****     /* --------------------------
 145:./Libraries/CMSIS/DSP/Source/FilteringFunctions/arm_conv_partial_q7.c ****      * Initializations of stage1
 146:./Libraries/CMSIS/DSP/Source/FilteringFunctions/arm_conv_partial_q7.c ****      * -------------------------*/
 147:./Libraries/CMSIS/DSP/Source/FilteringFunctions/arm_conv_partial_q7.c **** 
ARM GAS  /tmp/ccOQzWs6.s 			page 7


 148:./Libraries/CMSIS/DSP/Source/FilteringFunctions/arm_conv_partial_q7.c ****     /* sum = x[0] * y[0]
 149:./Libraries/CMSIS/DSP/Source/FilteringFunctions/arm_conv_partial_q7.c ****      * sum = x[0] * y[1] + x[1] * y[0]
 150:./Libraries/CMSIS/DSP/Source/FilteringFunctions/arm_conv_partial_q7.c ****      * ....
 151:./Libraries/CMSIS/DSP/Source/FilteringFunctions/arm_conv_partial_q7.c ****      * sum = x[0] * y[srcBlen - 1] + x[1] * y[srcBlen - 2] +...+ x[srcBLen - 1] * y[0]
 152:./Libraries/CMSIS/DSP/Source/FilteringFunctions/arm_conv_partial_q7.c ****      */
 153:./Libraries/CMSIS/DSP/Source/FilteringFunctions/arm_conv_partial_q7.c **** 
 154:./Libraries/CMSIS/DSP/Source/FilteringFunctions/arm_conv_partial_q7.c ****     /* In this stage the MAC operations are increased by 1 for every iteration.
 155:./Libraries/CMSIS/DSP/Source/FilteringFunctions/arm_conv_partial_q7.c ****        The count variable holds the number of MAC operations performed.
 156:./Libraries/CMSIS/DSP/Source/FilteringFunctions/arm_conv_partial_q7.c ****        Since the partial convolution starts from firstIndex
 157:./Libraries/CMSIS/DSP/Source/FilteringFunctions/arm_conv_partial_q7.c ****        Number of Macs to be performed is firstIndex + 1 */
 158:./Libraries/CMSIS/DSP/Source/FilteringFunctions/arm_conv_partial_q7.c ****     count = 1U + firstIndex;
 197              		.loc 1 158 11 discriminator 8
 198 00e4 D7F88430 		ldr	r3, [r7, #132]
 199 00e8 0133     		adds	r3, r3, #1
 200 00ea 3B65     		str	r3, [r7, #80]
 159:./Libraries/CMSIS/DSP/Source/FilteringFunctions/arm_conv_partial_q7.c **** 
 160:./Libraries/CMSIS/DSP/Source/FilteringFunctions/arm_conv_partial_q7.c ****     /* Working pointer of inputA */
 161:./Libraries/CMSIS/DSP/Source/FilteringFunctions/arm_conv_partial_q7.c ****     px = pIn1;
 201              		.loc 1 161 8 discriminator 8
 202 00ec 7B6F     		ldr	r3, [r7, #116]
 203 00ee BB66     		str	r3, [r7, #104]
 162:./Libraries/CMSIS/DSP/Source/FilteringFunctions/arm_conv_partial_q7.c **** 
 163:./Libraries/CMSIS/DSP/Source/FilteringFunctions/arm_conv_partial_q7.c ****     /* Working pointer of inputB */
 164:./Libraries/CMSIS/DSP/Source/FilteringFunctions/arm_conv_partial_q7.c ****     pSrc2 = pIn2 + firstIndex;
 204              		.loc 1 164 11 discriminator 8
 205 00f0 3A6F     		ldr	r2, [r7, #112]
 206 00f2 D7F88430 		ldr	r3, [r7, #132]
 207 00f6 1344     		add	r3, r3, r2
 208 00f8 FB65     		str	r3, [r7, #92]
 165:./Libraries/CMSIS/DSP/Source/FilteringFunctions/arm_conv_partial_q7.c ****     py = pSrc2;
 209              		.loc 1 165 8 discriminator 8
 210 00fa FB6D     		ldr	r3, [r7, #92]
 211 00fc 7B66     		str	r3, [r7, #100]
 166:./Libraries/CMSIS/DSP/Source/FilteringFunctions/arm_conv_partial_q7.c **** 
 167:./Libraries/CMSIS/DSP/Source/FilteringFunctions/arm_conv_partial_q7.c ****     /* ------------------------
 168:./Libraries/CMSIS/DSP/Source/FilteringFunctions/arm_conv_partial_q7.c ****      * Stage1 process
 169:./Libraries/CMSIS/DSP/Source/FilteringFunctions/arm_conv_partial_q7.c ****      * ----------------------*/
 170:./Libraries/CMSIS/DSP/Source/FilteringFunctions/arm_conv_partial_q7.c **** 
 171:./Libraries/CMSIS/DSP/Source/FilteringFunctions/arm_conv_partial_q7.c ****     /* The first stage starts here */
 172:./Libraries/CMSIS/DSP/Source/FilteringFunctions/arm_conv_partial_q7.c ****     while (blockSize1 > 0U)
 212              		.loc 1 172 11 discriminator 8
 213 00fe 34E0     		b	.L14
 214              	.L17:
 173:./Libraries/CMSIS/DSP/Source/FilteringFunctions/arm_conv_partial_q7.c ****     {
 174:./Libraries/CMSIS/DSP/Source/FilteringFunctions/arm_conv_partial_q7.c ****       /* Accumulator is made zero for every iteration */
 175:./Libraries/CMSIS/DSP/Source/FilteringFunctions/arm_conv_partial_q7.c ****       sum = 0;
 215              		.loc 1 175 11
 216 0100 0023     		movs	r3, #0
 217 0102 BB65     		str	r3, [r7, #88]
 176:./Libraries/CMSIS/DSP/Source/FilteringFunctions/arm_conv_partial_q7.c **** 
 177:./Libraries/CMSIS/DSP/Source/FilteringFunctions/arm_conv_partial_q7.c **** #if defined (ARM_MATH_LOOPUNROLL)
 178:./Libraries/CMSIS/DSP/Source/FilteringFunctions/arm_conv_partial_q7.c **** 
 179:./Libraries/CMSIS/DSP/Source/FilteringFunctions/arm_conv_partial_q7.c ****       /* Loop unrolling: Compute 4 outputs at a time */
 180:./Libraries/CMSIS/DSP/Source/FilteringFunctions/arm_conv_partial_q7.c ****       k = count >> 2U;
 181:./Libraries/CMSIS/DSP/Source/FilteringFunctions/arm_conv_partial_q7.c **** 
 182:./Libraries/CMSIS/DSP/Source/FilteringFunctions/arm_conv_partial_q7.c ****       while (k > 0U)
 183:./Libraries/CMSIS/DSP/Source/FilteringFunctions/arm_conv_partial_q7.c ****       {
ARM GAS  /tmp/ccOQzWs6.s 			page 8


 184:./Libraries/CMSIS/DSP/Source/FilteringFunctions/arm_conv_partial_q7.c ****         /* x[0] , x[1] */
 185:./Libraries/CMSIS/DSP/Source/FilteringFunctions/arm_conv_partial_q7.c ****         in1 = (q15_t) *px++;
 186:./Libraries/CMSIS/DSP/Source/FilteringFunctions/arm_conv_partial_q7.c ****         in2 = (q15_t) *px++;
 187:./Libraries/CMSIS/DSP/Source/FilteringFunctions/arm_conv_partial_q7.c ****         input1 = ((q31_t) in1 & 0x0000FFFF) | ((q31_t) in2 << 16);
 188:./Libraries/CMSIS/DSP/Source/FilteringFunctions/arm_conv_partial_q7.c **** 
 189:./Libraries/CMSIS/DSP/Source/FilteringFunctions/arm_conv_partial_q7.c ****         /* y[srcBLen - 1] , y[srcBLen - 2] */
 190:./Libraries/CMSIS/DSP/Source/FilteringFunctions/arm_conv_partial_q7.c ****         in1 = (q15_t) *py--;
 191:./Libraries/CMSIS/DSP/Source/FilteringFunctions/arm_conv_partial_q7.c ****         in2 = (q15_t) *py--;
 192:./Libraries/CMSIS/DSP/Source/FilteringFunctions/arm_conv_partial_q7.c ****         input2 = ((q31_t) in1 & 0x0000FFFF) | ((q31_t) in2 << 16);
 193:./Libraries/CMSIS/DSP/Source/FilteringFunctions/arm_conv_partial_q7.c **** 
 194:./Libraries/CMSIS/DSP/Source/FilteringFunctions/arm_conv_partial_q7.c ****         /* x[0] * y[srcBLen - 1] */
 195:./Libraries/CMSIS/DSP/Source/FilteringFunctions/arm_conv_partial_q7.c ****         /* x[1] * y[srcBLen - 2] */
 196:./Libraries/CMSIS/DSP/Source/FilteringFunctions/arm_conv_partial_q7.c ****         sum = __SMLAD(input1, input2, sum);
 197:./Libraries/CMSIS/DSP/Source/FilteringFunctions/arm_conv_partial_q7.c **** 
 198:./Libraries/CMSIS/DSP/Source/FilteringFunctions/arm_conv_partial_q7.c ****         /* x[2] , x[3] */
 199:./Libraries/CMSIS/DSP/Source/FilteringFunctions/arm_conv_partial_q7.c ****         in1 = (q15_t) *px++;
 200:./Libraries/CMSIS/DSP/Source/FilteringFunctions/arm_conv_partial_q7.c ****         in2 = (q15_t) *px++;
 201:./Libraries/CMSIS/DSP/Source/FilteringFunctions/arm_conv_partial_q7.c ****         input1 = ((q31_t) in1 & 0x0000FFFF) | ((q31_t) in2 << 16);
 202:./Libraries/CMSIS/DSP/Source/FilteringFunctions/arm_conv_partial_q7.c **** 
 203:./Libraries/CMSIS/DSP/Source/FilteringFunctions/arm_conv_partial_q7.c ****         /* y[srcBLen - 3] , y[srcBLen - 4] */
 204:./Libraries/CMSIS/DSP/Source/FilteringFunctions/arm_conv_partial_q7.c ****         in1 = (q15_t) *py--;
 205:./Libraries/CMSIS/DSP/Source/FilteringFunctions/arm_conv_partial_q7.c ****         in2 = (q15_t) *py--;
 206:./Libraries/CMSIS/DSP/Source/FilteringFunctions/arm_conv_partial_q7.c ****         input2 = ((q31_t) in1 & 0x0000FFFF) | ((q31_t) in2 << 16);
 207:./Libraries/CMSIS/DSP/Source/FilteringFunctions/arm_conv_partial_q7.c **** 
 208:./Libraries/CMSIS/DSP/Source/FilteringFunctions/arm_conv_partial_q7.c ****         /* x[2] * y[srcBLen - 3] */
 209:./Libraries/CMSIS/DSP/Source/FilteringFunctions/arm_conv_partial_q7.c ****         /* x[3] * y[srcBLen - 4] */
 210:./Libraries/CMSIS/DSP/Source/FilteringFunctions/arm_conv_partial_q7.c ****         sum = __SMLAD(input1, input2, sum);
 211:./Libraries/CMSIS/DSP/Source/FilteringFunctions/arm_conv_partial_q7.c **** 
 212:./Libraries/CMSIS/DSP/Source/FilteringFunctions/arm_conv_partial_q7.c ****         /* Decrement loop counter */
 213:./Libraries/CMSIS/DSP/Source/FilteringFunctions/arm_conv_partial_q7.c ****         k--;
 214:./Libraries/CMSIS/DSP/Source/FilteringFunctions/arm_conv_partial_q7.c ****       }
 215:./Libraries/CMSIS/DSP/Source/FilteringFunctions/arm_conv_partial_q7.c **** 
 216:./Libraries/CMSIS/DSP/Source/FilteringFunctions/arm_conv_partial_q7.c ****       /* Loop unrolling: Compute remaining outputs */
 217:./Libraries/CMSIS/DSP/Source/FilteringFunctions/arm_conv_partial_q7.c ****       k = count % 0x4U;
 218:./Libraries/CMSIS/DSP/Source/FilteringFunctions/arm_conv_partial_q7.c **** 
 219:./Libraries/CMSIS/DSP/Source/FilteringFunctions/arm_conv_partial_q7.c **** #else
 220:./Libraries/CMSIS/DSP/Source/FilteringFunctions/arm_conv_partial_q7.c **** 
 221:./Libraries/CMSIS/DSP/Source/FilteringFunctions/arm_conv_partial_q7.c ****       /* Initialize k with number of samples */
 222:./Libraries/CMSIS/DSP/Source/FilteringFunctions/arm_conv_partial_q7.c ****       k = count;
 218              		.loc 1 222 9
 219 0104 3B6D     		ldr	r3, [r7, #80]
 220 0106 7B65     		str	r3, [r7, #84]
 223:./Libraries/CMSIS/DSP/Source/FilteringFunctions/arm_conv_partial_q7.c **** 
 224:./Libraries/CMSIS/DSP/Source/FilteringFunctions/arm_conv_partial_q7.c **** #endif /* #if defined (ARM_MATH_LOOPUNROLL) */
 225:./Libraries/CMSIS/DSP/Source/FilteringFunctions/arm_conv_partial_q7.c **** 
 226:./Libraries/CMSIS/DSP/Source/FilteringFunctions/arm_conv_partial_q7.c ****       while (k > 0U)
 221              		.loc 1 226 13
 222 0108 12E0     		b	.L15
 223              	.L16:
 227:./Libraries/CMSIS/DSP/Source/FilteringFunctions/arm_conv_partial_q7.c ****       {
 228:./Libraries/CMSIS/DSP/Source/FilteringFunctions/arm_conv_partial_q7.c ****         /* Perform the multiply-accumulate */
 229:./Libraries/CMSIS/DSP/Source/FilteringFunctions/arm_conv_partial_q7.c ****         sum += ((q31_t) * px++ * *py--);
 224              		.loc 1 229 29
 225 010a BB6E     		ldr	r3, [r7, #104]
 226 010c 5A1C     		adds	r2, r3, #1
 227 010e BA66     		str	r2, [r7, #104]
 228              		.loc 1 229 25
ARM GAS  /tmp/ccOQzWs6.s 			page 9


 229 0110 93F90030 		ldrsb	r3, [r3]
 230              		.loc 1 229 17
 231 0114 1946     		mov	r1, r3
 232              		.loc 1 229 37
 233 0116 7B6E     		ldr	r3, [r7, #100]
 234 0118 5A1E     		subs	r2, r3, #1
 235 011a 7A66     		str	r2, [r7, #100]
 236              		.loc 1 229 34
 237 011c 93F90030 		ldrsb	r3, [r3]
 238              		.loc 1 229 32
 239 0120 03FB01F3 		mul	r3, r3, r1
 240              		.loc 1 229 13
 241 0124 BA6D     		ldr	r2, [r7, #88]
 242 0126 1344     		add	r3, r3, r2
 243 0128 BB65     		str	r3, [r7, #88]
 230:./Libraries/CMSIS/DSP/Source/FilteringFunctions/arm_conv_partial_q7.c **** 
 231:./Libraries/CMSIS/DSP/Source/FilteringFunctions/arm_conv_partial_q7.c ****         /* Decrement loop counter */
 232:./Libraries/CMSIS/DSP/Source/FilteringFunctions/arm_conv_partial_q7.c ****         k--;
 244              		.loc 1 232 10
 245 012a 7B6D     		ldr	r3, [r7, #84]
 246 012c 013B     		subs	r3, r3, #1
 247 012e 7B65     		str	r3, [r7, #84]
 248              	.L15:
 226:./Libraries/CMSIS/DSP/Source/FilteringFunctions/arm_conv_partial_q7.c ****       {
 249              		.loc 1 226 13
 250 0130 7B6D     		ldr	r3, [r7, #84]
 251 0132 002B     		cmp	r3, #0
 252 0134 E9D1     		bne	.L16
 253              	.LBB2:
 233:./Libraries/CMSIS/DSP/Source/FilteringFunctions/arm_conv_partial_q7.c ****       }
 234:./Libraries/CMSIS/DSP/Source/FilteringFunctions/arm_conv_partial_q7.c **** 
 235:./Libraries/CMSIS/DSP/Source/FilteringFunctions/arm_conv_partial_q7.c ****       /* Store the result in the accumulator in the destination buffer. */
 236:./Libraries/CMSIS/DSP/Source/FilteringFunctions/arm_conv_partial_q7.c ****       *pOut++ = (q7_t) (__SSAT(sum >> 7, 8));
 254              		.loc 1 236 25
 255 0136 BB6D     		ldr	r3, [r7, #88]
 256 0138 DB11     		asrs	r3, r3, #7
 257 013a BB61     		str	r3, [r7, #24]
 258 013c BB69     		ldr	r3, [r7, #24]
 259              		.syntax unified
 260              	@ 236 "./Libraries/CMSIS/DSP/Source/FilteringFunctions/arm_conv_partial_q7.c" 1
 261 013e 03F30703 		ssat r3, #8, r3
 262              	@ 0 "" 2
 263              		.thumb
 264              		.syntax unified
 265 0142 7B61     		str	r3, [r7, #20]
 266 0144 7969     		ldr	r1, [r7, #20]
 267              	.LBE2:
 268              		.loc 1 236 12
 269 0146 FB6E     		ldr	r3, [r7, #108]
 270 0148 5A1C     		adds	r2, r3, #1
 271 014a FA66     		str	r2, [r7, #108]
 272              		.loc 1 236 17
 273 014c 4AB2     		sxtb	r2, r1
 274              		.loc 1 236 15
 275 014e 1A70     		strb	r2, [r3]
 237:./Libraries/CMSIS/DSP/Source/FilteringFunctions/arm_conv_partial_q7.c **** 
 238:./Libraries/CMSIS/DSP/Source/FilteringFunctions/arm_conv_partial_q7.c ****       /* Update the inputA and inputB pointers for next MAC calculation */
ARM GAS  /tmp/ccOQzWs6.s 			page 10


 239:./Libraries/CMSIS/DSP/Source/FilteringFunctions/arm_conv_partial_q7.c ****       py = ++pSrc2;
 276              		.loc 1 239 10
 277 0150 FB6D     		ldr	r3, [r7, #92]
 278 0152 0133     		adds	r3, r3, #1
 279 0154 FB65     		str	r3, [r7, #92]
 280 0156 FB6D     		ldr	r3, [r7, #92]
 281 0158 7B66     		str	r3, [r7, #100]
 240:./Libraries/CMSIS/DSP/Source/FilteringFunctions/arm_conv_partial_q7.c ****       px = pIn1;
 282              		.loc 1 240 10
 283 015a 7B6F     		ldr	r3, [r7, #116]
 284 015c BB66     		str	r3, [r7, #104]
 241:./Libraries/CMSIS/DSP/Source/FilteringFunctions/arm_conv_partial_q7.c **** 
 242:./Libraries/CMSIS/DSP/Source/FilteringFunctions/arm_conv_partial_q7.c ****       /* Increment MAC count */
 243:./Libraries/CMSIS/DSP/Source/FilteringFunctions/arm_conv_partial_q7.c ****       count++;
 285              		.loc 1 243 12
 286 015e 3B6D     		ldr	r3, [r7, #80]
 287 0160 0133     		adds	r3, r3, #1
 288 0162 3B65     		str	r3, [r7, #80]
 244:./Libraries/CMSIS/DSP/Source/FilteringFunctions/arm_conv_partial_q7.c **** 
 245:./Libraries/CMSIS/DSP/Source/FilteringFunctions/arm_conv_partial_q7.c ****       /* Decrement loop counter */
 246:./Libraries/CMSIS/DSP/Source/FilteringFunctions/arm_conv_partial_q7.c ****       blockSize1--;
 289              		.loc 1 246 17
 290 0164 BB6C     		ldr	r3, [r7, #72]
 291 0166 013B     		subs	r3, r3, #1
 292 0168 BB64     		str	r3, [r7, #72]
 293              	.L14:
 172:./Libraries/CMSIS/DSP/Source/FilteringFunctions/arm_conv_partial_q7.c ****     {
 294              		.loc 1 172 11
 295 016a BB6C     		ldr	r3, [r7, #72]
 296 016c 002B     		cmp	r3, #0
 297 016e C7D1     		bne	.L17
 247:./Libraries/CMSIS/DSP/Source/FilteringFunctions/arm_conv_partial_q7.c ****     }
 248:./Libraries/CMSIS/DSP/Source/FilteringFunctions/arm_conv_partial_q7.c **** 
 249:./Libraries/CMSIS/DSP/Source/FilteringFunctions/arm_conv_partial_q7.c ****     /* --------------------------
 250:./Libraries/CMSIS/DSP/Source/FilteringFunctions/arm_conv_partial_q7.c ****      * Initializations of stage2
 251:./Libraries/CMSIS/DSP/Source/FilteringFunctions/arm_conv_partial_q7.c ****      * ------------------------*/
 252:./Libraries/CMSIS/DSP/Source/FilteringFunctions/arm_conv_partial_q7.c **** 
 253:./Libraries/CMSIS/DSP/Source/FilteringFunctions/arm_conv_partial_q7.c ****     /* sum = x[0] * y[srcBLen-1] + x[1] * y[srcBLen-2] +...+ x[srcBLen-1] * y[0]
 254:./Libraries/CMSIS/DSP/Source/FilteringFunctions/arm_conv_partial_q7.c ****      * sum = x[1] * y[srcBLen-1] + x[2] * y[srcBLen-2] +...+ x[srcBLen] * y[0]
 255:./Libraries/CMSIS/DSP/Source/FilteringFunctions/arm_conv_partial_q7.c ****      * ....
 256:./Libraries/CMSIS/DSP/Source/FilteringFunctions/arm_conv_partial_q7.c ****      * sum = x[srcALen-srcBLen-2] * y[srcBLen-1] + x[srcALen] * y[srcBLen-2] +...+ x[srcALen-1] * y
 257:./Libraries/CMSIS/DSP/Source/FilteringFunctions/arm_conv_partial_q7.c ****      */
 258:./Libraries/CMSIS/DSP/Source/FilteringFunctions/arm_conv_partial_q7.c **** 
 259:./Libraries/CMSIS/DSP/Source/FilteringFunctions/arm_conv_partial_q7.c ****     /* Working pointer of inputA */
 260:./Libraries/CMSIS/DSP/Source/FilteringFunctions/arm_conv_partial_q7.c ****     if ((int32_t)firstIndex - (int32_t)srcBLen + 1 > 0)
 298              		.loc 1 260 9
 299 0170 D7F88420 		ldr	r2, [r7, #132]
 300              		.loc 1 260 31
 301 0174 3B68     		ldr	r3, [r7]
 302              		.loc 1 260 29
 303 0176 D31A     		subs	r3, r2, r3
 304              		.loc 1 260 8
 305 0178 002B     		cmp	r3, #0
 306 017a 08DB     		blt	.L18
 261:./Libraries/CMSIS/DSP/Source/FilteringFunctions/arm_conv_partial_q7.c ****     {
 262:./Libraries/CMSIS/DSP/Source/FilteringFunctions/arm_conv_partial_q7.c ****       pSrc1 = pIn1 + firstIndex - srcBLen + 1;
 307              		.loc 1 262 33
ARM GAS  /tmp/ccOQzWs6.s 			page 11


 308 017c D7F88420 		ldr	r2, [r7, #132]
 309 0180 3B68     		ldr	r3, [r7]
 310 0182 D31A     		subs	r3, r2, r3
 311              		.loc 1 262 43
 312 0184 0133     		adds	r3, r3, #1
 313              		.loc 1 262 13
 314 0186 7A6F     		ldr	r2, [r7, #116]
 315 0188 1344     		add	r3, r3, r2
 316 018a 3B66     		str	r3, [r7, #96]
 317 018c 01E0     		b	.L19
 318              	.L18:
 263:./Libraries/CMSIS/DSP/Source/FilteringFunctions/arm_conv_partial_q7.c ****     }
 264:./Libraries/CMSIS/DSP/Source/FilteringFunctions/arm_conv_partial_q7.c ****     else
 265:./Libraries/CMSIS/DSP/Source/FilteringFunctions/arm_conv_partial_q7.c ****     {
 266:./Libraries/CMSIS/DSP/Source/FilteringFunctions/arm_conv_partial_q7.c ****       pSrc1 = pIn1;
 319              		.loc 1 266 13
 320 018e 7B6F     		ldr	r3, [r7, #116]
 321 0190 3B66     		str	r3, [r7, #96]
 322              	.L19:
 267:./Libraries/CMSIS/DSP/Source/FilteringFunctions/arm_conv_partial_q7.c ****     }
 268:./Libraries/CMSIS/DSP/Source/FilteringFunctions/arm_conv_partial_q7.c ****     px = pSrc1;
 323              		.loc 1 268 8
 324 0192 3B6E     		ldr	r3, [r7, #96]
 325 0194 BB66     		str	r3, [r7, #104]
 269:./Libraries/CMSIS/DSP/Source/FilteringFunctions/arm_conv_partial_q7.c **** 
 270:./Libraries/CMSIS/DSP/Source/FilteringFunctions/arm_conv_partial_q7.c ****     /* Working pointer of inputB */
 271:./Libraries/CMSIS/DSP/Source/FilteringFunctions/arm_conv_partial_q7.c ****     pSrc2 = pIn2 + (srcBLen - 1U);
 326              		.loc 1 271 18
 327 0196 3B68     		ldr	r3, [r7]
 328 0198 013B     		subs	r3, r3, #1
 329              		.loc 1 271 11
 330 019a 3A6F     		ldr	r2, [r7, #112]
 331 019c 1344     		add	r3, r3, r2
 332 019e FB65     		str	r3, [r7, #92]
 272:./Libraries/CMSIS/DSP/Source/FilteringFunctions/arm_conv_partial_q7.c ****     py = pSrc2;
 333              		.loc 1 272 8
 334 01a0 FB6D     		ldr	r3, [r7, #92]
 335 01a2 7B66     		str	r3, [r7, #100]
 273:./Libraries/CMSIS/DSP/Source/FilteringFunctions/arm_conv_partial_q7.c **** 
 274:./Libraries/CMSIS/DSP/Source/FilteringFunctions/arm_conv_partial_q7.c ****     /* count is the index by which the pointer pIn1 to be incremented */
 275:./Libraries/CMSIS/DSP/Source/FilteringFunctions/arm_conv_partial_q7.c ****     count = 0U;
 336              		.loc 1 275 11
 337 01a4 0023     		movs	r3, #0
 338 01a6 3B65     		str	r3, [r7, #80]
 276:./Libraries/CMSIS/DSP/Source/FilteringFunctions/arm_conv_partial_q7.c **** 
 277:./Libraries/CMSIS/DSP/Source/FilteringFunctions/arm_conv_partial_q7.c ****     /* -------------------
 278:./Libraries/CMSIS/DSP/Source/FilteringFunctions/arm_conv_partial_q7.c ****      * Stage2 process
 279:./Libraries/CMSIS/DSP/Source/FilteringFunctions/arm_conv_partial_q7.c ****      * ------------------*/
 280:./Libraries/CMSIS/DSP/Source/FilteringFunctions/arm_conv_partial_q7.c **** 
 281:./Libraries/CMSIS/DSP/Source/FilteringFunctions/arm_conv_partial_q7.c ****     /* Stage2 depends on srcBLen as in this stage srcBLen number of MACS are performed.
 282:./Libraries/CMSIS/DSP/Source/FilteringFunctions/arm_conv_partial_q7.c ****      * So, to loop unroll over blockSize2,
 283:./Libraries/CMSIS/DSP/Source/FilteringFunctions/arm_conv_partial_q7.c ****      * srcBLen should be greater than or equal to 4 */
 284:./Libraries/CMSIS/DSP/Source/FilteringFunctions/arm_conv_partial_q7.c ****     if (srcBLen >= 4U)
 339              		.loc 1 284 8
 340 01a8 3B68     		ldr	r3, [r7]
 341 01aa 032B     		cmp	r3, #3
 342 01ac 3AD9     		bls	.L20
ARM GAS  /tmp/ccOQzWs6.s 			page 12


 285:./Libraries/CMSIS/DSP/Source/FilteringFunctions/arm_conv_partial_q7.c ****     {
 286:./Libraries/CMSIS/DSP/Source/FilteringFunctions/arm_conv_partial_q7.c **** #if defined (ARM_MATH_LOOPUNROLL)
 287:./Libraries/CMSIS/DSP/Source/FilteringFunctions/arm_conv_partial_q7.c **** 
 288:./Libraries/CMSIS/DSP/Source/FilteringFunctions/arm_conv_partial_q7.c ****       /* Loop unrolling: Compute 4 outputs at a time */
 289:./Libraries/CMSIS/DSP/Source/FilteringFunctions/arm_conv_partial_q7.c ****       blkCnt = ((uint32_t) blockSize2 >> 2U);
 290:./Libraries/CMSIS/DSP/Source/FilteringFunctions/arm_conv_partial_q7.c **** 
 291:./Libraries/CMSIS/DSP/Source/FilteringFunctions/arm_conv_partial_q7.c ****       while (blkCnt > 0U)
 292:./Libraries/CMSIS/DSP/Source/FilteringFunctions/arm_conv_partial_q7.c ****       {
 293:./Libraries/CMSIS/DSP/Source/FilteringFunctions/arm_conv_partial_q7.c ****         /* Set all accumulators to zero */
 294:./Libraries/CMSIS/DSP/Source/FilteringFunctions/arm_conv_partial_q7.c ****         acc0 = 0;
 295:./Libraries/CMSIS/DSP/Source/FilteringFunctions/arm_conv_partial_q7.c ****         acc1 = 0;
 296:./Libraries/CMSIS/DSP/Source/FilteringFunctions/arm_conv_partial_q7.c ****         acc2 = 0;
 297:./Libraries/CMSIS/DSP/Source/FilteringFunctions/arm_conv_partial_q7.c ****         acc3 = 0;
 298:./Libraries/CMSIS/DSP/Source/FilteringFunctions/arm_conv_partial_q7.c **** 
 299:./Libraries/CMSIS/DSP/Source/FilteringFunctions/arm_conv_partial_q7.c ****         /* read x[0], x[1], x[2] samples */
 300:./Libraries/CMSIS/DSP/Source/FilteringFunctions/arm_conv_partial_q7.c ****         x0 = *px++;
 301:./Libraries/CMSIS/DSP/Source/FilteringFunctions/arm_conv_partial_q7.c ****         x1 = *px++;
 302:./Libraries/CMSIS/DSP/Source/FilteringFunctions/arm_conv_partial_q7.c ****         x2 = *px++;
 303:./Libraries/CMSIS/DSP/Source/FilteringFunctions/arm_conv_partial_q7.c **** 
 304:./Libraries/CMSIS/DSP/Source/FilteringFunctions/arm_conv_partial_q7.c ****         /* Apply loop unrolling and compute 4 MACs simultaneously. */
 305:./Libraries/CMSIS/DSP/Source/FilteringFunctions/arm_conv_partial_q7.c ****         k = srcBLen >> 2U;
 306:./Libraries/CMSIS/DSP/Source/FilteringFunctions/arm_conv_partial_q7.c **** 
 307:./Libraries/CMSIS/DSP/Source/FilteringFunctions/arm_conv_partial_q7.c ****         /* First part of the processing with loop unrolling.  Compute 4 MACs at a time.
 308:./Libraries/CMSIS/DSP/Source/FilteringFunctions/arm_conv_partial_q7.c ****          ** a second loop below computes MACs for the remaining 1 to 3 samples. */
 309:./Libraries/CMSIS/DSP/Source/FilteringFunctions/arm_conv_partial_q7.c ****         do
 310:./Libraries/CMSIS/DSP/Source/FilteringFunctions/arm_conv_partial_q7.c ****         {
 311:./Libraries/CMSIS/DSP/Source/FilteringFunctions/arm_conv_partial_q7.c ****           /* Read y[srcBLen - 1] sample */
 312:./Libraries/CMSIS/DSP/Source/FilteringFunctions/arm_conv_partial_q7.c ****           c0 = *py--;
 313:./Libraries/CMSIS/DSP/Source/FilteringFunctions/arm_conv_partial_q7.c ****           /* Read y[srcBLen - 2] sample */
 314:./Libraries/CMSIS/DSP/Source/FilteringFunctions/arm_conv_partial_q7.c ****           c1 = *py--;
 315:./Libraries/CMSIS/DSP/Source/FilteringFunctions/arm_conv_partial_q7.c **** 
 316:./Libraries/CMSIS/DSP/Source/FilteringFunctions/arm_conv_partial_q7.c ****           /* Read x[3] sample */
 317:./Libraries/CMSIS/DSP/Source/FilteringFunctions/arm_conv_partial_q7.c ****           x3 = *px++;
 318:./Libraries/CMSIS/DSP/Source/FilteringFunctions/arm_conv_partial_q7.c **** 
 319:./Libraries/CMSIS/DSP/Source/FilteringFunctions/arm_conv_partial_q7.c ****           /* x[0] and x[1] are packed */
 320:./Libraries/CMSIS/DSP/Source/FilteringFunctions/arm_conv_partial_q7.c ****           in1 = (q15_t) x0;
 321:./Libraries/CMSIS/DSP/Source/FilteringFunctions/arm_conv_partial_q7.c ****           in2 = (q15_t) x1;
 322:./Libraries/CMSIS/DSP/Source/FilteringFunctions/arm_conv_partial_q7.c **** 
 323:./Libraries/CMSIS/DSP/Source/FilteringFunctions/arm_conv_partial_q7.c ****           input1 = ((q31_t) in1 & 0x0000FFFF) | ((q31_t) in2 << 16);
 324:./Libraries/CMSIS/DSP/Source/FilteringFunctions/arm_conv_partial_q7.c **** 
 325:./Libraries/CMSIS/DSP/Source/FilteringFunctions/arm_conv_partial_q7.c ****           /* y[srcBLen - 1]   and y[srcBLen - 2] are packed */
 326:./Libraries/CMSIS/DSP/Source/FilteringFunctions/arm_conv_partial_q7.c ****           in1 = (q15_t) c0;
 327:./Libraries/CMSIS/DSP/Source/FilteringFunctions/arm_conv_partial_q7.c ****           in2 = (q15_t) c1;
 328:./Libraries/CMSIS/DSP/Source/FilteringFunctions/arm_conv_partial_q7.c **** 
 329:./Libraries/CMSIS/DSP/Source/FilteringFunctions/arm_conv_partial_q7.c ****           input2 = ((q31_t) in1 & 0x0000FFFF) | ((q31_t) in2 << 16);
 330:./Libraries/CMSIS/DSP/Source/FilteringFunctions/arm_conv_partial_q7.c **** 
 331:./Libraries/CMSIS/DSP/Source/FilteringFunctions/arm_conv_partial_q7.c ****           /* acc0 += x[0] * y[srcBLen - 1] + x[1] * y[srcBLen - 2]  */
 332:./Libraries/CMSIS/DSP/Source/FilteringFunctions/arm_conv_partial_q7.c ****           acc0 = __SMLAD(input1, input2, acc0);
 333:./Libraries/CMSIS/DSP/Source/FilteringFunctions/arm_conv_partial_q7.c **** 
 334:./Libraries/CMSIS/DSP/Source/FilteringFunctions/arm_conv_partial_q7.c ****           /* x[1] and x[2] are packed */
 335:./Libraries/CMSIS/DSP/Source/FilteringFunctions/arm_conv_partial_q7.c ****           in1 = (q15_t) x1;
 336:./Libraries/CMSIS/DSP/Source/FilteringFunctions/arm_conv_partial_q7.c ****           in2 = (q15_t) x2;
 337:./Libraries/CMSIS/DSP/Source/FilteringFunctions/arm_conv_partial_q7.c **** 
 338:./Libraries/CMSIS/DSP/Source/FilteringFunctions/arm_conv_partial_q7.c ****           input1 = ((q31_t) in1 & 0x0000FFFF) | ((q31_t) in2 << 16);
 339:./Libraries/CMSIS/DSP/Source/FilteringFunctions/arm_conv_partial_q7.c **** 
 340:./Libraries/CMSIS/DSP/Source/FilteringFunctions/arm_conv_partial_q7.c ****           /* acc1 += x[1] * y[srcBLen - 1] + x[2] * y[srcBLen - 2]  */
 341:./Libraries/CMSIS/DSP/Source/FilteringFunctions/arm_conv_partial_q7.c ****           acc1 = __SMLAD(input1, input2, acc1);
ARM GAS  /tmp/ccOQzWs6.s 			page 13


 342:./Libraries/CMSIS/DSP/Source/FilteringFunctions/arm_conv_partial_q7.c **** 
 343:./Libraries/CMSIS/DSP/Source/FilteringFunctions/arm_conv_partial_q7.c ****           /* x[2] and x[3] are packed */
 344:./Libraries/CMSIS/DSP/Source/FilteringFunctions/arm_conv_partial_q7.c ****           in1 = (q15_t) x2;
 345:./Libraries/CMSIS/DSP/Source/FilteringFunctions/arm_conv_partial_q7.c ****           in2 = (q15_t) x3;
 346:./Libraries/CMSIS/DSP/Source/FilteringFunctions/arm_conv_partial_q7.c **** 
 347:./Libraries/CMSIS/DSP/Source/FilteringFunctions/arm_conv_partial_q7.c ****           input1 = ((q31_t) in1 & 0x0000FFFF) | ((q31_t) in2 << 16);
 348:./Libraries/CMSIS/DSP/Source/FilteringFunctions/arm_conv_partial_q7.c **** 
 349:./Libraries/CMSIS/DSP/Source/FilteringFunctions/arm_conv_partial_q7.c ****           /* acc2 += x[2] * y[srcBLen - 1] + x[3] * y[srcBLen - 2]  */
 350:./Libraries/CMSIS/DSP/Source/FilteringFunctions/arm_conv_partial_q7.c ****           acc2 = __SMLAD(input1, input2, acc2);
 351:./Libraries/CMSIS/DSP/Source/FilteringFunctions/arm_conv_partial_q7.c **** 
 352:./Libraries/CMSIS/DSP/Source/FilteringFunctions/arm_conv_partial_q7.c ****           /* Read x[4] sample */
 353:./Libraries/CMSIS/DSP/Source/FilteringFunctions/arm_conv_partial_q7.c ****           x0 = *px++;
 354:./Libraries/CMSIS/DSP/Source/FilteringFunctions/arm_conv_partial_q7.c **** 
 355:./Libraries/CMSIS/DSP/Source/FilteringFunctions/arm_conv_partial_q7.c ****           /* x[3] and x[4] are packed */
 356:./Libraries/CMSIS/DSP/Source/FilteringFunctions/arm_conv_partial_q7.c ****           in1 = (q15_t) x3;
 357:./Libraries/CMSIS/DSP/Source/FilteringFunctions/arm_conv_partial_q7.c ****           in2 = (q15_t) x0;
 358:./Libraries/CMSIS/DSP/Source/FilteringFunctions/arm_conv_partial_q7.c **** 
 359:./Libraries/CMSIS/DSP/Source/FilteringFunctions/arm_conv_partial_q7.c ****           input1 = ((q31_t) in1 & 0x0000FFFF) | ((q31_t) in2 << 16);
 360:./Libraries/CMSIS/DSP/Source/FilteringFunctions/arm_conv_partial_q7.c **** 
 361:./Libraries/CMSIS/DSP/Source/FilteringFunctions/arm_conv_partial_q7.c ****           /* acc3 += x[3] * y[srcBLen - 1] + x[4] * y[srcBLen - 2]  */
 362:./Libraries/CMSIS/DSP/Source/FilteringFunctions/arm_conv_partial_q7.c ****           acc3 = __SMLAD(input1, input2, acc3);
 363:./Libraries/CMSIS/DSP/Source/FilteringFunctions/arm_conv_partial_q7.c **** 
 364:./Libraries/CMSIS/DSP/Source/FilteringFunctions/arm_conv_partial_q7.c ****           /* Read y[srcBLen - 3] sample */
 365:./Libraries/CMSIS/DSP/Source/FilteringFunctions/arm_conv_partial_q7.c ****           c0 = *py--;
 366:./Libraries/CMSIS/DSP/Source/FilteringFunctions/arm_conv_partial_q7.c ****           /* Read y[srcBLen - 4] sample */
 367:./Libraries/CMSIS/DSP/Source/FilteringFunctions/arm_conv_partial_q7.c ****           c1 = *py--;
 368:./Libraries/CMSIS/DSP/Source/FilteringFunctions/arm_conv_partial_q7.c **** 
 369:./Libraries/CMSIS/DSP/Source/FilteringFunctions/arm_conv_partial_q7.c ****           /* Read x[5] sample */
 370:./Libraries/CMSIS/DSP/Source/FilteringFunctions/arm_conv_partial_q7.c ****           x1 = *px++;
 371:./Libraries/CMSIS/DSP/Source/FilteringFunctions/arm_conv_partial_q7.c **** 
 372:./Libraries/CMSIS/DSP/Source/FilteringFunctions/arm_conv_partial_q7.c ****           /* x[2] and x[3] are packed */
 373:./Libraries/CMSIS/DSP/Source/FilteringFunctions/arm_conv_partial_q7.c ****           in1 = (q15_t) x2;
 374:./Libraries/CMSIS/DSP/Source/FilteringFunctions/arm_conv_partial_q7.c ****           in2 = (q15_t) x3;
 375:./Libraries/CMSIS/DSP/Source/FilteringFunctions/arm_conv_partial_q7.c **** 
 376:./Libraries/CMSIS/DSP/Source/FilteringFunctions/arm_conv_partial_q7.c ****           input1 = ((q31_t) in1 & 0x0000FFFF) | ((q31_t) in2 << 16);
 377:./Libraries/CMSIS/DSP/Source/FilteringFunctions/arm_conv_partial_q7.c **** 
 378:./Libraries/CMSIS/DSP/Source/FilteringFunctions/arm_conv_partial_q7.c ****           /* y[srcBLen - 3] and y[srcBLen - 4] are packed */
 379:./Libraries/CMSIS/DSP/Source/FilteringFunctions/arm_conv_partial_q7.c ****           in1 = (q15_t) c0;
 380:./Libraries/CMSIS/DSP/Source/FilteringFunctions/arm_conv_partial_q7.c ****           in2 = (q15_t) c1;
 381:./Libraries/CMSIS/DSP/Source/FilteringFunctions/arm_conv_partial_q7.c **** 
 382:./Libraries/CMSIS/DSP/Source/FilteringFunctions/arm_conv_partial_q7.c ****           input2 = ((q31_t) in1 & 0x0000FFFF) | ((q31_t) in2 << 16);
 383:./Libraries/CMSIS/DSP/Source/FilteringFunctions/arm_conv_partial_q7.c **** 
 384:./Libraries/CMSIS/DSP/Source/FilteringFunctions/arm_conv_partial_q7.c ****           /* acc0 += x[2] * y[srcBLen - 3] + x[3] * y[srcBLen - 4]  */
 385:./Libraries/CMSIS/DSP/Source/FilteringFunctions/arm_conv_partial_q7.c ****           acc0 = __SMLAD(input1, input2, acc0);
 386:./Libraries/CMSIS/DSP/Source/FilteringFunctions/arm_conv_partial_q7.c **** 
 387:./Libraries/CMSIS/DSP/Source/FilteringFunctions/arm_conv_partial_q7.c ****           /* x[3] and x[4] are packed */
 388:./Libraries/CMSIS/DSP/Source/FilteringFunctions/arm_conv_partial_q7.c ****           in1 = (q15_t) x3;
 389:./Libraries/CMSIS/DSP/Source/FilteringFunctions/arm_conv_partial_q7.c ****           in2 = (q15_t) x0;
 390:./Libraries/CMSIS/DSP/Source/FilteringFunctions/arm_conv_partial_q7.c **** 
 391:./Libraries/CMSIS/DSP/Source/FilteringFunctions/arm_conv_partial_q7.c ****           input1 = ((q31_t) in1 & 0x0000FFFF) | ((q31_t) in2 << 16);
 392:./Libraries/CMSIS/DSP/Source/FilteringFunctions/arm_conv_partial_q7.c **** 
 393:./Libraries/CMSIS/DSP/Source/FilteringFunctions/arm_conv_partial_q7.c ****           /* acc1 += x[3] * y[srcBLen - 3] + x[4] * y[srcBLen - 4]  */
 394:./Libraries/CMSIS/DSP/Source/FilteringFunctions/arm_conv_partial_q7.c ****           acc1 = __SMLAD(input1, input2, acc1);
 395:./Libraries/CMSIS/DSP/Source/FilteringFunctions/arm_conv_partial_q7.c **** 
 396:./Libraries/CMSIS/DSP/Source/FilteringFunctions/arm_conv_partial_q7.c ****           /* x[4] and x[5] are packed */
 397:./Libraries/CMSIS/DSP/Source/FilteringFunctions/arm_conv_partial_q7.c ****           in1 = (q15_t) x0;
 398:./Libraries/CMSIS/DSP/Source/FilteringFunctions/arm_conv_partial_q7.c ****           in2 = (q15_t) x1;
ARM GAS  /tmp/ccOQzWs6.s 			page 14


 399:./Libraries/CMSIS/DSP/Source/FilteringFunctions/arm_conv_partial_q7.c **** 
 400:./Libraries/CMSIS/DSP/Source/FilteringFunctions/arm_conv_partial_q7.c ****           input1 = ((q31_t) in1 & 0x0000FFFF) | ((q31_t) in2 << 16);
 401:./Libraries/CMSIS/DSP/Source/FilteringFunctions/arm_conv_partial_q7.c **** 
 402:./Libraries/CMSIS/DSP/Source/FilteringFunctions/arm_conv_partial_q7.c ****           /* acc2 += x[4] * y[srcBLen - 3] + x[5] * y[srcBLen - 4]  */
 403:./Libraries/CMSIS/DSP/Source/FilteringFunctions/arm_conv_partial_q7.c ****           acc2 = __SMLAD(input1, input2, acc2);
 404:./Libraries/CMSIS/DSP/Source/FilteringFunctions/arm_conv_partial_q7.c **** 
 405:./Libraries/CMSIS/DSP/Source/FilteringFunctions/arm_conv_partial_q7.c ****           /* Read x[6] sample */
 406:./Libraries/CMSIS/DSP/Source/FilteringFunctions/arm_conv_partial_q7.c ****           x2 = *px++;
 407:./Libraries/CMSIS/DSP/Source/FilteringFunctions/arm_conv_partial_q7.c **** 
 408:./Libraries/CMSIS/DSP/Source/FilteringFunctions/arm_conv_partial_q7.c ****           /* x[5] and x[6] are packed */
 409:./Libraries/CMSIS/DSP/Source/FilteringFunctions/arm_conv_partial_q7.c ****           in1 = (q15_t) x1;
 410:./Libraries/CMSIS/DSP/Source/FilteringFunctions/arm_conv_partial_q7.c ****           in2 = (q15_t) x2;
 411:./Libraries/CMSIS/DSP/Source/FilteringFunctions/arm_conv_partial_q7.c **** 
 412:./Libraries/CMSIS/DSP/Source/FilteringFunctions/arm_conv_partial_q7.c ****           input1 = ((q31_t) in1 & 0x0000FFFF) | ((q31_t) in2 << 16);
 413:./Libraries/CMSIS/DSP/Source/FilteringFunctions/arm_conv_partial_q7.c **** 
 414:./Libraries/CMSIS/DSP/Source/FilteringFunctions/arm_conv_partial_q7.c ****           /* acc3 += x[5] * y[srcBLen - 3] + x[6] * y[srcBLen - 4]  */
 415:./Libraries/CMSIS/DSP/Source/FilteringFunctions/arm_conv_partial_q7.c ****           acc3 = __SMLAD(input1, input2, acc3);
 416:./Libraries/CMSIS/DSP/Source/FilteringFunctions/arm_conv_partial_q7.c **** 
 417:./Libraries/CMSIS/DSP/Source/FilteringFunctions/arm_conv_partial_q7.c ****         } while (--k);
 418:./Libraries/CMSIS/DSP/Source/FilteringFunctions/arm_conv_partial_q7.c **** 
 419:./Libraries/CMSIS/DSP/Source/FilteringFunctions/arm_conv_partial_q7.c ****         /* If the srcBLen is not a multiple of 4, compute any remaining MACs here.
 420:./Libraries/CMSIS/DSP/Source/FilteringFunctions/arm_conv_partial_q7.c ****          ** No loop unrolling is used. */
 421:./Libraries/CMSIS/DSP/Source/FilteringFunctions/arm_conv_partial_q7.c ****         k = srcBLen % 0x4U;
 422:./Libraries/CMSIS/DSP/Source/FilteringFunctions/arm_conv_partial_q7.c **** 
 423:./Libraries/CMSIS/DSP/Source/FilteringFunctions/arm_conv_partial_q7.c ****         while (k > 0U)
 424:./Libraries/CMSIS/DSP/Source/FilteringFunctions/arm_conv_partial_q7.c ****         {
 425:./Libraries/CMSIS/DSP/Source/FilteringFunctions/arm_conv_partial_q7.c ****           /* Read y[srcBLen - 5] sample */
 426:./Libraries/CMSIS/DSP/Source/FilteringFunctions/arm_conv_partial_q7.c ****           c0 = *py--;
 427:./Libraries/CMSIS/DSP/Source/FilteringFunctions/arm_conv_partial_q7.c ****           /* Read x[7] sample */
 428:./Libraries/CMSIS/DSP/Source/FilteringFunctions/arm_conv_partial_q7.c ****           x3 = *px++;
 429:./Libraries/CMSIS/DSP/Source/FilteringFunctions/arm_conv_partial_q7.c **** 
 430:./Libraries/CMSIS/DSP/Source/FilteringFunctions/arm_conv_partial_q7.c ****           /* Perform the multiply-accumulates */
 431:./Libraries/CMSIS/DSP/Source/FilteringFunctions/arm_conv_partial_q7.c ****           /* acc0 +=  x[4] * y[srcBLen - 5] */
 432:./Libraries/CMSIS/DSP/Source/FilteringFunctions/arm_conv_partial_q7.c ****           acc0 += ((q31_t) x0 * c0);
 433:./Libraries/CMSIS/DSP/Source/FilteringFunctions/arm_conv_partial_q7.c ****           /* acc1 +=  x[5] * y[srcBLen - 5] */
 434:./Libraries/CMSIS/DSP/Source/FilteringFunctions/arm_conv_partial_q7.c ****           acc1 += ((q31_t) x1 * c0);
 435:./Libraries/CMSIS/DSP/Source/FilteringFunctions/arm_conv_partial_q7.c ****           /* acc2 +=  x[6] * y[srcBLen - 5] */
 436:./Libraries/CMSIS/DSP/Source/FilteringFunctions/arm_conv_partial_q7.c ****           acc2 += ((q31_t) x2 * c0);
 437:./Libraries/CMSIS/DSP/Source/FilteringFunctions/arm_conv_partial_q7.c ****           /* acc3 +=  x[7] * y[srcBLen - 5] */
 438:./Libraries/CMSIS/DSP/Source/FilteringFunctions/arm_conv_partial_q7.c ****           acc3 += ((q31_t) x3 * c0);
 439:./Libraries/CMSIS/DSP/Source/FilteringFunctions/arm_conv_partial_q7.c **** 
 440:./Libraries/CMSIS/DSP/Source/FilteringFunctions/arm_conv_partial_q7.c ****           /* Reuse the present samples for the next MAC */
 441:./Libraries/CMSIS/DSP/Source/FilteringFunctions/arm_conv_partial_q7.c ****           x0 = x1;
 442:./Libraries/CMSIS/DSP/Source/FilteringFunctions/arm_conv_partial_q7.c ****           x1 = x2;
 443:./Libraries/CMSIS/DSP/Source/FilteringFunctions/arm_conv_partial_q7.c ****           x2 = x3;
 444:./Libraries/CMSIS/DSP/Source/FilteringFunctions/arm_conv_partial_q7.c **** 
 445:./Libraries/CMSIS/DSP/Source/FilteringFunctions/arm_conv_partial_q7.c ****           /* Decrement the loop counter */
 446:./Libraries/CMSIS/DSP/Source/FilteringFunctions/arm_conv_partial_q7.c ****           k--;
 447:./Libraries/CMSIS/DSP/Source/FilteringFunctions/arm_conv_partial_q7.c ****         }
 448:./Libraries/CMSIS/DSP/Source/FilteringFunctions/arm_conv_partial_q7.c **** 
 449:./Libraries/CMSIS/DSP/Source/FilteringFunctions/arm_conv_partial_q7.c ****         /* Store the result in the accumulator in the destination buffer. */
 450:./Libraries/CMSIS/DSP/Source/FilteringFunctions/arm_conv_partial_q7.c ****         *pOut++ = (q7_t) (__SSAT(acc0 >> 7, 8));
 451:./Libraries/CMSIS/DSP/Source/FilteringFunctions/arm_conv_partial_q7.c ****         *pOut++ = (q7_t) (__SSAT(acc1 >> 7, 8));
 452:./Libraries/CMSIS/DSP/Source/FilteringFunctions/arm_conv_partial_q7.c ****         *pOut++ = (q7_t) (__SSAT(acc2 >> 7, 8));
 453:./Libraries/CMSIS/DSP/Source/FilteringFunctions/arm_conv_partial_q7.c ****         *pOut++ = (q7_t) (__SSAT(acc3 >> 7, 8));
 454:./Libraries/CMSIS/DSP/Source/FilteringFunctions/arm_conv_partial_q7.c **** 
 455:./Libraries/CMSIS/DSP/Source/FilteringFunctions/arm_conv_partial_q7.c ****         /* Increment the pointer pIn1 index, count by 4 */
ARM GAS  /tmp/ccOQzWs6.s 			page 15


 456:./Libraries/CMSIS/DSP/Source/FilteringFunctions/arm_conv_partial_q7.c ****         count += 4U;
 457:./Libraries/CMSIS/DSP/Source/FilteringFunctions/arm_conv_partial_q7.c **** 
 458:./Libraries/CMSIS/DSP/Source/FilteringFunctions/arm_conv_partial_q7.c ****         /* Update the inputA and inputB pointers for next MAC calculation */
 459:./Libraries/CMSIS/DSP/Source/FilteringFunctions/arm_conv_partial_q7.c ****         px = pSrc1 + count;
 460:./Libraries/CMSIS/DSP/Source/FilteringFunctions/arm_conv_partial_q7.c ****         py = pSrc2;
 461:./Libraries/CMSIS/DSP/Source/FilteringFunctions/arm_conv_partial_q7.c **** 
 462:./Libraries/CMSIS/DSP/Source/FilteringFunctions/arm_conv_partial_q7.c ****         /* Decrement loop counter */
 463:./Libraries/CMSIS/DSP/Source/FilteringFunctions/arm_conv_partial_q7.c ****         blkCnt--;
 464:./Libraries/CMSIS/DSP/Source/FilteringFunctions/arm_conv_partial_q7.c ****       }
 465:./Libraries/CMSIS/DSP/Source/FilteringFunctions/arm_conv_partial_q7.c **** 
 466:./Libraries/CMSIS/DSP/Source/FilteringFunctions/arm_conv_partial_q7.c ****       /* Loop unrolling: Compute remaining outputs */
 467:./Libraries/CMSIS/DSP/Source/FilteringFunctions/arm_conv_partial_q7.c ****       blkCnt = (uint32_t) blockSize2 % 0x4U;
 468:./Libraries/CMSIS/DSP/Source/FilteringFunctions/arm_conv_partial_q7.c **** 
 469:./Libraries/CMSIS/DSP/Source/FilteringFunctions/arm_conv_partial_q7.c **** #else
 470:./Libraries/CMSIS/DSP/Source/FilteringFunctions/arm_conv_partial_q7.c **** 
 471:./Libraries/CMSIS/DSP/Source/FilteringFunctions/arm_conv_partial_q7.c ****       /* Initialize blkCnt with number of samples */
 472:./Libraries/CMSIS/DSP/Source/FilteringFunctions/arm_conv_partial_q7.c ****       blkCnt = blockSize2;
 343              		.loc 1 472 14
 344 01ae 7B6B     		ldr	r3, [r7, #52]
 345 01b0 FB64     		str	r3, [r7, #76]
 473:./Libraries/CMSIS/DSP/Source/FilteringFunctions/arm_conv_partial_q7.c **** 
 474:./Libraries/CMSIS/DSP/Source/FilteringFunctions/arm_conv_partial_q7.c **** #endif /* #if defined (ARM_MATH_LOOPUNROLL) */
 475:./Libraries/CMSIS/DSP/Source/FilteringFunctions/arm_conv_partial_q7.c **** 
 476:./Libraries/CMSIS/DSP/Source/FilteringFunctions/arm_conv_partial_q7.c ****       while (blkCnt > 0U)
 346              		.loc 1 476 13
 347 01b2 33E0     		b	.L21
 348              	.L24:
 477:./Libraries/CMSIS/DSP/Source/FilteringFunctions/arm_conv_partial_q7.c ****       {
 478:./Libraries/CMSIS/DSP/Source/FilteringFunctions/arm_conv_partial_q7.c ****         /* Accumulator is made zero for every iteration */
 479:./Libraries/CMSIS/DSP/Source/FilteringFunctions/arm_conv_partial_q7.c ****         sum = 0;
 349              		.loc 1 479 13
 350 01b4 0023     		movs	r3, #0
 351 01b6 BB65     		str	r3, [r7, #88]
 480:./Libraries/CMSIS/DSP/Source/FilteringFunctions/arm_conv_partial_q7.c **** 
 481:./Libraries/CMSIS/DSP/Source/FilteringFunctions/arm_conv_partial_q7.c **** #if defined (ARM_MATH_LOOPUNROLL)
 482:./Libraries/CMSIS/DSP/Source/FilteringFunctions/arm_conv_partial_q7.c **** 
 483:./Libraries/CMSIS/DSP/Source/FilteringFunctions/arm_conv_partial_q7.c ****         /* Loop unrolling: Compute 4 outputs at a time */
 484:./Libraries/CMSIS/DSP/Source/FilteringFunctions/arm_conv_partial_q7.c ****         k = srcBLen >> 2U;
 485:./Libraries/CMSIS/DSP/Source/FilteringFunctions/arm_conv_partial_q7.c **** 
 486:./Libraries/CMSIS/DSP/Source/FilteringFunctions/arm_conv_partial_q7.c ****         while (k > 0U)
 487:./Libraries/CMSIS/DSP/Source/FilteringFunctions/arm_conv_partial_q7.c ****         {
 488:./Libraries/CMSIS/DSP/Source/FilteringFunctions/arm_conv_partial_q7.c ****           /* Reading two inputs of SrcA buffer and packing */
 489:./Libraries/CMSIS/DSP/Source/FilteringFunctions/arm_conv_partial_q7.c ****           in1 = (q15_t) *px++;
 490:./Libraries/CMSIS/DSP/Source/FilteringFunctions/arm_conv_partial_q7.c ****           in2 = (q15_t) *px++;
 491:./Libraries/CMSIS/DSP/Source/FilteringFunctions/arm_conv_partial_q7.c ****           input1 = ((q31_t) in1 & 0x0000FFFF) | ((q31_t) in2 << 16);
 492:./Libraries/CMSIS/DSP/Source/FilteringFunctions/arm_conv_partial_q7.c **** 
 493:./Libraries/CMSIS/DSP/Source/FilteringFunctions/arm_conv_partial_q7.c ****           /* Reading two inputs of SrcB buffer and packing */
 494:./Libraries/CMSIS/DSP/Source/FilteringFunctions/arm_conv_partial_q7.c ****           in1 = (q15_t) *py--;
 495:./Libraries/CMSIS/DSP/Source/FilteringFunctions/arm_conv_partial_q7.c ****           in2 = (q15_t) *py--;
 496:./Libraries/CMSIS/DSP/Source/FilteringFunctions/arm_conv_partial_q7.c ****           input2 = ((q31_t) in1 & 0x0000FFFF) | ((q31_t) in2 << 16);
 497:./Libraries/CMSIS/DSP/Source/FilteringFunctions/arm_conv_partial_q7.c **** 
 498:./Libraries/CMSIS/DSP/Source/FilteringFunctions/arm_conv_partial_q7.c ****           /* Perform the multiply-accumulate */
 499:./Libraries/CMSIS/DSP/Source/FilteringFunctions/arm_conv_partial_q7.c ****           sum = __SMLAD(input1, input2, sum);
 500:./Libraries/CMSIS/DSP/Source/FilteringFunctions/arm_conv_partial_q7.c **** 
 501:./Libraries/CMSIS/DSP/Source/FilteringFunctions/arm_conv_partial_q7.c ****           /* Reading two inputs of SrcA buffer and packing */
 502:./Libraries/CMSIS/DSP/Source/FilteringFunctions/arm_conv_partial_q7.c ****           in1 = (q15_t) *px++;
 503:./Libraries/CMSIS/DSP/Source/FilteringFunctions/arm_conv_partial_q7.c ****           in2 = (q15_t) *px++;
ARM GAS  /tmp/ccOQzWs6.s 			page 16


 504:./Libraries/CMSIS/DSP/Source/FilteringFunctions/arm_conv_partial_q7.c ****           input1 = ((q31_t) in1 & 0x0000FFFF) | ((q31_t) in2 << 16);
 505:./Libraries/CMSIS/DSP/Source/FilteringFunctions/arm_conv_partial_q7.c **** 
 506:./Libraries/CMSIS/DSP/Source/FilteringFunctions/arm_conv_partial_q7.c ****           /* Reading two inputs of SrcB buffer and packing */
 507:./Libraries/CMSIS/DSP/Source/FilteringFunctions/arm_conv_partial_q7.c ****           in1 = (q15_t) *py--;
 508:./Libraries/CMSIS/DSP/Source/FilteringFunctions/arm_conv_partial_q7.c ****           in2 = (q15_t) *py--;
 509:./Libraries/CMSIS/DSP/Source/FilteringFunctions/arm_conv_partial_q7.c ****           input2 = ((q31_t) in1 & 0x0000FFFF) | ((q31_t) in2 << 16);
 510:./Libraries/CMSIS/DSP/Source/FilteringFunctions/arm_conv_partial_q7.c **** 
 511:./Libraries/CMSIS/DSP/Source/FilteringFunctions/arm_conv_partial_q7.c ****           /* Perform the multiply-accumulate */
 512:./Libraries/CMSIS/DSP/Source/FilteringFunctions/arm_conv_partial_q7.c ****           sum = __SMLAD(input1, input2, sum);
 513:./Libraries/CMSIS/DSP/Source/FilteringFunctions/arm_conv_partial_q7.c **** 
 514:./Libraries/CMSIS/DSP/Source/FilteringFunctions/arm_conv_partial_q7.c ****           /* Decrement loop counter */
 515:./Libraries/CMSIS/DSP/Source/FilteringFunctions/arm_conv_partial_q7.c ****           k--;
 516:./Libraries/CMSIS/DSP/Source/FilteringFunctions/arm_conv_partial_q7.c ****         }
 517:./Libraries/CMSIS/DSP/Source/FilteringFunctions/arm_conv_partial_q7.c **** 
 518:./Libraries/CMSIS/DSP/Source/FilteringFunctions/arm_conv_partial_q7.c ****         /* Loop unrolling: Compute remaining outputs */
 519:./Libraries/CMSIS/DSP/Source/FilteringFunctions/arm_conv_partial_q7.c ****         k = srcBLen % 0x4U;
 520:./Libraries/CMSIS/DSP/Source/FilteringFunctions/arm_conv_partial_q7.c **** 
 521:./Libraries/CMSIS/DSP/Source/FilteringFunctions/arm_conv_partial_q7.c **** #else
 522:./Libraries/CMSIS/DSP/Source/FilteringFunctions/arm_conv_partial_q7.c **** 
 523:./Libraries/CMSIS/DSP/Source/FilteringFunctions/arm_conv_partial_q7.c ****         /* Initialize blkCnt with number of samples */
 524:./Libraries/CMSIS/DSP/Source/FilteringFunctions/arm_conv_partial_q7.c ****         k = srcBLen;
 352              		.loc 1 524 11
 353 01b8 3B68     		ldr	r3, [r7]
 354 01ba 7B65     		str	r3, [r7, #84]
 525:./Libraries/CMSIS/DSP/Source/FilteringFunctions/arm_conv_partial_q7.c **** 
 526:./Libraries/CMSIS/DSP/Source/FilteringFunctions/arm_conv_partial_q7.c **** #endif /* #if defined (ARM_MATH_LOOPUNROLL) */
 527:./Libraries/CMSIS/DSP/Source/FilteringFunctions/arm_conv_partial_q7.c **** 
 528:./Libraries/CMSIS/DSP/Source/FilteringFunctions/arm_conv_partial_q7.c ****         while (k > 0U)
 355              		.loc 1 528 15
 356 01bc 12E0     		b	.L22
 357              	.L23:
 529:./Libraries/CMSIS/DSP/Source/FilteringFunctions/arm_conv_partial_q7.c ****         {
 530:./Libraries/CMSIS/DSP/Source/FilteringFunctions/arm_conv_partial_q7.c ****           /* Perform the multiply-accumulate */
 531:./Libraries/CMSIS/DSP/Source/FilteringFunctions/arm_conv_partial_q7.c ****           sum += ((q31_t) * px++ * *py--);
 358              		.loc 1 531 31
 359 01be BB6E     		ldr	r3, [r7, #104]
 360 01c0 5A1C     		adds	r2, r3, #1
 361 01c2 BA66     		str	r2, [r7, #104]
 362              		.loc 1 531 27
 363 01c4 93F90030 		ldrsb	r3, [r3]
 364              		.loc 1 531 19
 365 01c8 1946     		mov	r1, r3
 366              		.loc 1 531 39
 367 01ca 7B6E     		ldr	r3, [r7, #100]
 368 01cc 5A1E     		subs	r2, r3, #1
 369 01ce 7A66     		str	r2, [r7, #100]
 370              		.loc 1 531 36
 371 01d0 93F90030 		ldrsb	r3, [r3]
 372              		.loc 1 531 34
 373 01d4 03FB01F3 		mul	r3, r3, r1
 374              		.loc 1 531 15
 375 01d8 BA6D     		ldr	r2, [r7, #88]
 376 01da 1344     		add	r3, r3, r2
 377 01dc BB65     		str	r3, [r7, #88]
 532:./Libraries/CMSIS/DSP/Source/FilteringFunctions/arm_conv_partial_q7.c **** 
 533:./Libraries/CMSIS/DSP/Source/FilteringFunctions/arm_conv_partial_q7.c ****           /* Decrement loop counter */
 534:./Libraries/CMSIS/DSP/Source/FilteringFunctions/arm_conv_partial_q7.c ****           k--;
ARM GAS  /tmp/ccOQzWs6.s 			page 17


 378              		.loc 1 534 12
 379 01de 7B6D     		ldr	r3, [r7, #84]
 380 01e0 013B     		subs	r3, r3, #1
 381 01e2 7B65     		str	r3, [r7, #84]
 382              	.L22:
 528:./Libraries/CMSIS/DSP/Source/FilteringFunctions/arm_conv_partial_q7.c ****         {
 383              		.loc 1 528 15
 384 01e4 7B6D     		ldr	r3, [r7, #84]
 385 01e6 002B     		cmp	r3, #0
 386 01e8 E9D1     		bne	.L23
 387              	.LBB3:
 535:./Libraries/CMSIS/DSP/Source/FilteringFunctions/arm_conv_partial_q7.c ****         }
 536:./Libraries/CMSIS/DSP/Source/FilteringFunctions/arm_conv_partial_q7.c **** 
 537:./Libraries/CMSIS/DSP/Source/FilteringFunctions/arm_conv_partial_q7.c ****         /* Store the result in the accumulator in the destination buffer. */
 538:./Libraries/CMSIS/DSP/Source/FilteringFunctions/arm_conv_partial_q7.c ****         *pOut++ = (q7_t) (__SSAT(sum >> 7, 8));
 388              		.loc 1 538 27
 389 01ea BB6D     		ldr	r3, [r7, #88]
 390 01ec DB11     		asrs	r3, r3, #7
 391 01ee BB62     		str	r3, [r7, #40]
 392 01f0 BB6A     		ldr	r3, [r7, #40]
 393              		.syntax unified
 394              	@ 538 "./Libraries/CMSIS/DSP/Source/FilteringFunctions/arm_conv_partial_q7.c" 1
 395 01f2 03F30703 		ssat r3, #8, r3
 396              	@ 0 "" 2
 397              		.thumb
 398              		.syntax unified
 399 01f6 7B62     		str	r3, [r7, #36]
 400 01f8 796A     		ldr	r1, [r7, #36]
 401              	.LBE3:
 402              		.loc 1 538 14
 403 01fa FB6E     		ldr	r3, [r7, #108]
 404 01fc 5A1C     		adds	r2, r3, #1
 405 01fe FA66     		str	r2, [r7, #108]
 406              		.loc 1 538 19
 407 0200 4AB2     		sxtb	r2, r1
 408              		.loc 1 538 17
 409 0202 1A70     		strb	r2, [r3]
 539:./Libraries/CMSIS/DSP/Source/FilteringFunctions/arm_conv_partial_q7.c **** 
 540:./Libraries/CMSIS/DSP/Source/FilteringFunctions/arm_conv_partial_q7.c ****         /* Increment the pointer pIn1 index, count by 1 */
 541:./Libraries/CMSIS/DSP/Source/FilteringFunctions/arm_conv_partial_q7.c ****         count++;
 410              		.loc 1 541 14
 411 0204 3B6D     		ldr	r3, [r7, #80]
 412 0206 0133     		adds	r3, r3, #1
 413 0208 3B65     		str	r3, [r7, #80]
 542:./Libraries/CMSIS/DSP/Source/FilteringFunctions/arm_conv_partial_q7.c **** 
 543:./Libraries/CMSIS/DSP/Source/FilteringFunctions/arm_conv_partial_q7.c ****         /* Update the inputA and inputB pointers for next MAC calculation */
 544:./Libraries/CMSIS/DSP/Source/FilteringFunctions/arm_conv_partial_q7.c ****         px = pSrc1 + count;
 414              		.loc 1 544 12
 415 020a 3A6E     		ldr	r2, [r7, #96]
 416 020c 3B6D     		ldr	r3, [r7, #80]
 417 020e 1344     		add	r3, r3, r2
 418 0210 BB66     		str	r3, [r7, #104]
 545:./Libraries/CMSIS/DSP/Source/FilteringFunctions/arm_conv_partial_q7.c ****         py = pSrc2;
 419              		.loc 1 545 12
 420 0212 FB6D     		ldr	r3, [r7, #92]
 421 0214 7B66     		str	r3, [r7, #100]
 546:./Libraries/CMSIS/DSP/Source/FilteringFunctions/arm_conv_partial_q7.c **** 
ARM GAS  /tmp/ccOQzWs6.s 			page 18


 547:./Libraries/CMSIS/DSP/Source/FilteringFunctions/arm_conv_partial_q7.c ****         /* Decrement loop counter */
 548:./Libraries/CMSIS/DSP/Source/FilteringFunctions/arm_conv_partial_q7.c ****         blkCnt--;
 422              		.loc 1 548 15
 423 0216 FB6C     		ldr	r3, [r7, #76]
 424 0218 013B     		subs	r3, r3, #1
 425 021a FB64     		str	r3, [r7, #76]
 426              	.L21:
 476:./Libraries/CMSIS/DSP/Source/FilteringFunctions/arm_conv_partial_q7.c ****       {
 427              		.loc 1 476 13
 428 021c FB6C     		ldr	r3, [r7, #76]
 429 021e 002B     		cmp	r3, #0
 430 0220 C8D1     		bne	.L24
 431 0222 39E0     		b	.L25
 432              	.L20:
 549:./Libraries/CMSIS/DSP/Source/FilteringFunctions/arm_conv_partial_q7.c ****       }
 550:./Libraries/CMSIS/DSP/Source/FilteringFunctions/arm_conv_partial_q7.c ****     }
 551:./Libraries/CMSIS/DSP/Source/FilteringFunctions/arm_conv_partial_q7.c ****     else
 552:./Libraries/CMSIS/DSP/Source/FilteringFunctions/arm_conv_partial_q7.c ****     {
 553:./Libraries/CMSIS/DSP/Source/FilteringFunctions/arm_conv_partial_q7.c ****       /* If the srcBLen is not a multiple of 4,
 554:./Libraries/CMSIS/DSP/Source/FilteringFunctions/arm_conv_partial_q7.c ****        * the blockSize2 loop cannot be unrolled by 4 */
 555:./Libraries/CMSIS/DSP/Source/FilteringFunctions/arm_conv_partial_q7.c ****       blkCnt = (uint32_t) blockSize2;
 433              		.loc 1 555 14
 434 0224 7B6B     		ldr	r3, [r7, #52]
 435 0226 FB64     		str	r3, [r7, #76]
 556:./Libraries/CMSIS/DSP/Source/FilteringFunctions/arm_conv_partial_q7.c **** 
 557:./Libraries/CMSIS/DSP/Source/FilteringFunctions/arm_conv_partial_q7.c ****       while (blkCnt > 0U)
 436              		.loc 1 557 13
 437 0228 33E0     		b	.L26
 438              	.L29:
 558:./Libraries/CMSIS/DSP/Source/FilteringFunctions/arm_conv_partial_q7.c ****       {
 559:./Libraries/CMSIS/DSP/Source/FilteringFunctions/arm_conv_partial_q7.c ****         /* Accumulator is made zero for every iteration */
 560:./Libraries/CMSIS/DSP/Source/FilteringFunctions/arm_conv_partial_q7.c ****         sum = 0;
 439              		.loc 1 560 13
 440 022a 0023     		movs	r3, #0
 441 022c BB65     		str	r3, [r7, #88]
 561:./Libraries/CMSIS/DSP/Source/FilteringFunctions/arm_conv_partial_q7.c **** 
 562:./Libraries/CMSIS/DSP/Source/FilteringFunctions/arm_conv_partial_q7.c ****         /* srcBLen number of MACS should be performed */
 563:./Libraries/CMSIS/DSP/Source/FilteringFunctions/arm_conv_partial_q7.c ****         k = srcBLen;
 442              		.loc 1 563 11
 443 022e 3B68     		ldr	r3, [r7]
 444 0230 7B65     		str	r3, [r7, #84]
 564:./Libraries/CMSIS/DSP/Source/FilteringFunctions/arm_conv_partial_q7.c **** 
 565:./Libraries/CMSIS/DSP/Source/FilteringFunctions/arm_conv_partial_q7.c ****         while (k > 0U)
 445              		.loc 1 565 15
 446 0232 12E0     		b	.L27
 447              	.L28:
 566:./Libraries/CMSIS/DSP/Source/FilteringFunctions/arm_conv_partial_q7.c ****         {
 567:./Libraries/CMSIS/DSP/Source/FilteringFunctions/arm_conv_partial_q7.c ****           /* Perform the multiply-accumulate */
 568:./Libraries/CMSIS/DSP/Source/FilteringFunctions/arm_conv_partial_q7.c ****           sum += ((q31_t) * px++ * *py--);
 448              		.loc 1 568 31
 449 0234 BB6E     		ldr	r3, [r7, #104]
 450 0236 5A1C     		adds	r2, r3, #1
 451 0238 BA66     		str	r2, [r7, #104]
 452              		.loc 1 568 27
 453 023a 93F90030 		ldrsb	r3, [r3]
 454              		.loc 1 568 19
 455 023e 1946     		mov	r1, r3
ARM GAS  /tmp/ccOQzWs6.s 			page 19


 456              		.loc 1 568 39
 457 0240 7B6E     		ldr	r3, [r7, #100]
 458 0242 5A1E     		subs	r2, r3, #1
 459 0244 7A66     		str	r2, [r7, #100]
 460              		.loc 1 568 36
 461 0246 93F90030 		ldrsb	r3, [r3]
 462              		.loc 1 568 34
 463 024a 03FB01F3 		mul	r3, r3, r1
 464              		.loc 1 568 15
 465 024e BA6D     		ldr	r2, [r7, #88]
 466 0250 1344     		add	r3, r3, r2
 467 0252 BB65     		str	r3, [r7, #88]
 569:./Libraries/CMSIS/DSP/Source/FilteringFunctions/arm_conv_partial_q7.c **** 
 570:./Libraries/CMSIS/DSP/Source/FilteringFunctions/arm_conv_partial_q7.c ****           /* Decrement loop counter */
 571:./Libraries/CMSIS/DSP/Source/FilteringFunctions/arm_conv_partial_q7.c ****           k--;
 468              		.loc 1 571 12
 469 0254 7B6D     		ldr	r3, [r7, #84]
 470 0256 013B     		subs	r3, r3, #1
 471 0258 7B65     		str	r3, [r7, #84]
 472              	.L27:
 565:./Libraries/CMSIS/DSP/Source/FilteringFunctions/arm_conv_partial_q7.c ****         {
 473              		.loc 1 565 15
 474 025a 7B6D     		ldr	r3, [r7, #84]
 475 025c 002B     		cmp	r3, #0
 476 025e E9D1     		bne	.L28
 477              	.LBB4:
 572:./Libraries/CMSIS/DSP/Source/FilteringFunctions/arm_conv_partial_q7.c ****         }
 573:./Libraries/CMSIS/DSP/Source/FilteringFunctions/arm_conv_partial_q7.c **** 
 574:./Libraries/CMSIS/DSP/Source/FilteringFunctions/arm_conv_partial_q7.c ****         /* Store the result in the accumulator in the destination buffer. */
 575:./Libraries/CMSIS/DSP/Source/FilteringFunctions/arm_conv_partial_q7.c ****         *pOut++ = (q7_t) (__SSAT(sum >> 7, 8));
 478              		.loc 1 575 27
 479 0260 BB6D     		ldr	r3, [r7, #88]
 480 0262 DB11     		asrs	r3, r3, #7
 481 0264 3B63     		str	r3, [r7, #48]
 482 0266 3B6B     		ldr	r3, [r7, #48]
 483              		.syntax unified
 484              	@ 575 "./Libraries/CMSIS/DSP/Source/FilteringFunctions/arm_conv_partial_q7.c" 1
 485 0268 03F30703 		ssat r3, #8, r3
 486              	@ 0 "" 2
 487              		.thumb
 488              		.syntax unified
 489 026c FB62     		str	r3, [r7, #44]
 490 026e F96A     		ldr	r1, [r7, #44]
 491              	.LBE4:
 492              		.loc 1 575 14
 493 0270 FB6E     		ldr	r3, [r7, #108]
 494 0272 5A1C     		adds	r2, r3, #1
 495 0274 FA66     		str	r2, [r7, #108]
 496              		.loc 1 575 19
 497 0276 4AB2     		sxtb	r2, r1
 498              		.loc 1 575 17
 499 0278 1A70     		strb	r2, [r3]
 576:./Libraries/CMSIS/DSP/Source/FilteringFunctions/arm_conv_partial_q7.c **** 
 577:./Libraries/CMSIS/DSP/Source/FilteringFunctions/arm_conv_partial_q7.c ****         /* Increment the MAC count */
 578:./Libraries/CMSIS/DSP/Source/FilteringFunctions/arm_conv_partial_q7.c ****         count++;
 500              		.loc 1 578 14
 501 027a 3B6D     		ldr	r3, [r7, #80]
ARM GAS  /tmp/ccOQzWs6.s 			page 20


 502 027c 0133     		adds	r3, r3, #1
 503 027e 3B65     		str	r3, [r7, #80]
 579:./Libraries/CMSIS/DSP/Source/FilteringFunctions/arm_conv_partial_q7.c **** 
 580:./Libraries/CMSIS/DSP/Source/FilteringFunctions/arm_conv_partial_q7.c ****         /* Update the inputA and inputB pointers for next MAC calculation */
 581:./Libraries/CMSIS/DSP/Source/FilteringFunctions/arm_conv_partial_q7.c ****         px = pSrc1 + count;
 504              		.loc 1 581 12
 505 0280 3A6E     		ldr	r2, [r7, #96]
 506 0282 3B6D     		ldr	r3, [r7, #80]
 507 0284 1344     		add	r3, r3, r2
 508 0286 BB66     		str	r3, [r7, #104]
 582:./Libraries/CMSIS/DSP/Source/FilteringFunctions/arm_conv_partial_q7.c ****         py = pSrc2;
 509              		.loc 1 582 12
 510 0288 FB6D     		ldr	r3, [r7, #92]
 511 028a 7B66     		str	r3, [r7, #100]
 583:./Libraries/CMSIS/DSP/Source/FilteringFunctions/arm_conv_partial_q7.c **** 
 584:./Libraries/CMSIS/DSP/Source/FilteringFunctions/arm_conv_partial_q7.c ****         /* Decrement the loop counter */
 585:./Libraries/CMSIS/DSP/Source/FilteringFunctions/arm_conv_partial_q7.c ****         blkCnt--;
 512              		.loc 1 585 15
 513 028c FB6C     		ldr	r3, [r7, #76]
 514 028e 013B     		subs	r3, r3, #1
 515 0290 FB64     		str	r3, [r7, #76]
 516              	.L26:
 557:./Libraries/CMSIS/DSP/Source/FilteringFunctions/arm_conv_partial_q7.c ****       {
 517              		.loc 1 557 13
 518 0292 FB6C     		ldr	r3, [r7, #76]
 519 0294 002B     		cmp	r3, #0
 520 0296 C8D1     		bne	.L29
 521              	.L25:
 586:./Libraries/CMSIS/DSP/Source/FilteringFunctions/arm_conv_partial_q7.c ****       }
 587:./Libraries/CMSIS/DSP/Source/FilteringFunctions/arm_conv_partial_q7.c ****     }
 588:./Libraries/CMSIS/DSP/Source/FilteringFunctions/arm_conv_partial_q7.c **** 
 589:./Libraries/CMSIS/DSP/Source/FilteringFunctions/arm_conv_partial_q7.c **** 
 590:./Libraries/CMSIS/DSP/Source/FilteringFunctions/arm_conv_partial_q7.c ****     /* --------------------------
 591:./Libraries/CMSIS/DSP/Source/FilteringFunctions/arm_conv_partial_q7.c ****      * Initializations of stage3
 592:./Libraries/CMSIS/DSP/Source/FilteringFunctions/arm_conv_partial_q7.c ****      * -------------------------*/
 593:./Libraries/CMSIS/DSP/Source/FilteringFunctions/arm_conv_partial_q7.c **** 
 594:./Libraries/CMSIS/DSP/Source/FilteringFunctions/arm_conv_partial_q7.c ****     /* sum += x[srcALen-srcBLen+1] * y[srcBLen-1] + x[srcALen-srcBLen+2] * y[srcBLen-2] +...+ x[src
 595:./Libraries/CMSIS/DSP/Source/FilteringFunctions/arm_conv_partial_q7.c ****      * sum += x[srcALen-srcBLen+2] * y[srcBLen-1] + x[srcALen-srcBLen+3] * y[srcBLen-2] +...+ x[src
 596:./Libraries/CMSIS/DSP/Source/FilteringFunctions/arm_conv_partial_q7.c ****      * ....
 597:./Libraries/CMSIS/DSP/Source/FilteringFunctions/arm_conv_partial_q7.c ****      * sum +=  x[srcALen-2] * y[srcBLen-1] + x[srcALen-1] * y[srcBLen-2]
 598:./Libraries/CMSIS/DSP/Source/FilteringFunctions/arm_conv_partial_q7.c ****      * sum +=  x[srcALen-1] * y[srcBLen-1]
 599:./Libraries/CMSIS/DSP/Source/FilteringFunctions/arm_conv_partial_q7.c ****      */
 600:./Libraries/CMSIS/DSP/Source/FilteringFunctions/arm_conv_partial_q7.c **** 
 601:./Libraries/CMSIS/DSP/Source/FilteringFunctions/arm_conv_partial_q7.c ****     /* In this stage the MAC operations are decreased by 1 for every iteration.
 602:./Libraries/CMSIS/DSP/Source/FilteringFunctions/arm_conv_partial_q7.c ****        The count variable holds the number of MAC operations performed */
 603:./Libraries/CMSIS/DSP/Source/FilteringFunctions/arm_conv_partial_q7.c ****     count = srcBLen - 1U;
 522              		.loc 1 603 11
 523 0298 3B68     		ldr	r3, [r7]
 524 029a 013B     		subs	r3, r3, #1
 525 029c 3B65     		str	r3, [r7, #80]
 604:./Libraries/CMSIS/DSP/Source/FilteringFunctions/arm_conv_partial_q7.c **** 
 605:./Libraries/CMSIS/DSP/Source/FilteringFunctions/arm_conv_partial_q7.c ****     /* Working pointer of inputA */
 606:./Libraries/CMSIS/DSP/Source/FilteringFunctions/arm_conv_partial_q7.c ****     pSrc1 = (pIn1 + srcALen) - (srcBLen - 1U);
 526              		.loc 1 606 30
 527 029e BA68     		ldr	r2, [r7, #8]
 528 02a0 3B68     		ldr	r3, [r7]
 529 02a2 D31A     		subs	r3, r2, r3
ARM GAS  /tmp/ccOQzWs6.s 			page 21


 530 02a4 0133     		adds	r3, r3, #1
 531              		.loc 1 606 11
 532 02a6 7A6F     		ldr	r2, [r7, #116]
 533 02a8 1344     		add	r3, r3, r2
 534 02aa 3B66     		str	r3, [r7, #96]
 607:./Libraries/CMSIS/DSP/Source/FilteringFunctions/arm_conv_partial_q7.c ****     px = pSrc1;
 535              		.loc 1 607 8
 536 02ac 3B6E     		ldr	r3, [r7, #96]
 537 02ae BB66     		str	r3, [r7, #104]
 608:./Libraries/CMSIS/DSP/Source/FilteringFunctions/arm_conv_partial_q7.c **** 
 609:./Libraries/CMSIS/DSP/Source/FilteringFunctions/arm_conv_partial_q7.c ****     /* Working pointer of inputB */
 610:./Libraries/CMSIS/DSP/Source/FilteringFunctions/arm_conv_partial_q7.c ****     pSrc2 = pIn2 + (srcBLen - 1U);
 538              		.loc 1 610 18
 539 02b0 3B68     		ldr	r3, [r7]
 540 02b2 013B     		subs	r3, r3, #1
 541              		.loc 1 610 11
 542 02b4 3A6F     		ldr	r2, [r7, #112]
 543 02b6 1344     		add	r3, r3, r2
 544 02b8 FB65     		str	r3, [r7, #92]
 611:./Libraries/CMSIS/DSP/Source/FilteringFunctions/arm_conv_partial_q7.c ****     py = pSrc2;
 545              		.loc 1 611 8
 546 02ba FB6D     		ldr	r3, [r7, #92]
 547 02bc 7B66     		str	r3, [r7, #100]
 612:./Libraries/CMSIS/DSP/Source/FilteringFunctions/arm_conv_partial_q7.c **** 
 613:./Libraries/CMSIS/DSP/Source/FilteringFunctions/arm_conv_partial_q7.c ****     /* -------------------
 614:./Libraries/CMSIS/DSP/Source/FilteringFunctions/arm_conv_partial_q7.c ****      * Stage3 process
 615:./Libraries/CMSIS/DSP/Source/FilteringFunctions/arm_conv_partial_q7.c ****      * ------------------*/
 616:./Libraries/CMSIS/DSP/Source/FilteringFunctions/arm_conv_partial_q7.c **** 
 617:./Libraries/CMSIS/DSP/Source/FilteringFunctions/arm_conv_partial_q7.c ****     while (blockSize3 > 0U)
 548              		.loc 1 617 11
 549 02be 34E0     		b	.L30
 550              	.L33:
 618:./Libraries/CMSIS/DSP/Source/FilteringFunctions/arm_conv_partial_q7.c ****     {
 619:./Libraries/CMSIS/DSP/Source/FilteringFunctions/arm_conv_partial_q7.c ****       /* Accumulator is made zero for every iteration */
 620:./Libraries/CMSIS/DSP/Source/FilteringFunctions/arm_conv_partial_q7.c ****       sum = 0;
 551              		.loc 1 620 11
 552 02c0 0023     		movs	r3, #0
 553 02c2 BB65     		str	r3, [r7, #88]
 621:./Libraries/CMSIS/DSP/Source/FilteringFunctions/arm_conv_partial_q7.c **** 
 622:./Libraries/CMSIS/DSP/Source/FilteringFunctions/arm_conv_partial_q7.c **** #if defined (ARM_MATH_LOOPUNROLL)
 623:./Libraries/CMSIS/DSP/Source/FilteringFunctions/arm_conv_partial_q7.c **** 
 624:./Libraries/CMSIS/DSP/Source/FilteringFunctions/arm_conv_partial_q7.c ****       /* Loop unrolling: Compute 4 outputs at a time */
 625:./Libraries/CMSIS/DSP/Source/FilteringFunctions/arm_conv_partial_q7.c ****       k = count >> 2U;
 626:./Libraries/CMSIS/DSP/Source/FilteringFunctions/arm_conv_partial_q7.c **** 
 627:./Libraries/CMSIS/DSP/Source/FilteringFunctions/arm_conv_partial_q7.c ****       while (k > 0U)
 628:./Libraries/CMSIS/DSP/Source/FilteringFunctions/arm_conv_partial_q7.c ****       {
 629:./Libraries/CMSIS/DSP/Source/FilteringFunctions/arm_conv_partial_q7.c ****         /* Reading two inputs, x[srcALen - srcBLen + 1] and x[srcALen - srcBLen + 2] of SrcA buffer
 630:./Libraries/CMSIS/DSP/Source/FilteringFunctions/arm_conv_partial_q7.c ****         in1 = (q15_t) *px++;
 631:./Libraries/CMSIS/DSP/Source/FilteringFunctions/arm_conv_partial_q7.c ****         in2 = (q15_t) *px++;
 632:./Libraries/CMSIS/DSP/Source/FilteringFunctions/arm_conv_partial_q7.c ****         input1 = ((q31_t) in1 & 0x0000FFFF) | ((q31_t) in2 << 16);
 633:./Libraries/CMSIS/DSP/Source/FilteringFunctions/arm_conv_partial_q7.c **** 
 634:./Libraries/CMSIS/DSP/Source/FilteringFunctions/arm_conv_partial_q7.c ****         /* Reading two inputs, y[srcBLen - 1] and y[srcBLen - 2] of SrcB buffer and packing */
 635:./Libraries/CMSIS/DSP/Source/FilteringFunctions/arm_conv_partial_q7.c ****         in1 = (q15_t) *py--;
 636:./Libraries/CMSIS/DSP/Source/FilteringFunctions/arm_conv_partial_q7.c ****         in2 = (q15_t) *py--;
 637:./Libraries/CMSIS/DSP/Source/FilteringFunctions/arm_conv_partial_q7.c ****         input2 = ((q31_t) in1 & 0x0000FFFF) | ((q31_t) in2 << 16);
 638:./Libraries/CMSIS/DSP/Source/FilteringFunctions/arm_conv_partial_q7.c **** 
 639:./Libraries/CMSIS/DSP/Source/FilteringFunctions/arm_conv_partial_q7.c ****         /* sum += x[srcALen - srcBLen + 1] * y[srcBLen - 1] */
ARM GAS  /tmp/ccOQzWs6.s 			page 22


 640:./Libraries/CMSIS/DSP/Source/FilteringFunctions/arm_conv_partial_q7.c ****         /* sum += x[srcALen - srcBLen + 2] * y[srcBLen - 2] */
 641:./Libraries/CMSIS/DSP/Source/FilteringFunctions/arm_conv_partial_q7.c ****         sum = __SMLAD(input1, input2, sum);
 642:./Libraries/CMSIS/DSP/Source/FilteringFunctions/arm_conv_partial_q7.c **** 
 643:./Libraries/CMSIS/DSP/Source/FilteringFunctions/arm_conv_partial_q7.c ****         /* Reading two inputs, x[srcALen - srcBLen + 3] and x[srcALen - srcBLen + 4] of SrcA buffer
 644:./Libraries/CMSIS/DSP/Source/FilteringFunctions/arm_conv_partial_q7.c ****         in1 = (q15_t) *px++;
 645:./Libraries/CMSIS/DSP/Source/FilteringFunctions/arm_conv_partial_q7.c ****         in2 = (q15_t) *px++;
 646:./Libraries/CMSIS/DSP/Source/FilteringFunctions/arm_conv_partial_q7.c ****         input1 = ((q31_t) in1 & 0x0000FFFF) | ((q31_t) in2 << 16);
 647:./Libraries/CMSIS/DSP/Source/FilteringFunctions/arm_conv_partial_q7.c **** 
 648:./Libraries/CMSIS/DSP/Source/FilteringFunctions/arm_conv_partial_q7.c ****         /* Reading two inputs, y[srcBLen - 3] and y[srcBLen - 4] of SrcB buffer and packing */
 649:./Libraries/CMSIS/DSP/Source/FilteringFunctions/arm_conv_partial_q7.c ****         in1 = (q15_t) *py--;
 650:./Libraries/CMSIS/DSP/Source/FilteringFunctions/arm_conv_partial_q7.c ****         in2 = (q15_t) *py--;
 651:./Libraries/CMSIS/DSP/Source/FilteringFunctions/arm_conv_partial_q7.c ****         input2 = ((q31_t) in1 & 0x0000FFFF) | ((q31_t) in2 << 16);
 652:./Libraries/CMSIS/DSP/Source/FilteringFunctions/arm_conv_partial_q7.c **** 
 653:./Libraries/CMSIS/DSP/Source/FilteringFunctions/arm_conv_partial_q7.c ****         /* sum += x[srcALen - srcBLen + 3] * y[srcBLen - 3] */
 654:./Libraries/CMSIS/DSP/Source/FilteringFunctions/arm_conv_partial_q7.c ****         /* sum += x[srcALen - srcBLen + 4] * y[srcBLen - 4] */
 655:./Libraries/CMSIS/DSP/Source/FilteringFunctions/arm_conv_partial_q7.c ****         sum = __SMLAD(input1, input2, sum);
 656:./Libraries/CMSIS/DSP/Source/FilteringFunctions/arm_conv_partial_q7.c **** 
 657:./Libraries/CMSIS/DSP/Source/FilteringFunctions/arm_conv_partial_q7.c ****         /* Decrement loop counter */
 658:./Libraries/CMSIS/DSP/Source/FilteringFunctions/arm_conv_partial_q7.c ****         k--;
 659:./Libraries/CMSIS/DSP/Source/FilteringFunctions/arm_conv_partial_q7.c ****       }
 660:./Libraries/CMSIS/DSP/Source/FilteringFunctions/arm_conv_partial_q7.c **** 
 661:./Libraries/CMSIS/DSP/Source/FilteringFunctions/arm_conv_partial_q7.c ****       /* Loop unrolling: Compute remaining outputs */
 662:./Libraries/CMSIS/DSP/Source/FilteringFunctions/arm_conv_partial_q7.c ****       k = count % 0x4U;
 663:./Libraries/CMSIS/DSP/Source/FilteringFunctions/arm_conv_partial_q7.c **** 
 664:./Libraries/CMSIS/DSP/Source/FilteringFunctions/arm_conv_partial_q7.c **** #else
 665:./Libraries/CMSIS/DSP/Source/FilteringFunctions/arm_conv_partial_q7.c **** 
 666:./Libraries/CMSIS/DSP/Source/FilteringFunctions/arm_conv_partial_q7.c ****       /* Initialize blkCnt with number of samples */
 667:./Libraries/CMSIS/DSP/Source/FilteringFunctions/arm_conv_partial_q7.c ****       k = count;
 554              		.loc 1 667 9
 555 02c4 3B6D     		ldr	r3, [r7, #80]
 556 02c6 7B65     		str	r3, [r7, #84]
 668:./Libraries/CMSIS/DSP/Source/FilteringFunctions/arm_conv_partial_q7.c **** 
 669:./Libraries/CMSIS/DSP/Source/FilteringFunctions/arm_conv_partial_q7.c **** #endif /* #if defined (ARM_MATH_LOOPUNROLL) */
 670:./Libraries/CMSIS/DSP/Source/FilteringFunctions/arm_conv_partial_q7.c **** 
 671:./Libraries/CMSIS/DSP/Source/FilteringFunctions/arm_conv_partial_q7.c ****       while (k > 0U)
 557              		.loc 1 671 13
 558 02c8 12E0     		b	.L31
 559              	.L32:
 672:./Libraries/CMSIS/DSP/Source/FilteringFunctions/arm_conv_partial_q7.c ****       {
 673:./Libraries/CMSIS/DSP/Source/FilteringFunctions/arm_conv_partial_q7.c ****         /* Perform the multiply-accumulates */
 674:./Libraries/CMSIS/DSP/Source/FilteringFunctions/arm_conv_partial_q7.c ****         /* sum +=  x[srcALen-1] * y[srcBLen-1] */
 675:./Libraries/CMSIS/DSP/Source/FilteringFunctions/arm_conv_partial_q7.c ****         sum += ((q31_t) * px++ * *py--);
 560              		.loc 1 675 29
 561 02ca BB6E     		ldr	r3, [r7, #104]
 562 02cc 5A1C     		adds	r2, r3, #1
 563 02ce BA66     		str	r2, [r7, #104]
 564              		.loc 1 675 25
 565 02d0 93F90030 		ldrsb	r3, [r3]
 566              		.loc 1 675 17
 567 02d4 1946     		mov	r1, r3
 568              		.loc 1 675 37
 569 02d6 7B6E     		ldr	r3, [r7, #100]
 570 02d8 5A1E     		subs	r2, r3, #1
 571 02da 7A66     		str	r2, [r7, #100]
 572              		.loc 1 675 34
 573 02dc 93F90030 		ldrsb	r3, [r3]
 574              		.loc 1 675 32
ARM GAS  /tmp/ccOQzWs6.s 			page 23


 575 02e0 03FB01F3 		mul	r3, r3, r1
 576              		.loc 1 675 13
 577 02e4 BA6D     		ldr	r2, [r7, #88]
 578 02e6 1344     		add	r3, r3, r2
 579 02e8 BB65     		str	r3, [r7, #88]
 676:./Libraries/CMSIS/DSP/Source/FilteringFunctions/arm_conv_partial_q7.c **** 
 677:./Libraries/CMSIS/DSP/Source/FilteringFunctions/arm_conv_partial_q7.c ****         /* Decrement loop counter */
 678:./Libraries/CMSIS/DSP/Source/FilteringFunctions/arm_conv_partial_q7.c ****         k--;
 580              		.loc 1 678 10
 581 02ea 7B6D     		ldr	r3, [r7, #84]
 582 02ec 013B     		subs	r3, r3, #1
 583 02ee 7B65     		str	r3, [r7, #84]
 584              	.L31:
 671:./Libraries/CMSIS/DSP/Source/FilteringFunctions/arm_conv_partial_q7.c ****       {
 585              		.loc 1 671 13
 586 02f0 7B6D     		ldr	r3, [r7, #84]
 587 02f2 002B     		cmp	r3, #0
 588 02f4 E9D1     		bne	.L32
 589              	.LBB5:
 679:./Libraries/CMSIS/DSP/Source/FilteringFunctions/arm_conv_partial_q7.c ****       }
 680:./Libraries/CMSIS/DSP/Source/FilteringFunctions/arm_conv_partial_q7.c **** 
 681:./Libraries/CMSIS/DSP/Source/FilteringFunctions/arm_conv_partial_q7.c ****       /* Store the result in the accumulator in the destination buffer. */
 682:./Libraries/CMSIS/DSP/Source/FilteringFunctions/arm_conv_partial_q7.c ****       *pOut++ = (q7_t) (__SSAT(sum >> 7, 8));
 590              		.loc 1 682 25
 591 02f6 BB6D     		ldr	r3, [r7, #88]
 592 02f8 DB11     		asrs	r3, r3, #7
 593 02fa 3B62     		str	r3, [r7, #32]
 594 02fc 3B6A     		ldr	r3, [r7, #32]
 595              		.syntax unified
 596              	@ 682 "./Libraries/CMSIS/DSP/Source/FilteringFunctions/arm_conv_partial_q7.c" 1
 597 02fe 03F30703 		ssat r3, #8, r3
 598              	@ 0 "" 2
 599              		.thumb
 600              		.syntax unified
 601 0302 FB61     		str	r3, [r7, #28]
 602 0304 F969     		ldr	r1, [r7, #28]
 603              	.LBE5:
 604              		.loc 1 682 12
 605 0306 FB6E     		ldr	r3, [r7, #108]
 606 0308 5A1C     		adds	r2, r3, #1
 607 030a FA66     		str	r2, [r7, #108]
 608              		.loc 1 682 17
 609 030c 4AB2     		sxtb	r2, r1
 610              		.loc 1 682 15
 611 030e 1A70     		strb	r2, [r3]
 683:./Libraries/CMSIS/DSP/Source/FilteringFunctions/arm_conv_partial_q7.c **** 
 684:./Libraries/CMSIS/DSP/Source/FilteringFunctions/arm_conv_partial_q7.c ****       /* Update the inputA and inputB pointers for next MAC calculation */
 685:./Libraries/CMSIS/DSP/Source/FilteringFunctions/arm_conv_partial_q7.c ****       px = ++pSrc1;
 612              		.loc 1 685 10
 613 0310 3B6E     		ldr	r3, [r7, #96]
 614 0312 0133     		adds	r3, r3, #1
 615 0314 3B66     		str	r3, [r7, #96]
 616 0316 3B6E     		ldr	r3, [r7, #96]
 617 0318 BB66     		str	r3, [r7, #104]
 686:./Libraries/CMSIS/DSP/Source/FilteringFunctions/arm_conv_partial_q7.c ****       py = pSrc2;
 618              		.loc 1 686 10
 619 031a FB6D     		ldr	r3, [r7, #92]
ARM GAS  /tmp/ccOQzWs6.s 			page 24


 620 031c 7B66     		str	r3, [r7, #100]
 687:./Libraries/CMSIS/DSP/Source/FilteringFunctions/arm_conv_partial_q7.c **** 
 688:./Libraries/CMSIS/DSP/Source/FilteringFunctions/arm_conv_partial_q7.c ****       /* Decrement MAC count */
 689:./Libraries/CMSIS/DSP/Source/FilteringFunctions/arm_conv_partial_q7.c ****       count--;
 621              		.loc 1 689 12
 622 031e 3B6D     		ldr	r3, [r7, #80]
 623 0320 013B     		subs	r3, r3, #1
 624 0322 3B65     		str	r3, [r7, #80]
 690:./Libraries/CMSIS/DSP/Source/FilteringFunctions/arm_conv_partial_q7.c **** 
 691:./Libraries/CMSIS/DSP/Source/FilteringFunctions/arm_conv_partial_q7.c ****       /* Decrement the loop counter */
 692:./Libraries/CMSIS/DSP/Source/FilteringFunctions/arm_conv_partial_q7.c ****       blockSize3--;
 625              		.loc 1 692 17
 626 0324 7B6C     		ldr	r3, [r7, #68]
 627 0326 013B     		subs	r3, r3, #1
 628 0328 7B64     		str	r3, [r7, #68]
 629              	.L30:
 617:./Libraries/CMSIS/DSP/Source/FilteringFunctions/arm_conv_partial_q7.c ****     {
 630              		.loc 1 617 11
 631 032a 7B6C     		ldr	r3, [r7, #68]
 632 032c 002B     		cmp	r3, #0
 633 032e C7D1     		bne	.L33
 693:./Libraries/CMSIS/DSP/Source/FilteringFunctions/arm_conv_partial_q7.c ****     }
 694:./Libraries/CMSIS/DSP/Source/FilteringFunctions/arm_conv_partial_q7.c **** 
 695:./Libraries/CMSIS/DSP/Source/FilteringFunctions/arm_conv_partial_q7.c ****     /* Set status as ARM_MATH_SUCCESS */
 696:./Libraries/CMSIS/DSP/Source/FilteringFunctions/arm_conv_partial_q7.c ****     status = ARM_MATH_SUCCESS;
 634              		.loc 1 696 12
 635 0330 0023     		movs	r3, #0
 636 0332 87F84330 		strb	r3, [r7, #67]
 637              	.L3:
 697:./Libraries/CMSIS/DSP/Source/FilteringFunctions/arm_conv_partial_q7.c ****   }
 698:./Libraries/CMSIS/DSP/Source/FilteringFunctions/arm_conv_partial_q7.c **** 
 699:./Libraries/CMSIS/DSP/Source/FilteringFunctions/arm_conv_partial_q7.c ****   /* Return to application */
 700:./Libraries/CMSIS/DSP/Source/FilteringFunctions/arm_conv_partial_q7.c ****   return (status);
 638              		.loc 1 700 10
 639 0336 97F94330 		ldrsb	r3, [r7, #67]
 701:./Libraries/CMSIS/DSP/Source/FilteringFunctions/arm_conv_partial_q7.c **** 
 702:./Libraries/CMSIS/DSP/Source/FilteringFunctions/arm_conv_partial_q7.c **** #else
 703:./Libraries/CMSIS/DSP/Source/FilteringFunctions/arm_conv_partial_q7.c **** /* alternate version for CM0_FAMILY */
 704:./Libraries/CMSIS/DSP/Source/FilteringFunctions/arm_conv_partial_q7.c **** 
 705:./Libraries/CMSIS/DSP/Source/FilteringFunctions/arm_conv_partial_q7.c ****   const q7_t *pIn1 = pSrcA;                            /* InputA pointer */
 706:./Libraries/CMSIS/DSP/Source/FilteringFunctions/arm_conv_partial_q7.c ****   const q7_t *pIn2 = pSrcB;                            /* InputB pointer */
 707:./Libraries/CMSIS/DSP/Source/FilteringFunctions/arm_conv_partial_q7.c ****         q31_t sum;                                     /* Accumulator */
 708:./Libraries/CMSIS/DSP/Source/FilteringFunctions/arm_conv_partial_q7.c ****         uint32_t i, j;                                 /* Loop counters */
 709:./Libraries/CMSIS/DSP/Source/FilteringFunctions/arm_conv_partial_q7.c ****         arm_status status;                             /* Status of Partial convolution */
 710:./Libraries/CMSIS/DSP/Source/FilteringFunctions/arm_conv_partial_q7.c **** 
 711:./Libraries/CMSIS/DSP/Source/FilteringFunctions/arm_conv_partial_q7.c ****   /* Check for range of output samples to be calculated */
 712:./Libraries/CMSIS/DSP/Source/FilteringFunctions/arm_conv_partial_q7.c ****   if ((firstIndex + numPoints) > ((srcALen + (srcBLen - 1U))))
 713:./Libraries/CMSIS/DSP/Source/FilteringFunctions/arm_conv_partial_q7.c ****   {
 714:./Libraries/CMSIS/DSP/Source/FilteringFunctions/arm_conv_partial_q7.c ****     /* Set status as ARM_MATH_ARGUMENT_ERROR */
 715:./Libraries/CMSIS/DSP/Source/FilteringFunctions/arm_conv_partial_q7.c ****     status = ARM_MATH_ARGUMENT_ERROR;
 716:./Libraries/CMSIS/DSP/Source/FilteringFunctions/arm_conv_partial_q7.c ****   }
 717:./Libraries/CMSIS/DSP/Source/FilteringFunctions/arm_conv_partial_q7.c ****   else
 718:./Libraries/CMSIS/DSP/Source/FilteringFunctions/arm_conv_partial_q7.c ****   {
 719:./Libraries/CMSIS/DSP/Source/FilteringFunctions/arm_conv_partial_q7.c ****     /* Loop to calculate convolution for output length number of values */
 720:./Libraries/CMSIS/DSP/Source/FilteringFunctions/arm_conv_partial_q7.c ****     for (i = firstIndex; i <= (firstIndex + numPoints - 1); i++)
 721:./Libraries/CMSIS/DSP/Source/FilteringFunctions/arm_conv_partial_q7.c ****     {
 722:./Libraries/CMSIS/DSP/Source/FilteringFunctions/arm_conv_partial_q7.c ****       /* Initialize sum with zero to carry on MAC operations */
ARM GAS  /tmp/ccOQzWs6.s 			page 25


 723:./Libraries/CMSIS/DSP/Source/FilteringFunctions/arm_conv_partial_q7.c ****       sum = 0;
 724:./Libraries/CMSIS/DSP/Source/FilteringFunctions/arm_conv_partial_q7.c **** 
 725:./Libraries/CMSIS/DSP/Source/FilteringFunctions/arm_conv_partial_q7.c ****       /* Loop to perform MAC operations according to convolution equation */
 726:./Libraries/CMSIS/DSP/Source/FilteringFunctions/arm_conv_partial_q7.c ****       for (j = 0U; j <= i; j++)
 727:./Libraries/CMSIS/DSP/Source/FilteringFunctions/arm_conv_partial_q7.c ****       {
 728:./Libraries/CMSIS/DSP/Source/FilteringFunctions/arm_conv_partial_q7.c ****         /* Check the array limitations */
 729:./Libraries/CMSIS/DSP/Source/FilteringFunctions/arm_conv_partial_q7.c ****         if (((i - j) < srcBLen) && (j < srcALen))
 730:./Libraries/CMSIS/DSP/Source/FilteringFunctions/arm_conv_partial_q7.c ****         {
 731:./Libraries/CMSIS/DSP/Source/FilteringFunctions/arm_conv_partial_q7.c ****           /* z[i] += x[i-j] * y[j] */
 732:./Libraries/CMSIS/DSP/Source/FilteringFunctions/arm_conv_partial_q7.c ****           sum += ((q15_t) pIn1[j] * (pIn2[i - j]));
 733:./Libraries/CMSIS/DSP/Source/FilteringFunctions/arm_conv_partial_q7.c ****         }
 734:./Libraries/CMSIS/DSP/Source/FilteringFunctions/arm_conv_partial_q7.c ****       }
 735:./Libraries/CMSIS/DSP/Source/FilteringFunctions/arm_conv_partial_q7.c **** 
 736:./Libraries/CMSIS/DSP/Source/FilteringFunctions/arm_conv_partial_q7.c ****       /* Store the output in the destination buffer */
 737:./Libraries/CMSIS/DSP/Source/FilteringFunctions/arm_conv_partial_q7.c ****       pDst[i] = (q7_t) __SSAT((sum >> 7U), 8U);
 738:./Libraries/CMSIS/DSP/Source/FilteringFunctions/arm_conv_partial_q7.c ****     }
 739:./Libraries/CMSIS/DSP/Source/FilteringFunctions/arm_conv_partial_q7.c **** 
 740:./Libraries/CMSIS/DSP/Source/FilteringFunctions/arm_conv_partial_q7.c ****     /* Set status as ARM_MATH_SUCCESS */
 741:./Libraries/CMSIS/DSP/Source/FilteringFunctions/arm_conv_partial_q7.c ****     status = ARM_MATH_SUCCESS;
 742:./Libraries/CMSIS/DSP/Source/FilteringFunctions/arm_conv_partial_q7.c ****   }
 743:./Libraries/CMSIS/DSP/Source/FilteringFunctions/arm_conv_partial_q7.c **** 
 744:./Libraries/CMSIS/DSP/Source/FilteringFunctions/arm_conv_partial_q7.c ****   /* Return to application */
 745:./Libraries/CMSIS/DSP/Source/FilteringFunctions/arm_conv_partial_q7.c ****   return (status);
 746:./Libraries/CMSIS/DSP/Source/FilteringFunctions/arm_conv_partial_q7.c **** 
 747:./Libraries/CMSIS/DSP/Source/FilteringFunctions/arm_conv_partial_q7.c **** #endif /* #if !defined(ARM_MATH_CM0_FAMILY) */
 748:./Libraries/CMSIS/DSP/Source/FilteringFunctions/arm_conv_partial_q7.c **** 
 749:./Libraries/CMSIS/DSP/Source/FilteringFunctions/arm_conv_partial_q7.c **** }
 640              		.loc 1 749 1
 641 033a 1846     		mov	r0, r3
 642 033c 7C37     		adds	r7, r7, #124
 643              	.LCFI3:
 644              		.cfi_def_cfa_offset 4
 645 033e BD46     		mov	sp, r7
 646              	.LCFI4:
 647              		.cfi_def_cfa_register 13
 648              		@ sp needed
 649 0340 5DF8047B 		ldr	r7, [sp], #4
 650              	.LCFI5:
 651              		.cfi_restore 7
 652              		.cfi_def_cfa_offset 0
 653 0344 7047     		bx	lr
 654              		.cfi_endproc
 655              	.LFE145:
 657              		.text
 658              	.Letext0:
 659              		.file 2 "/usr/lib/gcc/arm-none-eabi/9.2.1/include/stdint.h"
 660              		.file 3 "/usr/lib/gcc/arm-none-eabi/9.2.1/include/stddef.h"
 661              		.file 4 "/usr/include/newlib/sys/_types.h"
 662              		.file 5 "/usr/include/newlib/sys/reent.h"
 663              		.file 6 "/usr/include/newlib/sys/lock.h"
 664              		.file 7 "/usr/include/newlib/math.h"
 665              		.file 8 "./Libraries/CMSIS/DSP/Include/arm_math.h"
ARM GAS  /tmp/ccOQzWs6.s 			page 26


DEFINED SYMBOLS
                            *ABS*:0000000000000000 arm_conv_partial_q7.c
     /tmp/ccOQzWs6.s:17     .text.arm_conv_partial_q7:0000000000000000 $t
     /tmp/ccOQzWs6.s:25     .text.arm_conv_partial_q7:0000000000000000 arm_conv_partial_q7

NO UNDEFINED SYMBOLS
