ARM GAS  /tmp/ccD5e6h5.s 			page 1


   1              		.cpu cortex-m7
   2              		.eabi_attribute 28, 1
   3              		.eabi_attribute 20, 1
   4              		.eabi_attribute 21, 1
   5              		.eabi_attribute 23, 3
   6              		.eabi_attribute 24, 1
   7              		.eabi_attribute 25, 1
   8              		.eabi_attribute 26, 1
   9              		.eabi_attribute 30, 6
  10              		.eabi_attribute 34, 1
  11              		.eabi_attribute 18, 4
  12              		.file	"arm_cfft_radix2_q31.c"
  13              		.text
  14              	.Ltext0:
  15              		.cfi_sections	.debug_frame
  16              		.section	.text.arm_cfft_radix2_q31,"ax",%progbits
  17              		.align	1
  18              		.global	arm_cfft_radix2_q31
  19              		.arch armv7e-m
  20              		.syntax unified
  21              		.thumb
  22              		.thumb_func
  23              		.fpu fpv5-d16
  25              	arm_cfft_radix2_q31:
  26              	.LFB145:
  27              		.file 1 "./Libraries/CMSIS/DSP/Source/TransformFunctions/arm_cfft_radix2_q31.c"
   1:./Libraries/CMSIS/DSP/Source/TransformFunctions/arm_cfft_radix2_q31.c **** /* ----------------------------------------------------------------------
   2:./Libraries/CMSIS/DSP/Source/TransformFunctions/arm_cfft_radix2_q31.c ****  * Project:      CMSIS DSP Library
   3:./Libraries/CMSIS/DSP/Source/TransformFunctions/arm_cfft_radix2_q31.c ****  * Title:        arm_cfft_radix2_q31.c
   4:./Libraries/CMSIS/DSP/Source/TransformFunctions/arm_cfft_radix2_q31.c ****  * Description:  Radix-2 Decimation in Frequency CFFT & CIFFT Fixed point processing function
   5:./Libraries/CMSIS/DSP/Source/TransformFunctions/arm_cfft_radix2_q31.c ****  *
   6:./Libraries/CMSIS/DSP/Source/TransformFunctions/arm_cfft_radix2_q31.c ****  * $Date:        18. March 2019
   7:./Libraries/CMSIS/DSP/Source/TransformFunctions/arm_cfft_radix2_q31.c ****  * $Revision:    V1.6.0
   8:./Libraries/CMSIS/DSP/Source/TransformFunctions/arm_cfft_radix2_q31.c ****  *
   9:./Libraries/CMSIS/DSP/Source/TransformFunctions/arm_cfft_radix2_q31.c ****  * Target Processor: Cortex-M cores
  10:./Libraries/CMSIS/DSP/Source/TransformFunctions/arm_cfft_radix2_q31.c ****  * -------------------------------------------------------------------- */
  11:./Libraries/CMSIS/DSP/Source/TransformFunctions/arm_cfft_radix2_q31.c **** /*
  12:./Libraries/CMSIS/DSP/Source/TransformFunctions/arm_cfft_radix2_q31.c ****  * Copyright (C) 2010-2019 ARM Limited or its affiliates. All rights reserved.
  13:./Libraries/CMSIS/DSP/Source/TransformFunctions/arm_cfft_radix2_q31.c ****  *
  14:./Libraries/CMSIS/DSP/Source/TransformFunctions/arm_cfft_radix2_q31.c ****  * SPDX-License-Identifier: Apache-2.0
  15:./Libraries/CMSIS/DSP/Source/TransformFunctions/arm_cfft_radix2_q31.c ****  *
  16:./Libraries/CMSIS/DSP/Source/TransformFunctions/arm_cfft_radix2_q31.c ****  * Licensed under the Apache License, Version 2.0 (the License); you may
  17:./Libraries/CMSIS/DSP/Source/TransformFunctions/arm_cfft_radix2_q31.c ****  * not use this file except in compliance with the License.
  18:./Libraries/CMSIS/DSP/Source/TransformFunctions/arm_cfft_radix2_q31.c ****  * You may obtain a copy of the License at
  19:./Libraries/CMSIS/DSP/Source/TransformFunctions/arm_cfft_radix2_q31.c ****  *
  20:./Libraries/CMSIS/DSP/Source/TransformFunctions/arm_cfft_radix2_q31.c ****  * www.apache.org/licenses/LICENSE-2.0
  21:./Libraries/CMSIS/DSP/Source/TransformFunctions/arm_cfft_radix2_q31.c ****  *
  22:./Libraries/CMSIS/DSP/Source/TransformFunctions/arm_cfft_radix2_q31.c ****  * Unless required by applicable law or agreed to in writing, software
  23:./Libraries/CMSIS/DSP/Source/TransformFunctions/arm_cfft_radix2_q31.c ****  * distributed under the License is distributed on an AS IS BASIS, WITHOUT
  24:./Libraries/CMSIS/DSP/Source/TransformFunctions/arm_cfft_radix2_q31.c ****  * WARRANTIES OR CONDITIONS OF ANY KIND, either express or implied.
  25:./Libraries/CMSIS/DSP/Source/TransformFunctions/arm_cfft_radix2_q31.c ****  * See the License for the specific language governing permissions and
  26:./Libraries/CMSIS/DSP/Source/TransformFunctions/arm_cfft_radix2_q31.c ****  * limitations under the License.
  27:./Libraries/CMSIS/DSP/Source/TransformFunctions/arm_cfft_radix2_q31.c ****  */
  28:./Libraries/CMSIS/DSP/Source/TransformFunctions/arm_cfft_radix2_q31.c **** 
  29:./Libraries/CMSIS/DSP/Source/TransformFunctions/arm_cfft_radix2_q31.c **** #include "arm_math.h"
  30:./Libraries/CMSIS/DSP/Source/TransformFunctions/arm_cfft_radix2_q31.c **** 
  31:./Libraries/CMSIS/DSP/Source/TransformFunctions/arm_cfft_radix2_q31.c **** void arm_radix2_butterfly_q31(
ARM GAS  /tmp/ccD5e6h5.s 			page 2


  32:./Libraries/CMSIS/DSP/Source/TransformFunctions/arm_cfft_radix2_q31.c ****         q31_t * pSrc,
  33:./Libraries/CMSIS/DSP/Source/TransformFunctions/arm_cfft_radix2_q31.c ****         uint32_t fftLen,
  34:./Libraries/CMSIS/DSP/Source/TransformFunctions/arm_cfft_radix2_q31.c ****   const q31_t * pCoef,
  35:./Libraries/CMSIS/DSP/Source/TransformFunctions/arm_cfft_radix2_q31.c ****         uint16_t twidCoefModifier);
  36:./Libraries/CMSIS/DSP/Source/TransformFunctions/arm_cfft_radix2_q31.c **** 
  37:./Libraries/CMSIS/DSP/Source/TransformFunctions/arm_cfft_radix2_q31.c **** void arm_radix2_butterfly_inverse_q31(
  38:./Libraries/CMSIS/DSP/Source/TransformFunctions/arm_cfft_radix2_q31.c ****         q31_t * pSrc,
  39:./Libraries/CMSIS/DSP/Source/TransformFunctions/arm_cfft_radix2_q31.c ****         uint32_t fftLen,
  40:./Libraries/CMSIS/DSP/Source/TransformFunctions/arm_cfft_radix2_q31.c ****   const q31_t * pCoef,
  41:./Libraries/CMSIS/DSP/Source/TransformFunctions/arm_cfft_radix2_q31.c ****         uint16_t twidCoefModifier);
  42:./Libraries/CMSIS/DSP/Source/TransformFunctions/arm_cfft_radix2_q31.c **** 
  43:./Libraries/CMSIS/DSP/Source/TransformFunctions/arm_cfft_radix2_q31.c **** void arm_bitreversal_q31(
  44:./Libraries/CMSIS/DSP/Source/TransformFunctions/arm_cfft_radix2_q31.c ****         q31_t * pSrc,
  45:./Libraries/CMSIS/DSP/Source/TransformFunctions/arm_cfft_radix2_q31.c ****         uint32_t fftLen,
  46:./Libraries/CMSIS/DSP/Source/TransformFunctions/arm_cfft_radix2_q31.c ****         uint16_t bitRevFactor,
  47:./Libraries/CMSIS/DSP/Source/TransformFunctions/arm_cfft_radix2_q31.c ****   const uint16_t * pBitRevTab);
  48:./Libraries/CMSIS/DSP/Source/TransformFunctions/arm_cfft_radix2_q31.c **** 
  49:./Libraries/CMSIS/DSP/Source/TransformFunctions/arm_cfft_radix2_q31.c **** /**
  50:./Libraries/CMSIS/DSP/Source/TransformFunctions/arm_cfft_radix2_q31.c ****   @ingroup groupTransforms
  51:./Libraries/CMSIS/DSP/Source/TransformFunctions/arm_cfft_radix2_q31.c ****  */
  52:./Libraries/CMSIS/DSP/Source/TransformFunctions/arm_cfft_radix2_q31.c **** 
  53:./Libraries/CMSIS/DSP/Source/TransformFunctions/arm_cfft_radix2_q31.c **** /**
  54:./Libraries/CMSIS/DSP/Source/TransformFunctions/arm_cfft_radix2_q31.c ****   @addtogroup ComplexFFT
  55:./Libraries/CMSIS/DSP/Source/TransformFunctions/arm_cfft_radix2_q31.c ****   @{
  56:./Libraries/CMSIS/DSP/Source/TransformFunctions/arm_cfft_radix2_q31.c ****  */
  57:./Libraries/CMSIS/DSP/Source/TransformFunctions/arm_cfft_radix2_q31.c **** 
  58:./Libraries/CMSIS/DSP/Source/TransformFunctions/arm_cfft_radix2_q31.c **** /**
  59:./Libraries/CMSIS/DSP/Source/TransformFunctions/arm_cfft_radix2_q31.c ****   @brief         Processing function for the fixed-point CFFT/CIFFT.
  60:./Libraries/CMSIS/DSP/Source/TransformFunctions/arm_cfft_radix2_q31.c ****   @deprecated    Do not use this function. It has been superseded by \ref arm_cfft_q31 and will be 
  61:./Libraries/CMSIS/DSP/Source/TransformFunctions/arm_cfft_radix2_q31.c ****   @param[in]     S    points to an instance of the fixed-point CFFT/CIFFT structure
  62:./Libraries/CMSIS/DSP/Source/TransformFunctions/arm_cfft_radix2_q31.c ****   @param[in,out] pSrc points to the complex data buffer of size <code>2*fftLen</code>. Processing o
  63:./Libraries/CMSIS/DSP/Source/TransformFunctions/arm_cfft_radix2_q31.c ****   @return        none
  64:./Libraries/CMSIS/DSP/Source/TransformFunctions/arm_cfft_radix2_q31.c ****  */
  65:./Libraries/CMSIS/DSP/Source/TransformFunctions/arm_cfft_radix2_q31.c **** 
  66:./Libraries/CMSIS/DSP/Source/TransformFunctions/arm_cfft_radix2_q31.c **** void arm_cfft_radix2_q31(
  67:./Libraries/CMSIS/DSP/Source/TransformFunctions/arm_cfft_radix2_q31.c ****   const arm_cfft_radix2_instance_q31 * S,
  68:./Libraries/CMSIS/DSP/Source/TransformFunctions/arm_cfft_radix2_q31.c ****         q31_t * pSrc)
  69:./Libraries/CMSIS/DSP/Source/TransformFunctions/arm_cfft_radix2_q31.c **** {
  28              		.loc 1 69 1
  29              		.cfi_startproc
  30              		@ args = 0, pretend = 0, frame = 8
  31              		@ frame_needed = 1, uses_anonymous_args = 0
  32 0000 80B5     		push	{r7, lr}
  33              	.LCFI0:
  34              		.cfi_def_cfa_offset 8
  35              		.cfi_offset 7, -8
  36              		.cfi_offset 14, -4
  37 0002 82B0     		sub	sp, sp, #8
  38              	.LCFI1:
  39              		.cfi_def_cfa_offset 16
  40 0004 00AF     		add	r7, sp, #0
  41              	.LCFI2:
  42              		.cfi_def_cfa_register 7
  43 0006 7860     		str	r0, [r7, #4]
  44 0008 3960     		str	r1, [r7]
  70:./Libraries/CMSIS/DSP/Source/TransformFunctions/arm_cfft_radix2_q31.c **** 
  71:./Libraries/CMSIS/DSP/Source/TransformFunctions/arm_cfft_radix2_q31.c ****    if (S->ifftFlag == 1U)
ARM GAS  /tmp/ccD5e6h5.s 			page 3


  45              		.loc 1 71 9
  46 000a 7B68     		ldr	r3, [r7, #4]
  47 000c 9B78     		ldrb	r3, [r3, #2]	@ zero_extendqisi2
  48              		.loc 1 71 7
  49 000e 012B     		cmp	r3, #1
  50 0010 0AD1     		bne	.L2
  72:./Libraries/CMSIS/DSP/Source/TransformFunctions/arm_cfft_radix2_q31.c ****    {
  73:./Libraries/CMSIS/DSP/Source/TransformFunctions/arm_cfft_radix2_q31.c ****       arm_radix2_butterfly_inverse_q31(pSrc, S->fftLen,
  51              		.loc 1 73 47
  52 0012 7B68     		ldr	r3, [r7, #4]
  53 0014 1B88     		ldrh	r3, [r3]
  54              		.loc 1 73 7
  55 0016 1946     		mov	r1, r3
  56 0018 7B68     		ldr	r3, [r7, #4]
  57 001a 5A68     		ldr	r2, [r3, #4]
  58 001c 7B68     		ldr	r3, [r7, #4]
  59 001e 9B89     		ldrh	r3, [r3, #12]
  60 0020 3868     		ldr	r0, [r7]
  61 0022 FFF7FEFF 		bl	arm_radix2_butterfly_inverse_q31
  62 0026 09E0     		b	.L3
  63              	.L2:
  74:./Libraries/CMSIS/DSP/Source/TransformFunctions/arm_cfft_radix2_q31.c ****       S->pTwiddle, S->twidCoefModifier);
  75:./Libraries/CMSIS/DSP/Source/TransformFunctions/arm_cfft_radix2_q31.c ****    }
  76:./Libraries/CMSIS/DSP/Source/TransformFunctions/arm_cfft_radix2_q31.c ****    else
  77:./Libraries/CMSIS/DSP/Source/TransformFunctions/arm_cfft_radix2_q31.c ****    {
  78:./Libraries/CMSIS/DSP/Source/TransformFunctions/arm_cfft_radix2_q31.c ****       arm_radix2_butterfly_q31(pSrc, S->fftLen,
  64              		.loc 1 78 39
  65 0028 7B68     		ldr	r3, [r7, #4]
  66 002a 1B88     		ldrh	r3, [r3]
  67              		.loc 1 78 7
  68 002c 1946     		mov	r1, r3
  69 002e 7B68     		ldr	r3, [r7, #4]
  70 0030 5A68     		ldr	r2, [r3, #4]
  71 0032 7B68     		ldr	r3, [r7, #4]
  72 0034 9B89     		ldrh	r3, [r3, #12]
  73 0036 3868     		ldr	r0, [r7]
  74 0038 FFF7FEFF 		bl	arm_radix2_butterfly_q31
  75              	.L3:
  79:./Libraries/CMSIS/DSP/Source/TransformFunctions/arm_cfft_radix2_q31.c ****       S->pTwiddle, S->twidCoefModifier);
  80:./Libraries/CMSIS/DSP/Source/TransformFunctions/arm_cfft_radix2_q31.c ****    }
  81:./Libraries/CMSIS/DSP/Source/TransformFunctions/arm_cfft_radix2_q31.c **** 
  82:./Libraries/CMSIS/DSP/Source/TransformFunctions/arm_cfft_radix2_q31.c ****    arm_bitreversal_q31(pSrc, S->fftLen, S->bitRevFactor, S->pBitRevTable);
  76              		.loc 1 82 31
  77 003c 7B68     		ldr	r3, [r7, #4]
  78 003e 1B88     		ldrh	r3, [r3]
  79              		.loc 1 82 4
  80 0040 1946     		mov	r1, r3
  81 0042 7B68     		ldr	r3, [r7, #4]
  82 0044 DA89     		ldrh	r2, [r3, #14]
  83 0046 7B68     		ldr	r3, [r7, #4]
  84 0048 9B68     		ldr	r3, [r3, #8]
  85 004a 3868     		ldr	r0, [r7]
  86 004c FFF7FEFF 		bl	arm_bitreversal_q31
  83:./Libraries/CMSIS/DSP/Source/TransformFunctions/arm_cfft_radix2_q31.c **** }
  87              		.loc 1 83 1
  88 0050 00BF     		nop
  89 0052 0837     		adds	r7, r7, #8
ARM GAS  /tmp/ccD5e6h5.s 			page 4


  90              	.LCFI3:
  91              		.cfi_def_cfa_offset 8
  92 0054 BD46     		mov	sp, r7
  93              	.LCFI4:
  94              		.cfi_def_cfa_register 13
  95              		@ sp needed
  96 0056 80BD     		pop	{r7, pc}
  97              		.cfi_endproc
  98              	.LFE145:
 100              		.section	.text.arm_radix2_butterfly_q31,"ax",%progbits
 101              		.align	1
 102              		.global	arm_radix2_butterfly_q31
 103              		.syntax unified
 104              		.thumb
 105              		.thumb_func
 106              		.fpu fpv5-d16
 108              	arm_radix2_butterfly_q31:
 109              	.LFB146:
  84:./Libraries/CMSIS/DSP/Source/TransformFunctions/arm_cfft_radix2_q31.c **** 
  85:./Libraries/CMSIS/DSP/Source/TransformFunctions/arm_cfft_radix2_q31.c **** /**
  86:./Libraries/CMSIS/DSP/Source/TransformFunctions/arm_cfft_radix2_q31.c ****   @} end of ComplexFFT group
  87:./Libraries/CMSIS/DSP/Source/TransformFunctions/arm_cfft_radix2_q31.c ****  */
  88:./Libraries/CMSIS/DSP/Source/TransformFunctions/arm_cfft_radix2_q31.c **** 
  89:./Libraries/CMSIS/DSP/Source/TransformFunctions/arm_cfft_radix2_q31.c **** void arm_radix2_butterfly_q31(
  90:./Libraries/CMSIS/DSP/Source/TransformFunctions/arm_cfft_radix2_q31.c ****         q31_t * pSrc,
  91:./Libraries/CMSIS/DSP/Source/TransformFunctions/arm_cfft_radix2_q31.c ****         uint32_t fftLen,
  92:./Libraries/CMSIS/DSP/Source/TransformFunctions/arm_cfft_radix2_q31.c ****   const q31_t * pCoef,
  93:./Libraries/CMSIS/DSP/Source/TransformFunctions/arm_cfft_radix2_q31.c ****         uint16_t twidCoefModifier)
  94:./Libraries/CMSIS/DSP/Source/TransformFunctions/arm_cfft_radix2_q31.c **** {
 110              		.loc 1 94 1
 111              		.cfi_startproc
 112              		@ args = 0, pretend = 0, frame = 160
 113              		@ frame_needed = 1, uses_anonymous_args = 0
 114              		@ link register save eliminated.
 115 0000 2DE9B00F 		push	{r4, r5, r7, r8, r9, r10, fp}
 116              	.LCFI5:
 117              		.cfi_def_cfa_offset 28
 118              		.cfi_offset 4, -28
 119              		.cfi_offset 5, -24
 120              		.cfi_offset 7, -20
 121              		.cfi_offset 8, -16
 122              		.cfi_offset 9, -12
 123              		.cfi_offset 10, -8
 124              		.cfi_offset 11, -4
 125 0004 A9B0     		sub	sp, sp, #164
 126              	.LCFI6:
 127              		.cfi_def_cfa_offset 192
 128 0006 00AF     		add	r7, sp, #0
 129              	.LCFI7:
 130              		.cfi_def_cfa_register 7
 131 0008 7866     		str	r0, [r7, #100]
 132 000a 3966     		str	r1, [r7, #96]
 133 000c FA65     		str	r2, [r7, #92]
 134 000e A7F85A30 		strh	r3, [r7, #90]	@ movhi
  95:./Libraries/CMSIS/DSP/Source/TransformFunctions/arm_cfft_radix2_q31.c **** 
  96:./Libraries/CMSIS/DSP/Source/TransformFunctions/arm_cfft_radix2_q31.c ****    unsigned i, j, k, l, m;
  97:./Libraries/CMSIS/DSP/Source/TransformFunctions/arm_cfft_radix2_q31.c ****    unsigned n1, n2, ia;
ARM GAS  /tmp/ccD5e6h5.s 			page 5


  98:./Libraries/CMSIS/DSP/Source/TransformFunctions/arm_cfft_radix2_q31.c ****    q31_t xt, yt, cosVal, sinVal;
  99:./Libraries/CMSIS/DSP/Source/TransformFunctions/arm_cfft_radix2_q31.c ****    q31_t p0, p1;
 100:./Libraries/CMSIS/DSP/Source/TransformFunctions/arm_cfft_radix2_q31.c **** 
 101:./Libraries/CMSIS/DSP/Source/TransformFunctions/arm_cfft_radix2_q31.c ****    //N = fftLen;
 102:./Libraries/CMSIS/DSP/Source/TransformFunctions/arm_cfft_radix2_q31.c ****    n2 = fftLen;
 135              		.loc 1 102 7
 136 0012 3B6E     		ldr	r3, [r7, #96]
 137 0014 C7F88C30 		str	r3, [r7, #140]
 103:./Libraries/CMSIS/DSP/Source/TransformFunctions/arm_cfft_radix2_q31.c **** 
 104:./Libraries/CMSIS/DSP/Source/TransformFunctions/arm_cfft_radix2_q31.c ****    n1 = n2;
 138              		.loc 1 104 7
 139 0018 D7F88C30 		ldr	r3, [r7, #140]
 140 001c C7F88430 		str	r3, [r7, #132]
 105:./Libraries/CMSIS/DSP/Source/TransformFunctions/arm_cfft_radix2_q31.c ****    n2 = n2 >> 1;
 141              		.loc 1 105 7
 142 0020 D7F88C30 		ldr	r3, [r7, #140]
 143 0024 5B08     		lsrs	r3, r3, #1
 144 0026 C7F88C30 		str	r3, [r7, #140]
 106:./Libraries/CMSIS/DSP/Source/TransformFunctions/arm_cfft_radix2_q31.c ****    ia = 0;
 145              		.loc 1 106 7
 146 002a 0023     		movs	r3, #0
 147 002c C7F88830 		str	r3, [r7, #136]
 107:./Libraries/CMSIS/DSP/Source/TransformFunctions/arm_cfft_radix2_q31.c **** 
 108:./Libraries/CMSIS/DSP/Source/TransformFunctions/arm_cfft_radix2_q31.c ****    // loop for groups
 109:./Libraries/CMSIS/DSP/Source/TransformFunctions/arm_cfft_radix2_q31.c ****    for (i = 0; i < n2; i++)
 148              		.loc 1 109 11
 149 0030 0023     		movs	r3, #0
 150 0032 C7F89C30 		str	r3, [r7, #156]
 151              		.loc 1 109 4
 152 0036 2EE1     		b	.L5
 153              	.L6:
 110:./Libraries/CMSIS/DSP/Source/TransformFunctions/arm_cfft_radix2_q31.c ****    {
 111:./Libraries/CMSIS/DSP/Source/TransformFunctions/arm_cfft_radix2_q31.c ****       cosVal = pCoef[ia * 2];
 154              		.loc 1 111 21 discriminator 3
 155 0038 D7F88830 		ldr	r3, [r7, #136]
 156 003c DA00     		lsls	r2, r3, #3
 157 003e FB6D     		ldr	r3, [r7, #92]
 158 0040 1344     		add	r3, r3, r2
 159              		.loc 1 111 14 discriminator 3
 160 0042 1B68     		ldr	r3, [r3]
 161 0044 C7F88030 		str	r3, [r7, #128]
 112:./Libraries/CMSIS/DSP/Source/TransformFunctions/arm_cfft_radix2_q31.c ****       sinVal = pCoef[(ia * 2) + 1];
 162              		.loc 1 112 21 discriminator 3
 163 0048 D7F88830 		ldr	r3, [r7, #136]
 164 004c DB00     		lsls	r3, r3, #3
 165 004e 1A1D     		adds	r2, r3, #4
 166 0050 FB6D     		ldr	r3, [r7, #92]
 167 0052 1344     		add	r3, r3, r2
 168              		.loc 1 112 14 discriminator 3
 169 0054 1B68     		ldr	r3, [r3]
 170 0056 FB67     		str	r3, [r7, #124]
 113:./Libraries/CMSIS/DSP/Source/TransformFunctions/arm_cfft_radix2_q31.c ****       ia = ia + twidCoefModifier;
 171              		.loc 1 113 15 discriminator 3
 172 0058 B7F85A20 		ldrh	r2, [r7, #90]
 173              		.loc 1 113 10 discriminator 3
 174 005c D7F88830 		ldr	r3, [r7, #136]
 175 0060 1344     		add	r3, r3, r2
ARM GAS  /tmp/ccD5e6h5.s 			page 6


 176 0062 C7F88830 		str	r3, [r7, #136]
 114:./Libraries/CMSIS/DSP/Source/TransformFunctions/arm_cfft_radix2_q31.c **** 
 115:./Libraries/CMSIS/DSP/Source/TransformFunctions/arm_cfft_radix2_q31.c ****       l = i + n2;
 177              		.loc 1 115 9 discriminator 3
 178 0066 D7F89C20 		ldr	r2, [r7, #156]
 179 006a D7F88C30 		ldr	r3, [r7, #140]
 180 006e 1344     		add	r3, r3, r2
 181 0070 BB67     		str	r3, [r7, #120]
 116:./Libraries/CMSIS/DSP/Source/TransformFunctions/arm_cfft_radix2_q31.c ****       xt = (pSrc[2 * i] >> 1U) - (pSrc[2 * l] >> 1U);
 182              		.loc 1 116 17 discriminator 3
 183 0072 D7F89C30 		ldr	r3, [r7, #156]
 184 0076 DA00     		lsls	r2, r3, #3
 185 0078 7B6E     		ldr	r3, [r7, #100]
 186 007a 1344     		add	r3, r3, r2
 187 007c 1B68     		ldr	r3, [r3]
 188              		.loc 1 116 25 discriminator 3
 189 007e 5910     		asrs	r1, r3, #1
 190              		.loc 1 116 39 discriminator 3
 191 0080 BB6F     		ldr	r3, [r7, #120]
 192 0082 DA00     		lsls	r2, r3, #3
 193 0084 7B6E     		ldr	r3, [r7, #100]
 194 0086 1344     		add	r3, r3, r2
 195 0088 1B68     		ldr	r3, [r3]
 196              		.loc 1 116 47 discriminator 3
 197 008a 5B10     		asrs	r3, r3, #1
 198              		.loc 1 116 10 discriminator 3
 199 008c CB1A     		subs	r3, r1, r3
 200 008e 7B67     		str	r3, [r7, #116]
 117:./Libraries/CMSIS/DSP/Source/TransformFunctions/arm_cfft_radix2_q31.c ****       pSrc[2 * i] = ((pSrc[2 * i] >> 1U) + (pSrc[2 * l] >> 1U)) >> 1U;
 201              		.loc 1 117 27 discriminator 3
 202 0090 D7F89C30 		ldr	r3, [r7, #156]
 203 0094 DA00     		lsls	r2, r3, #3
 204 0096 7B6E     		ldr	r3, [r7, #100]
 205 0098 1344     		add	r3, r3, r2
 206 009a 1B68     		ldr	r3, [r3]
 207              		.loc 1 117 35 discriminator 3
 208 009c 5910     		asrs	r1, r3, #1
 209              		.loc 1 117 49 discriminator 3
 210 009e BB6F     		ldr	r3, [r7, #120]
 211 00a0 DA00     		lsls	r2, r3, #3
 212 00a2 7B6E     		ldr	r3, [r7, #100]
 213 00a4 1344     		add	r3, r3, r2
 214 00a6 1B68     		ldr	r3, [r3]
 215              		.loc 1 117 57 discriminator 3
 216 00a8 5B10     		asrs	r3, r3, #1
 217              		.loc 1 117 42 discriminator 3
 218 00aa 1944     		add	r1, r1, r3
 219              		.loc 1 117 11 discriminator 3
 220 00ac D7F89C30 		ldr	r3, [r7, #156]
 221 00b0 DA00     		lsls	r2, r3, #3
 222 00b2 7B6E     		ldr	r3, [r7, #100]
 223 00b4 1A44     		add	r2, r2, r3
 224              		.loc 1 117 65 discriminator 3
 225 00b6 4B10     		asrs	r3, r1, #1
 226              		.loc 1 117 19 discriminator 3
 227 00b8 1360     		str	r3, [r2]
 118:./Libraries/CMSIS/DSP/Source/TransformFunctions/arm_cfft_radix2_q31.c **** 
ARM GAS  /tmp/ccD5e6h5.s 			page 7


 119:./Libraries/CMSIS/DSP/Source/TransformFunctions/arm_cfft_radix2_q31.c ****       yt = (pSrc[2 * i + 1] >> 1U) - (pSrc[2 * l + 1] >> 1U);
 228              		.loc 1 119 17 discriminator 3
 229 00ba D7F89C30 		ldr	r3, [r7, #156]
 230 00be DB00     		lsls	r3, r3, #3
 231 00c0 1A1D     		adds	r2, r3, #4
 232 00c2 7B6E     		ldr	r3, [r7, #100]
 233 00c4 1344     		add	r3, r3, r2
 234 00c6 1B68     		ldr	r3, [r3]
 235              		.loc 1 119 29 discriminator 3
 236 00c8 5910     		asrs	r1, r3, #1
 237              		.loc 1 119 43 discriminator 3
 238 00ca BB6F     		ldr	r3, [r7, #120]
 239 00cc DB00     		lsls	r3, r3, #3
 240 00ce 1A1D     		adds	r2, r3, #4
 241 00d0 7B6E     		ldr	r3, [r7, #100]
 242 00d2 1344     		add	r3, r3, r2
 243 00d4 1B68     		ldr	r3, [r3]
 244              		.loc 1 119 55 discriminator 3
 245 00d6 5B10     		asrs	r3, r3, #1
 246              		.loc 1 119 10 discriminator 3
 247 00d8 CB1A     		subs	r3, r1, r3
 248 00da 3B67     		str	r3, [r7, #112]
 120:./Libraries/CMSIS/DSP/Source/TransformFunctions/arm_cfft_radix2_q31.c ****       pSrc[2 * i + 1] =
 121:./Libraries/CMSIS/DSP/Source/TransformFunctions/arm_cfft_radix2_q31.c ****         ((pSrc[2 * l + 1] >> 1U) + (pSrc[2 * i + 1] >> 1U)) >> 1U;
 249              		.loc 1 121 15 discriminator 3
 250 00dc BB6F     		ldr	r3, [r7, #120]
 251 00de DB00     		lsls	r3, r3, #3
 252 00e0 1A1D     		adds	r2, r3, #4
 253 00e2 7B6E     		ldr	r3, [r7, #100]
 254 00e4 1344     		add	r3, r3, r2
 255 00e6 1B68     		ldr	r3, [r3]
 256              		.loc 1 121 27 discriminator 3
 257 00e8 5910     		asrs	r1, r3, #1
 258              		.loc 1 121 41 discriminator 3
 259 00ea D7F89C30 		ldr	r3, [r7, #156]
 260 00ee DB00     		lsls	r3, r3, #3
 261 00f0 1A1D     		adds	r2, r3, #4
 262 00f2 7B6E     		ldr	r3, [r7, #100]
 263 00f4 1344     		add	r3, r3, r2
 264 00f6 1B68     		ldr	r3, [r3]
 265              		.loc 1 121 53 discriminator 3
 266 00f8 5B10     		asrs	r3, r3, #1
 267              		.loc 1 121 34 discriminator 3
 268 00fa 1944     		add	r1, r1, r3
 120:./Libraries/CMSIS/DSP/Source/TransformFunctions/arm_cfft_radix2_q31.c ****       pSrc[2 * i + 1] =
 269              		.loc 1 120 11 discriminator 3
 270 00fc D7F89C30 		ldr	r3, [r7, #156]
 271 0100 DB00     		lsls	r3, r3, #3
 272 0102 1A1D     		adds	r2, r3, #4
 273 0104 7B6E     		ldr	r3, [r7, #100]
 274 0106 1A44     		add	r2, r2, r3
 275              		.loc 1 121 61 discriminator 3
 276 0108 4B10     		asrs	r3, r1, #1
 120:./Libraries/CMSIS/DSP/Source/TransformFunctions/arm_cfft_radix2_q31.c ****       pSrc[2 * i + 1] =
 277              		.loc 1 120 23 discriminator 3
 278 010a 1360     		str	r3, [r2]
 122:./Libraries/CMSIS/DSP/Source/TransformFunctions/arm_cfft_radix2_q31.c **** 
ARM GAS  /tmp/ccD5e6h5.s 			page 8


 123:./Libraries/CMSIS/DSP/Source/TransformFunctions/arm_cfft_radix2_q31.c ****       mult_32x32_keep32_R(p0, xt, cosVal);
 279              		.loc 1 123 7 discriminator 3
 280 010c 7B6F     		ldr	r3, [r7, #116]
 281 010e 1846     		mov	r0, r3
 282 0110 4FEAE071 		asr	r1, r0, #31
 283 0114 D7F88030 		ldr	r3, [r7, #128]
 284 0118 1A46     		mov	r2, r3
 285 011a 4FEAE273 		asr	r3, r2, #31
 286 011e 02FB01F5 		mul	r5, r2, r1
 287 0122 00FB03F4 		mul	r4, r0, r3
 288 0126 2C44     		add	r4, r4, r5
 289 0128 A0FB0223 		umull	r2, r3, r0, r2
 290 012c E118     		adds	r1, r4, r3
 291 012e 0B46     		mov	r3, r1
 292 0130 12F10041 		adds	r1, r2, #-2147483648
 293 0134 3965     		str	r1, [r7, #80]
 294 0136 43F10003 		adc	r3, r3, #0
 295 013a 7B65     		str	r3, [r7, #84]
 296 013c 4FF00002 		mov	r2, #0
 297 0140 4FF00003 		mov	r3, #0
 298 0144 D7E91445 		ldrd	r4, [r7, #80]
 299 0148 2946     		mov	r1, r5
 300 014a 0A00     		movs	r2, r1
 301 014c 2946     		mov	r1, r5
 302 014e CB17     		asrs	r3, r1, #31
 303 0150 1346     		mov	r3, r2
 304 0152 FB66     		str	r3, [r7, #108]
 124:./Libraries/CMSIS/DSP/Source/TransformFunctions/arm_cfft_radix2_q31.c ****       mult_32x32_keep32_R(p1, yt, cosVal);
 305              		.loc 1 124 7 discriminator 3
 306 0154 3B6F     		ldr	r3, [r7, #112]
 307 0156 1846     		mov	r0, r3
 308 0158 4FEAE071 		asr	r1, r0, #31
 309 015c D7F88030 		ldr	r3, [r7, #128]
 310 0160 1A46     		mov	r2, r3
 311 0162 4FEAE273 		asr	r3, r2, #31
 312 0166 02FB01F5 		mul	r5, r2, r1
 313 016a 00FB03F4 		mul	r4, r0, r3
 314 016e 2C44     		add	r4, r4, r5
 315 0170 A0FB0223 		umull	r2, r3, r0, r2
 316 0174 E118     		adds	r1, r4, r3
 317 0176 0B46     		mov	r3, r1
 318 0178 12F10041 		adds	r1, r2, #-2147483648
 319 017c B964     		str	r1, [r7, #72]
 320 017e 43F10003 		adc	r3, r3, #0
 321 0182 FB64     		str	r3, [r7, #76]
 322 0184 4FF00002 		mov	r2, #0
 323 0188 4FF00003 		mov	r3, #0
 324 018c D7E91245 		ldrd	r4, [r7, #72]
 325 0190 2946     		mov	r1, r5
 326 0192 0A00     		movs	r2, r1
 327 0194 2946     		mov	r1, r5
 328 0196 CB17     		asrs	r3, r1, #31
 329 0198 1346     		mov	r3, r2
 330 019a BB66     		str	r3, [r7, #104]
 125:./Libraries/CMSIS/DSP/Source/TransformFunctions/arm_cfft_radix2_q31.c ****       multAcc_32x32_keep32_R(p0, yt, sinVal);
 331              		.loc 1 125 7 discriminator 3
 332 019c FB6E     		ldr	r3, [r7, #108]
ARM GAS  /tmp/ccD5e6h5.s 			page 9


 333 019e 1A46     		mov	r2, r3
 334 01a0 4FEAE273 		asr	r3, r2, #31
 335 01a4 4FF00008 		mov	r8, #0
 336 01a8 4FF00009 		mov	r9, #0
 337 01ac 9146     		mov	r9, r2
 338 01ae 4FF00008 		mov	r8, #0
 339 01b2 3B6F     		ldr	r3, [r7, #112]
 340 01b4 1846     		mov	r0, r3
 341 01b6 4FEAE071 		asr	r1, r0, #31
 342 01ba FB6F     		ldr	r3, [r7, #124]
 343 01bc 1A46     		mov	r2, r3
 344 01be 4FEAE273 		asr	r3, r2, #31
 345 01c2 02FB01F5 		mul	r5, r2, r1
 346 01c6 00FB03F4 		mul	r4, r0, r3
 347 01ca 2C44     		add	r4, r4, r5
 348 01cc A0FB0223 		umull	r2, r3, r0, r2
 349 01d0 E118     		adds	r1, r4, r3
 350 01d2 0B46     		mov	r3, r1
 351 01d4 18EB0201 		adds	r1, r8, r2
 352 01d8 3964     		str	r1, [r7, #64]
 353 01da 49EB0303 		adc	r3, r9, r3
 354 01de 7B64     		str	r3, [r7, #68]
 355 01e0 D7E91012 		ldrd	r1, [r7, #64]
 356 01e4 0B46     		mov	r3, r1
 357 01e6 13F10043 		adds	r3, r3, #-2147483648
 358 01ea BB63     		str	r3, [r7, #56]
 359 01ec 1346     		mov	r3, r2
 360 01ee 43F10003 		adc	r3, r3, #0
 361 01f2 FB63     		str	r3, [r7, #60]
 362 01f4 4FF00002 		mov	r2, #0
 363 01f8 4FF00003 		mov	r3, #0
 364 01fc D7E90E45 		ldrd	r4, [r7, #56]
 365 0200 2946     		mov	r1, r5
 366 0202 0A00     		movs	r2, r1
 367 0204 2946     		mov	r1, r5
 368 0206 CB17     		asrs	r3, r1, #31
 369 0208 1346     		mov	r3, r2
 370 020a FB66     		str	r3, [r7, #108]
 126:./Libraries/CMSIS/DSP/Source/TransformFunctions/arm_cfft_radix2_q31.c ****       multSub_32x32_keep32_R(p1, xt, sinVal);
 371              		.loc 1 126 7 discriminator 3
 372 020c BB6E     		ldr	r3, [r7, #104]
 373 020e 1A46     		mov	r2, r3
 374 0210 4FEAE273 		asr	r3, r2, #31
 375 0214 4FF00008 		mov	r8, #0
 376 0218 4FF00009 		mov	r9, #0
 377 021c 9146     		mov	r9, r2
 378 021e 4FF00008 		mov	r8, #0
 379 0222 7B6F     		ldr	r3, [r7, #116]
 380 0224 1846     		mov	r0, r3
 381 0226 4FEAE071 		asr	r1, r0, #31
 382 022a FB6F     		ldr	r3, [r7, #124]
 383 022c 1A46     		mov	r2, r3
 384 022e 4FEAE273 		asr	r3, r2, #31
 385 0232 02FB01F5 		mul	r5, r2, r1
 386 0236 00FB03F4 		mul	r4, r0, r3
 387 023a 2C44     		add	r4, r4, r5
 388 023c A0FB0223 		umull	r2, r3, r0, r2
ARM GAS  /tmp/ccD5e6h5.s 			page 10


 389 0240 E118     		adds	r1, r4, r3
 390 0242 0B46     		mov	r3, r1
 391 0244 B8EB0201 		subs	r1, r8, r2
 392 0248 3963     		str	r1, [r7, #48]
 393 024a 69EB0303 		sbc	r3, r9, r3
 394 024e 7B63     		str	r3, [r7, #52]
 395 0250 D7E90C12 		ldrd	r1, [r7, #48]
 396 0254 0B46     		mov	r3, r1
 397 0256 13F1004A 		adds	r10, r3, #-2147483648
 398 025a 1346     		mov	r3, r2
 399 025c 43F1000B 		adc	fp, r3, #0
 400 0260 4FF00002 		mov	r2, #0
 401 0264 4FF00003 		mov	r3, #0
 402 0268 5A46     		mov	r2, fp
 403 026a 4FEAEB73 		asr	r3, fp, #31
 404 026e 1346     		mov	r3, r2
 405 0270 BB66     		str	r3, [r7, #104]
 127:./Libraries/CMSIS/DSP/Source/TransformFunctions/arm_cfft_radix2_q31.c **** 
 128:./Libraries/CMSIS/DSP/Source/TransformFunctions/arm_cfft_radix2_q31.c ****       pSrc[2U * l] = p0;
 406              		.loc 1 128 11 discriminator 3
 407 0272 BB6F     		ldr	r3, [r7, #120]
 408 0274 DA00     		lsls	r2, r3, #3
 409 0276 7B6E     		ldr	r3, [r7, #100]
 410 0278 1A44     		add	r2, r2, r3
 411              		.loc 1 128 20 discriminator 3
 412 027a FB6E     		ldr	r3, [r7, #108]
 413 027c 1360     		str	r3, [r2]
 129:./Libraries/CMSIS/DSP/Source/TransformFunctions/arm_cfft_radix2_q31.c ****       pSrc[2U * l + 1U] = p1;
 414              		.loc 1 129 11 discriminator 3
 415 027e BB6F     		ldr	r3, [r7, #120]
 416 0280 DB00     		lsls	r3, r3, #3
 417 0282 1A1D     		adds	r2, r3, #4
 418 0284 7B6E     		ldr	r3, [r7, #100]
 419 0286 1A44     		add	r2, r2, r3
 420              		.loc 1 129 25 discriminator 3
 421 0288 BB6E     		ldr	r3, [r7, #104]
 422 028a 1360     		str	r3, [r2]
 109:./Libraries/CMSIS/DSP/Source/TransformFunctions/arm_cfft_radix2_q31.c ****    {
 423              		.loc 1 109 25 discriminator 3
 424 028c D7F89C30 		ldr	r3, [r7, #156]
 425 0290 0133     		adds	r3, r3, #1
 426 0292 C7F89C30 		str	r3, [r7, #156]
 427              	.L5:
 109:./Libraries/CMSIS/DSP/Source/TransformFunctions/arm_cfft_radix2_q31.c ****    {
 428              		.loc 1 109 4 discriminator 1
 429 0296 D7F89C20 		ldr	r2, [r7, #156]
 430 029a D7F88C30 		ldr	r3, [r7, #140]
 431 029e 9A42     		cmp	r2, r3
 432 02a0 FFF4CAAE 		bcc	.L6
 130:./Libraries/CMSIS/DSP/Source/TransformFunctions/arm_cfft_radix2_q31.c **** 
 131:./Libraries/CMSIS/DSP/Source/TransformFunctions/arm_cfft_radix2_q31.c ****    }                             // groups loop end
 132:./Libraries/CMSIS/DSP/Source/TransformFunctions/arm_cfft_radix2_q31.c **** 
 133:./Libraries/CMSIS/DSP/Source/TransformFunctions/arm_cfft_radix2_q31.c ****    twidCoefModifier <<= 1U;
 433              		.loc 1 133 21
 434 02a4 B7F85A30 		ldrh	r3, [r7, #90]	@ movhi
 435 02a8 5B00     		lsls	r3, r3, #1
 436 02aa A7F85A30 		strh	r3, [r7, #90]	@ movhi
ARM GAS  /tmp/ccD5e6h5.s 			page 11


 134:./Libraries/CMSIS/DSP/Source/TransformFunctions/arm_cfft_radix2_q31.c **** 
 135:./Libraries/CMSIS/DSP/Source/TransformFunctions/arm_cfft_radix2_q31.c ****    // loop for stage
 136:./Libraries/CMSIS/DSP/Source/TransformFunctions/arm_cfft_radix2_q31.c ****    for (k = fftLen / 2; k > 2; k = k >> 1)
 437              		.loc 1 136 11
 438 02ae 3B6E     		ldr	r3, [r7, #96]
 439 02b0 5B08     		lsrs	r3, r3, #1
 440 02b2 C7F89430 		str	r3, [r7, #148]
 441              		.loc 1 136 4
 442 02b6 68E1     		b	.L7
 443              	.L11:
 137:./Libraries/CMSIS/DSP/Source/TransformFunctions/arm_cfft_radix2_q31.c ****    {
 138:./Libraries/CMSIS/DSP/Source/TransformFunctions/arm_cfft_radix2_q31.c ****       n1 = n2;
 444              		.loc 1 138 10
 445 02b8 D7F88C30 		ldr	r3, [r7, #140]
 446 02bc C7F88430 		str	r3, [r7, #132]
 139:./Libraries/CMSIS/DSP/Source/TransformFunctions/arm_cfft_radix2_q31.c ****       n2 = n2 >> 1;
 447              		.loc 1 139 10
 448 02c0 D7F88C30 		ldr	r3, [r7, #140]
 449 02c4 5B08     		lsrs	r3, r3, #1
 450 02c6 C7F88C30 		str	r3, [r7, #140]
 140:./Libraries/CMSIS/DSP/Source/TransformFunctions/arm_cfft_radix2_q31.c ****       ia = 0;
 451              		.loc 1 140 10
 452 02ca 0023     		movs	r3, #0
 453 02cc C7F88830 		str	r3, [r7, #136]
 141:./Libraries/CMSIS/DSP/Source/TransformFunctions/arm_cfft_radix2_q31.c **** 
 142:./Libraries/CMSIS/DSP/Source/TransformFunctions/arm_cfft_radix2_q31.c ****       // loop for groups
 143:./Libraries/CMSIS/DSP/Source/TransformFunctions/arm_cfft_radix2_q31.c ****       for (j = 0; j < n2; j++)
 454              		.loc 1 143 14
 455 02d0 0023     		movs	r3, #0
 456 02d2 C7F89830 		str	r3, [r7, #152]
 457              		.loc 1 143 7
 458 02d6 47E1     		b	.L8
 459              	.L10:
 144:./Libraries/CMSIS/DSP/Source/TransformFunctions/arm_cfft_radix2_q31.c ****       {
 145:./Libraries/CMSIS/DSP/Source/TransformFunctions/arm_cfft_radix2_q31.c ****          cosVal = pCoef[ia * 2];
 460              		.loc 1 145 24
 461 02d8 D7F88830 		ldr	r3, [r7, #136]
 462 02dc DB00     		lsls	r3, r3, #3
 463 02de FA6D     		ldr	r2, [r7, #92]
 464 02e0 1344     		add	r3, r3, r2
 465              		.loc 1 145 17
 466 02e2 1B68     		ldr	r3, [r3]
 467 02e4 C7F88030 		str	r3, [r7, #128]
 146:./Libraries/CMSIS/DSP/Source/TransformFunctions/arm_cfft_radix2_q31.c ****          sinVal = pCoef[(ia * 2) + 1];
 468              		.loc 1 146 24
 469 02e8 D7F88830 		ldr	r3, [r7, #136]
 470 02ec DB00     		lsls	r3, r3, #3
 471 02ee 0433     		adds	r3, r3, #4
 472 02f0 FA6D     		ldr	r2, [r7, #92]
 473 02f2 1344     		add	r3, r3, r2
 474              		.loc 1 146 17
 475 02f4 1B68     		ldr	r3, [r3]
 476 02f6 FB67     		str	r3, [r7, #124]
 147:./Libraries/CMSIS/DSP/Source/TransformFunctions/arm_cfft_radix2_q31.c ****          ia = ia + twidCoefModifier;
 477              		.loc 1 147 18
 478 02f8 B7F85A30 		ldrh	r3, [r7, #90]
 479              		.loc 1 147 13
ARM GAS  /tmp/ccD5e6h5.s 			page 12


 480 02fc D7F88820 		ldr	r2, [r7, #136]
 481 0300 1344     		add	r3, r3, r2
 482 0302 C7F88830 		str	r3, [r7, #136]
 148:./Libraries/CMSIS/DSP/Source/TransformFunctions/arm_cfft_radix2_q31.c **** 
 149:./Libraries/CMSIS/DSP/Source/TransformFunctions/arm_cfft_radix2_q31.c ****          // loop for butterfly
 150:./Libraries/CMSIS/DSP/Source/TransformFunctions/arm_cfft_radix2_q31.c ****          i = j;
 483              		.loc 1 150 12
 484 0306 D7F89830 		ldr	r3, [r7, #152]
 485 030a C7F89C30 		str	r3, [r7, #156]
 151:./Libraries/CMSIS/DSP/Source/TransformFunctions/arm_cfft_radix2_q31.c ****          m = fftLen / n1;
 486              		.loc 1 151 12
 487 030e 3A6E     		ldr	r2, [r7, #96]
 488 0310 D7F88430 		ldr	r3, [r7, #132]
 489 0314 B2FBF3F3 		udiv	r3, r2, r3
 490 0318 C7F89030 		str	r3, [r7, #144]
 491              	.L9:
 152:./Libraries/CMSIS/DSP/Source/TransformFunctions/arm_cfft_radix2_q31.c ****          do
 153:./Libraries/CMSIS/DSP/Source/TransformFunctions/arm_cfft_radix2_q31.c ****          {
 154:./Libraries/CMSIS/DSP/Source/TransformFunctions/arm_cfft_radix2_q31.c ****             l = i + n2;
 492              		.loc 1 154 15 discriminator 1
 493 031c D7F89C20 		ldr	r2, [r7, #156]
 494 0320 D7F88C30 		ldr	r3, [r7, #140]
 495 0324 1344     		add	r3, r3, r2
 496 0326 BB67     		str	r3, [r7, #120]
 155:./Libraries/CMSIS/DSP/Source/TransformFunctions/arm_cfft_radix2_q31.c ****             xt = pSrc[2 * i] - pSrc[2 * l];
 497              		.loc 1 155 22 discriminator 1
 498 0328 D7F89C30 		ldr	r3, [r7, #156]
 499 032c DB00     		lsls	r3, r3, #3
 500 032e 7A6E     		ldr	r2, [r7, #100]
 501 0330 1344     		add	r3, r3, r2
 502 0332 1968     		ldr	r1, [r3]
 503              		.loc 1 155 36 discriminator 1
 504 0334 BB6F     		ldr	r3, [r7, #120]
 505 0336 DA00     		lsls	r2, r3, #3
 506 0338 7B6E     		ldr	r3, [r7, #100]
 507 033a 1344     		add	r3, r3, r2
 508 033c 1B68     		ldr	r3, [r3]
 509              		.loc 1 155 16 discriminator 1
 510 033e CB1A     		subs	r3, r1, r3
 511 0340 7B67     		str	r3, [r7, #116]
 156:./Libraries/CMSIS/DSP/Source/TransformFunctions/arm_cfft_radix2_q31.c ****             pSrc[2 * i] = (pSrc[2 * i] + pSrc[2 * l]) >> 1U;
 512              		.loc 1 156 32 discriminator 1
 513 0342 D7F89C30 		ldr	r3, [r7, #156]
 514 0346 DB00     		lsls	r3, r3, #3
 515 0348 7A6E     		ldr	r2, [r7, #100]
 516 034a 1344     		add	r3, r3, r2
 517 034c 1968     		ldr	r1, [r3]
 518              		.loc 1 156 46 discriminator 1
 519 034e BB6F     		ldr	r3, [r7, #120]
 520 0350 DA00     		lsls	r2, r3, #3
 521 0352 7B6E     		ldr	r3, [r7, #100]
 522 0354 1344     		add	r3, r3, r2
 523 0356 1B68     		ldr	r3, [r3]
 524              		.loc 1 156 40 discriminator 1
 525 0358 1944     		add	r1, r1, r3
 526              		.loc 1 156 17 discriminator 1
 527 035a D7F89C30 		ldr	r3, [r7, #156]
ARM GAS  /tmp/ccD5e6h5.s 			page 13


 528 035e DA00     		lsls	r2, r3, #3
 529 0360 7B6E     		ldr	r3, [r7, #100]
 530 0362 1A44     		add	r2, r2, r3
 531              		.loc 1 156 55 discriminator 1
 532 0364 4B10     		asrs	r3, r1, #1
 533              		.loc 1 156 25 discriminator 1
 534 0366 1360     		str	r3, [r2]
 157:./Libraries/CMSIS/DSP/Source/TransformFunctions/arm_cfft_radix2_q31.c **** 
 158:./Libraries/CMSIS/DSP/Source/TransformFunctions/arm_cfft_radix2_q31.c ****             yt = pSrc[2 * i + 1] - pSrc[2 * l + 1];
 535              		.loc 1 158 22 discriminator 1
 536 0368 D7F89C30 		ldr	r3, [r7, #156]
 537 036c DB00     		lsls	r3, r3, #3
 538 036e 0433     		adds	r3, r3, #4
 539 0370 7A6E     		ldr	r2, [r7, #100]
 540 0372 1344     		add	r3, r3, r2
 541 0374 1968     		ldr	r1, [r3]
 542              		.loc 1 158 40 discriminator 1
 543 0376 BB6F     		ldr	r3, [r7, #120]
 544 0378 DB00     		lsls	r3, r3, #3
 545 037a 1A1D     		adds	r2, r3, #4
 546 037c 7B6E     		ldr	r3, [r7, #100]
 547 037e 1344     		add	r3, r3, r2
 548 0380 1B68     		ldr	r3, [r3]
 549              		.loc 1 158 16 discriminator 1
 550 0382 CB1A     		subs	r3, r1, r3
 551 0384 3B67     		str	r3, [r7, #112]
 159:./Libraries/CMSIS/DSP/Source/TransformFunctions/arm_cfft_radix2_q31.c ****             pSrc[2 * i + 1] = (pSrc[2 * l + 1] + pSrc[2 * i + 1]) >> 1U;
 552              		.loc 1 159 36 discriminator 1
 553 0386 BB6F     		ldr	r3, [r7, #120]
 554 0388 DB00     		lsls	r3, r3, #3
 555 038a 0433     		adds	r3, r3, #4
 556 038c 7A6E     		ldr	r2, [r7, #100]
 557 038e 1344     		add	r3, r3, r2
 558 0390 1968     		ldr	r1, [r3]
 559              		.loc 1 159 54 discriminator 1
 560 0392 D7F89C30 		ldr	r3, [r7, #156]
 561 0396 DB00     		lsls	r3, r3, #3
 562 0398 1A1D     		adds	r2, r3, #4
 563 039a 7B6E     		ldr	r3, [r7, #100]
 564 039c 1344     		add	r3, r3, r2
 565 039e 1B68     		ldr	r3, [r3]
 566              		.loc 1 159 48 discriminator 1
 567 03a0 1944     		add	r1, r1, r3
 568              		.loc 1 159 17 discriminator 1
 569 03a2 D7F89C30 		ldr	r3, [r7, #156]
 570 03a6 DB00     		lsls	r3, r3, #3
 571 03a8 1A1D     		adds	r2, r3, #4
 572 03aa 7B6E     		ldr	r3, [r7, #100]
 573 03ac 1A44     		add	r2, r2, r3
 574              		.loc 1 159 67 discriminator 1
 575 03ae 4B10     		asrs	r3, r1, #1
 576              		.loc 1 159 29 discriminator 1
 577 03b0 1360     		str	r3, [r2]
 160:./Libraries/CMSIS/DSP/Source/TransformFunctions/arm_cfft_radix2_q31.c **** 
 161:./Libraries/CMSIS/DSP/Source/TransformFunctions/arm_cfft_radix2_q31.c ****             mult_32x32_keep32_R(p0, xt, cosVal);
 578              		.loc 1 161 13 discriminator 1
 579 03b2 7B6F     		ldr	r3, [r7, #116]
ARM GAS  /tmp/ccD5e6h5.s 			page 14


 580 03b4 1846     		mov	r0, r3
 581 03b6 4FEAE071 		asr	r1, r0, #31
 582 03ba D7F88030 		ldr	r3, [r7, #128]
 583 03be 1A46     		mov	r2, r3
 584 03c0 4FEAE273 		asr	r3, r2, #31
 585 03c4 02FB01F5 		mul	r5, r2, r1
 586 03c8 00FB03F4 		mul	r4, r0, r3
 587 03cc 2C44     		add	r4, r4, r5
 588 03ce A0FB0223 		umull	r2, r3, r0, r2
 589 03d2 E118     		adds	r1, r4, r3
 590 03d4 0B46     		mov	r3, r1
 591 03d6 12F10041 		adds	r1, r2, #-2147483648
 592 03da B962     		str	r1, [r7, #40]
 593 03dc 43F10003 		adc	r3, r3, #0
 594 03e0 FB62     		str	r3, [r7, #44]
 595 03e2 4FF00002 		mov	r2, #0
 596 03e6 4FF00003 		mov	r3, #0
 597 03ea D7E90A45 		ldrd	r4, [r7, #40]
 598 03ee 2946     		mov	r1, r5
 599 03f0 0A00     		movs	r2, r1
 600 03f2 2946     		mov	r1, r5
 601 03f4 CB17     		asrs	r3, r1, #31
 602 03f6 1346     		mov	r3, r2
 603 03f8 FB66     		str	r3, [r7, #108]
 162:./Libraries/CMSIS/DSP/Source/TransformFunctions/arm_cfft_radix2_q31.c ****             mult_32x32_keep32_R(p1, yt, cosVal);
 604              		.loc 1 162 13 discriminator 1
 605 03fa 3B6F     		ldr	r3, [r7, #112]
 606 03fc 1846     		mov	r0, r3
 607 03fe 4FEAE071 		asr	r1, r0, #31
 608 0402 D7F88030 		ldr	r3, [r7, #128]
 609 0406 1A46     		mov	r2, r3
 610 0408 4FEAE273 		asr	r3, r2, #31
 611 040c 02FB01F5 		mul	r5, r2, r1
 612 0410 00FB03F4 		mul	r4, r0, r3
 613 0414 2C44     		add	r4, r4, r5
 614 0416 A0FB0223 		umull	r2, r3, r0, r2
 615 041a E118     		adds	r1, r4, r3
 616 041c 0B46     		mov	r3, r1
 617 041e 12F10041 		adds	r1, r2, #-2147483648
 618 0422 3962     		str	r1, [r7, #32]
 619 0424 43F10003 		adc	r3, r3, #0
 620 0428 7B62     		str	r3, [r7, #36]
 621 042a 4FF00002 		mov	r2, #0
 622 042e 4FF00003 		mov	r3, #0
 623 0432 D7E90845 		ldrd	r4, [r7, #32]
 624 0436 2946     		mov	r1, r5
 625 0438 0A00     		movs	r2, r1
 626 043a 2946     		mov	r1, r5
 627 043c CB17     		asrs	r3, r1, #31
 628 043e 1346     		mov	r3, r2
 629 0440 BB66     		str	r3, [r7, #104]
 163:./Libraries/CMSIS/DSP/Source/TransformFunctions/arm_cfft_radix2_q31.c ****             multAcc_32x32_keep32_R(p0, yt, sinVal);
 630              		.loc 1 163 13 discriminator 1
 631 0442 FB6E     		ldr	r3, [r7, #108]
 632 0444 1A46     		mov	r2, r3
 633 0446 4FEAE273 		asr	r3, r2, #31
 634 044a 4FF00008 		mov	r8, #0
ARM GAS  /tmp/ccD5e6h5.s 			page 15


 635 044e 4FF00009 		mov	r9, #0
 636 0452 9146     		mov	r9, r2
 637 0454 4FF00008 		mov	r8, #0
 638 0458 3B6F     		ldr	r3, [r7, #112]
 639 045a 1846     		mov	r0, r3
 640 045c 4FEAE071 		asr	r1, r0, #31
 641 0460 FB6F     		ldr	r3, [r7, #124]
 642 0462 1A46     		mov	r2, r3
 643 0464 4FEAE273 		asr	r3, r2, #31
 644 0468 02FB01F5 		mul	r5, r2, r1
 645 046c 00FB03F4 		mul	r4, r0, r3
 646 0470 2C44     		add	r4, r4, r5
 647 0472 A0FB0223 		umull	r2, r3, r0, r2
 648 0476 E118     		adds	r1, r4, r3
 649 0478 0B46     		mov	r3, r1
 650 047a 18EB0201 		adds	r1, r8, r2
 651 047e B961     		str	r1, [r7, #24]
 652 0480 49EB0303 		adc	r3, r9, r3
 653 0484 FB61     		str	r3, [r7, #28]
 654 0486 D7E90612 		ldrd	r1, [r7, #24]
 655 048a 0B46     		mov	r3, r1
 656 048c 13F10043 		adds	r3, r3, #-2147483648
 657 0490 3B61     		str	r3, [r7, #16]
 658 0492 1346     		mov	r3, r2
 659 0494 43F10003 		adc	r3, r3, #0
 660 0498 7B61     		str	r3, [r7, #20]
 661 049a 4FF00002 		mov	r2, #0
 662 049e 4FF00003 		mov	r3, #0
 663 04a2 D7E90445 		ldrd	r4, [r7, #16]
 664 04a6 2946     		mov	r1, r5
 665 04a8 0A00     		movs	r2, r1
 666 04aa 2946     		mov	r1, r5
 667 04ac CB17     		asrs	r3, r1, #31
 668 04ae 1346     		mov	r3, r2
 669 04b0 FB66     		str	r3, [r7, #108]
 164:./Libraries/CMSIS/DSP/Source/TransformFunctions/arm_cfft_radix2_q31.c ****             multSub_32x32_keep32_R(p1, xt, sinVal);
 670              		.loc 1 164 13 discriminator 1
 671 04b2 BB6E     		ldr	r3, [r7, #104]
 672 04b4 1A46     		mov	r2, r3
 673 04b6 4FEAE273 		asr	r3, r2, #31
 674 04ba 4FF00008 		mov	r8, #0
 675 04be 4FF00009 		mov	r9, #0
 676 04c2 9146     		mov	r9, r2
 677 04c4 4FF00008 		mov	r8, #0
 678 04c8 7B6F     		ldr	r3, [r7, #116]
 679 04ca 1846     		mov	r0, r3
 680 04cc 4FEAE071 		asr	r1, r0, #31
 681 04d0 FB6F     		ldr	r3, [r7, #124]
 682 04d2 1A46     		mov	r2, r3
 683 04d4 4FEAE273 		asr	r3, r2, #31
 684 04d8 02FB01F5 		mul	r5, r2, r1
 685 04dc 00FB03F4 		mul	r4, r0, r3
 686 04e0 2C44     		add	r4, r4, r5
 687 04e2 A0FB0223 		umull	r2, r3, r0, r2
 688 04e6 E118     		adds	r1, r4, r3
 689 04e8 0B46     		mov	r3, r1
 690 04ea B8EB0201 		subs	r1, r8, r2
ARM GAS  /tmp/ccD5e6h5.s 			page 16


 691 04ee B960     		str	r1, [r7, #8]
 692 04f0 69EB0303 		sbc	r3, r9, r3
 693 04f4 FB60     		str	r3, [r7, #12]
 694 04f6 D7E90212 		ldrd	r1, [r7, #8]
 695 04fa 0B46     		mov	r3, r1
 696 04fc 13F10043 		adds	r3, r3, #-2147483648
 697 0500 3B60     		str	r3, [r7]
 698 0502 1346     		mov	r3, r2
 699 0504 43F10003 		adc	r3, r3, #0
 700 0508 7B60     		str	r3, [r7, #4]
 701 050a 4FF00002 		mov	r2, #0
 702 050e 4FF00003 		mov	r3, #0
 703 0512 D7E90045 		ldrd	r4, [r7]
 704 0516 2946     		mov	r1, r5
 705 0518 0A00     		movs	r2, r1
 706 051a 2946     		mov	r1, r5
 707 051c CB17     		asrs	r3, r1, #31
 708 051e 1346     		mov	r3, r2
 709 0520 BB66     		str	r3, [r7, #104]
 165:./Libraries/CMSIS/DSP/Source/TransformFunctions/arm_cfft_radix2_q31.c **** 
 166:./Libraries/CMSIS/DSP/Source/TransformFunctions/arm_cfft_radix2_q31.c ****             pSrc[2U * l] = p0;
 710              		.loc 1 166 17 discriminator 1
 711 0522 BB6F     		ldr	r3, [r7, #120]
 712 0524 DB00     		lsls	r3, r3, #3
 713 0526 7A6E     		ldr	r2, [r7, #100]
 714 0528 1344     		add	r3, r3, r2
 715              		.loc 1 166 26 discriminator 1
 716 052a FA6E     		ldr	r2, [r7, #108]
 717 052c 1A60     		str	r2, [r3]
 167:./Libraries/CMSIS/DSP/Source/TransformFunctions/arm_cfft_radix2_q31.c ****             pSrc[2U * l + 1U] = p1;
 718              		.loc 1 167 17 discriminator 1
 719 052e BB6F     		ldr	r3, [r7, #120]
 720 0530 DB00     		lsls	r3, r3, #3
 721 0532 0433     		adds	r3, r3, #4
 722 0534 7A6E     		ldr	r2, [r7, #100]
 723 0536 1344     		add	r3, r3, r2
 724              		.loc 1 167 31 discriminator 1
 725 0538 BA6E     		ldr	r2, [r7, #104]
 726 053a 1A60     		str	r2, [r3]
 168:./Libraries/CMSIS/DSP/Source/TransformFunctions/arm_cfft_radix2_q31.c ****             i += n1;
 727              		.loc 1 168 15 discriminator 1
 728 053c D7F89C20 		ldr	r2, [r7, #156]
 729 0540 D7F88430 		ldr	r3, [r7, #132]
 730 0544 1344     		add	r3, r3, r2
 731 0546 C7F89C30 		str	r3, [r7, #156]
 169:./Libraries/CMSIS/DSP/Source/TransformFunctions/arm_cfft_radix2_q31.c ****             m--;
 732              		.loc 1 169 14 discriminator 1
 733 054a D7F89030 		ldr	r3, [r7, #144]
 734 054e 013B     		subs	r3, r3, #1
 735 0550 C7F89030 		str	r3, [r7, #144]
 170:./Libraries/CMSIS/DSP/Source/TransformFunctions/arm_cfft_radix2_q31.c ****          } while ( m > 0);                   // butterfly loop end
 736              		.loc 1 170 10 discriminator 1
 737 0554 D7F89030 		ldr	r3, [r7, #144]
 738 0558 002B     		cmp	r3, #0
 739 055a 7FF4DFAE 		bne	.L9
 143:./Libraries/CMSIS/DSP/Source/TransformFunctions/arm_cfft_radix2_q31.c ****       {
 740              		.loc 1 143 28 discriminator 2
ARM GAS  /tmp/ccD5e6h5.s 			page 17


 741 055e D7F89830 		ldr	r3, [r7, #152]
 742 0562 0133     		adds	r3, r3, #1
 743 0564 C7F89830 		str	r3, [r7, #152]
 744              	.L8:
 143:./Libraries/CMSIS/DSP/Source/TransformFunctions/arm_cfft_radix2_q31.c ****       {
 745              		.loc 1 143 7 discriminator 1
 746 0568 D7F89820 		ldr	r2, [r7, #152]
 747 056c D7F88C30 		ldr	r3, [r7, #140]
 748 0570 9A42     		cmp	r2, r3
 749 0572 FFF4B1AE 		bcc	.L10
 171:./Libraries/CMSIS/DSP/Source/TransformFunctions/arm_cfft_radix2_q31.c **** 
 172:./Libraries/CMSIS/DSP/Source/TransformFunctions/arm_cfft_radix2_q31.c ****       }                           // groups loop end
 173:./Libraries/CMSIS/DSP/Source/TransformFunctions/arm_cfft_radix2_q31.c **** 
 174:./Libraries/CMSIS/DSP/Source/TransformFunctions/arm_cfft_radix2_q31.c ****       twidCoefModifier <<= 1U;
 750              		.loc 1 174 24 discriminator 2
 751 0576 B7F85A30 		ldrh	r3, [r7, #90]	@ movhi
 752 057a 5B00     		lsls	r3, r3, #1
 753 057c A7F85A30 		strh	r3, [r7, #90]	@ movhi
 136:./Libraries/CMSIS/DSP/Source/TransformFunctions/arm_cfft_radix2_q31.c ****    {
 754              		.loc 1 136 34 discriminator 2
 755 0580 D7F89430 		ldr	r3, [r7, #148]
 756 0584 5B08     		lsrs	r3, r3, #1
 757 0586 C7F89430 		str	r3, [r7, #148]
 758              	.L7:
 136:./Libraries/CMSIS/DSP/Source/TransformFunctions/arm_cfft_radix2_q31.c ****    {
 759              		.loc 1 136 4 discriminator 1
 760 058a D7F89430 		ldr	r3, [r7, #148]
 761 058e 022B     		cmp	r3, #2
 762 0590 3FF692AE 		bhi	.L11
 175:./Libraries/CMSIS/DSP/Source/TransformFunctions/arm_cfft_radix2_q31.c ****    }                             // stages loop end
 176:./Libraries/CMSIS/DSP/Source/TransformFunctions/arm_cfft_radix2_q31.c **** 
 177:./Libraries/CMSIS/DSP/Source/TransformFunctions/arm_cfft_radix2_q31.c ****    n1 = n2;
 763              		.loc 1 177 7
 764 0594 D7F88C30 		ldr	r3, [r7, #140]
 765 0598 C7F88430 		str	r3, [r7, #132]
 178:./Libraries/CMSIS/DSP/Source/TransformFunctions/arm_cfft_radix2_q31.c ****    n2 = n2 >> 1;
 766              		.loc 1 178 7
 767 059c D7F88C30 		ldr	r3, [r7, #140]
 768 05a0 5B08     		lsrs	r3, r3, #1
 769 05a2 C7F88C30 		str	r3, [r7, #140]
 179:./Libraries/CMSIS/DSP/Source/TransformFunctions/arm_cfft_radix2_q31.c ****    ia = 0;
 770              		.loc 1 179 7
 771 05a6 0023     		movs	r3, #0
 772 05a8 C7F88830 		str	r3, [r7, #136]
 180:./Libraries/CMSIS/DSP/Source/TransformFunctions/arm_cfft_radix2_q31.c **** 
 181:./Libraries/CMSIS/DSP/Source/TransformFunctions/arm_cfft_radix2_q31.c ****    cosVal = pCoef[ia * 2];
 773              		.loc 1 181 18
 774 05ac D7F88830 		ldr	r3, [r7, #136]
 775 05b0 DB00     		lsls	r3, r3, #3
 776 05b2 FA6D     		ldr	r2, [r7, #92]
 777 05b4 1344     		add	r3, r3, r2
 778              		.loc 1 181 11
 779 05b6 1B68     		ldr	r3, [r3]
 780 05b8 C7F88030 		str	r3, [r7, #128]
 182:./Libraries/CMSIS/DSP/Source/TransformFunctions/arm_cfft_radix2_q31.c ****    sinVal = pCoef[(ia * 2) + 1];
 781              		.loc 1 182 18
 782 05bc D7F88830 		ldr	r3, [r7, #136]
ARM GAS  /tmp/ccD5e6h5.s 			page 18


 783 05c0 DB00     		lsls	r3, r3, #3
 784 05c2 0433     		adds	r3, r3, #4
 785 05c4 FA6D     		ldr	r2, [r7, #92]
 786 05c6 1344     		add	r3, r3, r2
 787              		.loc 1 182 11
 788 05c8 1B68     		ldr	r3, [r3]
 789 05ca FB67     		str	r3, [r7, #124]
 183:./Libraries/CMSIS/DSP/Source/TransformFunctions/arm_cfft_radix2_q31.c ****    ia = ia + twidCoefModifier;
 790              		.loc 1 183 12
 791 05cc B7F85A30 		ldrh	r3, [r7, #90]
 792              		.loc 1 183 7
 793 05d0 D7F88820 		ldr	r2, [r7, #136]
 794 05d4 1344     		add	r3, r3, r2
 795 05d6 C7F88830 		str	r3, [r7, #136]
 184:./Libraries/CMSIS/DSP/Source/TransformFunctions/arm_cfft_radix2_q31.c **** 
 185:./Libraries/CMSIS/DSP/Source/TransformFunctions/arm_cfft_radix2_q31.c ****    // loop for butterfly
 186:./Libraries/CMSIS/DSP/Source/TransformFunctions/arm_cfft_radix2_q31.c ****    for (i = 0; i < fftLen; i += n1)
 796              		.loc 1 186 11
 797 05da 0023     		movs	r3, #0
 798 05dc C7F89C30 		str	r3, [r7, #156]
 799              		.loc 1 186 4
 800 05e0 B9E0     		b	.L12
 801              	.L13:
 187:./Libraries/CMSIS/DSP/Source/TransformFunctions/arm_cfft_radix2_q31.c ****    {
 188:./Libraries/CMSIS/DSP/Source/TransformFunctions/arm_cfft_radix2_q31.c ****       l = i + n2;
 802              		.loc 1 188 9 discriminator 3
 803 05e2 D7F89C20 		ldr	r2, [r7, #156]
 804 05e6 D7F88C30 		ldr	r3, [r7, #140]
 805 05ea 1344     		add	r3, r3, r2
 806 05ec BB67     		str	r3, [r7, #120]
 189:./Libraries/CMSIS/DSP/Source/TransformFunctions/arm_cfft_radix2_q31.c ****       xt = pSrc[2 * i] - pSrc[2 * l];
 807              		.loc 1 189 16 discriminator 3
 808 05ee D7F89C30 		ldr	r3, [r7, #156]
 809 05f2 DB00     		lsls	r3, r3, #3
 810 05f4 7A6E     		ldr	r2, [r7, #100]
 811 05f6 1344     		add	r3, r3, r2
 812 05f8 1A68     		ldr	r2, [r3]
 813              		.loc 1 189 30 discriminator 3
 814 05fa BB6F     		ldr	r3, [r7, #120]
 815 05fc DB00     		lsls	r3, r3, #3
 816 05fe 796E     		ldr	r1, [r7, #100]
 817 0600 0B44     		add	r3, r3, r1
 818 0602 1B68     		ldr	r3, [r3]
 819              		.loc 1 189 10 discriminator 3
 820 0604 D31A     		subs	r3, r2, r3
 821 0606 7B67     		str	r3, [r7, #116]
 190:./Libraries/CMSIS/DSP/Source/TransformFunctions/arm_cfft_radix2_q31.c ****       pSrc[2 * i] = (pSrc[2 * i] + pSrc[2 * l]);
 822              		.loc 1 190 26 discriminator 3
 823 0608 D7F89C30 		ldr	r3, [r7, #156]
 824 060c DB00     		lsls	r3, r3, #3
 825 060e 7A6E     		ldr	r2, [r7, #100]
 826 0610 1344     		add	r3, r3, r2
 827 0612 1968     		ldr	r1, [r3]
 828              		.loc 1 190 40 discriminator 3
 829 0614 BB6F     		ldr	r3, [r7, #120]
 830 0616 DB00     		lsls	r3, r3, #3
 831 0618 7A6E     		ldr	r2, [r7, #100]
ARM GAS  /tmp/ccD5e6h5.s 			page 19


 832 061a 1344     		add	r3, r3, r2
 833 061c 1A68     		ldr	r2, [r3]
 834              		.loc 1 190 11 discriminator 3
 835 061e D7F89C30 		ldr	r3, [r7, #156]
 836 0622 DB00     		lsls	r3, r3, #3
 837 0624 786E     		ldr	r0, [r7, #100]
 838 0626 0344     		add	r3, r3, r0
 839              		.loc 1 190 34 discriminator 3
 840 0628 0A44     		add	r2, r2, r1
 841              		.loc 1 190 19 discriminator 3
 842 062a 1A60     		str	r2, [r3]
 191:./Libraries/CMSIS/DSP/Source/TransformFunctions/arm_cfft_radix2_q31.c **** 
 192:./Libraries/CMSIS/DSP/Source/TransformFunctions/arm_cfft_radix2_q31.c ****       yt = pSrc[2 * i + 1] - pSrc[2 * l + 1];
 843              		.loc 1 192 16 discriminator 3
 844 062c D7F89C30 		ldr	r3, [r7, #156]
 845 0630 DB00     		lsls	r3, r3, #3
 846 0632 0433     		adds	r3, r3, #4
 847 0634 7A6E     		ldr	r2, [r7, #100]
 848 0636 1344     		add	r3, r3, r2
 849 0638 1A68     		ldr	r2, [r3]
 850              		.loc 1 192 34 discriminator 3
 851 063a BB6F     		ldr	r3, [r7, #120]
 852 063c DB00     		lsls	r3, r3, #3
 853 063e 0433     		adds	r3, r3, #4
 854 0640 796E     		ldr	r1, [r7, #100]
 855 0642 0B44     		add	r3, r3, r1
 856 0644 1B68     		ldr	r3, [r3]
 857              		.loc 1 192 10 discriminator 3
 858 0646 D31A     		subs	r3, r2, r3
 859 0648 3B67     		str	r3, [r7, #112]
 193:./Libraries/CMSIS/DSP/Source/TransformFunctions/arm_cfft_radix2_q31.c ****       pSrc[2 * i + 1] = (pSrc[2 * l + 1] + pSrc[2 * i + 1]);
 860              		.loc 1 193 30 discriminator 3
 861 064a BB6F     		ldr	r3, [r7, #120]
 862 064c DB00     		lsls	r3, r3, #3
 863 064e 0433     		adds	r3, r3, #4
 864 0650 7A6E     		ldr	r2, [r7, #100]
 865 0652 1344     		add	r3, r3, r2
 866 0654 1968     		ldr	r1, [r3]
 867              		.loc 1 193 48 discriminator 3
 868 0656 D7F89C30 		ldr	r3, [r7, #156]
 869 065a DB00     		lsls	r3, r3, #3
 870 065c 0433     		adds	r3, r3, #4
 871 065e 7A6E     		ldr	r2, [r7, #100]
 872 0660 1344     		add	r3, r3, r2
 873 0662 1A68     		ldr	r2, [r3]
 874              		.loc 1 193 11 discriminator 3
 875 0664 D7F89C30 		ldr	r3, [r7, #156]
 876 0668 DB00     		lsls	r3, r3, #3
 877 066a 0433     		adds	r3, r3, #4
 878 066c 786E     		ldr	r0, [r7, #100]
 879 066e 0344     		add	r3, r3, r0
 880              		.loc 1 193 42 discriminator 3
 881 0670 0A44     		add	r2, r2, r1
 882              		.loc 1 193 23 discriminator 3
 883 0672 1A60     		str	r2, [r3]
 194:./Libraries/CMSIS/DSP/Source/TransformFunctions/arm_cfft_radix2_q31.c **** 
 195:./Libraries/CMSIS/DSP/Source/TransformFunctions/arm_cfft_radix2_q31.c ****       pSrc[2U * l] = xt;
ARM GAS  /tmp/ccD5e6h5.s 			page 20


 884              		.loc 1 195 11 discriminator 3
 885 0674 BB6F     		ldr	r3, [r7, #120]
 886 0676 DB00     		lsls	r3, r3, #3
 887 0678 7A6E     		ldr	r2, [r7, #100]
 888 067a 1344     		add	r3, r3, r2
 889              		.loc 1 195 20 discriminator 3
 890 067c 7A6F     		ldr	r2, [r7, #116]
 891 067e 1A60     		str	r2, [r3]
 196:./Libraries/CMSIS/DSP/Source/TransformFunctions/arm_cfft_radix2_q31.c **** 
 197:./Libraries/CMSIS/DSP/Source/TransformFunctions/arm_cfft_radix2_q31.c ****       pSrc[2U * l + 1U] = yt;
 892              		.loc 1 197 11 discriminator 3
 893 0680 BB6F     		ldr	r3, [r7, #120]
 894 0682 DB00     		lsls	r3, r3, #3
 895 0684 0433     		adds	r3, r3, #4
 896 0686 7A6E     		ldr	r2, [r7, #100]
 897 0688 1344     		add	r3, r3, r2
 898              		.loc 1 197 25 discriminator 3
 899 068a 3A6F     		ldr	r2, [r7, #112]
 900 068c 1A60     		str	r2, [r3]
 198:./Libraries/CMSIS/DSP/Source/TransformFunctions/arm_cfft_radix2_q31.c **** 
 199:./Libraries/CMSIS/DSP/Source/TransformFunctions/arm_cfft_radix2_q31.c ****       i += n1;
 901              		.loc 1 199 9 discriminator 3
 902 068e D7F89C20 		ldr	r2, [r7, #156]
 903 0692 D7F88430 		ldr	r3, [r7, #132]
 904 0696 1344     		add	r3, r3, r2
 905 0698 C7F89C30 		str	r3, [r7, #156]
 200:./Libraries/CMSIS/DSP/Source/TransformFunctions/arm_cfft_radix2_q31.c ****       l = i + n2;
 906              		.loc 1 200 9 discriminator 3
 907 069c D7F89C20 		ldr	r2, [r7, #156]
 908 06a0 D7F88C30 		ldr	r3, [r7, #140]
 909 06a4 1344     		add	r3, r3, r2
 910 06a6 BB67     		str	r3, [r7, #120]
 201:./Libraries/CMSIS/DSP/Source/TransformFunctions/arm_cfft_radix2_q31.c **** 
 202:./Libraries/CMSIS/DSP/Source/TransformFunctions/arm_cfft_radix2_q31.c ****       xt = pSrc[2 * i] - pSrc[2 * l];
 911              		.loc 1 202 16 discriminator 3
 912 06a8 D7F89C30 		ldr	r3, [r7, #156]
 913 06ac DB00     		lsls	r3, r3, #3
 914 06ae 7A6E     		ldr	r2, [r7, #100]
 915 06b0 1344     		add	r3, r3, r2
 916 06b2 1A68     		ldr	r2, [r3]
 917              		.loc 1 202 30 discriminator 3
 918 06b4 BB6F     		ldr	r3, [r7, #120]
 919 06b6 DB00     		lsls	r3, r3, #3
 920 06b8 796E     		ldr	r1, [r7, #100]
 921 06ba 0B44     		add	r3, r3, r1
 922 06bc 1B68     		ldr	r3, [r3]
 923              		.loc 1 202 10 discriminator 3
 924 06be D31A     		subs	r3, r2, r3
 925 06c0 7B67     		str	r3, [r7, #116]
 203:./Libraries/CMSIS/DSP/Source/TransformFunctions/arm_cfft_radix2_q31.c ****       pSrc[2 * i] = (pSrc[2 * i] + pSrc[2 * l]);
 926              		.loc 1 203 26 discriminator 3
 927 06c2 D7F89C30 		ldr	r3, [r7, #156]
 928 06c6 DB00     		lsls	r3, r3, #3
 929 06c8 7A6E     		ldr	r2, [r7, #100]
 930 06ca 1344     		add	r3, r3, r2
 931 06cc 1968     		ldr	r1, [r3]
 932              		.loc 1 203 40 discriminator 3
ARM GAS  /tmp/ccD5e6h5.s 			page 21


 933 06ce BB6F     		ldr	r3, [r7, #120]
 934 06d0 DB00     		lsls	r3, r3, #3
 935 06d2 7A6E     		ldr	r2, [r7, #100]
 936 06d4 1344     		add	r3, r3, r2
 937 06d6 1A68     		ldr	r2, [r3]
 938              		.loc 1 203 11 discriminator 3
 939 06d8 D7F89C30 		ldr	r3, [r7, #156]
 940 06dc DB00     		lsls	r3, r3, #3
 941 06de 786E     		ldr	r0, [r7, #100]
 942 06e0 0344     		add	r3, r3, r0
 943              		.loc 1 203 34 discriminator 3
 944 06e2 0A44     		add	r2, r2, r1
 945              		.loc 1 203 19 discriminator 3
 946 06e4 1A60     		str	r2, [r3]
 204:./Libraries/CMSIS/DSP/Source/TransformFunctions/arm_cfft_radix2_q31.c **** 
 205:./Libraries/CMSIS/DSP/Source/TransformFunctions/arm_cfft_radix2_q31.c ****       yt = pSrc[2 * i + 1] - pSrc[2 * l + 1];
 947              		.loc 1 205 16 discriminator 3
 948 06e6 D7F89C30 		ldr	r3, [r7, #156]
 949 06ea DB00     		lsls	r3, r3, #3
 950 06ec 0433     		adds	r3, r3, #4
 951 06ee 7A6E     		ldr	r2, [r7, #100]
 952 06f0 1344     		add	r3, r3, r2
 953 06f2 1A68     		ldr	r2, [r3]
 954              		.loc 1 205 34 discriminator 3
 955 06f4 BB6F     		ldr	r3, [r7, #120]
 956 06f6 DB00     		lsls	r3, r3, #3
 957 06f8 0433     		adds	r3, r3, #4
 958 06fa 796E     		ldr	r1, [r7, #100]
 959 06fc 0B44     		add	r3, r3, r1
 960 06fe 1B68     		ldr	r3, [r3]
 961              		.loc 1 205 10 discriminator 3
 962 0700 D31A     		subs	r3, r2, r3
 963 0702 3B67     		str	r3, [r7, #112]
 206:./Libraries/CMSIS/DSP/Source/TransformFunctions/arm_cfft_radix2_q31.c ****       pSrc[2 * i + 1] = (pSrc[2 * l + 1] + pSrc[2 * i + 1]);
 964              		.loc 1 206 30 discriminator 3
 965 0704 BB6F     		ldr	r3, [r7, #120]
 966 0706 DB00     		lsls	r3, r3, #3
 967 0708 0433     		adds	r3, r3, #4
 968 070a 7A6E     		ldr	r2, [r7, #100]
 969 070c 1344     		add	r3, r3, r2
 970 070e 1968     		ldr	r1, [r3]
 971              		.loc 1 206 48 discriminator 3
 972 0710 D7F89C30 		ldr	r3, [r7, #156]
 973 0714 DB00     		lsls	r3, r3, #3
 974 0716 0433     		adds	r3, r3, #4
 975 0718 7A6E     		ldr	r2, [r7, #100]
 976 071a 1344     		add	r3, r3, r2
 977 071c 1A68     		ldr	r2, [r3]
 978              		.loc 1 206 11 discriminator 3
 979 071e D7F89C30 		ldr	r3, [r7, #156]
 980 0722 DB00     		lsls	r3, r3, #3
 981 0724 0433     		adds	r3, r3, #4
 982 0726 786E     		ldr	r0, [r7, #100]
 983 0728 0344     		add	r3, r3, r0
 984              		.loc 1 206 42 discriminator 3
 985 072a 0A44     		add	r2, r2, r1
 986              		.loc 1 206 23 discriminator 3
ARM GAS  /tmp/ccD5e6h5.s 			page 22


 987 072c 1A60     		str	r2, [r3]
 207:./Libraries/CMSIS/DSP/Source/TransformFunctions/arm_cfft_radix2_q31.c **** 
 208:./Libraries/CMSIS/DSP/Source/TransformFunctions/arm_cfft_radix2_q31.c ****       pSrc[2U * l] = xt;
 988              		.loc 1 208 11 discriminator 3
 989 072e BB6F     		ldr	r3, [r7, #120]
 990 0730 DB00     		lsls	r3, r3, #3
 991 0732 7A6E     		ldr	r2, [r7, #100]
 992 0734 1344     		add	r3, r3, r2
 993              		.loc 1 208 20 discriminator 3
 994 0736 7A6F     		ldr	r2, [r7, #116]
 995 0738 1A60     		str	r2, [r3]
 209:./Libraries/CMSIS/DSP/Source/TransformFunctions/arm_cfft_radix2_q31.c **** 
 210:./Libraries/CMSIS/DSP/Source/TransformFunctions/arm_cfft_radix2_q31.c ****       pSrc[2U * l + 1U] = yt;
 996              		.loc 1 210 11 discriminator 3
 997 073a BB6F     		ldr	r3, [r7, #120]
 998 073c DB00     		lsls	r3, r3, #3
 999 073e 0433     		adds	r3, r3, #4
 1000 0740 7A6E     		ldr	r2, [r7, #100]
 1001 0742 1344     		add	r3, r3, r2
 1002              		.loc 1 210 25 discriminator 3
 1003 0744 3A6F     		ldr	r2, [r7, #112]
 1004 0746 1A60     		str	r2, [r3]
 186:./Libraries/CMSIS/DSP/Source/TransformFunctions/arm_cfft_radix2_q31.c ****    {
 1005              		.loc 1 186 30 discriminator 3
 1006 0748 D7F89C20 		ldr	r2, [r7, #156]
 1007 074c D7F88430 		ldr	r3, [r7, #132]
 1008 0750 1344     		add	r3, r3, r2
 1009 0752 C7F89C30 		str	r3, [r7, #156]
 1010              	.L12:
 186:./Libraries/CMSIS/DSP/Source/TransformFunctions/arm_cfft_radix2_q31.c ****    {
 1011              		.loc 1 186 4 discriminator 1
 1012 0756 D7F89C20 		ldr	r2, [r7, #156]
 1013 075a 3B6E     		ldr	r3, [r7, #96]
 1014 075c 9A42     		cmp	r2, r3
 1015 075e FFF440AF 		bcc	.L13
 211:./Libraries/CMSIS/DSP/Source/TransformFunctions/arm_cfft_radix2_q31.c **** 
 212:./Libraries/CMSIS/DSP/Source/TransformFunctions/arm_cfft_radix2_q31.c ****    }                             // butterfly loop end
 213:./Libraries/CMSIS/DSP/Source/TransformFunctions/arm_cfft_radix2_q31.c **** 
 214:./Libraries/CMSIS/DSP/Source/TransformFunctions/arm_cfft_radix2_q31.c **** }
 1016              		.loc 1 214 1
 1017 0762 00BF     		nop
 1018 0764 00BF     		nop
 1019 0766 A437     		adds	r7, r7, #164
 1020              	.LCFI8:
 1021              		.cfi_def_cfa_offset 28
 1022 0768 BD46     		mov	sp, r7
 1023              	.LCFI9:
 1024              		.cfi_def_cfa_register 13
 1025              		@ sp needed
 1026 076a BDE8B00F 		pop	{r4, r5, r7, r8, r9, r10, fp}
 1027              	.LCFI10:
 1028              		.cfi_restore 11
 1029              		.cfi_restore 10
 1030              		.cfi_restore 9
 1031              		.cfi_restore 8
 1032              		.cfi_restore 7
 1033              		.cfi_restore 5
ARM GAS  /tmp/ccD5e6h5.s 			page 23


 1034              		.cfi_restore 4
 1035              		.cfi_def_cfa_offset 0
 1036 076e 7047     		bx	lr
 1037              		.cfi_endproc
 1038              	.LFE146:
 1040              		.section	.text.arm_radix2_butterfly_inverse_q31,"ax",%progbits
 1041              		.align	1
 1042              		.global	arm_radix2_butterfly_inverse_q31
 1043              		.syntax unified
 1044              		.thumb
 1045              		.thumb_func
 1046              		.fpu fpv5-d16
 1048              	arm_radix2_butterfly_inverse_q31:
 1049              	.LFB147:
 215:./Libraries/CMSIS/DSP/Source/TransformFunctions/arm_cfft_radix2_q31.c **** 
 216:./Libraries/CMSIS/DSP/Source/TransformFunctions/arm_cfft_radix2_q31.c **** 
 217:./Libraries/CMSIS/DSP/Source/TransformFunctions/arm_cfft_radix2_q31.c **** void arm_radix2_butterfly_inverse_q31(
 218:./Libraries/CMSIS/DSP/Source/TransformFunctions/arm_cfft_radix2_q31.c ****         q31_t * pSrc,
 219:./Libraries/CMSIS/DSP/Source/TransformFunctions/arm_cfft_radix2_q31.c ****         uint32_t fftLen,
 220:./Libraries/CMSIS/DSP/Source/TransformFunctions/arm_cfft_radix2_q31.c ****   const q31_t * pCoef,
 221:./Libraries/CMSIS/DSP/Source/TransformFunctions/arm_cfft_radix2_q31.c ****         uint16_t twidCoefModifier)
 222:./Libraries/CMSIS/DSP/Source/TransformFunctions/arm_cfft_radix2_q31.c **** {
 1050              		.loc 1 222 1
 1051              		.cfi_startproc
 1052              		@ args = 0, pretend = 0, frame = 160
 1053              		@ frame_needed = 1, uses_anonymous_args = 0
 1054              		@ link register save eliminated.
 1055 0000 2DE9B00F 		push	{r4, r5, r7, r8, r9, r10, fp}
 1056              	.LCFI11:
 1057              		.cfi_def_cfa_offset 28
 1058              		.cfi_offset 4, -28
 1059              		.cfi_offset 5, -24
 1060              		.cfi_offset 7, -20
 1061              		.cfi_offset 8, -16
 1062              		.cfi_offset 9, -12
 1063              		.cfi_offset 10, -8
 1064              		.cfi_offset 11, -4
 1065 0004 A9B0     		sub	sp, sp, #164
 1066              	.LCFI12:
 1067              		.cfi_def_cfa_offset 192
 1068 0006 00AF     		add	r7, sp, #0
 1069              	.LCFI13:
 1070              		.cfi_def_cfa_register 7
 1071 0008 7866     		str	r0, [r7, #100]
 1072 000a 3966     		str	r1, [r7, #96]
 1073 000c FA65     		str	r2, [r7, #92]
 1074 000e A7F85A30 		strh	r3, [r7, #90]	@ movhi
 223:./Libraries/CMSIS/DSP/Source/TransformFunctions/arm_cfft_radix2_q31.c **** 
 224:./Libraries/CMSIS/DSP/Source/TransformFunctions/arm_cfft_radix2_q31.c ****    unsigned i, j, k, l;
 225:./Libraries/CMSIS/DSP/Source/TransformFunctions/arm_cfft_radix2_q31.c ****    unsigned n1, n2, ia;
 226:./Libraries/CMSIS/DSP/Source/TransformFunctions/arm_cfft_radix2_q31.c ****    q31_t xt, yt, cosVal, sinVal;
 227:./Libraries/CMSIS/DSP/Source/TransformFunctions/arm_cfft_radix2_q31.c ****    q31_t p0, p1;
 228:./Libraries/CMSIS/DSP/Source/TransformFunctions/arm_cfft_radix2_q31.c **** 
 229:./Libraries/CMSIS/DSP/Source/TransformFunctions/arm_cfft_radix2_q31.c ****    //N = fftLen;
 230:./Libraries/CMSIS/DSP/Source/TransformFunctions/arm_cfft_radix2_q31.c ****    n2 = fftLen;
 1075              		.loc 1 230 7
 1076 0012 3B6E     		ldr	r3, [r7, #96]
ARM GAS  /tmp/ccD5e6h5.s 			page 24


 1077 0014 C7F89030 		str	r3, [r7, #144]
 231:./Libraries/CMSIS/DSP/Source/TransformFunctions/arm_cfft_radix2_q31.c **** 
 232:./Libraries/CMSIS/DSP/Source/TransformFunctions/arm_cfft_radix2_q31.c ****    n1 = n2;
 1078              		.loc 1 232 7
 1079 0018 D7F89030 		ldr	r3, [r7, #144]
 1080 001c C7F88830 		str	r3, [r7, #136]
 233:./Libraries/CMSIS/DSP/Source/TransformFunctions/arm_cfft_radix2_q31.c ****    n2 = n2 >> 1;
 1081              		.loc 1 233 7
 1082 0020 D7F89030 		ldr	r3, [r7, #144]
 1083 0024 5B08     		lsrs	r3, r3, #1
 1084 0026 C7F89030 		str	r3, [r7, #144]
 234:./Libraries/CMSIS/DSP/Source/TransformFunctions/arm_cfft_radix2_q31.c ****    ia = 0;
 1085              		.loc 1 234 7
 1086 002a 0023     		movs	r3, #0
 1087 002c C7F88C30 		str	r3, [r7, #140]
 235:./Libraries/CMSIS/DSP/Source/TransformFunctions/arm_cfft_radix2_q31.c **** 
 236:./Libraries/CMSIS/DSP/Source/TransformFunctions/arm_cfft_radix2_q31.c ****    // loop for groups
 237:./Libraries/CMSIS/DSP/Source/TransformFunctions/arm_cfft_radix2_q31.c ****    for (i = 0; i < n2; i++)
 1088              		.loc 1 237 11
 1089 0030 0023     		movs	r3, #0
 1090 0032 C7F89C30 		str	r3, [r7, #156]
 1091              		.loc 1 237 4
 1092 0036 31E1     		b	.L15
 1093              	.L16:
 238:./Libraries/CMSIS/DSP/Source/TransformFunctions/arm_cfft_radix2_q31.c ****    {
 239:./Libraries/CMSIS/DSP/Source/TransformFunctions/arm_cfft_radix2_q31.c ****       cosVal = pCoef[ia * 2];
 1094              		.loc 1 239 21 discriminator 3
 1095 0038 D7F88C30 		ldr	r3, [r7, #140]
 1096 003c DA00     		lsls	r2, r3, #3
 1097 003e FB6D     		ldr	r3, [r7, #92]
 1098 0040 1344     		add	r3, r3, r2
 1099              		.loc 1 239 14 discriminator 3
 1100 0042 1B68     		ldr	r3, [r3]
 1101 0044 C7F88430 		str	r3, [r7, #132]
 240:./Libraries/CMSIS/DSP/Source/TransformFunctions/arm_cfft_radix2_q31.c ****       sinVal = pCoef[(ia * 2) + 1];
 1102              		.loc 1 240 21 discriminator 3
 1103 0048 D7F88C30 		ldr	r3, [r7, #140]
 1104 004c DB00     		lsls	r3, r3, #3
 1105 004e 1A1D     		adds	r2, r3, #4
 1106 0050 FB6D     		ldr	r3, [r7, #92]
 1107 0052 1344     		add	r3, r3, r2
 1108              		.loc 1 240 14 discriminator 3
 1109 0054 1B68     		ldr	r3, [r3]
 1110 0056 C7F88030 		str	r3, [r7, #128]
 241:./Libraries/CMSIS/DSP/Source/TransformFunctions/arm_cfft_radix2_q31.c ****       ia = ia + twidCoefModifier;
 1111              		.loc 1 241 15 discriminator 3
 1112 005a B7F85A20 		ldrh	r2, [r7, #90]
 1113              		.loc 1 241 10 discriminator 3
 1114 005e D7F88C30 		ldr	r3, [r7, #140]
 1115 0062 1344     		add	r3, r3, r2
 1116 0064 C7F88C30 		str	r3, [r7, #140]
 242:./Libraries/CMSIS/DSP/Source/TransformFunctions/arm_cfft_radix2_q31.c **** 
 243:./Libraries/CMSIS/DSP/Source/TransformFunctions/arm_cfft_radix2_q31.c ****       l = i + n2;
 1117              		.loc 1 243 9 discriminator 3
 1118 0068 D7F89C20 		ldr	r2, [r7, #156]
 1119 006c D7F89030 		ldr	r3, [r7, #144]
 1120 0070 1344     		add	r3, r3, r2
ARM GAS  /tmp/ccD5e6h5.s 			page 25


 1121 0072 FB67     		str	r3, [r7, #124]
 244:./Libraries/CMSIS/DSP/Source/TransformFunctions/arm_cfft_radix2_q31.c ****       xt = (pSrc[2 * i] >> 1U) - (pSrc[2 * l] >> 1U);
 1122              		.loc 1 244 17 discriminator 3
 1123 0074 D7F89C30 		ldr	r3, [r7, #156]
 1124 0078 DA00     		lsls	r2, r3, #3
 1125 007a 7B6E     		ldr	r3, [r7, #100]
 1126 007c 1344     		add	r3, r3, r2
 1127 007e 1B68     		ldr	r3, [r3]
 1128              		.loc 1 244 25 discriminator 3
 1129 0080 5910     		asrs	r1, r3, #1
 1130              		.loc 1 244 39 discriminator 3
 1131 0082 FB6F     		ldr	r3, [r7, #124]
 1132 0084 DA00     		lsls	r2, r3, #3
 1133 0086 7B6E     		ldr	r3, [r7, #100]
 1134 0088 1344     		add	r3, r3, r2
 1135 008a 1B68     		ldr	r3, [r3]
 1136              		.loc 1 244 47 discriminator 3
 1137 008c 5B10     		asrs	r3, r3, #1
 1138              		.loc 1 244 10 discriminator 3
 1139 008e CB1A     		subs	r3, r1, r3
 1140 0090 BB67     		str	r3, [r7, #120]
 245:./Libraries/CMSIS/DSP/Source/TransformFunctions/arm_cfft_radix2_q31.c ****       pSrc[2 * i] = ((pSrc[2 * i] >> 1U) + (pSrc[2 * l] >> 1U)) >> 1U;
 1141              		.loc 1 245 27 discriminator 3
 1142 0092 D7F89C30 		ldr	r3, [r7, #156]
 1143 0096 DA00     		lsls	r2, r3, #3
 1144 0098 7B6E     		ldr	r3, [r7, #100]
 1145 009a 1344     		add	r3, r3, r2
 1146 009c 1B68     		ldr	r3, [r3]
 1147              		.loc 1 245 35 discriminator 3
 1148 009e 5910     		asrs	r1, r3, #1
 1149              		.loc 1 245 49 discriminator 3
 1150 00a0 FB6F     		ldr	r3, [r7, #124]
 1151 00a2 DA00     		lsls	r2, r3, #3
 1152 00a4 7B6E     		ldr	r3, [r7, #100]
 1153 00a6 1344     		add	r3, r3, r2
 1154 00a8 1B68     		ldr	r3, [r3]
 1155              		.loc 1 245 57 discriminator 3
 1156 00aa 5B10     		asrs	r3, r3, #1
 1157              		.loc 1 245 42 discriminator 3
 1158 00ac 1944     		add	r1, r1, r3
 1159              		.loc 1 245 11 discriminator 3
 1160 00ae D7F89C30 		ldr	r3, [r7, #156]
 1161 00b2 DA00     		lsls	r2, r3, #3
 1162 00b4 7B6E     		ldr	r3, [r7, #100]
 1163 00b6 1A44     		add	r2, r2, r3
 1164              		.loc 1 245 65 discriminator 3
 1165 00b8 4B10     		asrs	r3, r1, #1
 1166              		.loc 1 245 19 discriminator 3
 1167 00ba 1360     		str	r3, [r2]
 246:./Libraries/CMSIS/DSP/Source/TransformFunctions/arm_cfft_radix2_q31.c **** 
 247:./Libraries/CMSIS/DSP/Source/TransformFunctions/arm_cfft_radix2_q31.c ****       yt = (pSrc[2 * i + 1] >> 1U) - (pSrc[2 * l + 1] >> 1U);
 1168              		.loc 1 247 17 discriminator 3
 1169 00bc D7F89C30 		ldr	r3, [r7, #156]
 1170 00c0 DB00     		lsls	r3, r3, #3
 1171 00c2 1A1D     		adds	r2, r3, #4
 1172 00c4 7B6E     		ldr	r3, [r7, #100]
 1173 00c6 1344     		add	r3, r3, r2
ARM GAS  /tmp/ccD5e6h5.s 			page 26


 1174 00c8 1B68     		ldr	r3, [r3]
 1175              		.loc 1 247 29 discriminator 3
 1176 00ca 5910     		asrs	r1, r3, #1
 1177              		.loc 1 247 43 discriminator 3
 1178 00cc FB6F     		ldr	r3, [r7, #124]
 1179 00ce DB00     		lsls	r3, r3, #3
 1180 00d0 1A1D     		adds	r2, r3, #4
 1181 00d2 7B6E     		ldr	r3, [r7, #100]
 1182 00d4 1344     		add	r3, r3, r2
 1183 00d6 1B68     		ldr	r3, [r3]
 1184              		.loc 1 247 55 discriminator 3
 1185 00d8 5B10     		asrs	r3, r3, #1
 1186              		.loc 1 247 10 discriminator 3
 1187 00da CB1A     		subs	r3, r1, r3
 1188 00dc 7B67     		str	r3, [r7, #116]
 248:./Libraries/CMSIS/DSP/Source/TransformFunctions/arm_cfft_radix2_q31.c ****       pSrc[2 * i + 1] =
 249:./Libraries/CMSIS/DSP/Source/TransformFunctions/arm_cfft_radix2_q31.c ****         ((pSrc[2 * l + 1] >> 1U) + (pSrc[2 * i + 1] >> 1U)) >> 1U;
 1189              		.loc 1 249 15 discriminator 3
 1190 00de FB6F     		ldr	r3, [r7, #124]
 1191 00e0 DB00     		lsls	r3, r3, #3
 1192 00e2 1A1D     		adds	r2, r3, #4
 1193 00e4 7B6E     		ldr	r3, [r7, #100]
 1194 00e6 1344     		add	r3, r3, r2
 1195 00e8 1B68     		ldr	r3, [r3]
 1196              		.loc 1 249 27 discriminator 3
 1197 00ea 5910     		asrs	r1, r3, #1
 1198              		.loc 1 249 41 discriminator 3
 1199 00ec D7F89C30 		ldr	r3, [r7, #156]
 1200 00f0 DB00     		lsls	r3, r3, #3
 1201 00f2 1A1D     		adds	r2, r3, #4
 1202 00f4 7B6E     		ldr	r3, [r7, #100]
 1203 00f6 1344     		add	r3, r3, r2
 1204 00f8 1B68     		ldr	r3, [r3]
 1205              		.loc 1 249 53 discriminator 3
 1206 00fa 5B10     		asrs	r3, r3, #1
 1207              		.loc 1 249 34 discriminator 3
 1208 00fc 1944     		add	r1, r1, r3
 248:./Libraries/CMSIS/DSP/Source/TransformFunctions/arm_cfft_radix2_q31.c ****       pSrc[2 * i + 1] =
 1209              		.loc 1 248 11 discriminator 3
 1210 00fe D7F89C30 		ldr	r3, [r7, #156]
 1211 0102 DB00     		lsls	r3, r3, #3
 1212 0104 1A1D     		adds	r2, r3, #4
 1213 0106 7B6E     		ldr	r3, [r7, #100]
 1214 0108 1A44     		add	r2, r2, r3
 1215              		.loc 1 249 61 discriminator 3
 1216 010a 4B10     		asrs	r3, r1, #1
 248:./Libraries/CMSIS/DSP/Source/TransformFunctions/arm_cfft_radix2_q31.c ****       pSrc[2 * i + 1] =
 1217              		.loc 1 248 23 discriminator 3
 1218 010c 1360     		str	r3, [r2]
 250:./Libraries/CMSIS/DSP/Source/TransformFunctions/arm_cfft_radix2_q31.c **** 
 251:./Libraries/CMSIS/DSP/Source/TransformFunctions/arm_cfft_radix2_q31.c ****       mult_32x32_keep32_R(p0, xt, cosVal);
 1219              		.loc 1 251 7 discriminator 3
 1220 010e BB6F     		ldr	r3, [r7, #120]
 1221 0110 1846     		mov	r0, r3
 1222 0112 4FEAE071 		asr	r1, r0, #31
 1223 0116 D7F88430 		ldr	r3, [r7, #132]
 1224 011a 1A46     		mov	r2, r3
ARM GAS  /tmp/ccD5e6h5.s 			page 27


 1225 011c 4FEAE273 		asr	r3, r2, #31
 1226 0120 02FB01F5 		mul	r5, r2, r1
 1227 0124 00FB03F4 		mul	r4, r0, r3
 1228 0128 2C44     		add	r4, r4, r5
 1229 012a A0FB0223 		umull	r2, r3, r0, r2
 1230 012e E118     		adds	r1, r4, r3
 1231 0130 0B46     		mov	r3, r1
 1232 0132 12F10041 		adds	r1, r2, #-2147483648
 1233 0136 3965     		str	r1, [r7, #80]
 1234 0138 43F10003 		adc	r3, r3, #0
 1235 013c 7B65     		str	r3, [r7, #84]
 1236 013e 4FF00002 		mov	r2, #0
 1237 0142 4FF00003 		mov	r3, #0
 1238 0146 D7E91445 		ldrd	r4, [r7, #80]
 1239 014a 2946     		mov	r1, r5
 1240 014c 0A00     		movs	r2, r1
 1241 014e 2946     		mov	r1, r5
 1242 0150 CB17     		asrs	r3, r1, #31
 1243 0152 1346     		mov	r3, r2
 1244 0154 3B67     		str	r3, [r7, #112]
 252:./Libraries/CMSIS/DSP/Source/TransformFunctions/arm_cfft_radix2_q31.c ****       mult_32x32_keep32_R(p1, yt, cosVal);
 1245              		.loc 1 252 7 discriminator 3
 1246 0156 7B6F     		ldr	r3, [r7, #116]
 1247 0158 1846     		mov	r0, r3
 1248 015a 4FEAE071 		asr	r1, r0, #31
 1249 015e D7F88430 		ldr	r3, [r7, #132]
 1250 0162 1A46     		mov	r2, r3
 1251 0164 4FEAE273 		asr	r3, r2, #31
 1252 0168 02FB01F5 		mul	r5, r2, r1
 1253 016c 00FB03F4 		mul	r4, r0, r3
 1254 0170 2C44     		add	r4, r4, r5
 1255 0172 A0FB0223 		umull	r2, r3, r0, r2
 1256 0176 E118     		adds	r1, r4, r3
 1257 0178 0B46     		mov	r3, r1
 1258 017a 12F10041 		adds	r1, r2, #-2147483648
 1259 017e B964     		str	r1, [r7, #72]
 1260 0180 43F10003 		adc	r3, r3, #0
 1261 0184 FB64     		str	r3, [r7, #76]
 1262 0186 4FF00002 		mov	r2, #0
 1263 018a 4FF00003 		mov	r3, #0
 1264 018e D7E91245 		ldrd	r4, [r7, #72]
 1265 0192 2946     		mov	r1, r5
 1266 0194 0A00     		movs	r2, r1
 1267 0196 2946     		mov	r1, r5
 1268 0198 CB17     		asrs	r3, r1, #31
 1269 019a 1346     		mov	r3, r2
 1270 019c FB66     		str	r3, [r7, #108]
 253:./Libraries/CMSIS/DSP/Source/TransformFunctions/arm_cfft_radix2_q31.c ****       multSub_32x32_keep32_R(p0, yt, sinVal);
 1271              		.loc 1 253 7 discriminator 3
 1272 019e 3B6F     		ldr	r3, [r7, #112]
 1273 01a0 1A46     		mov	r2, r3
 1274 01a2 4FEAE273 		asr	r3, r2, #31
 1275 01a6 4FF00008 		mov	r8, #0
 1276 01aa 4FF00009 		mov	r9, #0
 1277 01ae 9146     		mov	r9, r2
 1278 01b0 4FF00008 		mov	r8, #0
 1279 01b4 7B6F     		ldr	r3, [r7, #116]
ARM GAS  /tmp/ccD5e6h5.s 			page 28


 1280 01b6 1846     		mov	r0, r3
 1281 01b8 4FEAE071 		asr	r1, r0, #31
 1282 01bc D7F88030 		ldr	r3, [r7, #128]
 1283 01c0 1A46     		mov	r2, r3
 1284 01c2 4FEAE273 		asr	r3, r2, #31
 1285 01c6 02FB01F5 		mul	r5, r2, r1
 1286 01ca 00FB03F4 		mul	r4, r0, r3
 1287 01ce 2C44     		add	r4, r4, r5
 1288 01d0 A0FB0223 		umull	r2, r3, r0, r2
 1289 01d4 E118     		adds	r1, r4, r3
 1290 01d6 0B46     		mov	r3, r1
 1291 01d8 B8EB0201 		subs	r1, r8, r2
 1292 01dc 3964     		str	r1, [r7, #64]
 1293 01de 69EB0303 		sbc	r3, r9, r3
 1294 01e2 7B64     		str	r3, [r7, #68]
 1295 01e4 D7E91012 		ldrd	r1, [r7, #64]
 1296 01e8 0B46     		mov	r3, r1
 1297 01ea 13F10043 		adds	r3, r3, #-2147483648
 1298 01ee BB63     		str	r3, [r7, #56]
 1299 01f0 1346     		mov	r3, r2
 1300 01f2 43F10003 		adc	r3, r3, #0
 1301 01f6 FB63     		str	r3, [r7, #60]
 1302 01f8 4FF00002 		mov	r2, #0
 1303 01fc 4FF00003 		mov	r3, #0
 1304 0200 D7E90E45 		ldrd	r4, [r7, #56]
 1305 0204 2946     		mov	r1, r5
 1306 0206 0A00     		movs	r2, r1
 1307 0208 2946     		mov	r1, r5
 1308 020a CB17     		asrs	r3, r1, #31
 1309 020c 1346     		mov	r3, r2
 1310 020e 3B67     		str	r3, [r7, #112]
 254:./Libraries/CMSIS/DSP/Source/TransformFunctions/arm_cfft_radix2_q31.c ****       multAcc_32x32_keep32_R(p1, xt, sinVal);
 1311              		.loc 1 254 7 discriminator 3
 1312 0210 FB6E     		ldr	r3, [r7, #108]
 1313 0212 1A46     		mov	r2, r3
 1314 0214 4FEAE273 		asr	r3, r2, #31
 1315 0218 4FF00008 		mov	r8, #0
 1316 021c 4FF00009 		mov	r9, #0
 1317 0220 9146     		mov	r9, r2
 1318 0222 4FF00008 		mov	r8, #0
 1319 0226 BB6F     		ldr	r3, [r7, #120]
 1320 0228 1846     		mov	r0, r3
 1321 022a 4FEAE071 		asr	r1, r0, #31
 1322 022e D7F88030 		ldr	r3, [r7, #128]
 1323 0232 1A46     		mov	r2, r3
 1324 0234 4FEAE273 		asr	r3, r2, #31
 1325 0238 02FB01F5 		mul	r5, r2, r1
 1326 023c 00FB03F4 		mul	r4, r0, r3
 1327 0240 2C44     		add	r4, r4, r5
 1328 0242 A0FB0223 		umull	r2, r3, r0, r2
 1329 0246 E118     		adds	r1, r4, r3
 1330 0248 0B46     		mov	r3, r1
 1331 024a 18EB0201 		adds	r1, r8, r2
 1332 024e 3963     		str	r1, [r7, #48]
 1333 0250 49EB0303 		adc	r3, r9, r3
 1334 0254 7B63     		str	r3, [r7, #52]
 1335 0256 D7E90C12 		ldrd	r1, [r7, #48]
ARM GAS  /tmp/ccD5e6h5.s 			page 29


 1336 025a 0B46     		mov	r3, r1
 1337 025c 13F1004A 		adds	r10, r3, #-2147483648
 1338 0260 1346     		mov	r3, r2
 1339 0262 43F1000B 		adc	fp, r3, #0
 1340 0266 4FF00002 		mov	r2, #0
 1341 026a 4FF00003 		mov	r3, #0
 1342 026e 5A46     		mov	r2, fp
 1343 0270 4FEAEB73 		asr	r3, fp, #31
 1344 0274 1346     		mov	r3, r2
 1345 0276 FB66     		str	r3, [r7, #108]
 255:./Libraries/CMSIS/DSP/Source/TransformFunctions/arm_cfft_radix2_q31.c **** 
 256:./Libraries/CMSIS/DSP/Source/TransformFunctions/arm_cfft_radix2_q31.c ****       pSrc[2U * l] = p0;
 1346              		.loc 1 256 11 discriminator 3
 1347 0278 FB6F     		ldr	r3, [r7, #124]
 1348 027a DA00     		lsls	r2, r3, #3
 1349 027c 7B6E     		ldr	r3, [r7, #100]
 1350 027e 1A44     		add	r2, r2, r3
 1351              		.loc 1 256 20 discriminator 3
 1352 0280 3B6F     		ldr	r3, [r7, #112]
 1353 0282 1360     		str	r3, [r2]
 257:./Libraries/CMSIS/DSP/Source/TransformFunctions/arm_cfft_radix2_q31.c ****       pSrc[2U * l + 1U] = p1;
 1354              		.loc 1 257 11 discriminator 3
 1355 0284 FB6F     		ldr	r3, [r7, #124]
 1356 0286 DB00     		lsls	r3, r3, #3
 1357 0288 1A1D     		adds	r2, r3, #4
 1358 028a 7B6E     		ldr	r3, [r7, #100]
 1359 028c 1A44     		add	r2, r2, r3
 1360              		.loc 1 257 25 discriminator 3
 1361 028e FB6E     		ldr	r3, [r7, #108]
 1362 0290 1360     		str	r3, [r2]
 237:./Libraries/CMSIS/DSP/Source/TransformFunctions/arm_cfft_radix2_q31.c ****    {
 1363              		.loc 1 237 25 discriminator 3
 1364 0292 D7F89C30 		ldr	r3, [r7, #156]
 1365 0296 0133     		adds	r3, r3, #1
 1366 0298 C7F89C30 		str	r3, [r7, #156]
 1367              	.L15:
 237:./Libraries/CMSIS/DSP/Source/TransformFunctions/arm_cfft_radix2_q31.c ****    {
 1368              		.loc 1 237 4 discriminator 1
 1369 029c D7F89C20 		ldr	r2, [r7, #156]
 1370 02a0 D7F89030 		ldr	r3, [r7, #144]
 1371 02a4 9A42     		cmp	r2, r3
 1372 02a6 FFF4C7AE 		bcc	.L16
 258:./Libraries/CMSIS/DSP/Source/TransformFunctions/arm_cfft_radix2_q31.c ****    }                             // groups loop end
 259:./Libraries/CMSIS/DSP/Source/TransformFunctions/arm_cfft_radix2_q31.c **** 
 260:./Libraries/CMSIS/DSP/Source/TransformFunctions/arm_cfft_radix2_q31.c ****    twidCoefModifier = twidCoefModifier << 1U;
 1373              		.loc 1 260 21
 1374 02aa B7F85A30 		ldrh	r3, [r7, #90]	@ movhi
 1375 02ae 5B00     		lsls	r3, r3, #1
 1376 02b0 A7F85A30 		strh	r3, [r7, #90]	@ movhi
 261:./Libraries/CMSIS/DSP/Source/TransformFunctions/arm_cfft_radix2_q31.c **** 
 262:./Libraries/CMSIS/DSP/Source/TransformFunctions/arm_cfft_radix2_q31.c ****    // loop for stage
 263:./Libraries/CMSIS/DSP/Source/TransformFunctions/arm_cfft_radix2_q31.c ****    for (k = fftLen / 2; k > 2; k = k >> 1)
 1377              		.loc 1 263 11
 1378 02b4 3B6E     		ldr	r3, [r7, #96]
 1379 02b6 5B08     		lsrs	r3, r3, #1
 1380 02b8 C7F89430 		str	r3, [r7, #148]
 1381              		.loc 1 263 4
ARM GAS  /tmp/ccD5e6h5.s 			page 30


 1382 02bc 61E1     		b	.L17
 1383              	.L22:
 264:./Libraries/CMSIS/DSP/Source/TransformFunctions/arm_cfft_radix2_q31.c ****    {
 265:./Libraries/CMSIS/DSP/Source/TransformFunctions/arm_cfft_radix2_q31.c ****       n1 = n2;
 1384              		.loc 1 265 10
 1385 02be D7F89030 		ldr	r3, [r7, #144]
 1386 02c2 C7F88830 		str	r3, [r7, #136]
 266:./Libraries/CMSIS/DSP/Source/TransformFunctions/arm_cfft_radix2_q31.c ****       n2 = n2 >> 1;
 1387              		.loc 1 266 10
 1388 02c6 D7F89030 		ldr	r3, [r7, #144]
 1389 02ca 5B08     		lsrs	r3, r3, #1
 1390 02cc C7F89030 		str	r3, [r7, #144]
 267:./Libraries/CMSIS/DSP/Source/TransformFunctions/arm_cfft_radix2_q31.c ****       ia = 0;
 1391              		.loc 1 267 10
 1392 02d0 0023     		movs	r3, #0
 1393 02d2 C7F88C30 		str	r3, [r7, #140]
 268:./Libraries/CMSIS/DSP/Source/TransformFunctions/arm_cfft_radix2_q31.c **** 
 269:./Libraries/CMSIS/DSP/Source/TransformFunctions/arm_cfft_radix2_q31.c ****       // loop for groups
 270:./Libraries/CMSIS/DSP/Source/TransformFunctions/arm_cfft_radix2_q31.c ****       for (j = 0; j < n2; j++)
 1394              		.loc 1 270 14
 1395 02d6 0023     		movs	r3, #0
 1396 02d8 C7F89830 		str	r3, [r7, #152]
 1397              		.loc 1 270 7
 1398 02dc 40E1     		b	.L18
 1399              	.L21:
 271:./Libraries/CMSIS/DSP/Source/TransformFunctions/arm_cfft_radix2_q31.c ****       {
 272:./Libraries/CMSIS/DSP/Source/TransformFunctions/arm_cfft_radix2_q31.c ****          cosVal = pCoef[ia * 2];
 1400              		.loc 1 272 24
 1401 02de D7F88C30 		ldr	r3, [r7, #140]
 1402 02e2 DB00     		lsls	r3, r3, #3
 1403 02e4 FA6D     		ldr	r2, [r7, #92]
 1404 02e6 1344     		add	r3, r3, r2
 1405              		.loc 1 272 17
 1406 02e8 1B68     		ldr	r3, [r3]
 1407 02ea C7F88430 		str	r3, [r7, #132]
 273:./Libraries/CMSIS/DSP/Source/TransformFunctions/arm_cfft_radix2_q31.c ****          sinVal = pCoef[(ia * 2) + 1];
 1408              		.loc 1 273 24
 1409 02ee D7F88C30 		ldr	r3, [r7, #140]
 1410 02f2 DB00     		lsls	r3, r3, #3
 1411 02f4 0433     		adds	r3, r3, #4
 1412 02f6 FA6D     		ldr	r2, [r7, #92]
 1413 02f8 1344     		add	r3, r3, r2
 1414              		.loc 1 273 17
 1415 02fa 1B68     		ldr	r3, [r3]
 1416 02fc C7F88030 		str	r3, [r7, #128]
 274:./Libraries/CMSIS/DSP/Source/TransformFunctions/arm_cfft_radix2_q31.c ****          ia = ia + twidCoefModifier;
 1417              		.loc 1 274 18
 1418 0300 B7F85A30 		ldrh	r3, [r7, #90]
 1419              		.loc 1 274 13
 1420 0304 D7F88C20 		ldr	r2, [r7, #140]
 1421 0308 1344     		add	r3, r3, r2
 1422 030a C7F88C30 		str	r3, [r7, #140]
 275:./Libraries/CMSIS/DSP/Source/TransformFunctions/arm_cfft_radix2_q31.c **** 
 276:./Libraries/CMSIS/DSP/Source/TransformFunctions/arm_cfft_radix2_q31.c ****          // loop for butterfly
 277:./Libraries/CMSIS/DSP/Source/TransformFunctions/arm_cfft_radix2_q31.c ****          for (i = j; i < fftLen; i += n1)
 1423              		.loc 1 277 17
 1424 030e D7F89830 		ldr	r3, [r7, #152]
ARM GAS  /tmp/ccD5e6h5.s 			page 31


 1425 0312 C7F89C30 		str	r3, [r7, #156]
 1426              		.loc 1 277 10
 1427 0316 18E1     		b	.L19
 1428              	.L20:
 278:./Libraries/CMSIS/DSP/Source/TransformFunctions/arm_cfft_radix2_q31.c ****          {
 279:./Libraries/CMSIS/DSP/Source/TransformFunctions/arm_cfft_radix2_q31.c ****             l = i + n2;
 1429              		.loc 1 279 15 discriminator 3
 1430 0318 D7F89C20 		ldr	r2, [r7, #156]
 1431 031c D7F89030 		ldr	r3, [r7, #144]
 1432 0320 1344     		add	r3, r3, r2
 1433 0322 FB67     		str	r3, [r7, #124]
 280:./Libraries/CMSIS/DSP/Source/TransformFunctions/arm_cfft_radix2_q31.c ****             xt = pSrc[2 * i] - pSrc[2 * l];
 1434              		.loc 1 280 22 discriminator 3
 1435 0324 D7F89C30 		ldr	r3, [r7, #156]
 1436 0328 DB00     		lsls	r3, r3, #3
 1437 032a 7A6E     		ldr	r2, [r7, #100]
 1438 032c 1344     		add	r3, r3, r2
 1439 032e 1968     		ldr	r1, [r3]
 1440              		.loc 1 280 36 discriminator 3
 1441 0330 FB6F     		ldr	r3, [r7, #124]
 1442 0332 DA00     		lsls	r2, r3, #3
 1443 0334 7B6E     		ldr	r3, [r7, #100]
 1444 0336 1344     		add	r3, r3, r2
 1445 0338 1B68     		ldr	r3, [r3]
 1446              		.loc 1 280 16 discriminator 3
 1447 033a CB1A     		subs	r3, r1, r3
 1448 033c BB67     		str	r3, [r7, #120]
 281:./Libraries/CMSIS/DSP/Source/TransformFunctions/arm_cfft_radix2_q31.c ****             pSrc[2 * i] = (pSrc[2 * i] + pSrc[2 * l]) >> 1U;
 1449              		.loc 1 281 32 discriminator 3
 1450 033e D7F89C30 		ldr	r3, [r7, #156]
 1451 0342 DB00     		lsls	r3, r3, #3
 1452 0344 7A6E     		ldr	r2, [r7, #100]
 1453 0346 1344     		add	r3, r3, r2
 1454 0348 1968     		ldr	r1, [r3]
 1455              		.loc 1 281 46 discriminator 3
 1456 034a FB6F     		ldr	r3, [r7, #124]
 1457 034c DA00     		lsls	r2, r3, #3
 1458 034e 7B6E     		ldr	r3, [r7, #100]
 1459 0350 1344     		add	r3, r3, r2
 1460 0352 1B68     		ldr	r3, [r3]
 1461              		.loc 1 281 40 discriminator 3
 1462 0354 1944     		add	r1, r1, r3
 1463              		.loc 1 281 17 discriminator 3
 1464 0356 D7F89C30 		ldr	r3, [r7, #156]
 1465 035a DA00     		lsls	r2, r3, #3
 1466 035c 7B6E     		ldr	r3, [r7, #100]
 1467 035e 1A44     		add	r2, r2, r3
 1468              		.loc 1 281 55 discriminator 3
 1469 0360 4B10     		asrs	r3, r1, #1
 1470              		.loc 1 281 25 discriminator 3
 1471 0362 1360     		str	r3, [r2]
 282:./Libraries/CMSIS/DSP/Source/TransformFunctions/arm_cfft_radix2_q31.c **** 
 283:./Libraries/CMSIS/DSP/Source/TransformFunctions/arm_cfft_radix2_q31.c ****             yt = pSrc[2 * i + 1] - pSrc[2 * l + 1];
 1472              		.loc 1 283 22 discriminator 3
 1473 0364 D7F89C30 		ldr	r3, [r7, #156]
 1474 0368 DB00     		lsls	r3, r3, #3
 1475 036a 0433     		adds	r3, r3, #4
ARM GAS  /tmp/ccD5e6h5.s 			page 32


 1476 036c 7A6E     		ldr	r2, [r7, #100]
 1477 036e 1344     		add	r3, r3, r2
 1478 0370 1968     		ldr	r1, [r3]
 1479              		.loc 1 283 40 discriminator 3
 1480 0372 FB6F     		ldr	r3, [r7, #124]
 1481 0374 DB00     		lsls	r3, r3, #3
 1482 0376 1A1D     		adds	r2, r3, #4
 1483 0378 7B6E     		ldr	r3, [r7, #100]
 1484 037a 1344     		add	r3, r3, r2
 1485 037c 1B68     		ldr	r3, [r3]
 1486              		.loc 1 283 16 discriminator 3
 1487 037e CB1A     		subs	r3, r1, r3
 1488 0380 7B67     		str	r3, [r7, #116]
 284:./Libraries/CMSIS/DSP/Source/TransformFunctions/arm_cfft_radix2_q31.c ****             pSrc[2 * i + 1] = (pSrc[2 * l + 1] + pSrc[2 * i + 1]) >> 1U;
 1489              		.loc 1 284 36 discriminator 3
 1490 0382 FB6F     		ldr	r3, [r7, #124]
 1491 0384 DB00     		lsls	r3, r3, #3
 1492 0386 0433     		adds	r3, r3, #4
 1493 0388 7A6E     		ldr	r2, [r7, #100]
 1494 038a 1344     		add	r3, r3, r2
 1495 038c 1968     		ldr	r1, [r3]
 1496              		.loc 1 284 54 discriminator 3
 1497 038e D7F89C30 		ldr	r3, [r7, #156]
 1498 0392 DB00     		lsls	r3, r3, #3
 1499 0394 1A1D     		adds	r2, r3, #4
 1500 0396 7B6E     		ldr	r3, [r7, #100]
 1501 0398 1344     		add	r3, r3, r2
 1502 039a 1B68     		ldr	r3, [r3]
 1503              		.loc 1 284 48 discriminator 3
 1504 039c 1944     		add	r1, r1, r3
 1505              		.loc 1 284 17 discriminator 3
 1506 039e D7F89C30 		ldr	r3, [r7, #156]
 1507 03a2 DB00     		lsls	r3, r3, #3
 1508 03a4 1A1D     		adds	r2, r3, #4
 1509 03a6 7B6E     		ldr	r3, [r7, #100]
 1510 03a8 1A44     		add	r2, r2, r3
 1511              		.loc 1 284 67 discriminator 3
 1512 03aa 4B10     		asrs	r3, r1, #1
 1513              		.loc 1 284 29 discriminator 3
 1514 03ac 1360     		str	r3, [r2]
 285:./Libraries/CMSIS/DSP/Source/TransformFunctions/arm_cfft_radix2_q31.c **** 
 286:./Libraries/CMSIS/DSP/Source/TransformFunctions/arm_cfft_radix2_q31.c ****             mult_32x32_keep32_R(p0, xt, cosVal);
 1515              		.loc 1 286 13 discriminator 3
 1516 03ae BB6F     		ldr	r3, [r7, #120]
 1517 03b0 1846     		mov	r0, r3
 1518 03b2 4FEAE071 		asr	r1, r0, #31
 1519 03b6 D7F88430 		ldr	r3, [r7, #132]
 1520 03ba 1A46     		mov	r2, r3
 1521 03bc 4FEAE273 		asr	r3, r2, #31
 1522 03c0 02FB01F5 		mul	r5, r2, r1
 1523 03c4 00FB03F4 		mul	r4, r0, r3
 1524 03c8 2C44     		add	r4, r4, r5
 1525 03ca A0FB0223 		umull	r2, r3, r0, r2
 1526 03ce E118     		adds	r1, r4, r3
 1527 03d0 0B46     		mov	r3, r1
 1528 03d2 12F10041 		adds	r1, r2, #-2147483648
 1529 03d6 B962     		str	r1, [r7, #40]
ARM GAS  /tmp/ccD5e6h5.s 			page 33


 1530 03d8 43F10003 		adc	r3, r3, #0
 1531 03dc FB62     		str	r3, [r7, #44]
 1532 03de 4FF00002 		mov	r2, #0
 1533 03e2 4FF00003 		mov	r3, #0
 1534 03e6 D7E90A45 		ldrd	r4, [r7, #40]
 1535 03ea 2946     		mov	r1, r5
 1536 03ec 0A00     		movs	r2, r1
 1537 03ee 2946     		mov	r1, r5
 1538 03f0 CB17     		asrs	r3, r1, #31
 1539 03f2 1346     		mov	r3, r2
 1540 03f4 3B67     		str	r3, [r7, #112]
 287:./Libraries/CMSIS/DSP/Source/TransformFunctions/arm_cfft_radix2_q31.c ****             mult_32x32_keep32_R(p1, yt, cosVal);
 1541              		.loc 1 287 13 discriminator 3
 1542 03f6 7B6F     		ldr	r3, [r7, #116]
 1543 03f8 1846     		mov	r0, r3
 1544 03fa 4FEAE071 		asr	r1, r0, #31
 1545 03fe D7F88430 		ldr	r3, [r7, #132]
 1546 0402 1A46     		mov	r2, r3
 1547 0404 4FEAE273 		asr	r3, r2, #31
 1548 0408 02FB01F5 		mul	r5, r2, r1
 1549 040c 00FB03F4 		mul	r4, r0, r3
 1550 0410 2C44     		add	r4, r4, r5
 1551 0412 A0FB0223 		umull	r2, r3, r0, r2
 1552 0416 E118     		adds	r1, r4, r3
 1553 0418 0B46     		mov	r3, r1
 1554 041a 12F10041 		adds	r1, r2, #-2147483648
 1555 041e 3962     		str	r1, [r7, #32]
 1556 0420 43F10003 		adc	r3, r3, #0
 1557 0424 7B62     		str	r3, [r7, #36]
 1558 0426 4FF00002 		mov	r2, #0
 1559 042a 4FF00003 		mov	r3, #0
 1560 042e D7E90845 		ldrd	r4, [r7, #32]
 1561 0432 2946     		mov	r1, r5
 1562 0434 0A00     		movs	r2, r1
 1563 0436 2946     		mov	r1, r5
 1564 0438 CB17     		asrs	r3, r1, #31
 1565 043a 1346     		mov	r3, r2
 1566 043c FB66     		str	r3, [r7, #108]
 288:./Libraries/CMSIS/DSP/Source/TransformFunctions/arm_cfft_radix2_q31.c ****             multSub_32x32_keep32_R(p0, yt, sinVal);
 1567              		.loc 1 288 13 discriminator 3
 1568 043e 3B6F     		ldr	r3, [r7, #112]
 1569 0440 1A46     		mov	r2, r3
 1570 0442 4FEAE273 		asr	r3, r2, #31
 1571 0446 4FF00008 		mov	r8, #0
 1572 044a 4FF00009 		mov	r9, #0
 1573 044e 9146     		mov	r9, r2
 1574 0450 4FF00008 		mov	r8, #0
 1575 0454 7B6F     		ldr	r3, [r7, #116]
 1576 0456 1846     		mov	r0, r3
 1577 0458 4FEAE071 		asr	r1, r0, #31
 1578 045c D7F88030 		ldr	r3, [r7, #128]
 1579 0460 1A46     		mov	r2, r3
 1580 0462 4FEAE273 		asr	r3, r2, #31
 1581 0466 02FB01F5 		mul	r5, r2, r1
 1582 046a 00FB03F4 		mul	r4, r0, r3
 1583 046e 2C44     		add	r4, r4, r5
 1584 0470 A0FB0223 		umull	r2, r3, r0, r2
ARM GAS  /tmp/ccD5e6h5.s 			page 34


 1585 0474 E118     		adds	r1, r4, r3
 1586 0476 0B46     		mov	r3, r1
 1587 0478 B8EB0201 		subs	r1, r8, r2
 1588 047c B961     		str	r1, [r7, #24]
 1589 047e 69EB0303 		sbc	r3, r9, r3
 1590 0482 FB61     		str	r3, [r7, #28]
 1591 0484 D7E90612 		ldrd	r1, [r7, #24]
 1592 0488 0B46     		mov	r3, r1
 1593 048a 13F10043 		adds	r3, r3, #-2147483648
 1594 048e 3B61     		str	r3, [r7, #16]
 1595 0490 1346     		mov	r3, r2
 1596 0492 43F10003 		adc	r3, r3, #0
 1597 0496 7B61     		str	r3, [r7, #20]
 1598 0498 4FF00002 		mov	r2, #0
 1599 049c 4FF00003 		mov	r3, #0
 1600 04a0 D7E90445 		ldrd	r4, [r7, #16]
 1601 04a4 2946     		mov	r1, r5
 1602 04a6 0A00     		movs	r2, r1
 1603 04a8 2946     		mov	r1, r5
 1604 04aa CB17     		asrs	r3, r1, #31
 1605 04ac 1346     		mov	r3, r2
 1606 04ae 3B67     		str	r3, [r7, #112]
 289:./Libraries/CMSIS/DSP/Source/TransformFunctions/arm_cfft_radix2_q31.c ****             multAcc_32x32_keep32_R(p1, xt, sinVal);
 1607              		.loc 1 289 13 discriminator 3
 1608 04b0 FB6E     		ldr	r3, [r7, #108]
 1609 04b2 1A46     		mov	r2, r3
 1610 04b4 4FEAE273 		asr	r3, r2, #31
 1611 04b8 4FF00008 		mov	r8, #0
 1612 04bc 4FF00009 		mov	r9, #0
 1613 04c0 9146     		mov	r9, r2
 1614 04c2 4FF00008 		mov	r8, #0
 1615 04c6 BB6F     		ldr	r3, [r7, #120]
 1616 04c8 1846     		mov	r0, r3
 1617 04ca 4FEAE071 		asr	r1, r0, #31
 1618 04ce D7F88030 		ldr	r3, [r7, #128]
 1619 04d2 1A46     		mov	r2, r3
 1620 04d4 4FEAE273 		asr	r3, r2, #31
 1621 04d8 02FB01F5 		mul	r5, r2, r1
 1622 04dc 00FB03F4 		mul	r4, r0, r3
 1623 04e0 2C44     		add	r4, r4, r5
 1624 04e2 A0FB0223 		umull	r2, r3, r0, r2
 1625 04e6 E118     		adds	r1, r4, r3
 1626 04e8 0B46     		mov	r3, r1
 1627 04ea 18EB0201 		adds	r1, r8, r2
 1628 04ee B960     		str	r1, [r7, #8]
 1629 04f0 49EB0303 		adc	r3, r9, r3
 1630 04f4 FB60     		str	r3, [r7, #12]
 1631 04f6 D7E90212 		ldrd	r1, [r7, #8]
 1632 04fa 0B46     		mov	r3, r1
 1633 04fc 13F10043 		adds	r3, r3, #-2147483648
 1634 0500 3B60     		str	r3, [r7]
 1635 0502 1346     		mov	r3, r2
 1636 0504 43F10003 		adc	r3, r3, #0
 1637 0508 7B60     		str	r3, [r7, #4]
 1638 050a 4FF00002 		mov	r2, #0
 1639 050e 4FF00003 		mov	r3, #0
 1640 0512 D7E90045 		ldrd	r4, [r7]
ARM GAS  /tmp/ccD5e6h5.s 			page 35


 1641 0516 2946     		mov	r1, r5
 1642 0518 0A00     		movs	r2, r1
 1643 051a 2946     		mov	r1, r5
 1644 051c CB17     		asrs	r3, r1, #31
 1645 051e 1346     		mov	r3, r2
 1646 0520 FB66     		str	r3, [r7, #108]
 290:./Libraries/CMSIS/DSP/Source/TransformFunctions/arm_cfft_radix2_q31.c **** 
 291:./Libraries/CMSIS/DSP/Source/TransformFunctions/arm_cfft_radix2_q31.c ****             pSrc[2U * l] = p0;
 1647              		.loc 1 291 17 discriminator 3
 1648 0522 FB6F     		ldr	r3, [r7, #124]
 1649 0524 DB00     		lsls	r3, r3, #3
 1650 0526 7A6E     		ldr	r2, [r7, #100]
 1651 0528 1344     		add	r3, r3, r2
 1652              		.loc 1 291 26 discriminator 3
 1653 052a 3A6F     		ldr	r2, [r7, #112]
 1654 052c 1A60     		str	r2, [r3]
 292:./Libraries/CMSIS/DSP/Source/TransformFunctions/arm_cfft_radix2_q31.c ****             pSrc[2U * l + 1U] = p1;
 1655              		.loc 1 292 17 discriminator 3
 1656 052e FB6F     		ldr	r3, [r7, #124]
 1657 0530 DB00     		lsls	r3, r3, #3
 1658 0532 0433     		adds	r3, r3, #4
 1659 0534 7A6E     		ldr	r2, [r7, #100]
 1660 0536 1344     		add	r3, r3, r2
 1661              		.loc 1 292 31 discriminator 3
 1662 0538 FA6E     		ldr	r2, [r7, #108]
 1663 053a 1A60     		str	r2, [r3]
 277:./Libraries/CMSIS/DSP/Source/TransformFunctions/arm_cfft_radix2_q31.c ****          {
 1664              		.loc 1 277 36 discriminator 3
 1665 053c D7F89C20 		ldr	r2, [r7, #156]
 1666 0540 D7F88830 		ldr	r3, [r7, #136]
 1667 0544 1344     		add	r3, r3, r2
 1668 0546 C7F89C30 		str	r3, [r7, #156]
 1669              	.L19:
 277:./Libraries/CMSIS/DSP/Source/TransformFunctions/arm_cfft_radix2_q31.c ****          {
 1670              		.loc 1 277 10 discriminator 1
 1671 054a D7F89C20 		ldr	r2, [r7, #156]
 1672 054e 3B6E     		ldr	r3, [r7, #96]
 1673 0550 9A42     		cmp	r2, r3
 1674 0552 FFF4E1AE 		bcc	.L20
 270:./Libraries/CMSIS/DSP/Source/TransformFunctions/arm_cfft_radix2_q31.c ****       {
 1675              		.loc 1 270 28 discriminator 2
 1676 0556 D7F89830 		ldr	r3, [r7, #152]
 1677 055a 0133     		adds	r3, r3, #1
 1678 055c C7F89830 		str	r3, [r7, #152]
 1679              	.L18:
 270:./Libraries/CMSIS/DSP/Source/TransformFunctions/arm_cfft_radix2_q31.c ****       {
 1680              		.loc 1 270 7 discriminator 1
 1681 0560 D7F89820 		ldr	r2, [r7, #152]
 1682 0564 D7F89030 		ldr	r3, [r7, #144]
 1683 0568 9A42     		cmp	r2, r3
 1684 056a FFF4B8AE 		bcc	.L21
 293:./Libraries/CMSIS/DSP/Source/TransformFunctions/arm_cfft_radix2_q31.c ****          }                         // butterfly loop end
 294:./Libraries/CMSIS/DSP/Source/TransformFunctions/arm_cfft_radix2_q31.c **** 
 295:./Libraries/CMSIS/DSP/Source/TransformFunctions/arm_cfft_radix2_q31.c ****       }                           // groups loop end
 296:./Libraries/CMSIS/DSP/Source/TransformFunctions/arm_cfft_radix2_q31.c **** 
 297:./Libraries/CMSIS/DSP/Source/TransformFunctions/arm_cfft_radix2_q31.c ****       twidCoefModifier = twidCoefModifier << 1U;
 1685              		.loc 1 297 24 discriminator 2
ARM GAS  /tmp/ccD5e6h5.s 			page 36


 1686 056e B7F85A30 		ldrh	r3, [r7, #90]	@ movhi
 1687 0572 5B00     		lsls	r3, r3, #1
 1688 0574 A7F85A30 		strh	r3, [r7, #90]	@ movhi
 263:./Libraries/CMSIS/DSP/Source/TransformFunctions/arm_cfft_radix2_q31.c ****    {
 1689              		.loc 1 263 34 discriminator 2
 1690 0578 D7F89430 		ldr	r3, [r7, #148]
 1691 057c 5B08     		lsrs	r3, r3, #1
 1692 057e C7F89430 		str	r3, [r7, #148]
 1693              	.L17:
 263:./Libraries/CMSIS/DSP/Source/TransformFunctions/arm_cfft_radix2_q31.c ****    {
 1694              		.loc 1 263 4 discriminator 1
 1695 0582 D7F89430 		ldr	r3, [r7, #148]
 1696 0586 022B     		cmp	r3, #2
 1697 0588 3FF699AE 		bhi	.L22
 298:./Libraries/CMSIS/DSP/Source/TransformFunctions/arm_cfft_radix2_q31.c ****    }                             // stages loop end
 299:./Libraries/CMSIS/DSP/Source/TransformFunctions/arm_cfft_radix2_q31.c **** 
 300:./Libraries/CMSIS/DSP/Source/TransformFunctions/arm_cfft_radix2_q31.c ****    n1 = n2;
 1698              		.loc 1 300 7
 1699 058c D7F89030 		ldr	r3, [r7, #144]
 1700 0590 C7F88830 		str	r3, [r7, #136]
 301:./Libraries/CMSIS/DSP/Source/TransformFunctions/arm_cfft_radix2_q31.c ****    n2 = n2 >> 1;
 1701              		.loc 1 301 7
 1702 0594 D7F89030 		ldr	r3, [r7, #144]
 1703 0598 5B08     		lsrs	r3, r3, #1
 1704 059a C7F89030 		str	r3, [r7, #144]
 302:./Libraries/CMSIS/DSP/Source/TransformFunctions/arm_cfft_radix2_q31.c ****    ia = 0;
 1705              		.loc 1 302 7
 1706 059e 0023     		movs	r3, #0
 1707 05a0 C7F88C30 		str	r3, [r7, #140]
 303:./Libraries/CMSIS/DSP/Source/TransformFunctions/arm_cfft_radix2_q31.c **** 
 304:./Libraries/CMSIS/DSP/Source/TransformFunctions/arm_cfft_radix2_q31.c ****    cosVal = pCoef[ia * 2];
 1708              		.loc 1 304 18
 1709 05a4 D7F88C30 		ldr	r3, [r7, #140]
 1710 05a8 DB00     		lsls	r3, r3, #3
 1711 05aa FA6D     		ldr	r2, [r7, #92]
 1712 05ac 1344     		add	r3, r3, r2
 1713              		.loc 1 304 11
 1714 05ae 1B68     		ldr	r3, [r3]
 1715 05b0 C7F88430 		str	r3, [r7, #132]
 305:./Libraries/CMSIS/DSP/Source/TransformFunctions/arm_cfft_radix2_q31.c ****    sinVal = pCoef[(ia * 2) + 1];
 1716              		.loc 1 305 18
 1717 05b4 D7F88C30 		ldr	r3, [r7, #140]
 1718 05b8 DB00     		lsls	r3, r3, #3
 1719 05ba 0433     		adds	r3, r3, #4
 1720 05bc FA6D     		ldr	r2, [r7, #92]
 1721 05be 1344     		add	r3, r3, r2
 1722              		.loc 1 305 11
 1723 05c0 1B68     		ldr	r3, [r3]
 1724 05c2 C7F88030 		str	r3, [r7, #128]
 306:./Libraries/CMSIS/DSP/Source/TransformFunctions/arm_cfft_radix2_q31.c ****    ia = ia + twidCoefModifier;
 1725              		.loc 1 306 12
 1726 05c6 B7F85A30 		ldrh	r3, [r7, #90]
 1727              		.loc 1 306 7
 1728 05ca D7F88C20 		ldr	r2, [r7, #140]
 1729 05ce 1344     		add	r3, r3, r2
 1730 05d0 C7F88C30 		str	r3, [r7, #140]
 307:./Libraries/CMSIS/DSP/Source/TransformFunctions/arm_cfft_radix2_q31.c **** 
ARM GAS  /tmp/ccD5e6h5.s 			page 37


 308:./Libraries/CMSIS/DSP/Source/TransformFunctions/arm_cfft_radix2_q31.c ****    // loop for butterfly
 309:./Libraries/CMSIS/DSP/Source/TransformFunctions/arm_cfft_radix2_q31.c ****    for (i = 0; i < fftLen; i += n1)
 1731              		.loc 1 309 11
 1732 05d4 0023     		movs	r3, #0
 1733 05d6 C7F89C30 		str	r3, [r7, #156]
 1734              		.loc 1 309 4
 1735 05da B9E0     		b	.L23
 1736              	.L24:
 310:./Libraries/CMSIS/DSP/Source/TransformFunctions/arm_cfft_radix2_q31.c ****    {
 311:./Libraries/CMSIS/DSP/Source/TransformFunctions/arm_cfft_radix2_q31.c ****       l = i + n2;
 1737              		.loc 1 311 9 discriminator 3
 1738 05dc D7F89C20 		ldr	r2, [r7, #156]
 1739 05e0 D7F89030 		ldr	r3, [r7, #144]
 1740 05e4 1344     		add	r3, r3, r2
 1741 05e6 FB67     		str	r3, [r7, #124]
 312:./Libraries/CMSIS/DSP/Source/TransformFunctions/arm_cfft_radix2_q31.c ****       xt = pSrc[2 * i] - pSrc[2 * l];
 1742              		.loc 1 312 16 discriminator 3
 1743 05e8 D7F89C30 		ldr	r3, [r7, #156]
 1744 05ec DB00     		lsls	r3, r3, #3
 1745 05ee 7A6E     		ldr	r2, [r7, #100]
 1746 05f0 1344     		add	r3, r3, r2
 1747 05f2 1A68     		ldr	r2, [r3]
 1748              		.loc 1 312 30 discriminator 3
 1749 05f4 FB6F     		ldr	r3, [r7, #124]
 1750 05f6 DB00     		lsls	r3, r3, #3
 1751 05f8 796E     		ldr	r1, [r7, #100]
 1752 05fa 0B44     		add	r3, r3, r1
 1753 05fc 1B68     		ldr	r3, [r3]
 1754              		.loc 1 312 10 discriminator 3
 1755 05fe D31A     		subs	r3, r2, r3
 1756 0600 BB67     		str	r3, [r7, #120]
 313:./Libraries/CMSIS/DSP/Source/TransformFunctions/arm_cfft_radix2_q31.c ****       pSrc[2 * i] = (pSrc[2 * i] + pSrc[2 * l]);
 1757              		.loc 1 313 26 discriminator 3
 1758 0602 D7F89C30 		ldr	r3, [r7, #156]
 1759 0606 DB00     		lsls	r3, r3, #3
 1760 0608 7A6E     		ldr	r2, [r7, #100]
 1761 060a 1344     		add	r3, r3, r2
 1762 060c 1968     		ldr	r1, [r3]
 1763              		.loc 1 313 40 discriminator 3
 1764 060e FB6F     		ldr	r3, [r7, #124]
 1765 0610 DB00     		lsls	r3, r3, #3
 1766 0612 7A6E     		ldr	r2, [r7, #100]
 1767 0614 1344     		add	r3, r3, r2
 1768 0616 1A68     		ldr	r2, [r3]
 1769              		.loc 1 313 11 discriminator 3
 1770 0618 D7F89C30 		ldr	r3, [r7, #156]
 1771 061c DB00     		lsls	r3, r3, #3
 1772 061e 786E     		ldr	r0, [r7, #100]
 1773 0620 0344     		add	r3, r3, r0
 1774              		.loc 1 313 34 discriminator 3
 1775 0622 0A44     		add	r2, r2, r1
 1776              		.loc 1 313 19 discriminator 3
 1777 0624 1A60     		str	r2, [r3]
 314:./Libraries/CMSIS/DSP/Source/TransformFunctions/arm_cfft_radix2_q31.c **** 
 315:./Libraries/CMSIS/DSP/Source/TransformFunctions/arm_cfft_radix2_q31.c ****       yt = pSrc[2 * i + 1] - pSrc[2 * l + 1];
 1778              		.loc 1 315 16 discriminator 3
 1779 0626 D7F89C30 		ldr	r3, [r7, #156]
ARM GAS  /tmp/ccD5e6h5.s 			page 38


 1780 062a DB00     		lsls	r3, r3, #3
 1781 062c 0433     		adds	r3, r3, #4
 1782 062e 7A6E     		ldr	r2, [r7, #100]
 1783 0630 1344     		add	r3, r3, r2
 1784 0632 1A68     		ldr	r2, [r3]
 1785              		.loc 1 315 34 discriminator 3
 1786 0634 FB6F     		ldr	r3, [r7, #124]
 1787 0636 DB00     		lsls	r3, r3, #3
 1788 0638 0433     		adds	r3, r3, #4
 1789 063a 796E     		ldr	r1, [r7, #100]
 1790 063c 0B44     		add	r3, r3, r1
 1791 063e 1B68     		ldr	r3, [r3]
 1792              		.loc 1 315 10 discriminator 3
 1793 0640 D31A     		subs	r3, r2, r3
 1794 0642 7B67     		str	r3, [r7, #116]
 316:./Libraries/CMSIS/DSP/Source/TransformFunctions/arm_cfft_radix2_q31.c ****       pSrc[2 * i + 1] = (pSrc[2 * l + 1] + pSrc[2 * i + 1]);
 1795              		.loc 1 316 30 discriminator 3
 1796 0644 FB6F     		ldr	r3, [r7, #124]
 1797 0646 DB00     		lsls	r3, r3, #3
 1798 0648 0433     		adds	r3, r3, #4
 1799 064a 7A6E     		ldr	r2, [r7, #100]
 1800 064c 1344     		add	r3, r3, r2
 1801 064e 1968     		ldr	r1, [r3]
 1802              		.loc 1 316 48 discriminator 3
 1803 0650 D7F89C30 		ldr	r3, [r7, #156]
 1804 0654 DB00     		lsls	r3, r3, #3
 1805 0656 0433     		adds	r3, r3, #4
 1806 0658 7A6E     		ldr	r2, [r7, #100]
 1807 065a 1344     		add	r3, r3, r2
 1808 065c 1A68     		ldr	r2, [r3]
 1809              		.loc 1 316 11 discriminator 3
 1810 065e D7F89C30 		ldr	r3, [r7, #156]
 1811 0662 DB00     		lsls	r3, r3, #3
 1812 0664 0433     		adds	r3, r3, #4
 1813 0666 786E     		ldr	r0, [r7, #100]
 1814 0668 0344     		add	r3, r3, r0
 1815              		.loc 1 316 42 discriminator 3
 1816 066a 0A44     		add	r2, r2, r1
 1817              		.loc 1 316 23 discriminator 3
 1818 066c 1A60     		str	r2, [r3]
 317:./Libraries/CMSIS/DSP/Source/TransformFunctions/arm_cfft_radix2_q31.c **** 
 318:./Libraries/CMSIS/DSP/Source/TransformFunctions/arm_cfft_radix2_q31.c ****       pSrc[2U * l] = xt;
 1819              		.loc 1 318 11 discriminator 3
 1820 066e FB6F     		ldr	r3, [r7, #124]
 1821 0670 DB00     		lsls	r3, r3, #3
 1822 0672 7A6E     		ldr	r2, [r7, #100]
 1823 0674 1344     		add	r3, r3, r2
 1824              		.loc 1 318 20 discriminator 3
 1825 0676 BA6F     		ldr	r2, [r7, #120]
 1826 0678 1A60     		str	r2, [r3]
 319:./Libraries/CMSIS/DSP/Source/TransformFunctions/arm_cfft_radix2_q31.c **** 
 320:./Libraries/CMSIS/DSP/Source/TransformFunctions/arm_cfft_radix2_q31.c ****       pSrc[2U * l + 1U] = yt;
 1827              		.loc 1 320 11 discriminator 3
 1828 067a FB6F     		ldr	r3, [r7, #124]
 1829 067c DB00     		lsls	r3, r3, #3
 1830 067e 0433     		adds	r3, r3, #4
 1831 0680 7A6E     		ldr	r2, [r7, #100]
ARM GAS  /tmp/ccD5e6h5.s 			page 39


 1832 0682 1344     		add	r3, r3, r2
 1833              		.loc 1 320 25 discriminator 3
 1834 0684 7A6F     		ldr	r2, [r7, #116]
 1835 0686 1A60     		str	r2, [r3]
 321:./Libraries/CMSIS/DSP/Source/TransformFunctions/arm_cfft_radix2_q31.c **** 
 322:./Libraries/CMSIS/DSP/Source/TransformFunctions/arm_cfft_radix2_q31.c ****       i += n1;
 1836              		.loc 1 322 9 discriminator 3
 1837 0688 D7F89C20 		ldr	r2, [r7, #156]
 1838 068c D7F88830 		ldr	r3, [r7, #136]
 1839 0690 1344     		add	r3, r3, r2
 1840 0692 C7F89C30 		str	r3, [r7, #156]
 323:./Libraries/CMSIS/DSP/Source/TransformFunctions/arm_cfft_radix2_q31.c ****       l = i + n2;
 1841              		.loc 1 323 9 discriminator 3
 1842 0696 D7F89C20 		ldr	r2, [r7, #156]
 1843 069a D7F89030 		ldr	r3, [r7, #144]
 1844 069e 1344     		add	r3, r3, r2
 1845 06a0 FB67     		str	r3, [r7, #124]
 324:./Libraries/CMSIS/DSP/Source/TransformFunctions/arm_cfft_radix2_q31.c **** 
 325:./Libraries/CMSIS/DSP/Source/TransformFunctions/arm_cfft_radix2_q31.c ****       xt = pSrc[2 * i] - pSrc[2 * l];
 1846              		.loc 1 325 16 discriminator 3
 1847 06a2 D7F89C30 		ldr	r3, [r7, #156]
 1848 06a6 DB00     		lsls	r3, r3, #3
 1849 06a8 7A6E     		ldr	r2, [r7, #100]
 1850 06aa 1344     		add	r3, r3, r2
 1851 06ac 1A68     		ldr	r2, [r3]
 1852              		.loc 1 325 30 discriminator 3
 1853 06ae FB6F     		ldr	r3, [r7, #124]
 1854 06b0 DB00     		lsls	r3, r3, #3
 1855 06b2 796E     		ldr	r1, [r7, #100]
 1856 06b4 0B44     		add	r3, r3, r1
 1857 06b6 1B68     		ldr	r3, [r3]
 1858              		.loc 1 325 10 discriminator 3
 1859 06b8 D31A     		subs	r3, r2, r3
 1860 06ba BB67     		str	r3, [r7, #120]
 326:./Libraries/CMSIS/DSP/Source/TransformFunctions/arm_cfft_radix2_q31.c ****       pSrc[2 * i] = (pSrc[2 * i] + pSrc[2 * l]);
 1861              		.loc 1 326 26 discriminator 3
 1862 06bc D7F89C30 		ldr	r3, [r7, #156]
 1863 06c0 DB00     		lsls	r3, r3, #3
 1864 06c2 7A6E     		ldr	r2, [r7, #100]
 1865 06c4 1344     		add	r3, r3, r2
 1866 06c6 1968     		ldr	r1, [r3]
 1867              		.loc 1 326 40 discriminator 3
 1868 06c8 FB6F     		ldr	r3, [r7, #124]
 1869 06ca DB00     		lsls	r3, r3, #3
 1870 06cc 7A6E     		ldr	r2, [r7, #100]
 1871 06ce 1344     		add	r3, r3, r2
 1872 06d0 1A68     		ldr	r2, [r3]
 1873              		.loc 1 326 11 discriminator 3
 1874 06d2 D7F89C30 		ldr	r3, [r7, #156]
 1875 06d6 DB00     		lsls	r3, r3, #3
 1876 06d8 786E     		ldr	r0, [r7, #100]
 1877 06da 0344     		add	r3, r3, r0
 1878              		.loc 1 326 34 discriminator 3
 1879 06dc 0A44     		add	r2, r2, r1
 1880              		.loc 1 326 19 discriminator 3
 1881 06de 1A60     		str	r2, [r3]
 327:./Libraries/CMSIS/DSP/Source/TransformFunctions/arm_cfft_radix2_q31.c **** 
ARM GAS  /tmp/ccD5e6h5.s 			page 40


 328:./Libraries/CMSIS/DSP/Source/TransformFunctions/arm_cfft_radix2_q31.c ****       yt = pSrc[2 * i + 1] - pSrc[2 * l + 1];
 1882              		.loc 1 328 16 discriminator 3
 1883 06e0 D7F89C30 		ldr	r3, [r7, #156]
 1884 06e4 DB00     		lsls	r3, r3, #3
 1885 06e6 0433     		adds	r3, r3, #4
 1886 06e8 7A6E     		ldr	r2, [r7, #100]
 1887 06ea 1344     		add	r3, r3, r2
 1888 06ec 1A68     		ldr	r2, [r3]
 1889              		.loc 1 328 34 discriminator 3
 1890 06ee FB6F     		ldr	r3, [r7, #124]
 1891 06f0 DB00     		lsls	r3, r3, #3
 1892 06f2 0433     		adds	r3, r3, #4
 1893 06f4 796E     		ldr	r1, [r7, #100]
 1894 06f6 0B44     		add	r3, r3, r1
 1895 06f8 1B68     		ldr	r3, [r3]
 1896              		.loc 1 328 10 discriminator 3
 1897 06fa D31A     		subs	r3, r2, r3
 1898 06fc 7B67     		str	r3, [r7, #116]
 329:./Libraries/CMSIS/DSP/Source/TransformFunctions/arm_cfft_radix2_q31.c ****       pSrc[2 * i + 1] = (pSrc[2 * l + 1] + pSrc[2 * i + 1]);
 1899              		.loc 1 329 30 discriminator 3
 1900 06fe FB6F     		ldr	r3, [r7, #124]
 1901 0700 DB00     		lsls	r3, r3, #3
 1902 0702 0433     		adds	r3, r3, #4
 1903 0704 7A6E     		ldr	r2, [r7, #100]
 1904 0706 1344     		add	r3, r3, r2
 1905 0708 1968     		ldr	r1, [r3]
 1906              		.loc 1 329 48 discriminator 3
 1907 070a D7F89C30 		ldr	r3, [r7, #156]
 1908 070e DB00     		lsls	r3, r3, #3
 1909 0710 0433     		adds	r3, r3, #4
 1910 0712 7A6E     		ldr	r2, [r7, #100]
 1911 0714 1344     		add	r3, r3, r2
 1912 0716 1A68     		ldr	r2, [r3]
 1913              		.loc 1 329 11 discriminator 3
 1914 0718 D7F89C30 		ldr	r3, [r7, #156]
 1915 071c DB00     		lsls	r3, r3, #3
 1916 071e 0433     		adds	r3, r3, #4
 1917 0720 786E     		ldr	r0, [r7, #100]
 1918 0722 0344     		add	r3, r3, r0
 1919              		.loc 1 329 42 discriminator 3
 1920 0724 0A44     		add	r2, r2, r1
 1921              		.loc 1 329 23 discriminator 3
 1922 0726 1A60     		str	r2, [r3]
 330:./Libraries/CMSIS/DSP/Source/TransformFunctions/arm_cfft_radix2_q31.c **** 
 331:./Libraries/CMSIS/DSP/Source/TransformFunctions/arm_cfft_radix2_q31.c ****       pSrc[2U * l] = xt;
 1923              		.loc 1 331 11 discriminator 3
 1924 0728 FB6F     		ldr	r3, [r7, #124]
 1925 072a DB00     		lsls	r3, r3, #3
 1926 072c 7A6E     		ldr	r2, [r7, #100]
 1927 072e 1344     		add	r3, r3, r2
 1928              		.loc 1 331 20 discriminator 3
 1929 0730 BA6F     		ldr	r2, [r7, #120]
 1930 0732 1A60     		str	r2, [r3]
 332:./Libraries/CMSIS/DSP/Source/TransformFunctions/arm_cfft_radix2_q31.c **** 
 333:./Libraries/CMSIS/DSP/Source/TransformFunctions/arm_cfft_radix2_q31.c ****       pSrc[2U * l + 1U] = yt;
 1931              		.loc 1 333 11 discriminator 3
 1932 0734 FB6F     		ldr	r3, [r7, #124]
ARM GAS  /tmp/ccD5e6h5.s 			page 41


 1933 0736 DB00     		lsls	r3, r3, #3
 1934 0738 0433     		adds	r3, r3, #4
 1935 073a 7A6E     		ldr	r2, [r7, #100]
 1936 073c 1344     		add	r3, r3, r2
 1937              		.loc 1 333 25 discriminator 3
 1938 073e 7A6F     		ldr	r2, [r7, #116]
 1939 0740 1A60     		str	r2, [r3]
 309:./Libraries/CMSIS/DSP/Source/TransformFunctions/arm_cfft_radix2_q31.c ****    {
 1940              		.loc 1 309 30 discriminator 3
 1941 0742 D7F89C20 		ldr	r2, [r7, #156]
 1942 0746 D7F88830 		ldr	r3, [r7, #136]
 1943 074a 1344     		add	r3, r3, r2
 1944 074c C7F89C30 		str	r3, [r7, #156]
 1945              	.L23:
 309:./Libraries/CMSIS/DSP/Source/TransformFunctions/arm_cfft_radix2_q31.c ****    {
 1946              		.loc 1 309 4 discriminator 1
 1947 0750 D7F89C20 		ldr	r2, [r7, #156]
 1948 0754 3B6E     		ldr	r3, [r7, #96]
 1949 0756 9A42     		cmp	r2, r3
 1950 0758 FFF440AF 		bcc	.L24
 334:./Libraries/CMSIS/DSP/Source/TransformFunctions/arm_cfft_radix2_q31.c **** 
 335:./Libraries/CMSIS/DSP/Source/TransformFunctions/arm_cfft_radix2_q31.c ****    }                             // butterfly loop end
 336:./Libraries/CMSIS/DSP/Source/TransformFunctions/arm_cfft_radix2_q31.c **** 
 337:./Libraries/CMSIS/DSP/Source/TransformFunctions/arm_cfft_radix2_q31.c **** }
 1951              		.loc 1 337 1
 1952 075c 00BF     		nop
 1953 075e 00BF     		nop
 1954 0760 A437     		adds	r7, r7, #164
 1955              	.LCFI14:
 1956              		.cfi_def_cfa_offset 28
 1957 0762 BD46     		mov	sp, r7
 1958              	.LCFI15:
 1959              		.cfi_def_cfa_register 13
 1960              		@ sp needed
 1961 0764 BDE8B00F 		pop	{r4, r5, r7, r8, r9, r10, fp}
 1962              	.LCFI16:
 1963              		.cfi_restore 11
 1964              		.cfi_restore 10
 1965              		.cfi_restore 9
 1966              		.cfi_restore 8
 1967              		.cfi_restore 7
 1968              		.cfi_restore 5
 1969              		.cfi_restore 4
 1970              		.cfi_def_cfa_offset 0
 1971 0768 7047     		bx	lr
 1972              		.cfi_endproc
 1973              	.LFE147:
 1975              		.text
 1976              	.Letext0:
 1977              		.file 2 "/usr/lib/gcc/arm-none-eabi/9.2.1/include/stdint.h"
 1978              		.file 3 "/usr/lib/gcc/arm-none-eabi/9.2.1/include/stddef.h"
 1979              		.file 4 "/usr/include/newlib/sys/_types.h"
 1980              		.file 5 "/usr/include/newlib/sys/reent.h"
 1981              		.file 6 "/usr/include/newlib/sys/lock.h"
 1982              		.file 7 "/usr/include/newlib/math.h"
 1983              		.file 8 "./Libraries/CMSIS/DSP/Include/arm_math.h"
ARM GAS  /tmp/ccD5e6h5.s 			page 42

