ARM GAS  /tmp/cch0zgui.s 			page 1


   1              		.cpu cortex-m7
   2              		.eabi_attribute 28, 1
   3              		.eabi_attribute 20, 1
   4              		.eabi_attribute 21, 1
   5              		.eabi_attribute 23, 3
   6              		.eabi_attribute 24, 1
   7              		.eabi_attribute 25, 1
   8              		.eabi_attribute 26, 1
   9              		.eabi_attribute 30, 6
  10              		.eabi_attribute 34, 1
  11              		.eabi_attribute 18, 4
  12              		.file	"arm_sin_cos_q31.c"
  13              		.text
  14              	.Ltext0:
  15              		.cfi_sections	.debug_frame
  16              		.section	.text.arm_sin_cos_q31,"ax",%progbits
  17              		.align	1
  18              		.global	arm_sin_cos_q31
  19              		.arch armv7e-m
  20              		.syntax unified
  21              		.thumb
  22              		.thumb_func
  23              		.fpu fpv5-d16
  25              	arm_sin_cos_q31:
  26              	.LFB145:
  27              		.file 1 "./Libraries/CMSIS/DSP/Source/ControllerFunctions/arm_sin_cos_q31.c"
   1:./Libraries/CMSIS/DSP/Source/ControllerFunctions/arm_sin_cos_q31.c **** /* ----------------------------------------------------------------------
   2:./Libraries/CMSIS/DSP/Source/ControllerFunctions/arm_sin_cos_q31.c ****  * Project:      CMSIS DSP Library
   3:./Libraries/CMSIS/DSP/Source/ControllerFunctions/arm_sin_cos_q31.c ****  * Title:        arm_sin_cos_q31.c
   4:./Libraries/CMSIS/DSP/Source/ControllerFunctions/arm_sin_cos_q31.c ****  * Description:  Cosine & Sine calculation for Q31 values
   5:./Libraries/CMSIS/DSP/Source/ControllerFunctions/arm_sin_cos_q31.c ****  *
   6:./Libraries/CMSIS/DSP/Source/ControllerFunctions/arm_sin_cos_q31.c ****  * $Date:        18. March 2019
   7:./Libraries/CMSIS/DSP/Source/ControllerFunctions/arm_sin_cos_q31.c ****  * $Revision:    V1.6.0
   8:./Libraries/CMSIS/DSP/Source/ControllerFunctions/arm_sin_cos_q31.c ****  *
   9:./Libraries/CMSIS/DSP/Source/ControllerFunctions/arm_sin_cos_q31.c ****  * Target Processor: Cortex-M cores
  10:./Libraries/CMSIS/DSP/Source/ControllerFunctions/arm_sin_cos_q31.c ****  * -------------------------------------------------------------------- */
  11:./Libraries/CMSIS/DSP/Source/ControllerFunctions/arm_sin_cos_q31.c **** /*
  12:./Libraries/CMSIS/DSP/Source/ControllerFunctions/arm_sin_cos_q31.c ****  * Copyright (C) 2010-2019 ARM Limited or its affiliates. All rights reserved.
  13:./Libraries/CMSIS/DSP/Source/ControllerFunctions/arm_sin_cos_q31.c ****  *
  14:./Libraries/CMSIS/DSP/Source/ControllerFunctions/arm_sin_cos_q31.c ****  * SPDX-License-Identifier: Apache-2.0
  15:./Libraries/CMSIS/DSP/Source/ControllerFunctions/arm_sin_cos_q31.c ****  *
  16:./Libraries/CMSIS/DSP/Source/ControllerFunctions/arm_sin_cos_q31.c ****  * Licensed under the Apache License, Version 2.0 (the License); you may
  17:./Libraries/CMSIS/DSP/Source/ControllerFunctions/arm_sin_cos_q31.c ****  * not use this file except in compliance with the License.
  18:./Libraries/CMSIS/DSP/Source/ControllerFunctions/arm_sin_cos_q31.c ****  * You may obtain a copy of the License at
  19:./Libraries/CMSIS/DSP/Source/ControllerFunctions/arm_sin_cos_q31.c ****  *
  20:./Libraries/CMSIS/DSP/Source/ControllerFunctions/arm_sin_cos_q31.c ****  * www.apache.org/licenses/LICENSE-2.0
  21:./Libraries/CMSIS/DSP/Source/ControllerFunctions/arm_sin_cos_q31.c ****  *
  22:./Libraries/CMSIS/DSP/Source/ControllerFunctions/arm_sin_cos_q31.c ****  * Unless required by applicable law or agreed to in writing, software
  23:./Libraries/CMSIS/DSP/Source/ControllerFunctions/arm_sin_cos_q31.c ****  * distributed under the License is distributed on an AS IS BASIS, WITHOUT
  24:./Libraries/CMSIS/DSP/Source/ControllerFunctions/arm_sin_cos_q31.c ****  * WARRANTIES OR CONDITIONS OF ANY KIND, either express or implied.
  25:./Libraries/CMSIS/DSP/Source/ControllerFunctions/arm_sin_cos_q31.c ****  * See the License for the specific language governing permissions and
  26:./Libraries/CMSIS/DSP/Source/ControllerFunctions/arm_sin_cos_q31.c ****  * limitations under the License.
  27:./Libraries/CMSIS/DSP/Source/ControllerFunctions/arm_sin_cos_q31.c ****  */
  28:./Libraries/CMSIS/DSP/Source/ControllerFunctions/arm_sin_cos_q31.c **** 
  29:./Libraries/CMSIS/DSP/Source/ControllerFunctions/arm_sin_cos_q31.c **** #include "arm_math.h"
  30:./Libraries/CMSIS/DSP/Source/ControllerFunctions/arm_sin_cos_q31.c **** #include "arm_common_tables.h"
  31:./Libraries/CMSIS/DSP/Source/ControllerFunctions/arm_sin_cos_q31.c **** 
ARM GAS  /tmp/cch0zgui.s 			page 2


  32:./Libraries/CMSIS/DSP/Source/ControllerFunctions/arm_sin_cos_q31.c **** /**
  33:./Libraries/CMSIS/DSP/Source/ControllerFunctions/arm_sin_cos_q31.c ****   @ingroup groupController
  34:./Libraries/CMSIS/DSP/Source/ControllerFunctions/arm_sin_cos_q31.c ****  */
  35:./Libraries/CMSIS/DSP/Source/ControllerFunctions/arm_sin_cos_q31.c **** 
  36:./Libraries/CMSIS/DSP/Source/ControllerFunctions/arm_sin_cos_q31.c **** /**
  37:./Libraries/CMSIS/DSP/Source/ControllerFunctions/arm_sin_cos_q31.c ****   @addtogroup SinCos
  38:./Libraries/CMSIS/DSP/Source/ControllerFunctions/arm_sin_cos_q31.c ****   @{
  39:./Libraries/CMSIS/DSP/Source/ControllerFunctions/arm_sin_cos_q31.c ****  */
  40:./Libraries/CMSIS/DSP/Source/ControllerFunctions/arm_sin_cos_q31.c **** 
  41:./Libraries/CMSIS/DSP/Source/ControllerFunctions/arm_sin_cos_q31.c **** /**
  42:./Libraries/CMSIS/DSP/Source/ControllerFunctions/arm_sin_cos_q31.c ****   @brief         Q31 sin_cos function.
  43:./Libraries/CMSIS/DSP/Source/ControllerFunctions/arm_sin_cos_q31.c ****   @param[in]     theta    scaled input value in degrees
  44:./Libraries/CMSIS/DSP/Source/ControllerFunctions/arm_sin_cos_q31.c ****   @param[out]    pSinVal  points to processed sine output
  45:./Libraries/CMSIS/DSP/Source/ControllerFunctions/arm_sin_cos_q31.c ****   @param[out]    pCosVal  points to processed cosine output
  46:./Libraries/CMSIS/DSP/Source/ControllerFunctions/arm_sin_cos_q31.c ****   @return        none
  47:./Libraries/CMSIS/DSP/Source/ControllerFunctions/arm_sin_cos_q31.c **** 
  48:./Libraries/CMSIS/DSP/Source/ControllerFunctions/arm_sin_cos_q31.c ****   The Q31 input value is in the range [-1 0.999999] and is mapped to a degree value in the range [-
  49:./Libraries/CMSIS/DSP/Source/ControllerFunctions/arm_sin_cos_q31.c ****  */
  50:./Libraries/CMSIS/DSP/Source/ControllerFunctions/arm_sin_cos_q31.c **** 
  51:./Libraries/CMSIS/DSP/Source/ControllerFunctions/arm_sin_cos_q31.c **** void arm_sin_cos_q31(
  52:./Libraries/CMSIS/DSP/Source/ControllerFunctions/arm_sin_cos_q31.c ****   q31_t theta,
  53:./Libraries/CMSIS/DSP/Source/ControllerFunctions/arm_sin_cos_q31.c ****   q31_t * pSinVal,
  54:./Libraries/CMSIS/DSP/Source/ControllerFunctions/arm_sin_cos_q31.c ****   q31_t * pCosVal)
  55:./Libraries/CMSIS/DSP/Source/ControllerFunctions/arm_sin_cos_q31.c **** {
  28              		.loc 1 55 1
  29              		.cfi_startproc
  30              		@ args = 0, pretend = 0, frame = 216
  31              		@ frame_needed = 1, uses_anonymous_args = 0
  32              		@ link register save eliminated.
  33 0000 2DE9F00F 		push	{r4, r5, r6, r7, r8, r9, r10, fp}
  34              	.LCFI0:
  35              		.cfi_def_cfa_offset 32
  36              		.cfi_offset 4, -32
  37              		.cfi_offset 5, -28
  38              		.cfi_offset 6, -24
  39              		.cfi_offset 7, -20
  40              		.cfi_offset 8, -16
  41              		.cfi_offset 9, -12
  42              		.cfi_offset 10, -8
  43              		.cfi_offset 11, -4
  44 0004 B6B0     		sub	sp, sp, #216
  45              	.LCFI1:
  46              		.cfi_def_cfa_offset 248
  47 0006 00AF     		add	r7, sp, #0
  48              	.LCFI2:
  49              		.cfi_def_cfa_register 7
  50 0008 C7F89C00 		str	r0, [r7, #156]
  51 000c C7F89810 		str	r1, [r7, #152]
  52 0010 C7F89420 		str	r2, [r7, #148]
  56:./Libraries/CMSIS/DSP/Source/ControllerFunctions/arm_sin_cos_q31.c ****   q31_t fract;                                     /* Temporary input, output variables */
  57:./Libraries/CMSIS/DSP/Source/ControllerFunctions/arm_sin_cos_q31.c ****   uint16_t indexS, indexC;                         /* Index variable */
  58:./Libraries/CMSIS/DSP/Source/ControllerFunctions/arm_sin_cos_q31.c ****   q31_t f1, f2, d1, d2;                            /* Two nearest output values */
  59:./Libraries/CMSIS/DSP/Source/ControllerFunctions/arm_sin_cos_q31.c ****   q31_t Dn, Df;
  60:./Libraries/CMSIS/DSP/Source/ControllerFunctions/arm_sin_cos_q31.c ****   q63_t temp;
  61:./Libraries/CMSIS/DSP/Source/ControllerFunctions/arm_sin_cos_q31.c **** 
  62:./Libraries/CMSIS/DSP/Source/ControllerFunctions/arm_sin_cos_q31.c ****   /* Calculate the nearest index */
  63:./Libraries/CMSIS/DSP/Source/ControllerFunctions/arm_sin_cos_q31.c ****   indexS = (uint32_t)theta >> CONTROLLER_Q31_SHIFT;
ARM GAS  /tmp/cch0zgui.s 			page 3


  53              		.loc 1 63 12
  54 0014 D7F89C30 		ldr	r3, [r7, #156]
  55              		.loc 1 63 28
  56 0018 DB0D     		lsrs	r3, r3, #23
  57              		.loc 1 63 10
  58 001a A7F8D630 		strh	r3, [r7, #214]	@ movhi
  64:./Libraries/CMSIS/DSP/Source/ControllerFunctions/arm_sin_cos_q31.c ****   indexC = (indexS + 128) & 0x1ff;
  59              		.loc 1 64 20
  60 001e B7F8D630 		ldrh	r3, [r7, #214]	@ movhi
  61 0022 8033     		adds	r3, r3, #128
  62 0024 9BB2     		uxth	r3, r3
  63              		.loc 1 64 10
  64 0026 C3F30803 		ubfx	r3, r3, #0, #9
  65 002a A7F8D430 		strh	r3, [r7, #212]	@ movhi
  65:./Libraries/CMSIS/DSP/Source/ControllerFunctions/arm_sin_cos_q31.c **** 
  66:./Libraries/CMSIS/DSP/Source/ControllerFunctions/arm_sin_cos_q31.c ****   /* Calculation of fractional value */
  67:./Libraries/CMSIS/DSP/Source/ControllerFunctions/arm_sin_cos_q31.c ****   fract = (theta - (indexS << CONTROLLER_Q31_SHIFT)) << 8;
  66              		.loc 1 67 28
  67 002e B7F8D630 		ldrh	r3, [r7, #214]
  68 0032 DA05     		lsls	r2, r3, #23
  69              		.loc 1 67 18
  70 0034 D7F89C30 		ldr	r3, [r7, #156]
  71 0038 9B1A     		subs	r3, r3, r2
  72              		.loc 1 67 9
  73 003a 1B02     		lsls	r3, r3, #8
  74 003c C7F8D030 		str	r3, [r7, #208]
  68:./Libraries/CMSIS/DSP/Source/ControllerFunctions/arm_sin_cos_q31.c **** 
  69:./Libraries/CMSIS/DSP/Source/ControllerFunctions/arm_sin_cos_q31.c ****   /* Read two nearest values of input value from the cos & sin tables */
  70:./Libraries/CMSIS/DSP/Source/ControllerFunctions/arm_sin_cos_q31.c ****   f1 =  sinTable_q31[indexC  ];
  75              		.loc 1 70 21
  76 0040 B7F8D420 		ldrh	r2, [r7, #212]
  77              		.loc 1 70 6
  78 0044 AE4B     		ldr	r3, .L10
  79 0046 53F82230 		ldr	r3, [r3, r2, lsl #2]
  80 004a C7F8CC30 		str	r3, [r7, #204]
  71:./Libraries/CMSIS/DSP/Source/ControllerFunctions/arm_sin_cos_q31.c ****   f2 =  sinTable_q31[indexC+1];
  81              		.loc 1 71 28
  82 004e B7F8D430 		ldrh	r3, [r7, #212]
  83 0052 5A1C     		adds	r2, r3, #1
  84              		.loc 1 71 6
  85 0054 AA4B     		ldr	r3, .L10
  86 0056 53F82230 		ldr	r3, [r3, r2, lsl #2]
  87 005a C7F8C830 		str	r3, [r7, #200]
  72:./Libraries/CMSIS/DSP/Source/ControllerFunctions/arm_sin_cos_q31.c ****   d1 = -sinTable_q31[indexS  ];
  88              		.loc 1 72 21
  89 005e B7F8D620 		ldrh	r2, [r7, #214]
  90 0062 A74B     		ldr	r3, .L10
  91 0064 53F82230 		ldr	r3, [r3, r2, lsl #2]
  92              		.loc 1 72 6
  93 0068 5B42     		rsbs	r3, r3, #0
  94 006a C7F8C430 		str	r3, [r7, #196]
  73:./Libraries/CMSIS/DSP/Source/ControllerFunctions/arm_sin_cos_q31.c ****   d2 = -sinTable_q31[indexS+1];
  95              		.loc 1 73 28
  96 006e B7F8D630 		ldrh	r3, [r7, #214]
  97 0072 5A1C     		adds	r2, r3, #1
  98              		.loc 1 73 21
  99 0074 A24B     		ldr	r3, .L10
ARM GAS  /tmp/cch0zgui.s 			page 4


 100 0076 53F82230 		ldr	r3, [r3, r2, lsl #2]
 101              		.loc 1 73 6
 102 007a 5B42     		rsbs	r3, r3, #0
 103 007c C7F8C030 		str	r3, [r7, #192]
  74:./Libraries/CMSIS/DSP/Source/ControllerFunctions/arm_sin_cos_q31.c **** 
  75:./Libraries/CMSIS/DSP/Source/ControllerFunctions/arm_sin_cos_q31.c ****   Dn = 0x1921FB5; /* delta between the two points (fixed), in this case 2*pi/FAST_MATH_TABLE_SIZE *
 104              		.loc 1 75 6
 105 0080 A04B     		ldr	r3, .L10+4
 106 0082 C7F8BC30 		str	r3, [r7, #188]
  76:./Libraries/CMSIS/DSP/Source/ControllerFunctions/arm_sin_cos_q31.c ****   Df = f2 - f1;   /* delta between the values of the functions */
 107              		.loc 1 76 6
 108 0086 D7F8C820 		ldr	r2, [r7, #200]
 109 008a D7F8CC30 		ldr	r3, [r7, #204]
 110 008e D31A     		subs	r3, r2, r3
 111 0090 C7F8B830 		str	r3, [r7, #184]
  77:./Libraries/CMSIS/DSP/Source/ControllerFunctions/arm_sin_cos_q31.c **** 
  78:./Libraries/CMSIS/DSP/Source/ControllerFunctions/arm_sin_cos_q31.c ****   temp = Dn * ((q63_t)d1 + d2);
 112              		.loc 1 78 13
 113 0094 D7F8BC30 		ldr	r3, [r7, #188]
 114 0098 1C46     		mov	r4, r3
 115 009a 4FEAE475 		asr	r5, r4, #31
 116              		.loc 1 78 16
 117 009e D7F8C430 		ldr	r3, [r7, #196]
 118 00a2 1846     		mov	r0, r3
 119 00a4 4FEAE071 		asr	r1, r0, #31
 120              		.loc 1 78 26
 121 00a8 D7F8C030 		ldr	r3, [r7, #192]
 122 00ac 1A46     		mov	r2, r3
 123 00ae 4FEAE273 		asr	r3, r2, #31
 124 00b2 10EB0208 		adds	r8, r0, r2
 125 00b6 41EB0309 		adc	r9, r1, r3
 126              		.loc 1 78 8
 127 00ba 08FB05F2 		mul	r2, r8, r5
 128 00be 04FB09F3 		mul	r3, r4, r9
 129 00c2 D118     		adds	r1, r2, r3
 130 00c4 A4FB0823 		umull	r2, r3, r4, r8
 131 00c8 1944     		add	r1, r1, r3
 132 00ca 0B46     		mov	r3, r1
 133 00cc C7E92C23 		strd	r2, [r7, #176]
 134 00d0 C7E92C23 		strd	r2, [r7, #176]
  79:./Libraries/CMSIS/DSP/Source/ControllerFunctions/arm_sin_cos_q31.c ****   temp = temp - ((q63_t)Df << 32);
 135              		.loc 1 79 18
 136 00d4 D7F8B830 		ldr	r3, [r7, #184]
 137 00d8 1A46     		mov	r2, r3
 138 00da 4FEAE273 		asr	r3, r2, #31
 139              		.loc 1 79 28
 140 00de 4FF00000 		mov	r0, #0
 141 00e2 4FF00001 		mov	r1, #0
 142 00e6 1100     		movs	r1, r2
 143 00e8 0020     		movs	r0, #0
 144              		.loc 1 79 8
 145 00ea D7E92C23 		ldrd	r2, [r7, #176]
 146 00ee 141A     		subs	r4, r2, r0
 147 00f0 BC64     		str	r4, [r7, #72]
 148 00f2 63EB0103 		sbc	r3, r3, r1
 149 00f6 FB64     		str	r3, [r7, #76]
 150 00f8 D7E91234 		ldrd	r3, [r7, #72]
ARM GAS  /tmp/cch0zgui.s 			page 5


 151 00fc C7E92C34 		strd	r3, [r7, #176]
  80:./Libraries/CMSIS/DSP/Source/ControllerFunctions/arm_sin_cos_q31.c ****   temp = (q63_t)fract * (temp >> 31);
 152              		.loc 1 80 10
 153 0100 D7F8D030 		ldr	r3, [r7, #208]
 154 0104 1C46     		mov	r4, r3
 155 0106 4FEAE475 		asr	r5, r4, #31
 156              		.loc 1 80 31
 157 010a D7E92C23 		ldrd	r2, [r7, #176]
 158 010e 4FF00000 		mov	r0, #0
 159 0112 4FF00001 		mov	r1, #0
 160 0116 D00F     		lsrs	r0, r2, #31
 161 0118 40EA4300 		orr	r0, r0, r3, lsl #1
 162 011c D917     		asrs	r1, r3, #31
 163              		.loc 1 80 8
 164 011e 00FB05F2 		mul	r2, r0, r5
 165 0122 04FB01F3 		mul	r3, r4, r1
 166 0126 D618     		adds	r6, r2, r3
 167 0128 A4FB0023 		umull	r2, r3, r4, r0
 168 012c F118     		adds	r1, r6, r3
 169 012e 0B46     		mov	r3, r1
 170 0130 C7E92C23 		strd	r2, [r7, #176]
 171 0134 C7E92C23 		strd	r2, [r7, #176]
  81:./Libraries/CMSIS/DSP/Source/ControllerFunctions/arm_sin_cos_q31.c ****   temp = temp + ((3 * (q63_t)Df << 31) - (d2 + ((q63_t)d1 << 1)) * Dn);
 172              		.loc 1 81 23
 173 0138 D7F8B830 		ldr	r3, [r7, #184]
 174 013c 1846     		mov	r0, r3
 175 013e 4FEAE071 		asr	r1, r0, #31
 176              		.loc 1 81 21
 177 0142 0246     		mov	r2, r0
 178 0144 0B46     		mov	r3, r1
 179 0146 9418     		adds	r4, r2, r2
 180 0148 3C64     		str	r4, [r7, #64]
 181 014a 5B41     		adcs	r3, r3, r3
 182 014c 7B64     		str	r3, [r7, #68]
 183 014e D7E91023 		ldrd	r2, [r7, #64]
 184 0152 12EB000A 		adds	r10, r2, r0
 185 0156 43EB010B 		adc	fp, r3, r1
 186              		.loc 1 81 33
 187 015a 4FF00004 		mov	r4, #0
 188 015e 4FF00005 		mov	r5, #0
 189 0162 4FEACB75 		lsl	r5, fp, #31
 190 0166 45EA5A05 		orr	r5, r5, r10, lsr #1
 191 016a 4FEACA74 		lsl	r4, r10, #31
 192              		.loc 1 81 46
 193 016e D7F8C030 		ldr	r3, [r7, #192]
 194 0172 1846     		mov	r0, r3
 195 0174 4FEAE071 		asr	r1, r0, #31
 196              		.loc 1 81 49
 197 0178 D7F8C430 		ldr	r3, [r7, #196]
 198 017c 1A46     		mov	r2, r3
 199 017e 4FEAE273 		asr	r3, r2, #31
 200              		.loc 1 81 59
 201 0182 9618     		adds	r6, r2, r2
 202 0184 BE63     		str	r6, [r7, #56]
 203 0186 5B41     		adcs	r3, r3, r3
 204 0188 FB63     		str	r3, [r7, #60]
 205 018a D7E90E23 		ldrd	r2, [r7, #56]
ARM GAS  /tmp/cch0zgui.s 			page 6


 206              		.loc 1 81 46
 207 018e 8618     		adds	r6, r0, r2
 208 0190 C7F88860 		str	r6, [r7, #136]
 209 0194 41EB0303 		adc	r3, r1, r3
 210 0198 C7F88C30 		str	r3, [r7, #140]
 211              		.loc 1 81 66
 212 019c D7F8BC30 		ldr	r3, [r7, #188]
 213 01a0 1A46     		mov	r2, r3
 214 01a2 4FEAE273 		asr	r3, r2, #31
 215 01a6 D7E92289 		ldrd	r8, [r7, #136]
 216 01aa 4946     		mov	r1, r9
 217 01ac 02FB01F0 		mul	r0, r2, r1
 218 01b0 4146     		mov	r1, r8
 219 01b2 01FB03F1 		mul	r1, r1, r3
 220 01b6 0144     		add	r1, r1, r0
 221 01b8 4046     		mov	r0, r8
 222 01ba A0FB0223 		umull	r2, r3, r0, r2
 223 01be 1944     		add	r1, r1, r3
 224 01c0 0B46     		mov	r3, r1
 225              		.loc 1 81 40
 226 01c2 A11A     		subs	r1, r4, r2
 227 01c4 C7F88010 		str	r1, [r7, #128]
 228 01c8 65EB0303 		sbc	r3, r5, r3
 229 01cc C7F88430 		str	r3, [r7, #132]
 230              		.loc 1 81 8
 231 01d0 D7E92C23 		ldrd	r2, [r7, #176]
 232 01d4 D7E92045 		ldrd	r4, [r7, #128]
 233 01d8 2146     		mov	r1, r4
 234 01da 5118     		adds	r1, r2, r1
 235 01dc 3963     		str	r1, [r7, #48]
 236 01de 2946     		mov	r1, r5
 237 01e0 43EB0101 		adc	r1, r3, r1
 238 01e4 7963     		str	r1, [r7, #52]
 239 01e6 D7E90C34 		ldrd	r3, [r7, #48]
 240 01ea C7E92C34 		strd	r3, [r7, #176]
  82:./Libraries/CMSIS/DSP/Source/ControllerFunctions/arm_sin_cos_q31.c ****   temp = (q63_t)fract * (temp >> 31);
 241              		.loc 1 82 10
 242 01ee D7F8D030 		ldr	r3, [r7, #208]
 243 01f2 1C46     		mov	r4, r3
 244 01f4 4FEAE475 		asr	r5, r4, #31
 245              		.loc 1 82 31
 246 01f8 D7E92C23 		ldrd	r2, [r7, #176]
 247 01fc 4FF00000 		mov	r0, #0
 248 0200 4FF00001 		mov	r1, #0
 249 0204 D00F     		lsrs	r0, r2, #31
 250 0206 40EA4300 		orr	r0, r0, r3, lsl #1
 251 020a D917     		asrs	r1, r3, #31
 252              		.loc 1 82 8
 253 020c 00FB05F2 		mul	r2, r0, r5
 254 0210 04FB01F3 		mul	r3, r4, r1
 255 0214 D618     		adds	r6, r2, r3
 256 0216 A4FB0023 		umull	r2, r3, r4, r0
 257 021a F118     		adds	r1, r6, r3
 258 021c 0B46     		mov	r3, r1
 259 021e C7E92C23 		strd	r2, [r7, #176]
 260 0222 C7E92C23 		strd	r2, [r7, #176]
  83:./Libraries/CMSIS/DSP/Source/ControllerFunctions/arm_sin_cos_q31.c ****   temp = temp + (q63_t)d1 * Dn;
ARM GAS  /tmp/cch0zgui.s 			page 7


 261              		.loc 1 83 17
 262 0226 D7F8C430 		ldr	r3, [r7, #196]
 263 022a 1846     		mov	r0, r3
 264 022c 4FEAE071 		asr	r1, r0, #31
 265              		.loc 1 83 27
 266 0230 D7F8BC30 		ldr	r3, [r7, #188]
 267 0234 1A46     		mov	r2, r3
 268 0236 4FEAE273 		asr	r3, r2, #31
 269 023a 02FB01F5 		mul	r5, r2, r1
 270 023e 00FB03F4 		mul	r4, r0, r3
 271 0242 2C44     		add	r4, r4, r5
 272 0244 A0FB0201 		umull	r0, r1, r0, r2
 273 0248 6318     		adds	r3, r4, r1
 274 024a 1946     		mov	r1, r3
 275              		.loc 1 83 8
 276 024c D7E92C23 		ldrd	r2, [r7, #176]
 277 0250 1418     		adds	r4, r2, r0
 278 0252 BC62     		str	r4, [r7, #40]
 279 0254 4B41     		adcs	r3, r3, r1
 280 0256 FB62     		str	r3, [r7, #44]
 281 0258 D7E90A34 		ldrd	r3, [r7, #40]
 282 025c C7E92C34 		strd	r3, [r7, #176]
  84:./Libraries/CMSIS/DSP/Source/ControllerFunctions/arm_sin_cos_q31.c ****   temp = (q63_t)fract * (temp >> 31);
 283              		.loc 1 84 10
 284 0260 D7F8D030 		ldr	r3, [r7, #208]
 285 0264 1C46     		mov	r4, r3
 286 0266 4FEAE475 		asr	r5, r4, #31
 287              		.loc 1 84 31
 288 026a D7E92C23 		ldrd	r2, [r7, #176]
 289 026e 4FF00000 		mov	r0, #0
 290 0272 4FF00001 		mov	r1, #0
 291 0276 D00F     		lsrs	r0, r2, #31
 292 0278 40EA4300 		orr	r0, r0, r3, lsl #1
 293 027c D917     		asrs	r1, r3, #31
 294              		.loc 1 84 8
 295 027e 00FB05F2 		mul	r2, r0, r5
 296 0282 04FB01F3 		mul	r3, r4, r1
 297 0286 D618     		adds	r6, r2, r3
 298 0288 A4FB0023 		umull	r2, r3, r4, r0
 299 028c F118     		adds	r1, r6, r3
 300 028e 0B46     		mov	r3, r1
 301 0290 C7E92C23 		strd	r2, [r7, #176]
 302 0294 C7E92C23 		strd	r2, [r7, #176]
  85:./Libraries/CMSIS/DSP/Source/ControllerFunctions/arm_sin_cos_q31.c **** 
  86:./Libraries/CMSIS/DSP/Source/ControllerFunctions/arm_sin_cos_q31.c ****   /* Calculation of cosine value */
  87:./Libraries/CMSIS/DSP/Source/ControllerFunctions/arm_sin_cos_q31.c ****   *pCosVal = clip_q63_to_q31((temp >> 31) + (q63_t)f1);
 303              		.loc 1 87 36
 304 0298 D7E92C23 		ldrd	r2, [r7, #176]
 305 029c 4FF00000 		mov	r0, #0
 306 02a0 4FF00001 		mov	r1, #0
 307 02a4 D00F     		lsrs	r0, r2, #31
 308 02a6 40EA4300 		orr	r0, r0, r3, lsl #1
 309 02aa D917     		asrs	r1, r3, #31
 310              		.loc 1 87 45
 311 02ac D7F8CC30 		ldr	r3, [r7, #204]
 312 02b0 1A46     		mov	r2, r3
 313 02b2 4FEAE273 		asr	r3, r2, #31
ARM GAS  /tmp/cch0zgui.s 			page 8


 314              		.loc 1 87 14
 315 02b6 8418     		adds	r4, r0, r2
 316 02b8 BC67     		str	r4, [r7, #120]
 317 02ba 41EB0303 		adc	r3, r1, r3
 318 02be FB67     		str	r3, [r7, #124]
 319 02c0 D7E91E34 		ldrd	r3, [r7, #120]
 320 02c4 C7E92834 		strd	r3, [r7, #160]
 321              	.LBB6:
 322              	.LBB7:
 323              		.file 2 "./Libraries/CMSIS/DSP/Include/arm_math.h"
   1:./Libraries/CMSIS/DSP/Include/arm_math.h **** /******************************************************************************
   2:./Libraries/CMSIS/DSP/Include/arm_math.h ****  * @file     arm_math.h
   3:./Libraries/CMSIS/DSP/Include/arm_math.h ****  * @brief    Public header file for CMSIS DSP Library
   4:./Libraries/CMSIS/DSP/Include/arm_math.h ****  * @version  V1.6.0
   5:./Libraries/CMSIS/DSP/Include/arm_math.h ****  * @date     18. March 2019
   6:./Libraries/CMSIS/DSP/Include/arm_math.h ****  ******************************************************************************/
   7:./Libraries/CMSIS/DSP/Include/arm_math.h **** /*
   8:./Libraries/CMSIS/DSP/Include/arm_math.h ****  * Copyright (c) 2010-2019 Arm Limited or its affiliates. All rights reserved.
   9:./Libraries/CMSIS/DSP/Include/arm_math.h ****  *
  10:./Libraries/CMSIS/DSP/Include/arm_math.h ****  * SPDX-License-Identifier: Apache-2.0
  11:./Libraries/CMSIS/DSP/Include/arm_math.h ****  *
  12:./Libraries/CMSIS/DSP/Include/arm_math.h ****  * Licensed under the Apache License, Version 2.0 (the License); you may
  13:./Libraries/CMSIS/DSP/Include/arm_math.h ****  * not use this file except in compliance with the License.
  14:./Libraries/CMSIS/DSP/Include/arm_math.h ****  * You may obtain a copy of the License at
  15:./Libraries/CMSIS/DSP/Include/arm_math.h ****  *
  16:./Libraries/CMSIS/DSP/Include/arm_math.h ****  * www.apache.org/licenses/LICENSE-2.0
  17:./Libraries/CMSIS/DSP/Include/arm_math.h ****  *
  18:./Libraries/CMSIS/DSP/Include/arm_math.h ****  * Unless required by applicable law or agreed to in writing, software
  19:./Libraries/CMSIS/DSP/Include/arm_math.h ****  * distributed under the License is distributed on an AS IS BASIS, WITHOUT
  20:./Libraries/CMSIS/DSP/Include/arm_math.h ****  * WARRANTIES OR CONDITIONS OF ANY KIND, either express or implied.
  21:./Libraries/CMSIS/DSP/Include/arm_math.h ****  * See the License for the specific language governing permissions and
  22:./Libraries/CMSIS/DSP/Include/arm_math.h ****  * limitations under the License.
  23:./Libraries/CMSIS/DSP/Include/arm_math.h ****  */
  24:./Libraries/CMSIS/DSP/Include/arm_math.h **** 
  25:./Libraries/CMSIS/DSP/Include/arm_math.h **** /**
  26:./Libraries/CMSIS/DSP/Include/arm_math.h ****    \mainpage CMSIS DSP Software Library
  27:./Libraries/CMSIS/DSP/Include/arm_math.h ****    *
  28:./Libraries/CMSIS/DSP/Include/arm_math.h ****    * Introduction
  29:./Libraries/CMSIS/DSP/Include/arm_math.h ****    * ------------
  30:./Libraries/CMSIS/DSP/Include/arm_math.h ****    *
  31:./Libraries/CMSIS/DSP/Include/arm_math.h ****    * This user manual describes the CMSIS DSP software library,
  32:./Libraries/CMSIS/DSP/Include/arm_math.h ****    * a suite of common signal processing functions for use on Cortex-M processor based devices.
  33:./Libraries/CMSIS/DSP/Include/arm_math.h ****    *
  34:./Libraries/CMSIS/DSP/Include/arm_math.h ****    * The library is divided into a number of functions each covering a specific category:
  35:./Libraries/CMSIS/DSP/Include/arm_math.h ****    * - Basic math functions
  36:./Libraries/CMSIS/DSP/Include/arm_math.h ****    * - Fast math functions
  37:./Libraries/CMSIS/DSP/Include/arm_math.h ****    * - Complex math functions
  38:./Libraries/CMSIS/DSP/Include/arm_math.h ****    * - Filters
  39:./Libraries/CMSIS/DSP/Include/arm_math.h ****    * - Matrix functions
  40:./Libraries/CMSIS/DSP/Include/arm_math.h ****    * - Transform functions
  41:./Libraries/CMSIS/DSP/Include/arm_math.h ****    * - Motor control functions
  42:./Libraries/CMSIS/DSP/Include/arm_math.h ****    * - Statistical functions
  43:./Libraries/CMSIS/DSP/Include/arm_math.h ****    * - Support functions
  44:./Libraries/CMSIS/DSP/Include/arm_math.h ****    * - Interpolation functions
  45:./Libraries/CMSIS/DSP/Include/arm_math.h ****    *
  46:./Libraries/CMSIS/DSP/Include/arm_math.h ****    * The library has separate functions for operating on 8-bit integers, 16-bit integers,
  47:./Libraries/CMSIS/DSP/Include/arm_math.h ****    * 32-bit integer and 32-bit floating-point values.
ARM GAS  /tmp/cch0zgui.s 			page 9


  48:./Libraries/CMSIS/DSP/Include/arm_math.h ****    *
  49:./Libraries/CMSIS/DSP/Include/arm_math.h ****    * Using the Library
  50:./Libraries/CMSIS/DSP/Include/arm_math.h ****    * ------------
  51:./Libraries/CMSIS/DSP/Include/arm_math.h ****    *
  52:./Libraries/CMSIS/DSP/Include/arm_math.h ****    * The library installer contains prebuilt versions of the libraries in the <code>Lib</code> fold
  53:./Libraries/CMSIS/DSP/Include/arm_math.h ****    * - arm_cortexM7lfdp_math.lib (Cortex-M7, Little endian, Double Precision Floating Point Unit)
  54:./Libraries/CMSIS/DSP/Include/arm_math.h ****    * - arm_cortexM7bfdp_math.lib (Cortex-M7, Big endian, Double Precision Floating Point Unit)
  55:./Libraries/CMSIS/DSP/Include/arm_math.h ****    * - arm_cortexM7lfsp_math.lib (Cortex-M7, Little endian, Single Precision Floating Point Unit)
  56:./Libraries/CMSIS/DSP/Include/arm_math.h ****    * - arm_cortexM7bfsp_math.lib (Cortex-M7, Big endian and Single Precision Floating Point Unit on
  57:./Libraries/CMSIS/DSP/Include/arm_math.h ****    * - arm_cortexM7l_math.lib (Cortex-M7, Little endian)
  58:./Libraries/CMSIS/DSP/Include/arm_math.h ****    * - arm_cortexM7b_math.lib (Cortex-M7, Big endian)
  59:./Libraries/CMSIS/DSP/Include/arm_math.h ****    * - arm_cortexM4lf_math.lib (Cortex-M4, Little endian, Floating Point Unit)
  60:./Libraries/CMSIS/DSP/Include/arm_math.h ****    * - arm_cortexM4bf_math.lib (Cortex-M4, Big endian, Floating Point Unit)
  61:./Libraries/CMSIS/DSP/Include/arm_math.h ****    * - arm_cortexM4l_math.lib (Cortex-M4, Little endian)
  62:./Libraries/CMSIS/DSP/Include/arm_math.h ****    * - arm_cortexM4b_math.lib (Cortex-M4, Big endian)
  63:./Libraries/CMSIS/DSP/Include/arm_math.h ****    * - arm_cortexM3l_math.lib (Cortex-M3, Little endian)
  64:./Libraries/CMSIS/DSP/Include/arm_math.h ****    * - arm_cortexM3b_math.lib (Cortex-M3, Big endian)
  65:./Libraries/CMSIS/DSP/Include/arm_math.h ****    * - arm_cortexM0l_math.lib (Cortex-M0 / Cortex-M0+, Little endian)
  66:./Libraries/CMSIS/DSP/Include/arm_math.h ****    * - arm_cortexM0b_math.lib (Cortex-M0 / Cortex-M0+, Big endian)
  67:./Libraries/CMSIS/DSP/Include/arm_math.h ****    * - arm_ARMv8MBLl_math.lib (Armv8-M Baseline, Little endian)
  68:./Libraries/CMSIS/DSP/Include/arm_math.h ****    * - arm_ARMv8MMLl_math.lib (Armv8-M Mainline, Little endian)
  69:./Libraries/CMSIS/DSP/Include/arm_math.h ****    * - arm_ARMv8MMLlfsp_math.lib (Armv8-M Mainline, Little endian, Single Precision Floating Point 
  70:./Libraries/CMSIS/DSP/Include/arm_math.h ****    * - arm_ARMv8MMLld_math.lib (Armv8-M Mainline, Little endian, DSP instructions)
  71:./Libraries/CMSIS/DSP/Include/arm_math.h ****    * - arm_ARMv8MMLldfsp_math.lib (Armv8-M Mainline, Little endian, DSP instructions, Single Precis
  72:./Libraries/CMSIS/DSP/Include/arm_math.h ****    *
  73:./Libraries/CMSIS/DSP/Include/arm_math.h ****    * The library functions are declared in the public file <code>arm_math.h</code> which is placed 
  74:./Libraries/CMSIS/DSP/Include/arm_math.h ****    * Simply include this file and link the appropriate library in the application and begin calling
  75:./Libraries/CMSIS/DSP/Include/arm_math.h ****    * public header file <code> arm_math.h</code> for Cortex-M cores with little endian and big endi
  76:./Libraries/CMSIS/DSP/Include/arm_math.h ****    *
  77:./Libraries/CMSIS/DSP/Include/arm_math.h ****    *
  78:./Libraries/CMSIS/DSP/Include/arm_math.h ****    * Examples
  79:./Libraries/CMSIS/DSP/Include/arm_math.h ****    * --------
  80:./Libraries/CMSIS/DSP/Include/arm_math.h ****    *
  81:./Libraries/CMSIS/DSP/Include/arm_math.h ****    * The library ships with a number of examples which demonstrate how to use the library functions
  82:./Libraries/CMSIS/DSP/Include/arm_math.h ****    *
  83:./Libraries/CMSIS/DSP/Include/arm_math.h ****    * Toolchain Support
  84:./Libraries/CMSIS/DSP/Include/arm_math.h ****    * ------------
  85:./Libraries/CMSIS/DSP/Include/arm_math.h ****    *
  86:./Libraries/CMSIS/DSP/Include/arm_math.h ****    * The library has been developed and tested with MDK version 5.14.0.0
  87:./Libraries/CMSIS/DSP/Include/arm_math.h ****    * The library is being tested in GCC and IAR toolchains and updates on this activity will be mad
  88:./Libraries/CMSIS/DSP/Include/arm_math.h ****    *
  89:./Libraries/CMSIS/DSP/Include/arm_math.h ****    * Building the Library
  90:./Libraries/CMSIS/DSP/Include/arm_math.h ****    * ------------
  91:./Libraries/CMSIS/DSP/Include/arm_math.h ****    *
  92:./Libraries/CMSIS/DSP/Include/arm_math.h ****    * The library installer contains a project file to rebuild libraries on MDK toolchain in the <co
  93:./Libraries/CMSIS/DSP/Include/arm_math.h ****    * - arm_cortexM_math.uvprojx
  94:./Libraries/CMSIS/DSP/Include/arm_math.h ****    *
  95:./Libraries/CMSIS/DSP/Include/arm_math.h ****    *
  96:./Libraries/CMSIS/DSP/Include/arm_math.h ****    * The libraries can be built by opening the arm_cortexM_math.uvprojx project in MDK-ARM, selecti
  97:./Libraries/CMSIS/DSP/Include/arm_math.h ****    *
  98:./Libraries/CMSIS/DSP/Include/arm_math.h ****    * Preprocessor Macros
  99:./Libraries/CMSIS/DSP/Include/arm_math.h ****    * ------------
 100:./Libraries/CMSIS/DSP/Include/arm_math.h ****    *
 101:./Libraries/CMSIS/DSP/Include/arm_math.h ****    * Each library project have different preprocessor macros.
 102:./Libraries/CMSIS/DSP/Include/arm_math.h ****    *
 103:./Libraries/CMSIS/DSP/Include/arm_math.h ****    * - ARM_MATH_BIG_ENDIAN:
 104:./Libraries/CMSIS/DSP/Include/arm_math.h ****    *
ARM GAS  /tmp/cch0zgui.s 			page 10


 105:./Libraries/CMSIS/DSP/Include/arm_math.h ****    * Define macro ARM_MATH_BIG_ENDIAN to build the library for big endian targets. By default libra
 106:./Libraries/CMSIS/DSP/Include/arm_math.h ****    *
 107:./Libraries/CMSIS/DSP/Include/arm_math.h ****    * - ARM_MATH_MATRIX_CHECK:
 108:./Libraries/CMSIS/DSP/Include/arm_math.h ****    *
 109:./Libraries/CMSIS/DSP/Include/arm_math.h ****    * Define macro ARM_MATH_MATRIX_CHECK for checking on the input and output sizes of matrices
 110:./Libraries/CMSIS/DSP/Include/arm_math.h ****    *
 111:./Libraries/CMSIS/DSP/Include/arm_math.h ****    * - ARM_MATH_ROUNDING:
 112:./Libraries/CMSIS/DSP/Include/arm_math.h ****    *
 113:./Libraries/CMSIS/DSP/Include/arm_math.h ****    * Define macro ARM_MATH_ROUNDING for rounding on support functions
 114:./Libraries/CMSIS/DSP/Include/arm_math.h ****    *
 115:./Libraries/CMSIS/DSP/Include/arm_math.h ****    * - ARM_MATH_LOOPUNROLL:
 116:./Libraries/CMSIS/DSP/Include/arm_math.h ****    *
 117:./Libraries/CMSIS/DSP/Include/arm_math.h ****    * Define macro ARM_MATH_LOOPUNROLL to enable manual loop unrolling in DSP functions
 118:./Libraries/CMSIS/DSP/Include/arm_math.h ****    *
 119:./Libraries/CMSIS/DSP/Include/arm_math.h ****    * - ARM_MATH_NEON:
 120:./Libraries/CMSIS/DSP/Include/arm_math.h ****    *
 121:./Libraries/CMSIS/DSP/Include/arm_math.h ****    * Define macro ARM_MATH_NEON to enable Neon versions of the DSP functions.
 122:./Libraries/CMSIS/DSP/Include/arm_math.h ****    * It is not enabled by default when Neon is available because performances are 
 123:./Libraries/CMSIS/DSP/Include/arm_math.h ****    * dependent on the compiler and target architecture.
 124:./Libraries/CMSIS/DSP/Include/arm_math.h ****    *
 125:./Libraries/CMSIS/DSP/Include/arm_math.h ****    * - ARM_MATH_NEON_EXPERIMENTAL:
 126:./Libraries/CMSIS/DSP/Include/arm_math.h ****    *
 127:./Libraries/CMSIS/DSP/Include/arm_math.h ****    * Define macro ARM_MATH_NEON_EXPERIMENTAL to enable experimental Neon versions of 
 128:./Libraries/CMSIS/DSP/Include/arm_math.h ****    * of some DSP functions. Experimental Neon versions currently do not have better
 129:./Libraries/CMSIS/DSP/Include/arm_math.h ****    * performances than the scalar versions.
 130:./Libraries/CMSIS/DSP/Include/arm_math.h ****    *
 131:./Libraries/CMSIS/DSP/Include/arm_math.h ****    * <hr>
 132:./Libraries/CMSIS/DSP/Include/arm_math.h ****    * CMSIS-DSP in ARM::CMSIS Pack
 133:./Libraries/CMSIS/DSP/Include/arm_math.h ****    * -----------------------------
 134:./Libraries/CMSIS/DSP/Include/arm_math.h ****    *
 135:./Libraries/CMSIS/DSP/Include/arm_math.h ****    * The following files relevant to CMSIS-DSP are present in the <b>ARM::CMSIS</b> Pack directorie
 136:./Libraries/CMSIS/DSP/Include/arm_math.h ****    * |File/Folder                      |Content                                                    
 137:./Libraries/CMSIS/DSP/Include/arm_math.h ****    * |---------------------------------|-----------------------------------------------------------
 138:./Libraries/CMSIS/DSP/Include/arm_math.h ****    * |\b CMSIS\\Documentation\\DSP     | This documentation                                        
 139:./Libraries/CMSIS/DSP/Include/arm_math.h ****    * |\b CMSIS\\DSP\\DSP_Lib_TestSuite | DSP_Lib test suite                                        
 140:./Libraries/CMSIS/DSP/Include/arm_math.h ****    * |\b CMSIS\\DSP\\Examples          | Example projects demonstrating the usage of the library fu
 141:./Libraries/CMSIS/DSP/Include/arm_math.h ****    * |\b CMSIS\\DSP\\Include           | DSP_Lib include files                                     
 142:./Libraries/CMSIS/DSP/Include/arm_math.h ****    * |\b CMSIS\\DSP\\Lib               | DSP_Lib binaries                                          
 143:./Libraries/CMSIS/DSP/Include/arm_math.h ****    * |\b CMSIS\\DSP\\Projects          | Projects to rebuild DSP_Lib binaries                      
 144:./Libraries/CMSIS/DSP/Include/arm_math.h ****    * |\b CMSIS\\DSP\\Source            | DSP_Lib source files                                      
 145:./Libraries/CMSIS/DSP/Include/arm_math.h ****    *
 146:./Libraries/CMSIS/DSP/Include/arm_math.h ****    * <hr>
 147:./Libraries/CMSIS/DSP/Include/arm_math.h ****    * Revision History of CMSIS-DSP
 148:./Libraries/CMSIS/DSP/Include/arm_math.h ****    * ------------
 149:./Libraries/CMSIS/DSP/Include/arm_math.h ****    * Please refer to \ref ChangeLog_pg.
 150:./Libraries/CMSIS/DSP/Include/arm_math.h ****    */
 151:./Libraries/CMSIS/DSP/Include/arm_math.h **** 
 152:./Libraries/CMSIS/DSP/Include/arm_math.h **** 
 153:./Libraries/CMSIS/DSP/Include/arm_math.h **** /**
 154:./Libraries/CMSIS/DSP/Include/arm_math.h ****  * @defgroup groupMath Basic Math Functions
 155:./Libraries/CMSIS/DSP/Include/arm_math.h ****  */
 156:./Libraries/CMSIS/DSP/Include/arm_math.h **** 
 157:./Libraries/CMSIS/DSP/Include/arm_math.h **** /**
 158:./Libraries/CMSIS/DSP/Include/arm_math.h ****  * @defgroup groupFastMath Fast Math Functions
 159:./Libraries/CMSIS/DSP/Include/arm_math.h ****  * This set of functions provides a fast approximation to sine, cosine, and square root.
 160:./Libraries/CMSIS/DSP/Include/arm_math.h ****  * As compared to most of the other functions in the CMSIS math library, the fast math functions
 161:./Libraries/CMSIS/DSP/Include/arm_math.h ****  * operate on individual values and not arrays.
ARM GAS  /tmp/cch0zgui.s 			page 11


 162:./Libraries/CMSIS/DSP/Include/arm_math.h ****  * There are separate functions for Q15, Q31, and floating-point data.
 163:./Libraries/CMSIS/DSP/Include/arm_math.h ****  *
 164:./Libraries/CMSIS/DSP/Include/arm_math.h ****  */
 165:./Libraries/CMSIS/DSP/Include/arm_math.h **** 
 166:./Libraries/CMSIS/DSP/Include/arm_math.h **** /**
 167:./Libraries/CMSIS/DSP/Include/arm_math.h ****  * @defgroup groupCmplxMath Complex Math Functions
 168:./Libraries/CMSIS/DSP/Include/arm_math.h ****  * This set of functions operates on complex data vectors.
 169:./Libraries/CMSIS/DSP/Include/arm_math.h ****  * The data in the complex arrays is stored in an interleaved fashion
 170:./Libraries/CMSIS/DSP/Include/arm_math.h ****  * (real, imag, real, imag, ...).
 171:./Libraries/CMSIS/DSP/Include/arm_math.h ****  * In the API functions, the number of samples in a complex array refers
 172:./Libraries/CMSIS/DSP/Include/arm_math.h ****  * to the number of complex values; the array contains twice this number of
 173:./Libraries/CMSIS/DSP/Include/arm_math.h ****  * real values.
 174:./Libraries/CMSIS/DSP/Include/arm_math.h ****  */
 175:./Libraries/CMSIS/DSP/Include/arm_math.h **** 
 176:./Libraries/CMSIS/DSP/Include/arm_math.h **** /**
 177:./Libraries/CMSIS/DSP/Include/arm_math.h ****  * @defgroup groupFilters Filtering Functions
 178:./Libraries/CMSIS/DSP/Include/arm_math.h ****  */
 179:./Libraries/CMSIS/DSP/Include/arm_math.h **** 
 180:./Libraries/CMSIS/DSP/Include/arm_math.h **** /**
 181:./Libraries/CMSIS/DSP/Include/arm_math.h ****  * @defgroup groupMatrix Matrix Functions
 182:./Libraries/CMSIS/DSP/Include/arm_math.h ****  *
 183:./Libraries/CMSIS/DSP/Include/arm_math.h ****  * This set of functions provides basic matrix math operations.
 184:./Libraries/CMSIS/DSP/Include/arm_math.h ****  * The functions operate on matrix data structures.  For example,
 185:./Libraries/CMSIS/DSP/Include/arm_math.h ****  * the type
 186:./Libraries/CMSIS/DSP/Include/arm_math.h ****  * definition for the floating-point matrix structure is shown
 187:./Libraries/CMSIS/DSP/Include/arm_math.h ****  * below:
 188:./Libraries/CMSIS/DSP/Include/arm_math.h ****  * <pre>
 189:./Libraries/CMSIS/DSP/Include/arm_math.h ****  *     typedef struct
 190:./Libraries/CMSIS/DSP/Include/arm_math.h ****  *     {
 191:./Libraries/CMSIS/DSP/Include/arm_math.h ****  *       uint16_t numRows;     // number of rows of the matrix.
 192:./Libraries/CMSIS/DSP/Include/arm_math.h ****  *       uint16_t numCols;     // number of columns of the matrix.
 193:./Libraries/CMSIS/DSP/Include/arm_math.h ****  *       float32_t *pData;     // points to the data of the matrix.
 194:./Libraries/CMSIS/DSP/Include/arm_math.h ****  *     } arm_matrix_instance_f32;
 195:./Libraries/CMSIS/DSP/Include/arm_math.h ****  * </pre>
 196:./Libraries/CMSIS/DSP/Include/arm_math.h ****  * There are similar definitions for Q15 and Q31 data types.
 197:./Libraries/CMSIS/DSP/Include/arm_math.h ****  *
 198:./Libraries/CMSIS/DSP/Include/arm_math.h ****  * The structure specifies the size of the matrix and then points to
 199:./Libraries/CMSIS/DSP/Include/arm_math.h ****  * an array of data.  The array is of size <code>numRows X numCols</code>
 200:./Libraries/CMSIS/DSP/Include/arm_math.h ****  * and the values are arranged in row order.  That is, the
 201:./Libraries/CMSIS/DSP/Include/arm_math.h ****  * matrix element (i, j) is stored at:
 202:./Libraries/CMSIS/DSP/Include/arm_math.h ****  * <pre>
 203:./Libraries/CMSIS/DSP/Include/arm_math.h ****  *     pData[i*numCols + j]
 204:./Libraries/CMSIS/DSP/Include/arm_math.h ****  * </pre>
 205:./Libraries/CMSIS/DSP/Include/arm_math.h ****  *
 206:./Libraries/CMSIS/DSP/Include/arm_math.h ****  * \par Init Functions
 207:./Libraries/CMSIS/DSP/Include/arm_math.h ****  * There is an associated initialization function for each type of matrix
 208:./Libraries/CMSIS/DSP/Include/arm_math.h ****  * data structure.
 209:./Libraries/CMSIS/DSP/Include/arm_math.h ****  * The initialization function sets the values of the internal structure fields.
 210:./Libraries/CMSIS/DSP/Include/arm_math.h ****  * Refer to \ref arm_mat_init_f32(), \ref arm_mat_init_q31() and \ref arm_mat_init_q15()
 211:./Libraries/CMSIS/DSP/Include/arm_math.h ****  * for floating-point, Q31 and Q15 types,  respectively.
 212:./Libraries/CMSIS/DSP/Include/arm_math.h ****  *
 213:./Libraries/CMSIS/DSP/Include/arm_math.h ****  * \par
 214:./Libraries/CMSIS/DSP/Include/arm_math.h ****  * Use of the initialization function is optional. However, if initialization function is used
 215:./Libraries/CMSIS/DSP/Include/arm_math.h ****  * then the instance structure cannot be placed into a const data section.
 216:./Libraries/CMSIS/DSP/Include/arm_math.h ****  * To place the instance structure in a const data
 217:./Libraries/CMSIS/DSP/Include/arm_math.h ****  * section, manually initialize the data structure.  For example:
 218:./Libraries/CMSIS/DSP/Include/arm_math.h ****  * <pre>
ARM GAS  /tmp/cch0zgui.s 			page 12


 219:./Libraries/CMSIS/DSP/Include/arm_math.h ****  * <code>arm_matrix_instance_f32 S = {nRows, nColumns, pData};</code>
 220:./Libraries/CMSIS/DSP/Include/arm_math.h ****  * <code>arm_matrix_instance_q31 S = {nRows, nColumns, pData};</code>
 221:./Libraries/CMSIS/DSP/Include/arm_math.h ****  * <code>arm_matrix_instance_q15 S = {nRows, nColumns, pData};</code>
 222:./Libraries/CMSIS/DSP/Include/arm_math.h ****  * </pre>
 223:./Libraries/CMSIS/DSP/Include/arm_math.h ****  * where <code>nRows</code> specifies the number of rows, <code>nColumns</code>
 224:./Libraries/CMSIS/DSP/Include/arm_math.h ****  * specifies the number of columns, and <code>pData</code> points to the
 225:./Libraries/CMSIS/DSP/Include/arm_math.h ****  * data array.
 226:./Libraries/CMSIS/DSP/Include/arm_math.h ****  *
 227:./Libraries/CMSIS/DSP/Include/arm_math.h ****  * \par Size Checking
 228:./Libraries/CMSIS/DSP/Include/arm_math.h ****  * By default all of the matrix functions perform size checking on the input and
 229:./Libraries/CMSIS/DSP/Include/arm_math.h ****  * output matrices. For example, the matrix addition function verifies that the
 230:./Libraries/CMSIS/DSP/Include/arm_math.h ****  * two input matrices and the output matrix all have the same number of rows and
 231:./Libraries/CMSIS/DSP/Include/arm_math.h ****  * columns. If the size check fails the functions return:
 232:./Libraries/CMSIS/DSP/Include/arm_math.h ****  * <pre>
 233:./Libraries/CMSIS/DSP/Include/arm_math.h ****  *     ARM_MATH_SIZE_MISMATCH
 234:./Libraries/CMSIS/DSP/Include/arm_math.h ****  * </pre>
 235:./Libraries/CMSIS/DSP/Include/arm_math.h ****  * Otherwise the functions return
 236:./Libraries/CMSIS/DSP/Include/arm_math.h ****  * <pre>
 237:./Libraries/CMSIS/DSP/Include/arm_math.h ****  *     ARM_MATH_SUCCESS
 238:./Libraries/CMSIS/DSP/Include/arm_math.h ****  * </pre>
 239:./Libraries/CMSIS/DSP/Include/arm_math.h ****  * There is some overhead associated with this matrix size checking.
 240:./Libraries/CMSIS/DSP/Include/arm_math.h ****  * The matrix size checking is enabled via the \#define
 241:./Libraries/CMSIS/DSP/Include/arm_math.h ****  * <pre>
 242:./Libraries/CMSIS/DSP/Include/arm_math.h ****  *     ARM_MATH_MATRIX_CHECK
 243:./Libraries/CMSIS/DSP/Include/arm_math.h ****  * </pre>
 244:./Libraries/CMSIS/DSP/Include/arm_math.h ****  * within the library project settings.  By default this macro is defined
 245:./Libraries/CMSIS/DSP/Include/arm_math.h ****  * and size checking is enabled. By changing the project settings and
 246:./Libraries/CMSIS/DSP/Include/arm_math.h ****  * undefining this macro size checking is eliminated and the functions
 247:./Libraries/CMSIS/DSP/Include/arm_math.h ****  * run a bit faster. With size checking disabled the functions always
 248:./Libraries/CMSIS/DSP/Include/arm_math.h ****  * return <code>ARM_MATH_SUCCESS</code>.
 249:./Libraries/CMSIS/DSP/Include/arm_math.h ****  */
 250:./Libraries/CMSIS/DSP/Include/arm_math.h **** 
 251:./Libraries/CMSIS/DSP/Include/arm_math.h **** /**
 252:./Libraries/CMSIS/DSP/Include/arm_math.h ****  * @defgroup groupTransforms Transform Functions
 253:./Libraries/CMSIS/DSP/Include/arm_math.h ****  */
 254:./Libraries/CMSIS/DSP/Include/arm_math.h **** 
 255:./Libraries/CMSIS/DSP/Include/arm_math.h **** /**
 256:./Libraries/CMSIS/DSP/Include/arm_math.h ****  * @defgroup groupController Controller Functions
 257:./Libraries/CMSIS/DSP/Include/arm_math.h ****  */
 258:./Libraries/CMSIS/DSP/Include/arm_math.h **** 
 259:./Libraries/CMSIS/DSP/Include/arm_math.h **** /**
 260:./Libraries/CMSIS/DSP/Include/arm_math.h ****  * @defgroup groupStats Statistics Functions
 261:./Libraries/CMSIS/DSP/Include/arm_math.h ****  */
 262:./Libraries/CMSIS/DSP/Include/arm_math.h **** 
 263:./Libraries/CMSIS/DSP/Include/arm_math.h **** /**
 264:./Libraries/CMSIS/DSP/Include/arm_math.h ****  * @defgroup groupSupport Support Functions
 265:./Libraries/CMSIS/DSP/Include/arm_math.h ****  */
 266:./Libraries/CMSIS/DSP/Include/arm_math.h **** 
 267:./Libraries/CMSIS/DSP/Include/arm_math.h **** /**
 268:./Libraries/CMSIS/DSP/Include/arm_math.h ****  * @defgroup groupInterpolation Interpolation Functions
 269:./Libraries/CMSIS/DSP/Include/arm_math.h ****  * These functions perform 1- and 2-dimensional interpolation of data.
 270:./Libraries/CMSIS/DSP/Include/arm_math.h ****  * Linear interpolation is used for 1-dimensional data and
 271:./Libraries/CMSIS/DSP/Include/arm_math.h ****  * bilinear interpolation is used for 2-dimensional data.
 272:./Libraries/CMSIS/DSP/Include/arm_math.h ****  */
 273:./Libraries/CMSIS/DSP/Include/arm_math.h **** 
 274:./Libraries/CMSIS/DSP/Include/arm_math.h **** /**
 275:./Libraries/CMSIS/DSP/Include/arm_math.h ****  * @defgroup groupExamples Examples
ARM GAS  /tmp/cch0zgui.s 			page 13


 276:./Libraries/CMSIS/DSP/Include/arm_math.h ****  */
 277:./Libraries/CMSIS/DSP/Include/arm_math.h **** 
 278:./Libraries/CMSIS/DSP/Include/arm_math.h **** 
 279:./Libraries/CMSIS/DSP/Include/arm_math.h **** #ifndef _ARM_MATH_H
 280:./Libraries/CMSIS/DSP/Include/arm_math.h **** #define _ARM_MATH_H
 281:./Libraries/CMSIS/DSP/Include/arm_math.h **** 
 282:./Libraries/CMSIS/DSP/Include/arm_math.h **** /* Compiler specific diagnostic adjustment */
 283:./Libraries/CMSIS/DSP/Include/arm_math.h **** #if   defined ( __CC_ARM )
 284:./Libraries/CMSIS/DSP/Include/arm_math.h **** 
 285:./Libraries/CMSIS/DSP/Include/arm_math.h **** #elif defined ( __ARMCC_VERSION ) && ( __ARMCC_VERSION >= 6010050 )
 286:./Libraries/CMSIS/DSP/Include/arm_math.h **** 
 287:./Libraries/CMSIS/DSP/Include/arm_math.h **** #elif defined ( __GNUC__ )
 288:./Libraries/CMSIS/DSP/Include/arm_math.h ****   #pragma GCC diagnostic push
 289:./Libraries/CMSIS/DSP/Include/arm_math.h ****   #pragma GCC diagnostic ignored "-Wsign-conversion"
 290:./Libraries/CMSIS/DSP/Include/arm_math.h ****   #pragma GCC diagnostic ignored "-Wconversion"
 291:./Libraries/CMSIS/DSP/Include/arm_math.h ****   #pragma GCC diagnostic ignored "-Wunused-parameter"
 292:./Libraries/CMSIS/DSP/Include/arm_math.h **** 
 293:./Libraries/CMSIS/DSP/Include/arm_math.h **** #elif defined ( __ICCARM__ )
 294:./Libraries/CMSIS/DSP/Include/arm_math.h **** 
 295:./Libraries/CMSIS/DSP/Include/arm_math.h **** #elif defined ( __TI_ARM__ )
 296:./Libraries/CMSIS/DSP/Include/arm_math.h **** 
 297:./Libraries/CMSIS/DSP/Include/arm_math.h **** #elif defined ( __CSMC__ )
 298:./Libraries/CMSIS/DSP/Include/arm_math.h **** 
 299:./Libraries/CMSIS/DSP/Include/arm_math.h **** #elif defined ( __TASKING__ )
 300:./Libraries/CMSIS/DSP/Include/arm_math.h **** 
 301:./Libraries/CMSIS/DSP/Include/arm_math.h **** #elif defined ( _MSC_VER )
 302:./Libraries/CMSIS/DSP/Include/arm_math.h **** 
 303:./Libraries/CMSIS/DSP/Include/arm_math.h **** #else
 304:./Libraries/CMSIS/DSP/Include/arm_math.h ****   #error Unknown compiler
 305:./Libraries/CMSIS/DSP/Include/arm_math.h **** #endif
 306:./Libraries/CMSIS/DSP/Include/arm_math.h **** 
 307:./Libraries/CMSIS/DSP/Include/arm_math.h **** 
 308:./Libraries/CMSIS/DSP/Include/arm_math.h **** /* Included for instrinsics definitions */
 309:./Libraries/CMSIS/DSP/Include/arm_math.h **** #if !defined ( _MSC_VER )
 310:./Libraries/CMSIS/DSP/Include/arm_math.h **** #include "cmsis_compiler.h"
 311:./Libraries/CMSIS/DSP/Include/arm_math.h **** #else
 312:./Libraries/CMSIS/DSP/Include/arm_math.h **** #include <stdint.h>
 313:./Libraries/CMSIS/DSP/Include/arm_math.h **** #define __STATIC_FORCEINLINE static __forceinline
 314:./Libraries/CMSIS/DSP/Include/arm_math.h **** #define __ALIGNED(x) __declspec(align(x))
 315:./Libraries/CMSIS/DSP/Include/arm_math.h **** #define LOW_OPTIMIZATION_ENTER
 316:./Libraries/CMSIS/DSP/Include/arm_math.h **** #define LOW_OPTIMIZATION_EXIT
 317:./Libraries/CMSIS/DSP/Include/arm_math.h **** #define IAR_ONLY_LOW_OPTIMIZATION_ENTER 
 318:./Libraries/CMSIS/DSP/Include/arm_math.h **** #define IAR_ONLY_LOW_OPTIMIZATION_EXIT
 319:./Libraries/CMSIS/DSP/Include/arm_math.h **** #endif
 320:./Libraries/CMSIS/DSP/Include/arm_math.h **** 
 321:./Libraries/CMSIS/DSP/Include/arm_math.h **** #include "string.h"
 322:./Libraries/CMSIS/DSP/Include/arm_math.h **** #include "math.h"
 323:./Libraries/CMSIS/DSP/Include/arm_math.h **** #include "float.h"
 324:./Libraries/CMSIS/DSP/Include/arm_math.h **** 
 325:./Libraries/CMSIS/DSP/Include/arm_math.h **** /* evaluate ARM DSP feature */
 326:./Libraries/CMSIS/DSP/Include/arm_math.h **** #if (defined (__ARM_FEATURE_DSP) && (__ARM_FEATURE_DSP == 1))
 327:./Libraries/CMSIS/DSP/Include/arm_math.h ****   #define ARM_MATH_DSP                   1
 328:./Libraries/CMSIS/DSP/Include/arm_math.h **** #endif
 329:./Libraries/CMSIS/DSP/Include/arm_math.h **** 
 330:./Libraries/CMSIS/DSP/Include/arm_math.h **** #if defined(__ARM_NEON)
 331:./Libraries/CMSIS/DSP/Include/arm_math.h **** #include <arm_neon.h>
 332:./Libraries/CMSIS/DSP/Include/arm_math.h **** #endif
ARM GAS  /tmp/cch0zgui.s 			page 14


 333:./Libraries/CMSIS/DSP/Include/arm_math.h **** 
 334:./Libraries/CMSIS/DSP/Include/arm_math.h **** 
 335:./Libraries/CMSIS/DSP/Include/arm_math.h **** #ifdef   __cplusplus
 336:./Libraries/CMSIS/DSP/Include/arm_math.h **** extern "C"
 337:./Libraries/CMSIS/DSP/Include/arm_math.h **** {
 338:./Libraries/CMSIS/DSP/Include/arm_math.h **** #endif
 339:./Libraries/CMSIS/DSP/Include/arm_math.h **** 
 340:./Libraries/CMSIS/DSP/Include/arm_math.h **** 
 341:./Libraries/CMSIS/DSP/Include/arm_math.h ****   /**
 342:./Libraries/CMSIS/DSP/Include/arm_math.h ****    * @brief Macros required for reciprocal calculation in Normalized LMS
 343:./Libraries/CMSIS/DSP/Include/arm_math.h ****    */
 344:./Libraries/CMSIS/DSP/Include/arm_math.h **** 
 345:./Libraries/CMSIS/DSP/Include/arm_math.h **** #define DELTA_Q31          (0x100)
 346:./Libraries/CMSIS/DSP/Include/arm_math.h **** #define DELTA_Q15          0x5
 347:./Libraries/CMSIS/DSP/Include/arm_math.h **** #define INDEX_MASK         0x0000003F
 348:./Libraries/CMSIS/DSP/Include/arm_math.h **** #ifndef PI
 349:./Libraries/CMSIS/DSP/Include/arm_math.h ****   #define PI               3.14159265358979f
 350:./Libraries/CMSIS/DSP/Include/arm_math.h **** #endif
 351:./Libraries/CMSIS/DSP/Include/arm_math.h **** 
 352:./Libraries/CMSIS/DSP/Include/arm_math.h ****   /**
 353:./Libraries/CMSIS/DSP/Include/arm_math.h ****    * @brief Macros required for SINE and COSINE Fast math approximations
 354:./Libraries/CMSIS/DSP/Include/arm_math.h ****    */
 355:./Libraries/CMSIS/DSP/Include/arm_math.h **** 
 356:./Libraries/CMSIS/DSP/Include/arm_math.h **** #define FAST_MATH_TABLE_SIZE  512
 357:./Libraries/CMSIS/DSP/Include/arm_math.h **** #define FAST_MATH_Q31_SHIFT   (32 - 10)
 358:./Libraries/CMSIS/DSP/Include/arm_math.h **** #define FAST_MATH_Q15_SHIFT   (16 - 10)
 359:./Libraries/CMSIS/DSP/Include/arm_math.h **** #define CONTROLLER_Q31_SHIFT  (32 - 9)
 360:./Libraries/CMSIS/DSP/Include/arm_math.h **** #define TABLE_SPACING_Q31     0x400000
 361:./Libraries/CMSIS/DSP/Include/arm_math.h **** #define TABLE_SPACING_Q15     0x80
 362:./Libraries/CMSIS/DSP/Include/arm_math.h **** 
 363:./Libraries/CMSIS/DSP/Include/arm_math.h ****   /**
 364:./Libraries/CMSIS/DSP/Include/arm_math.h ****    * @brief Macros required for SINE and COSINE Controller functions
 365:./Libraries/CMSIS/DSP/Include/arm_math.h ****    */
 366:./Libraries/CMSIS/DSP/Include/arm_math.h ****   /* 1.31(q31) Fixed value of 2/360 */
 367:./Libraries/CMSIS/DSP/Include/arm_math.h ****   /* -1 to +1 is divided into 360 values so total spacing is (2/360) */
 368:./Libraries/CMSIS/DSP/Include/arm_math.h **** #define INPUT_SPACING         0xB60B61
 369:./Libraries/CMSIS/DSP/Include/arm_math.h **** 
 370:./Libraries/CMSIS/DSP/Include/arm_math.h **** 
 371:./Libraries/CMSIS/DSP/Include/arm_math.h ****   /**
 372:./Libraries/CMSIS/DSP/Include/arm_math.h ****    * @brief Error status returned by some functions in the library.
 373:./Libraries/CMSIS/DSP/Include/arm_math.h ****    */
 374:./Libraries/CMSIS/DSP/Include/arm_math.h **** 
 375:./Libraries/CMSIS/DSP/Include/arm_math.h ****   typedef enum
 376:./Libraries/CMSIS/DSP/Include/arm_math.h ****   {
 377:./Libraries/CMSIS/DSP/Include/arm_math.h ****     ARM_MATH_SUCCESS        =  0,        /**< No error */
 378:./Libraries/CMSIS/DSP/Include/arm_math.h ****     ARM_MATH_ARGUMENT_ERROR = -1,        /**< One or more arguments are incorrect */
 379:./Libraries/CMSIS/DSP/Include/arm_math.h ****     ARM_MATH_LENGTH_ERROR   = -2,        /**< Length of data buffer is incorrect */
 380:./Libraries/CMSIS/DSP/Include/arm_math.h ****     ARM_MATH_SIZE_MISMATCH  = -3,        /**< Size of matrices is not compatible with the operation
 381:./Libraries/CMSIS/DSP/Include/arm_math.h ****     ARM_MATH_NANINF         = -4,        /**< Not-a-number (NaN) or infinity is generated */
 382:./Libraries/CMSIS/DSP/Include/arm_math.h ****     ARM_MATH_SINGULAR       = -5,        /**< Input matrix is singular and cannot be inverted */
 383:./Libraries/CMSIS/DSP/Include/arm_math.h ****     ARM_MATH_TEST_FAILURE   = -6         /**< Test Failed */
 384:./Libraries/CMSIS/DSP/Include/arm_math.h ****   } arm_status;
 385:./Libraries/CMSIS/DSP/Include/arm_math.h **** 
 386:./Libraries/CMSIS/DSP/Include/arm_math.h ****   /**
 387:./Libraries/CMSIS/DSP/Include/arm_math.h ****    * @brief 8-bit fractional data type in 1.7 format.
 388:./Libraries/CMSIS/DSP/Include/arm_math.h ****    */
 389:./Libraries/CMSIS/DSP/Include/arm_math.h ****   typedef int8_t q7_t;
ARM GAS  /tmp/cch0zgui.s 			page 15


 390:./Libraries/CMSIS/DSP/Include/arm_math.h **** 
 391:./Libraries/CMSIS/DSP/Include/arm_math.h ****   /**
 392:./Libraries/CMSIS/DSP/Include/arm_math.h ****    * @brief 16-bit fractional data type in 1.15 format.
 393:./Libraries/CMSIS/DSP/Include/arm_math.h ****    */
 394:./Libraries/CMSIS/DSP/Include/arm_math.h ****   typedef int16_t q15_t;
 395:./Libraries/CMSIS/DSP/Include/arm_math.h **** 
 396:./Libraries/CMSIS/DSP/Include/arm_math.h ****   /**
 397:./Libraries/CMSIS/DSP/Include/arm_math.h ****    * @brief 32-bit fractional data type in 1.31 format.
 398:./Libraries/CMSIS/DSP/Include/arm_math.h ****    */
 399:./Libraries/CMSIS/DSP/Include/arm_math.h ****   typedef int32_t q31_t;
 400:./Libraries/CMSIS/DSP/Include/arm_math.h **** 
 401:./Libraries/CMSIS/DSP/Include/arm_math.h ****   /**
 402:./Libraries/CMSIS/DSP/Include/arm_math.h ****    * @brief 64-bit fractional data type in 1.63 format.
 403:./Libraries/CMSIS/DSP/Include/arm_math.h ****    */
 404:./Libraries/CMSIS/DSP/Include/arm_math.h ****   typedef int64_t q63_t;
 405:./Libraries/CMSIS/DSP/Include/arm_math.h **** 
 406:./Libraries/CMSIS/DSP/Include/arm_math.h ****   /**
 407:./Libraries/CMSIS/DSP/Include/arm_math.h ****    * @brief 32-bit floating-point type definition.
 408:./Libraries/CMSIS/DSP/Include/arm_math.h ****    */
 409:./Libraries/CMSIS/DSP/Include/arm_math.h ****   typedef float float32_t;
 410:./Libraries/CMSIS/DSP/Include/arm_math.h **** 
 411:./Libraries/CMSIS/DSP/Include/arm_math.h ****   /**
 412:./Libraries/CMSIS/DSP/Include/arm_math.h ****    * @brief 64-bit floating-point type definition.
 413:./Libraries/CMSIS/DSP/Include/arm_math.h ****    */
 414:./Libraries/CMSIS/DSP/Include/arm_math.h ****   typedef double float64_t;
 415:./Libraries/CMSIS/DSP/Include/arm_math.h **** 
 416:./Libraries/CMSIS/DSP/Include/arm_math.h **** 
 417:./Libraries/CMSIS/DSP/Include/arm_math.h **** /**
 418:./Libraries/CMSIS/DSP/Include/arm_math.h ****   @brief definition to read/write two 16 bit values.
 419:./Libraries/CMSIS/DSP/Include/arm_math.h ****   @deprecated
 420:./Libraries/CMSIS/DSP/Include/arm_math.h ****  */
 421:./Libraries/CMSIS/DSP/Include/arm_math.h **** #if   defined ( __CC_ARM )
 422:./Libraries/CMSIS/DSP/Include/arm_math.h ****   #define __SIMD32_TYPE int32_t __packed
 423:./Libraries/CMSIS/DSP/Include/arm_math.h **** #elif defined ( __ARMCC_VERSION ) && ( __ARMCC_VERSION >= 6010050 )
 424:./Libraries/CMSIS/DSP/Include/arm_math.h ****   #define __SIMD32_TYPE int32_t
 425:./Libraries/CMSIS/DSP/Include/arm_math.h **** #elif defined ( __GNUC__ )
 426:./Libraries/CMSIS/DSP/Include/arm_math.h ****   #define __SIMD32_TYPE int32_t
 427:./Libraries/CMSIS/DSP/Include/arm_math.h **** #elif defined ( __ICCARM__ )
 428:./Libraries/CMSIS/DSP/Include/arm_math.h ****   #define __SIMD32_TYPE int32_t __packed
 429:./Libraries/CMSIS/DSP/Include/arm_math.h **** #elif defined ( __TI_ARM__ )
 430:./Libraries/CMSIS/DSP/Include/arm_math.h ****   #define __SIMD32_TYPE int32_t
 431:./Libraries/CMSIS/DSP/Include/arm_math.h **** #elif defined ( __CSMC__ )
 432:./Libraries/CMSIS/DSP/Include/arm_math.h ****   #define __SIMD32_TYPE int32_t
 433:./Libraries/CMSIS/DSP/Include/arm_math.h **** #elif defined ( __TASKING__ )
 434:./Libraries/CMSIS/DSP/Include/arm_math.h ****   #define __SIMD32_TYPE __un(aligned) int32_t
 435:./Libraries/CMSIS/DSP/Include/arm_math.h **** #elif defined(_MSC_VER )
 436:./Libraries/CMSIS/DSP/Include/arm_math.h ****   #define __SIMD32_TYPE int32_t
 437:./Libraries/CMSIS/DSP/Include/arm_math.h **** #else
 438:./Libraries/CMSIS/DSP/Include/arm_math.h ****   #error Unknown compiler
 439:./Libraries/CMSIS/DSP/Include/arm_math.h **** #endif
 440:./Libraries/CMSIS/DSP/Include/arm_math.h **** 
 441:./Libraries/CMSIS/DSP/Include/arm_math.h **** #define __SIMD32(addr)        (*(__SIMD32_TYPE **) & (addr))
 442:./Libraries/CMSIS/DSP/Include/arm_math.h **** #define __SIMD32_CONST(addr)  ( (__SIMD32_TYPE * )   (addr))
 443:./Libraries/CMSIS/DSP/Include/arm_math.h **** #define _SIMD32_OFFSET(addr)  (*(__SIMD32_TYPE * )   (addr))
 444:./Libraries/CMSIS/DSP/Include/arm_math.h **** #define __SIMD64(addr)        (*(      int64_t **) & (addr))
 445:./Libraries/CMSIS/DSP/Include/arm_math.h **** 
 446:./Libraries/CMSIS/DSP/Include/arm_math.h **** /* SIMD replacement */
ARM GAS  /tmp/cch0zgui.s 			page 16


 447:./Libraries/CMSIS/DSP/Include/arm_math.h **** 
 448:./Libraries/CMSIS/DSP/Include/arm_math.h **** 
 449:./Libraries/CMSIS/DSP/Include/arm_math.h **** /**
 450:./Libraries/CMSIS/DSP/Include/arm_math.h ****   @brief         Read 2 Q15 from Q15 pointer.
 451:./Libraries/CMSIS/DSP/Include/arm_math.h ****   @param[in]     pQ15      points to input value
 452:./Libraries/CMSIS/DSP/Include/arm_math.h ****   @return        Q31 value
 453:./Libraries/CMSIS/DSP/Include/arm_math.h ****  */
 454:./Libraries/CMSIS/DSP/Include/arm_math.h **** __STATIC_FORCEINLINE q31_t read_q15x2 (
 455:./Libraries/CMSIS/DSP/Include/arm_math.h ****   q15_t * pQ15)
 456:./Libraries/CMSIS/DSP/Include/arm_math.h **** {
 457:./Libraries/CMSIS/DSP/Include/arm_math.h ****   q31_t val;
 458:./Libraries/CMSIS/DSP/Include/arm_math.h **** 
 459:./Libraries/CMSIS/DSP/Include/arm_math.h ****   memcpy (&val, pQ15, 4);
 460:./Libraries/CMSIS/DSP/Include/arm_math.h **** 
 461:./Libraries/CMSIS/DSP/Include/arm_math.h ****   return (val);
 462:./Libraries/CMSIS/DSP/Include/arm_math.h **** }
 463:./Libraries/CMSIS/DSP/Include/arm_math.h **** 
 464:./Libraries/CMSIS/DSP/Include/arm_math.h **** /**
 465:./Libraries/CMSIS/DSP/Include/arm_math.h ****   @brief         Read 2 Q15 from Q15 pointer and increment pointer afterwards.
 466:./Libraries/CMSIS/DSP/Include/arm_math.h ****   @param[in]     pQ15      points to input value
 467:./Libraries/CMSIS/DSP/Include/arm_math.h ****   @return        Q31 value
 468:./Libraries/CMSIS/DSP/Include/arm_math.h ****  */
 469:./Libraries/CMSIS/DSP/Include/arm_math.h **** __STATIC_FORCEINLINE q31_t read_q15x2_ia (
 470:./Libraries/CMSIS/DSP/Include/arm_math.h ****   q15_t ** pQ15)
 471:./Libraries/CMSIS/DSP/Include/arm_math.h **** {
 472:./Libraries/CMSIS/DSP/Include/arm_math.h ****   q31_t val;
 473:./Libraries/CMSIS/DSP/Include/arm_math.h **** 
 474:./Libraries/CMSIS/DSP/Include/arm_math.h ****   memcpy (&val, *pQ15, 4);
 475:./Libraries/CMSIS/DSP/Include/arm_math.h ****   *pQ15 += 2;
 476:./Libraries/CMSIS/DSP/Include/arm_math.h **** 
 477:./Libraries/CMSIS/DSP/Include/arm_math.h ****   return (val);
 478:./Libraries/CMSIS/DSP/Include/arm_math.h **** }
 479:./Libraries/CMSIS/DSP/Include/arm_math.h **** 
 480:./Libraries/CMSIS/DSP/Include/arm_math.h **** /**
 481:./Libraries/CMSIS/DSP/Include/arm_math.h ****   @brief         Read 2 Q15 from Q15 pointer and decrement pointer afterwards.
 482:./Libraries/CMSIS/DSP/Include/arm_math.h ****   @param[in]     pQ15      points to input value
 483:./Libraries/CMSIS/DSP/Include/arm_math.h ****   @return        Q31 value
 484:./Libraries/CMSIS/DSP/Include/arm_math.h ****  */
 485:./Libraries/CMSIS/DSP/Include/arm_math.h **** __STATIC_FORCEINLINE q31_t read_q15x2_da (
 486:./Libraries/CMSIS/DSP/Include/arm_math.h ****   q15_t ** pQ15)
 487:./Libraries/CMSIS/DSP/Include/arm_math.h **** {
 488:./Libraries/CMSIS/DSP/Include/arm_math.h ****   q31_t val;
 489:./Libraries/CMSIS/DSP/Include/arm_math.h **** 
 490:./Libraries/CMSIS/DSP/Include/arm_math.h ****   memcpy (&val, *pQ15, 4);
 491:./Libraries/CMSIS/DSP/Include/arm_math.h ****   *pQ15 -= 2;
 492:./Libraries/CMSIS/DSP/Include/arm_math.h **** 
 493:./Libraries/CMSIS/DSP/Include/arm_math.h ****   return (val);
 494:./Libraries/CMSIS/DSP/Include/arm_math.h **** }
 495:./Libraries/CMSIS/DSP/Include/arm_math.h **** 
 496:./Libraries/CMSIS/DSP/Include/arm_math.h **** /**
 497:./Libraries/CMSIS/DSP/Include/arm_math.h ****   @brief         Write 2 Q15 to Q15 pointer and increment pointer afterwards.
 498:./Libraries/CMSIS/DSP/Include/arm_math.h ****   @param[in]     pQ15      points to input value
 499:./Libraries/CMSIS/DSP/Include/arm_math.h ****   @param[in]     value     Q31 value
 500:./Libraries/CMSIS/DSP/Include/arm_math.h ****   @return        none
 501:./Libraries/CMSIS/DSP/Include/arm_math.h ****  */
 502:./Libraries/CMSIS/DSP/Include/arm_math.h **** __STATIC_FORCEINLINE void write_q15x2_ia (
 503:./Libraries/CMSIS/DSP/Include/arm_math.h ****   q15_t ** pQ15,
ARM GAS  /tmp/cch0zgui.s 			page 17


 504:./Libraries/CMSIS/DSP/Include/arm_math.h ****   q31_t    value)
 505:./Libraries/CMSIS/DSP/Include/arm_math.h **** {
 506:./Libraries/CMSIS/DSP/Include/arm_math.h ****   q31_t val = value;
 507:./Libraries/CMSIS/DSP/Include/arm_math.h **** 
 508:./Libraries/CMSIS/DSP/Include/arm_math.h ****   memcpy (*pQ15, &val, 4);
 509:./Libraries/CMSIS/DSP/Include/arm_math.h ****   *pQ15 += 2;
 510:./Libraries/CMSIS/DSP/Include/arm_math.h **** }
 511:./Libraries/CMSIS/DSP/Include/arm_math.h **** 
 512:./Libraries/CMSIS/DSP/Include/arm_math.h **** /**
 513:./Libraries/CMSIS/DSP/Include/arm_math.h ****   @brief         Write 2 Q15 to Q15 pointer.
 514:./Libraries/CMSIS/DSP/Include/arm_math.h ****   @param[in]     pQ15      points to input value
 515:./Libraries/CMSIS/DSP/Include/arm_math.h ****   @param[in]     value     Q31 value
 516:./Libraries/CMSIS/DSP/Include/arm_math.h ****   @return        none
 517:./Libraries/CMSIS/DSP/Include/arm_math.h ****  */
 518:./Libraries/CMSIS/DSP/Include/arm_math.h **** __STATIC_FORCEINLINE void write_q15x2 (
 519:./Libraries/CMSIS/DSP/Include/arm_math.h ****   q15_t * pQ15,
 520:./Libraries/CMSIS/DSP/Include/arm_math.h ****   q31_t   value)
 521:./Libraries/CMSIS/DSP/Include/arm_math.h **** {
 522:./Libraries/CMSIS/DSP/Include/arm_math.h ****   q31_t val = value;
 523:./Libraries/CMSIS/DSP/Include/arm_math.h **** 
 524:./Libraries/CMSIS/DSP/Include/arm_math.h ****   memcpy (pQ15, &val, 4);
 525:./Libraries/CMSIS/DSP/Include/arm_math.h **** }
 526:./Libraries/CMSIS/DSP/Include/arm_math.h **** 
 527:./Libraries/CMSIS/DSP/Include/arm_math.h **** 
 528:./Libraries/CMSIS/DSP/Include/arm_math.h **** /**
 529:./Libraries/CMSIS/DSP/Include/arm_math.h ****   @brief         Read 4 Q7 from Q7 pointer and increment pointer afterwards.
 530:./Libraries/CMSIS/DSP/Include/arm_math.h ****   @param[in]     pQ7       points to input value
 531:./Libraries/CMSIS/DSP/Include/arm_math.h ****   @return        Q31 value
 532:./Libraries/CMSIS/DSP/Include/arm_math.h ****  */
 533:./Libraries/CMSIS/DSP/Include/arm_math.h **** __STATIC_FORCEINLINE q31_t read_q7x4_ia (
 534:./Libraries/CMSIS/DSP/Include/arm_math.h ****   q7_t ** pQ7)
 535:./Libraries/CMSIS/DSP/Include/arm_math.h **** {
 536:./Libraries/CMSIS/DSP/Include/arm_math.h ****   q31_t val;
 537:./Libraries/CMSIS/DSP/Include/arm_math.h **** 
 538:./Libraries/CMSIS/DSP/Include/arm_math.h ****   memcpy (&val, *pQ7, 4);
 539:./Libraries/CMSIS/DSP/Include/arm_math.h ****   *pQ7 += 4;
 540:./Libraries/CMSIS/DSP/Include/arm_math.h **** 
 541:./Libraries/CMSIS/DSP/Include/arm_math.h ****   return (val);
 542:./Libraries/CMSIS/DSP/Include/arm_math.h **** }
 543:./Libraries/CMSIS/DSP/Include/arm_math.h **** 
 544:./Libraries/CMSIS/DSP/Include/arm_math.h **** /**
 545:./Libraries/CMSIS/DSP/Include/arm_math.h ****   @brief         Read 4 Q7 from Q7 pointer and decrement pointer afterwards.
 546:./Libraries/CMSIS/DSP/Include/arm_math.h ****   @param[in]     pQ7       points to input value
 547:./Libraries/CMSIS/DSP/Include/arm_math.h ****   @return        Q31 value
 548:./Libraries/CMSIS/DSP/Include/arm_math.h ****  */
 549:./Libraries/CMSIS/DSP/Include/arm_math.h **** __STATIC_FORCEINLINE q31_t read_q7x4_da (
 550:./Libraries/CMSIS/DSP/Include/arm_math.h ****   q7_t ** pQ7)
 551:./Libraries/CMSIS/DSP/Include/arm_math.h **** {
 552:./Libraries/CMSIS/DSP/Include/arm_math.h ****   q31_t val;
 553:./Libraries/CMSIS/DSP/Include/arm_math.h **** 
 554:./Libraries/CMSIS/DSP/Include/arm_math.h ****   memcpy (&val, *pQ7, 4);
 555:./Libraries/CMSIS/DSP/Include/arm_math.h ****   *pQ7 -= 4;
 556:./Libraries/CMSIS/DSP/Include/arm_math.h **** 
 557:./Libraries/CMSIS/DSP/Include/arm_math.h ****   return (val);
 558:./Libraries/CMSIS/DSP/Include/arm_math.h **** }
 559:./Libraries/CMSIS/DSP/Include/arm_math.h **** 
 560:./Libraries/CMSIS/DSP/Include/arm_math.h **** /**
ARM GAS  /tmp/cch0zgui.s 			page 18


 561:./Libraries/CMSIS/DSP/Include/arm_math.h ****   @brief         Write 4 Q7 to Q7 pointer and increment pointer afterwards.
 562:./Libraries/CMSIS/DSP/Include/arm_math.h ****   @param[in]     pQ7       points to input value
 563:./Libraries/CMSIS/DSP/Include/arm_math.h ****   @param[in]     value     Q31 value
 564:./Libraries/CMSIS/DSP/Include/arm_math.h ****   @return        none
 565:./Libraries/CMSIS/DSP/Include/arm_math.h ****  */
 566:./Libraries/CMSIS/DSP/Include/arm_math.h **** __STATIC_FORCEINLINE void write_q7x4_ia (
 567:./Libraries/CMSIS/DSP/Include/arm_math.h ****   q7_t ** pQ7,
 568:./Libraries/CMSIS/DSP/Include/arm_math.h ****   q31_t   value)
 569:./Libraries/CMSIS/DSP/Include/arm_math.h **** {
 570:./Libraries/CMSIS/DSP/Include/arm_math.h ****   q31_t val = value;
 571:./Libraries/CMSIS/DSP/Include/arm_math.h **** 
 572:./Libraries/CMSIS/DSP/Include/arm_math.h ****   memcpy (*pQ7, &val, 4);
 573:./Libraries/CMSIS/DSP/Include/arm_math.h ****   *pQ7 += 4;
 574:./Libraries/CMSIS/DSP/Include/arm_math.h **** }
 575:./Libraries/CMSIS/DSP/Include/arm_math.h **** 
 576:./Libraries/CMSIS/DSP/Include/arm_math.h **** /*
 577:./Libraries/CMSIS/DSP/Include/arm_math.h **** 
 578:./Libraries/CMSIS/DSP/Include/arm_math.h **** Normally those kind of definitions are in a compiler file
 579:./Libraries/CMSIS/DSP/Include/arm_math.h **** in Core or Core_A.
 580:./Libraries/CMSIS/DSP/Include/arm_math.h **** 
 581:./Libraries/CMSIS/DSP/Include/arm_math.h **** But for MSVC compiler it is a bit special. The goal is very specific
 582:./Libraries/CMSIS/DSP/Include/arm_math.h **** to CMSIS-DSP and only to allow the use of this library from other
 583:./Libraries/CMSIS/DSP/Include/arm_math.h **** systems like Python or Matlab.
 584:./Libraries/CMSIS/DSP/Include/arm_math.h **** 
 585:./Libraries/CMSIS/DSP/Include/arm_math.h **** MSVC is not going to be used to cross-compile to ARM. So, having a MSVC
 586:./Libraries/CMSIS/DSP/Include/arm_math.h **** compiler file in Core or Core_A would not make sense.
 587:./Libraries/CMSIS/DSP/Include/arm_math.h **** 
 588:./Libraries/CMSIS/DSP/Include/arm_math.h **** */
 589:./Libraries/CMSIS/DSP/Include/arm_math.h **** #if defined ( _MSC_VER )
 590:./Libraries/CMSIS/DSP/Include/arm_math.h ****     __STATIC_FORCEINLINE uint8_t __CLZ(uint32_t data)
 591:./Libraries/CMSIS/DSP/Include/arm_math.h ****     {
 592:./Libraries/CMSIS/DSP/Include/arm_math.h ****       if (data == 0U) { return 32U; }
 593:./Libraries/CMSIS/DSP/Include/arm_math.h **** 
 594:./Libraries/CMSIS/DSP/Include/arm_math.h ****       uint32_t count = 0U;
 595:./Libraries/CMSIS/DSP/Include/arm_math.h ****       uint32_t mask = 0x80000000U;
 596:./Libraries/CMSIS/DSP/Include/arm_math.h **** 
 597:./Libraries/CMSIS/DSP/Include/arm_math.h ****       while ((data & mask) == 0U)
 598:./Libraries/CMSIS/DSP/Include/arm_math.h ****       {
 599:./Libraries/CMSIS/DSP/Include/arm_math.h ****         count += 1U;
 600:./Libraries/CMSIS/DSP/Include/arm_math.h ****         mask = mask >> 1U;
 601:./Libraries/CMSIS/DSP/Include/arm_math.h ****       }
 602:./Libraries/CMSIS/DSP/Include/arm_math.h ****       return count;
 603:./Libraries/CMSIS/DSP/Include/arm_math.h ****     }
 604:./Libraries/CMSIS/DSP/Include/arm_math.h **** 
 605:./Libraries/CMSIS/DSP/Include/arm_math.h ****   __STATIC_FORCEINLINE int32_t __SSAT(int32_t val, uint32_t sat)
 606:./Libraries/CMSIS/DSP/Include/arm_math.h ****   {
 607:./Libraries/CMSIS/DSP/Include/arm_math.h ****     if ((sat >= 1U) && (sat <= 32U))
 608:./Libraries/CMSIS/DSP/Include/arm_math.h ****     {
 609:./Libraries/CMSIS/DSP/Include/arm_math.h ****       const int32_t max = (int32_t)((1U << (sat - 1U)) - 1U);
 610:./Libraries/CMSIS/DSP/Include/arm_math.h ****       const int32_t min = -1 - max ;
 611:./Libraries/CMSIS/DSP/Include/arm_math.h ****       if (val > max)
 612:./Libraries/CMSIS/DSP/Include/arm_math.h ****       {
 613:./Libraries/CMSIS/DSP/Include/arm_math.h ****         return max;
 614:./Libraries/CMSIS/DSP/Include/arm_math.h ****       }
 615:./Libraries/CMSIS/DSP/Include/arm_math.h ****       else if (val < min)
 616:./Libraries/CMSIS/DSP/Include/arm_math.h ****       {
 617:./Libraries/CMSIS/DSP/Include/arm_math.h ****         return min;
ARM GAS  /tmp/cch0zgui.s 			page 19


 618:./Libraries/CMSIS/DSP/Include/arm_math.h ****       }
 619:./Libraries/CMSIS/DSP/Include/arm_math.h ****     }
 620:./Libraries/CMSIS/DSP/Include/arm_math.h ****     return val;
 621:./Libraries/CMSIS/DSP/Include/arm_math.h ****   }
 622:./Libraries/CMSIS/DSP/Include/arm_math.h **** 
 623:./Libraries/CMSIS/DSP/Include/arm_math.h ****   __STATIC_FORCEINLINE uint32_t __USAT(int32_t val, uint32_t sat)
 624:./Libraries/CMSIS/DSP/Include/arm_math.h ****   {
 625:./Libraries/CMSIS/DSP/Include/arm_math.h ****     if (sat <= 31U)
 626:./Libraries/CMSIS/DSP/Include/arm_math.h ****     {
 627:./Libraries/CMSIS/DSP/Include/arm_math.h ****       const uint32_t max = ((1U << sat) - 1U);
 628:./Libraries/CMSIS/DSP/Include/arm_math.h ****       if (val > (int32_t)max)
 629:./Libraries/CMSIS/DSP/Include/arm_math.h ****       {
 630:./Libraries/CMSIS/DSP/Include/arm_math.h ****         return max;
 631:./Libraries/CMSIS/DSP/Include/arm_math.h ****       }
 632:./Libraries/CMSIS/DSP/Include/arm_math.h ****       else if (val < 0)
 633:./Libraries/CMSIS/DSP/Include/arm_math.h ****       {
 634:./Libraries/CMSIS/DSP/Include/arm_math.h ****         return 0U;
 635:./Libraries/CMSIS/DSP/Include/arm_math.h ****       }
 636:./Libraries/CMSIS/DSP/Include/arm_math.h ****     }
 637:./Libraries/CMSIS/DSP/Include/arm_math.h ****     return (uint32_t)val;
 638:./Libraries/CMSIS/DSP/Include/arm_math.h ****   }
 639:./Libraries/CMSIS/DSP/Include/arm_math.h **** #endif
 640:./Libraries/CMSIS/DSP/Include/arm_math.h **** 
 641:./Libraries/CMSIS/DSP/Include/arm_math.h **** #ifndef ARM_MATH_DSP
 642:./Libraries/CMSIS/DSP/Include/arm_math.h ****   /**
 643:./Libraries/CMSIS/DSP/Include/arm_math.h ****    * @brief definition to pack two 16 bit values.
 644:./Libraries/CMSIS/DSP/Include/arm_math.h ****    */
 645:./Libraries/CMSIS/DSP/Include/arm_math.h ****   #define __PKHBT(ARG1, ARG2, ARG3) ( (((int32_t)(ARG1) <<    0) & (int32_t)0x0000FFFF) | \
 646:./Libraries/CMSIS/DSP/Include/arm_math.h ****                                       (((int32_t)(ARG2) << ARG3) & (int32_t)0xFFFF0000)  )
 647:./Libraries/CMSIS/DSP/Include/arm_math.h ****   #define __PKHTB(ARG1, ARG2, ARG3) ( (((int32_t)(ARG1) <<    0) & (int32_t)0xFFFF0000) | \
 648:./Libraries/CMSIS/DSP/Include/arm_math.h ****                                       (((int32_t)(ARG2) >> ARG3) & (int32_t)0x0000FFFF)  )
 649:./Libraries/CMSIS/DSP/Include/arm_math.h **** #endif
 650:./Libraries/CMSIS/DSP/Include/arm_math.h **** 
 651:./Libraries/CMSIS/DSP/Include/arm_math.h ****    /**
 652:./Libraries/CMSIS/DSP/Include/arm_math.h ****    * @brief definition to pack four 8 bit values.
 653:./Libraries/CMSIS/DSP/Include/arm_math.h ****    */
 654:./Libraries/CMSIS/DSP/Include/arm_math.h **** #ifndef ARM_MATH_BIG_ENDIAN
 655:./Libraries/CMSIS/DSP/Include/arm_math.h ****   #define __PACKq7(v0,v1,v2,v3) ( (((int32_t)(v0) <<  0) & (int32_t)0x000000FF) | \
 656:./Libraries/CMSIS/DSP/Include/arm_math.h ****                                   (((int32_t)(v1) <<  8) & (int32_t)0x0000FF00) | \
 657:./Libraries/CMSIS/DSP/Include/arm_math.h ****                                   (((int32_t)(v2) << 16) & (int32_t)0x00FF0000) | \
 658:./Libraries/CMSIS/DSP/Include/arm_math.h ****                                   (((int32_t)(v3) << 24) & (int32_t)0xFF000000)  )
 659:./Libraries/CMSIS/DSP/Include/arm_math.h **** #else
 660:./Libraries/CMSIS/DSP/Include/arm_math.h ****   #define __PACKq7(v0,v1,v2,v3) ( (((int32_t)(v3) <<  0) & (int32_t)0x000000FF) | \
 661:./Libraries/CMSIS/DSP/Include/arm_math.h ****                                   (((int32_t)(v2) <<  8) & (int32_t)0x0000FF00) | \
 662:./Libraries/CMSIS/DSP/Include/arm_math.h ****                                   (((int32_t)(v1) << 16) & (int32_t)0x00FF0000) | \
 663:./Libraries/CMSIS/DSP/Include/arm_math.h ****                                   (((int32_t)(v0) << 24) & (int32_t)0xFF000000)  )
 664:./Libraries/CMSIS/DSP/Include/arm_math.h **** #endif
 665:./Libraries/CMSIS/DSP/Include/arm_math.h **** 
 666:./Libraries/CMSIS/DSP/Include/arm_math.h **** 
 667:./Libraries/CMSIS/DSP/Include/arm_math.h ****   /**
 668:./Libraries/CMSIS/DSP/Include/arm_math.h ****    * @brief Clips Q63 to Q31 values.
 669:./Libraries/CMSIS/DSP/Include/arm_math.h ****    */
 670:./Libraries/CMSIS/DSP/Include/arm_math.h ****   __STATIC_FORCEINLINE q31_t clip_q63_to_q31(
 671:./Libraries/CMSIS/DSP/Include/arm_math.h ****   q63_t x)
 672:./Libraries/CMSIS/DSP/Include/arm_math.h ****   {
 673:./Libraries/CMSIS/DSP/Include/arm_math.h ****     return ((q31_t) (x >> 32) != ((q31_t) x >> 31)) ?
 324              		.loc 2 673 24
ARM GAS  /tmp/cch0zgui.s 			page 20


 325 02c8 D7E92823 		ldrd	r2, [r7, #160]
 326 02cc 4FF00000 		mov	r0, #0
 327 02d0 4FF00001 		mov	r1, #0
 328 02d4 1800     		movs	r0, r3
 329 02d6 D917     		asrs	r1, r3, #31
 330              		.loc 2 673 13
 331 02d8 0246     		mov	r2, r0
 332              		.loc 2 673 35
 333 02da D7F8A030 		ldr	r3, [r7, #160]
 334              		.loc 2 673 45
 335 02de DB17     		asrs	r3, r3, #31
 674:./Libraries/CMSIS/DSP/Include/arm_math.h ****       ((0x7FFFFFFF ^ ((q31_t) (x >> 63)))) : (q31_t) x;
 336              		.loc 2 674 44
 337 02e0 9A42     		cmp	r2, r3
 338 02e2 11D0     		beq	.L2
 339              		.loc 2 674 34
 340 02e4 D7E92823 		ldrd	r2, [r7, #160]
 341 02e8 4FF00000 		mov	r0, #0
 342 02ec 4FF00001 		mov	r1, #0
 343 02f0 D817     		asrs	r0, r3, #31
 344 02f2 D917     		asrs	r1, r3, #31
 345              		.loc 2 674 23
 346 02f4 0346     		mov	r3, r0
 347              		.loc 2 674 44
 348 02f6 6FF00042 		mvn	r2, #-2147483648
 349 02fa 5A40     		eors	r2, r2, r3
 350 02fc 06E0     		b	.L8
 351              	.L11:
 352 02fe 00BF     		.align	2
 353              	.L10:
 354 0300 00000000 		.word	sinTable_q31
 355 0304 B51F9201 		.word	26353589
 356              	.L2:
 357 0308 D7F8A020 		ldr	r2, [r7, #160]
 358              	.L8:
 359              	.LBE7:
 360              	.LBE6:
 361              		.loc 1 87 12
 362 030c D7F89430 		ldr	r3, [r7, #148]
 363 0310 1A60     		str	r2, [r3]
  88:./Libraries/CMSIS/DSP/Source/ControllerFunctions/arm_sin_cos_q31.c **** 
  89:./Libraries/CMSIS/DSP/Source/ControllerFunctions/arm_sin_cos_q31.c ****   /* Read two nearest values of input value from the cos & sin tables */
  90:./Libraries/CMSIS/DSP/Source/ControllerFunctions/arm_sin_cos_q31.c ****   f1 = sinTable_q31[indexS ];
 364              		.loc 1 90 20
 365 0312 B7F8D620 		ldrh	r2, [r7, #214]
 366              		.loc 1 90 6
 367 0316 B34B     		ldr	r3, .L12
 368 0318 53F82230 		ldr	r3, [r3, r2, lsl #2]
 369 031c C7F8CC30 		str	r3, [r7, #204]
  91:./Libraries/CMSIS/DSP/Source/ControllerFunctions/arm_sin_cos_q31.c ****   f2 = sinTable_q31[indexS+1];
 370              		.loc 1 91 27
 371 0320 B7F8D630 		ldrh	r3, [r7, #214]
 372 0324 5A1C     		adds	r2, r3, #1
 373              		.loc 1 91 6
 374 0326 AF4B     		ldr	r3, .L12
 375 0328 53F82230 		ldr	r3, [r3, r2, lsl #2]
 376 032c C7F8C830 		str	r3, [r7, #200]
ARM GAS  /tmp/cch0zgui.s 			page 21


  92:./Libraries/CMSIS/DSP/Source/ControllerFunctions/arm_sin_cos_q31.c ****   d1 = sinTable_q31[indexC ];
 377              		.loc 1 92 20
 378 0330 B7F8D420 		ldrh	r2, [r7, #212]
 379              		.loc 1 92 6
 380 0334 AB4B     		ldr	r3, .L12
 381 0336 53F82230 		ldr	r3, [r3, r2, lsl #2]
 382 033a C7F8C430 		str	r3, [r7, #196]
  93:./Libraries/CMSIS/DSP/Source/ControllerFunctions/arm_sin_cos_q31.c ****   d2 = sinTable_q31[indexC+1];
 383              		.loc 1 93 27
 384 033e B7F8D430 		ldrh	r3, [r7, #212]
 385 0342 5A1C     		adds	r2, r3, #1
 386              		.loc 1 93 6
 387 0344 A74B     		ldr	r3, .L12
 388 0346 53F82230 		ldr	r3, [r3, r2, lsl #2]
 389 034a C7F8C030 		str	r3, [r7, #192]
  94:./Libraries/CMSIS/DSP/Source/ControllerFunctions/arm_sin_cos_q31.c **** 
  95:./Libraries/CMSIS/DSP/Source/ControllerFunctions/arm_sin_cos_q31.c ****   Df = f2 - f1; // delta between the values of the functions
 390              		.loc 1 95 6
 391 034e D7F8C820 		ldr	r2, [r7, #200]
 392 0352 D7F8CC30 		ldr	r3, [r7, #204]
 393 0356 D31A     		subs	r3, r2, r3
 394 0358 C7F8B830 		str	r3, [r7, #184]
  96:./Libraries/CMSIS/DSP/Source/ControllerFunctions/arm_sin_cos_q31.c ****   temp = Dn * ((q63_t)d1 + d2);
 395              		.loc 1 96 13
 396 035c D7F8BC30 		ldr	r3, [r7, #188]
 397 0360 1C46     		mov	r4, r3
 398 0362 4FEAE475 		asr	r5, r4, #31
 399              		.loc 1 96 16
 400 0366 D7F8C430 		ldr	r3, [r7, #196]
 401 036a 1846     		mov	r0, r3
 402 036c 4FEAE071 		asr	r1, r0, #31
 403              		.loc 1 96 26
 404 0370 D7F8C030 		ldr	r3, [r7, #192]
 405 0374 1A46     		mov	r2, r3
 406 0376 4FEAE273 		asr	r3, r2, #31
 407 037a 8618     		adds	r6, r0, r2
 408 037c 3E67     		str	r6, [r7, #112]
 409 037e 41EB0303 		adc	r3, r1, r3
 410 0382 7B67     		str	r3, [r7, #116]
 411              		.loc 1 96 8
 412 0384 D7E91C89 		ldrd	r8, [r7, #112]
 413 0388 4346     		mov	r3, r8
 414 038a 03FB05F2 		mul	r2, r3, r5
 415 038e 4B46     		mov	r3, r9
 416 0390 04FB03F3 		mul	r3, r4, r3
 417 0394 D118     		adds	r1, r2, r3
 418 0396 4346     		mov	r3, r8
 419 0398 A4FB0323 		umull	r2, r3, r4, r3
 420 039c 1944     		add	r1, r1, r3
 421 039e 0B46     		mov	r3, r1
 422 03a0 C7E92C23 		strd	r2, [r7, #176]
 423 03a4 C7E92C23 		strd	r2, [r7, #176]
  97:./Libraries/CMSIS/DSP/Source/ControllerFunctions/arm_sin_cos_q31.c ****   temp = temp - ((q63_t)Df << 32);
 424              		.loc 1 97 18
 425 03a8 D7F8B830 		ldr	r3, [r7, #184]
 426 03ac 1A46     		mov	r2, r3
 427 03ae 4FEAE273 		asr	r3, r2, #31
ARM GAS  /tmp/cch0zgui.s 			page 22


 428              		.loc 1 97 28
 429 03b2 4FF00000 		mov	r0, #0
 430 03b6 4FF00001 		mov	r1, #0
 431 03ba 1100     		movs	r1, r2
 432 03bc 0020     		movs	r0, #0
 433              		.loc 1 97 8
 434 03be D7E92C23 		ldrd	r2, [r7, #176]
 435 03c2 141A     		subs	r4, r2, r0
 436 03c4 3C62     		str	r4, [r7, #32]
 437 03c6 63EB0103 		sbc	r3, r3, r1
 438 03ca 7B62     		str	r3, [r7, #36]
 439 03cc D7E90834 		ldrd	r3, [r7, #32]
 440 03d0 C7E92C34 		strd	r3, [r7, #176]
  98:./Libraries/CMSIS/DSP/Source/ControllerFunctions/arm_sin_cos_q31.c ****   temp = (q63_t)fract * (temp >> 31);
 441              		.loc 1 98 10
 442 03d4 D7F8D030 		ldr	r3, [r7, #208]
 443 03d8 1C46     		mov	r4, r3
 444 03da 4FEAE475 		asr	r5, r4, #31
 445              		.loc 1 98 31
 446 03de D7E92C23 		ldrd	r2, [r7, #176]
 447 03e2 4FF00000 		mov	r0, #0
 448 03e6 4FF00001 		mov	r1, #0
 449 03ea D00F     		lsrs	r0, r2, #31
 450 03ec 40EA4300 		orr	r0, r0, r3, lsl #1
 451 03f0 D917     		asrs	r1, r3, #31
 452              		.loc 1 98 8
 453 03f2 00FB05F2 		mul	r2, r0, r5
 454 03f6 04FB01F3 		mul	r3, r4, r1
 455 03fa D618     		adds	r6, r2, r3
 456 03fc A4FB0023 		umull	r2, r3, r4, r0
 457 0400 F118     		adds	r1, r6, r3
 458 0402 0B46     		mov	r3, r1
 459 0404 C7E92C23 		strd	r2, [r7, #176]
 460 0408 C7E92C23 		strd	r2, [r7, #176]
  99:./Libraries/CMSIS/DSP/Source/ControllerFunctions/arm_sin_cos_q31.c ****   temp = temp + ((3 * (q63_t)Df << 31) - (d2 + ((q63_t)d1 << 1)) * Dn);
 461              		.loc 1 99 23
 462 040c D7F8B830 		ldr	r3, [r7, #184]
 463 0410 1846     		mov	r0, r3
 464 0412 4FEAE071 		asr	r1, r0, #31
 465              		.loc 1 99 21
 466 0416 0246     		mov	r2, r0
 467 0418 0B46     		mov	r3, r1
 468 041a 9418     		adds	r4, r2, r2
 469 041c BC61     		str	r4, [r7, #24]
 470 041e 5B41     		adcs	r3, r3, r3
 471 0420 FB61     		str	r3, [r7, #28]
 472 0422 D7E90623 		ldrd	r2, [r7, #24]
 473 0426 1418     		adds	r4, r2, r0
 474 0428 BC66     		str	r4, [r7, #104]
 475 042a 4B41     		adcs	r3, r3, r1
 476 042c FB66     		str	r3, [r7, #108]
 477              		.loc 1 99 33
 478 042e 4FF00004 		mov	r4, #0
 479 0432 4FF00005 		mov	r5, #0
 480 0436 D7E91A12 		ldrd	r1, [r7, #104]
 481 043a 1346     		mov	r3, r2
 482 043c DD07     		lsls	r5, r3, #31
ARM GAS  /tmp/cch0zgui.s 			page 23


 483 043e 0B46     		mov	r3, r1
 484 0440 45EA5305 		orr	r5, r5, r3, lsr #1
 485 0444 0B46     		mov	r3, r1
 486 0446 DC07     		lsls	r4, r3, #31
 487              		.loc 1 99 46
 488 0448 D7F8C030 		ldr	r3, [r7, #192]
 489 044c 1846     		mov	r0, r3
 490 044e 4FEAE071 		asr	r1, r0, #31
 491              		.loc 1 99 49
 492 0452 D7F8C430 		ldr	r3, [r7, #196]
 493 0456 1A46     		mov	r2, r3
 494 0458 4FEAE273 		asr	r3, r2, #31
 495              		.loc 1 99 59
 496 045c 9618     		adds	r6, r2, r2
 497 045e 3E61     		str	r6, [r7, #16]
 498 0460 5B41     		adcs	r3, r3, r3
 499 0462 7B61     		str	r3, [r7, #20]
 500 0464 D7E90423 		ldrd	r2, [r7, #16]
 501              		.loc 1 99 46
 502 0468 8618     		adds	r6, r0, r2
 503 046a 3E66     		str	r6, [r7, #96]
 504 046c 41EB0303 		adc	r3, r1, r3
 505 0470 7B66     		str	r3, [r7, #100]
 506              		.loc 1 99 66
 507 0472 D7F8BC30 		ldr	r3, [r7, #188]
 508 0476 1A46     		mov	r2, r3
 509 0478 4FEAE273 		asr	r3, r2, #31
 510 047c D7E91889 		ldrd	r8, [r7, #96]
 511 0480 4946     		mov	r1, r9
 512 0482 02FB01F0 		mul	r0, r2, r1
 513 0486 4146     		mov	r1, r8
 514 0488 01FB03F1 		mul	r1, r1, r3
 515 048c 0144     		add	r1, r1, r0
 516 048e 4046     		mov	r0, r8
 517 0490 A0FB0223 		umull	r2, r3, r0, r2
 518 0494 1944     		add	r1, r1, r3
 519 0496 0B46     		mov	r3, r1
 520              		.loc 1 99 40
 521 0498 A11A     		subs	r1, r4, r2
 522 049a B965     		str	r1, [r7, #88]
 523 049c 65EB0303 		sbc	r3, r5, r3
 524 04a0 FB65     		str	r3, [r7, #92]
 525              		.loc 1 99 8
 526 04a2 D7E92C23 		ldrd	r2, [r7, #176]
 527 04a6 D7E91645 		ldrd	r4, [r7, #88]
 528 04aa 2146     		mov	r1, r4
 529 04ac 5118     		adds	r1, r2, r1
 530 04ae B960     		str	r1, [r7, #8]
 531 04b0 2946     		mov	r1, r5
 532 04b2 43EB0101 		adc	r1, r3, r1
 533 04b6 F960     		str	r1, [r7, #12]
 534 04b8 D7E90234 		ldrd	r3, [r7, #8]
 535 04bc C7E92C34 		strd	r3, [r7, #176]
 100:./Libraries/CMSIS/DSP/Source/ControllerFunctions/arm_sin_cos_q31.c ****   temp = (q63_t)fract * (temp >> 31);
 536              		.loc 1 100 10
 537 04c0 D7F8D030 		ldr	r3, [r7, #208]
 538 04c4 1846     		mov	r0, r3
ARM GAS  /tmp/cch0zgui.s 			page 24


 539 04c6 4FEAE071 		asr	r1, r0, #31
 540              		.loc 1 100 31
 541 04ca D7E92C45 		ldrd	r4, [r7, #176]
 542 04ce 4FF00002 		mov	r2, #0
 543 04d2 4FF00003 		mov	r3, #0
 544 04d6 E20F     		lsrs	r2, r4, #31
 545 04d8 42EA4502 		orr	r2, r2, r5, lsl #1
 546 04dc EB17     		asrs	r3, r5, #31
 547              		.loc 1 100 8
 548 04de 02FB01F5 		mul	r5, r2, r1
 549 04e2 00FB03F4 		mul	r4, r0, r3
 550 04e6 2C44     		add	r4, r4, r5
 551 04e8 A0FB0223 		umull	r2, r3, r0, r2
 552 04ec E118     		adds	r1, r4, r3
 553 04ee 0B46     		mov	r3, r1
 554 04f0 C7E92C23 		strd	r2, [r7, #176]
 555 04f4 C7E92C23 		strd	r2, [r7, #176]
 101:./Libraries/CMSIS/DSP/Source/ControllerFunctions/arm_sin_cos_q31.c ****   temp = temp + (q63_t)d1 * Dn;
 556              		.loc 1 101 17
 557 04f8 D7F8C430 		ldr	r3, [r7, #196]
 558 04fc 1846     		mov	r0, r3
 559 04fe 4FEAE071 		asr	r1, r0, #31
 560              		.loc 1 101 27
 561 0502 D7F8BC30 		ldr	r3, [r7, #188]
 562 0506 1A46     		mov	r2, r3
 563 0508 4FEAE273 		asr	r3, r2, #31
 564 050c 02FB01F5 		mul	r5, r2, r1
 565 0510 00FB03F4 		mul	r4, r0, r3
 566 0514 2C44     		add	r4, r4, r5
 567 0516 A0FB0223 		umull	r2, r3, r0, r2
 568 051a E118     		adds	r1, r4, r3
 569 051c 0B46     		mov	r3, r1
 570              		.loc 1 101 8
 571 051e D7E92C01 		ldrd	r0, [r7, #176]
 572 0522 8418     		adds	r4, r0, r2
 573 0524 3C60     		str	r4, [r7]
 574 0526 41EB0303 		adc	r3, r1, r3
 575 052a 7B60     		str	r3, [r7, #4]
 576 052c D7E90034 		ldrd	r3, [r7]
 577 0530 C7E92C34 		strd	r3, [r7, #176]
 102:./Libraries/CMSIS/DSP/Source/ControllerFunctions/arm_sin_cos_q31.c ****   temp = (q63_t)fract * (temp >> 31);
 578              		.loc 1 102 10
 579 0534 D7F8D030 		ldr	r3, [r7, #208]
 580 0538 1846     		mov	r0, r3
 581 053a 4FEAE071 		asr	r1, r0, #31
 582              		.loc 1 102 31
 583 053e D7E92C45 		ldrd	r4, [r7, #176]
 584 0542 4FF00002 		mov	r2, #0
 585 0546 4FF00003 		mov	r3, #0
 586 054a E20F     		lsrs	r2, r4, #31
 587 054c 42EA4502 		orr	r2, r2, r5, lsl #1
 588 0550 EB17     		asrs	r3, r5, #31
 589              		.loc 1 102 8
 590 0552 02FB01F5 		mul	r5, r2, r1
 591 0556 00FB03F4 		mul	r4, r0, r3
 592 055a 2C44     		add	r4, r4, r5
 593 055c A0FB0223 		umull	r2, r3, r0, r2
ARM GAS  /tmp/cch0zgui.s 			page 25


 594 0560 E118     		adds	r1, r4, r3
 595 0562 0B46     		mov	r3, r1
 596 0564 C7E92C23 		strd	r2, [r7, #176]
 597 0568 C7E92C23 		strd	r2, [r7, #176]
 103:./Libraries/CMSIS/DSP/Source/ControllerFunctions/arm_sin_cos_q31.c **** 
 104:./Libraries/CMSIS/DSP/Source/ControllerFunctions/arm_sin_cos_q31.c ****   /* Calculation of sine value */
 105:./Libraries/CMSIS/DSP/Source/ControllerFunctions/arm_sin_cos_q31.c ****   *pSinVal = clip_q63_to_q31((temp >> 31) + (q63_t)f1);
 598              		.loc 1 105 36
 599 056c D7E92C01 		ldrd	r0, [r7, #176]
 600 0570 4FF00002 		mov	r2, #0
 601 0574 4FF00003 		mov	r3, #0
 602 0578 C20F     		lsrs	r2, r0, #31
 603 057a 42EA4102 		orr	r2, r2, r1, lsl #1
 604 057e CB17     		asrs	r3, r1, #31
 605              		.loc 1 105 45
 606 0580 D7F8CC10 		ldr	r1, [r7, #204]
 607 0584 0846     		mov	r0, r1
 608 0586 4FEAE071 		asr	r1, r0, #31
 609              		.loc 1 105 14
 610 058a 1418     		adds	r4, r2, r0
 611 058c 3C65     		str	r4, [r7, #80]
 612 058e 4B41     		adcs	r3, r3, r1
 613 0590 7B65     		str	r3, [r7, #84]
 614 0592 D7E91434 		ldrd	r3, [r7, #80]
 615 0596 C7E92A34 		strd	r3, [r7, #168]
 616              	.LBB8:
 617              	.LBB9:
 673:./Libraries/CMSIS/DSP/Include/arm_math.h ****       ((0x7FFFFFFF ^ ((q31_t) (x >> 63)))) : (q31_t) x;
 618              		.loc 2 673 24
 619 059a D7E92A01 		ldrd	r0, [r7, #168]
 620 059e 4FF00002 		mov	r2, #0
 621 05a2 4FF00003 		mov	r3, #0
 622 05a6 0A00     		movs	r2, r1
 623 05a8 CB17     		asrs	r3, r1, #31
 673:./Libraries/CMSIS/DSP/Include/arm_math.h ****       ((0x7FFFFFFF ^ ((q31_t) (x >> 63)))) : (q31_t) x;
 624              		.loc 2 673 35
 625 05aa D7F8A830 		ldr	r3, [r7, #168]
 673:./Libraries/CMSIS/DSP/Include/arm_math.h ****       ((0x7FFFFFFF ^ ((q31_t) (x >> 63)))) : (q31_t) x;
 626              		.loc 2 673 45
 627 05ae DB17     		asrs	r3, r3, #31
 628              		.loc 2 674 44
 629 05b0 9A42     		cmp	r2, r3
 630 05b2 0BD0     		beq	.L5
 631              		.loc 2 674 34
 632 05b4 D7E92A01 		ldrd	r0, [r7, #168]
 633 05b8 4FF00002 		mov	r2, #0
 634 05bc 4FF00003 		mov	r3, #0
 635 05c0 CA17     		asrs	r2, r1, #31
 636 05c2 CB17     		asrs	r3, r1, #31
 637              		.loc 2 674 44
 638 05c4 6FF00043 		mvn	r3, #-2147483648
 639 05c8 5340     		eors	r3, r3, r2
 640 05ca 01E0     		b	.L9
 641              	.L5:
 642 05cc D7F8A830 		ldr	r3, [r7, #168]
 643              	.L9:
 644              	.LBE9:
ARM GAS  /tmp/cch0zgui.s 			page 26


 645              	.LBE8:
 646              		.loc 1 105 12
 647 05d0 D7F89820 		ldr	r2, [r7, #152]
 648 05d4 1360     		str	r3, [r2]
 106:./Libraries/CMSIS/DSP/Source/ControllerFunctions/arm_sin_cos_q31.c **** }
 649              		.loc 1 106 1
 650 05d6 00BF     		nop
 651 05d8 D837     		adds	r7, r7, #216
 652              	.LCFI3:
 653              		.cfi_def_cfa_offset 32
 654 05da BD46     		mov	sp, r7
 655              	.LCFI4:
 656              		.cfi_def_cfa_register 13
 657              		@ sp needed
 658 05dc BDE8F00F 		pop	{r4, r5, r6, r7, r8, r9, r10, fp}
 659              	.LCFI5:
 660              		.cfi_restore 11
 661              		.cfi_restore 10
 662              		.cfi_restore 9
 663              		.cfi_restore 8
 664              		.cfi_restore 7
 665              		.cfi_restore 6
 666              		.cfi_restore 5
 667              		.cfi_restore 4
 668              		.cfi_def_cfa_offset 0
 669 05e0 7047     		bx	lr
 670              	.L13:
 671 05e2 00BF     		.align	2
 672              	.L12:
 673 05e4 00000000 		.word	sinTable_q31
 674              		.cfi_endproc
 675              	.LFE145:
 677              		.text
 678              	.Letext0:
 679              		.file 3 "/usr/lib/gcc/arm-none-eabi/9.2.1/include/stdint.h"
 680              		.file 4 "/usr/lib/gcc/arm-none-eabi/9.2.1/include/stddef.h"
 681              		.file 5 "/usr/include/newlib/sys/_types.h"
 682              		.file 6 "/usr/include/newlib/sys/reent.h"
 683              		.file 7 "/usr/include/newlib/sys/lock.h"
 684              		.file 8 "/usr/include/newlib/math.h"
 685              		.file 9 "./Libraries/CMSIS/DSP/Include/arm_common_tables.h"
ARM GAS  /tmp/cch0zgui.s 			page 27

