ARM GAS  /tmp/cc09x5qF.s 			page 1


   1              		.cpu cortex-m7
   2              		.eabi_attribute 28, 1
   3              		.eabi_attribute 20, 1
   4              		.eabi_attribute 21, 1
   5              		.eabi_attribute 23, 3
   6              		.eabi_attribute 24, 1
   7              		.eabi_attribute 25, 1
   8              		.eabi_attribute 26, 1
   9              		.eabi_attribute 30, 6
  10              		.eabi_attribute 34, 1
  11              		.eabi_attribute 18, 4
  12              		.file	"arm_fir_init_q15.c"
  13              		.text
  14              	.Ltext0:
  15              		.cfi_sections	.debug_frame
  16              		.section	.text.arm_fir_init_q15,"ax",%progbits
  17              		.align	1
  18              		.global	arm_fir_init_q15
  19              		.arch armv7e-m
  20              		.syntax unified
  21              		.thumb
  22              		.thumb_func
  23              		.fpu fpv5-d16
  25              	arm_fir_init_q15:
  26              	.LFB145:
  27              		.file 1 "./Libraries/CMSIS/DSP/Source/FilteringFunctions/arm_fir_init_q15.c"
   1:./Libraries/CMSIS/DSP/Source/FilteringFunctions/arm_fir_init_q15.c **** /* ----------------------------------------------------------------------
   2:./Libraries/CMSIS/DSP/Source/FilteringFunctions/arm_fir_init_q15.c ****  * Project:      CMSIS DSP Library
   3:./Libraries/CMSIS/DSP/Source/FilteringFunctions/arm_fir_init_q15.c ****  * Title:        arm_fir_init_q15.c
   4:./Libraries/CMSIS/DSP/Source/FilteringFunctions/arm_fir_init_q15.c ****  * Description:  Q15 FIR filter initialization function
   5:./Libraries/CMSIS/DSP/Source/FilteringFunctions/arm_fir_init_q15.c ****  *
   6:./Libraries/CMSIS/DSP/Source/FilteringFunctions/arm_fir_init_q15.c ****  * $Date:        18. March 2019
   7:./Libraries/CMSIS/DSP/Source/FilteringFunctions/arm_fir_init_q15.c ****  * $Revision:    V1.6.0
   8:./Libraries/CMSIS/DSP/Source/FilteringFunctions/arm_fir_init_q15.c ****  *
   9:./Libraries/CMSIS/DSP/Source/FilteringFunctions/arm_fir_init_q15.c ****  * Target Processor: Cortex-M cores
  10:./Libraries/CMSIS/DSP/Source/FilteringFunctions/arm_fir_init_q15.c ****  * -------------------------------------------------------------------- */
  11:./Libraries/CMSIS/DSP/Source/FilteringFunctions/arm_fir_init_q15.c **** /*
  12:./Libraries/CMSIS/DSP/Source/FilteringFunctions/arm_fir_init_q15.c ****  * Copyright (C) 2010-2019 ARM Limited or its affiliates. All rights reserved.
  13:./Libraries/CMSIS/DSP/Source/FilteringFunctions/arm_fir_init_q15.c ****  *
  14:./Libraries/CMSIS/DSP/Source/FilteringFunctions/arm_fir_init_q15.c ****  * SPDX-License-Identifier: Apache-2.0
  15:./Libraries/CMSIS/DSP/Source/FilteringFunctions/arm_fir_init_q15.c ****  *
  16:./Libraries/CMSIS/DSP/Source/FilteringFunctions/arm_fir_init_q15.c ****  * Licensed under the Apache License, Version 2.0 (the License); you may
  17:./Libraries/CMSIS/DSP/Source/FilteringFunctions/arm_fir_init_q15.c ****  * not use this file except in compliance with the License.
  18:./Libraries/CMSIS/DSP/Source/FilteringFunctions/arm_fir_init_q15.c ****  * You may obtain a copy of the License at
  19:./Libraries/CMSIS/DSP/Source/FilteringFunctions/arm_fir_init_q15.c ****  *
  20:./Libraries/CMSIS/DSP/Source/FilteringFunctions/arm_fir_init_q15.c ****  * www.apache.org/licenses/LICENSE-2.0
  21:./Libraries/CMSIS/DSP/Source/FilteringFunctions/arm_fir_init_q15.c ****  *
  22:./Libraries/CMSIS/DSP/Source/FilteringFunctions/arm_fir_init_q15.c ****  * Unless required by applicable law or agreed to in writing, software
  23:./Libraries/CMSIS/DSP/Source/FilteringFunctions/arm_fir_init_q15.c ****  * distributed under the License is distributed on an AS IS BASIS, WITHOUT
  24:./Libraries/CMSIS/DSP/Source/FilteringFunctions/arm_fir_init_q15.c ****  * WARRANTIES OR CONDITIONS OF ANY KIND, either express or implied.
  25:./Libraries/CMSIS/DSP/Source/FilteringFunctions/arm_fir_init_q15.c ****  * See the License for the specific language governing permissions and
  26:./Libraries/CMSIS/DSP/Source/FilteringFunctions/arm_fir_init_q15.c ****  * limitations under the License.
  27:./Libraries/CMSIS/DSP/Source/FilteringFunctions/arm_fir_init_q15.c ****  */
  28:./Libraries/CMSIS/DSP/Source/FilteringFunctions/arm_fir_init_q15.c **** 
  29:./Libraries/CMSIS/DSP/Source/FilteringFunctions/arm_fir_init_q15.c **** #include "arm_math.h"
  30:./Libraries/CMSIS/DSP/Source/FilteringFunctions/arm_fir_init_q15.c **** 
  31:./Libraries/CMSIS/DSP/Source/FilteringFunctions/arm_fir_init_q15.c **** /**
ARM GAS  /tmp/cc09x5qF.s 			page 2


  32:./Libraries/CMSIS/DSP/Source/FilteringFunctions/arm_fir_init_q15.c ****   @ingroup groupFilters
  33:./Libraries/CMSIS/DSP/Source/FilteringFunctions/arm_fir_init_q15.c ****  */
  34:./Libraries/CMSIS/DSP/Source/FilteringFunctions/arm_fir_init_q15.c **** 
  35:./Libraries/CMSIS/DSP/Source/FilteringFunctions/arm_fir_init_q15.c **** /**
  36:./Libraries/CMSIS/DSP/Source/FilteringFunctions/arm_fir_init_q15.c ****   @addtogroup FIR
  37:./Libraries/CMSIS/DSP/Source/FilteringFunctions/arm_fir_init_q15.c ****   @{
  38:./Libraries/CMSIS/DSP/Source/FilteringFunctions/arm_fir_init_q15.c ****  */
  39:./Libraries/CMSIS/DSP/Source/FilteringFunctions/arm_fir_init_q15.c **** 
  40:./Libraries/CMSIS/DSP/Source/FilteringFunctions/arm_fir_init_q15.c **** /**
  41:./Libraries/CMSIS/DSP/Source/FilteringFunctions/arm_fir_init_q15.c ****   @brief         Initialization function for the Q15 FIR filter.
  42:./Libraries/CMSIS/DSP/Source/FilteringFunctions/arm_fir_init_q15.c ****   @param[in,out] S          points to an instance of the Q15 FIR filter structure.
  43:./Libraries/CMSIS/DSP/Source/FilteringFunctions/arm_fir_init_q15.c ****   @param[in] 	 numTaps    number of filter coefficients in the filter. Must be even and greater tha
  44:./Libraries/CMSIS/DSP/Source/FilteringFunctions/arm_fir_init_q15.c ****   @param[in]     pCoeffs    points to the filter coefficients buffer.
  45:./Libraries/CMSIS/DSP/Source/FilteringFunctions/arm_fir_init_q15.c ****   @param[in]     pState     points to the state buffer.
  46:./Libraries/CMSIS/DSP/Source/FilteringFunctions/arm_fir_init_q15.c ****   @param[in]     blockSize  number of samples processed per call.
  47:./Libraries/CMSIS/DSP/Source/FilteringFunctions/arm_fir_init_q15.c ****   @return        execution status
  48:./Libraries/CMSIS/DSP/Source/FilteringFunctions/arm_fir_init_q15.c ****                    - \ref ARM_MATH_SUCCESS        : Operation successful
  49:./Libraries/CMSIS/DSP/Source/FilteringFunctions/arm_fir_init_q15.c ****                    - \ref ARM_MATH_ARGUMENT_ERROR : <code>numTaps</code> is not greater than or equ
  50:./Libraries/CMSIS/DSP/Source/FilteringFunctions/arm_fir_init_q15.c **** 
  51:./Libraries/CMSIS/DSP/Source/FilteringFunctions/arm_fir_init_q15.c ****   @par           Details
  52:./Libraries/CMSIS/DSP/Source/FilteringFunctions/arm_fir_init_q15.c ****                    <code>pCoeffs</code> points to the array of filter coefficients stored in time r
  53:./Libraries/CMSIS/DSP/Source/FilteringFunctions/arm_fir_init_q15.c ****   <pre>
  54:./Libraries/CMSIS/DSP/Source/FilteringFunctions/arm_fir_init_q15.c ****       {b[numTaps-1], b[numTaps-2], b[N-2], ..., b[1], b[0]}
  55:./Libraries/CMSIS/DSP/Source/FilteringFunctions/arm_fir_init_q15.c ****   </pre>
  56:./Libraries/CMSIS/DSP/Source/FilteringFunctions/arm_fir_init_q15.c ****                    Note that <code>numTaps</code> must be even and greater than or equal to 4.
  57:./Libraries/CMSIS/DSP/Source/FilteringFunctions/arm_fir_init_q15.c ****                    To implement an odd length filter simply increase <code>numTaps</code> by 1 and 
  58:./Libraries/CMSIS/DSP/Source/FilteringFunctions/arm_fir_init_q15.c ****                    For example, to implement a filter with <code>numTaps=3</code> and coefficients
  59:./Libraries/CMSIS/DSP/Source/FilteringFunctions/arm_fir_init_q15.c ****   <pre>
  60:./Libraries/CMSIS/DSP/Source/FilteringFunctions/arm_fir_init_q15.c ****       {0.3, -0.8, 0.3}
  61:./Libraries/CMSIS/DSP/Source/FilteringFunctions/arm_fir_init_q15.c ****   </pre>
  62:./Libraries/CMSIS/DSP/Source/FilteringFunctions/arm_fir_init_q15.c ****                    set <code>numTaps=4</code> and use the coefficients:
  63:./Libraries/CMSIS/DSP/Source/FilteringFunctions/arm_fir_init_q15.c ****   <pre>
  64:./Libraries/CMSIS/DSP/Source/FilteringFunctions/arm_fir_init_q15.c ****       {0.3, -0.8, 0.3, 0}.
  65:./Libraries/CMSIS/DSP/Source/FilteringFunctions/arm_fir_init_q15.c ****   </pre>
  66:./Libraries/CMSIS/DSP/Source/FilteringFunctions/arm_fir_init_q15.c ****                    Similarly, to implement a two point filter
  67:./Libraries/CMSIS/DSP/Source/FilteringFunctions/arm_fir_init_q15.c ****   <pre>
  68:./Libraries/CMSIS/DSP/Source/FilteringFunctions/arm_fir_init_q15.c ****       {0.3, -0.3}
  69:./Libraries/CMSIS/DSP/Source/FilteringFunctions/arm_fir_init_q15.c ****   </pre>
  70:./Libraries/CMSIS/DSP/Source/FilteringFunctions/arm_fir_init_q15.c ****                    set <code>numTaps=4</code> and use the coefficients:
  71:./Libraries/CMSIS/DSP/Source/FilteringFunctions/arm_fir_init_q15.c ****   <pre>
  72:./Libraries/CMSIS/DSP/Source/FilteringFunctions/arm_fir_init_q15.c ****       {0.3, -0.3, 0, 0}.
  73:./Libraries/CMSIS/DSP/Source/FilteringFunctions/arm_fir_init_q15.c ****   </pre>
  74:./Libraries/CMSIS/DSP/Source/FilteringFunctions/arm_fir_init_q15.c ****                    <code>pState</code> points to the array of state variables.
  75:./Libraries/CMSIS/DSP/Source/FilteringFunctions/arm_fir_init_q15.c ****                    <code>pState</code> is of length <code>numTaps+blockSize</code>, when running on
  76:./Libraries/CMSIS/DSP/Source/FilteringFunctions/arm_fir_init_q15.c ****  */
  77:./Libraries/CMSIS/DSP/Source/FilteringFunctions/arm_fir_init_q15.c **** 
  78:./Libraries/CMSIS/DSP/Source/FilteringFunctions/arm_fir_init_q15.c **** arm_status arm_fir_init_q15(
  79:./Libraries/CMSIS/DSP/Source/FilteringFunctions/arm_fir_init_q15.c ****         arm_fir_instance_q15 * S,
  80:./Libraries/CMSIS/DSP/Source/FilteringFunctions/arm_fir_init_q15.c ****         uint16_t numTaps,
  81:./Libraries/CMSIS/DSP/Source/FilteringFunctions/arm_fir_init_q15.c ****   const q15_t * pCoeffs,
  82:./Libraries/CMSIS/DSP/Source/FilteringFunctions/arm_fir_init_q15.c ****         q15_t * pState,
  83:./Libraries/CMSIS/DSP/Source/FilteringFunctions/arm_fir_init_q15.c ****         uint32_t blockSize)
  84:./Libraries/CMSIS/DSP/Source/FilteringFunctions/arm_fir_init_q15.c **** {
  28              		.loc 1 84 1
  29              		.cfi_startproc
  30              		@ args = 4, pretend = 0, frame = 24
  31              		@ frame_needed = 1, uses_anonymous_args = 0
ARM GAS  /tmp/cc09x5qF.s 			page 3


  32 0000 80B5     		push	{r7, lr}
  33              	.LCFI0:
  34              		.cfi_def_cfa_offset 8
  35              		.cfi_offset 7, -8
  36              		.cfi_offset 14, -4
  37 0002 86B0     		sub	sp, sp, #24
  38              	.LCFI1:
  39              		.cfi_def_cfa_offset 32
  40 0004 00AF     		add	r7, sp, #0
  41              	.LCFI2:
  42              		.cfi_def_cfa_register 7
  43 0006 F860     		str	r0, [r7, #12]
  44 0008 7A60     		str	r2, [r7, #4]
  45 000a 3B60     		str	r3, [r7]
  46 000c 0B46     		mov	r3, r1	@ movhi
  47 000e 7B81     		strh	r3, [r7, #10]	@ movhi
  85:./Libraries/CMSIS/DSP/Source/FilteringFunctions/arm_fir_init_q15.c ****   arm_status status;
  86:./Libraries/CMSIS/DSP/Source/FilteringFunctions/arm_fir_init_q15.c **** 
  87:./Libraries/CMSIS/DSP/Source/FilteringFunctions/arm_fir_init_q15.c **** #if defined (ARM_MATH_DSP)
  88:./Libraries/CMSIS/DSP/Source/FilteringFunctions/arm_fir_init_q15.c **** 
  89:./Libraries/CMSIS/DSP/Source/FilteringFunctions/arm_fir_init_q15.c ****   /* The Number of filter coefficients in the filter must be even and at least 4 */
  90:./Libraries/CMSIS/DSP/Source/FilteringFunctions/arm_fir_init_q15.c ****   if (numTaps & 0x1U)
  48              		.loc 1 90 15
  49 0010 7B89     		ldrh	r3, [r7, #10]
  50 0012 03F00103 		and	r3, r3, #1
  51              		.loc 1 90 6
  52 0016 002B     		cmp	r3, #0
  53 0018 02D0     		beq	.L2
  91:./Libraries/CMSIS/DSP/Source/FilteringFunctions/arm_fir_init_q15.c ****   {
  92:./Libraries/CMSIS/DSP/Source/FilteringFunctions/arm_fir_init_q15.c ****     status = ARM_MATH_ARGUMENT_ERROR;
  54              		.loc 1 92 12
  55 001a FF23     		movs	r3, #255
  56 001c FB75     		strb	r3, [r7, #23]
  57 001e 13E0     		b	.L3
  58              	.L2:
  93:./Libraries/CMSIS/DSP/Source/FilteringFunctions/arm_fir_init_q15.c ****   }
  94:./Libraries/CMSIS/DSP/Source/FilteringFunctions/arm_fir_init_q15.c ****   else
  95:./Libraries/CMSIS/DSP/Source/FilteringFunctions/arm_fir_init_q15.c ****   {
  96:./Libraries/CMSIS/DSP/Source/FilteringFunctions/arm_fir_init_q15.c ****     /* Assign filter taps */
  97:./Libraries/CMSIS/DSP/Source/FilteringFunctions/arm_fir_init_q15.c ****     S->numTaps = numTaps;
  59              		.loc 1 97 16
  60 0020 FB68     		ldr	r3, [r7, #12]
  61 0022 7A89     		ldrh	r2, [r7, #10]	@ movhi
  62 0024 1A80     		strh	r2, [r3]	@ movhi
  98:./Libraries/CMSIS/DSP/Source/FilteringFunctions/arm_fir_init_q15.c **** 
  99:./Libraries/CMSIS/DSP/Source/FilteringFunctions/arm_fir_init_q15.c ****     /* Assign coefficient pointer */
 100:./Libraries/CMSIS/DSP/Source/FilteringFunctions/arm_fir_init_q15.c ****     S->pCoeffs = pCoeffs;
  63              		.loc 1 100 16
  64 0026 FB68     		ldr	r3, [r7, #12]
  65 0028 7A68     		ldr	r2, [r7, #4]
  66 002a 9A60     		str	r2, [r3, #8]
 101:./Libraries/CMSIS/DSP/Source/FilteringFunctions/arm_fir_init_q15.c **** 
 102:./Libraries/CMSIS/DSP/Source/FilteringFunctions/arm_fir_init_q15.c ****     /* Clear the state buffer.  The size is always (blockSize + numTaps ) */
 103:./Libraries/CMSIS/DSP/Source/FilteringFunctions/arm_fir_init_q15.c ****     memset(pState, 0, (numTaps + (blockSize)) * sizeof(q15_t));
  67              		.loc 1 103 32
  68 002c 7A89     		ldrh	r2, [r7, #10]
  69 002e 3B6A     		ldr	r3, [r7, #32]
ARM GAS  /tmp/cc09x5qF.s 			page 4


  70 0030 1344     		add	r3, r3, r2
  71              		.loc 1 103 47
  72 0032 5B00     		lsls	r3, r3, #1
  73              		.loc 1 103 5
  74 0034 1A46     		mov	r2, r3
  75 0036 0021     		movs	r1, #0
  76 0038 3868     		ldr	r0, [r7]
  77 003a FFF7FEFF 		bl	memset
 104:./Libraries/CMSIS/DSP/Source/FilteringFunctions/arm_fir_init_q15.c **** 
 105:./Libraries/CMSIS/DSP/Source/FilteringFunctions/arm_fir_init_q15.c ****     /* Assign state pointer */
 106:./Libraries/CMSIS/DSP/Source/FilteringFunctions/arm_fir_init_q15.c ****     S->pState = pState;
  78              		.loc 1 106 15
  79 003e FB68     		ldr	r3, [r7, #12]
  80 0040 3A68     		ldr	r2, [r7]
  81 0042 5A60     		str	r2, [r3, #4]
 107:./Libraries/CMSIS/DSP/Source/FilteringFunctions/arm_fir_init_q15.c **** 
 108:./Libraries/CMSIS/DSP/Source/FilteringFunctions/arm_fir_init_q15.c ****     status = ARM_MATH_SUCCESS;
  82              		.loc 1 108 12
  83 0044 0023     		movs	r3, #0
  84 0046 FB75     		strb	r3, [r7, #23]
  85              	.L3:
 109:./Libraries/CMSIS/DSP/Source/FilteringFunctions/arm_fir_init_q15.c ****   }
 110:./Libraries/CMSIS/DSP/Source/FilteringFunctions/arm_fir_init_q15.c **** 
 111:./Libraries/CMSIS/DSP/Source/FilteringFunctions/arm_fir_init_q15.c ****   return (status);
  86              		.loc 1 111 10
  87 0048 97F91730 		ldrsb	r3, [r7, #23]
 112:./Libraries/CMSIS/DSP/Source/FilteringFunctions/arm_fir_init_q15.c **** 
 113:./Libraries/CMSIS/DSP/Source/FilteringFunctions/arm_fir_init_q15.c **** #else
 114:./Libraries/CMSIS/DSP/Source/FilteringFunctions/arm_fir_init_q15.c **** 
 115:./Libraries/CMSIS/DSP/Source/FilteringFunctions/arm_fir_init_q15.c ****   /* Assign filter taps */
 116:./Libraries/CMSIS/DSP/Source/FilteringFunctions/arm_fir_init_q15.c ****   S->numTaps = numTaps;
 117:./Libraries/CMSIS/DSP/Source/FilteringFunctions/arm_fir_init_q15.c **** 
 118:./Libraries/CMSIS/DSP/Source/FilteringFunctions/arm_fir_init_q15.c ****   /* Assign coefficient pointer */
 119:./Libraries/CMSIS/DSP/Source/FilteringFunctions/arm_fir_init_q15.c ****   S->pCoeffs = pCoeffs;
 120:./Libraries/CMSIS/DSP/Source/FilteringFunctions/arm_fir_init_q15.c **** 
 121:./Libraries/CMSIS/DSP/Source/FilteringFunctions/arm_fir_init_q15.c ****   /* Clear state buffer. The size is always (blockSize + numTaps - 1) */
 122:./Libraries/CMSIS/DSP/Source/FilteringFunctions/arm_fir_init_q15.c ****   memset(pState, 0, (numTaps + (blockSize - 1U)) * sizeof(q15_t));
 123:./Libraries/CMSIS/DSP/Source/FilteringFunctions/arm_fir_init_q15.c **** 
 124:./Libraries/CMSIS/DSP/Source/FilteringFunctions/arm_fir_init_q15.c ****   /* Assign state pointer */
 125:./Libraries/CMSIS/DSP/Source/FilteringFunctions/arm_fir_init_q15.c ****   S->pState = pState;
 126:./Libraries/CMSIS/DSP/Source/FilteringFunctions/arm_fir_init_q15.c **** 
 127:./Libraries/CMSIS/DSP/Source/FilteringFunctions/arm_fir_init_q15.c ****   status = ARM_MATH_SUCCESS;
 128:./Libraries/CMSIS/DSP/Source/FilteringFunctions/arm_fir_init_q15.c **** 
 129:./Libraries/CMSIS/DSP/Source/FilteringFunctions/arm_fir_init_q15.c ****   return (status);
 130:./Libraries/CMSIS/DSP/Source/FilteringFunctions/arm_fir_init_q15.c **** 
 131:./Libraries/CMSIS/DSP/Source/FilteringFunctions/arm_fir_init_q15.c **** #endif /* #if defined (ARM_MATH_DSP) */
 132:./Libraries/CMSIS/DSP/Source/FilteringFunctions/arm_fir_init_q15.c **** 
 133:./Libraries/CMSIS/DSP/Source/FilteringFunctions/arm_fir_init_q15.c **** }
  88              		.loc 1 133 1
  89 004c 1846     		mov	r0, r3
  90 004e 1837     		adds	r7, r7, #24
  91              	.LCFI3:
  92              		.cfi_def_cfa_offset 8
  93 0050 BD46     		mov	sp, r7
  94              	.LCFI4:
  95              		.cfi_def_cfa_register 13
  96              		@ sp needed
ARM GAS  /tmp/cc09x5qF.s 			page 5


  97 0052 80BD     		pop	{r7, pc}
  98              		.cfi_endproc
  99              	.LFE145:
 101              		.text
 102              	.Letext0:
 103              		.file 2 "/usr/lib/gcc/arm-none-eabi/9.2.1/include/stdint.h"
 104              		.file 3 "/usr/lib/gcc/arm-none-eabi/9.2.1/include/stddef.h"
 105              		.file 4 "/usr/include/newlib/sys/_types.h"
 106              		.file 5 "/usr/include/newlib/sys/reent.h"
 107              		.file 6 "/usr/include/newlib/sys/lock.h"
 108              		.file 7 "/usr/include/newlib/math.h"
 109              		.file 8 "./Libraries/CMSIS/DSP/Include/arm_math.h"
ARM GAS  /tmp/cc09x5qF.s 			page 6

