ARM GAS  /tmp/ccmaXR5d.s 			page 1


   1              		.cpu cortex-m7
   2              		.eabi_attribute 28, 1
   3              		.eabi_attribute 20, 1
   4              		.eabi_attribute 21, 1
   5              		.eabi_attribute 23, 3
   6              		.eabi_attribute 24, 1
   7              		.eabi_attribute 25, 1
   8              		.eabi_attribute 26, 1
   9              		.eabi_attribute 30, 6
  10              		.eabi_attribute 34, 1
  11              		.eabi_attribute 18, 4
  12              		.file	"arm_q31_to_float.c"
  13              		.text
  14              	.Ltext0:
  15              		.cfi_sections	.debug_frame
  16              		.section	.text.arm_q31_to_float,"ax",%progbits
  17              		.align	1
  18              		.global	arm_q31_to_float
  19              		.arch armv7e-m
  20              		.syntax unified
  21              		.thumb
  22              		.thumb_func
  23              		.fpu fpv5-d16
  25              	arm_q31_to_float:
  26              	.LFB145:
  27              		.file 1 "./Libraries/CMSIS/DSP/Source/SupportFunctions/arm_q31_to_float.c"
   1:./Libraries/CMSIS/DSP/Source/SupportFunctions/arm_q31_to_float.c **** /* ----------------------------------------------------------------------
   2:./Libraries/CMSIS/DSP/Source/SupportFunctions/arm_q31_to_float.c ****  * Project:      CMSIS DSP Library
   3:./Libraries/CMSIS/DSP/Source/SupportFunctions/arm_q31_to_float.c ****  * Title:        arm_q31_to_float.c
   4:./Libraries/CMSIS/DSP/Source/SupportFunctions/arm_q31_to_float.c ****  * Description:  Converts the elements of the Q31 vector to floating-point vector
   5:./Libraries/CMSIS/DSP/Source/SupportFunctions/arm_q31_to_float.c ****  *
   6:./Libraries/CMSIS/DSP/Source/SupportFunctions/arm_q31_to_float.c ****  * $Date:        18. March 2019
   7:./Libraries/CMSIS/DSP/Source/SupportFunctions/arm_q31_to_float.c ****  * $Revision:    V1.6.0
   8:./Libraries/CMSIS/DSP/Source/SupportFunctions/arm_q31_to_float.c ****  *
   9:./Libraries/CMSIS/DSP/Source/SupportFunctions/arm_q31_to_float.c ****  * Target Processor: Cortex-M cores
  10:./Libraries/CMSIS/DSP/Source/SupportFunctions/arm_q31_to_float.c ****  * -------------------------------------------------------------------- */
  11:./Libraries/CMSIS/DSP/Source/SupportFunctions/arm_q31_to_float.c **** /*
  12:./Libraries/CMSIS/DSP/Source/SupportFunctions/arm_q31_to_float.c ****  * Copyright (C) 2010-2019 ARM Limited or its affiliates. All rights reserved.
  13:./Libraries/CMSIS/DSP/Source/SupportFunctions/arm_q31_to_float.c ****  *
  14:./Libraries/CMSIS/DSP/Source/SupportFunctions/arm_q31_to_float.c ****  * SPDX-License-Identifier: Apache-2.0
  15:./Libraries/CMSIS/DSP/Source/SupportFunctions/arm_q31_to_float.c ****  *
  16:./Libraries/CMSIS/DSP/Source/SupportFunctions/arm_q31_to_float.c ****  * Licensed under the Apache License, Version 2.0 (the License); you may
  17:./Libraries/CMSIS/DSP/Source/SupportFunctions/arm_q31_to_float.c ****  * not use this file except in compliance with the License.
  18:./Libraries/CMSIS/DSP/Source/SupportFunctions/arm_q31_to_float.c ****  * You may obtain a copy of the License at
  19:./Libraries/CMSIS/DSP/Source/SupportFunctions/arm_q31_to_float.c ****  *
  20:./Libraries/CMSIS/DSP/Source/SupportFunctions/arm_q31_to_float.c ****  * www.apache.org/licenses/LICENSE-2.0
  21:./Libraries/CMSIS/DSP/Source/SupportFunctions/arm_q31_to_float.c ****  *
  22:./Libraries/CMSIS/DSP/Source/SupportFunctions/arm_q31_to_float.c ****  * Unless required by applicable law or agreed to in writing, software
  23:./Libraries/CMSIS/DSP/Source/SupportFunctions/arm_q31_to_float.c ****  * distributed under the License is distributed on an AS IS BASIS, WITHOUT
  24:./Libraries/CMSIS/DSP/Source/SupportFunctions/arm_q31_to_float.c ****  * WARRANTIES OR CONDITIONS OF ANY KIND, either express or implied.
  25:./Libraries/CMSIS/DSP/Source/SupportFunctions/arm_q31_to_float.c ****  * See the License for the specific language governing permissions and
  26:./Libraries/CMSIS/DSP/Source/SupportFunctions/arm_q31_to_float.c ****  * limitations under the License.
  27:./Libraries/CMSIS/DSP/Source/SupportFunctions/arm_q31_to_float.c ****  */
  28:./Libraries/CMSIS/DSP/Source/SupportFunctions/arm_q31_to_float.c **** 
  29:./Libraries/CMSIS/DSP/Source/SupportFunctions/arm_q31_to_float.c **** #include "arm_math.h"
  30:./Libraries/CMSIS/DSP/Source/SupportFunctions/arm_q31_to_float.c **** 
  31:./Libraries/CMSIS/DSP/Source/SupportFunctions/arm_q31_to_float.c **** /**
ARM GAS  /tmp/ccmaXR5d.s 			page 2


  32:./Libraries/CMSIS/DSP/Source/SupportFunctions/arm_q31_to_float.c ****   @ingroup groupSupport
  33:./Libraries/CMSIS/DSP/Source/SupportFunctions/arm_q31_to_float.c ****  */
  34:./Libraries/CMSIS/DSP/Source/SupportFunctions/arm_q31_to_float.c **** 
  35:./Libraries/CMSIS/DSP/Source/SupportFunctions/arm_q31_to_float.c **** /**
  36:./Libraries/CMSIS/DSP/Source/SupportFunctions/arm_q31_to_float.c ****  * @defgroup q31_to_x  Convert 32-bit Integer value
  37:./Libraries/CMSIS/DSP/Source/SupportFunctions/arm_q31_to_float.c ****  */
  38:./Libraries/CMSIS/DSP/Source/SupportFunctions/arm_q31_to_float.c **** 
  39:./Libraries/CMSIS/DSP/Source/SupportFunctions/arm_q31_to_float.c **** /**
  40:./Libraries/CMSIS/DSP/Source/SupportFunctions/arm_q31_to_float.c ****   @addtogroup q31_to_x
  41:./Libraries/CMSIS/DSP/Source/SupportFunctions/arm_q31_to_float.c ****   @{
  42:./Libraries/CMSIS/DSP/Source/SupportFunctions/arm_q31_to_float.c ****  */
  43:./Libraries/CMSIS/DSP/Source/SupportFunctions/arm_q31_to_float.c **** 
  44:./Libraries/CMSIS/DSP/Source/SupportFunctions/arm_q31_to_float.c **** /**
  45:./Libraries/CMSIS/DSP/Source/SupportFunctions/arm_q31_to_float.c ****   @brief         Converts the elements of the Q31 vector to floating-point vector.
  46:./Libraries/CMSIS/DSP/Source/SupportFunctions/arm_q31_to_float.c ****   @param[in]     pSrc       points to the Q31 input vector
  47:./Libraries/CMSIS/DSP/Source/SupportFunctions/arm_q31_to_float.c ****   @param[out]    pDst       points to the floating-point output vector
  48:./Libraries/CMSIS/DSP/Source/SupportFunctions/arm_q31_to_float.c ****   @param[in]     blockSize  number of samples in each vector
  49:./Libraries/CMSIS/DSP/Source/SupportFunctions/arm_q31_to_float.c ****   @return        none
  50:./Libraries/CMSIS/DSP/Source/SupportFunctions/arm_q31_to_float.c **** 
  51:./Libraries/CMSIS/DSP/Source/SupportFunctions/arm_q31_to_float.c ****   @par           Details
  52:./Libraries/CMSIS/DSP/Source/SupportFunctions/arm_q31_to_float.c ****                    The equation used for the conversion process is:
  53:./Libraries/CMSIS/DSP/Source/SupportFunctions/arm_q31_to_float.c ****   <pre>
  54:./Libraries/CMSIS/DSP/Source/SupportFunctions/arm_q31_to_float.c ****       pDst[n] = (float32_t) pSrc[n] / 2147483648;   0 <= n < blockSize.
  55:./Libraries/CMSIS/DSP/Source/SupportFunctions/arm_q31_to_float.c ****   </pre>
  56:./Libraries/CMSIS/DSP/Source/SupportFunctions/arm_q31_to_float.c ****  */
  57:./Libraries/CMSIS/DSP/Source/SupportFunctions/arm_q31_to_float.c **** 
  58:./Libraries/CMSIS/DSP/Source/SupportFunctions/arm_q31_to_float.c **** #if defined(ARM_MATH_NEON_EXPERIMENTAL)
  59:./Libraries/CMSIS/DSP/Source/SupportFunctions/arm_q31_to_float.c **** void arm_q31_to_float(
  60:./Libraries/CMSIS/DSP/Source/SupportFunctions/arm_q31_to_float.c ****   const q31_t * pSrc,
  61:./Libraries/CMSIS/DSP/Source/SupportFunctions/arm_q31_to_float.c ****         float32_t * pDst,
  62:./Libraries/CMSIS/DSP/Source/SupportFunctions/arm_q31_to_float.c ****         uint32_t blockSize)
  63:./Libraries/CMSIS/DSP/Source/SupportFunctions/arm_q31_to_float.c **** {
  64:./Libraries/CMSIS/DSP/Source/SupportFunctions/arm_q31_to_float.c ****   const q31_t *pIn = pSrc;                             /* Src pointer */
  65:./Libraries/CMSIS/DSP/Source/SupportFunctions/arm_q31_to_float.c ****   uint32_t blkCnt;                               /* loop counter */
  66:./Libraries/CMSIS/DSP/Source/SupportFunctions/arm_q31_to_float.c **** 
  67:./Libraries/CMSIS/DSP/Source/SupportFunctions/arm_q31_to_float.c ****   int32x4_t inV;
  68:./Libraries/CMSIS/DSP/Source/SupportFunctions/arm_q31_to_float.c ****   float32x4_t outV;
  69:./Libraries/CMSIS/DSP/Source/SupportFunctions/arm_q31_to_float.c **** 
  70:./Libraries/CMSIS/DSP/Source/SupportFunctions/arm_q31_to_float.c ****   blkCnt = blockSize >> 2U;
  71:./Libraries/CMSIS/DSP/Source/SupportFunctions/arm_q31_to_float.c **** 
  72:./Libraries/CMSIS/DSP/Source/SupportFunctions/arm_q31_to_float.c ****   /* Compute 4 outputs at a time.
  73:./Libraries/CMSIS/DSP/Source/SupportFunctions/arm_q31_to_float.c ****    ** a second loop below computes the remaining 1 to 3 samples. */
  74:./Libraries/CMSIS/DSP/Source/SupportFunctions/arm_q31_to_float.c ****   while (blkCnt > 0U)
  75:./Libraries/CMSIS/DSP/Source/SupportFunctions/arm_q31_to_float.c ****   {
  76:./Libraries/CMSIS/DSP/Source/SupportFunctions/arm_q31_to_float.c ****     /* C = (float32_t) A / 2147483648 */
  77:./Libraries/CMSIS/DSP/Source/SupportFunctions/arm_q31_to_float.c ****     /* Convert from q31 to float and then store the results in the destination buffer */
  78:./Libraries/CMSIS/DSP/Source/SupportFunctions/arm_q31_to_float.c ****     inV = vld1q_s32(pIn);
  79:./Libraries/CMSIS/DSP/Source/SupportFunctions/arm_q31_to_float.c ****     pIn += 4;
  80:./Libraries/CMSIS/DSP/Source/SupportFunctions/arm_q31_to_float.c **** 
  81:./Libraries/CMSIS/DSP/Source/SupportFunctions/arm_q31_to_float.c ****     outV = vcvtq_n_f32_s32(inV,31);
  82:./Libraries/CMSIS/DSP/Source/SupportFunctions/arm_q31_to_float.c **** 
  83:./Libraries/CMSIS/DSP/Source/SupportFunctions/arm_q31_to_float.c ****     vst1q_f32(pDst, outV);
  84:./Libraries/CMSIS/DSP/Source/SupportFunctions/arm_q31_to_float.c ****     pDst += 4;
  85:./Libraries/CMSIS/DSP/Source/SupportFunctions/arm_q31_to_float.c **** 
  86:./Libraries/CMSIS/DSP/Source/SupportFunctions/arm_q31_to_float.c ****     /* Decrement the loop counter */
  87:./Libraries/CMSIS/DSP/Source/SupportFunctions/arm_q31_to_float.c ****     blkCnt--;
  88:./Libraries/CMSIS/DSP/Source/SupportFunctions/arm_q31_to_float.c ****   }
ARM GAS  /tmp/ccmaXR5d.s 			page 3


  89:./Libraries/CMSIS/DSP/Source/SupportFunctions/arm_q31_to_float.c **** 
  90:./Libraries/CMSIS/DSP/Source/SupportFunctions/arm_q31_to_float.c ****   /* If the blockSize is not a multiple of 4, compute any remaining output samples here.
  91:./Libraries/CMSIS/DSP/Source/SupportFunctions/arm_q31_to_float.c ****    ** No loop unrolling is used. */
  92:./Libraries/CMSIS/DSP/Source/SupportFunctions/arm_q31_to_float.c ****   blkCnt = blockSize & 3;
  93:./Libraries/CMSIS/DSP/Source/SupportFunctions/arm_q31_to_float.c **** 
  94:./Libraries/CMSIS/DSP/Source/SupportFunctions/arm_q31_to_float.c **** 
  95:./Libraries/CMSIS/DSP/Source/SupportFunctions/arm_q31_to_float.c ****   while (blkCnt > 0U)
  96:./Libraries/CMSIS/DSP/Source/SupportFunctions/arm_q31_to_float.c ****   {
  97:./Libraries/CMSIS/DSP/Source/SupportFunctions/arm_q31_to_float.c ****     /* C = (float32_t) A / 2147483648 */
  98:./Libraries/CMSIS/DSP/Source/SupportFunctions/arm_q31_to_float.c ****     /* Convert from q31 to float and then store the results in the destination buffer */
  99:./Libraries/CMSIS/DSP/Source/SupportFunctions/arm_q31_to_float.c ****     *pDst++ = ((float32_t) * pIn++ / 2147483648.0f);
 100:./Libraries/CMSIS/DSP/Source/SupportFunctions/arm_q31_to_float.c **** 
 101:./Libraries/CMSIS/DSP/Source/SupportFunctions/arm_q31_to_float.c ****     /* Decrement the loop counter */
 102:./Libraries/CMSIS/DSP/Source/SupportFunctions/arm_q31_to_float.c ****     blkCnt--;
 103:./Libraries/CMSIS/DSP/Source/SupportFunctions/arm_q31_to_float.c ****   }
 104:./Libraries/CMSIS/DSP/Source/SupportFunctions/arm_q31_to_float.c **** }
 105:./Libraries/CMSIS/DSP/Source/SupportFunctions/arm_q31_to_float.c **** #else
 106:./Libraries/CMSIS/DSP/Source/SupportFunctions/arm_q31_to_float.c **** void arm_q31_to_float(
 107:./Libraries/CMSIS/DSP/Source/SupportFunctions/arm_q31_to_float.c ****   const q31_t * pSrc,
 108:./Libraries/CMSIS/DSP/Source/SupportFunctions/arm_q31_to_float.c ****   float32_t * pDst,
 109:./Libraries/CMSIS/DSP/Source/SupportFunctions/arm_q31_to_float.c ****   uint32_t blockSize)
 110:./Libraries/CMSIS/DSP/Source/SupportFunctions/arm_q31_to_float.c **** {
  28              		.loc 1 110 1
  29              		.cfi_startproc
  30              		@ args = 0, pretend = 0, frame = 24
  31              		@ frame_needed = 1, uses_anonymous_args = 0
  32              		@ link register save eliminated.
  33 0000 80B4     		push	{r7}
  34              	.LCFI0:
  35              		.cfi_def_cfa_offset 4
  36              		.cfi_offset 7, -4
  37 0002 87B0     		sub	sp, sp, #28
  38              	.LCFI1:
  39              		.cfi_def_cfa_offset 32
  40 0004 00AF     		add	r7, sp, #0
  41              	.LCFI2:
  42              		.cfi_def_cfa_register 7
  43 0006 F860     		str	r0, [r7, #12]
  44 0008 B960     		str	r1, [r7, #8]
  45 000a 7A60     		str	r2, [r7, #4]
 111:./Libraries/CMSIS/DSP/Source/SupportFunctions/arm_q31_to_float.c ****   const q31_t *pIn = pSrc;                             /* Src pointer */
  46              		.loc 1 111 16
  47 000c FB68     		ldr	r3, [r7, #12]
  48 000e 7B61     		str	r3, [r7, #20]
 112:./Libraries/CMSIS/DSP/Source/SupportFunctions/arm_q31_to_float.c ****   uint32_t blkCnt;                               /* loop counter */
 113:./Libraries/CMSIS/DSP/Source/SupportFunctions/arm_q31_to_float.c **** 
 114:./Libraries/CMSIS/DSP/Source/SupportFunctions/arm_q31_to_float.c **** #if defined (ARM_MATH_LOOPUNROLL)
 115:./Libraries/CMSIS/DSP/Source/SupportFunctions/arm_q31_to_float.c **** 
 116:./Libraries/CMSIS/DSP/Source/SupportFunctions/arm_q31_to_float.c ****   /* Loop unrolling */
 117:./Libraries/CMSIS/DSP/Source/SupportFunctions/arm_q31_to_float.c ****   blkCnt = blockSize >> 2U;
 118:./Libraries/CMSIS/DSP/Source/SupportFunctions/arm_q31_to_float.c **** 
 119:./Libraries/CMSIS/DSP/Source/SupportFunctions/arm_q31_to_float.c ****   while (blkCnt > 0U)
 120:./Libraries/CMSIS/DSP/Source/SupportFunctions/arm_q31_to_float.c ****   {
 121:./Libraries/CMSIS/DSP/Source/SupportFunctions/arm_q31_to_float.c ****     /* C = (float32_t) A / 2147483648 */
 122:./Libraries/CMSIS/DSP/Source/SupportFunctions/arm_q31_to_float.c **** 
 123:./Libraries/CMSIS/DSP/Source/SupportFunctions/arm_q31_to_float.c ****     /* Convert from q31 to float and store result in destination buffer */
 124:./Libraries/CMSIS/DSP/Source/SupportFunctions/arm_q31_to_float.c ****     *pDst++ = ((float32_t) *pIn++ / 2147483648.0f);
ARM GAS  /tmp/ccmaXR5d.s 			page 4


 125:./Libraries/CMSIS/DSP/Source/SupportFunctions/arm_q31_to_float.c ****     *pDst++ = ((float32_t) *pIn++ / 2147483648.0f);
 126:./Libraries/CMSIS/DSP/Source/SupportFunctions/arm_q31_to_float.c ****     *pDst++ = ((float32_t) *pIn++ / 2147483648.0f);
 127:./Libraries/CMSIS/DSP/Source/SupportFunctions/arm_q31_to_float.c ****     *pDst++ = ((float32_t) *pIn++ / 2147483648.0f);
 128:./Libraries/CMSIS/DSP/Source/SupportFunctions/arm_q31_to_float.c **** 
 129:./Libraries/CMSIS/DSP/Source/SupportFunctions/arm_q31_to_float.c ****     /* Decrement loop counter */
 130:./Libraries/CMSIS/DSP/Source/SupportFunctions/arm_q31_to_float.c ****     blkCnt--;
 131:./Libraries/CMSIS/DSP/Source/SupportFunctions/arm_q31_to_float.c ****   }
 132:./Libraries/CMSIS/DSP/Source/SupportFunctions/arm_q31_to_float.c **** 
 133:./Libraries/CMSIS/DSP/Source/SupportFunctions/arm_q31_to_float.c ****   /* Loop unrolling: Compute remaining outputs */
 134:./Libraries/CMSIS/DSP/Source/SupportFunctions/arm_q31_to_float.c ****   blkCnt = blockSize % 0x4U;
 135:./Libraries/CMSIS/DSP/Source/SupportFunctions/arm_q31_to_float.c **** 
 136:./Libraries/CMSIS/DSP/Source/SupportFunctions/arm_q31_to_float.c **** #else
 137:./Libraries/CMSIS/DSP/Source/SupportFunctions/arm_q31_to_float.c **** 
 138:./Libraries/CMSIS/DSP/Source/SupportFunctions/arm_q31_to_float.c ****   /* Initialize blkCnt with number of samples */
 139:./Libraries/CMSIS/DSP/Source/SupportFunctions/arm_q31_to_float.c ****   blkCnt = blockSize;
  49              		.loc 1 139 10
  50 0010 7B68     		ldr	r3, [r7, #4]
  51 0012 3B61     		str	r3, [r7, #16]
 140:./Libraries/CMSIS/DSP/Source/SupportFunctions/arm_q31_to_float.c **** 
 141:./Libraries/CMSIS/DSP/Source/SupportFunctions/arm_q31_to_float.c **** #endif /* #if defined (ARM_MATH_LOOPUNROLL) */
 142:./Libraries/CMSIS/DSP/Source/SupportFunctions/arm_q31_to_float.c **** 
 143:./Libraries/CMSIS/DSP/Source/SupportFunctions/arm_q31_to_float.c ****   while (blkCnt > 0U)
  52              		.loc 1 143 9
  53 0014 13E0     		b	.L2
  54              	.L3:
 144:./Libraries/CMSIS/DSP/Source/SupportFunctions/arm_q31_to_float.c ****   {
 145:./Libraries/CMSIS/DSP/Source/SupportFunctions/arm_q31_to_float.c ****     /* C = (float32_t) A / 2147483648 */
 146:./Libraries/CMSIS/DSP/Source/SupportFunctions/arm_q31_to_float.c **** 
 147:./Libraries/CMSIS/DSP/Source/SupportFunctions/arm_q31_to_float.c ****     /* Convert from q31 to float and store result in destination buffer */
 148:./Libraries/CMSIS/DSP/Source/SupportFunctions/arm_q31_to_float.c ****     *pDst++ = ((float32_t) *pIn++ / 2147483648.0f);
  55              		.loc 1 148 32
  56 0016 7B69     		ldr	r3, [r7, #20]
  57 0018 1A1D     		adds	r2, r3, #4
  58 001a 7A61     		str	r2, [r7, #20]
  59              		.loc 1 148 28
  60 001c 1B68     		ldr	r3, [r3]
  61              		.loc 1 148 16
  62 001e 07EE903A 		vmov	s15, r3	@ int
  63 0022 B8EEE77A 		vcvt.f32.s32	s14, s15
  64              		.loc 1 148 10
  65 0026 BB68     		ldr	r3, [r7, #8]
  66 0028 1A1D     		adds	r2, r3, #4
  67 002a BA60     		str	r2, [r7, #8]
  68              		.loc 1 148 35
  69 002c DFED096A 		vldr.32	s13, .L4
  70 0030 C7EE267A 		vdiv.f32	s15, s14, s13
  71              		.loc 1 148 13
  72 0034 C3ED007A 		vstr.32	s15, [r3]
 149:./Libraries/CMSIS/DSP/Source/SupportFunctions/arm_q31_to_float.c **** 
 150:./Libraries/CMSIS/DSP/Source/SupportFunctions/arm_q31_to_float.c ****     /* Decrement loop counter */
 151:./Libraries/CMSIS/DSP/Source/SupportFunctions/arm_q31_to_float.c ****     blkCnt--;
  73              		.loc 1 151 11
  74 0038 3B69     		ldr	r3, [r7, #16]
  75 003a 013B     		subs	r3, r3, #1
  76 003c 3B61     		str	r3, [r7, #16]
  77              	.L2:
 143:./Libraries/CMSIS/DSP/Source/SupportFunctions/arm_q31_to_float.c ****   {
ARM GAS  /tmp/ccmaXR5d.s 			page 5


  78              		.loc 1 143 9
  79 003e 3B69     		ldr	r3, [r7, #16]
  80 0040 002B     		cmp	r3, #0
  81 0042 E8D1     		bne	.L3
 152:./Libraries/CMSIS/DSP/Source/SupportFunctions/arm_q31_to_float.c ****   }
 153:./Libraries/CMSIS/DSP/Source/SupportFunctions/arm_q31_to_float.c **** 
 154:./Libraries/CMSIS/DSP/Source/SupportFunctions/arm_q31_to_float.c **** }
  82              		.loc 1 154 1
  83 0044 00BF     		nop
  84 0046 00BF     		nop
  85 0048 1C37     		adds	r7, r7, #28
  86              	.LCFI3:
  87              		.cfi_def_cfa_offset 4
  88 004a BD46     		mov	sp, r7
  89              	.LCFI4:
  90              		.cfi_def_cfa_register 13
  91              		@ sp needed
  92 004c 5DF8047B 		ldr	r7, [sp], #4
  93              	.LCFI5:
  94              		.cfi_restore 7
  95              		.cfi_def_cfa_offset 0
  96 0050 7047     		bx	lr
  97              	.L5:
  98 0052 00BF     		.align	2
  99              	.L4:
 100 0054 0000004F 		.word	1325400064
 101              		.cfi_endproc
 102              	.LFE145:
 104              		.text
 105              	.Letext0:
 106              		.file 2 "/usr/lib/gcc/arm-none-eabi/9.2.1/include/stdint.h"
 107              		.file 3 "/usr/lib/gcc/arm-none-eabi/9.2.1/include/stddef.h"
 108              		.file 4 "/usr/include/newlib/sys/_types.h"
 109              		.file 5 "/usr/include/newlib/sys/reent.h"
 110              		.file 6 "/usr/include/newlib/sys/lock.h"
 111              		.file 7 "/usr/include/newlib/math.h"
 112              		.file 8 "./Libraries/CMSIS/DSP/Include/arm_math.h"
ARM GAS  /tmp/ccmaXR5d.s 			page 6

