ARM GAS  /tmp/ccwfDUN5.s 			page 1


   1              		.cpu cortex-m7
   2              		.eabi_attribute 28, 1
   3              		.eabi_attribute 20, 1
   4              		.eabi_attribute 21, 1
   5              		.eabi_attribute 23, 3
   6              		.eabi_attribute 24, 1
   7              		.eabi_attribute 25, 1
   8              		.eabi_attribute 26, 1
   9              		.eabi_attribute 30, 6
  10              		.eabi_attribute 34, 1
  11              		.eabi_attribute 18, 4
  12              		.file	"arm_correlate_fast_q31.c"
  13              		.text
  14              	.Ltext0:
  15              		.cfi_sections	.debug_frame
  16              		.section	.text.arm_correlate_fast_q31,"ax",%progbits
  17              		.align	1
  18              		.global	arm_correlate_fast_q31
  19              		.arch armv7e-m
  20              		.syntax unified
  21              		.thumb
  22              		.thumb_func
  23              		.fpu fpv5-d16
  25              	arm_correlate_fast_q31:
  26              	.LFB145:
  27              		.file 1 "./Libraries/CMSIS/DSP/Source/FilteringFunctions/arm_correlate_fast_q31.c"
   1:./Libraries/CMSIS/DSP/Source/FilteringFunctions/arm_correlate_fast_q31.c **** /* ----------------------------------------------------------------------
   2:./Libraries/CMSIS/DSP/Source/FilteringFunctions/arm_correlate_fast_q31.c ****  * Project:      CMSIS DSP Library
   3:./Libraries/CMSIS/DSP/Source/FilteringFunctions/arm_correlate_fast_q31.c ****  * Title:        arm_correlate_fast_q31.c
   4:./Libraries/CMSIS/DSP/Source/FilteringFunctions/arm_correlate_fast_q31.c ****  * Description:  Fast Q31 Correlation
   5:./Libraries/CMSIS/DSP/Source/FilteringFunctions/arm_correlate_fast_q31.c ****  *
   6:./Libraries/CMSIS/DSP/Source/FilteringFunctions/arm_correlate_fast_q31.c ****  * $Date:        18. March 2019
   7:./Libraries/CMSIS/DSP/Source/FilteringFunctions/arm_correlate_fast_q31.c ****  * $Revision:    V1.6.0
   8:./Libraries/CMSIS/DSP/Source/FilteringFunctions/arm_correlate_fast_q31.c ****  *
   9:./Libraries/CMSIS/DSP/Source/FilteringFunctions/arm_correlate_fast_q31.c ****  * Target Processor: Cortex-M cores
  10:./Libraries/CMSIS/DSP/Source/FilteringFunctions/arm_correlate_fast_q31.c ****  * -------------------------------------------------------------------- */
  11:./Libraries/CMSIS/DSP/Source/FilteringFunctions/arm_correlate_fast_q31.c **** /*
  12:./Libraries/CMSIS/DSP/Source/FilteringFunctions/arm_correlate_fast_q31.c ****  * Copyright (C) 2010-2019 ARM Limited or its affiliates. All rights reserved.
  13:./Libraries/CMSIS/DSP/Source/FilteringFunctions/arm_correlate_fast_q31.c ****  *
  14:./Libraries/CMSIS/DSP/Source/FilteringFunctions/arm_correlate_fast_q31.c ****  * SPDX-License-Identifier: Apache-2.0
  15:./Libraries/CMSIS/DSP/Source/FilteringFunctions/arm_correlate_fast_q31.c ****  *
  16:./Libraries/CMSIS/DSP/Source/FilteringFunctions/arm_correlate_fast_q31.c ****  * Licensed under the Apache License, Version 2.0 (the License); you may
  17:./Libraries/CMSIS/DSP/Source/FilteringFunctions/arm_correlate_fast_q31.c ****  * not use this file except in compliance with the License.
  18:./Libraries/CMSIS/DSP/Source/FilteringFunctions/arm_correlate_fast_q31.c ****  * You may obtain a copy of the License at
  19:./Libraries/CMSIS/DSP/Source/FilteringFunctions/arm_correlate_fast_q31.c ****  *
  20:./Libraries/CMSIS/DSP/Source/FilteringFunctions/arm_correlate_fast_q31.c ****  * www.apache.org/licenses/LICENSE-2.0
  21:./Libraries/CMSIS/DSP/Source/FilteringFunctions/arm_correlate_fast_q31.c ****  *
  22:./Libraries/CMSIS/DSP/Source/FilteringFunctions/arm_correlate_fast_q31.c ****  * Unless required by applicable law or agreed to in writing, software
  23:./Libraries/CMSIS/DSP/Source/FilteringFunctions/arm_correlate_fast_q31.c ****  * distributed under the License is distributed on an AS IS BASIS, WITHOUT
  24:./Libraries/CMSIS/DSP/Source/FilteringFunctions/arm_correlate_fast_q31.c ****  * WARRANTIES OR CONDITIONS OF ANY KIND, either express or implied.
  25:./Libraries/CMSIS/DSP/Source/FilteringFunctions/arm_correlate_fast_q31.c ****  * See the License for the specific language governing permissions and
  26:./Libraries/CMSIS/DSP/Source/FilteringFunctions/arm_correlate_fast_q31.c ****  * limitations under the License.
  27:./Libraries/CMSIS/DSP/Source/FilteringFunctions/arm_correlate_fast_q31.c ****  */
  28:./Libraries/CMSIS/DSP/Source/FilteringFunctions/arm_correlate_fast_q31.c **** 
  29:./Libraries/CMSIS/DSP/Source/FilteringFunctions/arm_correlate_fast_q31.c **** #include "arm_math.h"
  30:./Libraries/CMSIS/DSP/Source/FilteringFunctions/arm_correlate_fast_q31.c **** 
  31:./Libraries/CMSIS/DSP/Source/FilteringFunctions/arm_correlate_fast_q31.c **** /**
ARM GAS  /tmp/ccwfDUN5.s 			page 2


  32:./Libraries/CMSIS/DSP/Source/FilteringFunctions/arm_correlate_fast_q31.c ****   @ingroup groupFilters
  33:./Libraries/CMSIS/DSP/Source/FilteringFunctions/arm_correlate_fast_q31.c ****  */
  34:./Libraries/CMSIS/DSP/Source/FilteringFunctions/arm_correlate_fast_q31.c **** 
  35:./Libraries/CMSIS/DSP/Source/FilteringFunctions/arm_correlate_fast_q31.c **** /**
  36:./Libraries/CMSIS/DSP/Source/FilteringFunctions/arm_correlate_fast_q31.c ****   @addtogroup Corr
  37:./Libraries/CMSIS/DSP/Source/FilteringFunctions/arm_correlate_fast_q31.c ****   @{
  38:./Libraries/CMSIS/DSP/Source/FilteringFunctions/arm_correlate_fast_q31.c ****  */
  39:./Libraries/CMSIS/DSP/Source/FilteringFunctions/arm_correlate_fast_q31.c **** 
  40:./Libraries/CMSIS/DSP/Source/FilteringFunctions/arm_correlate_fast_q31.c **** /**
  41:./Libraries/CMSIS/DSP/Source/FilteringFunctions/arm_correlate_fast_q31.c ****   @brief         Correlation of Q31 sequences (fast version).
  42:./Libraries/CMSIS/DSP/Source/FilteringFunctions/arm_correlate_fast_q31.c ****   @param[in]     pSrcA      points to the first input sequence
  43:./Libraries/CMSIS/DSP/Source/FilteringFunctions/arm_correlate_fast_q31.c ****   @param[in]     srcALen    length of the first input sequence
  44:./Libraries/CMSIS/DSP/Source/FilteringFunctions/arm_correlate_fast_q31.c ****   @param[in]     pSrcB      points to the second input sequence
  45:./Libraries/CMSIS/DSP/Source/FilteringFunctions/arm_correlate_fast_q31.c ****   @param[in]     srcBLen    length of the second input sequence
  46:./Libraries/CMSIS/DSP/Source/FilteringFunctions/arm_correlate_fast_q31.c ****   @param[out]    pDst       points to the location where the output result is written.  Length 2 * 
  47:./Libraries/CMSIS/DSP/Source/FilteringFunctions/arm_correlate_fast_q31.c ****   @return        none
  48:./Libraries/CMSIS/DSP/Source/FilteringFunctions/arm_correlate_fast_q31.c **** 
  49:./Libraries/CMSIS/DSP/Source/FilteringFunctions/arm_correlate_fast_q31.c ****   @par           Scaling and Overflow Behavior
  50:./Libraries/CMSIS/DSP/Source/FilteringFunctions/arm_correlate_fast_q31.c ****                    This function is optimized for speed at the expense of fixed-point precision and
  51:./Libraries/CMSIS/DSP/Source/FilteringFunctions/arm_correlate_fast_q31.c ****                    The result of each 1.31 x 1.31 multiplication is truncated to 2.30 format.
  52:./Libraries/CMSIS/DSP/Source/FilteringFunctions/arm_correlate_fast_q31.c ****                    These intermediate results are accumulated in a 32-bit register in 2.30 format.
  53:./Libraries/CMSIS/DSP/Source/FilteringFunctions/arm_correlate_fast_q31.c ****                    Finally, the accumulator is saturated and converted to a 1.31 result.
  54:./Libraries/CMSIS/DSP/Source/FilteringFunctions/arm_correlate_fast_q31.c ****   @par
  55:./Libraries/CMSIS/DSP/Source/FilteringFunctions/arm_correlate_fast_q31.c ****                    The fast version has the same overflow behavior as the standard version but prov
  56:./Libraries/CMSIS/DSP/Source/FilteringFunctions/arm_correlate_fast_q31.c ****                    In order to avoid overflows completely the input signals must be scaled down.
  57:./Libraries/CMSIS/DSP/Source/FilteringFunctions/arm_correlate_fast_q31.c ****                    The input signals should be scaled down to avoid intermediate overflows.
  58:./Libraries/CMSIS/DSP/Source/FilteringFunctions/arm_correlate_fast_q31.c ****                    Scale down one of the inputs by 1/min(srcALen, srcBLen)to avoid overflows since 
  59:./Libraries/CMSIS/DSP/Source/FilteringFunctions/arm_correlate_fast_q31.c ****                    maximum of min(srcALen, srcBLen) number of additions is carried internally.
  60:./Libraries/CMSIS/DSP/Source/FilteringFunctions/arm_correlate_fast_q31.c **** 
  61:./Libraries/CMSIS/DSP/Source/FilteringFunctions/arm_correlate_fast_q31.c ****  @remark
  62:./Libraries/CMSIS/DSP/Source/FilteringFunctions/arm_correlate_fast_q31.c ****                    Refer to \ref arm_correlate_q31() for a slower implementation of this function w
  63:./Libraries/CMSIS/DSP/Source/FilteringFunctions/arm_correlate_fast_q31.c ****  */
  64:./Libraries/CMSIS/DSP/Source/FilteringFunctions/arm_correlate_fast_q31.c **** 
  65:./Libraries/CMSIS/DSP/Source/FilteringFunctions/arm_correlate_fast_q31.c **** void arm_correlate_fast_q31(
  66:./Libraries/CMSIS/DSP/Source/FilteringFunctions/arm_correlate_fast_q31.c ****   const q31_t * pSrcA,
  67:./Libraries/CMSIS/DSP/Source/FilteringFunctions/arm_correlate_fast_q31.c ****         uint32_t srcALen,
  68:./Libraries/CMSIS/DSP/Source/FilteringFunctions/arm_correlate_fast_q31.c ****   const q31_t * pSrcB,
  69:./Libraries/CMSIS/DSP/Source/FilteringFunctions/arm_correlate_fast_q31.c ****         uint32_t srcBLen,
  70:./Libraries/CMSIS/DSP/Source/FilteringFunctions/arm_correlate_fast_q31.c ****         q31_t * pDst)
  71:./Libraries/CMSIS/DSP/Source/FilteringFunctions/arm_correlate_fast_q31.c **** {
  28              		.loc 1 71 1
  29              		.cfi_startproc
  30              		@ args = 4, pretend = 0, frame = 400
  31              		@ frame_needed = 1, uses_anonymous_args = 0
  32              		@ link register save eliminated.
  33 0000 2DE9B00F 		push	{r4, r5, r7, r8, r9, r10, fp}
  34              	.LCFI0:
  35              		.cfi_def_cfa_offset 28
  36              		.cfi_offset 4, -28
  37              		.cfi_offset 5, -24
  38              		.cfi_offset 7, -20
  39              		.cfi_offset 8, -16
  40              		.cfi_offset 9, -12
  41              		.cfi_offset 10, -8
  42              		.cfi_offset 11, -4
  43 0004 E5B0     		sub	sp, sp, #404
  44              	.LCFI1:
ARM GAS  /tmp/ccwfDUN5.s 			page 3


  45              		.cfi_def_cfa_offset 432
  46 0006 00AF     		add	r7, sp, #0
  47              	.LCFI2:
  48              		.cfi_def_cfa_register 7
  49 0008 C7F82401 		str	r0, [r7, #292]
  50 000c C7F82011 		str	r1, [r7, #288]
  51 0010 C7F81C21 		str	r2, [r7, #284]
  52 0014 C7F81831 		str	r3, [r7, #280]
  72:./Libraries/CMSIS/DSP/Source/FilteringFunctions/arm_correlate_fast_q31.c ****   const q31_t *pIn1;                                   /* InputA pointer */
  73:./Libraries/CMSIS/DSP/Source/FilteringFunctions/arm_correlate_fast_q31.c ****   const q31_t *pIn2;                                   /* InputB pointer */
  74:./Libraries/CMSIS/DSP/Source/FilteringFunctions/arm_correlate_fast_q31.c ****         q31_t *pOut = pDst;                            /* Output pointer */
  53              		.loc 1 74 16
  54 0018 D7F8B031 		ldr	r3, [r7, #432]
  55 001c C7F88431 		str	r3, [r7, #388]
  75:./Libraries/CMSIS/DSP/Source/FilteringFunctions/arm_correlate_fast_q31.c ****   const q31_t *px;                                     /* Intermediate inputA pointer */
  76:./Libraries/CMSIS/DSP/Source/FilteringFunctions/arm_correlate_fast_q31.c ****   const q31_t *py;                                     /* Intermediate inputB pointer */
  77:./Libraries/CMSIS/DSP/Source/FilteringFunctions/arm_correlate_fast_q31.c ****   const q31_t *pSrc1;                                  /* Intermediate pointers */
  78:./Libraries/CMSIS/DSP/Source/FilteringFunctions/arm_correlate_fast_q31.c ****         q31_t sum, acc0, acc1, acc2, acc3;             /* Accumulators */
  79:./Libraries/CMSIS/DSP/Source/FilteringFunctions/arm_correlate_fast_q31.c ****         q31_t x0, x1, x2, x3, c0;                      /* Temporary variables for holding input and
  80:./Libraries/CMSIS/DSP/Source/FilteringFunctions/arm_correlate_fast_q31.c ****         uint32_t blockSize1, blockSize2, blockSize3;   /* Loop counters */
  81:./Libraries/CMSIS/DSP/Source/FilteringFunctions/arm_correlate_fast_q31.c ****         uint32_t j, k, count, blkCnt;                  /* Loop counters */
  82:./Libraries/CMSIS/DSP/Source/FilteringFunctions/arm_correlate_fast_q31.c ****         uint32_t outBlockSize;
  83:./Libraries/CMSIS/DSP/Source/FilteringFunctions/arm_correlate_fast_q31.c ****         int32_t inc = 1;                               /* Destination address modifier */
  56              		.loc 1 83 17
  57 0020 0123     		movs	r3, #1
  58 0022 C7F84031 		str	r3, [r7, #320]
  84:./Libraries/CMSIS/DSP/Source/FilteringFunctions/arm_correlate_fast_q31.c **** 
  85:./Libraries/CMSIS/DSP/Source/FilteringFunctions/arm_correlate_fast_q31.c ****   /* The algorithm implementation is based on the lengths of the inputs. */
  86:./Libraries/CMSIS/DSP/Source/FilteringFunctions/arm_correlate_fast_q31.c ****   /* srcB is always made to slide across srcA. */
  87:./Libraries/CMSIS/DSP/Source/FilteringFunctions/arm_correlate_fast_q31.c ****   /* So srcBLen is always considered as shorter or equal to srcALen */
  88:./Libraries/CMSIS/DSP/Source/FilteringFunctions/arm_correlate_fast_q31.c ****   if (srcALen >= srcBLen)
  59              		.loc 1 88 6
  60 0026 D7F82021 		ldr	r2, [r7, #288]
  61 002a D7F81831 		ldr	r3, [r7, #280]
  62 002e 9A42     		cmp	r2, r3
  63 0030 21D3     		bcc	.L2
  89:./Libraries/CMSIS/DSP/Source/FilteringFunctions/arm_correlate_fast_q31.c ****   {
  90:./Libraries/CMSIS/DSP/Source/FilteringFunctions/arm_correlate_fast_q31.c ****     /* Initialization of inputA pointer */
  91:./Libraries/CMSIS/DSP/Source/FilteringFunctions/arm_correlate_fast_q31.c ****     pIn1 = pSrcA;
  64              		.loc 1 91 10
  65 0032 D7F82431 		ldr	r3, [r7, #292]
  66 0036 C7F88C31 		str	r3, [r7, #396]
  92:./Libraries/CMSIS/DSP/Source/FilteringFunctions/arm_correlate_fast_q31.c **** 
  93:./Libraries/CMSIS/DSP/Source/FilteringFunctions/arm_correlate_fast_q31.c ****     /* Initialization of inputB pointer */
  94:./Libraries/CMSIS/DSP/Source/FilteringFunctions/arm_correlate_fast_q31.c ****     pIn2 = pSrcB;
  67              		.loc 1 94 10
  68 003a D7F81C31 		ldr	r3, [r7, #284]
  69 003e C7F88831 		str	r3, [r7, #392]
  95:./Libraries/CMSIS/DSP/Source/FilteringFunctions/arm_correlate_fast_q31.c **** 
  96:./Libraries/CMSIS/DSP/Source/FilteringFunctions/arm_correlate_fast_q31.c ****     /* Number of output samples is calculated */
  97:./Libraries/CMSIS/DSP/Source/FilteringFunctions/arm_correlate_fast_q31.c ****     outBlockSize = (2U * srcALen) - 1U;
  70              		.loc 1 97 24
  71 0042 D7F82031 		ldr	r3, [r7, #288]
  72 0046 5B00     		lsls	r3, r3, #1
  73              		.loc 1 97 18
  74 0048 013B     		subs	r3, r3, #1
  75 004a C7F83831 		str	r3, [r7, #312]
ARM GAS  /tmp/ccwfDUN5.s 			page 4


  98:./Libraries/CMSIS/DSP/Source/FilteringFunctions/arm_correlate_fast_q31.c **** 
  99:./Libraries/CMSIS/DSP/Source/FilteringFunctions/arm_correlate_fast_q31.c ****     /* When srcALen > srcBLen, zero padding is done to srcB
 100:./Libraries/CMSIS/DSP/Source/FilteringFunctions/arm_correlate_fast_q31.c ****      * to make their lengths equal.
 101:./Libraries/CMSIS/DSP/Source/FilteringFunctions/arm_correlate_fast_q31.c ****      * Instead, (outBlockSize - (srcALen + srcBLen - 1))
 102:./Libraries/CMSIS/DSP/Source/FilteringFunctions/arm_correlate_fast_q31.c ****      * number of output samples are made zero */
 103:./Libraries/CMSIS/DSP/Source/FilteringFunctions/arm_correlate_fast_q31.c ****     j = outBlockSize - (srcALen + (srcBLen - 1U));
  76              		.loc 1 103 33
  77 004e D7F81821 		ldr	r2, [r7, #280]
  78 0052 D7F82031 		ldr	r3, [r7, #288]
  79 0056 1A44     		add	r2, r2, r3
  80              		.loc 1 103 22
  81 0058 D7F83831 		ldr	r3, [r7, #312]
  82 005c 9B1A     		subs	r3, r3, r2
  83              		.loc 1 103 7
  84 005e 0133     		adds	r3, r3, #1
  85 0060 C7F83C31 		str	r3, [r7, #316]
 104:./Libraries/CMSIS/DSP/Source/FilteringFunctions/arm_correlate_fast_q31.c **** 
 105:./Libraries/CMSIS/DSP/Source/FilteringFunctions/arm_correlate_fast_q31.c ****     /* Updating the pointer position to non zero value */
 106:./Libraries/CMSIS/DSP/Source/FilteringFunctions/arm_correlate_fast_q31.c ****     pOut += j;
  86              		.loc 1 106 10
  87 0064 D7F83C31 		ldr	r3, [r7, #316]
  88 0068 9A00     		lsls	r2, r3, #2
  89 006a D7F88431 		ldr	r3, [r7, #388]
  90 006e 1344     		add	r3, r3, r2
  91 0070 C7F88431 		str	r3, [r7, #388]
  92 0074 24E0     		b	.L3
  93              	.L2:
 107:./Libraries/CMSIS/DSP/Source/FilteringFunctions/arm_correlate_fast_q31.c **** 
 108:./Libraries/CMSIS/DSP/Source/FilteringFunctions/arm_correlate_fast_q31.c ****   }
 109:./Libraries/CMSIS/DSP/Source/FilteringFunctions/arm_correlate_fast_q31.c ****   else
 110:./Libraries/CMSIS/DSP/Source/FilteringFunctions/arm_correlate_fast_q31.c ****   {
 111:./Libraries/CMSIS/DSP/Source/FilteringFunctions/arm_correlate_fast_q31.c ****     /* Initialization of inputA pointer */
 112:./Libraries/CMSIS/DSP/Source/FilteringFunctions/arm_correlate_fast_q31.c ****     pIn1 = pSrcB;
  94              		.loc 1 112 10
  95 0076 D7F81C31 		ldr	r3, [r7, #284]
  96 007a C7F88C31 		str	r3, [r7, #396]
 113:./Libraries/CMSIS/DSP/Source/FilteringFunctions/arm_correlate_fast_q31.c **** 
 114:./Libraries/CMSIS/DSP/Source/FilteringFunctions/arm_correlate_fast_q31.c ****     /* Initialization of inputB pointer */
 115:./Libraries/CMSIS/DSP/Source/FilteringFunctions/arm_correlate_fast_q31.c ****     pIn2 = pSrcA;
  97              		.loc 1 115 10
  98 007e D7F82431 		ldr	r3, [r7, #292]
  99 0082 C7F88831 		str	r3, [r7, #392]
 116:./Libraries/CMSIS/DSP/Source/FilteringFunctions/arm_correlate_fast_q31.c **** 
 117:./Libraries/CMSIS/DSP/Source/FilteringFunctions/arm_correlate_fast_q31.c ****     /* srcBLen is always considered as shorter or equal to srcALen */
 118:./Libraries/CMSIS/DSP/Source/FilteringFunctions/arm_correlate_fast_q31.c ****     j = srcBLen;
 100              		.loc 1 118 7
 101 0086 D7F81831 		ldr	r3, [r7, #280]
 102 008a C7F83C31 		str	r3, [r7, #316]
 119:./Libraries/CMSIS/DSP/Source/FilteringFunctions/arm_correlate_fast_q31.c ****     srcBLen = srcALen;
 103              		.loc 1 119 13
 104 008e D7F82031 		ldr	r3, [r7, #288]
 105 0092 C7F81831 		str	r3, [r7, #280]
 120:./Libraries/CMSIS/DSP/Source/FilteringFunctions/arm_correlate_fast_q31.c ****     srcALen = j;
 106              		.loc 1 120 13
 107 0096 D7F83C31 		ldr	r3, [r7, #316]
 108 009a C7F82031 		str	r3, [r7, #288]
 121:./Libraries/CMSIS/DSP/Source/FilteringFunctions/arm_correlate_fast_q31.c **** 
ARM GAS  /tmp/ccwfDUN5.s 			page 5


 122:./Libraries/CMSIS/DSP/Source/FilteringFunctions/arm_correlate_fast_q31.c ****     /* CORR(x, y) = Reverse order(CORR(y, x)) */
 123:./Libraries/CMSIS/DSP/Source/FilteringFunctions/arm_correlate_fast_q31.c ****     /* Hence set the destination pointer to point to the last output sample */
 124:./Libraries/CMSIS/DSP/Source/FilteringFunctions/arm_correlate_fast_q31.c ****     pOut = pDst + ((srcALen + srcBLen) - 2U);
 109              		.loc 1 124 29
 110 009e D7F82021 		ldr	r2, [r7, #288]
 111 00a2 D7F81831 		ldr	r3, [r7, #280]
 112 00a6 1A44     		add	r2, r2, r3
 113              		.loc 1 124 17
 114 00a8 DE4B     		ldr	r3, .L33
 115 00aa 1344     		add	r3, r3, r2
 116 00ac 9A00     		lsls	r2, r3, #2
 117              		.loc 1 124 10
 118 00ae D7F8B031 		ldr	r3, [r7, #432]
 119 00b2 1344     		add	r3, r3, r2
 120 00b4 C7F88431 		str	r3, [r7, #388]
 125:./Libraries/CMSIS/DSP/Source/FilteringFunctions/arm_correlate_fast_q31.c **** 
 126:./Libraries/CMSIS/DSP/Source/FilteringFunctions/arm_correlate_fast_q31.c ****     /* Destination address modifier is set to -1 */
 127:./Libraries/CMSIS/DSP/Source/FilteringFunctions/arm_correlate_fast_q31.c ****     inc = -1;
 121              		.loc 1 127 9
 122 00b8 4FF0FF33 		mov	r3, #-1
 123 00bc C7F84031 		str	r3, [r7, #320]
 124              	.L3:
 128:./Libraries/CMSIS/DSP/Source/FilteringFunctions/arm_correlate_fast_q31.c **** 
 129:./Libraries/CMSIS/DSP/Source/FilteringFunctions/arm_correlate_fast_q31.c ****   }
 130:./Libraries/CMSIS/DSP/Source/FilteringFunctions/arm_correlate_fast_q31.c **** 
 131:./Libraries/CMSIS/DSP/Source/FilteringFunctions/arm_correlate_fast_q31.c ****   /* The function is internally
 132:./Libraries/CMSIS/DSP/Source/FilteringFunctions/arm_correlate_fast_q31.c ****    * divided into three stages according to the number of multiplications that has to be
 133:./Libraries/CMSIS/DSP/Source/FilteringFunctions/arm_correlate_fast_q31.c ****    * taken place between inputA samples and inputB samples. In the first stage of the
 134:./Libraries/CMSIS/DSP/Source/FilteringFunctions/arm_correlate_fast_q31.c ****    * algorithm, the multiplications increase by one for every iteration.
 135:./Libraries/CMSIS/DSP/Source/FilteringFunctions/arm_correlate_fast_q31.c ****    * In the second stage of the algorithm, srcBLen number of multiplications are done.
 136:./Libraries/CMSIS/DSP/Source/FilteringFunctions/arm_correlate_fast_q31.c ****    * In the third stage of the algorithm, the multiplications decrease by one
 137:./Libraries/CMSIS/DSP/Source/FilteringFunctions/arm_correlate_fast_q31.c ****    * for every iteration. */
 138:./Libraries/CMSIS/DSP/Source/FilteringFunctions/arm_correlate_fast_q31.c **** 
 139:./Libraries/CMSIS/DSP/Source/FilteringFunctions/arm_correlate_fast_q31.c ****   /* The algorithm is implemented in three stages.
 140:./Libraries/CMSIS/DSP/Source/FilteringFunctions/arm_correlate_fast_q31.c ****      The loop counters of each stage is initiated here. */
 141:./Libraries/CMSIS/DSP/Source/FilteringFunctions/arm_correlate_fast_q31.c ****   blockSize1 = srcBLen - 1U;
 125              		.loc 1 141 14
 126 00c0 D7F81831 		ldr	r3, [r7, #280]
 127 00c4 013B     		subs	r3, r3, #1
 128 00c6 C7F85431 		str	r3, [r7, #340]
 142:./Libraries/CMSIS/DSP/Source/FilteringFunctions/arm_correlate_fast_q31.c ****   blockSize2 = srcALen - (srcBLen - 1U);
 129              		.loc 1 142 24
 130 00ca D7F82021 		ldr	r2, [r7, #288]
 131 00ce D7F81831 		ldr	r3, [r7, #280]
 132 00d2 D31A     		subs	r3, r2, r3
 133              		.loc 1 142 14
 134 00d4 0133     		adds	r3, r3, #1
 135 00d6 C7F83431 		str	r3, [r7, #308]
 143:./Libraries/CMSIS/DSP/Source/FilteringFunctions/arm_correlate_fast_q31.c ****   blockSize3 = blockSize1;
 136              		.loc 1 143 14
 137 00da D7F85431 		ldr	r3, [r7, #340]
 138 00de C7F85031 		str	r3, [r7, #336]
 144:./Libraries/CMSIS/DSP/Source/FilteringFunctions/arm_correlate_fast_q31.c **** 
 145:./Libraries/CMSIS/DSP/Source/FilteringFunctions/arm_correlate_fast_q31.c ****   /* --------------------------
 146:./Libraries/CMSIS/DSP/Source/FilteringFunctions/arm_correlate_fast_q31.c ****    * Initializations of stage1
 147:./Libraries/CMSIS/DSP/Source/FilteringFunctions/arm_correlate_fast_q31.c ****    * -------------------------*/
 148:./Libraries/CMSIS/DSP/Source/FilteringFunctions/arm_correlate_fast_q31.c **** 
ARM GAS  /tmp/ccwfDUN5.s 			page 6


 149:./Libraries/CMSIS/DSP/Source/FilteringFunctions/arm_correlate_fast_q31.c ****   /* sum = x[0] * y[srcBlen - 1]
 150:./Libraries/CMSIS/DSP/Source/FilteringFunctions/arm_correlate_fast_q31.c ****    * sum = x[0] * y[srcBlen - 2] + x[1] * y[srcBlen - 1]
 151:./Libraries/CMSIS/DSP/Source/FilteringFunctions/arm_correlate_fast_q31.c ****    * ....
 152:./Libraries/CMSIS/DSP/Source/FilteringFunctions/arm_correlate_fast_q31.c ****    * sum = x[0] * y[0] + x[1] * y[1] +...+ x[srcBLen - 1] * y[srcBLen - 1]
 153:./Libraries/CMSIS/DSP/Source/FilteringFunctions/arm_correlate_fast_q31.c ****    */
 154:./Libraries/CMSIS/DSP/Source/FilteringFunctions/arm_correlate_fast_q31.c **** 
 155:./Libraries/CMSIS/DSP/Source/FilteringFunctions/arm_correlate_fast_q31.c ****   /* In this stage the MAC operations are increased by 1 for every iteration.
 156:./Libraries/CMSIS/DSP/Source/FilteringFunctions/arm_correlate_fast_q31.c ****      The count variable holds the number of MAC operations performed */
 157:./Libraries/CMSIS/DSP/Source/FilteringFunctions/arm_correlate_fast_q31.c ****   count = 1U;
 139              		.loc 1 157 9
 140 00e2 0123     		movs	r3, #1
 141 00e4 C7F84831 		str	r3, [r7, #328]
 158:./Libraries/CMSIS/DSP/Source/FilteringFunctions/arm_correlate_fast_q31.c **** 
 159:./Libraries/CMSIS/DSP/Source/FilteringFunctions/arm_correlate_fast_q31.c ****   /* Working pointer of inputA */
 160:./Libraries/CMSIS/DSP/Source/FilteringFunctions/arm_correlate_fast_q31.c ****   px = pIn1;
 142              		.loc 1 160 6
 143 00e8 D7F88C31 		ldr	r3, [r7, #396]
 144 00ec C7F88031 		str	r3, [r7, #384]
 161:./Libraries/CMSIS/DSP/Source/FilteringFunctions/arm_correlate_fast_q31.c **** 
 162:./Libraries/CMSIS/DSP/Source/FilteringFunctions/arm_correlate_fast_q31.c ****   /* Working pointer of inputB */
 163:./Libraries/CMSIS/DSP/Source/FilteringFunctions/arm_correlate_fast_q31.c ****   pSrc1 = pIn2 + (srcBLen - 1U);
 145              		.loc 1 163 16
 146 00f0 D7F81821 		ldr	r2, [r7, #280]
 147 00f4 6FF04043 		mvn	r3, #-1073741824
 148 00f8 1344     		add	r3, r3, r2
 149 00fa 9A00     		lsls	r2, r3, #2
 150              		.loc 1 163 9
 151 00fc D7F88831 		ldr	r3, [r7, #392]
 152 0100 1344     		add	r3, r3, r2
 153 0102 C7F87831 		str	r3, [r7, #376]
 164:./Libraries/CMSIS/DSP/Source/FilteringFunctions/arm_correlate_fast_q31.c ****   py = pSrc1;
 154              		.loc 1 164 6
 155 0106 D7F87831 		ldr	r3, [r7, #376]
 156 010a C7F87C31 		str	r3, [r7, #380]
 165:./Libraries/CMSIS/DSP/Source/FilteringFunctions/arm_correlate_fast_q31.c **** 
 166:./Libraries/CMSIS/DSP/Source/FilteringFunctions/arm_correlate_fast_q31.c ****   /* ------------------------
 167:./Libraries/CMSIS/DSP/Source/FilteringFunctions/arm_correlate_fast_q31.c ****    * Stage1 process
 168:./Libraries/CMSIS/DSP/Source/FilteringFunctions/arm_correlate_fast_q31.c ****    * ----------------------*/
 169:./Libraries/CMSIS/DSP/Source/FilteringFunctions/arm_correlate_fast_q31.c **** 
 170:./Libraries/CMSIS/DSP/Source/FilteringFunctions/arm_correlate_fast_q31.c ****   /* The first stage starts here */
 171:./Libraries/CMSIS/DSP/Source/FilteringFunctions/arm_correlate_fast_q31.c ****   while (blockSize1 > 0U)
 157              		.loc 1 171 9
 158 010e 6CE1     		b	.L4
 159              	.L9:
 172:./Libraries/CMSIS/DSP/Source/FilteringFunctions/arm_correlate_fast_q31.c ****   {
 173:./Libraries/CMSIS/DSP/Source/FilteringFunctions/arm_correlate_fast_q31.c ****     /* Accumulator is made zero for every iteration */
 174:./Libraries/CMSIS/DSP/Source/FilteringFunctions/arm_correlate_fast_q31.c ****     sum = 0;
 160              		.loc 1 174 9
 161 0110 0023     		movs	r3, #0
 162 0112 C7F87431 		str	r3, [r7, #372]
 175:./Libraries/CMSIS/DSP/Source/FilteringFunctions/arm_correlate_fast_q31.c **** 
 176:./Libraries/CMSIS/DSP/Source/FilteringFunctions/arm_correlate_fast_q31.c ****     /* Apply loop unrolling and compute 4 MACs simultaneously. */
 177:./Libraries/CMSIS/DSP/Source/FilteringFunctions/arm_correlate_fast_q31.c ****     k = count >> 2U;
 163              		.loc 1 177 7
 164 0116 D7F84831 		ldr	r3, [r7, #328]
 165 011a 9B08     		lsrs	r3, r3, #2
 166 011c C7F84C31 		str	r3, [r7, #332]
ARM GAS  /tmp/ccwfDUN5.s 			page 7


 178:./Libraries/CMSIS/DSP/Source/FilteringFunctions/arm_correlate_fast_q31.c **** 
 179:./Libraries/CMSIS/DSP/Source/FilteringFunctions/arm_correlate_fast_q31.c ****     /* First part of the processing with loop unrolling.  Compute 4 MACs at a time.
 180:./Libraries/CMSIS/DSP/Source/FilteringFunctions/arm_correlate_fast_q31.c ****      ** a second loop below computes MACs for the remaining 1 to 3 samples. */
 181:./Libraries/CMSIS/DSP/Source/FilteringFunctions/arm_correlate_fast_q31.c ****     while (k > 0U)
 167              		.loc 1 181 11
 168 0120 EDE0     		b	.L5
 169              	.L6:
 182:./Libraries/CMSIS/DSP/Source/FilteringFunctions/arm_correlate_fast_q31.c ****     {
 183:./Libraries/CMSIS/DSP/Source/FilteringFunctions/arm_correlate_fast_q31.c ****       /* x[0] * y[srcBLen - 4] */
 184:./Libraries/CMSIS/DSP/Source/FilteringFunctions/arm_correlate_fast_q31.c ****       sum = (q31_t) ((((q63_t) sum << 32) +
 170              		.loc 1 184 24
 171 0122 D7F87431 		ldr	r3, [r7, #372]
 172 0126 1A46     		mov	r2, r3
 173 0128 4FEAE273 		asr	r3, r2, #31
 174              		.loc 1 184 36
 175 012c 4FF00008 		mov	r8, #0
 176 0130 4FF00009 		mov	r9, #0
 177 0134 9146     		mov	r9, r2
 178 0136 4FF00008 		mov	r8, #0
 185:./Libraries/CMSIS/DSP/Source/FilteringFunctions/arm_correlate_fast_q31.c ****                       ((q63_t) *px++ * (*py++))) >> 32);
 179              		.loc 1 185 35
 180 013a D7F88021 		ldr	r2, [r7, #384]
 181 013e 131D     		adds	r3, r2, #4
 182 0140 C7F88031 		str	r3, [r7, #384]
 183              		.loc 1 185 32
 184 0144 1368     		ldr	r3, [r2]
 185              		.loc 1 185 24
 186 0146 1C46     		mov	r4, r3
 187 0148 4FEAE475 		asr	r5, r4, #31
 188              		.loc 1 185 44
 189 014c D7F87C21 		ldr	r2, [r7, #380]
 190 0150 131D     		adds	r3, r2, #4
 191 0152 C7F87C31 		str	r3, [r7, #380]
 192              		.loc 1 185 41
 193 0156 1368     		ldr	r3, [r2]
 194 0158 1A46     		mov	r2, r3
 195 015a 4FEAE273 		asr	r3, r2, #31
 196              		.loc 1 185 38
 197 015e 02FB05F0 		mul	r0, r2, r5
 198 0162 04FB03F1 		mul	r1, r4, r3
 199 0166 0144     		add	r1, r1, r0
 200 0168 A4FB0223 		umull	r2, r3, r4, r2
 201 016c 1944     		add	r1, r1, r3
 202 016e 0B46     		mov	r3, r1
 184:./Libraries/CMSIS/DSP/Source/FilteringFunctions/arm_correlate_fast_q31.c ****                       ((q63_t) *px++ * (*py++))) >> 32);
 203              		.loc 1 184 43
 204 0170 18EB0201 		adds	r1, r8, r2
 205 0174 C7F81011 		str	r1, [r7, #272]
 206 0178 49EB0303 		adc	r3, r9, r3
 207 017c C7F81431 		str	r3, [r7, #276]
 208              		.loc 1 185 50
 209 0180 4FF00002 		mov	r2, #0
 210 0184 4FF00003 		mov	r3, #0
 211 0188 D7E94445 		ldrd	r4, [r7, #272]
 212 018c 2946     		mov	r1, r5
 213 018e 0A00     		movs	r2, r1
 214 0190 2946     		mov	r1, r5
ARM GAS  /tmp/ccwfDUN5.s 			page 8


 215 0192 CB17     		asrs	r3, r1, #31
 184:./Libraries/CMSIS/DSP/Source/FilteringFunctions/arm_correlate_fast_q31.c ****                       ((q63_t) *px++ * (*py++))) >> 32);
 216              		.loc 1 184 11
 217 0194 1346     		mov	r3, r2
 218 0196 C7F87431 		str	r3, [r7, #372]
 186:./Libraries/CMSIS/DSP/Source/FilteringFunctions/arm_correlate_fast_q31.c **** 
 187:./Libraries/CMSIS/DSP/Source/FilteringFunctions/arm_correlate_fast_q31.c ****       /* x[1] * y[srcBLen - 3] */
 188:./Libraries/CMSIS/DSP/Source/FilteringFunctions/arm_correlate_fast_q31.c ****       sum = (q31_t) ((((q63_t) sum << 32) +
 219              		.loc 1 188 24
 220 019a D7F87431 		ldr	r3, [r7, #372]
 221 019e 1A46     		mov	r2, r3
 222 01a0 4FEAE273 		asr	r3, r2, #31
 223              		.loc 1 188 36
 224 01a4 4FF00008 		mov	r8, #0
 225 01a8 4FF00009 		mov	r9, #0
 226 01ac 9146     		mov	r9, r2
 227 01ae 4FF00008 		mov	r8, #0
 189:./Libraries/CMSIS/DSP/Source/FilteringFunctions/arm_correlate_fast_q31.c ****                       ((q63_t) *px++ * (*py++))) >> 32);
 228              		.loc 1 189 35
 229 01b2 D7F88021 		ldr	r2, [r7, #384]
 230 01b6 131D     		adds	r3, r2, #4
 231 01b8 C7F88031 		str	r3, [r7, #384]
 232              		.loc 1 189 32
 233 01bc 1368     		ldr	r3, [r2]
 234              		.loc 1 189 24
 235 01be 1C46     		mov	r4, r3
 236 01c0 4FEAE475 		asr	r5, r4, #31
 237              		.loc 1 189 44
 238 01c4 D7F87C21 		ldr	r2, [r7, #380]
 239 01c8 131D     		adds	r3, r2, #4
 240 01ca C7F87C31 		str	r3, [r7, #380]
 241              		.loc 1 189 41
 242 01ce 1368     		ldr	r3, [r2]
 243 01d0 1A46     		mov	r2, r3
 244 01d2 4FEAE273 		asr	r3, r2, #31
 245              		.loc 1 189 38
 246 01d6 02FB05F0 		mul	r0, r2, r5
 247 01da 04FB03F1 		mul	r1, r4, r3
 248 01de 0144     		add	r1, r1, r0
 249 01e0 A4FB0223 		umull	r2, r3, r4, r2
 250 01e4 1944     		add	r1, r1, r3
 251 01e6 0B46     		mov	r3, r1
 188:./Libraries/CMSIS/DSP/Source/FilteringFunctions/arm_correlate_fast_q31.c ****                       ((q63_t) *px++ * (*py++))) >> 32);
 252              		.loc 1 188 43
 253 01e8 18EB0201 		adds	r1, r8, r2
 254 01ec C7F80811 		str	r1, [r7, #264]
 255 01f0 49EB0303 		adc	r3, r9, r3
 256 01f4 C7F80C31 		str	r3, [r7, #268]
 257              		.loc 1 189 50
 258 01f8 4FF00002 		mov	r2, #0
 259 01fc 4FF00003 		mov	r3, #0
 260 0200 D7E94245 		ldrd	r4, [r7, #264]
 261 0204 2946     		mov	r1, r5
 262 0206 0A00     		movs	r2, r1
 263 0208 2946     		mov	r1, r5
 264 020a CB17     		asrs	r3, r1, #31
 188:./Libraries/CMSIS/DSP/Source/FilteringFunctions/arm_correlate_fast_q31.c ****                       ((q63_t) *px++ * (*py++))) >> 32);
ARM GAS  /tmp/ccwfDUN5.s 			page 9


 265              		.loc 1 188 11
 266 020c 1346     		mov	r3, r2
 267 020e C7F87431 		str	r3, [r7, #372]
 190:./Libraries/CMSIS/DSP/Source/FilteringFunctions/arm_correlate_fast_q31.c **** 
 191:./Libraries/CMSIS/DSP/Source/FilteringFunctions/arm_correlate_fast_q31.c ****       /* x[2] * y[srcBLen - 2] */
 192:./Libraries/CMSIS/DSP/Source/FilteringFunctions/arm_correlate_fast_q31.c ****       sum = (q31_t) ((((q63_t) sum << 32) +
 268              		.loc 1 192 24
 269 0212 D7F87431 		ldr	r3, [r7, #372]
 270 0216 1A46     		mov	r2, r3
 271 0218 4FEAE273 		asr	r3, r2, #31
 272              		.loc 1 192 36
 273 021c 4FF00008 		mov	r8, #0
 274 0220 4FF00009 		mov	r9, #0
 275 0224 9146     		mov	r9, r2
 276 0226 4FF00008 		mov	r8, #0
 193:./Libraries/CMSIS/DSP/Source/FilteringFunctions/arm_correlate_fast_q31.c ****                       ((q63_t) *px++ * (*py++))) >> 32);
 277              		.loc 1 193 35
 278 022a D7F88021 		ldr	r2, [r7, #384]
 279 022e 131D     		adds	r3, r2, #4
 280 0230 C7F88031 		str	r3, [r7, #384]
 281              		.loc 1 193 32
 282 0234 1368     		ldr	r3, [r2]
 283              		.loc 1 193 24
 284 0236 1C46     		mov	r4, r3
 285 0238 4FEAE475 		asr	r5, r4, #31
 286              		.loc 1 193 44
 287 023c D7F87C21 		ldr	r2, [r7, #380]
 288 0240 131D     		adds	r3, r2, #4
 289 0242 C7F87C31 		str	r3, [r7, #380]
 290              		.loc 1 193 41
 291 0246 1368     		ldr	r3, [r2]
 292 0248 1A46     		mov	r2, r3
 293 024a 4FEAE273 		asr	r3, r2, #31
 294              		.loc 1 193 38
 295 024e 02FB05F0 		mul	r0, r2, r5
 296 0252 04FB03F1 		mul	r1, r4, r3
 297 0256 0144     		add	r1, r1, r0
 298 0258 A4FB0223 		umull	r2, r3, r4, r2
 299 025c 1944     		add	r1, r1, r3
 300 025e 0B46     		mov	r3, r1
 192:./Libraries/CMSIS/DSP/Source/FilteringFunctions/arm_correlate_fast_q31.c ****                       ((q63_t) *px++ * (*py++))) >> 32);
 301              		.loc 1 192 43
 302 0260 18EB0201 		adds	r1, r8, r2
 303 0264 C7F80011 		str	r1, [r7, #256]
 304 0268 49EB0303 		adc	r3, r9, r3
 305 026c C7F80431 		str	r3, [r7, #260]
 306              		.loc 1 193 50
 307 0270 4FF00002 		mov	r2, #0
 308 0274 4FF00003 		mov	r3, #0
 309 0278 D7E94045 		ldrd	r4, [r7, #256]
 310 027c 2946     		mov	r1, r5
 311 027e 0A00     		movs	r2, r1
 312 0280 2946     		mov	r1, r5
 313 0282 CB17     		asrs	r3, r1, #31
 192:./Libraries/CMSIS/DSP/Source/FilteringFunctions/arm_correlate_fast_q31.c ****                       ((q63_t) *px++ * (*py++))) >> 32);
 314              		.loc 1 192 11
 315 0284 1346     		mov	r3, r2
ARM GAS  /tmp/ccwfDUN5.s 			page 10


 316 0286 C7F87431 		str	r3, [r7, #372]
 194:./Libraries/CMSIS/DSP/Source/FilteringFunctions/arm_correlate_fast_q31.c **** 
 195:./Libraries/CMSIS/DSP/Source/FilteringFunctions/arm_correlate_fast_q31.c ****       /* x[3] * y[srcBLen - 1] */
 196:./Libraries/CMSIS/DSP/Source/FilteringFunctions/arm_correlate_fast_q31.c ****       sum = (q31_t) ((((q63_t) sum << 32) +
 317              		.loc 1 196 24
 318 028a D7F87431 		ldr	r3, [r7, #372]
 319 028e 1A46     		mov	r2, r3
 320 0290 4FEAE273 		asr	r3, r2, #31
 321              		.loc 1 196 36
 322 0294 4FF00008 		mov	r8, #0
 323 0298 4FF00009 		mov	r9, #0
 324 029c 9146     		mov	r9, r2
 325 029e 4FF00008 		mov	r8, #0
 197:./Libraries/CMSIS/DSP/Source/FilteringFunctions/arm_correlate_fast_q31.c ****                       ((q63_t) *px++ * (*py++))) >> 32);
 326              		.loc 1 197 35
 327 02a2 D7F88021 		ldr	r2, [r7, #384]
 328 02a6 131D     		adds	r3, r2, #4
 329 02a8 C7F88031 		str	r3, [r7, #384]
 330              		.loc 1 197 32
 331 02ac 1368     		ldr	r3, [r2]
 332              		.loc 1 197 24
 333 02ae 1C46     		mov	r4, r3
 334 02b0 4FEAE475 		asr	r5, r4, #31
 335              		.loc 1 197 44
 336 02b4 D7F87C21 		ldr	r2, [r7, #380]
 337 02b8 131D     		adds	r3, r2, #4
 338 02ba C7F87C31 		str	r3, [r7, #380]
 339              		.loc 1 197 41
 340 02be 1368     		ldr	r3, [r2]
 341 02c0 1A46     		mov	r2, r3
 342 02c2 4FEAE273 		asr	r3, r2, #31
 343              		.loc 1 197 38
 344 02c6 02FB05F0 		mul	r0, r2, r5
 345 02ca 04FB03F1 		mul	r1, r4, r3
 346 02ce 0144     		add	r1, r1, r0
 347 02d0 A4FB0223 		umull	r2, r3, r4, r2
 348 02d4 1944     		add	r1, r1, r3
 349 02d6 0B46     		mov	r3, r1
 196:./Libraries/CMSIS/DSP/Source/FilteringFunctions/arm_correlate_fast_q31.c ****                       ((q63_t) *px++ * (*py++))) >> 32);
 350              		.loc 1 196 43
 351 02d8 18EB020A 		adds	r10, r8, r2
 352 02dc 49EB030B 		adc	fp, r9, r3
 353              		.loc 1 197 50
 354 02e0 4FF00002 		mov	r2, #0
 355 02e4 4FF00003 		mov	r3, #0
 356 02e8 5A46     		mov	r2, fp
 357 02ea 4FEAEB73 		asr	r3, fp, #31
 196:./Libraries/CMSIS/DSP/Source/FilteringFunctions/arm_correlate_fast_q31.c ****                       ((q63_t) *px++ * (*py++))) >> 32);
 358              		.loc 1 196 11
 359 02ee 1346     		mov	r3, r2
 360 02f0 C7F87431 		str	r3, [r7, #372]
 198:./Libraries/CMSIS/DSP/Source/FilteringFunctions/arm_correlate_fast_q31.c **** 
 199:./Libraries/CMSIS/DSP/Source/FilteringFunctions/arm_correlate_fast_q31.c ****       /* Decrement loop counter */
 200:./Libraries/CMSIS/DSP/Source/FilteringFunctions/arm_correlate_fast_q31.c ****       k--;
 361              		.loc 1 200 8
 362 02f4 D7F84C31 		ldr	r3, [r7, #332]
 363 02f8 013B     		subs	r3, r3, #1
ARM GAS  /tmp/ccwfDUN5.s 			page 11


 364 02fa C7F84C31 		str	r3, [r7, #332]
 365              	.L5:
 181:./Libraries/CMSIS/DSP/Source/FilteringFunctions/arm_correlate_fast_q31.c ****     {
 366              		.loc 1 181 11
 367 02fe D7F84C31 		ldr	r3, [r7, #332]
 368 0302 002B     		cmp	r3, #0
 369 0304 7FF40DAF 		bne	.L6
 201:./Libraries/CMSIS/DSP/Source/FilteringFunctions/arm_correlate_fast_q31.c ****     }
 202:./Libraries/CMSIS/DSP/Source/FilteringFunctions/arm_correlate_fast_q31.c **** 
 203:./Libraries/CMSIS/DSP/Source/FilteringFunctions/arm_correlate_fast_q31.c ****     /* If the count is not a multiple of 4, compute any remaining MACs here.
 204:./Libraries/CMSIS/DSP/Source/FilteringFunctions/arm_correlate_fast_q31.c ****      ** No loop unrolling is used. */
 205:./Libraries/CMSIS/DSP/Source/FilteringFunctions/arm_correlate_fast_q31.c ****     k = count % 0x4U;
 370              		.loc 1 205 7
 371 0308 D7F84831 		ldr	r3, [r7, #328]
 372 030c 03F00303 		and	r3, r3, #3
 373 0310 C7F84C31 		str	r3, [r7, #332]
 206:./Libraries/CMSIS/DSP/Source/FilteringFunctions/arm_correlate_fast_q31.c **** 
 207:./Libraries/CMSIS/DSP/Source/FilteringFunctions/arm_correlate_fast_q31.c ****     while (k > 0U)
 374              		.loc 1 207 11
 375 0314 40E0     		b	.L7
 376              	.L8:
 208:./Libraries/CMSIS/DSP/Source/FilteringFunctions/arm_correlate_fast_q31.c ****     {
 209:./Libraries/CMSIS/DSP/Source/FilteringFunctions/arm_correlate_fast_q31.c ****       /* Perform the multiply-accumulate */
 210:./Libraries/CMSIS/DSP/Source/FilteringFunctions/arm_correlate_fast_q31.c ****       /* x[0] * y[srcBLen - 1] */
 211:./Libraries/CMSIS/DSP/Source/FilteringFunctions/arm_correlate_fast_q31.c ****       sum = (q31_t) ((((q63_t) sum << 32) +
 377              		.loc 1 211 24
 378 0316 D7F87431 		ldr	r3, [r7, #372]
 379 031a 1A46     		mov	r2, r3
 380 031c 4FEAE273 		asr	r3, r2, #31
 381              		.loc 1 211 36
 382 0320 4FF00008 		mov	r8, #0
 383 0324 4FF00009 		mov	r9, #0
 384 0328 9146     		mov	r9, r2
 385 032a 4FF00008 		mov	r8, #0
 212:./Libraries/CMSIS/DSP/Source/FilteringFunctions/arm_correlate_fast_q31.c ****                       ((q63_t) *px++ * (*py++))) >> 32);
 386              		.loc 1 212 35
 387 032e D7F88021 		ldr	r2, [r7, #384]
 388 0332 131D     		adds	r3, r2, #4
 389 0334 C7F88031 		str	r3, [r7, #384]
 390              		.loc 1 212 32
 391 0338 1368     		ldr	r3, [r2]
 392              		.loc 1 212 24
 393 033a 1C46     		mov	r4, r3
 394 033c 4FEAE475 		asr	r5, r4, #31
 395              		.loc 1 212 44
 396 0340 D7F87C21 		ldr	r2, [r7, #380]
 397 0344 131D     		adds	r3, r2, #4
 398 0346 C7F87C31 		str	r3, [r7, #380]
 399              		.loc 1 212 41
 400 034a 1368     		ldr	r3, [r2]
 401 034c 1A46     		mov	r2, r3
 402 034e 4FEAE273 		asr	r3, r2, #31
 403              		.loc 1 212 38
 404 0352 02FB05F0 		mul	r0, r2, r5
 405 0356 04FB03F1 		mul	r1, r4, r3
 406 035a 0144     		add	r1, r1, r0
 407 035c A4FB0223 		umull	r2, r3, r4, r2
ARM GAS  /tmp/ccwfDUN5.s 			page 12


 408 0360 1944     		add	r1, r1, r3
 409 0362 0B46     		mov	r3, r1
 211:./Libraries/CMSIS/DSP/Source/FilteringFunctions/arm_correlate_fast_q31.c ****                       ((q63_t) *px++ * (*py++))) >> 32);
 410              		.loc 1 211 43
 411 0364 18EB0201 		adds	r1, r8, r2
 412 0368 C7F8F810 		str	r1, [r7, #248]
 413 036c 49EB0303 		adc	r3, r9, r3
 414 0370 C7F8FC30 		str	r3, [r7, #252]
 415              		.loc 1 212 50
 416 0374 4FF00002 		mov	r2, #0
 417 0378 4FF00003 		mov	r3, #0
 418 037c D7E93E45 		ldrd	r4, [r7, #248]
 419 0380 2946     		mov	r1, r5
 420 0382 0A00     		movs	r2, r1
 421 0384 2946     		mov	r1, r5
 422 0386 CB17     		asrs	r3, r1, #31
 211:./Libraries/CMSIS/DSP/Source/FilteringFunctions/arm_correlate_fast_q31.c ****                       ((q63_t) *px++ * (*py++))) >> 32);
 423              		.loc 1 211 11
 424 0388 1346     		mov	r3, r2
 425 038a C7F87431 		str	r3, [r7, #372]
 213:./Libraries/CMSIS/DSP/Source/FilteringFunctions/arm_correlate_fast_q31.c **** 
 214:./Libraries/CMSIS/DSP/Source/FilteringFunctions/arm_correlate_fast_q31.c ****       /* Decrement loop counter */
 215:./Libraries/CMSIS/DSP/Source/FilteringFunctions/arm_correlate_fast_q31.c ****       k--;
 426              		.loc 1 215 8
 427 038e D7F84C31 		ldr	r3, [r7, #332]
 428 0392 013B     		subs	r3, r3, #1
 429 0394 C7F84C31 		str	r3, [r7, #332]
 430              	.L7:
 207:./Libraries/CMSIS/DSP/Source/FilteringFunctions/arm_correlate_fast_q31.c ****     {
 431              		.loc 1 207 11
 432 0398 D7F84C31 		ldr	r3, [r7, #332]
 433 039c 002B     		cmp	r3, #0
 434 039e BAD1     		bne	.L8
 216:./Libraries/CMSIS/DSP/Source/FilteringFunctions/arm_correlate_fast_q31.c ****     }
 217:./Libraries/CMSIS/DSP/Source/FilteringFunctions/arm_correlate_fast_q31.c **** 
 218:./Libraries/CMSIS/DSP/Source/FilteringFunctions/arm_correlate_fast_q31.c ****     /* Store the result in the accumulator in the destination buffer. */
 219:./Libraries/CMSIS/DSP/Source/FilteringFunctions/arm_correlate_fast_q31.c ****     *pOut = sum << 1;
 435              		.loc 1 219 17
 436 03a0 D7F87431 		ldr	r3, [r7, #372]
 437 03a4 5A00     		lsls	r2, r3, #1
 438              		.loc 1 219 11
 439 03a6 D7F88431 		ldr	r3, [r7, #388]
 440 03aa 1A60     		str	r2, [r3]
 220:./Libraries/CMSIS/DSP/Source/FilteringFunctions/arm_correlate_fast_q31.c ****     /* Destination pointer is updated according to the address modifier, inc */
 221:./Libraries/CMSIS/DSP/Source/FilteringFunctions/arm_correlate_fast_q31.c ****     pOut += inc;
 441              		.loc 1 221 10
 442 03ac D7F84031 		ldr	r3, [r7, #320]
 443 03b0 9A00     		lsls	r2, r3, #2
 444 03b2 D7F88431 		ldr	r3, [r7, #388]
 445 03b6 1344     		add	r3, r3, r2
 446 03b8 C7F88431 		str	r3, [r7, #388]
 222:./Libraries/CMSIS/DSP/Source/FilteringFunctions/arm_correlate_fast_q31.c **** 
 223:./Libraries/CMSIS/DSP/Source/FilteringFunctions/arm_correlate_fast_q31.c ****     /* Update the inputA and inputB pointers for next MAC calculation */
 224:./Libraries/CMSIS/DSP/Source/FilteringFunctions/arm_correlate_fast_q31.c ****     py = pSrc1 - count;
 447              		.loc 1 224 16
 448 03bc D7F84831 		ldr	r3, [r7, #328]
 449 03c0 9B00     		lsls	r3, r3, #2
ARM GAS  /tmp/ccwfDUN5.s 			page 13


 450 03c2 5A42     		rsbs	r2, r3, #0
 451              		.loc 1 224 8
 452 03c4 D7F87831 		ldr	r3, [r7, #376]
 453 03c8 1344     		add	r3, r3, r2
 454 03ca C7F87C31 		str	r3, [r7, #380]
 225:./Libraries/CMSIS/DSP/Source/FilteringFunctions/arm_correlate_fast_q31.c ****     px = pIn1;
 455              		.loc 1 225 8
 456 03ce D7F88C31 		ldr	r3, [r7, #396]
 457 03d2 C7F88031 		str	r3, [r7, #384]
 226:./Libraries/CMSIS/DSP/Source/FilteringFunctions/arm_correlate_fast_q31.c **** 
 227:./Libraries/CMSIS/DSP/Source/FilteringFunctions/arm_correlate_fast_q31.c ****     /* Increment MAC count */
 228:./Libraries/CMSIS/DSP/Source/FilteringFunctions/arm_correlate_fast_q31.c ****     count++;
 458              		.loc 1 228 10
 459 03d6 D7F84831 		ldr	r3, [r7, #328]
 460 03da 0133     		adds	r3, r3, #1
 461 03dc C7F84831 		str	r3, [r7, #328]
 229:./Libraries/CMSIS/DSP/Source/FilteringFunctions/arm_correlate_fast_q31.c **** 
 230:./Libraries/CMSIS/DSP/Source/FilteringFunctions/arm_correlate_fast_q31.c ****     /* Decrement loop counter */
 231:./Libraries/CMSIS/DSP/Source/FilteringFunctions/arm_correlate_fast_q31.c ****     blockSize1--;
 462              		.loc 1 231 15
 463 03e0 D7F85431 		ldr	r3, [r7, #340]
 464 03e4 013B     		subs	r3, r3, #1
 465 03e6 C7F85431 		str	r3, [r7, #340]
 466              	.L4:
 171:./Libraries/CMSIS/DSP/Source/FilteringFunctions/arm_correlate_fast_q31.c ****   {
 467              		.loc 1 171 9
 468 03ea D7F85431 		ldr	r3, [r7, #340]
 469 03ee 002B     		cmp	r3, #0
 470 03f0 7FF48EAE 		bne	.L9
 232:./Libraries/CMSIS/DSP/Source/FilteringFunctions/arm_correlate_fast_q31.c ****   }
 233:./Libraries/CMSIS/DSP/Source/FilteringFunctions/arm_correlate_fast_q31.c **** 
 234:./Libraries/CMSIS/DSP/Source/FilteringFunctions/arm_correlate_fast_q31.c ****   /* --------------------------
 235:./Libraries/CMSIS/DSP/Source/FilteringFunctions/arm_correlate_fast_q31.c ****    * Initializations of stage2
 236:./Libraries/CMSIS/DSP/Source/FilteringFunctions/arm_correlate_fast_q31.c ****    * ------------------------*/
 237:./Libraries/CMSIS/DSP/Source/FilteringFunctions/arm_correlate_fast_q31.c **** 
 238:./Libraries/CMSIS/DSP/Source/FilteringFunctions/arm_correlate_fast_q31.c ****   /* sum = x[0] * y[0] + x[1] * y[1] +...+ x[srcBLen-1] * y[srcBLen-1]
 239:./Libraries/CMSIS/DSP/Source/FilteringFunctions/arm_correlate_fast_q31.c ****    * sum = x[1] * y[0] + x[2] * y[1] +...+ x[srcBLen] * y[srcBLen-1]
 240:./Libraries/CMSIS/DSP/Source/FilteringFunctions/arm_correlate_fast_q31.c ****    * ....
 241:./Libraries/CMSIS/DSP/Source/FilteringFunctions/arm_correlate_fast_q31.c ****    * sum = x[srcALen-srcBLen-2] * y[0] + x[srcALen-srcBLen-1] * y[1] +...+ x[srcALen-1] * y[srcBLen
 242:./Libraries/CMSIS/DSP/Source/FilteringFunctions/arm_correlate_fast_q31.c ****    */
 243:./Libraries/CMSIS/DSP/Source/FilteringFunctions/arm_correlate_fast_q31.c **** 
 244:./Libraries/CMSIS/DSP/Source/FilteringFunctions/arm_correlate_fast_q31.c ****   /* Working pointer of inputA */
 245:./Libraries/CMSIS/DSP/Source/FilteringFunctions/arm_correlate_fast_q31.c ****   px = pIn1;
 471              		.loc 1 245 6
 472 03f4 D7F88C31 		ldr	r3, [r7, #396]
 473 03f8 C7F88031 		str	r3, [r7, #384]
 246:./Libraries/CMSIS/DSP/Source/FilteringFunctions/arm_correlate_fast_q31.c **** 
 247:./Libraries/CMSIS/DSP/Source/FilteringFunctions/arm_correlate_fast_q31.c ****   /* Working pointer of inputB */
 248:./Libraries/CMSIS/DSP/Source/FilteringFunctions/arm_correlate_fast_q31.c ****   py = pIn2;
 474              		.loc 1 248 6
 475 03fc D7F88831 		ldr	r3, [r7, #392]
 476 0400 C7F87C31 		str	r3, [r7, #380]
 249:./Libraries/CMSIS/DSP/Source/FilteringFunctions/arm_correlate_fast_q31.c **** 
 250:./Libraries/CMSIS/DSP/Source/FilteringFunctions/arm_correlate_fast_q31.c ****   /* count is index by which the pointer pIn1 to be incremented */
 251:./Libraries/CMSIS/DSP/Source/FilteringFunctions/arm_correlate_fast_q31.c ****   count = 0U;
 477              		.loc 1 251 9
 478 0404 0023     		movs	r3, #0
ARM GAS  /tmp/ccwfDUN5.s 			page 14


 479 0406 C7F84831 		str	r3, [r7, #328]
 252:./Libraries/CMSIS/DSP/Source/FilteringFunctions/arm_correlate_fast_q31.c **** 
 253:./Libraries/CMSIS/DSP/Source/FilteringFunctions/arm_correlate_fast_q31.c ****   /* -------------------
 254:./Libraries/CMSIS/DSP/Source/FilteringFunctions/arm_correlate_fast_q31.c ****    * Stage2 process
 255:./Libraries/CMSIS/DSP/Source/FilteringFunctions/arm_correlate_fast_q31.c ****    * ------------------*/
 256:./Libraries/CMSIS/DSP/Source/FilteringFunctions/arm_correlate_fast_q31.c **** 
 257:./Libraries/CMSIS/DSP/Source/FilteringFunctions/arm_correlate_fast_q31.c ****   /* Stage2 depends on srcBLen as in this stage srcBLen number of MACS are performed.
 258:./Libraries/CMSIS/DSP/Source/FilteringFunctions/arm_correlate_fast_q31.c ****    * So, to loop unroll over blockSize2,
 259:./Libraries/CMSIS/DSP/Source/FilteringFunctions/arm_correlate_fast_q31.c ****    * srcBLen should be greater than or equal to 4 */
 260:./Libraries/CMSIS/DSP/Source/FilteringFunctions/arm_correlate_fast_q31.c ****   if (srcBLen >= 4U)
 480              		.loc 1 260 6
 481 040a D7F81831 		ldr	r3, [r7, #280]
 482 040e 032B     		cmp	r3, #3
 483 0410 40F27986 		bls	.L10
 261:./Libraries/CMSIS/DSP/Source/FilteringFunctions/arm_correlate_fast_q31.c ****   {
 262:./Libraries/CMSIS/DSP/Source/FilteringFunctions/arm_correlate_fast_q31.c ****     /* Loop unroll over blockSize2, by 4 */
 263:./Libraries/CMSIS/DSP/Source/FilteringFunctions/arm_correlate_fast_q31.c ****     blkCnt = blockSize2 >> 2U;
 484              		.loc 1 263 12
 485 0414 D7F83431 		ldr	r3, [r7, #308]
 486 0418 9B08     		lsrs	r3, r3, #2
 487 041a C7F84431 		str	r3, [r7, #324]
 264:./Libraries/CMSIS/DSP/Source/FilteringFunctions/arm_correlate_fast_q31.c **** 
 265:./Libraries/CMSIS/DSP/Source/FilteringFunctions/arm_correlate_fast_q31.c ****     while (blkCnt > 0U)
 488              		.loc 1 265 11
 489 041e 00F0F7BC 		b	.L11
 490              	.L34:
 491 0422 00BF     		.align	2
 492              	.L33:
 493 0424 FEFFFF3F 		.word	1073741822
 494              	.L15:
 266:./Libraries/CMSIS/DSP/Source/FilteringFunctions/arm_correlate_fast_q31.c ****     {
 267:./Libraries/CMSIS/DSP/Source/FilteringFunctions/arm_correlate_fast_q31.c ****       /* Set all accumulators to zero */
 268:./Libraries/CMSIS/DSP/Source/FilteringFunctions/arm_correlate_fast_q31.c ****       acc0 = 0;
 495              		.loc 1 268 12
 496 0428 0023     		movs	r3, #0
 497 042a C7F87031 		str	r3, [r7, #368]
 269:./Libraries/CMSIS/DSP/Source/FilteringFunctions/arm_correlate_fast_q31.c ****       acc1 = 0;
 498              		.loc 1 269 12
 499 042e 0023     		movs	r3, #0
 500 0430 C7F86C31 		str	r3, [r7, #364]
 270:./Libraries/CMSIS/DSP/Source/FilteringFunctions/arm_correlate_fast_q31.c ****       acc2 = 0;
 501              		.loc 1 270 12
 502 0434 0023     		movs	r3, #0
 503 0436 C7F86831 		str	r3, [r7, #360]
 271:./Libraries/CMSIS/DSP/Source/FilteringFunctions/arm_correlate_fast_q31.c ****       acc3 = 0;
 504              		.loc 1 271 12
 505 043a 0023     		movs	r3, #0
 506 043c C7F86431 		str	r3, [r7, #356]
 272:./Libraries/CMSIS/DSP/Source/FilteringFunctions/arm_correlate_fast_q31.c **** 
 273:./Libraries/CMSIS/DSP/Source/FilteringFunctions/arm_correlate_fast_q31.c ****       /* read x[0], x[1], x[2] samples */
 274:./Libraries/CMSIS/DSP/Source/FilteringFunctions/arm_correlate_fast_q31.c ****       x0 = *px++;
 507              		.loc 1 274 15
 508 0440 D7F88021 		ldr	r2, [r7, #384]
 509 0444 131D     		adds	r3, r2, #4
 510 0446 C7F88031 		str	r3, [r7, #384]
 511              		.loc 1 274 10
 512 044a 1368     		ldr	r3, [r2]
ARM GAS  /tmp/ccwfDUN5.s 			page 15


 513 044c C7F86031 		str	r3, [r7, #352]
 275:./Libraries/CMSIS/DSP/Source/FilteringFunctions/arm_correlate_fast_q31.c ****       x1 = *px++;
 514              		.loc 1 275 15
 515 0450 D7F88021 		ldr	r2, [r7, #384]
 516 0454 131D     		adds	r3, r2, #4
 517 0456 C7F88031 		str	r3, [r7, #384]
 518              		.loc 1 275 10
 519 045a 1368     		ldr	r3, [r2]
 520 045c C7F85C31 		str	r3, [r7, #348]
 276:./Libraries/CMSIS/DSP/Source/FilteringFunctions/arm_correlate_fast_q31.c ****       x2 = *px++;
 521              		.loc 1 276 15
 522 0460 D7F88021 		ldr	r2, [r7, #384]
 523 0464 131D     		adds	r3, r2, #4
 524 0466 C7F88031 		str	r3, [r7, #384]
 525              		.loc 1 276 10
 526 046a 1368     		ldr	r3, [r2]
 527 046c C7F85831 		str	r3, [r7, #344]
 277:./Libraries/CMSIS/DSP/Source/FilteringFunctions/arm_correlate_fast_q31.c **** 
 278:./Libraries/CMSIS/DSP/Source/FilteringFunctions/arm_correlate_fast_q31.c ****       /* Apply loop unrolling and compute 4 MACs simultaneously. */
 279:./Libraries/CMSIS/DSP/Source/FilteringFunctions/arm_correlate_fast_q31.c ****       k = srcBLen >> 2U;
 528              		.loc 1 279 9
 529 0470 D7F81831 		ldr	r3, [r7, #280]
 530 0474 9B08     		lsrs	r3, r3, #2
 531 0476 C7F84C31 		str	r3, [r7, #332]
 532              	.L12:
 280:./Libraries/CMSIS/DSP/Source/FilteringFunctions/arm_correlate_fast_q31.c **** 
 281:./Libraries/CMSIS/DSP/Source/FilteringFunctions/arm_correlate_fast_q31.c ****       /* First part of the processing with loop unrolling.  Compute 4 MACs at a time.
 282:./Libraries/CMSIS/DSP/Source/FilteringFunctions/arm_correlate_fast_q31.c ****        ** a second loop below computes MACs for the remaining 1 to 3 samples. */
 283:./Libraries/CMSIS/DSP/Source/FilteringFunctions/arm_correlate_fast_q31.c ****       do
 284:./Libraries/CMSIS/DSP/Source/FilteringFunctions/arm_correlate_fast_q31.c ****       {
 285:./Libraries/CMSIS/DSP/Source/FilteringFunctions/arm_correlate_fast_q31.c ****         /* Read y[0] sample */
 286:./Libraries/CMSIS/DSP/Source/FilteringFunctions/arm_correlate_fast_q31.c ****         c0 = *py++;
 533              		.loc 1 286 17 discriminator 1
 534 047a D7F87C21 		ldr	r2, [r7, #380]
 535 047e 131D     		adds	r3, r2, #4
 536 0480 C7F87C31 		str	r3, [r7, #380]
 537              		.loc 1 286 12 discriminator 1
 538 0484 1368     		ldr	r3, [r2]
 539 0486 C7F83031 		str	r3, [r7, #304]
 287:./Libraries/CMSIS/DSP/Source/FilteringFunctions/arm_correlate_fast_q31.c ****         /* Read x[3] sample */
 288:./Libraries/CMSIS/DSP/Source/FilteringFunctions/arm_correlate_fast_q31.c ****         x3 = *px++;
 540              		.loc 1 288 17 discriminator 1
 541 048a D7F88021 		ldr	r2, [r7, #384]
 542 048e 131D     		adds	r3, r2, #4
 543 0490 C7F88031 		str	r3, [r7, #384]
 544              		.loc 1 288 12 discriminator 1
 545 0494 1368     		ldr	r3, [r2]
 546 0496 C7F82C31 		str	r3, [r7, #300]
 289:./Libraries/CMSIS/DSP/Source/FilteringFunctions/arm_correlate_fast_q31.c **** 
 290:./Libraries/CMSIS/DSP/Source/FilteringFunctions/arm_correlate_fast_q31.c ****         /* Perform the multiply-accumulate */
 291:./Libraries/CMSIS/DSP/Source/FilteringFunctions/arm_correlate_fast_q31.c ****         /* acc0 +=  x[0] * y[0] */
 292:./Libraries/CMSIS/DSP/Source/FilteringFunctions/arm_correlate_fast_q31.c ****         acc0 = (q31_t) ((((q63_t) acc0 << 32) + ((q63_t) x0 * c0)) >> 32);
 547              		.loc 1 292 27 discriminator 1
 548 049a D7F87031 		ldr	r3, [r7, #368]
 549 049e 1A46     		mov	r2, r3
 550 04a0 4FEAE273 		asr	r3, r2, #31
 551              		.loc 1 292 40 discriminator 1
ARM GAS  /tmp/ccwfDUN5.s 			page 16


 552 04a4 4FF00008 		mov	r8, #0
 553 04a8 4FF00009 		mov	r9, #0
 554 04ac 9146     		mov	r9, r2
 555 04ae 4FF00008 		mov	r8, #0
 556              		.loc 1 292 50 discriminator 1
 557 04b2 D7F86031 		ldr	r3, [r7, #352]
 558 04b6 1846     		mov	r0, r3
 559 04b8 4FEAE071 		asr	r1, r0, #31
 560              		.loc 1 292 61 discriminator 1
 561 04bc D7F83031 		ldr	r3, [r7, #304]
 562 04c0 1A46     		mov	r2, r3
 563 04c2 4FEAE273 		asr	r3, r2, #31
 564 04c6 02FB01F5 		mul	r5, r2, r1
 565 04ca 00FB03F4 		mul	r4, r0, r3
 566 04ce 2C44     		add	r4, r4, r5
 567 04d0 A0FB0223 		umull	r2, r3, r0, r2
 568 04d4 E118     		adds	r1, r4, r3
 569 04d6 0B46     		mov	r3, r1
 570              		.loc 1 292 47 discriminator 1
 571 04d8 18EB0201 		adds	r1, r8, r2
 572 04dc C7F8F010 		str	r1, [r7, #240]
 573 04e0 49EB0303 		adc	r3, r9, r3
 574 04e4 C7F8F430 		str	r3, [r7, #244]
 575              		.loc 1 292 68 discriminator 1
 576 04e8 4FF00002 		mov	r2, #0
 577 04ec 4FF00003 		mov	r3, #0
 578 04f0 D7E93C45 		ldrd	r4, [r7, #240]
 579 04f4 2946     		mov	r1, r5
 580 04f6 0A00     		movs	r2, r1
 581 04f8 2946     		mov	r1, r5
 582 04fa CB17     		asrs	r3, r1, #31
 583              		.loc 1 292 14 discriminator 1
 584 04fc 1346     		mov	r3, r2
 585 04fe C7F87031 		str	r3, [r7, #368]
 293:./Libraries/CMSIS/DSP/Source/FilteringFunctions/arm_correlate_fast_q31.c ****         /* acc1 +=  x[1] * y[0] */
 294:./Libraries/CMSIS/DSP/Source/FilteringFunctions/arm_correlate_fast_q31.c ****         acc1 = (q31_t) ((((q63_t) acc1 << 32) + ((q63_t) x1 * c0)) >> 32);
 586              		.loc 1 294 27 discriminator 1
 587 0502 D7F86C31 		ldr	r3, [r7, #364]
 588 0506 1A46     		mov	r2, r3
 589 0508 4FEAE273 		asr	r3, r2, #31
 590              		.loc 1 294 40 discriminator 1
 591 050c 4FF00008 		mov	r8, #0
 592 0510 4FF00009 		mov	r9, #0
 593 0514 9146     		mov	r9, r2
 594 0516 4FF00008 		mov	r8, #0
 595              		.loc 1 294 50 discriminator 1
 596 051a D7F85C31 		ldr	r3, [r7, #348]
 597 051e 1846     		mov	r0, r3
 598 0520 4FEAE071 		asr	r1, r0, #31
 599              		.loc 1 294 61 discriminator 1
 600 0524 D7F83031 		ldr	r3, [r7, #304]
 601 0528 1A46     		mov	r2, r3
 602 052a 4FEAE273 		asr	r3, r2, #31
 603 052e 02FB01F5 		mul	r5, r2, r1
 604 0532 00FB03F4 		mul	r4, r0, r3
 605 0536 2C44     		add	r4, r4, r5
 606 0538 A0FB0223 		umull	r2, r3, r0, r2
ARM GAS  /tmp/ccwfDUN5.s 			page 17


 607 053c E118     		adds	r1, r4, r3
 608 053e 0B46     		mov	r3, r1
 609              		.loc 1 294 47 discriminator 1
 610 0540 18EB0201 		adds	r1, r8, r2
 611 0544 C7F8E810 		str	r1, [r7, #232]
 612 0548 49EB0303 		adc	r3, r9, r3
 613 054c C7F8EC30 		str	r3, [r7, #236]
 614              		.loc 1 294 68 discriminator 1
 615 0550 4FF00002 		mov	r2, #0
 616 0554 4FF00003 		mov	r3, #0
 617 0558 D7E93A45 		ldrd	r4, [r7, #232]
 618 055c 2946     		mov	r1, r5
 619 055e 0A00     		movs	r2, r1
 620 0560 2946     		mov	r1, r5
 621 0562 CB17     		asrs	r3, r1, #31
 622              		.loc 1 294 14 discriminator 1
 623 0564 1346     		mov	r3, r2
 624 0566 C7F86C31 		str	r3, [r7, #364]
 295:./Libraries/CMSIS/DSP/Source/FilteringFunctions/arm_correlate_fast_q31.c ****         /* acc2 +=  x[2] * y[0] */
 296:./Libraries/CMSIS/DSP/Source/FilteringFunctions/arm_correlate_fast_q31.c ****         acc2 = (q31_t) ((((q63_t) acc2 << 32) + ((q63_t) x2 * c0)) >> 32);
 625              		.loc 1 296 27 discriminator 1
 626 056a D7F86831 		ldr	r3, [r7, #360]
 627 056e 1A46     		mov	r2, r3
 628 0570 4FEAE273 		asr	r3, r2, #31
 629              		.loc 1 296 40 discriminator 1
 630 0574 4FF00008 		mov	r8, #0
 631 0578 4FF00009 		mov	r9, #0
 632 057c 9146     		mov	r9, r2
 633 057e 4FF00008 		mov	r8, #0
 634              		.loc 1 296 50 discriminator 1
 635 0582 D7F85831 		ldr	r3, [r7, #344]
 636 0586 1846     		mov	r0, r3
 637 0588 4FEAE071 		asr	r1, r0, #31
 638              		.loc 1 296 61 discriminator 1
 639 058c D7F83031 		ldr	r3, [r7, #304]
 640 0590 1A46     		mov	r2, r3
 641 0592 4FEAE273 		asr	r3, r2, #31
 642 0596 02FB01F5 		mul	r5, r2, r1
 643 059a 00FB03F4 		mul	r4, r0, r3
 644 059e 2C44     		add	r4, r4, r5
 645 05a0 A0FB0223 		umull	r2, r3, r0, r2
 646 05a4 E118     		adds	r1, r4, r3
 647 05a6 0B46     		mov	r3, r1
 648              		.loc 1 296 47 discriminator 1
 649 05a8 18EB0201 		adds	r1, r8, r2
 650 05ac C7F8E010 		str	r1, [r7, #224]
 651 05b0 49EB0303 		adc	r3, r9, r3
 652 05b4 C7F8E430 		str	r3, [r7, #228]
 653              		.loc 1 296 68 discriminator 1
 654 05b8 4FF00002 		mov	r2, #0
 655 05bc 4FF00003 		mov	r3, #0
 656 05c0 D7E93845 		ldrd	r4, [r7, #224]
 657 05c4 2946     		mov	r1, r5
 658 05c6 0A00     		movs	r2, r1
 659 05c8 2946     		mov	r1, r5
 660 05ca CB17     		asrs	r3, r1, #31
 661              		.loc 1 296 14 discriminator 1
ARM GAS  /tmp/ccwfDUN5.s 			page 18


 662 05cc 1346     		mov	r3, r2
 663 05ce C7F86831 		str	r3, [r7, #360]
 297:./Libraries/CMSIS/DSP/Source/FilteringFunctions/arm_correlate_fast_q31.c ****         /* acc3 +=  x[3] * y[0] */
 298:./Libraries/CMSIS/DSP/Source/FilteringFunctions/arm_correlate_fast_q31.c ****         acc3 = (q31_t) ((((q63_t) acc3 << 32) + ((q63_t) x3 * c0)) >> 32);
 664              		.loc 1 298 27 discriminator 1
 665 05d2 D7F86431 		ldr	r3, [r7, #356]
 666 05d6 1A46     		mov	r2, r3
 667 05d8 4FEAE273 		asr	r3, r2, #31
 668              		.loc 1 298 40 discriminator 1
 669 05dc 4FF00008 		mov	r8, #0
 670 05e0 4FF00009 		mov	r9, #0
 671 05e4 9146     		mov	r9, r2
 672 05e6 4FF00008 		mov	r8, #0
 673              		.loc 1 298 50 discriminator 1
 674 05ea D7F82C31 		ldr	r3, [r7, #300]
 675 05ee 1846     		mov	r0, r3
 676 05f0 4FEAE071 		asr	r1, r0, #31
 677              		.loc 1 298 61 discriminator 1
 678 05f4 D7F83031 		ldr	r3, [r7, #304]
 679 05f8 1A46     		mov	r2, r3
 680 05fa 4FEAE273 		asr	r3, r2, #31
 681 05fe 02FB01F5 		mul	r5, r2, r1
 682 0602 00FB03F4 		mul	r4, r0, r3
 683 0606 2C44     		add	r4, r4, r5
 684 0608 A0FB0223 		umull	r2, r3, r0, r2
 685 060c E118     		adds	r1, r4, r3
 686 060e 0B46     		mov	r3, r1
 687              		.loc 1 298 47 discriminator 1
 688 0610 18EB0201 		adds	r1, r8, r2
 689 0614 C7F8D810 		str	r1, [r7, #216]
 690 0618 49EB0303 		adc	r3, r9, r3
 691 061c C7F8DC30 		str	r3, [r7, #220]
 692              		.loc 1 298 68 discriminator 1
 693 0620 4FF00002 		mov	r2, #0
 694 0624 4FF00003 		mov	r3, #0
 695 0628 D7E93645 		ldrd	r4, [r7, #216]
 696 062c 2946     		mov	r1, r5
 697 062e 0A00     		movs	r2, r1
 698 0630 2946     		mov	r1, r5
 699 0632 CB17     		asrs	r3, r1, #31
 700              		.loc 1 298 14 discriminator 1
 701 0634 1346     		mov	r3, r2
 702 0636 C7F86431 		str	r3, [r7, #356]
 299:./Libraries/CMSIS/DSP/Source/FilteringFunctions/arm_correlate_fast_q31.c **** 
 300:./Libraries/CMSIS/DSP/Source/FilteringFunctions/arm_correlate_fast_q31.c **** 
 301:./Libraries/CMSIS/DSP/Source/FilteringFunctions/arm_correlate_fast_q31.c ****         /* Read y[1] sample */
 302:./Libraries/CMSIS/DSP/Source/FilteringFunctions/arm_correlate_fast_q31.c ****         c0 = *py++;
 703              		.loc 1 302 17 discriminator 1
 704 063a D7F87C21 		ldr	r2, [r7, #380]
 705 063e 131D     		adds	r3, r2, #4
 706 0640 C7F87C31 		str	r3, [r7, #380]
 707              		.loc 1 302 12 discriminator 1
 708 0644 1368     		ldr	r3, [r2]
 709 0646 C7F83031 		str	r3, [r7, #304]
 303:./Libraries/CMSIS/DSP/Source/FilteringFunctions/arm_correlate_fast_q31.c ****         /* Read x[4] sample */
 304:./Libraries/CMSIS/DSP/Source/FilteringFunctions/arm_correlate_fast_q31.c ****         x0 = *px++;
 710              		.loc 1 304 17 discriminator 1
ARM GAS  /tmp/ccwfDUN5.s 			page 19


 711 064a D7F88021 		ldr	r2, [r7, #384]
 712 064e 131D     		adds	r3, r2, #4
 713 0650 C7F88031 		str	r3, [r7, #384]
 714              		.loc 1 304 12 discriminator 1
 715 0654 1368     		ldr	r3, [r2]
 716 0656 C7F86031 		str	r3, [r7, #352]
 305:./Libraries/CMSIS/DSP/Source/FilteringFunctions/arm_correlate_fast_q31.c **** 
 306:./Libraries/CMSIS/DSP/Source/FilteringFunctions/arm_correlate_fast_q31.c ****         /* Perform the multiply-accumulate */
 307:./Libraries/CMSIS/DSP/Source/FilteringFunctions/arm_correlate_fast_q31.c ****         /* acc0 +=  x[1] * y[1] */
 308:./Libraries/CMSIS/DSP/Source/FilteringFunctions/arm_correlate_fast_q31.c ****         acc0 = (q31_t) ((((q63_t) acc0 << 32) + ((q63_t) x1 * c0)) >> 32);
 717              		.loc 1 308 27 discriminator 1
 718 065a D7F87031 		ldr	r3, [r7, #368]
 719 065e 1A46     		mov	r2, r3
 720 0660 4FEAE273 		asr	r3, r2, #31
 721              		.loc 1 308 40 discriminator 1
 722 0664 4FF00008 		mov	r8, #0
 723 0668 4FF00009 		mov	r9, #0
 724 066c 9146     		mov	r9, r2
 725 066e 4FF00008 		mov	r8, #0
 726              		.loc 1 308 50 discriminator 1
 727 0672 D7F85C31 		ldr	r3, [r7, #348]
 728 0676 1846     		mov	r0, r3
 729 0678 4FEAE071 		asr	r1, r0, #31
 730              		.loc 1 308 61 discriminator 1
 731 067c D7F83031 		ldr	r3, [r7, #304]
 732 0680 1A46     		mov	r2, r3
 733 0682 4FEAE273 		asr	r3, r2, #31
 734 0686 02FB01F5 		mul	r5, r2, r1
 735 068a 00FB03F4 		mul	r4, r0, r3
 736 068e 2C44     		add	r4, r4, r5
 737 0690 A0FB0223 		umull	r2, r3, r0, r2
 738 0694 E118     		adds	r1, r4, r3
 739 0696 0B46     		mov	r3, r1
 740              		.loc 1 308 47 discriminator 1
 741 0698 18EB0201 		adds	r1, r8, r2
 742 069c C7F8D010 		str	r1, [r7, #208]
 743 06a0 49EB0303 		adc	r3, r9, r3
 744 06a4 C7F8D430 		str	r3, [r7, #212]
 745              		.loc 1 308 68 discriminator 1
 746 06a8 4FF00002 		mov	r2, #0
 747 06ac 4FF00003 		mov	r3, #0
 748 06b0 D7E93445 		ldrd	r4, [r7, #208]
 749 06b4 2946     		mov	r1, r5
 750 06b6 0A00     		movs	r2, r1
 751 06b8 2946     		mov	r1, r5
 752 06ba CB17     		asrs	r3, r1, #31
 753              		.loc 1 308 14 discriminator 1
 754 06bc 1346     		mov	r3, r2
 755 06be C7F87031 		str	r3, [r7, #368]
 309:./Libraries/CMSIS/DSP/Source/FilteringFunctions/arm_correlate_fast_q31.c ****         /* acc1 +=  x[2] * y[1] */
 310:./Libraries/CMSIS/DSP/Source/FilteringFunctions/arm_correlate_fast_q31.c ****         acc1 = (q31_t) ((((q63_t) acc1 << 32) + ((q63_t) x2 * c0)) >> 32);
 756              		.loc 1 310 27 discriminator 1
 757 06c2 D7F86C31 		ldr	r3, [r7, #364]
 758 06c6 1A46     		mov	r2, r3
 759 06c8 4FEAE273 		asr	r3, r2, #31
 760              		.loc 1 310 40 discriminator 1
 761 06cc 4FF00008 		mov	r8, #0
ARM GAS  /tmp/ccwfDUN5.s 			page 20


 762 06d0 4FF00009 		mov	r9, #0
 763 06d4 9146     		mov	r9, r2
 764 06d6 4FF00008 		mov	r8, #0
 765              		.loc 1 310 50 discriminator 1
 766 06da D7F85831 		ldr	r3, [r7, #344]
 767 06de 1846     		mov	r0, r3
 768 06e0 4FEAE071 		asr	r1, r0, #31
 769              		.loc 1 310 61 discriminator 1
 770 06e4 D7F83031 		ldr	r3, [r7, #304]
 771 06e8 1A46     		mov	r2, r3
 772 06ea 4FEAE273 		asr	r3, r2, #31
 773 06ee 02FB01F5 		mul	r5, r2, r1
 774 06f2 00FB03F4 		mul	r4, r0, r3
 775 06f6 2C44     		add	r4, r4, r5
 776 06f8 A0FB0223 		umull	r2, r3, r0, r2
 777 06fc E118     		adds	r1, r4, r3
 778 06fe 0B46     		mov	r3, r1
 779              		.loc 1 310 47 discriminator 1
 780 0700 18EB0201 		adds	r1, r8, r2
 781 0704 C7F8C810 		str	r1, [r7, #200]
 782 0708 49EB0303 		adc	r3, r9, r3
 783 070c C7F8CC30 		str	r3, [r7, #204]
 784              		.loc 1 310 68 discriminator 1
 785 0710 4FF00002 		mov	r2, #0
 786 0714 4FF00003 		mov	r3, #0
 787 0718 D7E93245 		ldrd	r4, [r7, #200]
 788 071c 2946     		mov	r1, r5
 789 071e 0A00     		movs	r2, r1
 790 0720 2946     		mov	r1, r5
 791 0722 CB17     		asrs	r3, r1, #31
 792              		.loc 1 310 14 discriminator 1
 793 0724 1346     		mov	r3, r2
 794 0726 C7F86C31 		str	r3, [r7, #364]
 311:./Libraries/CMSIS/DSP/Source/FilteringFunctions/arm_correlate_fast_q31.c ****         /* acc2 +=  x[3] * y[1] */
 312:./Libraries/CMSIS/DSP/Source/FilteringFunctions/arm_correlate_fast_q31.c ****         acc2 = (q31_t) ((((q63_t) acc2 << 32) + ((q63_t) x3 * c0)) >> 32);
 795              		.loc 1 312 27 discriminator 1
 796 072a D7F86831 		ldr	r3, [r7, #360]
 797 072e 1A46     		mov	r2, r3
 798 0730 4FEAE273 		asr	r3, r2, #31
 799              		.loc 1 312 40 discriminator 1
 800 0734 4FF00008 		mov	r8, #0
 801 0738 4FF00009 		mov	r9, #0
 802 073c 9146     		mov	r9, r2
 803 073e 4FF00008 		mov	r8, #0
 804              		.loc 1 312 50 discriminator 1
 805 0742 D7F82C31 		ldr	r3, [r7, #300]
 806 0746 1846     		mov	r0, r3
 807 0748 4FEAE071 		asr	r1, r0, #31
 808              		.loc 1 312 61 discriminator 1
 809 074c D7F83031 		ldr	r3, [r7, #304]
 810 0750 1A46     		mov	r2, r3
 811 0752 4FEAE273 		asr	r3, r2, #31
 812 0756 02FB01F5 		mul	r5, r2, r1
 813 075a 00FB03F4 		mul	r4, r0, r3
 814 075e 2C44     		add	r4, r4, r5
 815 0760 A0FB0223 		umull	r2, r3, r0, r2
 816 0764 E118     		adds	r1, r4, r3
ARM GAS  /tmp/ccwfDUN5.s 			page 21


 817 0766 0B46     		mov	r3, r1
 818              		.loc 1 312 47 discriminator 1
 819 0768 18EB0201 		adds	r1, r8, r2
 820 076c C7F8C010 		str	r1, [r7, #192]
 821 0770 49EB0303 		adc	r3, r9, r3
 822 0774 C7F8C430 		str	r3, [r7, #196]
 823              		.loc 1 312 68 discriminator 1
 824 0778 4FF00002 		mov	r2, #0
 825 077c 4FF00003 		mov	r3, #0
 826 0780 D7E93045 		ldrd	r4, [r7, #192]
 827 0784 2946     		mov	r1, r5
 828 0786 0A00     		movs	r2, r1
 829 0788 2946     		mov	r1, r5
 830 078a CB17     		asrs	r3, r1, #31
 831              		.loc 1 312 14 discriminator 1
 832 078c 1346     		mov	r3, r2
 833 078e C7F86831 		str	r3, [r7, #360]
 313:./Libraries/CMSIS/DSP/Source/FilteringFunctions/arm_correlate_fast_q31.c ****         /* acc3 +=  x[4] * y[1] */
 314:./Libraries/CMSIS/DSP/Source/FilteringFunctions/arm_correlate_fast_q31.c ****         acc3 = (q31_t) ((((q63_t) acc3 << 32) + ((q63_t) x0 * c0)) >> 32);
 834              		.loc 1 314 27 discriminator 1
 835 0792 D7F86431 		ldr	r3, [r7, #356]
 836 0796 1A46     		mov	r2, r3
 837 0798 4FEAE273 		asr	r3, r2, #31
 838              		.loc 1 314 40 discriminator 1
 839 079c 4FF00008 		mov	r8, #0
 840 07a0 4FF00009 		mov	r9, #0
 841 07a4 9146     		mov	r9, r2
 842 07a6 4FF00008 		mov	r8, #0
 843              		.loc 1 314 50 discriminator 1
 844 07aa D7F86031 		ldr	r3, [r7, #352]
 845 07ae 1846     		mov	r0, r3
 846 07b0 4FEAE071 		asr	r1, r0, #31
 847              		.loc 1 314 61 discriminator 1
 848 07b4 D7F83031 		ldr	r3, [r7, #304]
 849 07b8 1A46     		mov	r2, r3
 850 07ba 4FEAE273 		asr	r3, r2, #31
 851 07be 02FB01F5 		mul	r5, r2, r1
 852 07c2 00FB03F4 		mul	r4, r0, r3
 853 07c6 2C44     		add	r4, r4, r5
 854 07c8 A0FB0223 		umull	r2, r3, r0, r2
 855 07cc E118     		adds	r1, r4, r3
 856 07ce 0B46     		mov	r3, r1
 857              		.loc 1 314 47 discriminator 1
 858 07d0 18EB0201 		adds	r1, r8, r2
 859 07d4 C7F8B810 		str	r1, [r7, #184]
 860 07d8 49EB0303 		adc	r3, r9, r3
 861 07dc C7F8BC30 		str	r3, [r7, #188]
 862              		.loc 1 314 68 discriminator 1
 863 07e0 4FF00002 		mov	r2, #0
 864 07e4 4FF00003 		mov	r3, #0
 865 07e8 D7E92E45 		ldrd	r4, [r7, #184]
 866 07ec 2946     		mov	r1, r5
 867 07ee 0A00     		movs	r2, r1
 868 07f0 2946     		mov	r1, r5
 869 07f2 CB17     		asrs	r3, r1, #31
 870              		.loc 1 314 14 discriminator 1
 871 07f4 1346     		mov	r3, r2
ARM GAS  /tmp/ccwfDUN5.s 			page 22


 872 07f6 C7F86431 		str	r3, [r7, #356]
 315:./Libraries/CMSIS/DSP/Source/FilteringFunctions/arm_correlate_fast_q31.c **** 
 316:./Libraries/CMSIS/DSP/Source/FilteringFunctions/arm_correlate_fast_q31.c **** 
 317:./Libraries/CMSIS/DSP/Source/FilteringFunctions/arm_correlate_fast_q31.c ****         /* Read y[2] sample */
 318:./Libraries/CMSIS/DSP/Source/FilteringFunctions/arm_correlate_fast_q31.c ****         c0 = *py++;
 873              		.loc 1 318 17 discriminator 1
 874 07fa D7F87C21 		ldr	r2, [r7, #380]
 875 07fe 131D     		adds	r3, r2, #4
 876 0800 C7F87C31 		str	r3, [r7, #380]
 877              		.loc 1 318 12 discriminator 1
 878 0804 1368     		ldr	r3, [r2]
 879 0806 C7F83031 		str	r3, [r7, #304]
 319:./Libraries/CMSIS/DSP/Source/FilteringFunctions/arm_correlate_fast_q31.c ****         /* Read x[5] sample */
 320:./Libraries/CMSIS/DSP/Source/FilteringFunctions/arm_correlate_fast_q31.c ****         x1 = *px++;
 880              		.loc 1 320 17 discriminator 1
 881 080a D7F88021 		ldr	r2, [r7, #384]
 882 080e 131D     		adds	r3, r2, #4
 883 0810 C7F88031 		str	r3, [r7, #384]
 884              		.loc 1 320 12 discriminator 1
 885 0814 1368     		ldr	r3, [r2]
 886 0816 C7F85C31 		str	r3, [r7, #348]
 321:./Libraries/CMSIS/DSP/Source/FilteringFunctions/arm_correlate_fast_q31.c **** 
 322:./Libraries/CMSIS/DSP/Source/FilteringFunctions/arm_correlate_fast_q31.c ****         /* Perform the multiply-accumulates */
 323:./Libraries/CMSIS/DSP/Source/FilteringFunctions/arm_correlate_fast_q31.c ****         /* acc0 +=  x[2] * y[2] */
 324:./Libraries/CMSIS/DSP/Source/FilteringFunctions/arm_correlate_fast_q31.c ****         acc0 = (q31_t) ((((q63_t) acc0 << 32) + ((q63_t) x2 * c0)) >> 32);
 887              		.loc 1 324 27 discriminator 1
 888 081a D7F87031 		ldr	r3, [r7, #368]
 889 081e 1A46     		mov	r2, r3
 890 0820 4FEAE273 		asr	r3, r2, #31
 891              		.loc 1 324 40 discriminator 1
 892 0824 4FF00008 		mov	r8, #0
 893 0828 4FF00009 		mov	r9, #0
 894 082c 9146     		mov	r9, r2
 895 082e 4FF00008 		mov	r8, #0
 896              		.loc 1 324 50 discriminator 1
 897 0832 D7F85831 		ldr	r3, [r7, #344]
 898 0836 1846     		mov	r0, r3
 899 0838 4FEAE071 		asr	r1, r0, #31
 900              		.loc 1 324 61 discriminator 1
 901 083c D7F83031 		ldr	r3, [r7, #304]
 902 0840 1A46     		mov	r2, r3
 903 0842 4FEAE273 		asr	r3, r2, #31
 904 0846 02FB01F5 		mul	r5, r2, r1
 905 084a 00FB03F4 		mul	r4, r0, r3
 906 084e 2C44     		add	r4, r4, r5
 907 0850 A0FB0223 		umull	r2, r3, r0, r2
 908 0854 E118     		adds	r1, r4, r3
 909 0856 0B46     		mov	r3, r1
 910              		.loc 1 324 47 discriminator 1
 911 0858 18EB0201 		adds	r1, r8, r2
 912 085c C7F8B010 		str	r1, [r7, #176]
 913 0860 49EB0303 		adc	r3, r9, r3
 914 0864 C7F8B430 		str	r3, [r7, #180]
 915              		.loc 1 324 68 discriminator 1
 916 0868 4FF00002 		mov	r2, #0
 917 086c 4FF00003 		mov	r3, #0
 918 0870 D7E92C45 		ldrd	r4, [r7, #176]
ARM GAS  /tmp/ccwfDUN5.s 			page 23


 919 0874 2946     		mov	r1, r5
 920 0876 0A00     		movs	r2, r1
 921 0878 2946     		mov	r1, r5
 922 087a CB17     		asrs	r3, r1, #31
 923              		.loc 1 324 14 discriminator 1
 924 087c 1346     		mov	r3, r2
 925 087e C7F87031 		str	r3, [r7, #368]
 325:./Libraries/CMSIS/DSP/Source/FilteringFunctions/arm_correlate_fast_q31.c ****         /* acc1 +=  x[3] * y[2] */
 326:./Libraries/CMSIS/DSP/Source/FilteringFunctions/arm_correlate_fast_q31.c ****         acc1 = (q31_t) ((((q63_t) acc1 << 32) + ((q63_t) x3 * c0)) >> 32);
 926              		.loc 1 326 27 discriminator 1
 927 0882 D7F86C31 		ldr	r3, [r7, #364]
 928 0886 1A46     		mov	r2, r3
 929 0888 4FEAE273 		asr	r3, r2, #31
 930              		.loc 1 326 40 discriminator 1
 931 088c 4FF00008 		mov	r8, #0
 932 0890 4FF00009 		mov	r9, #0
 933 0894 9146     		mov	r9, r2
 934 0896 4FF00008 		mov	r8, #0
 935              		.loc 1 326 50 discriminator 1
 936 089a D7F82C31 		ldr	r3, [r7, #300]
 937 089e 1846     		mov	r0, r3
 938 08a0 4FEAE071 		asr	r1, r0, #31
 939              		.loc 1 326 61 discriminator 1
 940 08a4 D7F83031 		ldr	r3, [r7, #304]
 941 08a8 1A46     		mov	r2, r3
 942 08aa 4FEAE273 		asr	r3, r2, #31
 943 08ae 02FB01F5 		mul	r5, r2, r1
 944 08b2 00FB03F4 		mul	r4, r0, r3
 945 08b6 2C44     		add	r4, r4, r5
 946 08b8 A0FB0223 		umull	r2, r3, r0, r2
 947 08bc E118     		adds	r1, r4, r3
 948 08be 0B46     		mov	r3, r1
 949              		.loc 1 326 47 discriminator 1
 950 08c0 18EB0201 		adds	r1, r8, r2
 951 08c4 C7F8A810 		str	r1, [r7, #168]
 952 08c8 49EB0303 		adc	r3, r9, r3
 953 08cc C7F8AC30 		str	r3, [r7, #172]
 954              		.loc 1 326 68 discriminator 1
 955 08d0 4FF00002 		mov	r2, #0
 956 08d4 4FF00003 		mov	r3, #0
 957 08d8 D7E92A45 		ldrd	r4, [r7, #168]
 958 08dc 2946     		mov	r1, r5
 959 08de 0A00     		movs	r2, r1
 960 08e0 2946     		mov	r1, r5
 961 08e2 CB17     		asrs	r3, r1, #31
 962              		.loc 1 326 14 discriminator 1
 963 08e4 1346     		mov	r3, r2
 964 08e6 C7F86C31 		str	r3, [r7, #364]
 327:./Libraries/CMSIS/DSP/Source/FilteringFunctions/arm_correlate_fast_q31.c ****         /* acc2 +=  x[4] * y[2] */
 328:./Libraries/CMSIS/DSP/Source/FilteringFunctions/arm_correlate_fast_q31.c ****         acc2 = (q31_t) ((((q63_t) acc2 << 32) + ((q63_t) x0 * c0)) >> 32);
 965              		.loc 1 328 27 discriminator 1
 966 08ea D7F86831 		ldr	r3, [r7, #360]
 967 08ee 1A46     		mov	r2, r3
 968 08f0 4FEAE273 		asr	r3, r2, #31
 969              		.loc 1 328 40 discriminator 1
 970 08f4 4FF00008 		mov	r8, #0
 971 08f8 4FF00009 		mov	r9, #0
ARM GAS  /tmp/ccwfDUN5.s 			page 24


 972 08fc 9146     		mov	r9, r2
 973 08fe 4FF00008 		mov	r8, #0
 974              		.loc 1 328 50 discriminator 1
 975 0902 D7F86031 		ldr	r3, [r7, #352]
 976 0906 1846     		mov	r0, r3
 977 0908 4FEAE071 		asr	r1, r0, #31
 978              		.loc 1 328 61 discriminator 1
 979 090c D7F83031 		ldr	r3, [r7, #304]
 980 0910 1A46     		mov	r2, r3
 981 0912 4FEAE273 		asr	r3, r2, #31
 982 0916 02FB01F5 		mul	r5, r2, r1
 983 091a 00FB03F4 		mul	r4, r0, r3
 984 091e 2C44     		add	r4, r4, r5
 985 0920 A0FB0223 		umull	r2, r3, r0, r2
 986 0924 E118     		adds	r1, r4, r3
 987 0926 0B46     		mov	r3, r1
 988              		.loc 1 328 47 discriminator 1
 989 0928 18EB0201 		adds	r1, r8, r2
 990 092c C7F8A010 		str	r1, [r7, #160]
 991 0930 49EB0303 		adc	r3, r9, r3
 992 0934 C7F8A430 		str	r3, [r7, #164]
 993              		.loc 1 328 68 discriminator 1
 994 0938 4FF00002 		mov	r2, #0
 995 093c 4FF00003 		mov	r3, #0
 996 0940 D7E92845 		ldrd	r4, [r7, #160]
 997 0944 2946     		mov	r1, r5
 998 0946 0A00     		movs	r2, r1
 999 0948 2946     		mov	r1, r5
 1000 094a CB17     		asrs	r3, r1, #31
 1001              		.loc 1 328 14 discriminator 1
 1002 094c 1346     		mov	r3, r2
 1003 094e C7F86831 		str	r3, [r7, #360]
 329:./Libraries/CMSIS/DSP/Source/FilteringFunctions/arm_correlate_fast_q31.c ****         /* acc3 +=  x[5] * y[2] */
 330:./Libraries/CMSIS/DSP/Source/FilteringFunctions/arm_correlate_fast_q31.c ****         acc3 = (q31_t) ((((q63_t) acc3 << 32) + ((q63_t) x1 * c0)) >> 32);
 1004              		.loc 1 330 27 discriminator 1
 1005 0952 D7F86431 		ldr	r3, [r7, #356]
 1006 0956 1A46     		mov	r2, r3
 1007 0958 4FEAE273 		asr	r3, r2, #31
 1008              		.loc 1 330 40 discriminator 1
 1009 095c 4FF00008 		mov	r8, #0
 1010 0960 4FF00009 		mov	r9, #0
 1011 0964 9146     		mov	r9, r2
 1012 0966 4FF00008 		mov	r8, #0
 1013              		.loc 1 330 50 discriminator 1
 1014 096a D7F85C31 		ldr	r3, [r7, #348]
 1015 096e 1846     		mov	r0, r3
 1016 0970 4FEAE071 		asr	r1, r0, #31
 1017              		.loc 1 330 61 discriminator 1
 1018 0974 D7F83031 		ldr	r3, [r7, #304]
 1019 0978 1A46     		mov	r2, r3
 1020 097a 4FEAE273 		asr	r3, r2, #31
 1021 097e 02FB01F5 		mul	r5, r2, r1
 1022 0982 00FB03F4 		mul	r4, r0, r3
 1023 0986 2C44     		add	r4, r4, r5
 1024 0988 A0FB0223 		umull	r2, r3, r0, r2
 1025 098c E118     		adds	r1, r4, r3
 1026 098e 0B46     		mov	r3, r1
ARM GAS  /tmp/ccwfDUN5.s 			page 25


 1027              		.loc 1 330 47 discriminator 1
 1028 0990 18EB0201 		adds	r1, r8, r2
 1029 0994 C7F89810 		str	r1, [r7, #152]
 1030 0998 49EB0303 		adc	r3, r9, r3
 1031 099c C7F89C30 		str	r3, [r7, #156]
 1032              		.loc 1 330 68 discriminator 1
 1033 09a0 4FF00002 		mov	r2, #0
 1034 09a4 4FF00003 		mov	r3, #0
 1035 09a8 D7E92645 		ldrd	r4, [r7, #152]
 1036 09ac 2946     		mov	r1, r5
 1037 09ae 0A00     		movs	r2, r1
 1038 09b0 2946     		mov	r1, r5
 1039 09b2 CB17     		asrs	r3, r1, #31
 1040              		.loc 1 330 14 discriminator 1
 1041 09b4 1346     		mov	r3, r2
 1042 09b6 C7F86431 		str	r3, [r7, #356]
 331:./Libraries/CMSIS/DSP/Source/FilteringFunctions/arm_correlate_fast_q31.c **** 
 332:./Libraries/CMSIS/DSP/Source/FilteringFunctions/arm_correlate_fast_q31.c **** 
 333:./Libraries/CMSIS/DSP/Source/FilteringFunctions/arm_correlate_fast_q31.c ****         /* Read y[3] sample */
 334:./Libraries/CMSIS/DSP/Source/FilteringFunctions/arm_correlate_fast_q31.c ****         c0 = *py++;
 1043              		.loc 1 334 17 discriminator 1
 1044 09ba D7F87C21 		ldr	r2, [r7, #380]
 1045 09be 131D     		adds	r3, r2, #4
 1046 09c0 C7F87C31 		str	r3, [r7, #380]
 1047              		.loc 1 334 12 discriminator 1
 1048 09c4 1368     		ldr	r3, [r2]
 1049 09c6 C7F83031 		str	r3, [r7, #304]
 335:./Libraries/CMSIS/DSP/Source/FilteringFunctions/arm_correlate_fast_q31.c ****         /* Read x[6] sample */
 336:./Libraries/CMSIS/DSP/Source/FilteringFunctions/arm_correlate_fast_q31.c ****         x2 = *px++;
 1050              		.loc 1 336 17 discriminator 1
 1051 09ca D7F88021 		ldr	r2, [r7, #384]
 1052 09ce 131D     		adds	r3, r2, #4
 1053 09d0 C7F88031 		str	r3, [r7, #384]
 1054              		.loc 1 336 12 discriminator 1
 1055 09d4 1368     		ldr	r3, [r2]
 1056 09d6 C7F85831 		str	r3, [r7, #344]
 337:./Libraries/CMSIS/DSP/Source/FilteringFunctions/arm_correlate_fast_q31.c **** 
 338:./Libraries/CMSIS/DSP/Source/FilteringFunctions/arm_correlate_fast_q31.c ****         /* Perform the multiply-accumulates */
 339:./Libraries/CMSIS/DSP/Source/FilteringFunctions/arm_correlate_fast_q31.c ****         /* acc0 +=  x[3] * y[3] */
 340:./Libraries/CMSIS/DSP/Source/FilteringFunctions/arm_correlate_fast_q31.c ****         acc0 = (q31_t) ((((q63_t) acc0 << 32) + ((q63_t) x3 * c0)) >> 32);
 1057              		.loc 1 340 27 discriminator 1
 1058 09da D7F87031 		ldr	r3, [r7, #368]
 1059 09de 1A46     		mov	r2, r3
 1060 09e0 4FEAE273 		asr	r3, r2, #31
 1061              		.loc 1 340 40 discriminator 1
 1062 09e4 4FF00008 		mov	r8, #0
 1063 09e8 4FF00009 		mov	r9, #0
 1064 09ec 9146     		mov	r9, r2
 1065 09ee 4FF00008 		mov	r8, #0
 1066              		.loc 1 340 50 discriminator 1
 1067 09f2 D7F82C31 		ldr	r3, [r7, #300]
 1068 09f6 1846     		mov	r0, r3
 1069 09f8 4FEAE071 		asr	r1, r0, #31
 1070              		.loc 1 340 61 discriminator 1
 1071 09fc D7F83031 		ldr	r3, [r7, #304]
 1072 0a00 1A46     		mov	r2, r3
 1073 0a02 4FEAE273 		asr	r3, r2, #31
ARM GAS  /tmp/ccwfDUN5.s 			page 26


 1074 0a06 02FB01F5 		mul	r5, r2, r1
 1075 0a0a 00FB03F4 		mul	r4, r0, r3
 1076 0a0e 2C44     		add	r4, r4, r5
 1077 0a10 A0FB0223 		umull	r2, r3, r0, r2
 1078 0a14 E118     		adds	r1, r4, r3
 1079 0a16 0B46     		mov	r3, r1
 1080              		.loc 1 340 47 discriminator 1
 1081 0a18 18EB0201 		adds	r1, r8, r2
 1082 0a1c C7F89010 		str	r1, [r7, #144]
 1083 0a20 49EB0303 		adc	r3, r9, r3
 1084 0a24 C7F89430 		str	r3, [r7, #148]
 1085              		.loc 1 340 68 discriminator 1
 1086 0a28 4FF00002 		mov	r2, #0
 1087 0a2c 4FF00003 		mov	r3, #0
 1088 0a30 D7E92445 		ldrd	r4, [r7, #144]
 1089 0a34 2946     		mov	r1, r5
 1090 0a36 0A00     		movs	r2, r1
 1091 0a38 2946     		mov	r1, r5
 1092 0a3a CB17     		asrs	r3, r1, #31
 1093              		.loc 1 340 14 discriminator 1
 1094 0a3c 1346     		mov	r3, r2
 1095 0a3e C7F87031 		str	r3, [r7, #368]
 341:./Libraries/CMSIS/DSP/Source/FilteringFunctions/arm_correlate_fast_q31.c ****         /* acc1 +=  x[4] * y[3] */
 342:./Libraries/CMSIS/DSP/Source/FilteringFunctions/arm_correlate_fast_q31.c ****         acc1 = (q31_t) ((((q63_t) acc1 << 32) + ((q63_t) x0 * c0)) >> 32);
 1096              		.loc 1 342 27 discriminator 1
 1097 0a42 D7F86C31 		ldr	r3, [r7, #364]
 1098 0a46 1A46     		mov	r2, r3
 1099 0a48 4FEAE273 		asr	r3, r2, #31
 1100              		.loc 1 342 40 discriminator 1
 1101 0a4c 4FF00008 		mov	r8, #0
 1102 0a50 4FF00009 		mov	r9, #0
 1103 0a54 9146     		mov	r9, r2
 1104 0a56 4FF00008 		mov	r8, #0
 1105              		.loc 1 342 50 discriminator 1
 1106 0a5a D7F86031 		ldr	r3, [r7, #352]
 1107 0a5e 1846     		mov	r0, r3
 1108 0a60 4FEAE071 		asr	r1, r0, #31
 1109              		.loc 1 342 61 discriminator 1
 1110 0a64 D7F83031 		ldr	r3, [r7, #304]
 1111 0a68 1A46     		mov	r2, r3
 1112 0a6a 4FEAE273 		asr	r3, r2, #31
 1113 0a6e 02FB01F5 		mul	r5, r2, r1
 1114 0a72 00FB03F4 		mul	r4, r0, r3
 1115 0a76 2C44     		add	r4, r4, r5
 1116 0a78 A0FB0223 		umull	r2, r3, r0, r2
 1117 0a7c E118     		adds	r1, r4, r3
 1118 0a7e 0B46     		mov	r3, r1
 1119              		.loc 1 342 47 discriminator 1
 1120 0a80 18EB0201 		adds	r1, r8, r2
 1121 0a84 C7F88810 		str	r1, [r7, #136]
 1122 0a88 49EB0303 		adc	r3, r9, r3
 1123 0a8c C7F88C30 		str	r3, [r7, #140]
 1124              		.loc 1 342 68 discriminator 1
 1125 0a90 4FF00002 		mov	r2, #0
 1126 0a94 4FF00003 		mov	r3, #0
 1127 0a98 D7E92245 		ldrd	r4, [r7, #136]
 1128 0a9c 2946     		mov	r1, r5
ARM GAS  /tmp/ccwfDUN5.s 			page 27


 1129 0a9e 0A00     		movs	r2, r1
 1130 0aa0 2946     		mov	r1, r5
 1131 0aa2 CB17     		asrs	r3, r1, #31
 1132              		.loc 1 342 14 discriminator 1
 1133 0aa4 1346     		mov	r3, r2
 1134 0aa6 C7F86C31 		str	r3, [r7, #364]
 343:./Libraries/CMSIS/DSP/Source/FilteringFunctions/arm_correlate_fast_q31.c ****         /* acc2 +=  x[5] * y[3] */
 344:./Libraries/CMSIS/DSP/Source/FilteringFunctions/arm_correlate_fast_q31.c ****         acc2 = (q31_t) ((((q63_t) acc2 << 32) + ((q63_t) x1 * c0)) >> 32);
 1135              		.loc 1 344 27 discriminator 1
 1136 0aaa D7F86831 		ldr	r3, [r7, #360]
 1137 0aae 1A46     		mov	r2, r3
 1138 0ab0 4FEAE273 		asr	r3, r2, #31
 1139              		.loc 1 344 40 discriminator 1
 1140 0ab4 4FF00008 		mov	r8, #0
 1141 0ab8 4FF00009 		mov	r9, #0
 1142 0abc 9146     		mov	r9, r2
 1143 0abe 4FF00008 		mov	r8, #0
 1144              		.loc 1 344 50 discriminator 1
 1145 0ac2 D7F85C31 		ldr	r3, [r7, #348]
 1146 0ac6 1846     		mov	r0, r3
 1147 0ac8 4FEAE071 		asr	r1, r0, #31
 1148              		.loc 1 344 61 discriminator 1
 1149 0acc D7F83031 		ldr	r3, [r7, #304]
 1150 0ad0 1A46     		mov	r2, r3
 1151 0ad2 4FEAE273 		asr	r3, r2, #31
 1152 0ad6 02FB01F5 		mul	r5, r2, r1
 1153 0ada 00FB03F4 		mul	r4, r0, r3
 1154 0ade 2C44     		add	r4, r4, r5
 1155 0ae0 A0FB0223 		umull	r2, r3, r0, r2
 1156 0ae4 E118     		adds	r1, r4, r3
 1157 0ae6 0B46     		mov	r3, r1
 1158              		.loc 1 344 47 discriminator 1
 1159 0ae8 18EB0201 		adds	r1, r8, r2
 1160 0aec C7F88010 		str	r1, [r7, #128]
 1161 0af0 49EB0303 		adc	r3, r9, r3
 1162 0af4 C7F88430 		str	r3, [r7, #132]
 1163              		.loc 1 344 68 discriminator 1
 1164 0af8 4FF00002 		mov	r2, #0
 1165 0afc 4FF00003 		mov	r3, #0
 1166 0b00 D7E92045 		ldrd	r4, [r7, #128]
 1167 0b04 2946     		mov	r1, r5
 1168 0b06 0A00     		movs	r2, r1
 1169 0b08 2946     		mov	r1, r5
 1170 0b0a CB17     		asrs	r3, r1, #31
 1171              		.loc 1 344 14 discriminator 1
 1172 0b0c 1346     		mov	r3, r2
 1173 0b0e C7F86831 		str	r3, [r7, #360]
 345:./Libraries/CMSIS/DSP/Source/FilteringFunctions/arm_correlate_fast_q31.c ****         /* acc3 +=  x[6] * y[3] */
 346:./Libraries/CMSIS/DSP/Source/FilteringFunctions/arm_correlate_fast_q31.c ****         acc3 = (q31_t) ((((q63_t) acc3 << 32) + ((q63_t) x2 * c0)) >> 32);
 1174              		.loc 1 346 27 discriminator 1
 1175 0b12 D7F86431 		ldr	r3, [r7, #356]
 1176 0b16 1A46     		mov	r2, r3
 1177 0b18 4FEAE273 		asr	r3, r2, #31
 1178              		.loc 1 346 40 discriminator 1
 1179 0b1c 4FF00008 		mov	r8, #0
 1180 0b20 4FF00009 		mov	r9, #0
 1181 0b24 9146     		mov	r9, r2
ARM GAS  /tmp/ccwfDUN5.s 			page 28


 1182 0b26 4FF00008 		mov	r8, #0
 1183              		.loc 1 346 50 discriminator 1
 1184 0b2a D7F85831 		ldr	r3, [r7, #344]
 1185 0b2e 1846     		mov	r0, r3
 1186 0b30 4FEAE071 		asr	r1, r0, #31
 1187              		.loc 1 346 61 discriminator 1
 1188 0b34 D7F83031 		ldr	r3, [r7, #304]
 1189 0b38 1A46     		mov	r2, r3
 1190 0b3a 4FEAE273 		asr	r3, r2, #31
 1191 0b3e 02FB01F5 		mul	r5, r2, r1
 1192 0b42 00FB03F4 		mul	r4, r0, r3
 1193 0b46 2C44     		add	r4, r4, r5
 1194 0b48 A0FB0223 		umull	r2, r3, r0, r2
 1195 0b4c E118     		adds	r1, r4, r3
 1196 0b4e 0B46     		mov	r3, r1
 1197              		.loc 1 346 47 discriminator 1
 1198 0b50 18EB0201 		adds	r1, r8, r2
 1199 0b54 B967     		str	r1, [r7, #120]
 1200 0b56 49EB0303 		adc	r3, r9, r3
 1201 0b5a FB67     		str	r3, [r7, #124]
 1202              		.loc 1 346 68 discriminator 1
 1203 0b5c 4FF00002 		mov	r2, #0
 1204 0b60 4FF00003 		mov	r3, #0
 1205 0b64 D7E91E45 		ldrd	r4, [r7, #120]
 1206 0b68 2946     		mov	r1, r5
 1207 0b6a 0A00     		movs	r2, r1
 1208 0b6c 2946     		mov	r1, r5
 1209 0b6e CB17     		asrs	r3, r1, #31
 1210              		.loc 1 346 14 discriminator 1
 1211 0b70 1346     		mov	r3, r2
 1212 0b72 C7F86431 		str	r3, [r7, #356]
 347:./Libraries/CMSIS/DSP/Source/FilteringFunctions/arm_correlate_fast_q31.c **** 
 348:./Libraries/CMSIS/DSP/Source/FilteringFunctions/arm_correlate_fast_q31.c **** 
 349:./Libraries/CMSIS/DSP/Source/FilteringFunctions/arm_correlate_fast_q31.c ****       } while (--k);
 1213              		.loc 1 349 7 discriminator 1
 1214 0b76 D7F84C31 		ldr	r3, [r7, #332]
 1215 0b7a 013B     		subs	r3, r3, #1
 1216 0b7c C7F84C31 		str	r3, [r7, #332]
 1217 0b80 D7F84C31 		ldr	r3, [r7, #332]
 1218 0b84 002B     		cmp	r3, #0
 1219 0b86 7FF478AC 		bne	.L12
 350:./Libraries/CMSIS/DSP/Source/FilteringFunctions/arm_correlate_fast_q31.c **** 
 351:./Libraries/CMSIS/DSP/Source/FilteringFunctions/arm_correlate_fast_q31.c ****       /* If the srcBLen is not a multiple of 4, compute any remaining MACs here.
 352:./Libraries/CMSIS/DSP/Source/FilteringFunctions/arm_correlate_fast_q31.c ****        ** No loop unrolling is used. */
 353:./Libraries/CMSIS/DSP/Source/FilteringFunctions/arm_correlate_fast_q31.c ****       k = srcBLen % 0x4U;
 1220              		.loc 1 353 9
 1221 0b8a D7F81831 		ldr	r3, [r7, #280]
 1222 0b8e 03F00303 		and	r3, r3, #3
 1223 0b92 C7F84C31 		str	r3, [r7, #332]
 354:./Libraries/CMSIS/DSP/Source/FilteringFunctions/arm_correlate_fast_q31.c **** 
 355:./Libraries/CMSIS/DSP/Source/FilteringFunctions/arm_correlate_fast_q31.c ****       while (k > 0U)
 1224              		.loc 1 355 13
 1225 0b96 E8E0     		b	.L13
 1226              	.L14:
 356:./Libraries/CMSIS/DSP/Source/FilteringFunctions/arm_correlate_fast_q31.c ****       {
 357:./Libraries/CMSIS/DSP/Source/FilteringFunctions/arm_correlate_fast_q31.c ****         /* Read y[4] sample */
 358:./Libraries/CMSIS/DSP/Source/FilteringFunctions/arm_correlate_fast_q31.c ****         c0 = *py++;
ARM GAS  /tmp/ccwfDUN5.s 			page 29


 1227              		.loc 1 358 17
 1228 0b98 D7F87C21 		ldr	r2, [r7, #380]
 1229 0b9c 131D     		adds	r3, r2, #4
 1230 0b9e C7F87C31 		str	r3, [r7, #380]
 1231              		.loc 1 358 12
 1232 0ba2 1368     		ldr	r3, [r2]
 1233 0ba4 C7F83031 		str	r3, [r7, #304]
 359:./Libraries/CMSIS/DSP/Source/FilteringFunctions/arm_correlate_fast_q31.c ****         /* Read x[7] sample */
 360:./Libraries/CMSIS/DSP/Source/FilteringFunctions/arm_correlate_fast_q31.c ****         x3 = *px++;
 1234              		.loc 1 360 17
 1235 0ba8 D7F88021 		ldr	r2, [r7, #384]
 1236 0bac 131D     		adds	r3, r2, #4
 1237 0bae C7F88031 		str	r3, [r7, #384]
 1238              		.loc 1 360 12
 1239 0bb2 1368     		ldr	r3, [r2]
 1240 0bb4 C7F82C31 		str	r3, [r7, #300]
 361:./Libraries/CMSIS/DSP/Source/FilteringFunctions/arm_correlate_fast_q31.c **** 
 362:./Libraries/CMSIS/DSP/Source/FilteringFunctions/arm_correlate_fast_q31.c ****         /* Perform the multiply-accumulates */
 363:./Libraries/CMSIS/DSP/Source/FilteringFunctions/arm_correlate_fast_q31.c ****         /* acc0 +=  x[4] * y[4] */
 364:./Libraries/CMSIS/DSP/Source/FilteringFunctions/arm_correlate_fast_q31.c ****         acc0 = (q31_t) ((((q63_t) acc0 << 32) + ((q63_t) x0 * c0)) >> 32);
 1241              		.loc 1 364 27
 1242 0bb8 D7F87031 		ldr	r3, [r7, #368]
 1243 0bbc 1A46     		mov	r2, r3
 1244 0bbe 4FEAE273 		asr	r3, r2, #31
 1245              		.loc 1 364 40
 1246 0bc2 4FF00008 		mov	r8, #0
 1247 0bc6 4FF00009 		mov	r9, #0
 1248 0bca 9146     		mov	r9, r2
 1249 0bcc 4FF00008 		mov	r8, #0
 1250              		.loc 1 364 50
 1251 0bd0 D7F86031 		ldr	r3, [r7, #352]
 1252 0bd4 1846     		mov	r0, r3
 1253 0bd6 4FEAE071 		asr	r1, r0, #31
 1254              		.loc 1 364 61
 1255 0bda D7F83031 		ldr	r3, [r7, #304]
 1256 0bde 1A46     		mov	r2, r3
 1257 0be0 4FEAE273 		asr	r3, r2, #31
 1258 0be4 02FB01F5 		mul	r5, r2, r1
 1259 0be8 00FB03F4 		mul	r4, r0, r3
 1260 0bec 2C44     		add	r4, r4, r5
 1261 0bee A0FB0223 		umull	r2, r3, r0, r2
 1262 0bf2 E118     		adds	r1, r4, r3
 1263 0bf4 0B46     		mov	r3, r1
 1264              		.loc 1 364 47
 1265 0bf6 18EB0201 		adds	r1, r8, r2
 1266 0bfa 3967     		str	r1, [r7, #112]
 1267 0bfc 49EB0303 		adc	r3, r9, r3
 1268 0c00 7B67     		str	r3, [r7, #116]
 1269              		.loc 1 364 68
 1270 0c02 4FF00002 		mov	r2, #0
 1271 0c06 4FF00003 		mov	r3, #0
 1272 0c0a D7E91C45 		ldrd	r4, [r7, #112]
 1273 0c0e 2946     		mov	r1, r5
 1274 0c10 0A00     		movs	r2, r1
 1275 0c12 2946     		mov	r1, r5
 1276 0c14 CB17     		asrs	r3, r1, #31
 1277              		.loc 1 364 14
ARM GAS  /tmp/ccwfDUN5.s 			page 30


 1278 0c16 1346     		mov	r3, r2
 1279 0c18 C7F87031 		str	r3, [r7, #368]
 365:./Libraries/CMSIS/DSP/Source/FilteringFunctions/arm_correlate_fast_q31.c ****         /* acc1 +=  x[5] * y[4] */
 366:./Libraries/CMSIS/DSP/Source/FilteringFunctions/arm_correlate_fast_q31.c ****         acc1 = (q31_t) ((((q63_t) acc1 << 32) + ((q63_t) x1 * c0)) >> 32);
 1280              		.loc 1 366 27
 1281 0c1c D7F86C31 		ldr	r3, [r7, #364]
 1282 0c20 1A46     		mov	r2, r3
 1283 0c22 4FEAE273 		asr	r3, r2, #31
 1284              		.loc 1 366 40
 1285 0c26 4FF00008 		mov	r8, #0
 1286 0c2a 4FF00009 		mov	r9, #0
 1287 0c2e 9146     		mov	r9, r2
 1288 0c30 4FF00008 		mov	r8, #0
 1289              		.loc 1 366 50
 1290 0c34 D7F85C31 		ldr	r3, [r7, #348]
 1291 0c38 1846     		mov	r0, r3
 1292 0c3a 4FEAE071 		asr	r1, r0, #31
 1293              		.loc 1 366 61
 1294 0c3e D7F83031 		ldr	r3, [r7, #304]
 1295 0c42 1A46     		mov	r2, r3
 1296 0c44 4FEAE273 		asr	r3, r2, #31
 1297 0c48 02FB01F5 		mul	r5, r2, r1
 1298 0c4c 00FB03F4 		mul	r4, r0, r3
 1299 0c50 2C44     		add	r4, r4, r5
 1300 0c52 A0FB0223 		umull	r2, r3, r0, r2
 1301 0c56 E118     		adds	r1, r4, r3
 1302 0c58 0B46     		mov	r3, r1
 1303              		.loc 1 366 47
 1304 0c5a 18EB0201 		adds	r1, r8, r2
 1305 0c5e B966     		str	r1, [r7, #104]
 1306 0c60 49EB0303 		adc	r3, r9, r3
 1307 0c64 FB66     		str	r3, [r7, #108]
 1308              		.loc 1 366 68
 1309 0c66 4FF00002 		mov	r2, #0
 1310 0c6a 4FF00003 		mov	r3, #0
 1311 0c6e D7E91A45 		ldrd	r4, [r7, #104]
 1312 0c72 2946     		mov	r1, r5
 1313 0c74 0A00     		movs	r2, r1
 1314 0c76 2946     		mov	r1, r5
 1315 0c78 CB17     		asrs	r3, r1, #31
 1316              		.loc 1 366 14
 1317 0c7a 1346     		mov	r3, r2
 1318 0c7c C7F86C31 		str	r3, [r7, #364]
 367:./Libraries/CMSIS/DSP/Source/FilteringFunctions/arm_correlate_fast_q31.c ****         /* acc2 +=  x[6] * y[4] */
 368:./Libraries/CMSIS/DSP/Source/FilteringFunctions/arm_correlate_fast_q31.c ****         acc2 = (q31_t) ((((q63_t) acc2 << 32) + ((q63_t) x2 * c0)) >> 32);
 1319              		.loc 1 368 27
 1320 0c80 D7F86831 		ldr	r3, [r7, #360]
 1321 0c84 1A46     		mov	r2, r3
 1322 0c86 4FEAE273 		asr	r3, r2, #31
 1323              		.loc 1 368 40
 1324 0c8a 4FF00008 		mov	r8, #0
 1325 0c8e 4FF00009 		mov	r9, #0
 1326 0c92 9146     		mov	r9, r2
 1327 0c94 4FF00008 		mov	r8, #0
 1328              		.loc 1 368 50
 1329 0c98 D7F85831 		ldr	r3, [r7, #344]
 1330 0c9c 1846     		mov	r0, r3
ARM GAS  /tmp/ccwfDUN5.s 			page 31


 1331 0c9e 4FEAE071 		asr	r1, r0, #31
 1332              		.loc 1 368 61
 1333 0ca2 D7F83031 		ldr	r3, [r7, #304]
 1334 0ca6 1A46     		mov	r2, r3
 1335 0ca8 4FEAE273 		asr	r3, r2, #31
 1336 0cac 02FB01F5 		mul	r5, r2, r1
 1337 0cb0 00FB03F4 		mul	r4, r0, r3
 1338 0cb4 2C44     		add	r4, r4, r5
 1339 0cb6 A0FB0223 		umull	r2, r3, r0, r2
 1340 0cba E118     		adds	r1, r4, r3
 1341 0cbc 0B46     		mov	r3, r1
 1342              		.loc 1 368 47
 1343 0cbe 18EB0201 		adds	r1, r8, r2
 1344 0cc2 3966     		str	r1, [r7, #96]
 1345 0cc4 49EB0303 		adc	r3, r9, r3
 1346 0cc8 7B66     		str	r3, [r7, #100]
 1347              		.loc 1 368 68
 1348 0cca 4FF00002 		mov	r2, #0
 1349 0cce 4FF00003 		mov	r3, #0
 1350 0cd2 D7E91845 		ldrd	r4, [r7, #96]
 1351 0cd6 2946     		mov	r1, r5
 1352 0cd8 0A00     		movs	r2, r1
 1353 0cda 2946     		mov	r1, r5
 1354 0cdc CB17     		asrs	r3, r1, #31
 1355              		.loc 1 368 14
 1356 0cde 1346     		mov	r3, r2
 1357 0ce0 C7F86831 		str	r3, [r7, #360]
 369:./Libraries/CMSIS/DSP/Source/FilteringFunctions/arm_correlate_fast_q31.c ****         /* acc3 +=  x[7] * y[4] */
 370:./Libraries/CMSIS/DSP/Source/FilteringFunctions/arm_correlate_fast_q31.c ****         acc3 = (q31_t) ((((q63_t) acc3 << 32) + ((q63_t) x3 * c0)) >> 32);
 1358              		.loc 1 370 27
 1359 0ce4 D7F86431 		ldr	r3, [r7, #356]
 1360 0ce8 1A46     		mov	r2, r3
 1361 0cea 4FEAE273 		asr	r3, r2, #31
 1362              		.loc 1 370 40
 1363 0cee 4FF00008 		mov	r8, #0
 1364 0cf2 4FF00009 		mov	r9, #0
 1365 0cf6 9146     		mov	r9, r2
 1366 0cf8 4FF00008 		mov	r8, #0
 1367              		.loc 1 370 50
 1368 0cfc D7F82C31 		ldr	r3, [r7, #300]
 1369 0d00 1846     		mov	r0, r3
 1370 0d02 4FEAE071 		asr	r1, r0, #31
 1371              		.loc 1 370 61
 1372 0d06 D7F83031 		ldr	r3, [r7, #304]
 1373 0d0a 1A46     		mov	r2, r3
 1374 0d0c 4FEAE273 		asr	r3, r2, #31
 1375 0d10 02FB01F5 		mul	r5, r2, r1
 1376 0d14 00FB03F4 		mul	r4, r0, r3
 1377 0d18 2C44     		add	r4, r4, r5
 1378 0d1a A0FB0223 		umull	r2, r3, r0, r2
 1379 0d1e E118     		adds	r1, r4, r3
 1380 0d20 0B46     		mov	r3, r1
 1381              		.loc 1 370 47
 1382 0d22 18EB0201 		adds	r1, r8, r2
 1383 0d26 B965     		str	r1, [r7, #88]
 1384 0d28 49EB0303 		adc	r3, r9, r3
 1385 0d2c FB65     		str	r3, [r7, #92]
ARM GAS  /tmp/ccwfDUN5.s 			page 32


 1386              		.loc 1 370 68
 1387 0d2e 4FF00002 		mov	r2, #0
 1388 0d32 4FF00003 		mov	r3, #0
 1389 0d36 D7E91645 		ldrd	r4, [r7, #88]
 1390 0d3a 2946     		mov	r1, r5
 1391 0d3c 0A00     		movs	r2, r1
 1392 0d3e 2946     		mov	r1, r5
 1393 0d40 CB17     		asrs	r3, r1, #31
 1394              		.loc 1 370 14
 1395 0d42 1346     		mov	r3, r2
 1396 0d44 C7F86431 		str	r3, [r7, #356]
 371:./Libraries/CMSIS/DSP/Source/FilteringFunctions/arm_correlate_fast_q31.c **** 
 372:./Libraries/CMSIS/DSP/Source/FilteringFunctions/arm_correlate_fast_q31.c ****         /* Reuse the present samples for the next MAC */
 373:./Libraries/CMSIS/DSP/Source/FilteringFunctions/arm_correlate_fast_q31.c ****         x0 = x1;
 1397              		.loc 1 373 12
 1398 0d48 D7F85C31 		ldr	r3, [r7, #348]
 1399 0d4c C7F86031 		str	r3, [r7, #352]
 374:./Libraries/CMSIS/DSP/Source/FilteringFunctions/arm_correlate_fast_q31.c ****         x1 = x2;
 1400              		.loc 1 374 12
 1401 0d50 D7F85831 		ldr	r3, [r7, #344]
 1402 0d54 C7F85C31 		str	r3, [r7, #348]
 375:./Libraries/CMSIS/DSP/Source/FilteringFunctions/arm_correlate_fast_q31.c ****         x2 = x3;
 1403              		.loc 1 375 12
 1404 0d58 D7F82C31 		ldr	r3, [r7, #300]
 1405 0d5c C7F85831 		str	r3, [r7, #344]
 376:./Libraries/CMSIS/DSP/Source/FilteringFunctions/arm_correlate_fast_q31.c **** 
 377:./Libraries/CMSIS/DSP/Source/FilteringFunctions/arm_correlate_fast_q31.c ****         /* Decrement loop counter */
 378:./Libraries/CMSIS/DSP/Source/FilteringFunctions/arm_correlate_fast_q31.c ****         k--;
 1406              		.loc 1 378 10
 1407 0d60 D7F84C31 		ldr	r3, [r7, #332]
 1408 0d64 013B     		subs	r3, r3, #1
 1409 0d66 C7F84C31 		str	r3, [r7, #332]
 1410              	.L13:
 355:./Libraries/CMSIS/DSP/Source/FilteringFunctions/arm_correlate_fast_q31.c ****       {
 1411              		.loc 1 355 13
 1412 0d6a D7F84C31 		ldr	r3, [r7, #332]
 1413 0d6e 002B     		cmp	r3, #0
 1414 0d70 7FF412AF 		bne	.L14
 379:./Libraries/CMSIS/DSP/Source/FilteringFunctions/arm_correlate_fast_q31.c ****       }
 380:./Libraries/CMSIS/DSP/Source/FilteringFunctions/arm_correlate_fast_q31.c **** 
 381:./Libraries/CMSIS/DSP/Source/FilteringFunctions/arm_correlate_fast_q31.c ****       /* Store the result in the accumulator in the destination buffer. */
 382:./Libraries/CMSIS/DSP/Source/FilteringFunctions/arm_correlate_fast_q31.c ****       *pOut = (q31_t) (acc0 << 1);
 1415              		.loc 1 382 29
 1416 0d74 D7F87031 		ldr	r3, [r7, #368]
 1417 0d78 5A00     		lsls	r2, r3, #1
 1418              		.loc 1 382 13
 1419 0d7a D7F88431 		ldr	r3, [r7, #388]
 1420 0d7e 1A60     		str	r2, [r3]
 383:./Libraries/CMSIS/DSP/Source/FilteringFunctions/arm_correlate_fast_q31.c ****       /* Destination pointer is updated according to the address modifier, inc */
 384:./Libraries/CMSIS/DSP/Source/FilteringFunctions/arm_correlate_fast_q31.c ****       pOut += inc;
 1421              		.loc 1 384 12
 1422 0d80 D7F84031 		ldr	r3, [r7, #320]
 1423 0d84 9A00     		lsls	r2, r3, #2
 1424 0d86 D7F88431 		ldr	r3, [r7, #388]
 1425 0d8a 1344     		add	r3, r3, r2
 1426 0d8c C7F88431 		str	r3, [r7, #388]
 385:./Libraries/CMSIS/DSP/Source/FilteringFunctions/arm_correlate_fast_q31.c **** 
ARM GAS  /tmp/ccwfDUN5.s 			page 33


 386:./Libraries/CMSIS/DSP/Source/FilteringFunctions/arm_correlate_fast_q31.c ****       *pOut = (q31_t) (acc1 << 1);
 1427              		.loc 1 386 29
 1428 0d90 D7F86C31 		ldr	r3, [r7, #364]
 1429 0d94 5A00     		lsls	r2, r3, #1
 1430              		.loc 1 386 13
 1431 0d96 D7F88431 		ldr	r3, [r7, #388]
 1432 0d9a 1A60     		str	r2, [r3]
 387:./Libraries/CMSIS/DSP/Source/FilteringFunctions/arm_correlate_fast_q31.c ****       pOut += inc;
 1433              		.loc 1 387 12
 1434 0d9c D7F84031 		ldr	r3, [r7, #320]
 1435 0da0 9A00     		lsls	r2, r3, #2
 1436 0da2 D7F88431 		ldr	r3, [r7, #388]
 1437 0da6 1344     		add	r3, r3, r2
 1438 0da8 C7F88431 		str	r3, [r7, #388]
 388:./Libraries/CMSIS/DSP/Source/FilteringFunctions/arm_correlate_fast_q31.c **** 
 389:./Libraries/CMSIS/DSP/Source/FilteringFunctions/arm_correlate_fast_q31.c ****       *pOut = (q31_t) (acc2 << 1);
 1439              		.loc 1 389 29
 1440 0dac D7F86831 		ldr	r3, [r7, #360]
 1441 0db0 5A00     		lsls	r2, r3, #1
 1442              		.loc 1 389 13
 1443 0db2 D7F88431 		ldr	r3, [r7, #388]
 1444 0db6 1A60     		str	r2, [r3]
 390:./Libraries/CMSIS/DSP/Source/FilteringFunctions/arm_correlate_fast_q31.c ****       pOut += inc;
 1445              		.loc 1 390 12
 1446 0db8 D7F84031 		ldr	r3, [r7, #320]
 1447 0dbc 9A00     		lsls	r2, r3, #2
 1448 0dbe D7F88431 		ldr	r3, [r7, #388]
 1449 0dc2 1344     		add	r3, r3, r2
 1450 0dc4 C7F88431 		str	r3, [r7, #388]
 391:./Libraries/CMSIS/DSP/Source/FilteringFunctions/arm_correlate_fast_q31.c **** 
 392:./Libraries/CMSIS/DSP/Source/FilteringFunctions/arm_correlate_fast_q31.c ****       *pOut = (q31_t) (acc3 << 1);
 1451              		.loc 1 392 29
 1452 0dc8 D7F86431 		ldr	r3, [r7, #356]
 1453 0dcc 5A00     		lsls	r2, r3, #1
 1454              		.loc 1 392 13
 1455 0dce D7F88431 		ldr	r3, [r7, #388]
 1456 0dd2 1A60     		str	r2, [r3]
 393:./Libraries/CMSIS/DSP/Source/FilteringFunctions/arm_correlate_fast_q31.c ****       pOut += inc;
 1457              		.loc 1 393 12
 1458 0dd4 D7F84031 		ldr	r3, [r7, #320]
 1459 0dd8 9A00     		lsls	r2, r3, #2
 1460 0dda D7F88431 		ldr	r3, [r7, #388]
 1461 0dde 1344     		add	r3, r3, r2
 1462 0de0 C7F88431 		str	r3, [r7, #388]
 394:./Libraries/CMSIS/DSP/Source/FilteringFunctions/arm_correlate_fast_q31.c **** 
 395:./Libraries/CMSIS/DSP/Source/FilteringFunctions/arm_correlate_fast_q31.c ****       /* Increment the pointer pIn1 index, count by 4 */
 396:./Libraries/CMSIS/DSP/Source/FilteringFunctions/arm_correlate_fast_q31.c ****       count += 4U;
 1463              		.loc 1 396 13
 1464 0de4 D7F84831 		ldr	r3, [r7, #328]
 1465 0de8 0433     		adds	r3, r3, #4
 1466 0dea C7F84831 		str	r3, [r7, #328]
 397:./Libraries/CMSIS/DSP/Source/FilteringFunctions/arm_correlate_fast_q31.c **** 
 398:./Libraries/CMSIS/DSP/Source/FilteringFunctions/arm_correlate_fast_q31.c ****       /* Update the inputA and inputB pointers for next MAC calculation */
 399:./Libraries/CMSIS/DSP/Source/FilteringFunctions/arm_correlate_fast_q31.c ****       px = pIn1 + count;
 1467              		.loc 1 399 17
 1468 0dee D7F84831 		ldr	r3, [r7, #328]
 1469 0df2 9A00     		lsls	r2, r3, #2
ARM GAS  /tmp/ccwfDUN5.s 			page 34


 1470              		.loc 1 399 10
 1471 0df4 D7F88C31 		ldr	r3, [r7, #396]
 1472 0df8 1344     		add	r3, r3, r2
 1473 0dfa C7F88031 		str	r3, [r7, #384]
 400:./Libraries/CMSIS/DSP/Source/FilteringFunctions/arm_correlate_fast_q31.c ****       py = pIn2;
 1474              		.loc 1 400 10
 1475 0dfe D7F88831 		ldr	r3, [r7, #392]
 1476 0e02 C7F87C31 		str	r3, [r7, #380]
 401:./Libraries/CMSIS/DSP/Source/FilteringFunctions/arm_correlate_fast_q31.c **** 
 402:./Libraries/CMSIS/DSP/Source/FilteringFunctions/arm_correlate_fast_q31.c ****       /* Decrement loop counter */
 403:./Libraries/CMSIS/DSP/Source/FilteringFunctions/arm_correlate_fast_q31.c ****       blkCnt--;
 1477              		.loc 1 403 13
 1478 0e06 D7F84431 		ldr	r3, [r7, #324]
 1479 0e0a 013B     		subs	r3, r3, #1
 1480 0e0c C7F84431 		str	r3, [r7, #324]
 1481              	.L11:
 265:./Libraries/CMSIS/DSP/Source/FilteringFunctions/arm_correlate_fast_q31.c ****     {
 1482              		.loc 1 265 11
 1483 0e10 D7F84431 		ldr	r3, [r7, #324]
 1484 0e14 002B     		cmp	r3, #0
 1485 0e16 7FF407AB 		bne	.L15
 404:./Libraries/CMSIS/DSP/Source/FilteringFunctions/arm_correlate_fast_q31.c ****     }
 405:./Libraries/CMSIS/DSP/Source/FilteringFunctions/arm_correlate_fast_q31.c **** 
 406:./Libraries/CMSIS/DSP/Source/FilteringFunctions/arm_correlate_fast_q31.c ****     /* If the blockSize2 is not a multiple of 4, compute any remaining output samples here.
 407:./Libraries/CMSIS/DSP/Source/FilteringFunctions/arm_correlate_fast_q31.c ****      ** No loop unrolling is used. */
 408:./Libraries/CMSIS/DSP/Source/FilteringFunctions/arm_correlate_fast_q31.c ****     blkCnt = blockSize2 % 0x4U;
 1486              		.loc 1 408 12
 1487 0e1a D7F83431 		ldr	r3, [r7, #308]
 1488 0e1e 03F00303 		and	r3, r3, #3
 1489 0e22 C7F84431 		str	r3, [r7, #324]
 409:./Libraries/CMSIS/DSP/Source/FilteringFunctions/arm_correlate_fast_q31.c **** 
 410:./Libraries/CMSIS/DSP/Source/FilteringFunctions/arm_correlate_fast_q31.c ****     while (blkCnt > 0U)
 1490              		.loc 1 410 11
 1491 0e26 68E1     		b	.L16
 1492              	.L21:
 411:./Libraries/CMSIS/DSP/Source/FilteringFunctions/arm_correlate_fast_q31.c ****     {
 412:./Libraries/CMSIS/DSP/Source/FilteringFunctions/arm_correlate_fast_q31.c ****       /* Accumulator is made zero for every iteration */
 413:./Libraries/CMSIS/DSP/Source/FilteringFunctions/arm_correlate_fast_q31.c ****       sum = 0;
 1493              		.loc 1 413 11
 1494 0e28 0023     		movs	r3, #0
 1495 0e2a C7F87431 		str	r3, [r7, #372]
 414:./Libraries/CMSIS/DSP/Source/FilteringFunctions/arm_correlate_fast_q31.c **** 
 415:./Libraries/CMSIS/DSP/Source/FilteringFunctions/arm_correlate_fast_q31.c ****       /* Apply loop unrolling and compute 4 MACs simultaneously. */
 416:./Libraries/CMSIS/DSP/Source/FilteringFunctions/arm_correlate_fast_q31.c ****       k = srcBLen >> 2U;
 1496              		.loc 1 416 9
 1497 0e2e D7F81831 		ldr	r3, [r7, #280]
 1498 0e32 9B08     		lsrs	r3, r3, #2
 1499 0e34 C7F84C31 		str	r3, [r7, #332]
 417:./Libraries/CMSIS/DSP/Source/FilteringFunctions/arm_correlate_fast_q31.c **** 
 418:./Libraries/CMSIS/DSP/Source/FilteringFunctions/arm_correlate_fast_q31.c ****       /* First part of the processing with loop unrolling.  Compute 4 MACs at a time.
 419:./Libraries/CMSIS/DSP/Source/FilteringFunctions/arm_correlate_fast_q31.c ****        ** a second loop below computes MACs for the remaining 1 to 3 samples. */
 420:./Libraries/CMSIS/DSP/Source/FilteringFunctions/arm_correlate_fast_q31.c ****       while (k > 0U)
 1500              		.loc 1 420 13
 1501 0e38 ECE0     		b	.L17
 1502              	.L18:
 421:./Libraries/CMSIS/DSP/Source/FilteringFunctions/arm_correlate_fast_q31.c ****       {
 422:./Libraries/CMSIS/DSP/Source/FilteringFunctions/arm_correlate_fast_q31.c ****         /* Perform the multiply-accumulates */
ARM GAS  /tmp/ccwfDUN5.s 			page 35


 423:./Libraries/CMSIS/DSP/Source/FilteringFunctions/arm_correlate_fast_q31.c ****         sum = (q31_t) ((((q63_t) sum << 32) +
 1503              		.loc 1 423 26
 1504 0e3a D7F87431 		ldr	r3, [r7, #372]
 1505 0e3e 1A46     		mov	r2, r3
 1506 0e40 4FEAE273 		asr	r3, r2, #31
 1507              		.loc 1 423 38
 1508 0e44 4FF00008 		mov	r8, #0
 1509 0e48 4FF00009 		mov	r9, #0
 1510 0e4c 9146     		mov	r9, r2
 1511 0e4e 4FF00008 		mov	r8, #0
 424:./Libraries/CMSIS/DSP/Source/FilteringFunctions/arm_correlate_fast_q31.c ****                         ((q63_t) *px++ * (*py++))) >> 32);
 1512              		.loc 1 424 37
 1513 0e52 D7F88021 		ldr	r2, [r7, #384]
 1514 0e56 131D     		adds	r3, r2, #4
 1515 0e58 C7F88031 		str	r3, [r7, #384]
 1516              		.loc 1 424 34
 1517 0e5c 1368     		ldr	r3, [r2]
 1518              		.loc 1 424 26
 1519 0e5e 1C46     		mov	r4, r3
 1520 0e60 4FEAE475 		asr	r5, r4, #31
 1521              		.loc 1 424 46
 1522 0e64 D7F87C21 		ldr	r2, [r7, #380]
 1523 0e68 131D     		adds	r3, r2, #4
 1524 0e6a C7F87C31 		str	r3, [r7, #380]
 1525              		.loc 1 424 43
 1526 0e6e 1368     		ldr	r3, [r2]
 1527 0e70 1A46     		mov	r2, r3
 1528 0e72 4FEAE273 		asr	r3, r2, #31
 1529              		.loc 1 424 40
 1530 0e76 02FB05F0 		mul	r0, r2, r5
 1531 0e7a 04FB03F1 		mul	r1, r4, r3
 1532 0e7e 0144     		add	r1, r1, r0
 1533 0e80 A4FB0223 		umull	r2, r3, r4, r2
 1534 0e84 1944     		add	r1, r1, r3
 1535 0e86 0B46     		mov	r3, r1
 423:./Libraries/CMSIS/DSP/Source/FilteringFunctions/arm_correlate_fast_q31.c ****                         ((q63_t) *px++ * (*py++))) >> 32);
 1536              		.loc 1 423 45
 1537 0e88 18EB0201 		adds	r1, r8, r2
 1538 0e8c 3965     		str	r1, [r7, #80]
 1539 0e8e 49EB0303 		adc	r3, r9, r3
 1540 0e92 7B65     		str	r3, [r7, #84]
 1541              		.loc 1 424 52
 1542 0e94 4FF00002 		mov	r2, #0
 1543 0e98 4FF00003 		mov	r3, #0
 1544 0e9c D7E91445 		ldrd	r4, [r7, #80]
 1545 0ea0 2946     		mov	r1, r5
 1546 0ea2 0A00     		movs	r2, r1
 1547 0ea4 2946     		mov	r1, r5
 1548 0ea6 CB17     		asrs	r3, r1, #31
 423:./Libraries/CMSIS/DSP/Source/FilteringFunctions/arm_correlate_fast_q31.c ****                         ((q63_t) *px++ * (*py++))) >> 32);
 1549              		.loc 1 423 13
 1550 0ea8 1346     		mov	r3, r2
 1551 0eaa C7F87431 		str	r3, [r7, #372]
 425:./Libraries/CMSIS/DSP/Source/FilteringFunctions/arm_correlate_fast_q31.c ****         sum = (q31_t) ((((q63_t) sum << 32) +
 1552              		.loc 1 425 26
 1553 0eae D7F87431 		ldr	r3, [r7, #372]
 1554 0eb2 1A46     		mov	r2, r3
ARM GAS  /tmp/ccwfDUN5.s 			page 36


 1555 0eb4 4FEAE273 		asr	r3, r2, #31
 1556              		.loc 1 425 38
 1557 0eb8 4FF00008 		mov	r8, #0
 1558 0ebc 4FF00009 		mov	r9, #0
 1559 0ec0 9146     		mov	r9, r2
 1560 0ec2 4FF00008 		mov	r8, #0
 426:./Libraries/CMSIS/DSP/Source/FilteringFunctions/arm_correlate_fast_q31.c ****                         ((q63_t) *px++ * (*py++))) >> 32);
 1561              		.loc 1 426 37
 1562 0ec6 D7F88021 		ldr	r2, [r7, #384]
 1563 0eca 131D     		adds	r3, r2, #4
 1564 0ecc C7F88031 		str	r3, [r7, #384]
 1565              		.loc 1 426 34
 1566 0ed0 1368     		ldr	r3, [r2]
 1567              		.loc 1 426 26
 1568 0ed2 1C46     		mov	r4, r3
 1569 0ed4 4FEAE475 		asr	r5, r4, #31
 1570              		.loc 1 426 46
 1571 0ed8 D7F87C21 		ldr	r2, [r7, #380]
 1572 0edc 131D     		adds	r3, r2, #4
 1573 0ede C7F87C31 		str	r3, [r7, #380]
 1574              		.loc 1 426 43
 1575 0ee2 1368     		ldr	r3, [r2]
 1576 0ee4 1A46     		mov	r2, r3
 1577 0ee6 4FEAE273 		asr	r3, r2, #31
 1578              		.loc 1 426 40
 1579 0eea 02FB05F0 		mul	r0, r2, r5
 1580 0eee 04FB03F1 		mul	r1, r4, r3
 1581 0ef2 0144     		add	r1, r1, r0
 1582 0ef4 A4FB0223 		umull	r2, r3, r4, r2
 1583 0ef8 1944     		add	r1, r1, r3
 1584 0efa 0B46     		mov	r3, r1
 425:./Libraries/CMSIS/DSP/Source/FilteringFunctions/arm_correlate_fast_q31.c ****         sum = (q31_t) ((((q63_t) sum << 32) +
 1585              		.loc 1 425 45
 1586 0efc 18EB0201 		adds	r1, r8, r2
 1587 0f00 B964     		str	r1, [r7, #72]
 1588 0f02 49EB0303 		adc	r3, r9, r3
 1589 0f06 FB64     		str	r3, [r7, #76]
 1590              		.loc 1 426 52
 1591 0f08 4FF00002 		mov	r2, #0
 1592 0f0c 4FF00003 		mov	r3, #0
 1593 0f10 D7E91245 		ldrd	r4, [r7, #72]
 1594 0f14 2946     		mov	r1, r5
 1595 0f16 0A00     		movs	r2, r1
 1596 0f18 2946     		mov	r1, r5
 1597 0f1a CB17     		asrs	r3, r1, #31
 425:./Libraries/CMSIS/DSP/Source/FilteringFunctions/arm_correlate_fast_q31.c ****         sum = (q31_t) ((((q63_t) sum << 32) +
 1598              		.loc 1 425 13
 1599 0f1c 1346     		mov	r3, r2
 1600 0f1e C7F87431 		str	r3, [r7, #372]
 427:./Libraries/CMSIS/DSP/Source/FilteringFunctions/arm_correlate_fast_q31.c ****         sum = (q31_t) ((((q63_t) sum << 32) +
 1601              		.loc 1 427 26
 1602 0f22 D7F87431 		ldr	r3, [r7, #372]
 1603 0f26 1A46     		mov	r2, r3
 1604 0f28 4FEAE273 		asr	r3, r2, #31
 1605              		.loc 1 427 38
 1606 0f2c 4FF00008 		mov	r8, #0
 1607 0f30 4FF00009 		mov	r9, #0
ARM GAS  /tmp/ccwfDUN5.s 			page 37


 1608 0f34 9146     		mov	r9, r2
 1609 0f36 4FF00008 		mov	r8, #0
 428:./Libraries/CMSIS/DSP/Source/FilteringFunctions/arm_correlate_fast_q31.c ****                         ((q63_t) *px++ * (*py++))) >> 32);
 1610              		.loc 1 428 37
 1611 0f3a D7F88021 		ldr	r2, [r7, #384]
 1612 0f3e 131D     		adds	r3, r2, #4
 1613 0f40 C7F88031 		str	r3, [r7, #384]
 1614              		.loc 1 428 34
 1615 0f44 1368     		ldr	r3, [r2]
 1616              		.loc 1 428 26
 1617 0f46 1C46     		mov	r4, r3
 1618 0f48 4FEAE475 		asr	r5, r4, #31
 1619              		.loc 1 428 46
 1620 0f4c D7F87C21 		ldr	r2, [r7, #380]
 1621 0f50 131D     		adds	r3, r2, #4
 1622 0f52 C7F87C31 		str	r3, [r7, #380]
 1623              		.loc 1 428 43
 1624 0f56 1368     		ldr	r3, [r2]
 1625 0f58 1A46     		mov	r2, r3
 1626 0f5a 4FEAE273 		asr	r3, r2, #31
 1627              		.loc 1 428 40
 1628 0f5e 02FB05F0 		mul	r0, r2, r5
 1629 0f62 04FB03F1 		mul	r1, r4, r3
 1630 0f66 0144     		add	r1, r1, r0
 1631 0f68 A4FB0223 		umull	r2, r3, r4, r2
 1632 0f6c 1944     		add	r1, r1, r3
 1633 0f6e 0B46     		mov	r3, r1
 427:./Libraries/CMSIS/DSP/Source/FilteringFunctions/arm_correlate_fast_q31.c ****         sum = (q31_t) ((((q63_t) sum << 32) +
 1634              		.loc 1 427 45
 1635 0f70 18EB0201 		adds	r1, r8, r2
 1636 0f74 3964     		str	r1, [r7, #64]
 1637 0f76 49EB0303 		adc	r3, r9, r3
 1638 0f7a 7B64     		str	r3, [r7, #68]
 1639              		.loc 1 428 52
 1640 0f7c 4FF00002 		mov	r2, #0
 1641 0f80 4FF00003 		mov	r3, #0
 1642 0f84 D7E91045 		ldrd	r4, [r7, #64]
 1643 0f88 2946     		mov	r1, r5
 1644 0f8a 0A00     		movs	r2, r1
 1645 0f8c 2946     		mov	r1, r5
 1646 0f8e CB17     		asrs	r3, r1, #31
 427:./Libraries/CMSIS/DSP/Source/FilteringFunctions/arm_correlate_fast_q31.c ****         sum = (q31_t) ((((q63_t) sum << 32) +
 1647              		.loc 1 427 13
 1648 0f90 1346     		mov	r3, r2
 1649 0f92 C7F87431 		str	r3, [r7, #372]
 429:./Libraries/CMSIS/DSP/Source/FilteringFunctions/arm_correlate_fast_q31.c ****         sum = (q31_t) ((((q63_t) sum << 32) +
 1650              		.loc 1 429 26
 1651 0f96 D7F87431 		ldr	r3, [r7, #372]
 1652 0f9a 1A46     		mov	r2, r3
 1653 0f9c 4FEAE273 		asr	r3, r2, #31
 1654              		.loc 1 429 38
 1655 0fa0 4FF00008 		mov	r8, #0
 1656 0fa4 4FF00009 		mov	r9, #0
 1657 0fa8 9146     		mov	r9, r2
 1658 0faa 4FF00008 		mov	r8, #0
 430:./Libraries/CMSIS/DSP/Source/FilteringFunctions/arm_correlate_fast_q31.c ****                         ((q63_t) *px++ * (*py++))) >> 32);
 1659              		.loc 1 430 37
ARM GAS  /tmp/ccwfDUN5.s 			page 38


 1660 0fae D7F88021 		ldr	r2, [r7, #384]
 1661 0fb2 131D     		adds	r3, r2, #4
 1662 0fb4 C7F88031 		str	r3, [r7, #384]
 1663              		.loc 1 430 34
 1664 0fb8 1368     		ldr	r3, [r2]
 1665              		.loc 1 430 26
 1666 0fba 1C46     		mov	r4, r3
 1667 0fbc 4FEAE475 		asr	r5, r4, #31
 1668              		.loc 1 430 46
 1669 0fc0 D7F87C21 		ldr	r2, [r7, #380]
 1670 0fc4 131D     		adds	r3, r2, #4
 1671 0fc6 C7F87C31 		str	r3, [r7, #380]
 1672              		.loc 1 430 43
 1673 0fca 1368     		ldr	r3, [r2]
 1674 0fcc 1A46     		mov	r2, r3
 1675 0fce 4FEAE273 		asr	r3, r2, #31
 1676              		.loc 1 430 40
 1677 0fd2 02FB05F0 		mul	r0, r2, r5
 1678 0fd6 04FB03F1 		mul	r1, r4, r3
 1679 0fda 0144     		add	r1, r1, r0
 1680 0fdc A4FB0223 		umull	r2, r3, r4, r2
 1681 0fe0 1944     		add	r1, r1, r3
 1682 0fe2 0B46     		mov	r3, r1
 429:./Libraries/CMSIS/DSP/Source/FilteringFunctions/arm_correlate_fast_q31.c ****         sum = (q31_t) ((((q63_t) sum << 32) +
 1683              		.loc 1 429 45
 1684 0fe4 18EB0201 		adds	r1, r8, r2
 1685 0fe8 B963     		str	r1, [r7, #56]
 1686 0fea 49EB0303 		adc	r3, r9, r3
 1687 0fee FB63     		str	r3, [r7, #60]
 1688              		.loc 1 430 52
 1689 0ff0 4FF00002 		mov	r2, #0
 1690 0ff4 4FF00003 		mov	r3, #0
 1691 0ff8 D7E90E45 		ldrd	r4, [r7, #56]
 1692 0ffc 2946     		mov	r1, r5
 1693 0ffe 0A00     		movs	r2, r1
 1694 1000 2946     		mov	r1, r5
 1695 1002 CB17     		asrs	r3, r1, #31
 429:./Libraries/CMSIS/DSP/Source/FilteringFunctions/arm_correlate_fast_q31.c ****         sum = (q31_t) ((((q63_t) sum << 32) +
 1696              		.loc 1 429 13
 1697 1004 1346     		mov	r3, r2
 1698 1006 C7F87431 		str	r3, [r7, #372]
 431:./Libraries/CMSIS/DSP/Source/FilteringFunctions/arm_correlate_fast_q31.c **** 
 432:./Libraries/CMSIS/DSP/Source/FilteringFunctions/arm_correlate_fast_q31.c ****         /* Decrement loop counter */
 433:./Libraries/CMSIS/DSP/Source/FilteringFunctions/arm_correlate_fast_q31.c ****         k--;
 1699              		.loc 1 433 10
 1700 100a D7F84C31 		ldr	r3, [r7, #332]
 1701 100e 013B     		subs	r3, r3, #1
 1702 1010 C7F84C31 		str	r3, [r7, #332]
 1703              	.L17:
 420:./Libraries/CMSIS/DSP/Source/FilteringFunctions/arm_correlate_fast_q31.c ****       {
 1704              		.loc 1 420 13
 1705 1014 D7F84C31 		ldr	r3, [r7, #332]
 1706 1018 002B     		cmp	r3, #0
 1707 101a 7FF40EAF 		bne	.L18
 434:./Libraries/CMSIS/DSP/Source/FilteringFunctions/arm_correlate_fast_q31.c ****       }
 435:./Libraries/CMSIS/DSP/Source/FilteringFunctions/arm_correlate_fast_q31.c **** 
 436:./Libraries/CMSIS/DSP/Source/FilteringFunctions/arm_correlate_fast_q31.c ****       /* If the srcBLen is not a multiple of 4, compute any remaining MACs here.
ARM GAS  /tmp/ccwfDUN5.s 			page 39


 437:./Libraries/CMSIS/DSP/Source/FilteringFunctions/arm_correlate_fast_q31.c ****        ** No loop unrolling is used. */
 438:./Libraries/CMSIS/DSP/Source/FilteringFunctions/arm_correlate_fast_q31.c ****       k = srcBLen % 0x4U;
 1708              		.loc 1 438 9
 1709 101e D7F81831 		ldr	r3, [r7, #280]
 1710 1022 03F00303 		and	r3, r3, #3
 1711 1026 C7F84C31 		str	r3, [r7, #332]
 439:./Libraries/CMSIS/DSP/Source/FilteringFunctions/arm_correlate_fast_q31.c **** 
 440:./Libraries/CMSIS/DSP/Source/FilteringFunctions/arm_correlate_fast_q31.c ****       while (k > 0U)
 1712              		.loc 1 440 13
 1713 102a 3EE0     		b	.L19
 1714              	.L20:
 441:./Libraries/CMSIS/DSP/Source/FilteringFunctions/arm_correlate_fast_q31.c ****       {
 442:./Libraries/CMSIS/DSP/Source/FilteringFunctions/arm_correlate_fast_q31.c ****         /* Perform the multiply-accumulate */
 443:./Libraries/CMSIS/DSP/Source/FilteringFunctions/arm_correlate_fast_q31.c ****         sum = (q31_t) ((((q63_t) sum << 32) +
 1715              		.loc 1 443 26
 1716 102c D7F87431 		ldr	r3, [r7, #372]
 1717 1030 1A46     		mov	r2, r3
 1718 1032 4FEAE273 		asr	r3, r2, #31
 1719              		.loc 1 443 38
 1720 1036 4FF00008 		mov	r8, #0
 1721 103a 4FF00009 		mov	r9, #0
 1722 103e 9146     		mov	r9, r2
 1723 1040 4FF00008 		mov	r8, #0
 444:./Libraries/CMSIS/DSP/Source/FilteringFunctions/arm_correlate_fast_q31.c ****                         ((q63_t) *px++ * (*py++))) >> 32);
 1724              		.loc 1 444 37
 1725 1044 D7F88021 		ldr	r2, [r7, #384]
 1726 1048 131D     		adds	r3, r2, #4
 1727 104a C7F88031 		str	r3, [r7, #384]
 1728              		.loc 1 444 34
 1729 104e 1368     		ldr	r3, [r2]
 1730              		.loc 1 444 26
 1731 1050 1C46     		mov	r4, r3
 1732 1052 4FEAE475 		asr	r5, r4, #31
 1733              		.loc 1 444 46
 1734 1056 D7F87C21 		ldr	r2, [r7, #380]
 1735 105a 131D     		adds	r3, r2, #4
 1736 105c C7F87C31 		str	r3, [r7, #380]
 1737              		.loc 1 444 43
 1738 1060 1368     		ldr	r3, [r2]
 1739 1062 1A46     		mov	r2, r3
 1740 1064 4FEAE273 		asr	r3, r2, #31
 1741              		.loc 1 444 40
 1742 1068 02FB05F0 		mul	r0, r2, r5
 1743 106c 04FB03F1 		mul	r1, r4, r3
 1744 1070 0144     		add	r1, r1, r0
 1745 1072 A4FB0223 		umull	r2, r3, r4, r2
 1746 1076 1944     		add	r1, r1, r3
 1747 1078 0B46     		mov	r3, r1
 443:./Libraries/CMSIS/DSP/Source/FilteringFunctions/arm_correlate_fast_q31.c ****                         ((q63_t) *px++ * (*py++))) >> 32);
 1748              		.loc 1 443 45
 1749 107a 18EB0201 		adds	r1, r8, r2
 1750 107e 3963     		str	r1, [r7, #48]
 1751 1080 49EB0303 		adc	r3, r9, r3
 1752 1084 7B63     		str	r3, [r7, #52]
 1753              		.loc 1 444 52
 1754 1086 4FF00002 		mov	r2, #0
 1755 108a 4FF00003 		mov	r3, #0
ARM GAS  /tmp/ccwfDUN5.s 			page 40


 1756 108e D7E90C45 		ldrd	r4, [r7, #48]
 1757 1092 2946     		mov	r1, r5
 1758 1094 0A00     		movs	r2, r1
 1759 1096 2946     		mov	r1, r5
 1760 1098 CB17     		asrs	r3, r1, #31
 443:./Libraries/CMSIS/DSP/Source/FilteringFunctions/arm_correlate_fast_q31.c ****                         ((q63_t) *px++ * (*py++))) >> 32);
 1761              		.loc 1 443 13
 1762 109a 1346     		mov	r3, r2
 1763 109c C7F87431 		str	r3, [r7, #372]
 445:./Libraries/CMSIS/DSP/Source/FilteringFunctions/arm_correlate_fast_q31.c **** 
 446:./Libraries/CMSIS/DSP/Source/FilteringFunctions/arm_correlate_fast_q31.c ****         /* Decrement loop counter */
 447:./Libraries/CMSIS/DSP/Source/FilteringFunctions/arm_correlate_fast_q31.c ****         k--;
 1764              		.loc 1 447 10
 1765 10a0 D7F84C31 		ldr	r3, [r7, #332]
 1766 10a4 013B     		subs	r3, r3, #1
 1767 10a6 C7F84C31 		str	r3, [r7, #332]
 1768              	.L19:
 440:./Libraries/CMSIS/DSP/Source/FilteringFunctions/arm_correlate_fast_q31.c ****       {
 1769              		.loc 1 440 13
 1770 10aa D7F84C31 		ldr	r3, [r7, #332]
 1771 10ae 002B     		cmp	r3, #0
 1772 10b0 BCD1     		bne	.L20
 448:./Libraries/CMSIS/DSP/Source/FilteringFunctions/arm_correlate_fast_q31.c ****       }
 449:./Libraries/CMSIS/DSP/Source/FilteringFunctions/arm_correlate_fast_q31.c **** 
 450:./Libraries/CMSIS/DSP/Source/FilteringFunctions/arm_correlate_fast_q31.c ****       /* Store the result in the accumulator in the destination buffer. */
 451:./Libraries/CMSIS/DSP/Source/FilteringFunctions/arm_correlate_fast_q31.c ****       *pOut = sum << 1;
 1773              		.loc 1 451 19
 1774 10b2 D7F87431 		ldr	r3, [r7, #372]
 1775 10b6 5A00     		lsls	r2, r3, #1
 1776              		.loc 1 451 13
 1777 10b8 D7F88431 		ldr	r3, [r7, #388]
 1778 10bc 1A60     		str	r2, [r3]
 452:./Libraries/CMSIS/DSP/Source/FilteringFunctions/arm_correlate_fast_q31.c ****       /* Destination pointer is updated according to the address modifier, inc */
 453:./Libraries/CMSIS/DSP/Source/FilteringFunctions/arm_correlate_fast_q31.c ****       pOut += inc;
 1779              		.loc 1 453 12
 1780 10be D7F84031 		ldr	r3, [r7, #320]
 1781 10c2 9A00     		lsls	r2, r3, #2
 1782 10c4 D7F88431 		ldr	r3, [r7, #388]
 1783 10c8 1344     		add	r3, r3, r2
 1784 10ca C7F88431 		str	r3, [r7, #388]
 454:./Libraries/CMSIS/DSP/Source/FilteringFunctions/arm_correlate_fast_q31.c **** 
 455:./Libraries/CMSIS/DSP/Source/FilteringFunctions/arm_correlate_fast_q31.c ****       /* Increment MAC count */
 456:./Libraries/CMSIS/DSP/Source/FilteringFunctions/arm_correlate_fast_q31.c ****       count++;
 1785              		.loc 1 456 12
 1786 10ce D7F84831 		ldr	r3, [r7, #328]
 1787 10d2 0133     		adds	r3, r3, #1
 1788 10d4 C7F84831 		str	r3, [r7, #328]
 457:./Libraries/CMSIS/DSP/Source/FilteringFunctions/arm_correlate_fast_q31.c **** 
 458:./Libraries/CMSIS/DSP/Source/FilteringFunctions/arm_correlate_fast_q31.c ****       /* Update the inputA and inputB pointers for next MAC calculation */
 459:./Libraries/CMSIS/DSP/Source/FilteringFunctions/arm_correlate_fast_q31.c ****       px = pIn1 + count;
 1789              		.loc 1 459 17
 1790 10d8 D7F84831 		ldr	r3, [r7, #328]
 1791 10dc 9A00     		lsls	r2, r3, #2
 1792              		.loc 1 459 10
 1793 10de D7F88C31 		ldr	r3, [r7, #396]
 1794 10e2 1344     		add	r3, r3, r2
 1795 10e4 C7F88031 		str	r3, [r7, #384]
ARM GAS  /tmp/ccwfDUN5.s 			page 41


 460:./Libraries/CMSIS/DSP/Source/FilteringFunctions/arm_correlate_fast_q31.c ****       py = pIn2;
 1796              		.loc 1 460 10
 1797 10e8 D7F88831 		ldr	r3, [r7, #392]
 1798 10ec C7F87C31 		str	r3, [r7, #380]
 461:./Libraries/CMSIS/DSP/Source/FilteringFunctions/arm_correlate_fast_q31.c **** 
 462:./Libraries/CMSIS/DSP/Source/FilteringFunctions/arm_correlate_fast_q31.c ****       /* Decrement loop counter */
 463:./Libraries/CMSIS/DSP/Source/FilteringFunctions/arm_correlate_fast_q31.c ****       blkCnt--;
 1799              		.loc 1 463 13
 1800 10f0 D7F84431 		ldr	r3, [r7, #324]
 1801 10f4 013B     		subs	r3, r3, #1
 1802 10f6 C7F84431 		str	r3, [r7, #324]
 1803              	.L16:
 410:./Libraries/CMSIS/DSP/Source/FilteringFunctions/arm_correlate_fast_q31.c ****     {
 1804              		.loc 1 410 11
 1805 10fa D7F84431 		ldr	r3, [r7, #324]
 1806 10fe 002B     		cmp	r3, #0
 1807 1100 7FF492AE 		bne	.L21
 1808 1104 77E0     		b	.L22
 1809              	.L10:
 464:./Libraries/CMSIS/DSP/Source/FilteringFunctions/arm_correlate_fast_q31.c ****     }
 465:./Libraries/CMSIS/DSP/Source/FilteringFunctions/arm_correlate_fast_q31.c ****   }
 466:./Libraries/CMSIS/DSP/Source/FilteringFunctions/arm_correlate_fast_q31.c ****   else
 467:./Libraries/CMSIS/DSP/Source/FilteringFunctions/arm_correlate_fast_q31.c ****   {
 468:./Libraries/CMSIS/DSP/Source/FilteringFunctions/arm_correlate_fast_q31.c ****     /* If the srcBLen is not a multiple of 4,
 469:./Libraries/CMSIS/DSP/Source/FilteringFunctions/arm_correlate_fast_q31.c ****      * the blockSize2 loop cannot be unrolled by 4 */
 470:./Libraries/CMSIS/DSP/Source/FilteringFunctions/arm_correlate_fast_q31.c ****     blkCnt = blockSize2;
 1810              		.loc 1 470 12
 1811 1106 D7F83431 		ldr	r3, [r7, #308]
 1812 110a C7F84431 		str	r3, [r7, #324]
 471:./Libraries/CMSIS/DSP/Source/FilteringFunctions/arm_correlate_fast_q31.c **** 
 472:./Libraries/CMSIS/DSP/Source/FilteringFunctions/arm_correlate_fast_q31.c ****     while (blkCnt > 0U)
 1813              		.loc 1 472 11
 1814 110e 6EE0     		b	.L23
 1815              	.L26:
 473:./Libraries/CMSIS/DSP/Source/FilteringFunctions/arm_correlate_fast_q31.c ****     {
 474:./Libraries/CMSIS/DSP/Source/FilteringFunctions/arm_correlate_fast_q31.c ****       /* Accumulator is made zero for every iteration */
 475:./Libraries/CMSIS/DSP/Source/FilteringFunctions/arm_correlate_fast_q31.c ****       sum = 0;
 1816              		.loc 1 475 11
 1817 1110 0023     		movs	r3, #0
 1818 1112 C7F87431 		str	r3, [r7, #372]
 476:./Libraries/CMSIS/DSP/Source/FilteringFunctions/arm_correlate_fast_q31.c **** 
 477:./Libraries/CMSIS/DSP/Source/FilteringFunctions/arm_correlate_fast_q31.c ****       /* srcBLen number of MACS should be performed */
 478:./Libraries/CMSIS/DSP/Source/FilteringFunctions/arm_correlate_fast_q31.c ****       k = srcBLen;
 1819              		.loc 1 478 9
 1820 1116 D7F81831 		ldr	r3, [r7, #280]
 1821 111a C7F84C31 		str	r3, [r7, #332]
 479:./Libraries/CMSIS/DSP/Source/FilteringFunctions/arm_correlate_fast_q31.c **** 
 480:./Libraries/CMSIS/DSP/Source/FilteringFunctions/arm_correlate_fast_q31.c ****       while (k > 0U)
 1822              		.loc 1 480 13
 1823 111e 3EE0     		b	.L24
 1824              	.L25:
 481:./Libraries/CMSIS/DSP/Source/FilteringFunctions/arm_correlate_fast_q31.c ****       {
 482:./Libraries/CMSIS/DSP/Source/FilteringFunctions/arm_correlate_fast_q31.c ****         /* Perform the multiply-accumulate */
 483:./Libraries/CMSIS/DSP/Source/FilteringFunctions/arm_correlate_fast_q31.c ****         sum = (q31_t) ((((q63_t) sum << 32) +
 1825              		.loc 1 483 26
 1826 1120 D7F87431 		ldr	r3, [r7, #372]
 1827 1124 1A46     		mov	r2, r3
ARM GAS  /tmp/ccwfDUN5.s 			page 42


 1828 1126 4FEAE273 		asr	r3, r2, #31
 1829              		.loc 1 483 38
 1830 112a 4FF00008 		mov	r8, #0
 1831 112e 4FF00009 		mov	r9, #0
 1832 1132 9146     		mov	r9, r2
 1833 1134 4FF00008 		mov	r8, #0
 484:./Libraries/CMSIS/DSP/Source/FilteringFunctions/arm_correlate_fast_q31.c ****                         ((q63_t) *px++ * (*py++))) >> 32);
 1834              		.loc 1 484 37
 1835 1138 D7F88021 		ldr	r2, [r7, #384]
 1836 113c 131D     		adds	r3, r2, #4
 1837 113e C7F88031 		str	r3, [r7, #384]
 1838              		.loc 1 484 34
 1839 1142 1368     		ldr	r3, [r2]
 1840              		.loc 1 484 26
 1841 1144 1C46     		mov	r4, r3
 1842 1146 4FEAE475 		asr	r5, r4, #31
 1843              		.loc 1 484 46
 1844 114a D7F87C21 		ldr	r2, [r7, #380]
 1845 114e 131D     		adds	r3, r2, #4
 1846 1150 C7F87C31 		str	r3, [r7, #380]
 1847              		.loc 1 484 43
 1848 1154 1368     		ldr	r3, [r2]
 1849 1156 1A46     		mov	r2, r3
 1850 1158 4FEAE273 		asr	r3, r2, #31
 1851              		.loc 1 484 40
 1852 115c 02FB05F0 		mul	r0, r2, r5
 1853 1160 04FB03F1 		mul	r1, r4, r3
 1854 1164 0144     		add	r1, r1, r0
 1855 1166 A4FB0223 		umull	r2, r3, r4, r2
 1856 116a 1944     		add	r1, r1, r3
 1857 116c 0B46     		mov	r3, r1
 483:./Libraries/CMSIS/DSP/Source/FilteringFunctions/arm_correlate_fast_q31.c ****                         ((q63_t) *px++ * (*py++))) >> 32);
 1858              		.loc 1 483 45
 1859 116e 18EB0201 		adds	r1, r8, r2
 1860 1172 B962     		str	r1, [r7, #40]
 1861 1174 49EB0303 		adc	r3, r9, r3
 1862 1178 FB62     		str	r3, [r7, #44]
 1863              		.loc 1 484 52
 1864 117a 4FF00002 		mov	r2, #0
 1865 117e 4FF00003 		mov	r3, #0
 1866 1182 D7E90A45 		ldrd	r4, [r7, #40]
 1867 1186 2946     		mov	r1, r5
 1868 1188 0A00     		movs	r2, r1
 1869 118a 2946     		mov	r1, r5
 1870 118c CB17     		asrs	r3, r1, #31
 483:./Libraries/CMSIS/DSP/Source/FilteringFunctions/arm_correlate_fast_q31.c ****                         ((q63_t) *px++ * (*py++))) >> 32);
 1871              		.loc 1 483 13
 1872 118e 1346     		mov	r3, r2
 1873 1190 C7F87431 		str	r3, [r7, #372]
 485:./Libraries/CMSIS/DSP/Source/FilteringFunctions/arm_correlate_fast_q31.c **** 
 486:./Libraries/CMSIS/DSP/Source/FilteringFunctions/arm_correlate_fast_q31.c ****         /* Decrement loop counter */
 487:./Libraries/CMSIS/DSP/Source/FilteringFunctions/arm_correlate_fast_q31.c ****         k--;
 1874              		.loc 1 487 10
 1875 1194 D7F84C31 		ldr	r3, [r7, #332]
 1876 1198 013B     		subs	r3, r3, #1
 1877 119a C7F84C31 		str	r3, [r7, #332]
 1878              	.L24:
ARM GAS  /tmp/ccwfDUN5.s 			page 43


 480:./Libraries/CMSIS/DSP/Source/FilteringFunctions/arm_correlate_fast_q31.c ****       {
 1879              		.loc 1 480 13
 1880 119e D7F84C31 		ldr	r3, [r7, #332]
 1881 11a2 002B     		cmp	r3, #0
 1882 11a4 BCD1     		bne	.L25
 488:./Libraries/CMSIS/DSP/Source/FilteringFunctions/arm_correlate_fast_q31.c ****       }
 489:./Libraries/CMSIS/DSP/Source/FilteringFunctions/arm_correlate_fast_q31.c **** 
 490:./Libraries/CMSIS/DSP/Source/FilteringFunctions/arm_correlate_fast_q31.c ****       /* Store the result in the accumulator in the destination buffer. */
 491:./Libraries/CMSIS/DSP/Source/FilteringFunctions/arm_correlate_fast_q31.c ****       *pOut = sum << 1;
 1883              		.loc 1 491 19
 1884 11a6 D7F87431 		ldr	r3, [r7, #372]
 1885 11aa 5A00     		lsls	r2, r3, #1
 1886              		.loc 1 491 13
 1887 11ac D7F88431 		ldr	r3, [r7, #388]
 1888 11b0 1A60     		str	r2, [r3]
 492:./Libraries/CMSIS/DSP/Source/FilteringFunctions/arm_correlate_fast_q31.c ****       /* Destination pointer is updated according to the address modifier, inc */
 493:./Libraries/CMSIS/DSP/Source/FilteringFunctions/arm_correlate_fast_q31.c ****       pOut += inc;
 1889              		.loc 1 493 12
 1890 11b2 D7F84031 		ldr	r3, [r7, #320]
 1891 11b6 9B00     		lsls	r3, r3, #2
 1892 11b8 D7F88421 		ldr	r2, [r7, #388]
 1893 11bc 1344     		add	r3, r3, r2
 1894 11be C7F88431 		str	r3, [r7, #388]
 494:./Libraries/CMSIS/DSP/Source/FilteringFunctions/arm_correlate_fast_q31.c **** 
 495:./Libraries/CMSIS/DSP/Source/FilteringFunctions/arm_correlate_fast_q31.c ****       /* Increment MAC count */
 496:./Libraries/CMSIS/DSP/Source/FilteringFunctions/arm_correlate_fast_q31.c ****       count++;
 1895              		.loc 1 496 12
 1896 11c2 D7F84831 		ldr	r3, [r7, #328]
 1897 11c6 0133     		adds	r3, r3, #1
 1898 11c8 C7F84831 		str	r3, [r7, #328]
 497:./Libraries/CMSIS/DSP/Source/FilteringFunctions/arm_correlate_fast_q31.c **** 
 498:./Libraries/CMSIS/DSP/Source/FilteringFunctions/arm_correlate_fast_q31.c ****       /* Update the inputA and inputB pointers for next MAC calculation */
 499:./Libraries/CMSIS/DSP/Source/FilteringFunctions/arm_correlate_fast_q31.c ****       px = pIn1 + count;
 1899              		.loc 1 499 17
 1900 11cc D7F84831 		ldr	r3, [r7, #328]
 1901 11d0 9B00     		lsls	r3, r3, #2
 1902              		.loc 1 499 10
 1903 11d2 D7F88C21 		ldr	r2, [r7, #396]
 1904 11d6 1344     		add	r3, r3, r2
 1905 11d8 C7F88031 		str	r3, [r7, #384]
 500:./Libraries/CMSIS/DSP/Source/FilteringFunctions/arm_correlate_fast_q31.c ****       py = pIn2;
 1906              		.loc 1 500 10
 1907 11dc D7F88831 		ldr	r3, [r7, #392]
 1908 11e0 C7F87C31 		str	r3, [r7, #380]
 501:./Libraries/CMSIS/DSP/Source/FilteringFunctions/arm_correlate_fast_q31.c **** 
 502:./Libraries/CMSIS/DSP/Source/FilteringFunctions/arm_correlate_fast_q31.c ****       /* Decrement loop counter */
 503:./Libraries/CMSIS/DSP/Source/FilteringFunctions/arm_correlate_fast_q31.c ****       blkCnt--;
 1909              		.loc 1 503 13
 1910 11e4 D7F84431 		ldr	r3, [r7, #324]
 1911 11e8 013B     		subs	r3, r3, #1
 1912 11ea C7F84431 		str	r3, [r7, #324]
 1913              	.L23:
 472:./Libraries/CMSIS/DSP/Source/FilteringFunctions/arm_correlate_fast_q31.c ****     {
 1914              		.loc 1 472 11
 1915 11ee D7F84431 		ldr	r3, [r7, #324]
 1916 11f2 002B     		cmp	r3, #0
 1917 11f4 8CD1     		bne	.L26
ARM GAS  /tmp/ccwfDUN5.s 			page 44


 1918              	.L22:
 504:./Libraries/CMSIS/DSP/Source/FilteringFunctions/arm_correlate_fast_q31.c ****     }
 505:./Libraries/CMSIS/DSP/Source/FilteringFunctions/arm_correlate_fast_q31.c ****   }
 506:./Libraries/CMSIS/DSP/Source/FilteringFunctions/arm_correlate_fast_q31.c **** 
 507:./Libraries/CMSIS/DSP/Source/FilteringFunctions/arm_correlate_fast_q31.c **** 
 508:./Libraries/CMSIS/DSP/Source/FilteringFunctions/arm_correlate_fast_q31.c ****   /* --------------------------
 509:./Libraries/CMSIS/DSP/Source/FilteringFunctions/arm_correlate_fast_q31.c ****    * Initializations of stage3
 510:./Libraries/CMSIS/DSP/Source/FilteringFunctions/arm_correlate_fast_q31.c ****    * -------------------------*/
 511:./Libraries/CMSIS/DSP/Source/FilteringFunctions/arm_correlate_fast_q31.c **** 
 512:./Libraries/CMSIS/DSP/Source/FilteringFunctions/arm_correlate_fast_q31.c ****   /* sum += x[srcALen-srcBLen+1] * y[0] + x[srcALen-srcBLen+2] * y[1] +...+ x[srcALen-1] * y[srcBLe
 513:./Libraries/CMSIS/DSP/Source/FilteringFunctions/arm_correlate_fast_q31.c ****    * sum += x[srcALen-srcBLen+2] * y[0] + x[srcALen-srcBLen+3] * y[1] +...+ x[srcALen-1] * y[srcBLe
 514:./Libraries/CMSIS/DSP/Source/FilteringFunctions/arm_correlate_fast_q31.c ****    * ....
 515:./Libraries/CMSIS/DSP/Source/FilteringFunctions/arm_correlate_fast_q31.c ****    * sum +=  x[srcALen-2] * y[0] + x[srcALen-1] * y[1]
 516:./Libraries/CMSIS/DSP/Source/FilteringFunctions/arm_correlate_fast_q31.c ****    * sum +=  x[srcALen-1] * y[0]
 517:./Libraries/CMSIS/DSP/Source/FilteringFunctions/arm_correlate_fast_q31.c ****    */
 518:./Libraries/CMSIS/DSP/Source/FilteringFunctions/arm_correlate_fast_q31.c **** 
 519:./Libraries/CMSIS/DSP/Source/FilteringFunctions/arm_correlate_fast_q31.c ****   /* In this stage the MAC operations are decreased by 1 for every iteration.
 520:./Libraries/CMSIS/DSP/Source/FilteringFunctions/arm_correlate_fast_q31.c ****      The count variable holds the number of MAC operations performed */
 521:./Libraries/CMSIS/DSP/Source/FilteringFunctions/arm_correlate_fast_q31.c ****   count = srcBLen - 1U;
 1919              		.loc 1 521 9
 1920 11f6 D7F81831 		ldr	r3, [r7, #280]
 1921 11fa 013B     		subs	r3, r3, #1
 1922 11fc C7F84831 		str	r3, [r7, #328]
 522:./Libraries/CMSIS/DSP/Source/FilteringFunctions/arm_correlate_fast_q31.c **** 
 523:./Libraries/CMSIS/DSP/Source/FilteringFunctions/arm_correlate_fast_q31.c ****   /* Working pointer of inputA */
 524:./Libraries/CMSIS/DSP/Source/FilteringFunctions/arm_correlate_fast_q31.c ****   pSrc1 = ((pIn1 + srcALen) - srcBLen) + 1U;
 1923              		.loc 1 524 29
 1924 1200 D7F82021 		ldr	r2, [r7, #288]
 1925 1204 D7F81831 		ldr	r3, [r7, #280]
 1926 1208 D31A     		subs	r3, r2, r3
 1927              		.loc 1 524 40
 1928 120a 0133     		adds	r3, r3, #1
 1929 120c 9B00     		lsls	r3, r3, #2
 1930              		.loc 1 524 9
 1931 120e D7F88C21 		ldr	r2, [r7, #396]
 1932 1212 1344     		add	r3, r3, r2
 1933 1214 C7F87831 		str	r3, [r7, #376]
 525:./Libraries/CMSIS/DSP/Source/FilteringFunctions/arm_correlate_fast_q31.c ****   px = pSrc1;
 1934              		.loc 1 525 6
 1935 1218 D7F87831 		ldr	r3, [r7, #376]
 1936 121c C7F88031 		str	r3, [r7, #384]
 526:./Libraries/CMSIS/DSP/Source/FilteringFunctions/arm_correlate_fast_q31.c **** 
 527:./Libraries/CMSIS/DSP/Source/FilteringFunctions/arm_correlate_fast_q31.c ****   /* Working pointer of inputB */
 528:./Libraries/CMSIS/DSP/Source/FilteringFunctions/arm_correlate_fast_q31.c ****   py = pIn2;
 1937              		.loc 1 528 6
 1938 1220 D7F88831 		ldr	r3, [r7, #392]
 1939 1224 C7F87C31 		str	r3, [r7, #380]
 529:./Libraries/CMSIS/DSP/Source/FilteringFunctions/arm_correlate_fast_q31.c **** 
 530:./Libraries/CMSIS/DSP/Source/FilteringFunctions/arm_correlate_fast_q31.c ****   /* -------------------
 531:./Libraries/CMSIS/DSP/Source/FilteringFunctions/arm_correlate_fast_q31.c ****    * Stage3 process
 532:./Libraries/CMSIS/DSP/Source/FilteringFunctions/arm_correlate_fast_q31.c ****    * ------------------*/
 533:./Libraries/CMSIS/DSP/Source/FilteringFunctions/arm_correlate_fast_q31.c **** 
 534:./Libraries/CMSIS/DSP/Source/FilteringFunctions/arm_correlate_fast_q31.c ****   while (blockSize3 > 0U)
 1940              		.loc 1 534 9
 1941 1228 69E1     		b	.L27
 1942              	.L32:
 535:./Libraries/CMSIS/DSP/Source/FilteringFunctions/arm_correlate_fast_q31.c ****   {
ARM GAS  /tmp/ccwfDUN5.s 			page 45


 536:./Libraries/CMSIS/DSP/Source/FilteringFunctions/arm_correlate_fast_q31.c ****     /* Accumulator is made zero for every iteration */
 537:./Libraries/CMSIS/DSP/Source/FilteringFunctions/arm_correlate_fast_q31.c ****     sum = 0;
 1943              		.loc 1 537 9
 1944 122a 0023     		movs	r3, #0
 1945 122c C7F87431 		str	r3, [r7, #372]
 538:./Libraries/CMSIS/DSP/Source/FilteringFunctions/arm_correlate_fast_q31.c **** 
 539:./Libraries/CMSIS/DSP/Source/FilteringFunctions/arm_correlate_fast_q31.c ****     /* Apply loop unrolling and compute 4 MACs simultaneously. */
 540:./Libraries/CMSIS/DSP/Source/FilteringFunctions/arm_correlate_fast_q31.c ****     k = count >> 2U;
 1946              		.loc 1 540 7
 1947 1230 D7F84831 		ldr	r3, [r7, #328]
 1948 1234 9B08     		lsrs	r3, r3, #2
 1949 1236 C7F84C31 		str	r3, [r7, #332]
 541:./Libraries/CMSIS/DSP/Source/FilteringFunctions/arm_correlate_fast_q31.c **** 
 542:./Libraries/CMSIS/DSP/Source/FilteringFunctions/arm_correlate_fast_q31.c ****     /* First part of the processing with loop unrolling.  Compute 4 MACs at a time.
 543:./Libraries/CMSIS/DSP/Source/FilteringFunctions/arm_correlate_fast_q31.c ****      ** a second loop below computes MACs for the remaining 1 to 3 samples. */
 544:./Libraries/CMSIS/DSP/Source/FilteringFunctions/arm_correlate_fast_q31.c ****     while (k > 0U)
 1950              		.loc 1 544 11
 1951 123a ECE0     		b	.L28
 1952              	.L29:
 545:./Libraries/CMSIS/DSP/Source/FilteringFunctions/arm_correlate_fast_q31.c ****     {
 546:./Libraries/CMSIS/DSP/Source/FilteringFunctions/arm_correlate_fast_q31.c ****       /* Perform the multiply-accumulate */
 547:./Libraries/CMSIS/DSP/Source/FilteringFunctions/arm_correlate_fast_q31.c ****       /* sum += x[srcALen - srcBLen + 4] * y[3] */
 548:./Libraries/CMSIS/DSP/Source/FilteringFunctions/arm_correlate_fast_q31.c ****       sum = (q31_t) ((((q63_t) sum << 32) +
 1953              		.loc 1 548 24
 1954 123c D7F87431 		ldr	r3, [r7, #372]
 1955 1240 1A46     		mov	r2, r3
 1956 1242 4FEAE273 		asr	r3, r2, #31
 1957              		.loc 1 548 36
 1958 1246 4FF00008 		mov	r8, #0
 1959 124a 4FF00009 		mov	r9, #0
 1960 124e 9146     		mov	r9, r2
 1961 1250 4FF00008 		mov	r8, #0
 549:./Libraries/CMSIS/DSP/Source/FilteringFunctions/arm_correlate_fast_q31.c ****                       ((q63_t) *px++ * (*py++))) >> 32);
 1962              		.loc 1 549 35
 1963 1254 D7F88031 		ldr	r3, [r7, #384]
 1964 1258 1A1D     		adds	r2, r3, #4
 1965 125a C7F88021 		str	r2, [r7, #384]
 1966              		.loc 1 549 32
 1967 125e 1B68     		ldr	r3, [r3]
 1968              		.loc 1 549 24
 1969 1260 1C46     		mov	r4, r3
 1970 1262 4FEAE475 		asr	r5, r4, #31
 1971              		.loc 1 549 44
 1972 1266 D7F87C21 		ldr	r2, [r7, #380]
 1973 126a 131D     		adds	r3, r2, #4
 1974 126c C7F87C31 		str	r3, [r7, #380]
 1975              		.loc 1 549 41
 1976 1270 1368     		ldr	r3, [r2]
 1977 1272 1A46     		mov	r2, r3
 1978 1274 4FEAE273 		asr	r3, r2, #31
 1979              		.loc 1 549 38
 1980 1278 02FB05F0 		mul	r0, r2, r5
 1981 127c 04FB03F1 		mul	r1, r4, r3
 1982 1280 0144     		add	r1, r1, r0
 1983 1282 A4FB0223 		umull	r2, r3, r4, r2
 1984 1286 1944     		add	r1, r1, r3
 1985 1288 0B46     		mov	r3, r1
ARM GAS  /tmp/ccwfDUN5.s 			page 46


 548:./Libraries/CMSIS/DSP/Source/FilteringFunctions/arm_correlate_fast_q31.c ****                       ((q63_t) *px++ * (*py++))) >> 32);
 1986              		.loc 1 548 43
 1987 128a 18EB0201 		adds	r1, r8, r2
 1988 128e 3962     		str	r1, [r7, #32]
 1989 1290 49EB0303 		adc	r3, r9, r3
 1990 1294 7B62     		str	r3, [r7, #36]
 1991              		.loc 1 549 50
 1992 1296 4FF00002 		mov	r2, #0
 1993 129a 4FF00003 		mov	r3, #0
 1994 129e D7E90845 		ldrd	r4, [r7, #32]
 1995 12a2 2946     		mov	r1, r5
 1996 12a4 0A00     		movs	r2, r1
 1997 12a6 2946     		mov	r1, r5
 1998 12a8 CB17     		asrs	r3, r1, #31
 548:./Libraries/CMSIS/DSP/Source/FilteringFunctions/arm_correlate_fast_q31.c ****                       ((q63_t) *px++ * (*py++))) >> 32);
 1999              		.loc 1 548 11
 2000 12aa 1346     		mov	r3, r2
 2001 12ac C7F87431 		str	r3, [r7, #372]
 550:./Libraries/CMSIS/DSP/Source/FilteringFunctions/arm_correlate_fast_q31.c **** 
 551:./Libraries/CMSIS/DSP/Source/FilteringFunctions/arm_correlate_fast_q31.c ****       /* sum += x[srcALen - srcBLen + 3] * y[2] */
 552:./Libraries/CMSIS/DSP/Source/FilteringFunctions/arm_correlate_fast_q31.c ****       sum = (q31_t) ((((q63_t) sum << 32) +
 2002              		.loc 1 552 24
 2003 12b0 D7F87431 		ldr	r3, [r7, #372]
 2004 12b4 1A46     		mov	r2, r3
 2005 12b6 4FEAE273 		asr	r3, r2, #31
 2006              		.loc 1 552 36
 2007 12ba 4FF00008 		mov	r8, #0
 2008 12be 4FF00009 		mov	r9, #0
 2009 12c2 9146     		mov	r9, r2
 2010 12c4 4FF00008 		mov	r8, #0
 553:./Libraries/CMSIS/DSP/Source/FilteringFunctions/arm_correlate_fast_q31.c ****                       ((q63_t) *px++ * (*py++))) >> 32);
 2011              		.loc 1 553 35
 2012 12c8 D7F88031 		ldr	r3, [r7, #384]
 2013 12cc 1A1D     		adds	r2, r3, #4
 2014 12ce C7F88021 		str	r2, [r7, #384]
 2015              		.loc 1 553 32
 2016 12d2 1B68     		ldr	r3, [r3]
 2017              		.loc 1 553 24
 2018 12d4 1C46     		mov	r4, r3
 2019 12d6 4FEAE475 		asr	r5, r4, #31
 2020              		.loc 1 553 44
 2021 12da D7F87C21 		ldr	r2, [r7, #380]
 2022 12de 131D     		adds	r3, r2, #4
 2023 12e0 C7F87C31 		str	r3, [r7, #380]
 2024              		.loc 1 553 41
 2025 12e4 1368     		ldr	r3, [r2]
 2026 12e6 1A46     		mov	r2, r3
 2027 12e8 4FEAE273 		asr	r3, r2, #31
 2028              		.loc 1 553 38
 2029 12ec 02FB05F0 		mul	r0, r2, r5
 2030 12f0 04FB03F1 		mul	r1, r4, r3
 2031 12f4 0144     		add	r1, r1, r0
 2032 12f6 A4FB0223 		umull	r2, r3, r4, r2
 2033 12fa 1944     		add	r1, r1, r3
 2034 12fc 0B46     		mov	r3, r1
 552:./Libraries/CMSIS/DSP/Source/FilteringFunctions/arm_correlate_fast_q31.c ****                       ((q63_t) *px++ * (*py++))) >> 32);
 2035              		.loc 1 552 43
ARM GAS  /tmp/ccwfDUN5.s 			page 47


 2036 12fe 18EB0201 		adds	r1, r8, r2
 2037 1302 B961     		str	r1, [r7, #24]
 2038 1304 49EB0303 		adc	r3, r9, r3
 2039 1308 FB61     		str	r3, [r7, #28]
 2040              		.loc 1 553 50
 2041 130a 4FF00002 		mov	r2, #0
 2042 130e 4FF00003 		mov	r3, #0
 2043 1312 D7E90645 		ldrd	r4, [r7, #24]
 2044 1316 2946     		mov	r1, r5
 2045 1318 0A00     		movs	r2, r1
 2046 131a 2946     		mov	r1, r5
 2047 131c CB17     		asrs	r3, r1, #31
 552:./Libraries/CMSIS/DSP/Source/FilteringFunctions/arm_correlate_fast_q31.c ****                       ((q63_t) *px++ * (*py++))) >> 32);
 2048              		.loc 1 552 11
 2049 131e 1346     		mov	r3, r2
 2050 1320 C7F87431 		str	r3, [r7, #372]
 554:./Libraries/CMSIS/DSP/Source/FilteringFunctions/arm_correlate_fast_q31.c **** 
 555:./Libraries/CMSIS/DSP/Source/FilteringFunctions/arm_correlate_fast_q31.c ****       /* sum += x[srcALen - srcBLen + 2] * y[1] */
 556:./Libraries/CMSIS/DSP/Source/FilteringFunctions/arm_correlate_fast_q31.c ****       sum = (q31_t) ((((q63_t) sum << 32) +
 2051              		.loc 1 556 24
 2052 1324 D7F87431 		ldr	r3, [r7, #372]
 2053 1328 1A46     		mov	r2, r3
 2054 132a 4FEAE273 		asr	r3, r2, #31
 2055              		.loc 1 556 36
 2056 132e 4FF00008 		mov	r8, #0
 2057 1332 4FF00009 		mov	r9, #0
 2058 1336 9146     		mov	r9, r2
 2059 1338 4FF00008 		mov	r8, #0
 557:./Libraries/CMSIS/DSP/Source/FilteringFunctions/arm_correlate_fast_q31.c ****                       ((q63_t) *px++ * (*py++))) >> 32);
 2060              		.loc 1 557 35
 2061 133c D7F88031 		ldr	r3, [r7, #384]
 2062 1340 1A1D     		adds	r2, r3, #4
 2063 1342 C7F88021 		str	r2, [r7, #384]
 2064              		.loc 1 557 32
 2065 1346 1B68     		ldr	r3, [r3]
 2066              		.loc 1 557 24
 2067 1348 1C46     		mov	r4, r3
 2068 134a 4FEAE475 		asr	r5, r4, #31
 2069              		.loc 1 557 44
 2070 134e D7F87C21 		ldr	r2, [r7, #380]
 2071 1352 131D     		adds	r3, r2, #4
 2072 1354 C7F87C31 		str	r3, [r7, #380]
 2073              		.loc 1 557 41
 2074 1358 1368     		ldr	r3, [r2]
 2075 135a 1A46     		mov	r2, r3
 2076 135c 4FEAE273 		asr	r3, r2, #31
 2077              		.loc 1 557 38
 2078 1360 02FB05F0 		mul	r0, r2, r5
 2079 1364 04FB03F1 		mul	r1, r4, r3
 2080 1368 0144     		add	r1, r1, r0
 2081 136a A4FB0223 		umull	r2, r3, r4, r2
 2082 136e 1944     		add	r1, r1, r3
 2083 1370 0B46     		mov	r3, r1
 556:./Libraries/CMSIS/DSP/Source/FilteringFunctions/arm_correlate_fast_q31.c ****                       ((q63_t) *px++ * (*py++))) >> 32);
 2084              		.loc 1 556 43
 2085 1372 18EB0201 		adds	r1, r8, r2
 2086 1376 3961     		str	r1, [r7, #16]
ARM GAS  /tmp/ccwfDUN5.s 			page 48


 2087 1378 49EB0303 		adc	r3, r9, r3
 2088 137c 7B61     		str	r3, [r7, #20]
 2089              		.loc 1 557 50
 2090 137e 4FF00002 		mov	r2, #0
 2091 1382 4FF00003 		mov	r3, #0
 2092 1386 D7E90445 		ldrd	r4, [r7, #16]
 2093 138a 2946     		mov	r1, r5
 2094 138c 0A00     		movs	r2, r1
 2095 138e 2946     		mov	r1, r5
 2096 1390 CB17     		asrs	r3, r1, #31
 556:./Libraries/CMSIS/DSP/Source/FilteringFunctions/arm_correlate_fast_q31.c ****                       ((q63_t) *px++ * (*py++))) >> 32);
 2097              		.loc 1 556 11
 2098 1392 1346     		mov	r3, r2
 2099 1394 C7F87431 		str	r3, [r7, #372]
 558:./Libraries/CMSIS/DSP/Source/FilteringFunctions/arm_correlate_fast_q31.c **** 
 559:./Libraries/CMSIS/DSP/Source/FilteringFunctions/arm_correlate_fast_q31.c ****       /* sum += x[srcALen - srcBLen + 1] * y[0] */
 560:./Libraries/CMSIS/DSP/Source/FilteringFunctions/arm_correlate_fast_q31.c ****       sum = (q31_t) ((((q63_t) sum << 32) +
 2100              		.loc 1 560 24
 2101 1398 D7F87431 		ldr	r3, [r7, #372]
 2102 139c 1A46     		mov	r2, r3
 2103 139e 4FEAE273 		asr	r3, r2, #31
 2104              		.loc 1 560 36
 2105 13a2 4FF00008 		mov	r8, #0
 2106 13a6 4FF00009 		mov	r9, #0
 2107 13aa 9146     		mov	r9, r2
 2108 13ac 4FF00008 		mov	r8, #0
 561:./Libraries/CMSIS/DSP/Source/FilteringFunctions/arm_correlate_fast_q31.c ****                       ((q63_t) *px++ * (*py++))) >> 32);
 2109              		.loc 1 561 35
 2110 13b0 D7F88031 		ldr	r3, [r7, #384]
 2111 13b4 1A1D     		adds	r2, r3, #4
 2112 13b6 C7F88021 		str	r2, [r7, #384]
 2113              		.loc 1 561 32
 2114 13ba 1B68     		ldr	r3, [r3]
 2115              		.loc 1 561 24
 2116 13bc 1C46     		mov	r4, r3
 2117 13be 4FEAE475 		asr	r5, r4, #31
 2118              		.loc 1 561 44
 2119 13c2 D7F87C21 		ldr	r2, [r7, #380]
 2120 13c6 131D     		adds	r3, r2, #4
 2121 13c8 C7F87C31 		str	r3, [r7, #380]
 2122              		.loc 1 561 41
 2123 13cc 1368     		ldr	r3, [r2]
 2124 13ce 1A46     		mov	r2, r3
 2125 13d0 4FEAE273 		asr	r3, r2, #31
 2126              		.loc 1 561 38
 2127 13d4 02FB05F0 		mul	r0, r2, r5
 2128 13d8 04FB03F1 		mul	r1, r4, r3
 2129 13dc 0144     		add	r1, r1, r0
 2130 13de A4FB0223 		umull	r2, r3, r4, r2
 2131 13e2 1944     		add	r1, r1, r3
 2132 13e4 0B46     		mov	r3, r1
 560:./Libraries/CMSIS/DSP/Source/FilteringFunctions/arm_correlate_fast_q31.c ****                       ((q63_t) *px++ * (*py++))) >> 32);
 2133              		.loc 1 560 43
 2134 13e6 18EB0201 		adds	r1, r8, r2
 2135 13ea B960     		str	r1, [r7, #8]
 2136 13ec 49EB0303 		adc	r3, r9, r3
 2137 13f0 FB60     		str	r3, [r7, #12]
ARM GAS  /tmp/ccwfDUN5.s 			page 49


 2138              		.loc 1 561 50
 2139 13f2 4FF00002 		mov	r2, #0
 2140 13f6 4FF00003 		mov	r3, #0
 2141 13fa D7E90245 		ldrd	r4, [r7, #8]
 2142 13fe 2946     		mov	r1, r5
 2143 1400 0A00     		movs	r2, r1
 2144 1402 2946     		mov	r1, r5
 2145 1404 CB17     		asrs	r3, r1, #31
 560:./Libraries/CMSIS/DSP/Source/FilteringFunctions/arm_correlate_fast_q31.c ****                       ((q63_t) *px++ * (*py++))) >> 32);
 2146              		.loc 1 560 11
 2147 1406 1346     		mov	r3, r2
 2148 1408 C7F87431 		str	r3, [r7, #372]
 562:./Libraries/CMSIS/DSP/Source/FilteringFunctions/arm_correlate_fast_q31.c **** 
 563:./Libraries/CMSIS/DSP/Source/FilteringFunctions/arm_correlate_fast_q31.c ****       /* Decrement loop counter */
 564:./Libraries/CMSIS/DSP/Source/FilteringFunctions/arm_correlate_fast_q31.c ****       k--;
 2149              		.loc 1 564 8
 2150 140c D7F84C31 		ldr	r3, [r7, #332]
 2151 1410 013B     		subs	r3, r3, #1
 2152 1412 C7F84C31 		str	r3, [r7, #332]
 2153              	.L28:
 544:./Libraries/CMSIS/DSP/Source/FilteringFunctions/arm_correlate_fast_q31.c ****     {
 2154              		.loc 1 544 11
 2155 1416 D7F84C31 		ldr	r3, [r7, #332]
 2156 141a 002B     		cmp	r3, #0
 2157 141c 7FF40EAF 		bne	.L29
 565:./Libraries/CMSIS/DSP/Source/FilteringFunctions/arm_correlate_fast_q31.c ****     }
 566:./Libraries/CMSIS/DSP/Source/FilteringFunctions/arm_correlate_fast_q31.c **** 
 567:./Libraries/CMSIS/DSP/Source/FilteringFunctions/arm_correlate_fast_q31.c ****     /* If the count is not a multiple of 4, compute any remaining MACs here.
 568:./Libraries/CMSIS/DSP/Source/FilteringFunctions/arm_correlate_fast_q31.c ****      ** No loop unrolling is used. */
 569:./Libraries/CMSIS/DSP/Source/FilteringFunctions/arm_correlate_fast_q31.c ****     k = count % 0x4U;
 2158              		.loc 1 569 7
 2159 1420 D7F84831 		ldr	r3, [r7, #328]
 2160 1424 03F00303 		and	r3, r3, #3
 2161 1428 C7F84C31 		str	r3, [r7, #332]
 570:./Libraries/CMSIS/DSP/Source/FilteringFunctions/arm_correlate_fast_q31.c **** 
 571:./Libraries/CMSIS/DSP/Source/FilteringFunctions/arm_correlate_fast_q31.c ****     while (k > 0U)
 2162              		.loc 1 571 11
 2163 142c 3EE0     		b	.L30
 2164              	.L31:
 572:./Libraries/CMSIS/DSP/Source/FilteringFunctions/arm_correlate_fast_q31.c ****     {
 573:./Libraries/CMSIS/DSP/Source/FilteringFunctions/arm_correlate_fast_q31.c ****       /* Perform the multiply-accumulate */
 574:./Libraries/CMSIS/DSP/Source/FilteringFunctions/arm_correlate_fast_q31.c ****       sum = (q31_t) ((((q63_t) sum << 32) +
 2165              		.loc 1 574 24
 2166 142e D7F87431 		ldr	r3, [r7, #372]
 2167 1432 1A46     		mov	r2, r3
 2168 1434 4FEAE273 		asr	r3, r2, #31
 2169              		.loc 1 574 36
 2170 1438 4FF00008 		mov	r8, #0
 2171 143c 4FF00009 		mov	r9, #0
 2172 1440 9146     		mov	r9, r2
 2173 1442 4FF00008 		mov	r8, #0
 575:./Libraries/CMSIS/DSP/Source/FilteringFunctions/arm_correlate_fast_q31.c ****                       ((q63_t) *px++ * (*py++))) >> 32);
 2174              		.loc 1 575 35
 2175 1446 D7F88031 		ldr	r3, [r7, #384]
 2176 144a 1A1D     		adds	r2, r3, #4
 2177 144c C7F88021 		str	r2, [r7, #384]
 2178              		.loc 1 575 32
ARM GAS  /tmp/ccwfDUN5.s 			page 50


 2179 1450 1B68     		ldr	r3, [r3]
 2180              		.loc 1 575 24
 2181 1452 1C46     		mov	r4, r3
 2182 1454 4FEAE475 		asr	r5, r4, #31
 2183              		.loc 1 575 44
 2184 1458 D7F87C21 		ldr	r2, [r7, #380]
 2185 145c 131D     		adds	r3, r2, #4
 2186 145e C7F87C31 		str	r3, [r7, #380]
 2187              		.loc 1 575 41
 2188 1462 1368     		ldr	r3, [r2]
 2189 1464 1A46     		mov	r2, r3
 2190 1466 4FEAE273 		asr	r3, r2, #31
 2191              		.loc 1 575 38
 2192 146a 02FB05F0 		mul	r0, r2, r5
 2193 146e 04FB03F1 		mul	r1, r4, r3
 2194 1472 0144     		add	r1, r1, r0
 2195 1474 A4FB0223 		umull	r2, r3, r4, r2
 2196 1478 1944     		add	r1, r1, r3
 2197 147a 0B46     		mov	r3, r1
 574:./Libraries/CMSIS/DSP/Source/FilteringFunctions/arm_correlate_fast_q31.c ****                       ((q63_t) *px++ * (*py++))) >> 32);
 2198              		.loc 1 574 43
 2199 147c 18EB0201 		adds	r1, r8, r2
 2200 1480 3960     		str	r1, [r7]
 2201 1482 49EB0303 		adc	r3, r9, r3
 2202 1486 7B60     		str	r3, [r7, #4]
 2203              		.loc 1 575 50
 2204 1488 4FF00002 		mov	r2, #0
 2205 148c 4FF00003 		mov	r3, #0
 2206 1490 D7E90045 		ldrd	r4, [r7]
 2207 1494 2946     		mov	r1, r5
 2208 1496 0A00     		movs	r2, r1
 2209 1498 2946     		mov	r1, r5
 2210 149a CB17     		asrs	r3, r1, #31
 574:./Libraries/CMSIS/DSP/Source/FilteringFunctions/arm_correlate_fast_q31.c ****                       ((q63_t) *px++ * (*py++))) >> 32);
 2211              		.loc 1 574 11
 2212 149c 1346     		mov	r3, r2
 2213 149e C7F87431 		str	r3, [r7, #372]
 576:./Libraries/CMSIS/DSP/Source/FilteringFunctions/arm_correlate_fast_q31.c **** 
 577:./Libraries/CMSIS/DSP/Source/FilteringFunctions/arm_correlate_fast_q31.c ****       /* Decrement loop counter */
 578:./Libraries/CMSIS/DSP/Source/FilteringFunctions/arm_correlate_fast_q31.c ****       k--;
 2214              		.loc 1 578 8
 2215 14a2 D7F84C31 		ldr	r3, [r7, #332]
 2216 14a6 013B     		subs	r3, r3, #1
 2217 14a8 C7F84C31 		str	r3, [r7, #332]
 2218              	.L30:
 571:./Libraries/CMSIS/DSP/Source/FilteringFunctions/arm_correlate_fast_q31.c ****     {
 2219              		.loc 1 571 11
 2220 14ac D7F84C31 		ldr	r3, [r7, #332]
 2221 14b0 002B     		cmp	r3, #0
 2222 14b2 BCD1     		bne	.L31
 579:./Libraries/CMSIS/DSP/Source/FilteringFunctions/arm_correlate_fast_q31.c ****     }
 580:./Libraries/CMSIS/DSP/Source/FilteringFunctions/arm_correlate_fast_q31.c **** 
 581:./Libraries/CMSIS/DSP/Source/FilteringFunctions/arm_correlate_fast_q31.c ****     /* Store the result in the accumulator in the destination buffer. */
 582:./Libraries/CMSIS/DSP/Source/FilteringFunctions/arm_correlate_fast_q31.c ****     *pOut = sum << 1;
 2223              		.loc 1 582 17
 2224 14b4 D7F87431 		ldr	r3, [r7, #372]
 2225 14b8 5A00     		lsls	r2, r3, #1
ARM GAS  /tmp/ccwfDUN5.s 			page 51


 2226              		.loc 1 582 11
 2227 14ba D7F88431 		ldr	r3, [r7, #388]
 2228 14be 1A60     		str	r2, [r3]
 583:./Libraries/CMSIS/DSP/Source/FilteringFunctions/arm_correlate_fast_q31.c ****     /* Destination pointer is updated according to the address modifier, inc */
 584:./Libraries/CMSIS/DSP/Source/FilteringFunctions/arm_correlate_fast_q31.c ****     pOut += inc;
 2229              		.loc 1 584 10
 2230 14c0 D7F84031 		ldr	r3, [r7, #320]
 2231 14c4 9B00     		lsls	r3, r3, #2
 2232 14c6 D7F88421 		ldr	r2, [r7, #388]
 2233 14ca 1344     		add	r3, r3, r2
 2234 14cc C7F88431 		str	r3, [r7, #388]
 585:./Libraries/CMSIS/DSP/Source/FilteringFunctions/arm_correlate_fast_q31.c **** 
 586:./Libraries/CMSIS/DSP/Source/FilteringFunctions/arm_correlate_fast_q31.c ****     /* Update the inputA and inputB pointers for next MAC calculation */
 587:./Libraries/CMSIS/DSP/Source/FilteringFunctions/arm_correlate_fast_q31.c ****     px = ++pSrc1;
 2235              		.loc 1 587 8
 2236 14d0 D7F87831 		ldr	r3, [r7, #376]
 2237 14d4 0433     		adds	r3, r3, #4
 2238 14d6 C7F87831 		str	r3, [r7, #376]
 2239 14da D7F87831 		ldr	r3, [r7, #376]
 2240 14de C7F88031 		str	r3, [r7, #384]
 588:./Libraries/CMSIS/DSP/Source/FilteringFunctions/arm_correlate_fast_q31.c ****     py = pIn2;
 2241              		.loc 1 588 8
 2242 14e2 D7F88831 		ldr	r3, [r7, #392]
 2243 14e6 C7F87C31 		str	r3, [r7, #380]
 589:./Libraries/CMSIS/DSP/Source/FilteringFunctions/arm_correlate_fast_q31.c **** 
 590:./Libraries/CMSIS/DSP/Source/FilteringFunctions/arm_correlate_fast_q31.c ****     /* Decrement MAC count */
 591:./Libraries/CMSIS/DSP/Source/FilteringFunctions/arm_correlate_fast_q31.c ****     count--;
 2244              		.loc 1 591 10
 2245 14ea D7F84831 		ldr	r3, [r7, #328]
 2246 14ee 013B     		subs	r3, r3, #1
 2247 14f0 C7F84831 		str	r3, [r7, #328]
 592:./Libraries/CMSIS/DSP/Source/FilteringFunctions/arm_correlate_fast_q31.c **** 
 593:./Libraries/CMSIS/DSP/Source/FilteringFunctions/arm_correlate_fast_q31.c ****     /* Decrement loop counter */
 594:./Libraries/CMSIS/DSP/Source/FilteringFunctions/arm_correlate_fast_q31.c ****     blockSize3--;
 2248              		.loc 1 594 15
 2249 14f4 D7F85031 		ldr	r3, [r7, #336]
 2250 14f8 013B     		subs	r3, r3, #1
 2251 14fa C7F85031 		str	r3, [r7, #336]
 2252              	.L27:
 534:./Libraries/CMSIS/DSP/Source/FilteringFunctions/arm_correlate_fast_q31.c ****   {
 2253              		.loc 1 534 9
 2254 14fe D7F85031 		ldr	r3, [r7, #336]
 2255 1502 002B     		cmp	r3, #0
 2256 1504 7FF491AE 		bne	.L32
 595:./Libraries/CMSIS/DSP/Source/FilteringFunctions/arm_correlate_fast_q31.c ****   }
 596:./Libraries/CMSIS/DSP/Source/FilteringFunctions/arm_correlate_fast_q31.c **** 
 597:./Libraries/CMSIS/DSP/Source/FilteringFunctions/arm_correlate_fast_q31.c **** }
 2257              		.loc 1 597 1
 2258 1508 00BF     		nop
 2259 150a 00BF     		nop
 2260 150c 07F5CA77 		add	r7, r7, #404
 2261              	.LCFI3:
 2262              		.cfi_def_cfa_offset 28
 2263 1510 BD46     		mov	sp, r7
 2264              	.LCFI4:
 2265              		.cfi_def_cfa_register 13
 2266              		@ sp needed
ARM GAS  /tmp/ccwfDUN5.s 			page 52


 2267 1512 BDE8B00F 		pop	{r4, r5, r7, r8, r9, r10, fp}
 2268              	.LCFI5:
 2269              		.cfi_restore 11
 2270              		.cfi_restore 10
 2271              		.cfi_restore 9
 2272              		.cfi_restore 8
 2273              		.cfi_restore 7
 2274              		.cfi_restore 5
 2275              		.cfi_restore 4
 2276              		.cfi_def_cfa_offset 0
 2277 1516 7047     		bx	lr
 2278              		.cfi_endproc
 2279              	.LFE145:
 2281              		.text
 2282              	.Letext0:
 2283              		.file 2 "/usr/lib/gcc/arm-none-eabi/9.2.1/include/stdint.h"
 2284              		.file 3 "/usr/lib/gcc/arm-none-eabi/9.2.1/include/stddef.h"
 2285              		.file 4 "/usr/include/newlib/sys/_types.h"
 2286              		.file 5 "/usr/include/newlib/sys/reent.h"
 2287              		.file 6 "/usr/include/newlib/sys/lock.h"
 2288              		.file 7 "/usr/include/newlib/math.h"
 2289              		.file 8 "./Libraries/CMSIS/DSP/Include/arm_math.h"
ARM GAS  /tmp/ccwfDUN5.s 			page 53

