ARM GAS  /tmp/ccQilWLo.s 			page 1


   1              		.cpu cortex-m7
   2              		.eabi_attribute 28, 1
   3              		.eabi_attribute 20, 1
   4              		.eabi_attribute 21, 1
   5              		.eabi_attribute 23, 3
   6              		.eabi_attribute 24, 1
   7              		.eabi_attribute 25, 1
   8              		.eabi_attribute 26, 1
   9              		.eabi_attribute 30, 6
  10              		.eabi_attribute 34, 1
  11              		.eabi_attribute 18, 4
  12              		.file	"arm_fir_q31.c"
  13              		.text
  14              	.Ltext0:
  15              		.cfi_sections	.debug_frame
  16              		.section	.text.arm_fir_q31,"ax",%progbits
  17              		.align	1
  18              		.global	arm_fir_q31
  19              		.arch armv7e-m
  20              		.syntax unified
  21              		.thumb
  22              		.thumb_func
  23              		.fpu fpv5-d16
  25              	arm_fir_q31:
  26              	.LFB145:
  27              		.file 1 "./Libraries/CMSIS/DSP/Source/FilteringFunctions/arm_fir_q31.c"
   1:./Libraries/CMSIS/DSP/Source/FilteringFunctions/arm_fir_q31.c **** /* ----------------------------------------------------------------------
   2:./Libraries/CMSIS/DSP/Source/FilteringFunctions/arm_fir_q31.c ****  * Project:      CMSIS DSP Library
   3:./Libraries/CMSIS/DSP/Source/FilteringFunctions/arm_fir_q31.c ****  * Title:        arm_fir_q31.c
   4:./Libraries/CMSIS/DSP/Source/FilteringFunctions/arm_fir_q31.c ****  * Description:  Q31 FIR filter processing function
   5:./Libraries/CMSIS/DSP/Source/FilteringFunctions/arm_fir_q31.c ****  *
   6:./Libraries/CMSIS/DSP/Source/FilteringFunctions/arm_fir_q31.c ****  * $Date:        18. March 2019
   7:./Libraries/CMSIS/DSP/Source/FilteringFunctions/arm_fir_q31.c ****  * $Revision:    V1.6.0
   8:./Libraries/CMSIS/DSP/Source/FilteringFunctions/arm_fir_q31.c ****  *
   9:./Libraries/CMSIS/DSP/Source/FilteringFunctions/arm_fir_q31.c ****  * Target Processor: Cortex-M cores
  10:./Libraries/CMSIS/DSP/Source/FilteringFunctions/arm_fir_q31.c ****  * -------------------------------------------------------------------- */
  11:./Libraries/CMSIS/DSP/Source/FilteringFunctions/arm_fir_q31.c **** /*
  12:./Libraries/CMSIS/DSP/Source/FilteringFunctions/arm_fir_q31.c ****  * Copyright (C) 2010-2019 ARM Limited or its affiliates. All rights reserved.
  13:./Libraries/CMSIS/DSP/Source/FilteringFunctions/arm_fir_q31.c ****  *
  14:./Libraries/CMSIS/DSP/Source/FilteringFunctions/arm_fir_q31.c ****  * SPDX-License-Identifier: Apache-2.0
  15:./Libraries/CMSIS/DSP/Source/FilteringFunctions/arm_fir_q31.c ****  *
  16:./Libraries/CMSIS/DSP/Source/FilteringFunctions/arm_fir_q31.c ****  * Licensed under the Apache License, Version 2.0 (the License); you may
  17:./Libraries/CMSIS/DSP/Source/FilteringFunctions/arm_fir_q31.c ****  * not use this file except in compliance with the License.
  18:./Libraries/CMSIS/DSP/Source/FilteringFunctions/arm_fir_q31.c ****  * You may obtain a copy of the License at
  19:./Libraries/CMSIS/DSP/Source/FilteringFunctions/arm_fir_q31.c ****  *
  20:./Libraries/CMSIS/DSP/Source/FilteringFunctions/arm_fir_q31.c ****  * www.apache.org/licenses/LICENSE-2.0
  21:./Libraries/CMSIS/DSP/Source/FilteringFunctions/arm_fir_q31.c ****  *
  22:./Libraries/CMSIS/DSP/Source/FilteringFunctions/arm_fir_q31.c ****  * Unless required by applicable law or agreed to in writing, software
  23:./Libraries/CMSIS/DSP/Source/FilteringFunctions/arm_fir_q31.c ****  * distributed under the License is distributed on an AS IS BASIS, WITHOUT
  24:./Libraries/CMSIS/DSP/Source/FilteringFunctions/arm_fir_q31.c ****  * WARRANTIES OR CONDITIONS OF ANY KIND, either express or implied.
  25:./Libraries/CMSIS/DSP/Source/FilteringFunctions/arm_fir_q31.c ****  * See the License for the specific language governing permissions and
  26:./Libraries/CMSIS/DSP/Source/FilteringFunctions/arm_fir_q31.c ****  * limitations under the License.
  27:./Libraries/CMSIS/DSP/Source/FilteringFunctions/arm_fir_q31.c ****  */
  28:./Libraries/CMSIS/DSP/Source/FilteringFunctions/arm_fir_q31.c **** 
  29:./Libraries/CMSIS/DSP/Source/FilteringFunctions/arm_fir_q31.c **** #include "arm_math.h"
  30:./Libraries/CMSIS/DSP/Source/FilteringFunctions/arm_fir_q31.c **** 
  31:./Libraries/CMSIS/DSP/Source/FilteringFunctions/arm_fir_q31.c **** /**
ARM GAS  /tmp/ccQilWLo.s 			page 2


  32:./Libraries/CMSIS/DSP/Source/FilteringFunctions/arm_fir_q31.c ****   @ingroup groupFilters
  33:./Libraries/CMSIS/DSP/Source/FilteringFunctions/arm_fir_q31.c ****  */
  34:./Libraries/CMSIS/DSP/Source/FilteringFunctions/arm_fir_q31.c **** 
  35:./Libraries/CMSIS/DSP/Source/FilteringFunctions/arm_fir_q31.c **** /**
  36:./Libraries/CMSIS/DSP/Source/FilteringFunctions/arm_fir_q31.c ****   @addtogroup FIR
  37:./Libraries/CMSIS/DSP/Source/FilteringFunctions/arm_fir_q31.c ****   @{
  38:./Libraries/CMSIS/DSP/Source/FilteringFunctions/arm_fir_q31.c ****  */
  39:./Libraries/CMSIS/DSP/Source/FilteringFunctions/arm_fir_q31.c **** 
  40:./Libraries/CMSIS/DSP/Source/FilteringFunctions/arm_fir_q31.c **** /**
  41:./Libraries/CMSIS/DSP/Source/FilteringFunctions/arm_fir_q31.c ****   @brief         Processing function for Q31 FIR filter.
  42:./Libraries/CMSIS/DSP/Source/FilteringFunctions/arm_fir_q31.c ****   @param[in]     S          points to an instance of the Q31 FIR filter structure
  43:./Libraries/CMSIS/DSP/Source/FilteringFunctions/arm_fir_q31.c ****   @param[in]     pSrc       points to the block of input data
  44:./Libraries/CMSIS/DSP/Source/FilteringFunctions/arm_fir_q31.c ****   @param[out]    pDst       points to the block of output data
  45:./Libraries/CMSIS/DSP/Source/FilteringFunctions/arm_fir_q31.c ****   @param[in]     blockSize  number of samples to process
  46:./Libraries/CMSIS/DSP/Source/FilteringFunctions/arm_fir_q31.c ****   @return        none
  47:./Libraries/CMSIS/DSP/Source/FilteringFunctions/arm_fir_q31.c **** 
  48:./Libraries/CMSIS/DSP/Source/FilteringFunctions/arm_fir_q31.c ****   @par           Scaling and Overflow Behavior
  49:./Libraries/CMSIS/DSP/Source/FilteringFunctions/arm_fir_q31.c ****                    The function is implemented using an internal 64-bit accumulator.
  50:./Libraries/CMSIS/DSP/Source/FilteringFunctions/arm_fir_q31.c ****                    The accumulator has a 2.62 format and maintains full precision of the intermedia
  51:./Libraries/CMSIS/DSP/Source/FilteringFunctions/arm_fir_q31.c ****                    Thus, if the accumulator result overflows it wraps around rather than clip.
  52:./Libraries/CMSIS/DSP/Source/FilteringFunctions/arm_fir_q31.c ****                    In order to avoid overflows completely the input signal must be scaled down by l
  53:./Libraries/CMSIS/DSP/Source/FilteringFunctions/arm_fir_q31.c ****                    After all multiply-accumulates are performed, the 2.62 accumulator is right shif
  54:./Libraries/CMSIS/DSP/Source/FilteringFunctions/arm_fir_q31.c **** 
  55:./Libraries/CMSIS/DSP/Source/FilteringFunctions/arm_fir_q31.c ****  @remark
  56:./Libraries/CMSIS/DSP/Source/FilteringFunctions/arm_fir_q31.c ****                    Refer to \ref arm_fir_fast_q31() for a faster but less precise implementation of
  57:./Libraries/CMSIS/DSP/Source/FilteringFunctions/arm_fir_q31.c ****  */
  58:./Libraries/CMSIS/DSP/Source/FilteringFunctions/arm_fir_q31.c **** 
  59:./Libraries/CMSIS/DSP/Source/FilteringFunctions/arm_fir_q31.c **** void arm_fir_q31(
  60:./Libraries/CMSIS/DSP/Source/FilteringFunctions/arm_fir_q31.c ****   const arm_fir_instance_q31 * S,
  61:./Libraries/CMSIS/DSP/Source/FilteringFunctions/arm_fir_q31.c ****   const q31_t * pSrc,
  62:./Libraries/CMSIS/DSP/Source/FilteringFunctions/arm_fir_q31.c ****         q31_t * pDst,
  63:./Libraries/CMSIS/DSP/Source/FilteringFunctions/arm_fir_q31.c ****         uint32_t blockSize)
  64:./Libraries/CMSIS/DSP/Source/FilteringFunctions/arm_fir_q31.c **** {
  28              		.loc 1 64 1
  29              		.cfi_startproc
  30              		@ args = 0, pretend = 0, frame = 64
  31              		@ frame_needed = 1, uses_anonymous_args = 0
  32              		@ link register save eliminated.
  33 0000 F0B4     		push	{r4, r5, r6, r7}
  34              	.LCFI0:
  35              		.cfi_def_cfa_offset 16
  36              		.cfi_offset 4, -16
  37              		.cfi_offset 5, -12
  38              		.cfi_offset 6, -8
  39              		.cfi_offset 7, -4
  40 0002 90B0     		sub	sp, sp, #64
  41              	.LCFI1:
  42              		.cfi_def_cfa_offset 80
  43 0004 00AF     		add	r7, sp, #0
  44              	.LCFI2:
  45              		.cfi_def_cfa_register 7
  46 0006 F860     		str	r0, [r7, #12]
  47 0008 B960     		str	r1, [r7, #8]
  48 000a 7A60     		str	r2, [r7, #4]
  49 000c 3B60     		str	r3, [r7]
  65:./Libraries/CMSIS/DSP/Source/FilteringFunctions/arm_fir_q31.c ****         q31_t *pState = S->pState;                     /* State pointer */
  50              		.loc 1 65 16
ARM GAS  /tmp/ccQilWLo.s 			page 3


  51 000e FB68     		ldr	r3, [r7, #12]
  52 0010 5B68     		ldr	r3, [r3, #4]
  53 0012 FB63     		str	r3, [r7, #60]
  66:./Libraries/CMSIS/DSP/Source/FilteringFunctions/arm_fir_q31.c ****   const q31_t *pCoeffs = S->pCoeffs;                   /* Coefficient pointer */
  54              		.loc 1 66 16
  55 0014 FB68     		ldr	r3, [r7, #12]
  56 0016 9B68     		ldr	r3, [r3, #8]
  57 0018 BB61     		str	r3, [r7, #24]
  67:./Libraries/CMSIS/DSP/Source/FilteringFunctions/arm_fir_q31.c ****         q31_t *pStateCurnt;                            /* Points to the current sample of the state
  68:./Libraries/CMSIS/DSP/Source/FilteringFunctions/arm_fir_q31.c ****         q31_t *px;                                     /* Temporary pointer for state buffer */
  69:./Libraries/CMSIS/DSP/Source/FilteringFunctions/arm_fir_q31.c ****   const q31_t *pb;                                     /* Temporary pointer for coefficient buffer 
  70:./Libraries/CMSIS/DSP/Source/FilteringFunctions/arm_fir_q31.c ****         q63_t acc0;                                    /* Accumulator */
  71:./Libraries/CMSIS/DSP/Source/FilteringFunctions/arm_fir_q31.c ****         uint32_t numTaps = S->numTaps;                 /* Number of filter coefficients in the filt
  58              		.loc 1 71 29
  59 001a FB68     		ldr	r3, [r7, #12]
  60 001c 1B88     		ldrh	r3, [r3]
  61              		.loc 1 71 18
  62 001e 7B61     		str	r3, [r7, #20]
  72:./Libraries/CMSIS/DSP/Source/FilteringFunctions/arm_fir_q31.c ****         uint32_t i, tapCnt, blkCnt;                    /* Loop counters */
  73:./Libraries/CMSIS/DSP/Source/FilteringFunctions/arm_fir_q31.c **** 
  74:./Libraries/CMSIS/DSP/Source/FilteringFunctions/arm_fir_q31.c **** #if defined (ARM_MATH_LOOPUNROLL)
  75:./Libraries/CMSIS/DSP/Source/FilteringFunctions/arm_fir_q31.c ****         q63_t acc1, acc2;                              /* Accumulators */
  76:./Libraries/CMSIS/DSP/Source/FilteringFunctions/arm_fir_q31.c ****         q31_t x0, x1, x2;                              /* Temporary variables to hold state values 
  77:./Libraries/CMSIS/DSP/Source/FilteringFunctions/arm_fir_q31.c ****         q31_t c0;                                      /* Temporary variable to hold coefficient va
  78:./Libraries/CMSIS/DSP/Source/FilteringFunctions/arm_fir_q31.c **** #endif
  79:./Libraries/CMSIS/DSP/Source/FilteringFunctions/arm_fir_q31.c **** 
  80:./Libraries/CMSIS/DSP/Source/FilteringFunctions/arm_fir_q31.c ****   /* S->pState points to state array which contains previous frame (numTaps - 1) samples */
  81:./Libraries/CMSIS/DSP/Source/FilteringFunctions/arm_fir_q31.c ****   /* pStateCurnt points to the location where the new input data should be written */
  82:./Libraries/CMSIS/DSP/Source/FilteringFunctions/arm_fir_q31.c ****   pStateCurnt = &(S->pState[(numTaps - 1U)]);
  63              		.loc 1 82 20
  64 0020 FB68     		ldr	r3, [r7, #12]
  65 0022 5A68     		ldr	r2, [r3, #4]
  66              		.loc 1 82 28
  67 0024 7969     		ldr	r1, [r7, #20]
  68 0026 6FF04043 		mvn	r3, #-1073741824
  69 002a 0B44     		add	r3, r3, r1
  70 002c 9B00     		lsls	r3, r3, #2
  71              		.loc 1 82 15
  72 002e 1344     		add	r3, r3, r2
  73 0030 BB63     		str	r3, [r7, #56]
  83:./Libraries/CMSIS/DSP/Source/FilteringFunctions/arm_fir_q31.c **** 
  84:./Libraries/CMSIS/DSP/Source/FilteringFunctions/arm_fir_q31.c **** #if defined (ARM_MATH_LOOPUNROLL)
  85:./Libraries/CMSIS/DSP/Source/FilteringFunctions/arm_fir_q31.c **** 
  86:./Libraries/CMSIS/DSP/Source/FilteringFunctions/arm_fir_q31.c ****   /* Loop unrolling: Compute 4 output values simultaneously.
  87:./Libraries/CMSIS/DSP/Source/FilteringFunctions/arm_fir_q31.c ****    * The variables acc0 ... acc3 hold output values that are being computed:
  88:./Libraries/CMSIS/DSP/Source/FilteringFunctions/arm_fir_q31.c ****    *
  89:./Libraries/CMSIS/DSP/Source/FilteringFunctions/arm_fir_q31.c ****    *    acc0 =  b[numTaps-1] * x[n-numTaps-1] + b[numTaps-2] * x[n-numTaps-2] + b[numTaps-3] * x[n-
  90:./Libraries/CMSIS/DSP/Source/FilteringFunctions/arm_fir_q31.c ****    *    acc1 =  b[numTaps-1] * x[n-numTaps]   + b[numTaps-2] * x[n-numTaps-1] + b[numTaps-3] * x[n-
  91:./Libraries/CMSIS/DSP/Source/FilteringFunctions/arm_fir_q31.c ****    *    acc2 =  b[numTaps-1] * x[n-numTaps+1] + b[numTaps-2] * x[n-numTaps]   + b[numTaps-3] * x[n-
  92:./Libraries/CMSIS/DSP/Source/FilteringFunctions/arm_fir_q31.c ****    *    acc3 =  b[numTaps-1] * x[n-numTaps+2] + b[numTaps-2] * x[n-numTaps+1] + b[numTaps-3] * x[n-
  93:./Libraries/CMSIS/DSP/Source/FilteringFunctions/arm_fir_q31.c ****    */
  94:./Libraries/CMSIS/DSP/Source/FilteringFunctions/arm_fir_q31.c **** 
  95:./Libraries/CMSIS/DSP/Source/FilteringFunctions/arm_fir_q31.c ****   blkCnt = blockSize / 3;
  96:./Libraries/CMSIS/DSP/Source/FilteringFunctions/arm_fir_q31.c **** 
  97:./Libraries/CMSIS/DSP/Source/FilteringFunctions/arm_fir_q31.c ****   while (blkCnt > 0U)
  98:./Libraries/CMSIS/DSP/Source/FilteringFunctions/arm_fir_q31.c ****   {
  99:./Libraries/CMSIS/DSP/Source/FilteringFunctions/arm_fir_q31.c ****     /* Copy 3 new input samples into the state buffer. */
ARM GAS  /tmp/ccQilWLo.s 			page 4


 100:./Libraries/CMSIS/DSP/Source/FilteringFunctions/arm_fir_q31.c ****     *pStateCurnt++ = *pSrc++;
 101:./Libraries/CMSIS/DSP/Source/FilteringFunctions/arm_fir_q31.c ****     *pStateCurnt++ = *pSrc++;
 102:./Libraries/CMSIS/DSP/Source/FilteringFunctions/arm_fir_q31.c ****     *pStateCurnt++ = *pSrc++;
 103:./Libraries/CMSIS/DSP/Source/FilteringFunctions/arm_fir_q31.c **** 
 104:./Libraries/CMSIS/DSP/Source/FilteringFunctions/arm_fir_q31.c ****     /* Set all accumulators to zero */
 105:./Libraries/CMSIS/DSP/Source/FilteringFunctions/arm_fir_q31.c ****     acc0 = 0;
 106:./Libraries/CMSIS/DSP/Source/FilteringFunctions/arm_fir_q31.c ****     acc1 = 0;
 107:./Libraries/CMSIS/DSP/Source/FilteringFunctions/arm_fir_q31.c ****     acc2 = 0;
 108:./Libraries/CMSIS/DSP/Source/FilteringFunctions/arm_fir_q31.c **** 
 109:./Libraries/CMSIS/DSP/Source/FilteringFunctions/arm_fir_q31.c ****     /* Initialize state pointer */
 110:./Libraries/CMSIS/DSP/Source/FilteringFunctions/arm_fir_q31.c ****     px = pState;
 111:./Libraries/CMSIS/DSP/Source/FilteringFunctions/arm_fir_q31.c **** 
 112:./Libraries/CMSIS/DSP/Source/FilteringFunctions/arm_fir_q31.c ****     /* Initialize coefficient pointer */
 113:./Libraries/CMSIS/DSP/Source/FilteringFunctions/arm_fir_q31.c ****     pb = pCoeffs;
 114:./Libraries/CMSIS/DSP/Source/FilteringFunctions/arm_fir_q31.c **** 
 115:./Libraries/CMSIS/DSP/Source/FilteringFunctions/arm_fir_q31.c ****     /* Read the first 2 samples from the state buffer: x[n-numTaps], x[n-numTaps-1] */
 116:./Libraries/CMSIS/DSP/Source/FilteringFunctions/arm_fir_q31.c ****     x0 = *px++;
 117:./Libraries/CMSIS/DSP/Source/FilteringFunctions/arm_fir_q31.c ****     x1 = *px++;
 118:./Libraries/CMSIS/DSP/Source/FilteringFunctions/arm_fir_q31.c **** 
 119:./Libraries/CMSIS/DSP/Source/FilteringFunctions/arm_fir_q31.c ****     /* Loop unrolling: process 3 taps at a time. */
 120:./Libraries/CMSIS/DSP/Source/FilteringFunctions/arm_fir_q31.c ****     tapCnt = numTaps / 3;
 121:./Libraries/CMSIS/DSP/Source/FilteringFunctions/arm_fir_q31.c **** 
 122:./Libraries/CMSIS/DSP/Source/FilteringFunctions/arm_fir_q31.c ****     while (tapCnt > 0U)
 123:./Libraries/CMSIS/DSP/Source/FilteringFunctions/arm_fir_q31.c ****     {
 124:./Libraries/CMSIS/DSP/Source/FilteringFunctions/arm_fir_q31.c ****       /* Read the b[numTaps] coefficient */
 125:./Libraries/CMSIS/DSP/Source/FilteringFunctions/arm_fir_q31.c ****       c0 = *pb;
 126:./Libraries/CMSIS/DSP/Source/FilteringFunctions/arm_fir_q31.c **** 
 127:./Libraries/CMSIS/DSP/Source/FilteringFunctions/arm_fir_q31.c ****       /* Read x[n-numTaps-2] sample */
 128:./Libraries/CMSIS/DSP/Source/FilteringFunctions/arm_fir_q31.c ****       x2 = *(px++);
 129:./Libraries/CMSIS/DSP/Source/FilteringFunctions/arm_fir_q31.c **** 
 130:./Libraries/CMSIS/DSP/Source/FilteringFunctions/arm_fir_q31.c ****       /* Perform the multiply-accumulates */
 131:./Libraries/CMSIS/DSP/Source/FilteringFunctions/arm_fir_q31.c ****       acc0 += ((q63_t) x0 * c0);
 132:./Libraries/CMSIS/DSP/Source/FilteringFunctions/arm_fir_q31.c ****       acc1 += ((q63_t) x1 * c0);
 133:./Libraries/CMSIS/DSP/Source/FilteringFunctions/arm_fir_q31.c ****       acc2 += ((q63_t) x2 * c0);
 134:./Libraries/CMSIS/DSP/Source/FilteringFunctions/arm_fir_q31.c **** 
 135:./Libraries/CMSIS/DSP/Source/FilteringFunctions/arm_fir_q31.c ****       /* Read the coefficient and state */
 136:./Libraries/CMSIS/DSP/Source/FilteringFunctions/arm_fir_q31.c ****       c0 = *(pb + 1U);
 137:./Libraries/CMSIS/DSP/Source/FilteringFunctions/arm_fir_q31.c ****       x0 = *(px++);
 138:./Libraries/CMSIS/DSP/Source/FilteringFunctions/arm_fir_q31.c **** 
 139:./Libraries/CMSIS/DSP/Source/FilteringFunctions/arm_fir_q31.c ****       /* Perform the multiply-accumulates */
 140:./Libraries/CMSIS/DSP/Source/FilteringFunctions/arm_fir_q31.c ****       acc0 += ((q63_t) x1 * c0);
 141:./Libraries/CMSIS/DSP/Source/FilteringFunctions/arm_fir_q31.c ****       acc1 += ((q63_t) x2 * c0);
 142:./Libraries/CMSIS/DSP/Source/FilteringFunctions/arm_fir_q31.c ****       acc2 += ((q63_t) x0 * c0);
 143:./Libraries/CMSIS/DSP/Source/FilteringFunctions/arm_fir_q31.c **** 
 144:./Libraries/CMSIS/DSP/Source/FilteringFunctions/arm_fir_q31.c ****       /* Read the coefficient and state */
 145:./Libraries/CMSIS/DSP/Source/FilteringFunctions/arm_fir_q31.c ****       c0 = *(pb + 2U);
 146:./Libraries/CMSIS/DSP/Source/FilteringFunctions/arm_fir_q31.c ****       x1 = *(px++);
 147:./Libraries/CMSIS/DSP/Source/FilteringFunctions/arm_fir_q31.c **** 
 148:./Libraries/CMSIS/DSP/Source/FilteringFunctions/arm_fir_q31.c ****       /* update coefficient pointer */
 149:./Libraries/CMSIS/DSP/Source/FilteringFunctions/arm_fir_q31.c ****       pb += 3U;
 150:./Libraries/CMSIS/DSP/Source/FilteringFunctions/arm_fir_q31.c **** 
 151:./Libraries/CMSIS/DSP/Source/FilteringFunctions/arm_fir_q31.c ****       /* Perform the multiply-accumulates */
 152:./Libraries/CMSIS/DSP/Source/FilteringFunctions/arm_fir_q31.c ****       acc0 += ((q63_t) x2 * c0);
 153:./Libraries/CMSIS/DSP/Source/FilteringFunctions/arm_fir_q31.c ****       acc1 += ((q63_t) x0 * c0);
 154:./Libraries/CMSIS/DSP/Source/FilteringFunctions/arm_fir_q31.c ****       acc2 += ((q63_t) x1 * c0);
 155:./Libraries/CMSIS/DSP/Source/FilteringFunctions/arm_fir_q31.c **** 
 156:./Libraries/CMSIS/DSP/Source/FilteringFunctions/arm_fir_q31.c ****       /* Decrement loop counter */
ARM GAS  /tmp/ccQilWLo.s 			page 5


 157:./Libraries/CMSIS/DSP/Source/FilteringFunctions/arm_fir_q31.c ****       tapCnt--;
 158:./Libraries/CMSIS/DSP/Source/FilteringFunctions/arm_fir_q31.c ****     }
 159:./Libraries/CMSIS/DSP/Source/FilteringFunctions/arm_fir_q31.c **** 
 160:./Libraries/CMSIS/DSP/Source/FilteringFunctions/arm_fir_q31.c ****     /* Loop unrolling: Compute remaining outputs */
 161:./Libraries/CMSIS/DSP/Source/FilteringFunctions/arm_fir_q31.c ****     tapCnt = numTaps % 0x3U;
 162:./Libraries/CMSIS/DSP/Source/FilteringFunctions/arm_fir_q31.c **** 
 163:./Libraries/CMSIS/DSP/Source/FilteringFunctions/arm_fir_q31.c ****     while (tapCnt > 0U)
 164:./Libraries/CMSIS/DSP/Source/FilteringFunctions/arm_fir_q31.c ****     {
 165:./Libraries/CMSIS/DSP/Source/FilteringFunctions/arm_fir_q31.c ****       /* Read coefficients */
 166:./Libraries/CMSIS/DSP/Source/FilteringFunctions/arm_fir_q31.c ****       c0 = *(pb++);
 167:./Libraries/CMSIS/DSP/Source/FilteringFunctions/arm_fir_q31.c **** 
 168:./Libraries/CMSIS/DSP/Source/FilteringFunctions/arm_fir_q31.c ****       /* Fetch 1 state variable */
 169:./Libraries/CMSIS/DSP/Source/FilteringFunctions/arm_fir_q31.c ****       x2 = *(px++);
 170:./Libraries/CMSIS/DSP/Source/FilteringFunctions/arm_fir_q31.c **** 
 171:./Libraries/CMSIS/DSP/Source/FilteringFunctions/arm_fir_q31.c ****       /* Perform the multiply-accumulates */
 172:./Libraries/CMSIS/DSP/Source/FilteringFunctions/arm_fir_q31.c ****       acc0 += ((q63_t) x0 * c0);
 173:./Libraries/CMSIS/DSP/Source/FilteringFunctions/arm_fir_q31.c ****       acc1 += ((q63_t) x1 * c0);
 174:./Libraries/CMSIS/DSP/Source/FilteringFunctions/arm_fir_q31.c ****       acc2 += ((q63_t) x2 * c0);
 175:./Libraries/CMSIS/DSP/Source/FilteringFunctions/arm_fir_q31.c **** 
 176:./Libraries/CMSIS/DSP/Source/FilteringFunctions/arm_fir_q31.c ****       /* Reuse the present sample states for next sample */
 177:./Libraries/CMSIS/DSP/Source/FilteringFunctions/arm_fir_q31.c ****       x0 = x1;
 178:./Libraries/CMSIS/DSP/Source/FilteringFunctions/arm_fir_q31.c ****       x1 = x2;
 179:./Libraries/CMSIS/DSP/Source/FilteringFunctions/arm_fir_q31.c **** 
 180:./Libraries/CMSIS/DSP/Source/FilteringFunctions/arm_fir_q31.c ****       /* Decrement loop counter */
 181:./Libraries/CMSIS/DSP/Source/FilteringFunctions/arm_fir_q31.c ****       tapCnt--;
 182:./Libraries/CMSIS/DSP/Source/FilteringFunctions/arm_fir_q31.c ****     }
 183:./Libraries/CMSIS/DSP/Source/FilteringFunctions/arm_fir_q31.c **** 
 184:./Libraries/CMSIS/DSP/Source/FilteringFunctions/arm_fir_q31.c ****     /* Advance the state pointer by 3 to process the next group of 3 samples */
 185:./Libraries/CMSIS/DSP/Source/FilteringFunctions/arm_fir_q31.c ****     pState = pState + 3;
 186:./Libraries/CMSIS/DSP/Source/FilteringFunctions/arm_fir_q31.c **** 
 187:./Libraries/CMSIS/DSP/Source/FilteringFunctions/arm_fir_q31.c ****     /* The result is in 2.30 format. Convert to 1.31 and store in destination buffer. */
 188:./Libraries/CMSIS/DSP/Source/FilteringFunctions/arm_fir_q31.c ****     *pDst++ = (q31_t) (acc0 >> 31U);
 189:./Libraries/CMSIS/DSP/Source/FilteringFunctions/arm_fir_q31.c ****     *pDst++ = (q31_t) (acc1 >> 31U);
 190:./Libraries/CMSIS/DSP/Source/FilteringFunctions/arm_fir_q31.c ****     *pDst++ = (q31_t) (acc2 >> 31U);
 191:./Libraries/CMSIS/DSP/Source/FilteringFunctions/arm_fir_q31.c **** 
 192:./Libraries/CMSIS/DSP/Source/FilteringFunctions/arm_fir_q31.c ****     /* Decrement loop counter */
 193:./Libraries/CMSIS/DSP/Source/FilteringFunctions/arm_fir_q31.c ****     blkCnt--;
 194:./Libraries/CMSIS/DSP/Source/FilteringFunctions/arm_fir_q31.c ****   }
 195:./Libraries/CMSIS/DSP/Source/FilteringFunctions/arm_fir_q31.c **** 
 196:./Libraries/CMSIS/DSP/Source/FilteringFunctions/arm_fir_q31.c ****   /* Loop unrolling: Compute remaining output samples */
 197:./Libraries/CMSIS/DSP/Source/FilteringFunctions/arm_fir_q31.c ****   blkCnt = blockSize % 0x3U;
 198:./Libraries/CMSIS/DSP/Source/FilteringFunctions/arm_fir_q31.c **** 
 199:./Libraries/CMSIS/DSP/Source/FilteringFunctions/arm_fir_q31.c **** #else
 200:./Libraries/CMSIS/DSP/Source/FilteringFunctions/arm_fir_q31.c **** 
 201:./Libraries/CMSIS/DSP/Source/FilteringFunctions/arm_fir_q31.c ****   /* Initialize blkCnt with number of taps */
 202:./Libraries/CMSIS/DSP/Source/FilteringFunctions/arm_fir_q31.c ****   blkCnt = blockSize;
  74              		.loc 1 202 10
  75 0032 3B68     		ldr	r3, [r7]
  76 0034 FB61     		str	r3, [r7, #28]
 203:./Libraries/CMSIS/DSP/Source/FilteringFunctions/arm_fir_q31.c **** 
 204:./Libraries/CMSIS/DSP/Source/FilteringFunctions/arm_fir_q31.c **** #endif /* #if defined (ARM_MATH_LOOPUNROLL) */
 205:./Libraries/CMSIS/DSP/Source/FilteringFunctions/arm_fir_q31.c **** 
 206:./Libraries/CMSIS/DSP/Source/FilteringFunctions/arm_fir_q31.c ****   while (blkCnt > 0U)
  77              		.loc 1 206 9
  78 0036 4CE0     		b	.L2
  79              	.L4:
 207:./Libraries/CMSIS/DSP/Source/FilteringFunctions/arm_fir_q31.c ****   {
ARM GAS  /tmp/ccQilWLo.s 			page 6


 208:./Libraries/CMSIS/DSP/Source/FilteringFunctions/arm_fir_q31.c ****     /* Copy one sample at a time into state buffer */
 209:./Libraries/CMSIS/DSP/Source/FilteringFunctions/arm_fir_q31.c ****     *pStateCurnt++ = *pSrc++;
  80              		.loc 1 209 27
  81 0038 BA68     		ldr	r2, [r7, #8]
  82 003a 131D     		adds	r3, r2, #4
  83 003c BB60     		str	r3, [r7, #8]
  84              		.loc 1 209 17
  85 003e BB6B     		ldr	r3, [r7, #56]
  86 0040 191D     		adds	r1, r3, #4
  87 0042 B963     		str	r1, [r7, #56]
  88              		.loc 1 209 22
  89 0044 1268     		ldr	r2, [r2]
  90              		.loc 1 209 20
  91 0046 1A60     		str	r2, [r3]
 210:./Libraries/CMSIS/DSP/Source/FilteringFunctions/arm_fir_q31.c **** 
 211:./Libraries/CMSIS/DSP/Source/FilteringFunctions/arm_fir_q31.c ****     /* Set the accumulator to zero */
 212:./Libraries/CMSIS/DSP/Source/FilteringFunctions/arm_fir_q31.c ****     acc0 = 0;
  92              		.loc 1 212 10
  93 0048 4FF00002 		mov	r2, #0
  94 004c 4FF00003 		mov	r3, #0
  95 0050 C7E90A23 		strd	r2, [r7, #40]
 213:./Libraries/CMSIS/DSP/Source/FilteringFunctions/arm_fir_q31.c **** 
 214:./Libraries/CMSIS/DSP/Source/FilteringFunctions/arm_fir_q31.c ****     /* Initialize state pointer */
 215:./Libraries/CMSIS/DSP/Source/FilteringFunctions/arm_fir_q31.c ****     px = pState;
  96              		.loc 1 215 8
  97 0054 FB6B     		ldr	r3, [r7, #60]
  98 0056 7B63     		str	r3, [r7, #52]
 216:./Libraries/CMSIS/DSP/Source/FilteringFunctions/arm_fir_q31.c **** 
 217:./Libraries/CMSIS/DSP/Source/FilteringFunctions/arm_fir_q31.c ****     /* Initialize Coefficient pointer */
 218:./Libraries/CMSIS/DSP/Source/FilteringFunctions/arm_fir_q31.c ****     pb = pCoeffs;
  99              		.loc 1 218 8
 100 0058 BB69     		ldr	r3, [r7, #24]
 101 005a 3B63     		str	r3, [r7, #48]
 219:./Libraries/CMSIS/DSP/Source/FilteringFunctions/arm_fir_q31.c **** 
 220:./Libraries/CMSIS/DSP/Source/FilteringFunctions/arm_fir_q31.c ****     i = numTaps;
 102              		.loc 1 220 7
 103 005c 7B69     		ldr	r3, [r7, #20]
 104 005e 7B62     		str	r3, [r7, #36]
 105              	.L3:
 221:./Libraries/CMSIS/DSP/Source/FilteringFunctions/arm_fir_q31.c **** 
 222:./Libraries/CMSIS/DSP/Source/FilteringFunctions/arm_fir_q31.c ****     /* Perform the multiply-accumulates */
 223:./Libraries/CMSIS/DSP/Source/FilteringFunctions/arm_fir_q31.c ****     do
 224:./Libraries/CMSIS/DSP/Source/FilteringFunctions/arm_fir_q31.c ****     {
 225:./Libraries/CMSIS/DSP/Source/FilteringFunctions/arm_fir_q31.c ****       /* acc =  b[numTaps-1] * x[n-numTaps-1] + b[numTaps-2] * x[n-numTaps-2] + b[numTaps-3] * x[n-
 226:./Libraries/CMSIS/DSP/Source/FilteringFunctions/arm_fir_q31.c ****       acc0 += (q63_t) *px++ * *pb++;
 106              		.loc 1 226 26 discriminator 1
 107 0060 7B6B     		ldr	r3, [r7, #52]
 108 0062 1A1D     		adds	r2, r3, #4
 109 0064 7A63     		str	r2, [r7, #52]
 110              		.loc 1 226 23 discriminator 1
 111 0066 1B68     		ldr	r3, [r3]
 112              		.loc 1 226 15 discriminator 1
 113 0068 1846     		mov	r0, r3
 114 006a 4FEAE071 		asr	r1, r0, #31
 115              		.loc 1 226 34 discriminator 1
 116 006e 3B6B     		ldr	r3, [r7, #48]
 117 0070 1A1D     		adds	r2, r3, #4
ARM GAS  /tmp/ccQilWLo.s 			page 7


 118 0072 3A63     		str	r2, [r7, #48]
 119              		.loc 1 226 31 discriminator 1
 120 0074 1B68     		ldr	r3, [r3]
 121 0076 1A46     		mov	r2, r3
 122 0078 4FEAE273 		asr	r3, r2, #31
 123              		.loc 1 226 29 discriminator 1
 124 007c 02FB01FC 		mul	ip, r2, r1
 125 0080 00FB03F6 		mul	r6, r0, r3
 126 0084 6644     		add	r6, r6, ip
 127 0086 A0FB0223 		umull	r2, r3, r0, r2
 128 008a F118     		adds	r1, r6, r3
 129 008c 0B46     		mov	r3, r1
 130              		.loc 1 226 12 discriminator 1
 131 008e D7E90A01 		ldrd	r0, [r7, #40]
 132 0092 8418     		adds	r4, r0, r2
 133 0094 41EB0305 		adc	r5, r1, r3
 134 0098 C7E90A45 		strd	r4, [r7, #40]
 227:./Libraries/CMSIS/DSP/Source/FilteringFunctions/arm_fir_q31.c **** 
 228:./Libraries/CMSIS/DSP/Source/FilteringFunctions/arm_fir_q31.c ****       i--;
 135              		.loc 1 228 8 discriminator 1
 136 009c 7B6A     		ldr	r3, [r7, #36]
 137 009e 013B     		subs	r3, r3, #1
 138 00a0 7B62     		str	r3, [r7, #36]
 229:./Libraries/CMSIS/DSP/Source/FilteringFunctions/arm_fir_q31.c ****     } while (i > 0U);
 139              		.loc 1 229 5 discriminator 1
 140 00a2 7B6A     		ldr	r3, [r7, #36]
 141 00a4 002B     		cmp	r3, #0
 142 00a6 DBD1     		bne	.L3
 230:./Libraries/CMSIS/DSP/Source/FilteringFunctions/arm_fir_q31.c **** 
 231:./Libraries/CMSIS/DSP/Source/FilteringFunctions/arm_fir_q31.c ****     /* Result is in 2.62 format. Convert to 1.31 and store in destination buffer. */
 232:./Libraries/CMSIS/DSP/Source/FilteringFunctions/arm_fir_q31.c ****     *pDst++ = (q31_t) (acc0 >> 31U);
 143              		.loc 1 232 29
 144 00a8 D7E90A01 		ldrd	r0, [r7, #40]
 145 00ac 4FF00002 		mov	r2, #0
 146 00b0 4FF00003 		mov	r3, #0
 147 00b4 C20F     		lsrs	r2, r0, #31
 148 00b6 42EA4102 		orr	r2, r2, r1, lsl #1
 149 00ba CB17     		asrs	r3, r1, #31
 150              		.loc 1 232 10
 151 00bc 7968     		ldr	r1, [r7, #4]
 152 00be 081D     		adds	r0, r1, #4
 153 00c0 7860     		str	r0, [r7, #4]
 154              		.loc 1 232 15
 155 00c2 1346     		mov	r3, r2
 156              		.loc 1 232 13
 157 00c4 0B60     		str	r3, [r1]
 233:./Libraries/CMSIS/DSP/Source/FilteringFunctions/arm_fir_q31.c **** 
 234:./Libraries/CMSIS/DSP/Source/FilteringFunctions/arm_fir_q31.c ****     /* Advance state pointer by 1 for the next sample */
 235:./Libraries/CMSIS/DSP/Source/FilteringFunctions/arm_fir_q31.c ****     pState = pState + 1U;
 158              		.loc 1 235 12
 159 00c6 FB6B     		ldr	r3, [r7, #60]
 160 00c8 0433     		adds	r3, r3, #4
 161 00ca FB63     		str	r3, [r7, #60]
 236:./Libraries/CMSIS/DSP/Source/FilteringFunctions/arm_fir_q31.c **** 
 237:./Libraries/CMSIS/DSP/Source/FilteringFunctions/arm_fir_q31.c ****     /* Decrement loop counter */
 238:./Libraries/CMSIS/DSP/Source/FilteringFunctions/arm_fir_q31.c ****     blkCnt--;
 162              		.loc 1 238 11
ARM GAS  /tmp/ccQilWLo.s 			page 8


 163 00cc FB69     		ldr	r3, [r7, #28]
 164 00ce 013B     		subs	r3, r3, #1
 165 00d0 FB61     		str	r3, [r7, #28]
 166              	.L2:
 206:./Libraries/CMSIS/DSP/Source/FilteringFunctions/arm_fir_q31.c ****   {
 167              		.loc 1 206 9
 168 00d2 FB69     		ldr	r3, [r7, #28]
 169 00d4 002B     		cmp	r3, #0
 170 00d6 AFD1     		bne	.L4
 239:./Libraries/CMSIS/DSP/Source/FilteringFunctions/arm_fir_q31.c ****   }
 240:./Libraries/CMSIS/DSP/Source/FilteringFunctions/arm_fir_q31.c **** 
 241:./Libraries/CMSIS/DSP/Source/FilteringFunctions/arm_fir_q31.c ****   /* Processing is complete.
 242:./Libraries/CMSIS/DSP/Source/FilteringFunctions/arm_fir_q31.c ****      Now copy the last numTaps - 1 samples to the start of the state buffer.
 243:./Libraries/CMSIS/DSP/Source/FilteringFunctions/arm_fir_q31.c ****      This prepares the state buffer for the next function call. */
 244:./Libraries/CMSIS/DSP/Source/FilteringFunctions/arm_fir_q31.c **** 
 245:./Libraries/CMSIS/DSP/Source/FilteringFunctions/arm_fir_q31.c ****   /* Points to the start of the state buffer */
 246:./Libraries/CMSIS/DSP/Source/FilteringFunctions/arm_fir_q31.c ****   pStateCurnt = S->pState;
 171              		.loc 1 246 15
 172 00d8 FB68     		ldr	r3, [r7, #12]
 173 00da 5B68     		ldr	r3, [r3, #4]
 174 00dc BB63     		str	r3, [r7, #56]
 247:./Libraries/CMSIS/DSP/Source/FilteringFunctions/arm_fir_q31.c **** 
 248:./Libraries/CMSIS/DSP/Source/FilteringFunctions/arm_fir_q31.c **** #if defined (ARM_MATH_LOOPUNROLL)
 249:./Libraries/CMSIS/DSP/Source/FilteringFunctions/arm_fir_q31.c **** 
 250:./Libraries/CMSIS/DSP/Source/FilteringFunctions/arm_fir_q31.c ****   /* Loop unrolling: Compute 4 taps at a time */
 251:./Libraries/CMSIS/DSP/Source/FilteringFunctions/arm_fir_q31.c ****   tapCnt = (numTaps - 1U) >> 2U;
 252:./Libraries/CMSIS/DSP/Source/FilteringFunctions/arm_fir_q31.c **** 
 253:./Libraries/CMSIS/DSP/Source/FilteringFunctions/arm_fir_q31.c ****   /* Copy data */
 254:./Libraries/CMSIS/DSP/Source/FilteringFunctions/arm_fir_q31.c ****   while (tapCnt > 0U)
 255:./Libraries/CMSIS/DSP/Source/FilteringFunctions/arm_fir_q31.c ****   {
 256:./Libraries/CMSIS/DSP/Source/FilteringFunctions/arm_fir_q31.c ****     *pStateCurnt++ = *pState++;
 257:./Libraries/CMSIS/DSP/Source/FilteringFunctions/arm_fir_q31.c ****     *pStateCurnt++ = *pState++;
 258:./Libraries/CMSIS/DSP/Source/FilteringFunctions/arm_fir_q31.c ****     *pStateCurnt++ = *pState++;
 259:./Libraries/CMSIS/DSP/Source/FilteringFunctions/arm_fir_q31.c ****     *pStateCurnt++ = *pState++;
 260:./Libraries/CMSIS/DSP/Source/FilteringFunctions/arm_fir_q31.c **** 
 261:./Libraries/CMSIS/DSP/Source/FilteringFunctions/arm_fir_q31.c ****     /* Decrement loop counter */
 262:./Libraries/CMSIS/DSP/Source/FilteringFunctions/arm_fir_q31.c ****     tapCnt--;
 263:./Libraries/CMSIS/DSP/Source/FilteringFunctions/arm_fir_q31.c ****   }
 264:./Libraries/CMSIS/DSP/Source/FilteringFunctions/arm_fir_q31.c **** 
 265:./Libraries/CMSIS/DSP/Source/FilteringFunctions/arm_fir_q31.c ****   /* Calculate remaining number of copies */
 266:./Libraries/CMSIS/DSP/Source/FilteringFunctions/arm_fir_q31.c ****   tapCnt = (numTaps - 1U) % 0x4U;
 267:./Libraries/CMSIS/DSP/Source/FilteringFunctions/arm_fir_q31.c **** 
 268:./Libraries/CMSIS/DSP/Source/FilteringFunctions/arm_fir_q31.c **** #else
 269:./Libraries/CMSIS/DSP/Source/FilteringFunctions/arm_fir_q31.c **** 
 270:./Libraries/CMSIS/DSP/Source/FilteringFunctions/arm_fir_q31.c ****   /* Initialize tapCnt with number of taps */
 271:./Libraries/CMSIS/DSP/Source/FilteringFunctions/arm_fir_q31.c ****   tapCnt = (numTaps - 1U);
 175              		.loc 1 271 10
 176 00de 7B69     		ldr	r3, [r7, #20]
 177 00e0 013B     		subs	r3, r3, #1
 178 00e2 3B62     		str	r3, [r7, #32]
 272:./Libraries/CMSIS/DSP/Source/FilteringFunctions/arm_fir_q31.c **** 
 273:./Libraries/CMSIS/DSP/Source/FilteringFunctions/arm_fir_q31.c **** #endif /* #if defined (ARM_MATH_LOOPUNROLL) */
 274:./Libraries/CMSIS/DSP/Source/FilteringFunctions/arm_fir_q31.c **** 
 275:./Libraries/CMSIS/DSP/Source/FilteringFunctions/arm_fir_q31.c ****   /* Copy remaining data */
 276:./Libraries/CMSIS/DSP/Source/FilteringFunctions/arm_fir_q31.c ****   while (tapCnt > 0U)
 179              		.loc 1 276 9
 180 00e4 0AE0     		b	.L5
ARM GAS  /tmp/ccQilWLo.s 			page 9


 181              	.L6:
 277:./Libraries/CMSIS/DSP/Source/FilteringFunctions/arm_fir_q31.c ****   {
 278:./Libraries/CMSIS/DSP/Source/FilteringFunctions/arm_fir_q31.c ****     *pStateCurnt++ = *pState++;
 182              		.loc 1 278 29
 183 00e6 FA6B     		ldr	r2, [r7, #60]
 184 00e8 131D     		adds	r3, r2, #4
 185 00ea FB63     		str	r3, [r7, #60]
 186              		.loc 1 278 17
 187 00ec BB6B     		ldr	r3, [r7, #56]
 188 00ee 191D     		adds	r1, r3, #4
 189 00f0 B963     		str	r1, [r7, #56]
 190              		.loc 1 278 22
 191 00f2 1268     		ldr	r2, [r2]
 192              		.loc 1 278 20
 193 00f4 1A60     		str	r2, [r3]
 279:./Libraries/CMSIS/DSP/Source/FilteringFunctions/arm_fir_q31.c **** 
 280:./Libraries/CMSIS/DSP/Source/FilteringFunctions/arm_fir_q31.c ****     /* Decrement loop counter */
 281:./Libraries/CMSIS/DSP/Source/FilteringFunctions/arm_fir_q31.c ****     tapCnt--;
 194              		.loc 1 281 11
 195 00f6 3B6A     		ldr	r3, [r7, #32]
 196 00f8 013B     		subs	r3, r3, #1
 197 00fa 3B62     		str	r3, [r7, #32]
 198              	.L5:
 276:./Libraries/CMSIS/DSP/Source/FilteringFunctions/arm_fir_q31.c ****   {
 199              		.loc 1 276 9
 200 00fc 3B6A     		ldr	r3, [r7, #32]
 201 00fe 002B     		cmp	r3, #0
 202 0100 F1D1     		bne	.L6
 282:./Libraries/CMSIS/DSP/Source/FilteringFunctions/arm_fir_q31.c ****   }
 283:./Libraries/CMSIS/DSP/Source/FilteringFunctions/arm_fir_q31.c **** 
 284:./Libraries/CMSIS/DSP/Source/FilteringFunctions/arm_fir_q31.c **** }
 203              		.loc 1 284 1
 204 0102 00BF     		nop
 205 0104 00BF     		nop
 206 0106 4037     		adds	r7, r7, #64
 207              	.LCFI3:
 208              		.cfi_def_cfa_offset 16
 209 0108 BD46     		mov	sp, r7
 210              	.LCFI4:
 211              		.cfi_def_cfa_register 13
 212              		@ sp needed
 213 010a F0BC     		pop	{r4, r5, r6, r7}
 214              	.LCFI5:
 215              		.cfi_restore 7
 216              		.cfi_restore 6
 217              		.cfi_restore 5
 218              		.cfi_restore 4
 219              		.cfi_def_cfa_offset 0
 220 010c 7047     		bx	lr
 221              		.cfi_endproc
 222              	.LFE145:
 224              		.text
 225              	.Letext0:
 226              		.file 2 "/usr/lib/gcc/arm-none-eabi/9.2.1/include/stdint.h"
 227              		.file 3 "/usr/lib/gcc/arm-none-eabi/9.2.1/include/stddef.h"
 228              		.file 4 "/usr/include/newlib/sys/_types.h"
 229              		.file 5 "/usr/include/newlib/sys/reent.h"
ARM GAS  /tmp/ccQilWLo.s 			page 10


 230              		.file 6 "/usr/include/newlib/sys/lock.h"
 231              		.file 7 "/usr/include/newlib/math.h"
 232              		.file 8 "./Libraries/CMSIS/DSP/Include/arm_math.h"
ARM GAS  /tmp/ccQilWLo.s 			page 11

