ARM GAS  /tmp/cccAV9yj.s 			page 1


   1              		.cpu cortex-m7
   2              		.eabi_attribute 28, 1
   3              		.eabi_attribute 20, 1
   4              		.eabi_attribute 21, 1
   5              		.eabi_attribute 23, 3
   6              		.eabi_attribute 24, 1
   7              		.eabi_attribute 25, 1
   8              		.eabi_attribute 26, 1
   9              		.eabi_attribute 30, 6
  10              		.eabi_attribute 34, 1
  11              		.eabi_attribute 18, 4
  12              		.file	"arm_cmplx_dot_prod_q31.c"
  13              		.text
  14              	.Ltext0:
  15              		.cfi_sections	.debug_frame
  16              		.section	.text.arm_cmplx_dot_prod_q31,"ax",%progbits
  17              		.align	1
  18              		.global	arm_cmplx_dot_prod_q31
  19              		.arch armv7e-m
  20              		.syntax unified
  21              		.thumb
  22              		.thumb_func
  23              		.fpu fpv5-d16
  25              	arm_cmplx_dot_prod_q31:
  26              	.LFB145:
  27              		.file 1 "./Libraries/CMSIS/DSP/Source/ComplexMathFunctions/arm_cmplx_dot_prod_q31.c"
   1:./Libraries/CMSIS/DSP/Source/ComplexMathFunctions/arm_cmplx_dot_prod_q31.c **** /* ----------------------------------------------------------------------
   2:./Libraries/CMSIS/DSP/Source/ComplexMathFunctions/arm_cmplx_dot_prod_q31.c ****  * Project:      CMSIS DSP Library
   3:./Libraries/CMSIS/DSP/Source/ComplexMathFunctions/arm_cmplx_dot_prod_q31.c ****  * Title:        arm_cmplx_dot_prod_q31.c
   4:./Libraries/CMSIS/DSP/Source/ComplexMathFunctions/arm_cmplx_dot_prod_q31.c ****  * Description:  Q31 complex dot product
   5:./Libraries/CMSIS/DSP/Source/ComplexMathFunctions/arm_cmplx_dot_prod_q31.c ****  *
   6:./Libraries/CMSIS/DSP/Source/ComplexMathFunctions/arm_cmplx_dot_prod_q31.c ****  * $Date:        18. March 2019
   7:./Libraries/CMSIS/DSP/Source/ComplexMathFunctions/arm_cmplx_dot_prod_q31.c ****  * $Revision:    V1.6.0
   8:./Libraries/CMSIS/DSP/Source/ComplexMathFunctions/arm_cmplx_dot_prod_q31.c ****  *
   9:./Libraries/CMSIS/DSP/Source/ComplexMathFunctions/arm_cmplx_dot_prod_q31.c ****  * Target Processor: Cortex-M cores
  10:./Libraries/CMSIS/DSP/Source/ComplexMathFunctions/arm_cmplx_dot_prod_q31.c ****  * -------------------------------------------------------------------- */
  11:./Libraries/CMSIS/DSP/Source/ComplexMathFunctions/arm_cmplx_dot_prod_q31.c **** /*
  12:./Libraries/CMSIS/DSP/Source/ComplexMathFunctions/arm_cmplx_dot_prod_q31.c ****  * Copyright (C) 2010-2019 ARM Limited or its affiliates. All rights reserved.
  13:./Libraries/CMSIS/DSP/Source/ComplexMathFunctions/arm_cmplx_dot_prod_q31.c ****  *
  14:./Libraries/CMSIS/DSP/Source/ComplexMathFunctions/arm_cmplx_dot_prod_q31.c ****  * SPDX-License-Identifier: Apache-2.0
  15:./Libraries/CMSIS/DSP/Source/ComplexMathFunctions/arm_cmplx_dot_prod_q31.c ****  *
  16:./Libraries/CMSIS/DSP/Source/ComplexMathFunctions/arm_cmplx_dot_prod_q31.c ****  * Licensed under the Apache License, Version 2.0 (the License); you may
  17:./Libraries/CMSIS/DSP/Source/ComplexMathFunctions/arm_cmplx_dot_prod_q31.c ****  * not use this file except in compliance with the License.
  18:./Libraries/CMSIS/DSP/Source/ComplexMathFunctions/arm_cmplx_dot_prod_q31.c ****  * You may obtain a copy of the License at
  19:./Libraries/CMSIS/DSP/Source/ComplexMathFunctions/arm_cmplx_dot_prod_q31.c ****  *
  20:./Libraries/CMSIS/DSP/Source/ComplexMathFunctions/arm_cmplx_dot_prod_q31.c ****  * www.apache.org/licenses/LICENSE-2.0
  21:./Libraries/CMSIS/DSP/Source/ComplexMathFunctions/arm_cmplx_dot_prod_q31.c ****  *
  22:./Libraries/CMSIS/DSP/Source/ComplexMathFunctions/arm_cmplx_dot_prod_q31.c ****  * Unless required by applicable law or agreed to in writing, software
  23:./Libraries/CMSIS/DSP/Source/ComplexMathFunctions/arm_cmplx_dot_prod_q31.c ****  * distributed under the License is distributed on an AS IS BASIS, WITHOUT
  24:./Libraries/CMSIS/DSP/Source/ComplexMathFunctions/arm_cmplx_dot_prod_q31.c ****  * WARRANTIES OR CONDITIONS OF ANY KIND, either express or implied.
  25:./Libraries/CMSIS/DSP/Source/ComplexMathFunctions/arm_cmplx_dot_prod_q31.c ****  * See the License for the specific language governing permissions and
  26:./Libraries/CMSIS/DSP/Source/ComplexMathFunctions/arm_cmplx_dot_prod_q31.c ****  * limitations under the License.
  27:./Libraries/CMSIS/DSP/Source/ComplexMathFunctions/arm_cmplx_dot_prod_q31.c ****  */
  28:./Libraries/CMSIS/DSP/Source/ComplexMathFunctions/arm_cmplx_dot_prod_q31.c **** 
  29:./Libraries/CMSIS/DSP/Source/ComplexMathFunctions/arm_cmplx_dot_prod_q31.c **** #include "arm_math.h"
  30:./Libraries/CMSIS/DSP/Source/ComplexMathFunctions/arm_cmplx_dot_prod_q31.c **** 
  31:./Libraries/CMSIS/DSP/Source/ComplexMathFunctions/arm_cmplx_dot_prod_q31.c **** /**
ARM GAS  /tmp/cccAV9yj.s 			page 2


  32:./Libraries/CMSIS/DSP/Source/ComplexMathFunctions/arm_cmplx_dot_prod_q31.c ****   @ingroup groupCmplxMath
  33:./Libraries/CMSIS/DSP/Source/ComplexMathFunctions/arm_cmplx_dot_prod_q31.c ****  */
  34:./Libraries/CMSIS/DSP/Source/ComplexMathFunctions/arm_cmplx_dot_prod_q31.c **** 
  35:./Libraries/CMSIS/DSP/Source/ComplexMathFunctions/arm_cmplx_dot_prod_q31.c **** /**
  36:./Libraries/CMSIS/DSP/Source/ComplexMathFunctions/arm_cmplx_dot_prod_q31.c ****   @addtogroup cmplx_dot_prod
  37:./Libraries/CMSIS/DSP/Source/ComplexMathFunctions/arm_cmplx_dot_prod_q31.c ****   @{
  38:./Libraries/CMSIS/DSP/Source/ComplexMathFunctions/arm_cmplx_dot_prod_q31.c ****  */
  39:./Libraries/CMSIS/DSP/Source/ComplexMathFunctions/arm_cmplx_dot_prod_q31.c **** 
  40:./Libraries/CMSIS/DSP/Source/ComplexMathFunctions/arm_cmplx_dot_prod_q31.c **** /**
  41:./Libraries/CMSIS/DSP/Source/ComplexMathFunctions/arm_cmplx_dot_prod_q31.c ****   @brief         Q31 complex dot product.
  42:./Libraries/CMSIS/DSP/Source/ComplexMathFunctions/arm_cmplx_dot_prod_q31.c ****   @param[in]     pSrcA       points to the first input vector
  43:./Libraries/CMSIS/DSP/Source/ComplexMathFunctions/arm_cmplx_dot_prod_q31.c ****   @param[in]     pSrcB       points to the second input vector
  44:./Libraries/CMSIS/DSP/Source/ComplexMathFunctions/arm_cmplx_dot_prod_q31.c ****   @param[in]     numSamples  number of samples in each vector
  45:./Libraries/CMSIS/DSP/Source/ComplexMathFunctions/arm_cmplx_dot_prod_q31.c ****   @param[out]    realResult  real part of the result returned here
  46:./Libraries/CMSIS/DSP/Source/ComplexMathFunctions/arm_cmplx_dot_prod_q31.c ****   @param[out]    imagResult  imaginary part of the result returned here
  47:./Libraries/CMSIS/DSP/Source/ComplexMathFunctions/arm_cmplx_dot_prod_q31.c ****   @return        none
  48:./Libraries/CMSIS/DSP/Source/ComplexMathFunctions/arm_cmplx_dot_prod_q31.c **** 
  49:./Libraries/CMSIS/DSP/Source/ComplexMathFunctions/arm_cmplx_dot_prod_q31.c ****   @par           Scaling and Overflow Behavior
  50:./Libraries/CMSIS/DSP/Source/ComplexMathFunctions/arm_cmplx_dot_prod_q31.c ****                    The function is implemented using an internal 64-bit accumulator.
  51:./Libraries/CMSIS/DSP/Source/ComplexMathFunctions/arm_cmplx_dot_prod_q31.c ****                    The intermediate 1.31 by 1.31 multiplications are performed with 64-bit precisio
  52:./Libraries/CMSIS/DSP/Source/ComplexMathFunctions/arm_cmplx_dot_prod_q31.c ****                    The internal real and imaginary accumulators are in 16.48 format and provide 15 
  53:./Libraries/CMSIS/DSP/Source/ComplexMathFunctions/arm_cmplx_dot_prod_q31.c ****                    Additions are nonsaturating and no overflow will occur as long as <code>numSampl
  54:./Libraries/CMSIS/DSP/Source/ComplexMathFunctions/arm_cmplx_dot_prod_q31.c ****                    The return results <code>realResult</code> and <code>imagResult</code> are in 16
  55:./Libraries/CMSIS/DSP/Source/ComplexMathFunctions/arm_cmplx_dot_prod_q31.c ****                    Input down scaling is not required.
  56:./Libraries/CMSIS/DSP/Source/ComplexMathFunctions/arm_cmplx_dot_prod_q31.c ****  */
  57:./Libraries/CMSIS/DSP/Source/ComplexMathFunctions/arm_cmplx_dot_prod_q31.c **** 
  58:./Libraries/CMSIS/DSP/Source/ComplexMathFunctions/arm_cmplx_dot_prod_q31.c **** void arm_cmplx_dot_prod_q31(
  59:./Libraries/CMSIS/DSP/Source/ComplexMathFunctions/arm_cmplx_dot_prod_q31.c ****   const q31_t * pSrcA,
  60:./Libraries/CMSIS/DSP/Source/ComplexMathFunctions/arm_cmplx_dot_prod_q31.c ****   const q31_t * pSrcB,
  61:./Libraries/CMSIS/DSP/Source/ComplexMathFunctions/arm_cmplx_dot_prod_q31.c ****         uint32_t numSamples,
  62:./Libraries/CMSIS/DSP/Source/ComplexMathFunctions/arm_cmplx_dot_prod_q31.c ****         q63_t * realResult,
  63:./Libraries/CMSIS/DSP/Source/ComplexMathFunctions/arm_cmplx_dot_prod_q31.c ****         q63_t * imagResult)
  64:./Libraries/CMSIS/DSP/Source/ComplexMathFunctions/arm_cmplx_dot_prod_q31.c **** {
  28              		.loc 1 64 1
  29              		.cfi_startproc
  30              		@ args = 4, pretend = 0, frame = 64
  31              		@ frame_needed = 1, uses_anonymous_args = 0
  32              		@ link register save eliminated.
  33 0000 2DE9F00F 		push	{r4, r5, r6, r7, r8, r9, r10, fp}
  34              	.LCFI0:
  35              		.cfi_def_cfa_offset 32
  36              		.cfi_offset 4, -32
  37              		.cfi_offset 5, -28
  38              		.cfi_offset 6, -24
  39              		.cfi_offset 7, -20
  40              		.cfi_offset 8, -16
  41              		.cfi_offset 9, -12
  42              		.cfi_offset 10, -8
  43              		.cfi_offset 11, -4
  44 0004 90B0     		sub	sp, sp, #64
  45              	.LCFI1:
  46              		.cfi_def_cfa_offset 96
  47 0006 00AF     		add	r7, sp, #0
  48              	.LCFI2:
  49              		.cfi_def_cfa_register 7
  50 0008 7861     		str	r0, [r7, #20]
  51 000a 3961     		str	r1, [r7, #16]
ARM GAS  /tmp/cccAV9yj.s 			page 3


  52 000c FA60     		str	r2, [r7, #12]
  53 000e BB60     		str	r3, [r7, #8]
  65:./Libraries/CMSIS/DSP/Source/ComplexMathFunctions/arm_cmplx_dot_prod_q31.c ****         uint32_t blkCnt;                               /* Loop counter */
  66:./Libraries/CMSIS/DSP/Source/ComplexMathFunctions/arm_cmplx_dot_prod_q31.c ****         q63_t real_sum = 0, imag_sum = 0;              /* Temporary result variables */
  54              		.loc 1 66 15
  55 0010 4FF00002 		mov	r2, #0
  56 0014 4FF00003 		mov	r3, #0
  57 0018 C7E90C23 		strd	r2, [r7, #48]
  58              		.loc 1 66 29
  59 001c 4FF00002 		mov	r2, #0
  60 0020 4FF00003 		mov	r3, #0
  61 0024 C7E90A23 		strd	r2, [r7, #40]
  67:./Libraries/CMSIS/DSP/Source/ComplexMathFunctions/arm_cmplx_dot_prod_q31.c ****         q31_t a0,b0,c0,d0;
  68:./Libraries/CMSIS/DSP/Source/ComplexMathFunctions/arm_cmplx_dot_prod_q31.c **** 
  69:./Libraries/CMSIS/DSP/Source/ComplexMathFunctions/arm_cmplx_dot_prod_q31.c **** #if defined (ARM_MATH_LOOPUNROLL)
  70:./Libraries/CMSIS/DSP/Source/ComplexMathFunctions/arm_cmplx_dot_prod_q31.c **** 
  71:./Libraries/CMSIS/DSP/Source/ComplexMathFunctions/arm_cmplx_dot_prod_q31.c ****   /* Loop unrolling: Compute 4 outputs at a time */
  72:./Libraries/CMSIS/DSP/Source/ComplexMathFunctions/arm_cmplx_dot_prod_q31.c ****   blkCnt = numSamples >> 2U;
  73:./Libraries/CMSIS/DSP/Source/ComplexMathFunctions/arm_cmplx_dot_prod_q31.c **** 
  74:./Libraries/CMSIS/DSP/Source/ComplexMathFunctions/arm_cmplx_dot_prod_q31.c ****   while (blkCnt > 0U)
  75:./Libraries/CMSIS/DSP/Source/ComplexMathFunctions/arm_cmplx_dot_prod_q31.c ****   {
  76:./Libraries/CMSIS/DSP/Source/ComplexMathFunctions/arm_cmplx_dot_prod_q31.c ****     a0 = *pSrcA++;
  77:./Libraries/CMSIS/DSP/Source/ComplexMathFunctions/arm_cmplx_dot_prod_q31.c ****     b0 = *pSrcA++;
  78:./Libraries/CMSIS/DSP/Source/ComplexMathFunctions/arm_cmplx_dot_prod_q31.c ****     c0 = *pSrcB++;
  79:./Libraries/CMSIS/DSP/Source/ComplexMathFunctions/arm_cmplx_dot_prod_q31.c ****     d0 = *pSrcB++;
  80:./Libraries/CMSIS/DSP/Source/ComplexMathFunctions/arm_cmplx_dot_prod_q31.c **** 
  81:./Libraries/CMSIS/DSP/Source/ComplexMathFunctions/arm_cmplx_dot_prod_q31.c ****     real_sum += ((q63_t)a0 * c0) >> 14;
  82:./Libraries/CMSIS/DSP/Source/ComplexMathFunctions/arm_cmplx_dot_prod_q31.c ****     imag_sum += ((q63_t)a0 * d0) >> 14;
  83:./Libraries/CMSIS/DSP/Source/ComplexMathFunctions/arm_cmplx_dot_prod_q31.c ****     real_sum -= ((q63_t)b0 * d0) >> 14;
  84:./Libraries/CMSIS/DSP/Source/ComplexMathFunctions/arm_cmplx_dot_prod_q31.c ****     imag_sum += ((q63_t)b0 * c0) >> 14;
  85:./Libraries/CMSIS/DSP/Source/ComplexMathFunctions/arm_cmplx_dot_prod_q31.c **** 
  86:./Libraries/CMSIS/DSP/Source/ComplexMathFunctions/arm_cmplx_dot_prod_q31.c ****     a0 = *pSrcA++;
  87:./Libraries/CMSIS/DSP/Source/ComplexMathFunctions/arm_cmplx_dot_prod_q31.c ****     b0 = *pSrcA++;
  88:./Libraries/CMSIS/DSP/Source/ComplexMathFunctions/arm_cmplx_dot_prod_q31.c ****     c0 = *pSrcB++;
  89:./Libraries/CMSIS/DSP/Source/ComplexMathFunctions/arm_cmplx_dot_prod_q31.c ****     d0 = *pSrcB++;
  90:./Libraries/CMSIS/DSP/Source/ComplexMathFunctions/arm_cmplx_dot_prod_q31.c **** 
  91:./Libraries/CMSIS/DSP/Source/ComplexMathFunctions/arm_cmplx_dot_prod_q31.c ****     real_sum += ((q63_t)a0 * c0) >> 14;
  92:./Libraries/CMSIS/DSP/Source/ComplexMathFunctions/arm_cmplx_dot_prod_q31.c ****     imag_sum += ((q63_t)a0 * d0) >> 14;
  93:./Libraries/CMSIS/DSP/Source/ComplexMathFunctions/arm_cmplx_dot_prod_q31.c ****     real_sum -= ((q63_t)b0 * d0) >> 14;
  94:./Libraries/CMSIS/DSP/Source/ComplexMathFunctions/arm_cmplx_dot_prod_q31.c ****     imag_sum += ((q63_t)b0 * c0) >> 14;
  95:./Libraries/CMSIS/DSP/Source/ComplexMathFunctions/arm_cmplx_dot_prod_q31.c **** 
  96:./Libraries/CMSIS/DSP/Source/ComplexMathFunctions/arm_cmplx_dot_prod_q31.c ****     a0 = *pSrcA++;
  97:./Libraries/CMSIS/DSP/Source/ComplexMathFunctions/arm_cmplx_dot_prod_q31.c ****     b0 = *pSrcA++;
  98:./Libraries/CMSIS/DSP/Source/ComplexMathFunctions/arm_cmplx_dot_prod_q31.c ****     c0 = *pSrcB++;
  99:./Libraries/CMSIS/DSP/Source/ComplexMathFunctions/arm_cmplx_dot_prod_q31.c ****     d0 = *pSrcB++;
 100:./Libraries/CMSIS/DSP/Source/ComplexMathFunctions/arm_cmplx_dot_prod_q31.c **** 
 101:./Libraries/CMSIS/DSP/Source/ComplexMathFunctions/arm_cmplx_dot_prod_q31.c ****     real_sum += ((q63_t)a0 * c0) >> 14;
 102:./Libraries/CMSIS/DSP/Source/ComplexMathFunctions/arm_cmplx_dot_prod_q31.c ****     imag_sum += ((q63_t)a0 * d0) >> 14;
 103:./Libraries/CMSIS/DSP/Source/ComplexMathFunctions/arm_cmplx_dot_prod_q31.c ****     real_sum -= ((q63_t)b0 * d0) >> 14;
 104:./Libraries/CMSIS/DSP/Source/ComplexMathFunctions/arm_cmplx_dot_prod_q31.c ****     imag_sum += ((q63_t)b0 * c0) >> 14;
 105:./Libraries/CMSIS/DSP/Source/ComplexMathFunctions/arm_cmplx_dot_prod_q31.c **** 
 106:./Libraries/CMSIS/DSP/Source/ComplexMathFunctions/arm_cmplx_dot_prod_q31.c ****     a0 = *pSrcA++;
 107:./Libraries/CMSIS/DSP/Source/ComplexMathFunctions/arm_cmplx_dot_prod_q31.c ****     b0 = *pSrcA++;
 108:./Libraries/CMSIS/DSP/Source/ComplexMathFunctions/arm_cmplx_dot_prod_q31.c ****     c0 = *pSrcB++;
 109:./Libraries/CMSIS/DSP/Source/ComplexMathFunctions/arm_cmplx_dot_prod_q31.c ****     d0 = *pSrcB++;
 110:./Libraries/CMSIS/DSP/Source/ComplexMathFunctions/arm_cmplx_dot_prod_q31.c **** 
 111:./Libraries/CMSIS/DSP/Source/ComplexMathFunctions/arm_cmplx_dot_prod_q31.c ****     real_sum += ((q63_t)a0 * c0) >> 14;
ARM GAS  /tmp/cccAV9yj.s 			page 4


 112:./Libraries/CMSIS/DSP/Source/ComplexMathFunctions/arm_cmplx_dot_prod_q31.c ****     imag_sum += ((q63_t)a0 * d0) >> 14;
 113:./Libraries/CMSIS/DSP/Source/ComplexMathFunctions/arm_cmplx_dot_prod_q31.c ****     real_sum -= ((q63_t)b0 * d0) >> 14;
 114:./Libraries/CMSIS/DSP/Source/ComplexMathFunctions/arm_cmplx_dot_prod_q31.c ****     imag_sum += ((q63_t)b0 * c0) >> 14;
 115:./Libraries/CMSIS/DSP/Source/ComplexMathFunctions/arm_cmplx_dot_prod_q31.c **** 
 116:./Libraries/CMSIS/DSP/Source/ComplexMathFunctions/arm_cmplx_dot_prod_q31.c ****     /* Decrement loop counter */
 117:./Libraries/CMSIS/DSP/Source/ComplexMathFunctions/arm_cmplx_dot_prod_q31.c ****     blkCnt--;
 118:./Libraries/CMSIS/DSP/Source/ComplexMathFunctions/arm_cmplx_dot_prod_q31.c ****   }
 119:./Libraries/CMSIS/DSP/Source/ComplexMathFunctions/arm_cmplx_dot_prod_q31.c **** 
 120:./Libraries/CMSIS/DSP/Source/ComplexMathFunctions/arm_cmplx_dot_prod_q31.c ****   /* Loop unrolling: Compute remaining outputs */
 121:./Libraries/CMSIS/DSP/Source/ComplexMathFunctions/arm_cmplx_dot_prod_q31.c ****   blkCnt = numSamples % 0x4U;
 122:./Libraries/CMSIS/DSP/Source/ComplexMathFunctions/arm_cmplx_dot_prod_q31.c **** 
 123:./Libraries/CMSIS/DSP/Source/ComplexMathFunctions/arm_cmplx_dot_prod_q31.c **** #else
 124:./Libraries/CMSIS/DSP/Source/ComplexMathFunctions/arm_cmplx_dot_prod_q31.c **** 
 125:./Libraries/CMSIS/DSP/Source/ComplexMathFunctions/arm_cmplx_dot_prod_q31.c ****   /* Initialize blkCnt with number of samples */
 126:./Libraries/CMSIS/DSP/Source/ComplexMathFunctions/arm_cmplx_dot_prod_q31.c ****   blkCnt = numSamples;
  62              		.loc 1 126 10
  63 0028 FB68     		ldr	r3, [r7, #12]
  64 002a FB63     		str	r3, [r7, #60]
 127:./Libraries/CMSIS/DSP/Source/ComplexMathFunctions/arm_cmplx_dot_prod_q31.c **** 
 128:./Libraries/CMSIS/DSP/Source/ComplexMathFunctions/arm_cmplx_dot_prod_q31.c **** #endif /* #if defined (ARM_MATH_LOOPUNROLL) */
 129:./Libraries/CMSIS/DSP/Source/ComplexMathFunctions/arm_cmplx_dot_prod_q31.c **** 
 130:./Libraries/CMSIS/DSP/Source/ComplexMathFunctions/arm_cmplx_dot_prod_q31.c ****   while (blkCnt > 0U)
  65              		.loc 1 130 9
  66 002c 9CE0     		b	.L2
  67              	.L3:
 131:./Libraries/CMSIS/DSP/Source/ComplexMathFunctions/arm_cmplx_dot_prod_q31.c ****   {
 132:./Libraries/CMSIS/DSP/Source/ComplexMathFunctions/arm_cmplx_dot_prod_q31.c ****     a0 = *pSrcA++;
  68              		.loc 1 132 16
  69 002e 7B69     		ldr	r3, [r7, #20]
  70 0030 1A1D     		adds	r2, r3, #4
  71 0032 7A61     		str	r2, [r7, #20]
  72              		.loc 1 132 8
  73 0034 1B68     		ldr	r3, [r3]
  74 0036 7B62     		str	r3, [r7, #36]
 133:./Libraries/CMSIS/DSP/Source/ComplexMathFunctions/arm_cmplx_dot_prod_q31.c ****     b0 = *pSrcA++;
  75              		.loc 1 133 16
  76 0038 7B69     		ldr	r3, [r7, #20]
  77 003a 1A1D     		adds	r2, r3, #4
  78 003c 7A61     		str	r2, [r7, #20]
  79              		.loc 1 133 8
  80 003e 1B68     		ldr	r3, [r3]
  81 0040 3B62     		str	r3, [r7, #32]
 134:./Libraries/CMSIS/DSP/Source/ComplexMathFunctions/arm_cmplx_dot_prod_q31.c ****     c0 = *pSrcB++;
  82              		.loc 1 134 16
  83 0042 3B69     		ldr	r3, [r7, #16]
  84 0044 1A1D     		adds	r2, r3, #4
  85 0046 3A61     		str	r2, [r7, #16]
  86              		.loc 1 134 8
  87 0048 1B68     		ldr	r3, [r3]
  88 004a FB61     		str	r3, [r7, #28]
 135:./Libraries/CMSIS/DSP/Source/ComplexMathFunctions/arm_cmplx_dot_prod_q31.c ****     d0 = *pSrcB++;
  89              		.loc 1 135 16
  90 004c 3B69     		ldr	r3, [r7, #16]
  91 004e 1A1D     		adds	r2, r3, #4
  92 0050 3A61     		str	r2, [r7, #16]
  93              		.loc 1 135 8
  94 0052 1B68     		ldr	r3, [r3]
ARM GAS  /tmp/cccAV9yj.s 			page 5


  95 0054 BB61     		str	r3, [r7, #24]
 136:./Libraries/CMSIS/DSP/Source/ComplexMathFunctions/arm_cmplx_dot_prod_q31.c **** 
 137:./Libraries/CMSIS/DSP/Source/ComplexMathFunctions/arm_cmplx_dot_prod_q31.c ****     real_sum += ((q63_t)a0 * c0) >> 14;
  96              		.loc 1 137 18
  97 0056 7B6A     		ldr	r3, [r7, #36]
  98 0058 1846     		mov	r0, r3
  99 005a 4FEAE071 		asr	r1, r0, #31
 100              		.loc 1 137 28
 101 005e FB69     		ldr	r3, [r7, #28]
 102 0060 1A46     		mov	r2, r3
 103 0062 4FEAE273 		asr	r3, r2, #31
 104 0066 02FB01FC 		mul	ip, r2, r1
 105 006a 00FB03F6 		mul	r6, r0, r3
 106 006e 6644     		add	r6, r6, ip
 107 0070 A0FB0201 		umull	r0, r1, r0, r2
 108 0074 7318     		adds	r3, r6, r1
 109 0076 1946     		mov	r1, r3
 110              		.loc 1 137 34
 111 0078 4FF00002 		mov	r2, #0
 112 007c 4FF00003 		mov	r3, #0
 113 0080 820B     		lsrs	r2, r0, #14
 114 0082 42EA8142 		orr	r2, r2, r1, lsl #18
 115 0086 8B13     		asrs	r3, r1, #14
 116              		.loc 1 137 14
 117 0088 D7E90C01 		ldrd	r0, [r7, #48]
 118 008c 8418     		adds	r4, r0, r2
 119 008e 41EB0305 		adc	r5, r1, r3
 120 0092 C7E90C45 		strd	r4, [r7, #48]
 138:./Libraries/CMSIS/DSP/Source/ComplexMathFunctions/arm_cmplx_dot_prod_q31.c ****     imag_sum += ((q63_t)a0 * d0) >> 14;
 121              		.loc 1 138 18
 122 0096 7B6A     		ldr	r3, [r7, #36]
 123 0098 1846     		mov	r0, r3
 124 009a 4FEAE071 		asr	r1, r0, #31
 125              		.loc 1 138 28
 126 009e BB69     		ldr	r3, [r7, #24]
 127 00a0 1A46     		mov	r2, r3
 128 00a2 4FEAE273 		asr	r3, r2, #31
 129 00a6 02FB01FC 		mul	ip, r2, r1
 130 00aa 00FB03F6 		mul	r6, r0, r3
 131 00ae 6644     		add	r6, r6, ip
 132 00b0 A0FB0201 		umull	r0, r1, r0, r2
 133 00b4 7318     		adds	r3, r6, r1
 134 00b6 1946     		mov	r1, r3
 135              		.loc 1 138 34
 136 00b8 4FF00002 		mov	r2, #0
 137 00bc 4FF00003 		mov	r3, #0
 138 00c0 820B     		lsrs	r2, r0, #14
 139 00c2 42EA8142 		orr	r2, r2, r1, lsl #18
 140 00c6 8B13     		asrs	r3, r1, #14
 141              		.loc 1 138 14
 142 00c8 D7E90A01 		ldrd	r0, [r7, #40]
 143 00cc 10EB0208 		adds	r8, r0, r2
 144 00d0 41EB0309 		adc	r9, r1, r3
 145 00d4 C7E90A89 		strd	r8, [r7, #40]
 139:./Libraries/CMSIS/DSP/Source/ComplexMathFunctions/arm_cmplx_dot_prod_q31.c ****     real_sum -= ((q63_t)b0 * d0) >> 14;
 146              		.loc 1 139 18
 147 00d8 3B6A     		ldr	r3, [r7, #32]
ARM GAS  /tmp/cccAV9yj.s 			page 6


 148 00da 1846     		mov	r0, r3
 149 00dc 4FEAE071 		asr	r1, r0, #31
 150              		.loc 1 139 28
 151 00e0 BB69     		ldr	r3, [r7, #24]
 152 00e2 1A46     		mov	r2, r3
 153 00e4 4FEAE273 		asr	r3, r2, #31
 154 00e8 02FB01FC 		mul	ip, r2, r1
 155 00ec 00FB03F6 		mul	r6, r0, r3
 156 00f0 6644     		add	r6, r6, ip
 157 00f2 A0FB0201 		umull	r0, r1, r0, r2
 158 00f6 7318     		adds	r3, r6, r1
 159 00f8 1946     		mov	r1, r3
 160              		.loc 1 139 34
 161 00fa 4FF00002 		mov	r2, #0
 162 00fe 4FF00003 		mov	r3, #0
 163 0102 820B     		lsrs	r2, r0, #14
 164 0104 42EA8142 		orr	r2, r2, r1, lsl #18
 165 0108 8B13     		asrs	r3, r1, #14
 166              		.loc 1 139 14
 167 010a D7E90C01 		ldrd	r0, [r7, #48]
 168 010e B0EB020A 		subs	r10, r0, r2
 169 0112 61EB030B 		sbc	fp, r1, r3
 170 0116 C7E90CAB 		strd	r10, [r7, #48]
 140:./Libraries/CMSIS/DSP/Source/ComplexMathFunctions/arm_cmplx_dot_prod_q31.c ****     imag_sum += ((q63_t)b0 * c0) >> 14;
 171              		.loc 1 140 18
 172 011a 3B6A     		ldr	r3, [r7, #32]
 173 011c 1846     		mov	r0, r3
 174 011e 4FEAE071 		asr	r1, r0, #31
 175              		.loc 1 140 28
 176 0122 FB69     		ldr	r3, [r7, #28]
 177 0124 1A46     		mov	r2, r3
 178 0126 4FEAE273 		asr	r3, r2, #31
 179 012a 02FB01FC 		mul	ip, r2, r1
 180 012e 00FB03F6 		mul	r6, r0, r3
 181 0132 6644     		add	r6, r6, ip
 182 0134 A0FB0201 		umull	r0, r1, r0, r2
 183 0138 7318     		adds	r3, r6, r1
 184 013a 1946     		mov	r1, r3
 185              		.loc 1 140 34
 186 013c 4FF00002 		mov	r2, #0
 187 0140 4FF00003 		mov	r3, #0
 188 0144 820B     		lsrs	r2, r0, #14
 189 0146 42EA8142 		orr	r2, r2, r1, lsl #18
 190 014a 8B13     		asrs	r3, r1, #14
 191              		.loc 1 140 14
 192 014c D7E90A01 		ldrd	r0, [r7, #40]
 193 0150 8618     		adds	r6, r0, r2
 194 0152 3E60     		str	r6, [r7]
 195 0154 41EB0303 		adc	r3, r1, r3
 196 0158 7B60     		str	r3, [r7, #4]
 197 015a D7E90023 		ldrd	r2, [r7]
 198 015e C7E90A23 		strd	r2, [r7, #40]
 141:./Libraries/CMSIS/DSP/Source/ComplexMathFunctions/arm_cmplx_dot_prod_q31.c **** 
 142:./Libraries/CMSIS/DSP/Source/ComplexMathFunctions/arm_cmplx_dot_prod_q31.c ****     /* Decrement loop counter */
 143:./Libraries/CMSIS/DSP/Source/ComplexMathFunctions/arm_cmplx_dot_prod_q31.c ****     blkCnt--;
 199              		.loc 1 143 11
 200 0162 FB6B     		ldr	r3, [r7, #60]
ARM GAS  /tmp/cccAV9yj.s 			page 7


 201 0164 013B     		subs	r3, r3, #1
 202 0166 FB63     		str	r3, [r7, #60]
 203              	.L2:
 130:./Libraries/CMSIS/DSP/Source/ComplexMathFunctions/arm_cmplx_dot_prod_q31.c ****   {
 204              		.loc 1 130 9
 205 0168 FB6B     		ldr	r3, [r7, #60]
 206 016a 002B     		cmp	r3, #0
 207 016c 7FF45FAF 		bne	.L3
 144:./Libraries/CMSIS/DSP/Source/ComplexMathFunctions/arm_cmplx_dot_prod_q31.c ****   }
 145:./Libraries/CMSIS/DSP/Source/ComplexMathFunctions/arm_cmplx_dot_prod_q31.c **** 
 146:./Libraries/CMSIS/DSP/Source/ComplexMathFunctions/arm_cmplx_dot_prod_q31.c ****   /* Store real and imaginary result in 16.48 format  */
 147:./Libraries/CMSIS/DSP/Source/ComplexMathFunctions/arm_cmplx_dot_prod_q31.c ****   *realResult = real_sum;
 208              		.loc 1 147 15
 209 0170 B968     		ldr	r1, [r7, #8]
 210 0172 D7E90C23 		ldrd	r2, [r7, #48]
 211 0176 C1E90023 		strd	r2, [r1]
 148:./Libraries/CMSIS/DSP/Source/ComplexMathFunctions/arm_cmplx_dot_prod_q31.c ****   *imagResult = imag_sum;
 212              		.loc 1 148 15
 213 017a 396E     		ldr	r1, [r7, #96]
 214 017c D7E90A23 		ldrd	r2, [r7, #40]
 215 0180 C1E90023 		strd	r2, [r1]
 149:./Libraries/CMSIS/DSP/Source/ComplexMathFunctions/arm_cmplx_dot_prod_q31.c **** }
 216              		.loc 1 149 1
 217 0184 00BF     		nop
 218 0186 4037     		adds	r7, r7, #64
 219              	.LCFI3:
 220              		.cfi_def_cfa_offset 32
 221 0188 BD46     		mov	sp, r7
 222              	.LCFI4:
 223              		.cfi_def_cfa_register 13
 224              		@ sp needed
 225 018a BDE8F00F 		pop	{r4, r5, r6, r7, r8, r9, r10, fp}
 226              	.LCFI5:
 227              		.cfi_restore 11
 228              		.cfi_restore 10
 229              		.cfi_restore 9
 230              		.cfi_restore 8
 231              		.cfi_restore 7
 232              		.cfi_restore 6
 233              		.cfi_restore 5
 234              		.cfi_restore 4
 235              		.cfi_def_cfa_offset 0
 236 018e 7047     		bx	lr
 237              		.cfi_endproc
 238              	.LFE145:
 240              		.text
 241              	.Letext0:
 242              		.file 2 "/usr/lib/gcc/arm-none-eabi/9.2.1/include/stdint.h"
 243              		.file 3 "/usr/lib/gcc/arm-none-eabi/9.2.1/include/stddef.h"
 244              		.file 4 "/usr/include/newlib/sys/_types.h"
 245              		.file 5 "/usr/include/newlib/sys/reent.h"
 246              		.file 6 "/usr/include/newlib/sys/lock.h"
 247              		.file 7 "/usr/include/newlib/math.h"
 248              		.file 8 "./Libraries/CMSIS/DSP/Include/arm_math.h"
ARM GAS  /tmp/cccAV9yj.s 			page 8

