ARM GAS  /tmp/ccGwcGVC.s 			page 1


   1              		.cpu cortex-m7
   2              		.eabi_attribute 28, 1
   3              		.eabi_attribute 20, 1
   4              		.eabi_attribute 21, 1
   5              		.eabi_attribute 23, 3
   6              		.eabi_attribute 24, 1
   7              		.eabi_attribute 25, 1
   8              		.eabi_attribute 26, 1
   9              		.eabi_attribute 30, 6
  10              		.eabi_attribute 34, 1
  11              		.eabi_attribute 18, 4
  12              		.file	"arm_cmplx_mult_cmplx_q15.c"
  13              		.text
  14              	.Ltext0:
  15              		.cfi_sections	.debug_frame
  16              		.section	.text.arm_cmplx_mult_cmplx_q15,"ax",%progbits
  17              		.align	1
  18              		.global	arm_cmplx_mult_cmplx_q15
  19              		.arch armv7e-m
  20              		.syntax unified
  21              		.thumb
  22              		.thumb_func
  23              		.fpu fpv5-d16
  25              	arm_cmplx_mult_cmplx_q15:
  26              	.LFB145:
  27              		.file 1 "./Libraries/CMSIS/DSP/Source/ComplexMathFunctions/arm_cmplx_mult_cmplx_q15.c"
   1:./Libraries/CMSIS/DSP/Source/ComplexMathFunctions/arm_cmplx_mult_cmplx_q15.c **** /* ----------------------------------------------------------------------
   2:./Libraries/CMSIS/DSP/Source/ComplexMathFunctions/arm_cmplx_mult_cmplx_q15.c ****  * Project:      CMSIS DSP Library
   3:./Libraries/CMSIS/DSP/Source/ComplexMathFunctions/arm_cmplx_mult_cmplx_q15.c ****  * Title:        arm_cmplx_mult_cmplx_q15.c
   4:./Libraries/CMSIS/DSP/Source/ComplexMathFunctions/arm_cmplx_mult_cmplx_q15.c ****  * Description:  Q15 complex-by-complex multiplication
   5:./Libraries/CMSIS/DSP/Source/ComplexMathFunctions/arm_cmplx_mult_cmplx_q15.c ****  *
   6:./Libraries/CMSIS/DSP/Source/ComplexMathFunctions/arm_cmplx_mult_cmplx_q15.c ****  * $Date:        18. March 2019
   7:./Libraries/CMSIS/DSP/Source/ComplexMathFunctions/arm_cmplx_mult_cmplx_q15.c ****  * $Revision:    V1.6.0
   8:./Libraries/CMSIS/DSP/Source/ComplexMathFunctions/arm_cmplx_mult_cmplx_q15.c ****  *
   9:./Libraries/CMSIS/DSP/Source/ComplexMathFunctions/arm_cmplx_mult_cmplx_q15.c ****  * Target Processor: Cortex-M cores
  10:./Libraries/CMSIS/DSP/Source/ComplexMathFunctions/arm_cmplx_mult_cmplx_q15.c ****  * -------------------------------------------------------------------- */
  11:./Libraries/CMSIS/DSP/Source/ComplexMathFunctions/arm_cmplx_mult_cmplx_q15.c **** /*
  12:./Libraries/CMSIS/DSP/Source/ComplexMathFunctions/arm_cmplx_mult_cmplx_q15.c ****  * Copyright (C) 2010-2019 ARM Limited or its affiliates. All rights reserved.
  13:./Libraries/CMSIS/DSP/Source/ComplexMathFunctions/arm_cmplx_mult_cmplx_q15.c ****  *
  14:./Libraries/CMSIS/DSP/Source/ComplexMathFunctions/arm_cmplx_mult_cmplx_q15.c ****  * SPDX-License-Identifier: Apache-2.0
  15:./Libraries/CMSIS/DSP/Source/ComplexMathFunctions/arm_cmplx_mult_cmplx_q15.c ****  *
  16:./Libraries/CMSIS/DSP/Source/ComplexMathFunctions/arm_cmplx_mult_cmplx_q15.c ****  * Licensed under the Apache License, Version 2.0 (the License); you may
  17:./Libraries/CMSIS/DSP/Source/ComplexMathFunctions/arm_cmplx_mult_cmplx_q15.c ****  * not use this file except in compliance with the License.
  18:./Libraries/CMSIS/DSP/Source/ComplexMathFunctions/arm_cmplx_mult_cmplx_q15.c ****  * You may obtain a copy of the License at
  19:./Libraries/CMSIS/DSP/Source/ComplexMathFunctions/arm_cmplx_mult_cmplx_q15.c ****  *
  20:./Libraries/CMSIS/DSP/Source/ComplexMathFunctions/arm_cmplx_mult_cmplx_q15.c ****  * www.apache.org/licenses/LICENSE-2.0
  21:./Libraries/CMSIS/DSP/Source/ComplexMathFunctions/arm_cmplx_mult_cmplx_q15.c ****  *
  22:./Libraries/CMSIS/DSP/Source/ComplexMathFunctions/arm_cmplx_mult_cmplx_q15.c ****  * Unless required by applicable law or agreed to in writing, software
  23:./Libraries/CMSIS/DSP/Source/ComplexMathFunctions/arm_cmplx_mult_cmplx_q15.c ****  * distributed under the License is distributed on an AS IS BASIS, WITHOUT
  24:./Libraries/CMSIS/DSP/Source/ComplexMathFunctions/arm_cmplx_mult_cmplx_q15.c ****  * WARRANTIES OR CONDITIONS OF ANY KIND, either express or implied.
  25:./Libraries/CMSIS/DSP/Source/ComplexMathFunctions/arm_cmplx_mult_cmplx_q15.c ****  * See the License for the specific language governing permissions and
  26:./Libraries/CMSIS/DSP/Source/ComplexMathFunctions/arm_cmplx_mult_cmplx_q15.c ****  * limitations under the License.
  27:./Libraries/CMSIS/DSP/Source/ComplexMathFunctions/arm_cmplx_mult_cmplx_q15.c ****  */
  28:./Libraries/CMSIS/DSP/Source/ComplexMathFunctions/arm_cmplx_mult_cmplx_q15.c **** 
  29:./Libraries/CMSIS/DSP/Source/ComplexMathFunctions/arm_cmplx_mult_cmplx_q15.c **** #include "arm_math.h"
  30:./Libraries/CMSIS/DSP/Source/ComplexMathFunctions/arm_cmplx_mult_cmplx_q15.c **** 
  31:./Libraries/CMSIS/DSP/Source/ComplexMathFunctions/arm_cmplx_mult_cmplx_q15.c **** /**
ARM GAS  /tmp/ccGwcGVC.s 			page 2


  32:./Libraries/CMSIS/DSP/Source/ComplexMathFunctions/arm_cmplx_mult_cmplx_q15.c ****   @ingroup groupCmplxMath
  33:./Libraries/CMSIS/DSP/Source/ComplexMathFunctions/arm_cmplx_mult_cmplx_q15.c ****  */
  34:./Libraries/CMSIS/DSP/Source/ComplexMathFunctions/arm_cmplx_mult_cmplx_q15.c **** 
  35:./Libraries/CMSIS/DSP/Source/ComplexMathFunctions/arm_cmplx_mult_cmplx_q15.c **** /**
  36:./Libraries/CMSIS/DSP/Source/ComplexMathFunctions/arm_cmplx_mult_cmplx_q15.c ****   @addtogroup CmplxByCmplxMult
  37:./Libraries/CMSIS/DSP/Source/ComplexMathFunctions/arm_cmplx_mult_cmplx_q15.c ****   @{
  38:./Libraries/CMSIS/DSP/Source/ComplexMathFunctions/arm_cmplx_mult_cmplx_q15.c ****  */
  39:./Libraries/CMSIS/DSP/Source/ComplexMathFunctions/arm_cmplx_mult_cmplx_q15.c **** 
  40:./Libraries/CMSIS/DSP/Source/ComplexMathFunctions/arm_cmplx_mult_cmplx_q15.c **** /**
  41:./Libraries/CMSIS/DSP/Source/ComplexMathFunctions/arm_cmplx_mult_cmplx_q15.c ****   @brief         Q15 complex-by-complex multiplication.
  42:./Libraries/CMSIS/DSP/Source/ComplexMathFunctions/arm_cmplx_mult_cmplx_q15.c ****   @param[in]     pSrcA       points to first input vector
  43:./Libraries/CMSIS/DSP/Source/ComplexMathFunctions/arm_cmplx_mult_cmplx_q15.c ****   @param[in]     pSrcB       points to second input vector
  44:./Libraries/CMSIS/DSP/Source/ComplexMathFunctions/arm_cmplx_mult_cmplx_q15.c ****   @param[out]    pDst        points to output vector
  45:./Libraries/CMSIS/DSP/Source/ComplexMathFunctions/arm_cmplx_mult_cmplx_q15.c ****   @param[in]     numSamples  number of samples in each vector
  46:./Libraries/CMSIS/DSP/Source/ComplexMathFunctions/arm_cmplx_mult_cmplx_q15.c ****   @return        none
  47:./Libraries/CMSIS/DSP/Source/ComplexMathFunctions/arm_cmplx_mult_cmplx_q15.c **** 
  48:./Libraries/CMSIS/DSP/Source/ComplexMathFunctions/arm_cmplx_mult_cmplx_q15.c ****   @par           Scaling and Overflow Behavior
  49:./Libraries/CMSIS/DSP/Source/ComplexMathFunctions/arm_cmplx_mult_cmplx_q15.c ****                    The function implements 1.15 by 1.15 multiplications and finally output is conve
  50:./Libraries/CMSIS/DSP/Source/ComplexMathFunctions/arm_cmplx_mult_cmplx_q15.c ****  */
  51:./Libraries/CMSIS/DSP/Source/ComplexMathFunctions/arm_cmplx_mult_cmplx_q15.c **** 
  52:./Libraries/CMSIS/DSP/Source/ComplexMathFunctions/arm_cmplx_mult_cmplx_q15.c **** void arm_cmplx_mult_cmplx_q15(
  53:./Libraries/CMSIS/DSP/Source/ComplexMathFunctions/arm_cmplx_mult_cmplx_q15.c ****   const q15_t * pSrcA,
  54:./Libraries/CMSIS/DSP/Source/ComplexMathFunctions/arm_cmplx_mult_cmplx_q15.c ****   const q15_t * pSrcB,
  55:./Libraries/CMSIS/DSP/Source/ComplexMathFunctions/arm_cmplx_mult_cmplx_q15.c ****         q15_t * pDst,
  56:./Libraries/CMSIS/DSP/Source/ComplexMathFunctions/arm_cmplx_mult_cmplx_q15.c ****         uint32_t numSamples)
  57:./Libraries/CMSIS/DSP/Source/ComplexMathFunctions/arm_cmplx_mult_cmplx_q15.c **** {
  28              		.loc 1 57 1
  29              		.cfi_startproc
  30              		@ args = 0, pretend = 0, frame = 32
  31              		@ frame_needed = 1, uses_anonymous_args = 0
  32              		@ link register save eliminated.
  33 0000 80B4     		push	{r7}
  34              	.LCFI0:
  35              		.cfi_def_cfa_offset 4
  36              		.cfi_offset 7, -4
  37 0002 89B0     		sub	sp, sp, #36
  38              	.LCFI1:
  39              		.cfi_def_cfa_offset 40
  40 0004 00AF     		add	r7, sp, #0
  41              	.LCFI2:
  42              		.cfi_def_cfa_register 7
  43 0006 F860     		str	r0, [r7, #12]
  44 0008 B960     		str	r1, [r7, #8]
  45 000a 7A60     		str	r2, [r7, #4]
  46 000c 3B60     		str	r3, [r7]
  58:./Libraries/CMSIS/DSP/Source/ComplexMathFunctions/arm_cmplx_mult_cmplx_q15.c ****         uint32_t blkCnt;                               /* Loop counter */
  59:./Libraries/CMSIS/DSP/Source/ComplexMathFunctions/arm_cmplx_mult_cmplx_q15.c ****         q15_t a, b, c, d;                              /* Temporary variables */
  60:./Libraries/CMSIS/DSP/Source/ComplexMathFunctions/arm_cmplx_mult_cmplx_q15.c **** 
  61:./Libraries/CMSIS/DSP/Source/ComplexMathFunctions/arm_cmplx_mult_cmplx_q15.c **** #if defined (ARM_MATH_LOOPUNROLL)
  62:./Libraries/CMSIS/DSP/Source/ComplexMathFunctions/arm_cmplx_mult_cmplx_q15.c **** 
  63:./Libraries/CMSIS/DSP/Source/ComplexMathFunctions/arm_cmplx_mult_cmplx_q15.c ****   /* Loop unrolling: Compute 4 outputs at a time */
  64:./Libraries/CMSIS/DSP/Source/ComplexMathFunctions/arm_cmplx_mult_cmplx_q15.c ****   blkCnt = numSamples >> 2U;
  65:./Libraries/CMSIS/DSP/Source/ComplexMathFunctions/arm_cmplx_mult_cmplx_q15.c **** 
  66:./Libraries/CMSIS/DSP/Source/ComplexMathFunctions/arm_cmplx_mult_cmplx_q15.c ****   while (blkCnt > 0U)
  67:./Libraries/CMSIS/DSP/Source/ComplexMathFunctions/arm_cmplx_mult_cmplx_q15.c ****   {
  68:./Libraries/CMSIS/DSP/Source/ComplexMathFunctions/arm_cmplx_mult_cmplx_q15.c ****     /* C[2 * i    ] = A[2 * i] * B[2 * i    ] - A[2 * i + 1] * B[2 * i + 1]. */
  69:./Libraries/CMSIS/DSP/Source/ComplexMathFunctions/arm_cmplx_mult_cmplx_q15.c ****     /* C[2 * i + 1] = A[2 * i] * B[2 * i + 1] + A[2 * i + 1] * B[2 * i    ]. */
ARM GAS  /tmp/ccGwcGVC.s 			page 3


  70:./Libraries/CMSIS/DSP/Source/ComplexMathFunctions/arm_cmplx_mult_cmplx_q15.c **** 
  71:./Libraries/CMSIS/DSP/Source/ComplexMathFunctions/arm_cmplx_mult_cmplx_q15.c ****     a = *pSrcA++;
  72:./Libraries/CMSIS/DSP/Source/ComplexMathFunctions/arm_cmplx_mult_cmplx_q15.c ****     b = *pSrcA++;
  73:./Libraries/CMSIS/DSP/Source/ComplexMathFunctions/arm_cmplx_mult_cmplx_q15.c ****     c = *pSrcB++;
  74:./Libraries/CMSIS/DSP/Source/ComplexMathFunctions/arm_cmplx_mult_cmplx_q15.c ****     d = *pSrcB++;
  75:./Libraries/CMSIS/DSP/Source/ComplexMathFunctions/arm_cmplx_mult_cmplx_q15.c ****     /* store result in 3.13 format in destination buffer. */
  76:./Libraries/CMSIS/DSP/Source/ComplexMathFunctions/arm_cmplx_mult_cmplx_q15.c ****     *pDst++ = (q15_t) ( (((q31_t) a * c) >> 17) - (((q31_t) b * d) >> 17) );
  77:./Libraries/CMSIS/DSP/Source/ComplexMathFunctions/arm_cmplx_mult_cmplx_q15.c ****     *pDst++ = (q15_t) ( (((q31_t) a * d) >> 17) + (((q31_t) b * c) >> 17) );
  78:./Libraries/CMSIS/DSP/Source/ComplexMathFunctions/arm_cmplx_mult_cmplx_q15.c **** 
  79:./Libraries/CMSIS/DSP/Source/ComplexMathFunctions/arm_cmplx_mult_cmplx_q15.c ****     a = *pSrcA++;
  80:./Libraries/CMSIS/DSP/Source/ComplexMathFunctions/arm_cmplx_mult_cmplx_q15.c ****     b = *pSrcA++;
  81:./Libraries/CMSIS/DSP/Source/ComplexMathFunctions/arm_cmplx_mult_cmplx_q15.c ****     c = *pSrcB++;
  82:./Libraries/CMSIS/DSP/Source/ComplexMathFunctions/arm_cmplx_mult_cmplx_q15.c ****     d = *pSrcB++;
  83:./Libraries/CMSIS/DSP/Source/ComplexMathFunctions/arm_cmplx_mult_cmplx_q15.c ****     *pDst++ = (q15_t) ( (((q31_t) a * c) >> 17) - (((q31_t) b * d) >> 17) );
  84:./Libraries/CMSIS/DSP/Source/ComplexMathFunctions/arm_cmplx_mult_cmplx_q15.c ****     *pDst++ = (q15_t) ( (((q31_t) a * d) >> 17) + (((q31_t) b * c) >> 17) );
  85:./Libraries/CMSIS/DSP/Source/ComplexMathFunctions/arm_cmplx_mult_cmplx_q15.c **** 
  86:./Libraries/CMSIS/DSP/Source/ComplexMathFunctions/arm_cmplx_mult_cmplx_q15.c ****     a = *pSrcA++;
  87:./Libraries/CMSIS/DSP/Source/ComplexMathFunctions/arm_cmplx_mult_cmplx_q15.c ****     b = *pSrcA++;
  88:./Libraries/CMSIS/DSP/Source/ComplexMathFunctions/arm_cmplx_mult_cmplx_q15.c ****     c = *pSrcB++;
  89:./Libraries/CMSIS/DSP/Source/ComplexMathFunctions/arm_cmplx_mult_cmplx_q15.c ****     d = *pSrcB++;
  90:./Libraries/CMSIS/DSP/Source/ComplexMathFunctions/arm_cmplx_mult_cmplx_q15.c ****     *pDst++ = (q15_t) ( (((q31_t) a * c) >> 17) - (((q31_t) b * d) >> 17) );
  91:./Libraries/CMSIS/DSP/Source/ComplexMathFunctions/arm_cmplx_mult_cmplx_q15.c ****     *pDst++ = (q15_t) ( (((q31_t) a * d) >> 17) + (((q31_t) b * c) >> 17) );
  92:./Libraries/CMSIS/DSP/Source/ComplexMathFunctions/arm_cmplx_mult_cmplx_q15.c **** 
  93:./Libraries/CMSIS/DSP/Source/ComplexMathFunctions/arm_cmplx_mult_cmplx_q15.c ****     a = *pSrcA++;
  94:./Libraries/CMSIS/DSP/Source/ComplexMathFunctions/arm_cmplx_mult_cmplx_q15.c ****     b = *pSrcA++;
  95:./Libraries/CMSIS/DSP/Source/ComplexMathFunctions/arm_cmplx_mult_cmplx_q15.c ****     c = *pSrcB++;
  96:./Libraries/CMSIS/DSP/Source/ComplexMathFunctions/arm_cmplx_mult_cmplx_q15.c ****     d = *pSrcB++;
  97:./Libraries/CMSIS/DSP/Source/ComplexMathFunctions/arm_cmplx_mult_cmplx_q15.c ****     *pDst++ = (q15_t) ( (((q31_t) a * c) >> 17) - (((q31_t) b * d) >> 17) );
  98:./Libraries/CMSIS/DSP/Source/ComplexMathFunctions/arm_cmplx_mult_cmplx_q15.c ****     *pDst++ = (q15_t) ( (((q31_t) a * d) >> 17) + (((q31_t) b * c) >> 17) );
  99:./Libraries/CMSIS/DSP/Source/ComplexMathFunctions/arm_cmplx_mult_cmplx_q15.c **** 
 100:./Libraries/CMSIS/DSP/Source/ComplexMathFunctions/arm_cmplx_mult_cmplx_q15.c ****     /* Decrement loop counter */
 101:./Libraries/CMSIS/DSP/Source/ComplexMathFunctions/arm_cmplx_mult_cmplx_q15.c ****     blkCnt--;
 102:./Libraries/CMSIS/DSP/Source/ComplexMathFunctions/arm_cmplx_mult_cmplx_q15.c ****   }
 103:./Libraries/CMSIS/DSP/Source/ComplexMathFunctions/arm_cmplx_mult_cmplx_q15.c **** 
 104:./Libraries/CMSIS/DSP/Source/ComplexMathFunctions/arm_cmplx_mult_cmplx_q15.c ****   /* Loop unrolling: Compute remaining outputs */
 105:./Libraries/CMSIS/DSP/Source/ComplexMathFunctions/arm_cmplx_mult_cmplx_q15.c ****   blkCnt = numSamples % 0x4U;
 106:./Libraries/CMSIS/DSP/Source/ComplexMathFunctions/arm_cmplx_mult_cmplx_q15.c **** 
 107:./Libraries/CMSIS/DSP/Source/ComplexMathFunctions/arm_cmplx_mult_cmplx_q15.c **** #else
 108:./Libraries/CMSIS/DSP/Source/ComplexMathFunctions/arm_cmplx_mult_cmplx_q15.c **** 
 109:./Libraries/CMSIS/DSP/Source/ComplexMathFunctions/arm_cmplx_mult_cmplx_q15.c ****   /* Initialize blkCnt with number of samples */
 110:./Libraries/CMSIS/DSP/Source/ComplexMathFunctions/arm_cmplx_mult_cmplx_q15.c ****   blkCnt = numSamples;
  47              		.loc 1 110 10
  48 000e 3B68     		ldr	r3, [r7]
  49 0010 FB61     		str	r3, [r7, #28]
 111:./Libraries/CMSIS/DSP/Source/ComplexMathFunctions/arm_cmplx_mult_cmplx_q15.c **** 
 112:./Libraries/CMSIS/DSP/Source/ComplexMathFunctions/arm_cmplx_mult_cmplx_q15.c **** #endif /* #if defined (ARM_MATH_LOOPUNROLL) */
 113:./Libraries/CMSIS/DSP/Source/ComplexMathFunctions/arm_cmplx_mult_cmplx_q15.c **** 
 114:./Libraries/CMSIS/DSP/Source/ComplexMathFunctions/arm_cmplx_mult_cmplx_q15.c ****   while (blkCnt > 0U)
  50              		.loc 1 114 9
  51 0012 44E0     		b	.L2
  52              	.L3:
 115:./Libraries/CMSIS/DSP/Source/ComplexMathFunctions/arm_cmplx_mult_cmplx_q15.c ****   {
 116:./Libraries/CMSIS/DSP/Source/ComplexMathFunctions/arm_cmplx_mult_cmplx_q15.c ****     /* C[2 * i    ] = A[2 * i] * B[2 * i    ] - A[2 * i + 1] * B[2 * i + 1]. */
 117:./Libraries/CMSIS/DSP/Source/ComplexMathFunctions/arm_cmplx_mult_cmplx_q15.c ****     /* C[2 * i + 1] = A[2 * i] * B[2 * i + 1] + A[2 * i + 1] * B[2 * i    ]. */
 118:./Libraries/CMSIS/DSP/Source/ComplexMathFunctions/arm_cmplx_mult_cmplx_q15.c **** 
 119:./Libraries/CMSIS/DSP/Source/ComplexMathFunctions/arm_cmplx_mult_cmplx_q15.c ****     a = *pSrcA++;
  53              		.loc 1 119 15
ARM GAS  /tmp/ccGwcGVC.s 			page 4


  54 0014 FB68     		ldr	r3, [r7, #12]
  55 0016 9A1C     		adds	r2, r3, #2
  56 0018 FA60     		str	r2, [r7, #12]
  57              		.loc 1 119 7
  58 001a 1B88     		ldrh	r3, [r3]	@ movhi
  59 001c 7B83     		strh	r3, [r7, #26]	@ movhi
 120:./Libraries/CMSIS/DSP/Source/ComplexMathFunctions/arm_cmplx_mult_cmplx_q15.c ****     b = *pSrcA++;
  60              		.loc 1 120 15
  61 001e FB68     		ldr	r3, [r7, #12]
  62 0020 9A1C     		adds	r2, r3, #2
  63 0022 FA60     		str	r2, [r7, #12]
  64              		.loc 1 120 7
  65 0024 1B88     		ldrh	r3, [r3]	@ movhi
  66 0026 3B83     		strh	r3, [r7, #24]	@ movhi
 121:./Libraries/CMSIS/DSP/Source/ComplexMathFunctions/arm_cmplx_mult_cmplx_q15.c ****     c = *pSrcB++;
  67              		.loc 1 121 15
  68 0028 BB68     		ldr	r3, [r7, #8]
  69 002a 9A1C     		adds	r2, r3, #2
  70 002c BA60     		str	r2, [r7, #8]
  71              		.loc 1 121 7
  72 002e 1B88     		ldrh	r3, [r3]	@ movhi
  73 0030 FB82     		strh	r3, [r7, #22]	@ movhi
 122:./Libraries/CMSIS/DSP/Source/ComplexMathFunctions/arm_cmplx_mult_cmplx_q15.c ****     d = *pSrcB++;
  74              		.loc 1 122 15
  75 0032 BB68     		ldr	r3, [r7, #8]
  76 0034 9A1C     		adds	r2, r3, #2
  77 0036 BA60     		str	r2, [r7, #8]
  78              		.loc 1 122 7
  79 0038 1B88     		ldrh	r3, [r3]	@ movhi
  80 003a BB82     		strh	r3, [r7, #20]	@ movhi
 123:./Libraries/CMSIS/DSP/Source/ComplexMathFunctions/arm_cmplx_mult_cmplx_q15.c **** 
 124:./Libraries/CMSIS/DSP/Source/ComplexMathFunctions/arm_cmplx_mult_cmplx_q15.c ****     /* store result in 3.13 format in destination buffer. */
 125:./Libraries/CMSIS/DSP/Source/ComplexMathFunctions/arm_cmplx_mult_cmplx_q15.c ****     *pDst++ = (q15_t) ( (((q31_t) a * c) >> 17) - (((q31_t) b * d) >> 17) );
  81              		.loc 1 125 27
  82 003c B7F91A30 		ldrsh	r3, [r7, #26]
  83              		.loc 1 125 37
  84 0040 B7F91620 		ldrsh	r2, [r7, #22]
  85 0044 02FB03F3 		mul	r3, r2, r3
  86              		.loc 1 125 42
  87 0048 5B14     		asrs	r3, r3, #17
  88              		.loc 1 125 49
  89 004a 9AB2     		uxth	r2, r3
  90              		.loc 1 125 53
  91 004c B7F91830 		ldrsh	r3, [r7, #24]
  92              		.loc 1 125 63
  93 0050 B7F91410 		ldrsh	r1, [r7, #20]
  94 0054 01FB03F3 		mul	r3, r1, r3
  95              		.loc 1 125 68
  96 0058 5B14     		asrs	r3, r3, #17
  97              		.loc 1 125 49
  98 005a 9BB2     		uxth	r3, r3
  99 005c D31A     		subs	r3, r2, r3
 100 005e 99B2     		uxth	r1, r3
 101              		.loc 1 125 10
 102 0060 7B68     		ldr	r3, [r7, #4]
 103 0062 9A1C     		adds	r2, r3, #2
 104 0064 7A60     		str	r2, [r7, #4]
ARM GAS  /tmp/ccGwcGVC.s 			page 5


 105              		.loc 1 125 15
 106 0066 0AB2     		sxth	r2, r1
 107              		.loc 1 125 13
 108 0068 1A80     		strh	r2, [r3]	@ movhi
 126:./Libraries/CMSIS/DSP/Source/ComplexMathFunctions/arm_cmplx_mult_cmplx_q15.c ****     *pDst++ = (q15_t) ( (((q31_t) a * d) >> 17) + (((q31_t) b * c) >> 17) );
 109              		.loc 1 126 27
 110 006a B7F91A30 		ldrsh	r3, [r7, #26]
 111              		.loc 1 126 37
 112 006e B7F91420 		ldrsh	r2, [r7, #20]
 113 0072 02FB03F3 		mul	r3, r2, r3
 114              		.loc 1 126 42
 115 0076 5B14     		asrs	r3, r3, #17
 116              		.loc 1 126 49
 117 0078 9AB2     		uxth	r2, r3
 118              		.loc 1 126 53
 119 007a B7F91830 		ldrsh	r3, [r7, #24]
 120              		.loc 1 126 63
 121 007e B7F91610 		ldrsh	r1, [r7, #22]
 122 0082 01FB03F3 		mul	r3, r1, r3
 123              		.loc 1 126 68
 124 0086 5B14     		asrs	r3, r3, #17
 125              		.loc 1 126 49
 126 0088 9BB2     		uxth	r3, r3
 127 008a 1344     		add	r3, r3, r2
 128 008c 99B2     		uxth	r1, r3
 129              		.loc 1 126 10
 130 008e 7B68     		ldr	r3, [r7, #4]
 131 0090 9A1C     		adds	r2, r3, #2
 132 0092 7A60     		str	r2, [r7, #4]
 133              		.loc 1 126 15
 134 0094 0AB2     		sxth	r2, r1
 135              		.loc 1 126 13
 136 0096 1A80     		strh	r2, [r3]	@ movhi
 127:./Libraries/CMSIS/DSP/Source/ComplexMathFunctions/arm_cmplx_mult_cmplx_q15.c **** 
 128:./Libraries/CMSIS/DSP/Source/ComplexMathFunctions/arm_cmplx_mult_cmplx_q15.c ****     /* Decrement loop counter */
 129:./Libraries/CMSIS/DSP/Source/ComplexMathFunctions/arm_cmplx_mult_cmplx_q15.c ****     blkCnt--;
 137              		.loc 1 129 11
 138 0098 FB69     		ldr	r3, [r7, #28]
 139 009a 013B     		subs	r3, r3, #1
 140 009c FB61     		str	r3, [r7, #28]
 141              	.L2:
 114:./Libraries/CMSIS/DSP/Source/ComplexMathFunctions/arm_cmplx_mult_cmplx_q15.c ****   {
 142              		.loc 1 114 9
 143 009e FB69     		ldr	r3, [r7, #28]
 144 00a0 002B     		cmp	r3, #0
 145 00a2 B7D1     		bne	.L3
 130:./Libraries/CMSIS/DSP/Source/ComplexMathFunctions/arm_cmplx_mult_cmplx_q15.c ****   }
 131:./Libraries/CMSIS/DSP/Source/ComplexMathFunctions/arm_cmplx_mult_cmplx_q15.c **** 
 132:./Libraries/CMSIS/DSP/Source/ComplexMathFunctions/arm_cmplx_mult_cmplx_q15.c **** }
 146              		.loc 1 132 1
 147 00a4 00BF     		nop
 148 00a6 00BF     		nop
 149 00a8 2437     		adds	r7, r7, #36
 150              	.LCFI3:
 151              		.cfi_def_cfa_offset 4
 152 00aa BD46     		mov	sp, r7
 153              	.LCFI4:
ARM GAS  /tmp/ccGwcGVC.s 			page 6


 154              		.cfi_def_cfa_register 13
 155              		@ sp needed
 156 00ac 5DF8047B 		ldr	r7, [sp], #4
 157              	.LCFI5:
 158              		.cfi_restore 7
 159              		.cfi_def_cfa_offset 0
 160 00b0 7047     		bx	lr
 161              		.cfi_endproc
 162              	.LFE145:
 164              		.text
 165              	.Letext0:
 166              		.file 2 "/usr/lib/gcc/arm-none-eabi/9.2.1/include/stdint.h"
 167              		.file 3 "/usr/lib/gcc/arm-none-eabi/9.2.1/include/stddef.h"
 168              		.file 4 "/usr/include/newlib/sys/_types.h"
 169              		.file 5 "/usr/include/newlib/sys/reent.h"
 170              		.file 6 "/usr/include/newlib/sys/lock.h"
 171              		.file 7 "/usr/include/newlib/math.h"
 172              		.file 8 "./Libraries/CMSIS/DSP/Include/arm_math.h"
ARM GAS  /tmp/ccGwcGVC.s 			page 7

