ARM GAS  /tmp/ccbVjeMN.s 			page 1


   1              		.cpu cortex-m7
   2              		.eabi_attribute 28, 1
   3              		.eabi_attribute 20, 1
   4              		.eabi_attribute 21, 1
   5              		.eabi_attribute 23, 3
   6              		.eabi_attribute 24, 1
   7              		.eabi_attribute 25, 1
   8              		.eabi_attribute 26, 1
   9              		.eabi_attribute 30, 6
  10              		.eabi_attribute 34, 1
  11              		.eabi_attribute 18, 4
  12              		.file	"arm_conv_fast_q31.c"
  13              		.text
  14              	.Ltext0:
  15              		.cfi_sections	.debug_frame
  16              		.section	.text.arm_conv_fast_q31,"ax",%progbits
  17              		.align	1
  18              		.global	arm_conv_fast_q31
  19              		.arch armv7e-m
  20              		.syntax unified
  21              		.thumb
  22              		.thumb_func
  23              		.fpu fpv5-d16
  25              	arm_conv_fast_q31:
  26              	.LFB145:
  27              		.file 1 "./Libraries/CMSIS/DSP/Source/FilteringFunctions/arm_conv_fast_q31.c"
   1:./Libraries/CMSIS/DSP/Source/FilteringFunctions/arm_conv_fast_q31.c **** /* ----------------------------------------------------------------------
   2:./Libraries/CMSIS/DSP/Source/FilteringFunctions/arm_conv_fast_q31.c ****  * Project:      CMSIS DSP Library
   3:./Libraries/CMSIS/DSP/Source/FilteringFunctions/arm_conv_fast_q31.c ****  * Title:        arm_conv_fast_q31.c
   4:./Libraries/CMSIS/DSP/Source/FilteringFunctions/arm_conv_fast_q31.c ****  * Description:  Fast Q31 Convolution
   5:./Libraries/CMSIS/DSP/Source/FilteringFunctions/arm_conv_fast_q31.c ****  *
   6:./Libraries/CMSIS/DSP/Source/FilteringFunctions/arm_conv_fast_q31.c ****  * $Date:        18. March 2019
   7:./Libraries/CMSIS/DSP/Source/FilteringFunctions/arm_conv_fast_q31.c ****  * $Revision:    V1.6.0
   8:./Libraries/CMSIS/DSP/Source/FilteringFunctions/arm_conv_fast_q31.c ****  *
   9:./Libraries/CMSIS/DSP/Source/FilteringFunctions/arm_conv_fast_q31.c ****  * Target Processor: Cortex-M cores
  10:./Libraries/CMSIS/DSP/Source/FilteringFunctions/arm_conv_fast_q31.c ****  * -------------------------------------------------------------------- */
  11:./Libraries/CMSIS/DSP/Source/FilteringFunctions/arm_conv_fast_q31.c **** /*
  12:./Libraries/CMSIS/DSP/Source/FilteringFunctions/arm_conv_fast_q31.c ****  * Copyright (C) 2010-2019 ARM Limited or its affiliates. All rights reserved.
  13:./Libraries/CMSIS/DSP/Source/FilteringFunctions/arm_conv_fast_q31.c ****  *
  14:./Libraries/CMSIS/DSP/Source/FilteringFunctions/arm_conv_fast_q31.c ****  * SPDX-License-Identifier: Apache-2.0
  15:./Libraries/CMSIS/DSP/Source/FilteringFunctions/arm_conv_fast_q31.c ****  *
  16:./Libraries/CMSIS/DSP/Source/FilteringFunctions/arm_conv_fast_q31.c ****  * Licensed under the Apache License, Version 2.0 (the License); you may
  17:./Libraries/CMSIS/DSP/Source/FilteringFunctions/arm_conv_fast_q31.c ****  * not use this file except in compliance with the License.
  18:./Libraries/CMSIS/DSP/Source/FilteringFunctions/arm_conv_fast_q31.c ****  * You may obtain a copy of the License at
  19:./Libraries/CMSIS/DSP/Source/FilteringFunctions/arm_conv_fast_q31.c ****  *
  20:./Libraries/CMSIS/DSP/Source/FilteringFunctions/arm_conv_fast_q31.c ****  * www.apache.org/licenses/LICENSE-2.0
  21:./Libraries/CMSIS/DSP/Source/FilteringFunctions/arm_conv_fast_q31.c ****  *
  22:./Libraries/CMSIS/DSP/Source/FilteringFunctions/arm_conv_fast_q31.c ****  * Unless required by applicable law or agreed to in writing, software
  23:./Libraries/CMSIS/DSP/Source/FilteringFunctions/arm_conv_fast_q31.c ****  * distributed under the License is distributed on an AS IS BASIS, WITHOUT
  24:./Libraries/CMSIS/DSP/Source/FilteringFunctions/arm_conv_fast_q31.c ****  * WARRANTIES OR CONDITIONS OF ANY KIND, either express or implied.
  25:./Libraries/CMSIS/DSP/Source/FilteringFunctions/arm_conv_fast_q31.c ****  * See the License for the specific language governing permissions and
  26:./Libraries/CMSIS/DSP/Source/FilteringFunctions/arm_conv_fast_q31.c ****  * limitations under the License.
  27:./Libraries/CMSIS/DSP/Source/FilteringFunctions/arm_conv_fast_q31.c ****  */
  28:./Libraries/CMSIS/DSP/Source/FilteringFunctions/arm_conv_fast_q31.c **** 
  29:./Libraries/CMSIS/DSP/Source/FilteringFunctions/arm_conv_fast_q31.c **** #include "arm_math.h"
  30:./Libraries/CMSIS/DSP/Source/FilteringFunctions/arm_conv_fast_q31.c **** 
  31:./Libraries/CMSIS/DSP/Source/FilteringFunctions/arm_conv_fast_q31.c **** /**
ARM GAS  /tmp/ccbVjeMN.s 			page 2


  32:./Libraries/CMSIS/DSP/Source/FilteringFunctions/arm_conv_fast_q31.c ****   @ingroup groupFilters
  33:./Libraries/CMSIS/DSP/Source/FilteringFunctions/arm_conv_fast_q31.c ****  */
  34:./Libraries/CMSIS/DSP/Source/FilteringFunctions/arm_conv_fast_q31.c **** 
  35:./Libraries/CMSIS/DSP/Source/FilteringFunctions/arm_conv_fast_q31.c **** /**
  36:./Libraries/CMSIS/DSP/Source/FilteringFunctions/arm_conv_fast_q31.c ****   @addtogroup Conv
  37:./Libraries/CMSIS/DSP/Source/FilteringFunctions/arm_conv_fast_q31.c ****   @{
  38:./Libraries/CMSIS/DSP/Source/FilteringFunctions/arm_conv_fast_q31.c ****  */
  39:./Libraries/CMSIS/DSP/Source/FilteringFunctions/arm_conv_fast_q31.c **** 
  40:./Libraries/CMSIS/DSP/Source/FilteringFunctions/arm_conv_fast_q31.c **** /**
  41:./Libraries/CMSIS/DSP/Source/FilteringFunctions/arm_conv_fast_q31.c ****   @brief         Convolution of Q31 sequences (fast version).
  42:./Libraries/CMSIS/DSP/Source/FilteringFunctions/arm_conv_fast_q31.c ****   @param[in]     pSrcA      points to the first input sequence.
  43:./Libraries/CMSIS/DSP/Source/FilteringFunctions/arm_conv_fast_q31.c ****   @param[in]     srcALen    length of the first input sequence.
  44:./Libraries/CMSIS/DSP/Source/FilteringFunctions/arm_conv_fast_q31.c ****   @param[in]     pSrcB      points to the second input sequence.
  45:./Libraries/CMSIS/DSP/Source/FilteringFunctions/arm_conv_fast_q31.c ****   @param[in]     srcBLen    length of the second input sequence.
  46:./Libraries/CMSIS/DSP/Source/FilteringFunctions/arm_conv_fast_q31.c ****   @param[out]    pDst       points to the location where the output result is written.  Length srcA
  47:./Libraries/CMSIS/DSP/Source/FilteringFunctions/arm_conv_fast_q31.c ****   @return        none
  48:./Libraries/CMSIS/DSP/Source/FilteringFunctions/arm_conv_fast_q31.c **** 
  49:./Libraries/CMSIS/DSP/Source/FilteringFunctions/arm_conv_fast_q31.c ****   @par           Scaling and Overflow Behavior
  50:./Libraries/CMSIS/DSP/Source/FilteringFunctions/arm_conv_fast_q31.c ****                    This function is optimized for speed at the expense of fixed-point precision and
  51:./Libraries/CMSIS/DSP/Source/FilteringFunctions/arm_conv_fast_q31.c ****                    The result of each 1.31 x 1.31 multiplication is truncated to 2.30 format.
  52:./Libraries/CMSIS/DSP/Source/FilteringFunctions/arm_conv_fast_q31.c ****                    These intermediate results are accumulated in a 32-bit register in 2.30 format.
  53:./Libraries/CMSIS/DSP/Source/FilteringFunctions/arm_conv_fast_q31.c ****                    Finally, the accumulator is saturated and converted to a 1.31 result.
  54:./Libraries/CMSIS/DSP/Source/FilteringFunctions/arm_conv_fast_q31.c ****   @par
  55:./Libraries/CMSIS/DSP/Source/FilteringFunctions/arm_conv_fast_q31.c ****                    The fast version has the same overflow behavior as the standard version but prov
  56:./Libraries/CMSIS/DSP/Source/FilteringFunctions/arm_conv_fast_q31.c ****                    In order to avoid overflows completely the input signals must be scaled down.
  57:./Libraries/CMSIS/DSP/Source/FilteringFunctions/arm_conv_fast_q31.c ****                    Scale down the inputs by log2(min(srcALen, srcBLen)) (log2 is read as log to the
  58:./Libraries/CMSIS/DSP/Source/FilteringFunctions/arm_conv_fast_q31.c ****                    as maximum of min(srcALen, srcBLen) number of additions are carried internally.
  59:./Libraries/CMSIS/DSP/Source/FilteringFunctions/arm_conv_fast_q31.c ****   @remark
  60:./Libraries/CMSIS/DSP/Source/FilteringFunctions/arm_conv_fast_q31.c ****                    Refer to \ref arm_conv_q31() for a slower implementation of this function which 
  61:./Libraries/CMSIS/DSP/Source/FilteringFunctions/arm_conv_fast_q31.c ****  */
  62:./Libraries/CMSIS/DSP/Source/FilteringFunctions/arm_conv_fast_q31.c **** 
  63:./Libraries/CMSIS/DSP/Source/FilteringFunctions/arm_conv_fast_q31.c **** void arm_conv_fast_q31(
  64:./Libraries/CMSIS/DSP/Source/FilteringFunctions/arm_conv_fast_q31.c ****   const q31_t * pSrcA,
  65:./Libraries/CMSIS/DSP/Source/FilteringFunctions/arm_conv_fast_q31.c ****         uint32_t srcALen,
  66:./Libraries/CMSIS/DSP/Source/FilteringFunctions/arm_conv_fast_q31.c ****   const q31_t * pSrcB,
  67:./Libraries/CMSIS/DSP/Source/FilteringFunctions/arm_conv_fast_q31.c ****         uint32_t srcBLen,
  68:./Libraries/CMSIS/DSP/Source/FilteringFunctions/arm_conv_fast_q31.c ****         q31_t * pDst)
  69:./Libraries/CMSIS/DSP/Source/FilteringFunctions/arm_conv_fast_q31.c **** {
  28              		.loc 1 69 1
  29              		.cfi_startproc
  30              		@ args = 4, pretend = 0, frame = 392
  31              		@ frame_needed = 1, uses_anonymous_args = 0
  32              		@ link register save eliminated.
  33 0000 2DE9B00F 		push	{r4, r5, r7, r8, r9, r10, fp}
  34              	.LCFI0:
  35              		.cfi_def_cfa_offset 28
  36              		.cfi_offset 4, -28
  37              		.cfi_offset 5, -24
  38              		.cfi_offset 7, -20
  39              		.cfi_offset 8, -16
  40              		.cfi_offset 9, -12
  41              		.cfi_offset 10, -8
  42              		.cfi_offset 11, -4
  43 0004 E3B0     		sub	sp, sp, #396
  44              	.LCFI1:
  45              		.cfi_def_cfa_offset 424
  46 0006 00AF     		add	r7, sp, #0
ARM GAS  /tmp/ccbVjeMN.s 			page 3


  47              	.LCFI2:
  48              		.cfi_def_cfa_register 7
  49 0008 C7F82401 		str	r0, [r7, #292]
  50 000c C7F82011 		str	r1, [r7, #288]
  51 0010 C7F81C21 		str	r2, [r7, #284]
  52 0014 C7F81831 		str	r3, [r7, #280]
  70:./Libraries/CMSIS/DSP/Source/FilteringFunctions/arm_conv_fast_q31.c ****   const q31_t *pIn1;                                   /* InputA pointer */
  71:./Libraries/CMSIS/DSP/Source/FilteringFunctions/arm_conv_fast_q31.c ****   const q31_t *pIn2;                                   /* InputB pointer */
  72:./Libraries/CMSIS/DSP/Source/FilteringFunctions/arm_conv_fast_q31.c ****         q31_t *pOut = pDst;                            /* Output pointer */
  53              		.loc 1 72 16
  54 0018 D7F8A831 		ldr	r3, [r7, #424]
  55 001c C7F87C31 		str	r3, [r7, #380]
  73:./Libraries/CMSIS/DSP/Source/FilteringFunctions/arm_conv_fast_q31.c ****   const q31_t *px;                                     /* Intermediate inputA pointer */
  74:./Libraries/CMSIS/DSP/Source/FilteringFunctions/arm_conv_fast_q31.c ****   const q31_t *py;                                     /* Intermediate inputB pointer */
  75:./Libraries/CMSIS/DSP/Source/FilteringFunctions/arm_conv_fast_q31.c ****   const q31_t *pSrc1, *pSrc2;                          /* Intermediate pointers */
  76:./Libraries/CMSIS/DSP/Source/FilteringFunctions/arm_conv_fast_q31.c ****         q31_t sum, acc0, acc1, acc2, acc3;             /* Accumulators */
  77:./Libraries/CMSIS/DSP/Source/FilteringFunctions/arm_conv_fast_q31.c ****         q31_t x0, x1, x2, x3, c0;                      /* Temporary variables to hold state and coe
  78:./Libraries/CMSIS/DSP/Source/FilteringFunctions/arm_conv_fast_q31.c ****         uint32_t blockSize1, blockSize2, blockSize3;   /* Loop counters */
  79:./Libraries/CMSIS/DSP/Source/FilteringFunctions/arm_conv_fast_q31.c ****         uint32_t j, k, count, blkCnt;                  /* Loop counters */
  80:./Libraries/CMSIS/DSP/Source/FilteringFunctions/arm_conv_fast_q31.c **** 
  81:./Libraries/CMSIS/DSP/Source/FilteringFunctions/arm_conv_fast_q31.c ****   /* The algorithm implementation is based on the lengths of the inputs. */
  82:./Libraries/CMSIS/DSP/Source/FilteringFunctions/arm_conv_fast_q31.c ****   /* srcB is always made to slide across srcA. */
  83:./Libraries/CMSIS/DSP/Source/FilteringFunctions/arm_conv_fast_q31.c ****   /* So srcBLen is always considered as shorter or equal to srcALen */
  84:./Libraries/CMSIS/DSP/Source/FilteringFunctions/arm_conv_fast_q31.c ****   if (srcALen >= srcBLen)
  56              		.loc 1 84 6
  57 0020 D7F82021 		ldr	r2, [r7, #288]
  58 0024 D7F81831 		ldr	r3, [r7, #280]
  59 0028 9A42     		cmp	r2, r3
  60 002a 08D3     		bcc	.L2
  85:./Libraries/CMSIS/DSP/Source/FilteringFunctions/arm_conv_fast_q31.c ****   {
  86:./Libraries/CMSIS/DSP/Source/FilteringFunctions/arm_conv_fast_q31.c ****     /* Initialization of inputA pointer */
  87:./Libraries/CMSIS/DSP/Source/FilteringFunctions/arm_conv_fast_q31.c ****     pIn1 = pSrcA;
  61              		.loc 1 87 10
  62 002c D7F82431 		ldr	r3, [r7, #292]
  63 0030 C7F88431 		str	r3, [r7, #388]
  88:./Libraries/CMSIS/DSP/Source/FilteringFunctions/arm_conv_fast_q31.c **** 
  89:./Libraries/CMSIS/DSP/Source/FilteringFunctions/arm_conv_fast_q31.c ****     /* Initialization of inputB pointer */
  90:./Libraries/CMSIS/DSP/Source/FilteringFunctions/arm_conv_fast_q31.c ****     pIn2 = pSrcB;
  64              		.loc 1 90 10
  65 0034 D7F81C31 		ldr	r3, [r7, #284]
  66 0038 C7F88031 		str	r3, [r7, #384]
  67 003c 13E0     		b	.L3
  68              	.L2:
  91:./Libraries/CMSIS/DSP/Source/FilteringFunctions/arm_conv_fast_q31.c ****   }
  92:./Libraries/CMSIS/DSP/Source/FilteringFunctions/arm_conv_fast_q31.c ****   else
  93:./Libraries/CMSIS/DSP/Source/FilteringFunctions/arm_conv_fast_q31.c ****   {
  94:./Libraries/CMSIS/DSP/Source/FilteringFunctions/arm_conv_fast_q31.c ****     /* Initialization of inputA pointer */
  95:./Libraries/CMSIS/DSP/Source/FilteringFunctions/arm_conv_fast_q31.c ****     pIn1 = pSrcB;
  69              		.loc 1 95 10
  70 003e D7F81C31 		ldr	r3, [r7, #284]
  71 0042 C7F88431 		str	r3, [r7, #388]
  96:./Libraries/CMSIS/DSP/Source/FilteringFunctions/arm_conv_fast_q31.c **** 
  97:./Libraries/CMSIS/DSP/Source/FilteringFunctions/arm_conv_fast_q31.c ****     /* Initialization of inputB pointer */
  98:./Libraries/CMSIS/DSP/Source/FilteringFunctions/arm_conv_fast_q31.c ****     pIn2 = pSrcA;
  72              		.loc 1 98 10
  73 0046 D7F82431 		ldr	r3, [r7, #292]
  74 004a C7F88031 		str	r3, [r7, #384]
ARM GAS  /tmp/ccbVjeMN.s 			page 4


  99:./Libraries/CMSIS/DSP/Source/FilteringFunctions/arm_conv_fast_q31.c **** 
 100:./Libraries/CMSIS/DSP/Source/FilteringFunctions/arm_conv_fast_q31.c ****     /* srcBLen is always considered as shorter or equal to srcALen */
 101:./Libraries/CMSIS/DSP/Source/FilteringFunctions/arm_conv_fast_q31.c ****     j = srcBLen;
  75              		.loc 1 101 7
  76 004e D7F81831 		ldr	r3, [r7, #280]
  77 0052 C7F83831 		str	r3, [r7, #312]
 102:./Libraries/CMSIS/DSP/Source/FilteringFunctions/arm_conv_fast_q31.c ****     srcBLen = srcALen;
  78              		.loc 1 102 13
  79 0056 D7F82031 		ldr	r3, [r7, #288]
  80 005a C7F81831 		str	r3, [r7, #280]
 103:./Libraries/CMSIS/DSP/Source/FilteringFunctions/arm_conv_fast_q31.c ****     srcALen = j;
  81              		.loc 1 103 13
  82 005e D7F83831 		ldr	r3, [r7, #312]
  83 0062 C7F82031 		str	r3, [r7, #288]
  84              	.L3:
 104:./Libraries/CMSIS/DSP/Source/FilteringFunctions/arm_conv_fast_q31.c ****   }
 105:./Libraries/CMSIS/DSP/Source/FilteringFunctions/arm_conv_fast_q31.c **** 
 106:./Libraries/CMSIS/DSP/Source/FilteringFunctions/arm_conv_fast_q31.c ****   /* conv(x,y) at n = x[n] * y[0] + x[n-1] * y[1] + x[n-2] * y[2] + ...+ x[n-N+1] * y[N -1] */
 107:./Libraries/CMSIS/DSP/Source/FilteringFunctions/arm_conv_fast_q31.c ****   /* The function is internally
 108:./Libraries/CMSIS/DSP/Source/FilteringFunctions/arm_conv_fast_q31.c ****    * divided into three stages according to the number of multiplications that has to be
 109:./Libraries/CMSIS/DSP/Source/FilteringFunctions/arm_conv_fast_q31.c ****    * taken place between inputA samples and inputB samples. In the first stage of the
 110:./Libraries/CMSIS/DSP/Source/FilteringFunctions/arm_conv_fast_q31.c ****    * algorithm, the multiplications increase by one for every iteration.
 111:./Libraries/CMSIS/DSP/Source/FilteringFunctions/arm_conv_fast_q31.c ****    * In the second stage of the algorithm, srcBLen number of multiplications are done.
 112:./Libraries/CMSIS/DSP/Source/FilteringFunctions/arm_conv_fast_q31.c ****    * In the third stage of the algorithm, the multiplications decrease by one
 113:./Libraries/CMSIS/DSP/Source/FilteringFunctions/arm_conv_fast_q31.c ****    * for every iteration. */
 114:./Libraries/CMSIS/DSP/Source/FilteringFunctions/arm_conv_fast_q31.c **** 
 115:./Libraries/CMSIS/DSP/Source/FilteringFunctions/arm_conv_fast_q31.c ****   /* The algorithm is implemented in three stages.
 116:./Libraries/CMSIS/DSP/Source/FilteringFunctions/arm_conv_fast_q31.c ****      The loop counters of each stage is initiated here. */
 117:./Libraries/CMSIS/DSP/Source/FilteringFunctions/arm_conv_fast_q31.c ****   blockSize1 = srcBLen - 1U;
  85              		.loc 1 117 14
  86 0066 D7F81831 		ldr	r3, [r7, #280]
  87 006a 013B     		subs	r3, r3, #1
  88 006c C7F84C31 		str	r3, [r7, #332]
 118:./Libraries/CMSIS/DSP/Source/FilteringFunctions/arm_conv_fast_q31.c ****   blockSize2 = srcALen - (srcBLen - 1U);
  89              		.loc 1 118 24
  90 0070 D7F82021 		ldr	r2, [r7, #288]
  91 0074 D7F81831 		ldr	r3, [r7, #280]
  92 0078 D31A     		subs	r3, r2, r3
  93              		.loc 1 118 14
  94 007a 0133     		adds	r3, r3, #1
  95 007c C7F83431 		str	r3, [r7, #308]
 119:./Libraries/CMSIS/DSP/Source/FilteringFunctions/arm_conv_fast_q31.c ****   blockSize3 = blockSize1;
  96              		.loc 1 119 14
  97 0080 D7F84C31 		ldr	r3, [r7, #332]
  98 0084 C7F84831 		str	r3, [r7, #328]
 120:./Libraries/CMSIS/DSP/Source/FilteringFunctions/arm_conv_fast_q31.c **** 
 121:./Libraries/CMSIS/DSP/Source/FilteringFunctions/arm_conv_fast_q31.c ****   /* --------------------------
 122:./Libraries/CMSIS/DSP/Source/FilteringFunctions/arm_conv_fast_q31.c ****    * Initializations of stage1
 123:./Libraries/CMSIS/DSP/Source/FilteringFunctions/arm_conv_fast_q31.c ****    * -------------------------*/
 124:./Libraries/CMSIS/DSP/Source/FilteringFunctions/arm_conv_fast_q31.c **** 
 125:./Libraries/CMSIS/DSP/Source/FilteringFunctions/arm_conv_fast_q31.c ****   /* sum = x[0] * y[0]
 126:./Libraries/CMSIS/DSP/Source/FilteringFunctions/arm_conv_fast_q31.c ****    * sum = x[0] * y[1] + x[1] * y[0]
 127:./Libraries/CMSIS/DSP/Source/FilteringFunctions/arm_conv_fast_q31.c ****    * ....
 128:./Libraries/CMSIS/DSP/Source/FilteringFunctions/arm_conv_fast_q31.c ****    * sum = x[0] * y[srcBlen - 1] + x[1] * y[srcBlen - 2] +...+ x[srcBLen - 1] * y[0]
 129:./Libraries/CMSIS/DSP/Source/FilteringFunctions/arm_conv_fast_q31.c ****    */
 130:./Libraries/CMSIS/DSP/Source/FilteringFunctions/arm_conv_fast_q31.c **** 
 131:./Libraries/CMSIS/DSP/Source/FilteringFunctions/arm_conv_fast_q31.c ****   /* In this stage the MAC operations are increased by 1 for every iteration.
ARM GAS  /tmp/ccbVjeMN.s 			page 5


 132:./Libraries/CMSIS/DSP/Source/FilteringFunctions/arm_conv_fast_q31.c ****      The count variable holds the number of MAC operations performed */
 133:./Libraries/CMSIS/DSP/Source/FilteringFunctions/arm_conv_fast_q31.c ****   count = 1U;
  99              		.loc 1 133 9
 100 0088 0123     		movs	r3, #1
 101 008a C7F84031 		str	r3, [r7, #320]
 134:./Libraries/CMSIS/DSP/Source/FilteringFunctions/arm_conv_fast_q31.c **** 
 135:./Libraries/CMSIS/DSP/Source/FilteringFunctions/arm_conv_fast_q31.c ****   /* Working pointer of inputA */
 136:./Libraries/CMSIS/DSP/Source/FilteringFunctions/arm_conv_fast_q31.c ****   px = pIn1;
 102              		.loc 1 136 6
 103 008e D7F88431 		ldr	r3, [r7, #388]
 104 0092 C7F87831 		str	r3, [r7, #376]
 137:./Libraries/CMSIS/DSP/Source/FilteringFunctions/arm_conv_fast_q31.c **** 
 138:./Libraries/CMSIS/DSP/Source/FilteringFunctions/arm_conv_fast_q31.c ****   /* Working pointer of inputB */
 139:./Libraries/CMSIS/DSP/Source/FilteringFunctions/arm_conv_fast_q31.c ****   py = pIn2;
 105              		.loc 1 139 6
 106 0096 D7F88031 		ldr	r3, [r7, #384]
 107 009a C7F87431 		str	r3, [r7, #372]
 140:./Libraries/CMSIS/DSP/Source/FilteringFunctions/arm_conv_fast_q31.c **** 
 141:./Libraries/CMSIS/DSP/Source/FilteringFunctions/arm_conv_fast_q31.c **** 
 142:./Libraries/CMSIS/DSP/Source/FilteringFunctions/arm_conv_fast_q31.c ****   /* ------------------------
 143:./Libraries/CMSIS/DSP/Source/FilteringFunctions/arm_conv_fast_q31.c ****    * Stage1 process
 144:./Libraries/CMSIS/DSP/Source/FilteringFunctions/arm_conv_fast_q31.c ****    * ----------------------*/
 145:./Libraries/CMSIS/DSP/Source/FilteringFunctions/arm_conv_fast_q31.c **** 
 146:./Libraries/CMSIS/DSP/Source/FilteringFunctions/arm_conv_fast_q31.c ****   /* The first stage starts here */
 147:./Libraries/CMSIS/DSP/Source/FilteringFunctions/arm_conv_fast_q31.c ****   while (blockSize1 > 0U)
 108              		.loc 1 147 9
 109 009e 66E1     		b	.L4
 110              	.L9:
 148:./Libraries/CMSIS/DSP/Source/FilteringFunctions/arm_conv_fast_q31.c ****   {
 149:./Libraries/CMSIS/DSP/Source/FilteringFunctions/arm_conv_fast_q31.c ****     /* Accumulator is made zero for every iteration */
 150:./Libraries/CMSIS/DSP/Source/FilteringFunctions/arm_conv_fast_q31.c ****     sum = 0;
 111              		.loc 1 150 9
 112 00a0 0023     		movs	r3, #0
 113 00a2 C7F86C31 		str	r3, [r7, #364]
 151:./Libraries/CMSIS/DSP/Source/FilteringFunctions/arm_conv_fast_q31.c **** 
 152:./Libraries/CMSIS/DSP/Source/FilteringFunctions/arm_conv_fast_q31.c ****     /* Apply loop unrolling and compute 4 MACs simultaneously. */
 153:./Libraries/CMSIS/DSP/Source/FilteringFunctions/arm_conv_fast_q31.c ****     k = count >> 2U;
 114              		.loc 1 153 7
 115 00a6 D7F84031 		ldr	r3, [r7, #320]
 116 00aa 9B08     		lsrs	r3, r3, #2
 117 00ac C7F84431 		str	r3, [r7, #324]
 154:./Libraries/CMSIS/DSP/Source/FilteringFunctions/arm_conv_fast_q31.c **** 
 155:./Libraries/CMSIS/DSP/Source/FilteringFunctions/arm_conv_fast_q31.c ****     /* First part of the processing with loop unrolling.  Compute 4 MACs at a time.
 156:./Libraries/CMSIS/DSP/Source/FilteringFunctions/arm_conv_fast_q31.c ****      ** a second loop below computes MACs for the remaining 1 to 3 samples. */
 157:./Libraries/CMSIS/DSP/Source/FilteringFunctions/arm_conv_fast_q31.c ****     while (k > 0U)
 118              		.loc 1 157 11
 119 00b0 EDE0     		b	.L5
 120              	.L6:
 158:./Libraries/CMSIS/DSP/Source/FilteringFunctions/arm_conv_fast_q31.c ****     {
 159:./Libraries/CMSIS/DSP/Source/FilteringFunctions/arm_conv_fast_q31.c ****       /* x[0] * y[srcBLen - 1] */
 160:./Libraries/CMSIS/DSP/Source/FilteringFunctions/arm_conv_fast_q31.c ****       sum = (q31_t) ((((q63_t) sum << 32) +
 121              		.loc 1 160 24
 122 00b2 D7F86C31 		ldr	r3, [r7, #364]
 123 00b6 1A46     		mov	r2, r3
 124 00b8 4FEAE273 		asr	r3, r2, #31
 125              		.loc 1 160 36
 126 00bc 4FF00008 		mov	r8, #0
ARM GAS  /tmp/ccbVjeMN.s 			page 6


 127 00c0 4FF00009 		mov	r9, #0
 128 00c4 9146     		mov	r9, r2
 129 00c6 4FF00008 		mov	r8, #0
 161:./Libraries/CMSIS/DSP/Source/FilteringFunctions/arm_conv_fast_q31.c ****                       ((q63_t) *px++ * (*py--))) >> 32);
 130              		.loc 1 161 35
 131 00ca D7F87821 		ldr	r2, [r7, #376]
 132 00ce 131D     		adds	r3, r2, #4
 133 00d0 C7F87831 		str	r3, [r7, #376]
 134              		.loc 1 161 32
 135 00d4 1368     		ldr	r3, [r2]
 136              		.loc 1 161 24
 137 00d6 1C46     		mov	r4, r3
 138 00d8 4FEAE475 		asr	r5, r4, #31
 139              		.loc 1 161 44
 140 00dc D7F87421 		ldr	r2, [r7, #372]
 141 00e0 131F     		subs	r3, r2, #4
 142 00e2 C7F87431 		str	r3, [r7, #372]
 143              		.loc 1 161 41
 144 00e6 1368     		ldr	r3, [r2]
 145 00e8 1A46     		mov	r2, r3
 146 00ea 4FEAE273 		asr	r3, r2, #31
 147              		.loc 1 161 38
 148 00ee 02FB05F0 		mul	r0, r2, r5
 149 00f2 04FB03F1 		mul	r1, r4, r3
 150 00f6 0144     		add	r1, r1, r0
 151 00f8 A4FB0223 		umull	r2, r3, r4, r2
 152 00fc 1944     		add	r1, r1, r3
 153 00fe 0B46     		mov	r3, r1
 160:./Libraries/CMSIS/DSP/Source/FilteringFunctions/arm_conv_fast_q31.c ****                       ((q63_t) *px++ * (*py--))) >> 32);
 154              		.loc 1 160 43
 155 0100 18EB0201 		adds	r1, r8, r2
 156 0104 C7F81011 		str	r1, [r7, #272]
 157 0108 49EB0303 		adc	r3, r9, r3
 158 010c C7F81431 		str	r3, [r7, #276]
 159              		.loc 1 161 50
 160 0110 4FF00002 		mov	r2, #0
 161 0114 4FF00003 		mov	r3, #0
 162 0118 D7E94445 		ldrd	r4, [r7, #272]
 163 011c 2946     		mov	r1, r5
 164 011e 0A00     		movs	r2, r1
 165 0120 2946     		mov	r1, r5
 166 0122 CB17     		asrs	r3, r1, #31
 160:./Libraries/CMSIS/DSP/Source/FilteringFunctions/arm_conv_fast_q31.c ****                       ((q63_t) *px++ * (*py--))) >> 32);
 167              		.loc 1 160 11
 168 0124 1346     		mov	r3, r2
 169 0126 C7F86C31 		str	r3, [r7, #364]
 162:./Libraries/CMSIS/DSP/Source/FilteringFunctions/arm_conv_fast_q31.c **** 
 163:./Libraries/CMSIS/DSP/Source/FilteringFunctions/arm_conv_fast_q31.c ****       /* x[1] * y[srcBLen - 2] */
 164:./Libraries/CMSIS/DSP/Source/FilteringFunctions/arm_conv_fast_q31.c ****       sum = (q31_t) ((((q63_t) sum << 32) +
 170              		.loc 1 164 24
 171 012a D7F86C31 		ldr	r3, [r7, #364]
 172 012e 1A46     		mov	r2, r3
 173 0130 4FEAE273 		asr	r3, r2, #31
 174              		.loc 1 164 36
 175 0134 4FF00008 		mov	r8, #0
 176 0138 4FF00009 		mov	r9, #0
 177 013c 9146     		mov	r9, r2
ARM GAS  /tmp/ccbVjeMN.s 			page 7


 178 013e 4FF00008 		mov	r8, #0
 165:./Libraries/CMSIS/DSP/Source/FilteringFunctions/arm_conv_fast_q31.c ****                       ((q63_t) *px++ * (*py--))) >> 32);
 179              		.loc 1 165 35
 180 0142 D7F87821 		ldr	r2, [r7, #376]
 181 0146 131D     		adds	r3, r2, #4
 182 0148 C7F87831 		str	r3, [r7, #376]
 183              		.loc 1 165 32
 184 014c 1368     		ldr	r3, [r2]
 185              		.loc 1 165 24
 186 014e 1C46     		mov	r4, r3
 187 0150 4FEAE475 		asr	r5, r4, #31
 188              		.loc 1 165 44
 189 0154 D7F87421 		ldr	r2, [r7, #372]
 190 0158 131F     		subs	r3, r2, #4
 191 015a C7F87431 		str	r3, [r7, #372]
 192              		.loc 1 165 41
 193 015e 1368     		ldr	r3, [r2]
 194 0160 1A46     		mov	r2, r3
 195 0162 4FEAE273 		asr	r3, r2, #31
 196              		.loc 1 165 38
 197 0166 02FB05F0 		mul	r0, r2, r5
 198 016a 04FB03F1 		mul	r1, r4, r3
 199 016e 0144     		add	r1, r1, r0
 200 0170 A4FB0223 		umull	r2, r3, r4, r2
 201 0174 1944     		add	r1, r1, r3
 202 0176 0B46     		mov	r3, r1
 164:./Libraries/CMSIS/DSP/Source/FilteringFunctions/arm_conv_fast_q31.c ****                       ((q63_t) *px++ * (*py--))) >> 32);
 203              		.loc 1 164 43
 204 0178 18EB0201 		adds	r1, r8, r2
 205 017c C7F80811 		str	r1, [r7, #264]
 206 0180 49EB0303 		adc	r3, r9, r3
 207 0184 C7F80C31 		str	r3, [r7, #268]
 208              		.loc 1 165 50
 209 0188 4FF00002 		mov	r2, #0
 210 018c 4FF00003 		mov	r3, #0
 211 0190 D7E94245 		ldrd	r4, [r7, #264]
 212 0194 2946     		mov	r1, r5
 213 0196 0A00     		movs	r2, r1
 214 0198 2946     		mov	r1, r5
 215 019a CB17     		asrs	r3, r1, #31
 164:./Libraries/CMSIS/DSP/Source/FilteringFunctions/arm_conv_fast_q31.c ****                       ((q63_t) *px++ * (*py--))) >> 32);
 216              		.loc 1 164 11
 217 019c 1346     		mov	r3, r2
 218 019e C7F86C31 		str	r3, [r7, #364]
 166:./Libraries/CMSIS/DSP/Source/FilteringFunctions/arm_conv_fast_q31.c **** 
 167:./Libraries/CMSIS/DSP/Source/FilteringFunctions/arm_conv_fast_q31.c ****       /* x[2] * y[srcBLen - 3] */
 168:./Libraries/CMSIS/DSP/Source/FilteringFunctions/arm_conv_fast_q31.c ****       sum = (q31_t) ((((q63_t) sum << 32) +
 219              		.loc 1 168 24
 220 01a2 D7F86C31 		ldr	r3, [r7, #364]
 221 01a6 1A46     		mov	r2, r3
 222 01a8 4FEAE273 		asr	r3, r2, #31
 223              		.loc 1 168 36
 224 01ac 4FF00008 		mov	r8, #0
 225 01b0 4FF00009 		mov	r9, #0
 226 01b4 9146     		mov	r9, r2
 227 01b6 4FF00008 		mov	r8, #0
 169:./Libraries/CMSIS/DSP/Source/FilteringFunctions/arm_conv_fast_q31.c ****                       ((q63_t) *px++ * (*py--))) >> 32);
ARM GAS  /tmp/ccbVjeMN.s 			page 8


 228              		.loc 1 169 35
 229 01ba D7F87821 		ldr	r2, [r7, #376]
 230 01be 131D     		adds	r3, r2, #4
 231 01c0 C7F87831 		str	r3, [r7, #376]
 232              		.loc 1 169 32
 233 01c4 1368     		ldr	r3, [r2]
 234              		.loc 1 169 24
 235 01c6 1C46     		mov	r4, r3
 236 01c8 4FEAE475 		asr	r5, r4, #31
 237              		.loc 1 169 44
 238 01cc D7F87421 		ldr	r2, [r7, #372]
 239 01d0 131F     		subs	r3, r2, #4
 240 01d2 C7F87431 		str	r3, [r7, #372]
 241              		.loc 1 169 41
 242 01d6 1368     		ldr	r3, [r2]
 243 01d8 1A46     		mov	r2, r3
 244 01da 4FEAE273 		asr	r3, r2, #31
 245              		.loc 1 169 38
 246 01de 02FB05F0 		mul	r0, r2, r5
 247 01e2 04FB03F1 		mul	r1, r4, r3
 248 01e6 0144     		add	r1, r1, r0
 249 01e8 A4FB0223 		umull	r2, r3, r4, r2
 250 01ec 1944     		add	r1, r1, r3
 251 01ee 0B46     		mov	r3, r1
 168:./Libraries/CMSIS/DSP/Source/FilteringFunctions/arm_conv_fast_q31.c ****                       ((q63_t) *px++ * (*py--))) >> 32);
 252              		.loc 1 168 43
 253 01f0 18EB0201 		adds	r1, r8, r2
 254 01f4 C7F80011 		str	r1, [r7, #256]
 255 01f8 49EB0303 		adc	r3, r9, r3
 256 01fc C7F80431 		str	r3, [r7, #260]
 257              		.loc 1 169 50
 258 0200 4FF00002 		mov	r2, #0
 259 0204 4FF00003 		mov	r3, #0
 260 0208 D7E94045 		ldrd	r4, [r7, #256]
 261 020c 2946     		mov	r1, r5
 262 020e 0A00     		movs	r2, r1
 263 0210 2946     		mov	r1, r5
 264 0212 CB17     		asrs	r3, r1, #31
 168:./Libraries/CMSIS/DSP/Source/FilteringFunctions/arm_conv_fast_q31.c ****                       ((q63_t) *px++ * (*py--))) >> 32);
 265              		.loc 1 168 11
 266 0214 1346     		mov	r3, r2
 267 0216 C7F86C31 		str	r3, [r7, #364]
 170:./Libraries/CMSIS/DSP/Source/FilteringFunctions/arm_conv_fast_q31.c **** 
 171:./Libraries/CMSIS/DSP/Source/FilteringFunctions/arm_conv_fast_q31.c ****       /* x[3] * y[srcBLen - 4] */
 172:./Libraries/CMSIS/DSP/Source/FilteringFunctions/arm_conv_fast_q31.c ****       sum = (q31_t) ((((q63_t) sum << 32) +
 268              		.loc 1 172 24
 269 021a D7F86C31 		ldr	r3, [r7, #364]
 270 021e 1A46     		mov	r2, r3
 271 0220 4FEAE273 		asr	r3, r2, #31
 272              		.loc 1 172 36
 273 0224 4FF00008 		mov	r8, #0
 274 0228 4FF00009 		mov	r9, #0
 275 022c 9146     		mov	r9, r2
 276 022e 4FF00008 		mov	r8, #0
 173:./Libraries/CMSIS/DSP/Source/FilteringFunctions/arm_conv_fast_q31.c ****                       ((q63_t) *px++ * (*py--))) >> 32);
 277              		.loc 1 173 35
 278 0232 D7F87821 		ldr	r2, [r7, #376]
ARM GAS  /tmp/ccbVjeMN.s 			page 9


 279 0236 131D     		adds	r3, r2, #4
 280 0238 C7F87831 		str	r3, [r7, #376]
 281              		.loc 1 173 32
 282 023c 1368     		ldr	r3, [r2]
 283              		.loc 1 173 24
 284 023e 1C46     		mov	r4, r3
 285 0240 4FEAE475 		asr	r5, r4, #31
 286              		.loc 1 173 44
 287 0244 D7F87421 		ldr	r2, [r7, #372]
 288 0248 131F     		subs	r3, r2, #4
 289 024a C7F87431 		str	r3, [r7, #372]
 290              		.loc 1 173 41
 291 024e 1368     		ldr	r3, [r2]
 292 0250 1A46     		mov	r2, r3
 293 0252 4FEAE273 		asr	r3, r2, #31
 294              		.loc 1 173 38
 295 0256 02FB05F0 		mul	r0, r2, r5
 296 025a 04FB03F1 		mul	r1, r4, r3
 297 025e 0144     		add	r1, r1, r0
 298 0260 A4FB0223 		umull	r2, r3, r4, r2
 299 0264 1944     		add	r1, r1, r3
 300 0266 0B46     		mov	r3, r1
 172:./Libraries/CMSIS/DSP/Source/FilteringFunctions/arm_conv_fast_q31.c ****                       ((q63_t) *px++ * (*py--))) >> 32);
 301              		.loc 1 172 43
 302 0268 18EB020A 		adds	r10, r8, r2
 303 026c 49EB030B 		adc	fp, r9, r3
 304              		.loc 1 173 50
 305 0270 4FF00002 		mov	r2, #0
 306 0274 4FF00003 		mov	r3, #0
 307 0278 5A46     		mov	r2, fp
 308 027a 4FEAEB73 		asr	r3, fp, #31
 172:./Libraries/CMSIS/DSP/Source/FilteringFunctions/arm_conv_fast_q31.c ****                       ((q63_t) *px++ * (*py--))) >> 32);
 309              		.loc 1 172 11
 310 027e 1346     		mov	r3, r2
 311 0280 C7F86C31 		str	r3, [r7, #364]
 174:./Libraries/CMSIS/DSP/Source/FilteringFunctions/arm_conv_fast_q31.c **** 
 175:./Libraries/CMSIS/DSP/Source/FilteringFunctions/arm_conv_fast_q31.c ****       /* Decrement loop counter */
 176:./Libraries/CMSIS/DSP/Source/FilteringFunctions/arm_conv_fast_q31.c ****       k--;
 312              		.loc 1 176 8
 313 0284 D7F84431 		ldr	r3, [r7, #324]
 314 0288 013B     		subs	r3, r3, #1
 315 028a C7F84431 		str	r3, [r7, #324]
 316              	.L5:
 157:./Libraries/CMSIS/DSP/Source/FilteringFunctions/arm_conv_fast_q31.c ****     {
 317              		.loc 1 157 11
 318 028e D7F84431 		ldr	r3, [r7, #324]
 319 0292 002B     		cmp	r3, #0
 320 0294 7FF40DAF 		bne	.L6
 177:./Libraries/CMSIS/DSP/Source/FilteringFunctions/arm_conv_fast_q31.c ****     }
 178:./Libraries/CMSIS/DSP/Source/FilteringFunctions/arm_conv_fast_q31.c **** 
 179:./Libraries/CMSIS/DSP/Source/FilteringFunctions/arm_conv_fast_q31.c ****     /* If the count is not a multiple of 4, compute any remaining MACs here.
 180:./Libraries/CMSIS/DSP/Source/FilteringFunctions/arm_conv_fast_q31.c ****      ** No loop unrolling is used. */
 181:./Libraries/CMSIS/DSP/Source/FilteringFunctions/arm_conv_fast_q31.c ****     k = count % 0x4U;
 321              		.loc 1 181 7
 322 0298 D7F84031 		ldr	r3, [r7, #320]
 323 029c 03F00303 		and	r3, r3, #3
 324 02a0 C7F84431 		str	r3, [r7, #324]
ARM GAS  /tmp/ccbVjeMN.s 			page 10


 182:./Libraries/CMSIS/DSP/Source/FilteringFunctions/arm_conv_fast_q31.c **** 
 183:./Libraries/CMSIS/DSP/Source/FilteringFunctions/arm_conv_fast_q31.c ****     while (k > 0U)
 325              		.loc 1 183 11
 326 02a4 40E0     		b	.L7
 327              	.L8:
 184:./Libraries/CMSIS/DSP/Source/FilteringFunctions/arm_conv_fast_q31.c ****     {
 185:./Libraries/CMSIS/DSP/Source/FilteringFunctions/arm_conv_fast_q31.c ****       /* Perform the multiply-accumulate */
 186:./Libraries/CMSIS/DSP/Source/FilteringFunctions/arm_conv_fast_q31.c ****       sum = (q31_t) ((((q63_t) sum << 32) +
 328              		.loc 1 186 24
 329 02a6 D7F86C31 		ldr	r3, [r7, #364]
 330 02aa 1A46     		mov	r2, r3
 331 02ac 4FEAE273 		asr	r3, r2, #31
 332              		.loc 1 186 36
 333 02b0 4FF00008 		mov	r8, #0
 334 02b4 4FF00009 		mov	r9, #0
 335 02b8 9146     		mov	r9, r2
 336 02ba 4FF00008 		mov	r8, #0
 187:./Libraries/CMSIS/DSP/Source/FilteringFunctions/arm_conv_fast_q31.c ****                       ((q63_t) *px++ * (*py--))) >> 32);
 337              		.loc 1 187 35
 338 02be D7F87821 		ldr	r2, [r7, #376]
 339 02c2 131D     		adds	r3, r2, #4
 340 02c4 C7F87831 		str	r3, [r7, #376]
 341              		.loc 1 187 32
 342 02c8 1368     		ldr	r3, [r2]
 343              		.loc 1 187 24
 344 02ca 1C46     		mov	r4, r3
 345 02cc 4FEAE475 		asr	r5, r4, #31
 346              		.loc 1 187 44
 347 02d0 D7F87421 		ldr	r2, [r7, #372]
 348 02d4 131F     		subs	r3, r2, #4
 349 02d6 C7F87431 		str	r3, [r7, #372]
 350              		.loc 1 187 41
 351 02da 1368     		ldr	r3, [r2]
 352 02dc 1A46     		mov	r2, r3
 353 02de 4FEAE273 		asr	r3, r2, #31
 354              		.loc 1 187 38
 355 02e2 02FB05F0 		mul	r0, r2, r5
 356 02e6 04FB03F1 		mul	r1, r4, r3
 357 02ea 0144     		add	r1, r1, r0
 358 02ec A4FB0223 		umull	r2, r3, r4, r2
 359 02f0 1944     		add	r1, r1, r3
 360 02f2 0B46     		mov	r3, r1
 186:./Libraries/CMSIS/DSP/Source/FilteringFunctions/arm_conv_fast_q31.c ****                       ((q63_t) *px++ * (*py--))) >> 32);
 361              		.loc 1 186 43
 362 02f4 18EB0201 		adds	r1, r8, r2
 363 02f8 C7F8F810 		str	r1, [r7, #248]
 364 02fc 49EB0303 		adc	r3, r9, r3
 365 0300 C7F8FC30 		str	r3, [r7, #252]
 366              		.loc 1 187 50
 367 0304 4FF00002 		mov	r2, #0
 368 0308 4FF00003 		mov	r3, #0
 369 030c D7E93E45 		ldrd	r4, [r7, #248]
 370 0310 2946     		mov	r1, r5
 371 0312 0A00     		movs	r2, r1
 372 0314 2946     		mov	r1, r5
 373 0316 CB17     		asrs	r3, r1, #31
 186:./Libraries/CMSIS/DSP/Source/FilteringFunctions/arm_conv_fast_q31.c ****                       ((q63_t) *px++ * (*py--))) >> 32);
ARM GAS  /tmp/ccbVjeMN.s 			page 11


 374              		.loc 1 186 11
 375 0318 1346     		mov	r3, r2
 376 031a C7F86C31 		str	r3, [r7, #364]
 188:./Libraries/CMSIS/DSP/Source/FilteringFunctions/arm_conv_fast_q31.c **** 
 189:./Libraries/CMSIS/DSP/Source/FilteringFunctions/arm_conv_fast_q31.c ****       /* Decrement loop counter */
 190:./Libraries/CMSIS/DSP/Source/FilteringFunctions/arm_conv_fast_q31.c ****       k--;
 377              		.loc 1 190 8
 378 031e D7F84431 		ldr	r3, [r7, #324]
 379 0322 013B     		subs	r3, r3, #1
 380 0324 C7F84431 		str	r3, [r7, #324]
 381              	.L7:
 183:./Libraries/CMSIS/DSP/Source/FilteringFunctions/arm_conv_fast_q31.c ****     {
 382              		.loc 1 183 11
 383 0328 D7F84431 		ldr	r3, [r7, #324]
 384 032c 002B     		cmp	r3, #0
 385 032e BAD1     		bne	.L8
 191:./Libraries/CMSIS/DSP/Source/FilteringFunctions/arm_conv_fast_q31.c ****     }
 192:./Libraries/CMSIS/DSP/Source/FilteringFunctions/arm_conv_fast_q31.c **** 
 193:./Libraries/CMSIS/DSP/Source/FilteringFunctions/arm_conv_fast_q31.c ****     /* Store the result in the accumulator in the destination buffer. */
 194:./Libraries/CMSIS/DSP/Source/FilteringFunctions/arm_conv_fast_q31.c ****     *pOut++ = sum << 1;
 386              		.loc 1 194 10
 387 0330 D7F87C21 		ldr	r2, [r7, #380]
 388 0334 131D     		adds	r3, r2, #4
 389 0336 C7F87C31 		str	r3, [r7, #380]
 390              		.loc 1 194 19
 391 033a D7F86C31 		ldr	r3, [r7, #364]
 392 033e 5B00     		lsls	r3, r3, #1
 393              		.loc 1 194 13
 394 0340 1360     		str	r3, [r2]
 195:./Libraries/CMSIS/DSP/Source/FilteringFunctions/arm_conv_fast_q31.c **** 
 196:./Libraries/CMSIS/DSP/Source/FilteringFunctions/arm_conv_fast_q31.c ****     /* Update the inputA and inputB pointers for next MAC calculation */
 197:./Libraries/CMSIS/DSP/Source/FilteringFunctions/arm_conv_fast_q31.c ****     py = pIn2 + count;
 395              		.loc 1 197 15
 396 0342 D7F84031 		ldr	r3, [r7, #320]
 397 0346 9A00     		lsls	r2, r3, #2
 398              		.loc 1 197 8
 399 0348 D7F88031 		ldr	r3, [r7, #384]
 400 034c 1344     		add	r3, r3, r2
 401 034e C7F87431 		str	r3, [r7, #372]
 198:./Libraries/CMSIS/DSP/Source/FilteringFunctions/arm_conv_fast_q31.c ****     px = pIn1;
 402              		.loc 1 198 8
 403 0352 D7F88431 		ldr	r3, [r7, #388]
 404 0356 C7F87831 		str	r3, [r7, #376]
 199:./Libraries/CMSIS/DSP/Source/FilteringFunctions/arm_conv_fast_q31.c **** 
 200:./Libraries/CMSIS/DSP/Source/FilteringFunctions/arm_conv_fast_q31.c ****     /* Increment MAC count */
 201:./Libraries/CMSIS/DSP/Source/FilteringFunctions/arm_conv_fast_q31.c ****     count++;
 405              		.loc 1 201 10
 406 035a D7F84031 		ldr	r3, [r7, #320]
 407 035e 0133     		adds	r3, r3, #1
 408 0360 C7F84031 		str	r3, [r7, #320]
 202:./Libraries/CMSIS/DSP/Source/FilteringFunctions/arm_conv_fast_q31.c **** 
 203:./Libraries/CMSIS/DSP/Source/FilteringFunctions/arm_conv_fast_q31.c ****     /* Decrement loop counter */
 204:./Libraries/CMSIS/DSP/Source/FilteringFunctions/arm_conv_fast_q31.c ****     blockSize1--;
 409              		.loc 1 204 15
 410 0364 D7F84C31 		ldr	r3, [r7, #332]
 411 0368 013B     		subs	r3, r3, #1
 412 036a C7F84C31 		str	r3, [r7, #332]
ARM GAS  /tmp/ccbVjeMN.s 			page 12


 413              	.L4:
 147:./Libraries/CMSIS/DSP/Source/FilteringFunctions/arm_conv_fast_q31.c ****   {
 414              		.loc 1 147 9
 415 036e D7F84C31 		ldr	r3, [r7, #332]
 416 0372 002B     		cmp	r3, #0
 417 0374 7FF494AE 		bne	.L9
 205:./Libraries/CMSIS/DSP/Source/FilteringFunctions/arm_conv_fast_q31.c ****   }
 206:./Libraries/CMSIS/DSP/Source/FilteringFunctions/arm_conv_fast_q31.c **** 
 207:./Libraries/CMSIS/DSP/Source/FilteringFunctions/arm_conv_fast_q31.c ****   /* --------------------------
 208:./Libraries/CMSIS/DSP/Source/FilteringFunctions/arm_conv_fast_q31.c ****    * Initializations of stage2
 209:./Libraries/CMSIS/DSP/Source/FilteringFunctions/arm_conv_fast_q31.c ****    * ------------------------*/
 210:./Libraries/CMSIS/DSP/Source/FilteringFunctions/arm_conv_fast_q31.c **** 
 211:./Libraries/CMSIS/DSP/Source/FilteringFunctions/arm_conv_fast_q31.c ****   /* sum = x[0] * y[srcBLen-1] + x[1] * y[srcBLen-2] +...+ x[srcBLen-1] * y[0]
 212:./Libraries/CMSIS/DSP/Source/FilteringFunctions/arm_conv_fast_q31.c ****    * sum = x[1] * y[srcBLen-1] + x[2] * y[srcBLen-2] +...+ x[srcBLen] * y[0]
 213:./Libraries/CMSIS/DSP/Source/FilteringFunctions/arm_conv_fast_q31.c ****    * ....
 214:./Libraries/CMSIS/DSP/Source/FilteringFunctions/arm_conv_fast_q31.c ****    * sum = x[srcALen-srcBLen-2] * y[srcBLen-1] + x[srcALen] * y[srcBLen-2] +...+ x[srcALen-1] * y[0
 215:./Libraries/CMSIS/DSP/Source/FilteringFunctions/arm_conv_fast_q31.c ****    */
 216:./Libraries/CMSIS/DSP/Source/FilteringFunctions/arm_conv_fast_q31.c **** 
 217:./Libraries/CMSIS/DSP/Source/FilteringFunctions/arm_conv_fast_q31.c ****   /* Working pointer of inputA */
 218:./Libraries/CMSIS/DSP/Source/FilteringFunctions/arm_conv_fast_q31.c ****   px = pIn1;
 418              		.loc 1 218 6
 419 0378 D7F88431 		ldr	r3, [r7, #388]
 420 037c C7F87831 		str	r3, [r7, #376]
 219:./Libraries/CMSIS/DSP/Source/FilteringFunctions/arm_conv_fast_q31.c **** 
 220:./Libraries/CMSIS/DSP/Source/FilteringFunctions/arm_conv_fast_q31.c ****   /* Working pointer of inputB */
 221:./Libraries/CMSIS/DSP/Source/FilteringFunctions/arm_conv_fast_q31.c ****   pSrc2 = pIn2 + (srcBLen - 1U);
 421              		.loc 1 221 16
 422 0380 D7F81821 		ldr	r2, [r7, #280]
 423 0384 6FF04043 		mvn	r3, #-1073741824
 424 0388 1344     		add	r3, r3, r2
 425 038a 9A00     		lsls	r2, r3, #2
 426              		.loc 1 221 9
 427 038c D7F88031 		ldr	r3, [r7, #384]
 428 0390 1344     		add	r3, r3, r2
 429 0392 C7F83031 		str	r3, [r7, #304]
 222:./Libraries/CMSIS/DSP/Source/FilteringFunctions/arm_conv_fast_q31.c ****   py = pSrc2;
 430              		.loc 1 222 6
 431 0396 D7F83031 		ldr	r3, [r7, #304]
 432 039a C7F87431 		str	r3, [r7, #372]
 223:./Libraries/CMSIS/DSP/Source/FilteringFunctions/arm_conv_fast_q31.c **** 
 224:./Libraries/CMSIS/DSP/Source/FilteringFunctions/arm_conv_fast_q31.c ****   /* count is index by which the pointer pIn1 to be incremented */
 225:./Libraries/CMSIS/DSP/Source/FilteringFunctions/arm_conv_fast_q31.c ****   count = 0U;
 433              		.loc 1 225 9
 434 039e 0023     		movs	r3, #0
 435 03a0 C7F84031 		str	r3, [r7, #320]
 226:./Libraries/CMSIS/DSP/Source/FilteringFunctions/arm_conv_fast_q31.c **** 
 227:./Libraries/CMSIS/DSP/Source/FilteringFunctions/arm_conv_fast_q31.c ****   /* -------------------
 228:./Libraries/CMSIS/DSP/Source/FilteringFunctions/arm_conv_fast_q31.c ****    * Stage2 process
 229:./Libraries/CMSIS/DSP/Source/FilteringFunctions/arm_conv_fast_q31.c ****    * ------------------*/
 230:./Libraries/CMSIS/DSP/Source/FilteringFunctions/arm_conv_fast_q31.c **** 
 231:./Libraries/CMSIS/DSP/Source/FilteringFunctions/arm_conv_fast_q31.c ****   /* Stage2 depends on srcBLen as in this stage srcBLen number of MACS are performed.
 232:./Libraries/CMSIS/DSP/Source/FilteringFunctions/arm_conv_fast_q31.c ****    * So, to loop unroll over blockSize2,
 233:./Libraries/CMSIS/DSP/Source/FilteringFunctions/arm_conv_fast_q31.c ****    * srcBLen should be greater than or equal to 4 */
 234:./Libraries/CMSIS/DSP/Source/FilteringFunctions/arm_conv_fast_q31.c ****   if (srcBLen >= 4U)
 436              		.loc 1 234 6
 437 03a4 D7F81831 		ldr	r3, [r7, #280]
 438 03a8 032B     		cmp	r3, #3
ARM GAS  /tmp/ccbVjeMN.s 			page 13


 439 03aa 40F25D86 		bls	.L10
 235:./Libraries/CMSIS/DSP/Source/FilteringFunctions/arm_conv_fast_q31.c ****   {
 236:./Libraries/CMSIS/DSP/Source/FilteringFunctions/arm_conv_fast_q31.c ****     /* Loop unroll over blockSize2, by 4 */
 237:./Libraries/CMSIS/DSP/Source/FilteringFunctions/arm_conv_fast_q31.c ****     blkCnt = blockSize2 >> 2U;
 440              		.loc 1 237 12
 441 03ae D7F83431 		ldr	r3, [r7, #308]
 442 03b2 9B08     		lsrs	r3, r3, #2
 443 03b4 C7F83C31 		str	r3, [r7, #316]
 238:./Libraries/CMSIS/DSP/Source/FilteringFunctions/arm_conv_fast_q31.c **** 
 239:./Libraries/CMSIS/DSP/Source/FilteringFunctions/arm_conv_fast_q31.c ****     while (blkCnt > 0U)
 444              		.loc 1 239 11
 445 03b8 00F0E0BC 		b	.L11
 446              	.L15:
 240:./Libraries/CMSIS/DSP/Source/FilteringFunctions/arm_conv_fast_q31.c ****     {
 241:./Libraries/CMSIS/DSP/Source/FilteringFunctions/arm_conv_fast_q31.c ****       /* Set all accumulators to zero */
 242:./Libraries/CMSIS/DSP/Source/FilteringFunctions/arm_conv_fast_q31.c ****       acc0 = 0;
 447              		.loc 1 242 12
 448 03bc 0023     		movs	r3, #0
 449 03be C7F86831 		str	r3, [r7, #360]
 243:./Libraries/CMSIS/DSP/Source/FilteringFunctions/arm_conv_fast_q31.c ****       acc1 = 0;
 450              		.loc 1 243 12
 451 03c2 0023     		movs	r3, #0
 452 03c4 C7F86431 		str	r3, [r7, #356]
 244:./Libraries/CMSIS/DSP/Source/FilteringFunctions/arm_conv_fast_q31.c ****       acc2 = 0;
 453              		.loc 1 244 12
 454 03c8 0023     		movs	r3, #0
 455 03ca C7F86031 		str	r3, [r7, #352]
 245:./Libraries/CMSIS/DSP/Source/FilteringFunctions/arm_conv_fast_q31.c ****       acc3 = 0;
 456              		.loc 1 245 12
 457 03ce 0023     		movs	r3, #0
 458 03d0 C7F85C31 		str	r3, [r7, #348]
 246:./Libraries/CMSIS/DSP/Source/FilteringFunctions/arm_conv_fast_q31.c **** 
 247:./Libraries/CMSIS/DSP/Source/FilteringFunctions/arm_conv_fast_q31.c ****       /* read x[0], x[1], x[2] samples */
 248:./Libraries/CMSIS/DSP/Source/FilteringFunctions/arm_conv_fast_q31.c ****       x0 = *px++;
 459              		.loc 1 248 15
 460 03d4 D7F87821 		ldr	r2, [r7, #376]
 461 03d8 131D     		adds	r3, r2, #4
 462 03da C7F87831 		str	r3, [r7, #376]
 463              		.loc 1 248 10
 464 03de 1368     		ldr	r3, [r2]
 465 03e0 C7F85831 		str	r3, [r7, #344]
 249:./Libraries/CMSIS/DSP/Source/FilteringFunctions/arm_conv_fast_q31.c ****       x1 = *px++;
 466              		.loc 1 249 15
 467 03e4 D7F87821 		ldr	r2, [r7, #376]
 468 03e8 131D     		adds	r3, r2, #4
 469 03ea C7F87831 		str	r3, [r7, #376]
 470              		.loc 1 249 10
 471 03ee 1368     		ldr	r3, [r2]
 472 03f0 C7F85431 		str	r3, [r7, #340]
 250:./Libraries/CMSIS/DSP/Source/FilteringFunctions/arm_conv_fast_q31.c ****       x2 = *px++;
 473              		.loc 1 250 15
 474 03f4 D7F87821 		ldr	r2, [r7, #376]
 475 03f8 131D     		adds	r3, r2, #4
 476 03fa C7F87831 		str	r3, [r7, #376]
 477              		.loc 1 250 10
 478 03fe 1368     		ldr	r3, [r2]
 479 0400 C7F85031 		str	r3, [r7, #336]
ARM GAS  /tmp/ccbVjeMN.s 			page 14


 251:./Libraries/CMSIS/DSP/Source/FilteringFunctions/arm_conv_fast_q31.c **** 
 252:./Libraries/CMSIS/DSP/Source/FilteringFunctions/arm_conv_fast_q31.c ****       /* Apply loop unrolling and compute 4 MACs simultaneously. */
 253:./Libraries/CMSIS/DSP/Source/FilteringFunctions/arm_conv_fast_q31.c ****       k = srcBLen >> 2U;
 480              		.loc 1 253 9
 481 0404 D7F81831 		ldr	r3, [r7, #280]
 482 0408 9B08     		lsrs	r3, r3, #2
 483 040a C7F84431 		str	r3, [r7, #324]
 484              	.L12:
 254:./Libraries/CMSIS/DSP/Source/FilteringFunctions/arm_conv_fast_q31.c **** 
 255:./Libraries/CMSIS/DSP/Source/FilteringFunctions/arm_conv_fast_q31.c ****       /* First part of the processing with loop unrolling.  Compute 4 MACs at a time.
 256:./Libraries/CMSIS/DSP/Source/FilteringFunctions/arm_conv_fast_q31.c ****        ** a second loop below computes MACs for the remaining 1 to 3 samples. */
 257:./Libraries/CMSIS/DSP/Source/FilteringFunctions/arm_conv_fast_q31.c ****       do
 258:./Libraries/CMSIS/DSP/Source/FilteringFunctions/arm_conv_fast_q31.c ****       {
 259:./Libraries/CMSIS/DSP/Source/FilteringFunctions/arm_conv_fast_q31.c ****         /* Read y[srcBLen - 1] sample */
 260:./Libraries/CMSIS/DSP/Source/FilteringFunctions/arm_conv_fast_q31.c ****         c0 = *py--;
 485              		.loc 1 260 17 discriminator 1
 486 040e D7F87421 		ldr	r2, [r7, #372]
 487 0412 131F     		subs	r3, r2, #4
 488 0414 C7F87431 		str	r3, [r7, #372]
 489              		.loc 1 260 12 discriminator 1
 490 0418 1368     		ldr	r3, [r2]
 491 041a C7F82C31 		str	r3, [r7, #300]
 261:./Libraries/CMSIS/DSP/Source/FilteringFunctions/arm_conv_fast_q31.c ****         /* Read x[3] sample */
 262:./Libraries/CMSIS/DSP/Source/FilteringFunctions/arm_conv_fast_q31.c ****         x3 = *px++;
 492              		.loc 1 262 17 discriminator 1
 493 041e D7F87821 		ldr	r2, [r7, #376]
 494 0422 131D     		adds	r3, r2, #4
 495 0424 C7F87831 		str	r3, [r7, #376]
 496              		.loc 1 262 12 discriminator 1
 497 0428 1368     		ldr	r3, [r2]
 498 042a C7F82831 		str	r3, [r7, #296]
 263:./Libraries/CMSIS/DSP/Source/FilteringFunctions/arm_conv_fast_q31.c **** 
 264:./Libraries/CMSIS/DSP/Source/FilteringFunctions/arm_conv_fast_q31.c ****         /* Perform the multiply-accumulate */
 265:./Libraries/CMSIS/DSP/Source/FilteringFunctions/arm_conv_fast_q31.c ****         /* acc0 +=  x[0] * y[srcBLen - 1] */
 266:./Libraries/CMSIS/DSP/Source/FilteringFunctions/arm_conv_fast_q31.c ****         acc0 = (q31_t) ((((q63_t) acc0 << 32) + ((q63_t) x0 * c0)) >> 32);
 499              		.loc 1 266 27 discriminator 1
 500 042e D7F86831 		ldr	r3, [r7, #360]
 501 0432 1A46     		mov	r2, r3
 502 0434 4FEAE273 		asr	r3, r2, #31
 503              		.loc 1 266 40 discriminator 1
 504 0438 4FF00008 		mov	r8, #0
 505 043c 4FF00009 		mov	r9, #0
 506 0440 9146     		mov	r9, r2
 507 0442 4FF00008 		mov	r8, #0
 508              		.loc 1 266 50 discriminator 1
 509 0446 D7F85831 		ldr	r3, [r7, #344]
 510 044a 1846     		mov	r0, r3
 511 044c 4FEAE071 		asr	r1, r0, #31
 512              		.loc 1 266 61 discriminator 1
 513 0450 D7F82C31 		ldr	r3, [r7, #300]
 514 0454 1A46     		mov	r2, r3
 515 0456 4FEAE273 		asr	r3, r2, #31
 516 045a 02FB01F5 		mul	r5, r2, r1
 517 045e 00FB03F4 		mul	r4, r0, r3
 518 0462 2C44     		add	r4, r4, r5
 519 0464 A0FB0223 		umull	r2, r3, r0, r2
 520 0468 E118     		adds	r1, r4, r3
ARM GAS  /tmp/ccbVjeMN.s 			page 15


 521 046a 0B46     		mov	r3, r1
 522              		.loc 1 266 47 discriminator 1
 523 046c 18EB0201 		adds	r1, r8, r2
 524 0470 C7F8F010 		str	r1, [r7, #240]
 525 0474 49EB0303 		adc	r3, r9, r3
 526 0478 C7F8F430 		str	r3, [r7, #244]
 527              		.loc 1 266 68 discriminator 1
 528 047c 4FF00002 		mov	r2, #0
 529 0480 4FF00003 		mov	r3, #0
 530 0484 D7E93C45 		ldrd	r4, [r7, #240]
 531 0488 2946     		mov	r1, r5
 532 048a 0A00     		movs	r2, r1
 533 048c 2946     		mov	r1, r5
 534 048e CB17     		asrs	r3, r1, #31
 535              		.loc 1 266 14 discriminator 1
 536 0490 1346     		mov	r3, r2
 537 0492 C7F86831 		str	r3, [r7, #360]
 267:./Libraries/CMSIS/DSP/Source/FilteringFunctions/arm_conv_fast_q31.c ****         /* acc1 +=  x[1] * y[srcBLen - 1] */
 268:./Libraries/CMSIS/DSP/Source/FilteringFunctions/arm_conv_fast_q31.c ****         acc1 = (q31_t) ((((q63_t) acc1 << 32) + ((q63_t) x1 * c0)) >> 32);
 538              		.loc 1 268 27 discriminator 1
 539 0496 D7F86431 		ldr	r3, [r7, #356]
 540 049a 1A46     		mov	r2, r3
 541 049c 4FEAE273 		asr	r3, r2, #31
 542              		.loc 1 268 40 discriminator 1
 543 04a0 4FF00008 		mov	r8, #0
 544 04a4 4FF00009 		mov	r9, #0
 545 04a8 9146     		mov	r9, r2
 546 04aa 4FF00008 		mov	r8, #0
 547              		.loc 1 268 50 discriminator 1
 548 04ae D7F85431 		ldr	r3, [r7, #340]
 549 04b2 1846     		mov	r0, r3
 550 04b4 4FEAE071 		asr	r1, r0, #31
 551              		.loc 1 268 61 discriminator 1
 552 04b8 D7F82C31 		ldr	r3, [r7, #300]
 553 04bc 1A46     		mov	r2, r3
 554 04be 4FEAE273 		asr	r3, r2, #31
 555 04c2 02FB01F5 		mul	r5, r2, r1
 556 04c6 00FB03F4 		mul	r4, r0, r3
 557 04ca 2C44     		add	r4, r4, r5
 558 04cc A0FB0223 		umull	r2, r3, r0, r2
 559 04d0 E118     		adds	r1, r4, r3
 560 04d2 0B46     		mov	r3, r1
 561              		.loc 1 268 47 discriminator 1
 562 04d4 18EB0201 		adds	r1, r8, r2
 563 04d8 C7F8E810 		str	r1, [r7, #232]
 564 04dc 49EB0303 		adc	r3, r9, r3
 565 04e0 C7F8EC30 		str	r3, [r7, #236]
 566              		.loc 1 268 68 discriminator 1
 567 04e4 4FF00002 		mov	r2, #0
 568 04e8 4FF00003 		mov	r3, #0
 569 04ec D7E93A45 		ldrd	r4, [r7, #232]
 570 04f0 2946     		mov	r1, r5
 571 04f2 0A00     		movs	r2, r1
 572 04f4 2946     		mov	r1, r5
 573 04f6 CB17     		asrs	r3, r1, #31
 574              		.loc 1 268 14 discriminator 1
 575 04f8 1346     		mov	r3, r2
ARM GAS  /tmp/ccbVjeMN.s 			page 16


 576 04fa C7F86431 		str	r3, [r7, #356]
 269:./Libraries/CMSIS/DSP/Source/FilteringFunctions/arm_conv_fast_q31.c ****         /* acc2 +=  x[2] * y[srcBLen - 1] */
 270:./Libraries/CMSIS/DSP/Source/FilteringFunctions/arm_conv_fast_q31.c ****         acc2 = (q31_t) ((((q63_t) acc2 << 32) + ((q63_t) x2 * c0)) >> 32);
 577              		.loc 1 270 27 discriminator 1
 578 04fe D7F86031 		ldr	r3, [r7, #352]
 579 0502 1A46     		mov	r2, r3
 580 0504 4FEAE273 		asr	r3, r2, #31
 581              		.loc 1 270 40 discriminator 1
 582 0508 4FF00008 		mov	r8, #0
 583 050c 4FF00009 		mov	r9, #0
 584 0510 9146     		mov	r9, r2
 585 0512 4FF00008 		mov	r8, #0
 586              		.loc 1 270 50 discriminator 1
 587 0516 D7F85031 		ldr	r3, [r7, #336]
 588 051a 1846     		mov	r0, r3
 589 051c 4FEAE071 		asr	r1, r0, #31
 590              		.loc 1 270 61 discriminator 1
 591 0520 D7F82C31 		ldr	r3, [r7, #300]
 592 0524 1A46     		mov	r2, r3
 593 0526 4FEAE273 		asr	r3, r2, #31
 594 052a 02FB01F5 		mul	r5, r2, r1
 595 052e 00FB03F4 		mul	r4, r0, r3
 596 0532 2C44     		add	r4, r4, r5
 597 0534 A0FB0223 		umull	r2, r3, r0, r2
 598 0538 E118     		adds	r1, r4, r3
 599 053a 0B46     		mov	r3, r1
 600              		.loc 1 270 47 discriminator 1
 601 053c 18EB0201 		adds	r1, r8, r2
 602 0540 C7F8E010 		str	r1, [r7, #224]
 603 0544 49EB0303 		adc	r3, r9, r3
 604 0548 C7F8E430 		str	r3, [r7, #228]
 605              		.loc 1 270 68 discriminator 1
 606 054c 4FF00002 		mov	r2, #0
 607 0550 4FF00003 		mov	r3, #0
 608 0554 D7E93845 		ldrd	r4, [r7, #224]
 609 0558 2946     		mov	r1, r5
 610 055a 0A00     		movs	r2, r1
 611 055c 2946     		mov	r1, r5
 612 055e CB17     		asrs	r3, r1, #31
 613              		.loc 1 270 14 discriminator 1
 614 0560 1346     		mov	r3, r2
 615 0562 C7F86031 		str	r3, [r7, #352]
 271:./Libraries/CMSIS/DSP/Source/FilteringFunctions/arm_conv_fast_q31.c ****         /* acc3 +=  x[3] * y[srcBLen - 1] */
 272:./Libraries/CMSIS/DSP/Source/FilteringFunctions/arm_conv_fast_q31.c ****         acc3 = (q31_t) ((((q63_t) acc3 << 32) + ((q63_t) x3 * c0)) >> 32);
 616              		.loc 1 272 27 discriminator 1
 617 0566 D7F85C31 		ldr	r3, [r7, #348]
 618 056a 1A46     		mov	r2, r3
 619 056c 4FEAE273 		asr	r3, r2, #31
 620              		.loc 1 272 40 discriminator 1
 621 0570 4FF00008 		mov	r8, #0
 622 0574 4FF00009 		mov	r9, #0
 623 0578 9146     		mov	r9, r2
 624 057a 4FF00008 		mov	r8, #0
 625              		.loc 1 272 50 discriminator 1
 626 057e D7F82831 		ldr	r3, [r7, #296]
 627 0582 1846     		mov	r0, r3
 628 0584 4FEAE071 		asr	r1, r0, #31
ARM GAS  /tmp/ccbVjeMN.s 			page 17


 629              		.loc 1 272 61 discriminator 1
 630 0588 D7F82C31 		ldr	r3, [r7, #300]
 631 058c 1A46     		mov	r2, r3
 632 058e 4FEAE273 		asr	r3, r2, #31
 633 0592 02FB01F5 		mul	r5, r2, r1
 634 0596 00FB03F4 		mul	r4, r0, r3
 635 059a 2C44     		add	r4, r4, r5
 636 059c A0FB0223 		umull	r2, r3, r0, r2
 637 05a0 E118     		adds	r1, r4, r3
 638 05a2 0B46     		mov	r3, r1
 639              		.loc 1 272 47 discriminator 1
 640 05a4 18EB0201 		adds	r1, r8, r2
 641 05a8 C7F8D810 		str	r1, [r7, #216]
 642 05ac 49EB0303 		adc	r3, r9, r3
 643 05b0 C7F8DC30 		str	r3, [r7, #220]
 644              		.loc 1 272 68 discriminator 1
 645 05b4 4FF00002 		mov	r2, #0
 646 05b8 4FF00003 		mov	r3, #0
 647 05bc D7E93645 		ldrd	r4, [r7, #216]
 648 05c0 2946     		mov	r1, r5
 649 05c2 0A00     		movs	r2, r1
 650 05c4 2946     		mov	r1, r5
 651 05c6 CB17     		asrs	r3, r1, #31
 652              		.loc 1 272 14 discriminator 1
 653 05c8 1346     		mov	r3, r2
 654 05ca C7F85C31 		str	r3, [r7, #348]
 273:./Libraries/CMSIS/DSP/Source/FilteringFunctions/arm_conv_fast_q31.c **** 
 274:./Libraries/CMSIS/DSP/Source/FilteringFunctions/arm_conv_fast_q31.c **** 
 275:./Libraries/CMSIS/DSP/Source/FilteringFunctions/arm_conv_fast_q31.c ****         /* Read y[srcBLen - 2] sample */
 276:./Libraries/CMSIS/DSP/Source/FilteringFunctions/arm_conv_fast_q31.c ****         c0 = *py--;
 655              		.loc 1 276 17 discriminator 1
 656 05ce D7F87421 		ldr	r2, [r7, #372]
 657 05d2 131F     		subs	r3, r2, #4
 658 05d4 C7F87431 		str	r3, [r7, #372]
 659              		.loc 1 276 12 discriminator 1
 660 05d8 1368     		ldr	r3, [r2]
 661 05da C7F82C31 		str	r3, [r7, #300]
 277:./Libraries/CMSIS/DSP/Source/FilteringFunctions/arm_conv_fast_q31.c ****         /* Read x[4] sample */
 278:./Libraries/CMSIS/DSP/Source/FilteringFunctions/arm_conv_fast_q31.c ****         x0 = *px++;
 662              		.loc 1 278 17 discriminator 1
 663 05de D7F87821 		ldr	r2, [r7, #376]
 664 05e2 131D     		adds	r3, r2, #4
 665 05e4 C7F87831 		str	r3, [r7, #376]
 666              		.loc 1 278 12 discriminator 1
 667 05e8 1368     		ldr	r3, [r2]
 668 05ea C7F85831 		str	r3, [r7, #344]
 279:./Libraries/CMSIS/DSP/Source/FilteringFunctions/arm_conv_fast_q31.c **** 
 280:./Libraries/CMSIS/DSP/Source/FilteringFunctions/arm_conv_fast_q31.c ****         /* Perform the multiply-accumulate */
 281:./Libraries/CMSIS/DSP/Source/FilteringFunctions/arm_conv_fast_q31.c ****         /* acc0 +=  x[1] * y[srcBLen - 2] */
 282:./Libraries/CMSIS/DSP/Source/FilteringFunctions/arm_conv_fast_q31.c ****         acc0 = (q31_t) ((((q63_t) acc0 << 32) + ((q63_t) x1 * c0)) >> 32);
 669              		.loc 1 282 27 discriminator 1
 670 05ee D7F86831 		ldr	r3, [r7, #360]
 671 05f2 1A46     		mov	r2, r3
 672 05f4 4FEAE273 		asr	r3, r2, #31
 673              		.loc 1 282 40 discriminator 1
 674 05f8 4FF00008 		mov	r8, #0
 675 05fc 4FF00009 		mov	r9, #0
ARM GAS  /tmp/ccbVjeMN.s 			page 18


 676 0600 9146     		mov	r9, r2
 677 0602 4FF00008 		mov	r8, #0
 678              		.loc 1 282 50 discriminator 1
 679 0606 D7F85431 		ldr	r3, [r7, #340]
 680 060a 1846     		mov	r0, r3
 681 060c 4FEAE071 		asr	r1, r0, #31
 682              		.loc 1 282 61 discriminator 1
 683 0610 D7F82C31 		ldr	r3, [r7, #300]
 684 0614 1A46     		mov	r2, r3
 685 0616 4FEAE273 		asr	r3, r2, #31
 686 061a 02FB01F5 		mul	r5, r2, r1
 687 061e 00FB03F4 		mul	r4, r0, r3
 688 0622 2C44     		add	r4, r4, r5
 689 0624 A0FB0223 		umull	r2, r3, r0, r2
 690 0628 E118     		adds	r1, r4, r3
 691 062a 0B46     		mov	r3, r1
 692              		.loc 1 282 47 discriminator 1
 693 062c 18EB0201 		adds	r1, r8, r2
 694 0630 C7F8D010 		str	r1, [r7, #208]
 695 0634 49EB0303 		adc	r3, r9, r3
 696 0638 C7F8D430 		str	r3, [r7, #212]
 697              		.loc 1 282 68 discriminator 1
 698 063c 4FF00002 		mov	r2, #0
 699 0640 4FF00003 		mov	r3, #0
 700 0644 D7E93445 		ldrd	r4, [r7, #208]
 701 0648 2946     		mov	r1, r5
 702 064a 0A00     		movs	r2, r1
 703 064c 2946     		mov	r1, r5
 704 064e CB17     		asrs	r3, r1, #31
 705              		.loc 1 282 14 discriminator 1
 706 0650 1346     		mov	r3, r2
 707 0652 C7F86831 		str	r3, [r7, #360]
 283:./Libraries/CMSIS/DSP/Source/FilteringFunctions/arm_conv_fast_q31.c ****         /* acc1 +=  x[2] * y[srcBLen - 2] */
 284:./Libraries/CMSIS/DSP/Source/FilteringFunctions/arm_conv_fast_q31.c ****         acc1 = (q31_t) ((((q63_t) acc1 << 32) + ((q63_t) x2 * c0)) >> 32);
 708              		.loc 1 284 27 discriminator 1
 709 0656 D7F86431 		ldr	r3, [r7, #356]
 710 065a 1A46     		mov	r2, r3
 711 065c 4FEAE273 		asr	r3, r2, #31
 712              		.loc 1 284 40 discriminator 1
 713 0660 4FF00008 		mov	r8, #0
 714 0664 4FF00009 		mov	r9, #0
 715 0668 9146     		mov	r9, r2
 716 066a 4FF00008 		mov	r8, #0
 717              		.loc 1 284 50 discriminator 1
 718 066e D7F85031 		ldr	r3, [r7, #336]
 719 0672 1846     		mov	r0, r3
 720 0674 4FEAE071 		asr	r1, r0, #31
 721              		.loc 1 284 61 discriminator 1
 722 0678 D7F82C31 		ldr	r3, [r7, #300]
 723 067c 1A46     		mov	r2, r3
 724 067e 4FEAE273 		asr	r3, r2, #31
 725 0682 02FB01F5 		mul	r5, r2, r1
 726 0686 00FB03F4 		mul	r4, r0, r3
 727 068a 2C44     		add	r4, r4, r5
 728 068c A0FB0223 		umull	r2, r3, r0, r2
 729 0690 E118     		adds	r1, r4, r3
 730 0692 0B46     		mov	r3, r1
ARM GAS  /tmp/ccbVjeMN.s 			page 19


 731              		.loc 1 284 47 discriminator 1
 732 0694 18EB0201 		adds	r1, r8, r2
 733 0698 C7F8C810 		str	r1, [r7, #200]
 734 069c 49EB0303 		adc	r3, r9, r3
 735 06a0 C7F8CC30 		str	r3, [r7, #204]
 736              		.loc 1 284 68 discriminator 1
 737 06a4 4FF00002 		mov	r2, #0
 738 06a8 4FF00003 		mov	r3, #0
 739 06ac D7E93245 		ldrd	r4, [r7, #200]
 740 06b0 2946     		mov	r1, r5
 741 06b2 0A00     		movs	r2, r1
 742 06b4 2946     		mov	r1, r5
 743 06b6 CB17     		asrs	r3, r1, #31
 744              		.loc 1 284 14 discriminator 1
 745 06b8 1346     		mov	r3, r2
 746 06ba C7F86431 		str	r3, [r7, #356]
 285:./Libraries/CMSIS/DSP/Source/FilteringFunctions/arm_conv_fast_q31.c ****         /* acc2 +=  x[3] * y[srcBLen - 2] */
 286:./Libraries/CMSIS/DSP/Source/FilteringFunctions/arm_conv_fast_q31.c ****         acc2 = (q31_t) ((((q63_t) acc2 << 32) + ((q63_t) x3 * c0)) >> 32);
 747              		.loc 1 286 27 discriminator 1
 748 06be D7F86031 		ldr	r3, [r7, #352]
 749 06c2 1A46     		mov	r2, r3
 750 06c4 4FEAE273 		asr	r3, r2, #31
 751              		.loc 1 286 40 discriminator 1
 752 06c8 4FF00008 		mov	r8, #0
 753 06cc 4FF00009 		mov	r9, #0
 754 06d0 9146     		mov	r9, r2
 755 06d2 4FF00008 		mov	r8, #0
 756              		.loc 1 286 50 discriminator 1
 757 06d6 D7F82831 		ldr	r3, [r7, #296]
 758 06da 1846     		mov	r0, r3
 759 06dc 4FEAE071 		asr	r1, r0, #31
 760              		.loc 1 286 61 discriminator 1
 761 06e0 D7F82C31 		ldr	r3, [r7, #300]
 762 06e4 1A46     		mov	r2, r3
 763 06e6 4FEAE273 		asr	r3, r2, #31
 764 06ea 02FB01F5 		mul	r5, r2, r1
 765 06ee 00FB03F4 		mul	r4, r0, r3
 766 06f2 2C44     		add	r4, r4, r5
 767 06f4 A0FB0223 		umull	r2, r3, r0, r2
 768 06f8 E118     		adds	r1, r4, r3
 769 06fa 0B46     		mov	r3, r1
 770              		.loc 1 286 47 discriminator 1
 771 06fc 18EB0201 		adds	r1, r8, r2
 772 0700 C7F8C010 		str	r1, [r7, #192]
 773 0704 49EB0303 		adc	r3, r9, r3
 774 0708 C7F8C430 		str	r3, [r7, #196]
 775              		.loc 1 286 68 discriminator 1
 776 070c 4FF00002 		mov	r2, #0
 777 0710 4FF00003 		mov	r3, #0
 778 0714 D7E93045 		ldrd	r4, [r7, #192]
 779 0718 2946     		mov	r1, r5
 780 071a 0A00     		movs	r2, r1
 781 071c 2946     		mov	r1, r5
 782 071e CB17     		asrs	r3, r1, #31
 783              		.loc 1 286 14 discriminator 1
 784 0720 1346     		mov	r3, r2
 785 0722 C7F86031 		str	r3, [r7, #352]
ARM GAS  /tmp/ccbVjeMN.s 			page 20


 287:./Libraries/CMSIS/DSP/Source/FilteringFunctions/arm_conv_fast_q31.c ****         /* acc3 +=  x[4] * y[srcBLen - 2] */
 288:./Libraries/CMSIS/DSP/Source/FilteringFunctions/arm_conv_fast_q31.c ****         acc3 = (q31_t) ((((q63_t) acc3 << 32) + ((q63_t) x0 * c0)) >> 32);
 786              		.loc 1 288 27 discriminator 1
 787 0726 D7F85C31 		ldr	r3, [r7, #348]
 788 072a 1A46     		mov	r2, r3
 789 072c 4FEAE273 		asr	r3, r2, #31
 790              		.loc 1 288 40 discriminator 1
 791 0730 4FF00008 		mov	r8, #0
 792 0734 4FF00009 		mov	r9, #0
 793 0738 9146     		mov	r9, r2
 794 073a 4FF00008 		mov	r8, #0
 795              		.loc 1 288 50 discriminator 1
 796 073e D7F85831 		ldr	r3, [r7, #344]
 797 0742 1846     		mov	r0, r3
 798 0744 4FEAE071 		asr	r1, r0, #31
 799              		.loc 1 288 61 discriminator 1
 800 0748 D7F82C31 		ldr	r3, [r7, #300]
 801 074c 1A46     		mov	r2, r3
 802 074e 4FEAE273 		asr	r3, r2, #31
 803 0752 02FB01F5 		mul	r5, r2, r1
 804 0756 00FB03F4 		mul	r4, r0, r3
 805 075a 2C44     		add	r4, r4, r5
 806 075c A0FB0223 		umull	r2, r3, r0, r2
 807 0760 E118     		adds	r1, r4, r3
 808 0762 0B46     		mov	r3, r1
 809              		.loc 1 288 47 discriminator 1
 810 0764 18EB0201 		adds	r1, r8, r2
 811 0768 C7F8B810 		str	r1, [r7, #184]
 812 076c 49EB0303 		adc	r3, r9, r3
 813 0770 C7F8BC30 		str	r3, [r7, #188]
 814              		.loc 1 288 68 discriminator 1
 815 0774 4FF00002 		mov	r2, #0
 816 0778 4FF00003 		mov	r3, #0
 817 077c D7E92E45 		ldrd	r4, [r7, #184]
 818 0780 2946     		mov	r1, r5
 819 0782 0A00     		movs	r2, r1
 820 0784 2946     		mov	r1, r5
 821 0786 CB17     		asrs	r3, r1, #31
 822              		.loc 1 288 14 discriminator 1
 823 0788 1346     		mov	r3, r2
 824 078a C7F85C31 		str	r3, [r7, #348]
 289:./Libraries/CMSIS/DSP/Source/FilteringFunctions/arm_conv_fast_q31.c **** 
 290:./Libraries/CMSIS/DSP/Source/FilteringFunctions/arm_conv_fast_q31.c **** 
 291:./Libraries/CMSIS/DSP/Source/FilteringFunctions/arm_conv_fast_q31.c ****         /* Read y[srcBLen - 3] sample */
 292:./Libraries/CMSIS/DSP/Source/FilteringFunctions/arm_conv_fast_q31.c ****         c0 = *py--;
 825              		.loc 1 292 17 discriminator 1
 826 078e D7F87421 		ldr	r2, [r7, #372]
 827 0792 131F     		subs	r3, r2, #4
 828 0794 C7F87431 		str	r3, [r7, #372]
 829              		.loc 1 292 12 discriminator 1
 830 0798 1368     		ldr	r3, [r2]
 831 079a C7F82C31 		str	r3, [r7, #300]
 293:./Libraries/CMSIS/DSP/Source/FilteringFunctions/arm_conv_fast_q31.c ****         /* Read x[5] sample */
 294:./Libraries/CMSIS/DSP/Source/FilteringFunctions/arm_conv_fast_q31.c ****         x1 = *px++;
 832              		.loc 1 294 17 discriminator 1
 833 079e D7F87821 		ldr	r2, [r7, #376]
 834 07a2 131D     		adds	r3, r2, #4
ARM GAS  /tmp/ccbVjeMN.s 			page 21


 835 07a4 C7F87831 		str	r3, [r7, #376]
 836              		.loc 1 294 12 discriminator 1
 837 07a8 1368     		ldr	r3, [r2]
 838 07aa C7F85431 		str	r3, [r7, #340]
 295:./Libraries/CMSIS/DSP/Source/FilteringFunctions/arm_conv_fast_q31.c **** 
 296:./Libraries/CMSIS/DSP/Source/FilteringFunctions/arm_conv_fast_q31.c ****         /* Perform the multiply-accumulates */
 297:./Libraries/CMSIS/DSP/Source/FilteringFunctions/arm_conv_fast_q31.c ****         /* acc0 +=  x[2] * y[srcBLen - 3] */
 298:./Libraries/CMSIS/DSP/Source/FilteringFunctions/arm_conv_fast_q31.c ****         acc0 = (q31_t) ((((q63_t) acc0 << 32) + ((q63_t) x2 * c0)) >> 32);
 839              		.loc 1 298 27 discriminator 1
 840 07ae D7F86831 		ldr	r3, [r7, #360]
 841 07b2 1A46     		mov	r2, r3
 842 07b4 4FEAE273 		asr	r3, r2, #31
 843              		.loc 1 298 40 discriminator 1
 844 07b8 4FF00008 		mov	r8, #0
 845 07bc 4FF00009 		mov	r9, #0
 846 07c0 9146     		mov	r9, r2
 847 07c2 4FF00008 		mov	r8, #0
 848              		.loc 1 298 50 discriminator 1
 849 07c6 D7F85031 		ldr	r3, [r7, #336]
 850 07ca 1846     		mov	r0, r3
 851 07cc 4FEAE071 		asr	r1, r0, #31
 852              		.loc 1 298 61 discriminator 1
 853 07d0 D7F82C31 		ldr	r3, [r7, #300]
 854 07d4 1A46     		mov	r2, r3
 855 07d6 4FEAE273 		asr	r3, r2, #31
 856 07da 02FB01F5 		mul	r5, r2, r1
 857 07de 00FB03F4 		mul	r4, r0, r3
 858 07e2 2C44     		add	r4, r4, r5
 859 07e4 A0FB0223 		umull	r2, r3, r0, r2
 860 07e8 E118     		adds	r1, r4, r3
 861 07ea 0B46     		mov	r3, r1
 862              		.loc 1 298 47 discriminator 1
 863 07ec 18EB0201 		adds	r1, r8, r2
 864 07f0 C7F8B010 		str	r1, [r7, #176]
 865 07f4 49EB0303 		adc	r3, r9, r3
 866 07f8 C7F8B430 		str	r3, [r7, #180]
 867              		.loc 1 298 68 discriminator 1
 868 07fc 4FF00002 		mov	r2, #0
 869 0800 4FF00003 		mov	r3, #0
 870 0804 D7E92C45 		ldrd	r4, [r7, #176]
 871 0808 2946     		mov	r1, r5
 872 080a 0A00     		movs	r2, r1
 873 080c 2946     		mov	r1, r5
 874 080e CB17     		asrs	r3, r1, #31
 875              		.loc 1 298 14 discriminator 1
 876 0810 1346     		mov	r3, r2
 877 0812 C7F86831 		str	r3, [r7, #360]
 299:./Libraries/CMSIS/DSP/Source/FilteringFunctions/arm_conv_fast_q31.c ****         /* acc1 +=  x[3] * y[srcBLen - 3] */
 300:./Libraries/CMSIS/DSP/Source/FilteringFunctions/arm_conv_fast_q31.c ****         acc1 = (q31_t) ((((q63_t) acc1 << 32) + ((q63_t) x3 * c0)) >> 32);
 878              		.loc 1 300 27 discriminator 1
 879 0816 D7F86431 		ldr	r3, [r7, #356]
 880 081a 1A46     		mov	r2, r3
 881 081c 4FEAE273 		asr	r3, r2, #31
 882              		.loc 1 300 40 discriminator 1
 883 0820 4FF00008 		mov	r8, #0
 884 0824 4FF00009 		mov	r9, #0
 885 0828 9146     		mov	r9, r2
ARM GAS  /tmp/ccbVjeMN.s 			page 22


 886 082a 4FF00008 		mov	r8, #0
 887              		.loc 1 300 50 discriminator 1
 888 082e D7F82831 		ldr	r3, [r7, #296]
 889 0832 1846     		mov	r0, r3
 890 0834 4FEAE071 		asr	r1, r0, #31
 891              		.loc 1 300 61 discriminator 1
 892 0838 D7F82C31 		ldr	r3, [r7, #300]
 893 083c 1A46     		mov	r2, r3
 894 083e 4FEAE273 		asr	r3, r2, #31
 895 0842 02FB01F5 		mul	r5, r2, r1
 896 0846 00FB03F4 		mul	r4, r0, r3
 897 084a 2C44     		add	r4, r4, r5
 898 084c A0FB0223 		umull	r2, r3, r0, r2
 899 0850 E118     		adds	r1, r4, r3
 900 0852 0B46     		mov	r3, r1
 901              		.loc 1 300 47 discriminator 1
 902 0854 18EB0201 		adds	r1, r8, r2
 903 0858 C7F8A810 		str	r1, [r7, #168]
 904 085c 49EB0303 		adc	r3, r9, r3
 905 0860 C7F8AC30 		str	r3, [r7, #172]
 906              		.loc 1 300 68 discriminator 1
 907 0864 4FF00002 		mov	r2, #0
 908 0868 4FF00003 		mov	r3, #0
 909 086c D7E92A45 		ldrd	r4, [r7, #168]
 910 0870 2946     		mov	r1, r5
 911 0872 0A00     		movs	r2, r1
 912 0874 2946     		mov	r1, r5
 913 0876 CB17     		asrs	r3, r1, #31
 914              		.loc 1 300 14 discriminator 1
 915 0878 1346     		mov	r3, r2
 916 087a C7F86431 		str	r3, [r7, #356]
 301:./Libraries/CMSIS/DSP/Source/FilteringFunctions/arm_conv_fast_q31.c ****         /* acc2 +=  x[4] * y[srcBLen - 3] */
 302:./Libraries/CMSIS/DSP/Source/FilteringFunctions/arm_conv_fast_q31.c ****         acc2 = (q31_t) ((((q63_t) acc2 << 32) + ((q63_t) x0 * c0)) >> 32);
 917              		.loc 1 302 27 discriminator 1
 918 087e D7F86031 		ldr	r3, [r7, #352]
 919 0882 1A46     		mov	r2, r3
 920 0884 4FEAE273 		asr	r3, r2, #31
 921              		.loc 1 302 40 discriminator 1
 922 0888 4FF00008 		mov	r8, #0
 923 088c 4FF00009 		mov	r9, #0
 924 0890 9146     		mov	r9, r2
 925 0892 4FF00008 		mov	r8, #0
 926              		.loc 1 302 50 discriminator 1
 927 0896 D7F85831 		ldr	r3, [r7, #344]
 928 089a 1846     		mov	r0, r3
 929 089c 4FEAE071 		asr	r1, r0, #31
 930              		.loc 1 302 61 discriminator 1
 931 08a0 D7F82C31 		ldr	r3, [r7, #300]
 932 08a4 1A46     		mov	r2, r3
 933 08a6 4FEAE273 		asr	r3, r2, #31
 934 08aa 02FB01F5 		mul	r5, r2, r1
 935 08ae 00FB03F4 		mul	r4, r0, r3
 936 08b2 2C44     		add	r4, r4, r5
 937 08b4 A0FB0223 		umull	r2, r3, r0, r2
 938 08b8 E118     		adds	r1, r4, r3
 939 08ba 0B46     		mov	r3, r1
 940              		.loc 1 302 47 discriminator 1
ARM GAS  /tmp/ccbVjeMN.s 			page 23


 941 08bc 18EB0201 		adds	r1, r8, r2
 942 08c0 C7F8A010 		str	r1, [r7, #160]
 943 08c4 49EB0303 		adc	r3, r9, r3
 944 08c8 C7F8A430 		str	r3, [r7, #164]
 945              		.loc 1 302 68 discriminator 1
 946 08cc 4FF00002 		mov	r2, #0
 947 08d0 4FF00003 		mov	r3, #0
 948 08d4 D7E92845 		ldrd	r4, [r7, #160]
 949 08d8 2946     		mov	r1, r5
 950 08da 0A00     		movs	r2, r1
 951 08dc 2946     		mov	r1, r5
 952 08de CB17     		asrs	r3, r1, #31
 953              		.loc 1 302 14 discriminator 1
 954 08e0 1346     		mov	r3, r2
 955 08e2 C7F86031 		str	r3, [r7, #352]
 303:./Libraries/CMSIS/DSP/Source/FilteringFunctions/arm_conv_fast_q31.c ****         /* acc3 +=  x[5] * y[srcBLen - 3] */
 304:./Libraries/CMSIS/DSP/Source/FilteringFunctions/arm_conv_fast_q31.c ****         acc3 = (q31_t) ((((q63_t) acc3 << 32) + ((q63_t) x1 * c0)) >> 32);
 956              		.loc 1 304 27 discriminator 1
 957 08e6 D7F85C31 		ldr	r3, [r7, #348]
 958 08ea 1A46     		mov	r2, r3
 959 08ec 4FEAE273 		asr	r3, r2, #31
 960              		.loc 1 304 40 discriminator 1
 961 08f0 4FF00008 		mov	r8, #0
 962 08f4 4FF00009 		mov	r9, #0
 963 08f8 9146     		mov	r9, r2
 964 08fa 4FF00008 		mov	r8, #0
 965              		.loc 1 304 50 discriminator 1
 966 08fe D7F85431 		ldr	r3, [r7, #340]
 967 0902 1846     		mov	r0, r3
 968 0904 4FEAE071 		asr	r1, r0, #31
 969              		.loc 1 304 61 discriminator 1
 970 0908 D7F82C31 		ldr	r3, [r7, #300]
 971 090c 1A46     		mov	r2, r3
 972 090e 4FEAE273 		asr	r3, r2, #31
 973 0912 02FB01F5 		mul	r5, r2, r1
 974 0916 00FB03F4 		mul	r4, r0, r3
 975 091a 2C44     		add	r4, r4, r5
 976 091c A0FB0223 		umull	r2, r3, r0, r2
 977 0920 E118     		adds	r1, r4, r3
 978 0922 0B46     		mov	r3, r1
 979              		.loc 1 304 47 discriminator 1
 980 0924 18EB0201 		adds	r1, r8, r2
 981 0928 C7F89810 		str	r1, [r7, #152]
 982 092c 49EB0303 		adc	r3, r9, r3
 983 0930 C7F89C30 		str	r3, [r7, #156]
 984              		.loc 1 304 68 discriminator 1
 985 0934 4FF00002 		mov	r2, #0
 986 0938 4FF00003 		mov	r3, #0
 987 093c D7E92645 		ldrd	r4, [r7, #152]
 988 0940 2946     		mov	r1, r5
 989 0942 0A00     		movs	r2, r1
 990 0944 2946     		mov	r1, r5
 991 0946 CB17     		asrs	r3, r1, #31
 992              		.loc 1 304 14 discriminator 1
 993 0948 1346     		mov	r3, r2
 994 094a C7F85C31 		str	r3, [r7, #348]
 305:./Libraries/CMSIS/DSP/Source/FilteringFunctions/arm_conv_fast_q31.c **** 
ARM GAS  /tmp/ccbVjeMN.s 			page 24


 306:./Libraries/CMSIS/DSP/Source/FilteringFunctions/arm_conv_fast_q31.c **** 
 307:./Libraries/CMSIS/DSP/Source/FilteringFunctions/arm_conv_fast_q31.c ****         /* Read y[srcBLen - 4] sample */
 308:./Libraries/CMSIS/DSP/Source/FilteringFunctions/arm_conv_fast_q31.c ****         c0 = *py--;
 995              		.loc 1 308 17 discriminator 1
 996 094e D7F87421 		ldr	r2, [r7, #372]
 997 0952 131F     		subs	r3, r2, #4
 998 0954 C7F87431 		str	r3, [r7, #372]
 999              		.loc 1 308 12 discriminator 1
 1000 0958 1368     		ldr	r3, [r2]
 1001 095a C7F82C31 		str	r3, [r7, #300]
 309:./Libraries/CMSIS/DSP/Source/FilteringFunctions/arm_conv_fast_q31.c ****         /* Read x[6] sample */
 310:./Libraries/CMSIS/DSP/Source/FilteringFunctions/arm_conv_fast_q31.c ****         x2 = *px++;
 1002              		.loc 1 310 17 discriminator 1
 1003 095e D7F87821 		ldr	r2, [r7, #376]
 1004 0962 131D     		adds	r3, r2, #4
 1005 0964 C7F87831 		str	r3, [r7, #376]
 1006              		.loc 1 310 12 discriminator 1
 1007 0968 1368     		ldr	r3, [r2]
 1008 096a C7F85031 		str	r3, [r7, #336]
 311:./Libraries/CMSIS/DSP/Source/FilteringFunctions/arm_conv_fast_q31.c **** 
 312:./Libraries/CMSIS/DSP/Source/FilteringFunctions/arm_conv_fast_q31.c ****         /* Perform the multiply-accumulates */
 313:./Libraries/CMSIS/DSP/Source/FilteringFunctions/arm_conv_fast_q31.c ****         /* acc0 +=  x[3] * y[srcBLen - 4] */
 314:./Libraries/CMSIS/DSP/Source/FilteringFunctions/arm_conv_fast_q31.c ****         acc0 = (q31_t) ((((q63_t) acc0 << 32) + ((q63_t) x3 * c0)) >> 32);
 1009              		.loc 1 314 27 discriminator 1
 1010 096e D7F86831 		ldr	r3, [r7, #360]
 1011 0972 1A46     		mov	r2, r3
 1012 0974 4FEAE273 		asr	r3, r2, #31
 1013              		.loc 1 314 40 discriminator 1
 1014 0978 4FF00008 		mov	r8, #0
 1015 097c 4FF00009 		mov	r9, #0
 1016 0980 9146     		mov	r9, r2
 1017 0982 4FF00008 		mov	r8, #0
 1018              		.loc 1 314 50 discriminator 1
 1019 0986 D7F82831 		ldr	r3, [r7, #296]
 1020 098a 1846     		mov	r0, r3
 1021 098c 4FEAE071 		asr	r1, r0, #31
 1022              		.loc 1 314 61 discriminator 1
 1023 0990 D7F82C31 		ldr	r3, [r7, #300]
 1024 0994 1A46     		mov	r2, r3
 1025 0996 4FEAE273 		asr	r3, r2, #31
 1026 099a 02FB01F5 		mul	r5, r2, r1
 1027 099e 00FB03F4 		mul	r4, r0, r3
 1028 09a2 2C44     		add	r4, r4, r5
 1029 09a4 A0FB0223 		umull	r2, r3, r0, r2
 1030 09a8 E118     		adds	r1, r4, r3
 1031 09aa 0B46     		mov	r3, r1
 1032              		.loc 1 314 47 discriminator 1
 1033 09ac 18EB0201 		adds	r1, r8, r2
 1034 09b0 C7F89010 		str	r1, [r7, #144]
 1035 09b4 49EB0303 		adc	r3, r9, r3
 1036 09b8 C7F89430 		str	r3, [r7, #148]
 1037              		.loc 1 314 68 discriminator 1
 1038 09bc 4FF00002 		mov	r2, #0
 1039 09c0 4FF00003 		mov	r3, #0
 1040 09c4 D7E92445 		ldrd	r4, [r7, #144]
 1041 09c8 2946     		mov	r1, r5
 1042 09ca 0A00     		movs	r2, r1
ARM GAS  /tmp/ccbVjeMN.s 			page 25


 1043 09cc 2946     		mov	r1, r5
 1044 09ce CB17     		asrs	r3, r1, #31
 1045              		.loc 1 314 14 discriminator 1
 1046 09d0 1346     		mov	r3, r2
 1047 09d2 C7F86831 		str	r3, [r7, #360]
 315:./Libraries/CMSIS/DSP/Source/FilteringFunctions/arm_conv_fast_q31.c ****         /* acc1 +=  x[4] * y[srcBLen - 4] */
 316:./Libraries/CMSIS/DSP/Source/FilteringFunctions/arm_conv_fast_q31.c ****         acc1 = (q31_t) ((((q63_t) acc1 << 32) + ((q63_t) x0 * c0)) >> 32);
 1048              		.loc 1 316 27 discriminator 1
 1049 09d6 D7F86431 		ldr	r3, [r7, #356]
 1050 09da 1A46     		mov	r2, r3
 1051 09dc 4FEAE273 		asr	r3, r2, #31
 1052              		.loc 1 316 40 discriminator 1
 1053 09e0 4FF00008 		mov	r8, #0
 1054 09e4 4FF00009 		mov	r9, #0
 1055 09e8 9146     		mov	r9, r2
 1056 09ea 4FF00008 		mov	r8, #0
 1057              		.loc 1 316 50 discriminator 1
 1058 09ee D7F85831 		ldr	r3, [r7, #344]
 1059 09f2 1846     		mov	r0, r3
 1060 09f4 4FEAE071 		asr	r1, r0, #31
 1061              		.loc 1 316 61 discriminator 1
 1062 09f8 D7F82C31 		ldr	r3, [r7, #300]
 1063 09fc 1A46     		mov	r2, r3
 1064 09fe 4FEAE273 		asr	r3, r2, #31
 1065 0a02 02FB01F5 		mul	r5, r2, r1
 1066 0a06 00FB03F4 		mul	r4, r0, r3
 1067 0a0a 2C44     		add	r4, r4, r5
 1068 0a0c A0FB0223 		umull	r2, r3, r0, r2
 1069 0a10 E118     		adds	r1, r4, r3
 1070 0a12 0B46     		mov	r3, r1
 1071              		.loc 1 316 47 discriminator 1
 1072 0a14 18EB0201 		adds	r1, r8, r2
 1073 0a18 C7F88810 		str	r1, [r7, #136]
 1074 0a1c 49EB0303 		adc	r3, r9, r3
 1075 0a20 C7F88C30 		str	r3, [r7, #140]
 1076              		.loc 1 316 68 discriminator 1
 1077 0a24 4FF00002 		mov	r2, #0
 1078 0a28 4FF00003 		mov	r3, #0
 1079 0a2c D7E92245 		ldrd	r4, [r7, #136]
 1080 0a30 2946     		mov	r1, r5
 1081 0a32 0A00     		movs	r2, r1
 1082 0a34 2946     		mov	r1, r5
 1083 0a36 CB17     		asrs	r3, r1, #31
 1084              		.loc 1 316 14 discriminator 1
 1085 0a38 1346     		mov	r3, r2
 1086 0a3a C7F86431 		str	r3, [r7, #356]
 317:./Libraries/CMSIS/DSP/Source/FilteringFunctions/arm_conv_fast_q31.c ****         /* acc2 +=  x[5] * y[srcBLen - 4] */
 318:./Libraries/CMSIS/DSP/Source/FilteringFunctions/arm_conv_fast_q31.c ****         acc2 = (q31_t) ((((q63_t) acc2 << 32) + ((q63_t) x1 * c0)) >> 32);
 1087              		.loc 1 318 27 discriminator 1
 1088 0a3e D7F86031 		ldr	r3, [r7, #352]
 1089 0a42 1A46     		mov	r2, r3
 1090 0a44 4FEAE273 		asr	r3, r2, #31
 1091              		.loc 1 318 40 discriminator 1
 1092 0a48 4FF00008 		mov	r8, #0
 1093 0a4c 4FF00009 		mov	r9, #0
 1094 0a50 9146     		mov	r9, r2
 1095 0a52 4FF00008 		mov	r8, #0
ARM GAS  /tmp/ccbVjeMN.s 			page 26


 1096              		.loc 1 318 50 discriminator 1
 1097 0a56 D7F85431 		ldr	r3, [r7, #340]
 1098 0a5a 1846     		mov	r0, r3
 1099 0a5c 4FEAE071 		asr	r1, r0, #31
 1100              		.loc 1 318 61 discriminator 1
 1101 0a60 D7F82C31 		ldr	r3, [r7, #300]
 1102 0a64 1A46     		mov	r2, r3
 1103 0a66 4FEAE273 		asr	r3, r2, #31
 1104 0a6a 02FB01F5 		mul	r5, r2, r1
 1105 0a6e 00FB03F4 		mul	r4, r0, r3
 1106 0a72 2C44     		add	r4, r4, r5
 1107 0a74 A0FB0223 		umull	r2, r3, r0, r2
 1108 0a78 E118     		adds	r1, r4, r3
 1109 0a7a 0B46     		mov	r3, r1
 1110              		.loc 1 318 47 discriminator 1
 1111 0a7c 18EB0201 		adds	r1, r8, r2
 1112 0a80 C7F88010 		str	r1, [r7, #128]
 1113 0a84 49EB0303 		adc	r3, r9, r3
 1114 0a88 C7F88430 		str	r3, [r7, #132]
 1115              		.loc 1 318 68 discriminator 1
 1116 0a8c 4FF00002 		mov	r2, #0
 1117 0a90 4FF00003 		mov	r3, #0
 1118 0a94 D7E92045 		ldrd	r4, [r7, #128]
 1119 0a98 2946     		mov	r1, r5
 1120 0a9a 0A00     		movs	r2, r1
 1121 0a9c 2946     		mov	r1, r5
 1122 0a9e CB17     		asrs	r3, r1, #31
 1123              		.loc 1 318 14 discriminator 1
 1124 0aa0 1346     		mov	r3, r2
 1125 0aa2 C7F86031 		str	r3, [r7, #352]
 319:./Libraries/CMSIS/DSP/Source/FilteringFunctions/arm_conv_fast_q31.c ****         /* acc3 +=  x[6] * y[srcBLen - 4] */
 320:./Libraries/CMSIS/DSP/Source/FilteringFunctions/arm_conv_fast_q31.c ****         acc3 = (q31_t) ((((q63_t) acc3 << 32) + ((q63_t) x2 * c0)) >> 32);
 1126              		.loc 1 320 27 discriminator 1
 1127 0aa6 D7F85C31 		ldr	r3, [r7, #348]
 1128 0aaa 1A46     		mov	r2, r3
 1129 0aac 4FEAE273 		asr	r3, r2, #31
 1130              		.loc 1 320 40 discriminator 1
 1131 0ab0 4FF00008 		mov	r8, #0
 1132 0ab4 4FF00009 		mov	r9, #0
 1133 0ab8 9146     		mov	r9, r2
 1134 0aba 4FF00008 		mov	r8, #0
 1135              		.loc 1 320 50 discriminator 1
 1136 0abe D7F85031 		ldr	r3, [r7, #336]
 1137 0ac2 1846     		mov	r0, r3
 1138 0ac4 4FEAE071 		asr	r1, r0, #31
 1139              		.loc 1 320 61 discriminator 1
 1140 0ac8 D7F82C31 		ldr	r3, [r7, #300]
 1141 0acc 1A46     		mov	r2, r3
 1142 0ace 4FEAE273 		asr	r3, r2, #31
 1143 0ad2 02FB01F5 		mul	r5, r2, r1
 1144 0ad6 00FB03F4 		mul	r4, r0, r3
 1145 0ada 2C44     		add	r4, r4, r5
 1146 0adc A0FB0223 		umull	r2, r3, r0, r2
 1147 0ae0 E118     		adds	r1, r4, r3
 1148 0ae2 0B46     		mov	r3, r1
 1149              		.loc 1 320 47 discriminator 1
 1150 0ae4 18EB0201 		adds	r1, r8, r2
ARM GAS  /tmp/ccbVjeMN.s 			page 27


 1151 0ae8 B967     		str	r1, [r7, #120]
 1152 0aea 49EB0303 		adc	r3, r9, r3
 1153 0aee FB67     		str	r3, [r7, #124]
 1154              		.loc 1 320 68 discriminator 1
 1155 0af0 4FF00002 		mov	r2, #0
 1156 0af4 4FF00003 		mov	r3, #0
 1157 0af8 D7E91E45 		ldrd	r4, [r7, #120]
 1158 0afc 2946     		mov	r1, r5
 1159 0afe 0A00     		movs	r2, r1
 1160 0b00 2946     		mov	r1, r5
 1161 0b02 CB17     		asrs	r3, r1, #31
 1162              		.loc 1 320 14 discriminator 1
 1163 0b04 1346     		mov	r3, r2
 1164 0b06 C7F85C31 		str	r3, [r7, #348]
 321:./Libraries/CMSIS/DSP/Source/FilteringFunctions/arm_conv_fast_q31.c **** 
 322:./Libraries/CMSIS/DSP/Source/FilteringFunctions/arm_conv_fast_q31.c **** 
 323:./Libraries/CMSIS/DSP/Source/FilteringFunctions/arm_conv_fast_q31.c ****       } while (--k);
 1165              		.loc 1 323 7 discriminator 1
 1166 0b0a D7F84431 		ldr	r3, [r7, #324]
 1167 0b0e 013B     		subs	r3, r3, #1
 1168 0b10 C7F84431 		str	r3, [r7, #324]
 1169 0b14 D7F84431 		ldr	r3, [r7, #324]
 1170 0b18 002B     		cmp	r3, #0
 1171 0b1a 7FF478AC 		bne	.L12
 324:./Libraries/CMSIS/DSP/Source/FilteringFunctions/arm_conv_fast_q31.c **** 
 325:./Libraries/CMSIS/DSP/Source/FilteringFunctions/arm_conv_fast_q31.c ****       /* If the srcBLen is not a multiple of 4, compute any remaining MACs here.
 326:./Libraries/CMSIS/DSP/Source/FilteringFunctions/arm_conv_fast_q31.c ****        ** No loop unrolling is used. */
 327:./Libraries/CMSIS/DSP/Source/FilteringFunctions/arm_conv_fast_q31.c ****       k = srcBLen % 0x4U;
 1172              		.loc 1 327 9
 1173 0b1e D7F81831 		ldr	r3, [r7, #280]
 1174 0b22 03F00303 		and	r3, r3, #3
 1175 0b26 C7F84431 		str	r3, [r7, #324]
 328:./Libraries/CMSIS/DSP/Source/FilteringFunctions/arm_conv_fast_q31.c **** 
 329:./Libraries/CMSIS/DSP/Source/FilteringFunctions/arm_conv_fast_q31.c ****       while (k > 0U)
 1176              		.loc 1 329 13
 1177 0b2a E8E0     		b	.L13
 1178              	.L14:
 330:./Libraries/CMSIS/DSP/Source/FilteringFunctions/arm_conv_fast_q31.c ****       {
 331:./Libraries/CMSIS/DSP/Source/FilteringFunctions/arm_conv_fast_q31.c ****         /* Read y[srcBLen - 5] sample */
 332:./Libraries/CMSIS/DSP/Source/FilteringFunctions/arm_conv_fast_q31.c ****         c0 = *py--;
 1179              		.loc 1 332 17
 1180 0b2c D7F87421 		ldr	r2, [r7, #372]
 1181 0b30 131F     		subs	r3, r2, #4
 1182 0b32 C7F87431 		str	r3, [r7, #372]
 1183              		.loc 1 332 12
 1184 0b36 1368     		ldr	r3, [r2]
 1185 0b38 C7F82C31 		str	r3, [r7, #300]
 333:./Libraries/CMSIS/DSP/Source/FilteringFunctions/arm_conv_fast_q31.c ****         /* Read x[7] sample */
 334:./Libraries/CMSIS/DSP/Source/FilteringFunctions/arm_conv_fast_q31.c ****         x3 = *px++;
 1186              		.loc 1 334 17
 1187 0b3c D7F87821 		ldr	r2, [r7, #376]
 1188 0b40 131D     		adds	r3, r2, #4
 1189 0b42 C7F87831 		str	r3, [r7, #376]
 1190              		.loc 1 334 12
 1191 0b46 1368     		ldr	r3, [r2]
 1192 0b48 C7F82831 		str	r3, [r7, #296]
 335:./Libraries/CMSIS/DSP/Source/FilteringFunctions/arm_conv_fast_q31.c **** 
ARM GAS  /tmp/ccbVjeMN.s 			page 28


 336:./Libraries/CMSIS/DSP/Source/FilteringFunctions/arm_conv_fast_q31.c ****         /* Perform the multiply-accumulates */
 337:./Libraries/CMSIS/DSP/Source/FilteringFunctions/arm_conv_fast_q31.c ****         /* acc0 +=  x[4] * y[srcBLen - 5] */
 338:./Libraries/CMSIS/DSP/Source/FilteringFunctions/arm_conv_fast_q31.c ****         acc0 = (q31_t) ((((q63_t) acc0 << 32) + ((q63_t) x0 * c0)) >> 32);
 1193              		.loc 1 338 27
 1194 0b4c D7F86831 		ldr	r3, [r7, #360]
 1195 0b50 1A46     		mov	r2, r3
 1196 0b52 4FEAE273 		asr	r3, r2, #31
 1197              		.loc 1 338 40
 1198 0b56 4FF00008 		mov	r8, #0
 1199 0b5a 4FF00009 		mov	r9, #0
 1200 0b5e 9146     		mov	r9, r2
 1201 0b60 4FF00008 		mov	r8, #0
 1202              		.loc 1 338 50
 1203 0b64 D7F85831 		ldr	r3, [r7, #344]
 1204 0b68 1846     		mov	r0, r3
 1205 0b6a 4FEAE071 		asr	r1, r0, #31
 1206              		.loc 1 338 61
 1207 0b6e D7F82C31 		ldr	r3, [r7, #300]
 1208 0b72 1A46     		mov	r2, r3
 1209 0b74 4FEAE273 		asr	r3, r2, #31
 1210 0b78 02FB01F5 		mul	r5, r2, r1
 1211 0b7c 00FB03F4 		mul	r4, r0, r3
 1212 0b80 2C44     		add	r4, r4, r5
 1213 0b82 A0FB0223 		umull	r2, r3, r0, r2
 1214 0b86 E118     		adds	r1, r4, r3
 1215 0b88 0B46     		mov	r3, r1
 1216              		.loc 1 338 47
 1217 0b8a 18EB0201 		adds	r1, r8, r2
 1218 0b8e 3967     		str	r1, [r7, #112]
 1219 0b90 49EB0303 		adc	r3, r9, r3
 1220 0b94 7B67     		str	r3, [r7, #116]
 1221              		.loc 1 338 68
 1222 0b96 4FF00002 		mov	r2, #0
 1223 0b9a 4FF00003 		mov	r3, #0
 1224 0b9e D7E91C45 		ldrd	r4, [r7, #112]
 1225 0ba2 2946     		mov	r1, r5
 1226 0ba4 0A00     		movs	r2, r1
 1227 0ba6 2946     		mov	r1, r5
 1228 0ba8 CB17     		asrs	r3, r1, #31
 1229              		.loc 1 338 14
 1230 0baa 1346     		mov	r3, r2
 1231 0bac C7F86831 		str	r3, [r7, #360]
 339:./Libraries/CMSIS/DSP/Source/FilteringFunctions/arm_conv_fast_q31.c ****         /* acc1 +=  x[5] * y[srcBLen - 5] */
 340:./Libraries/CMSIS/DSP/Source/FilteringFunctions/arm_conv_fast_q31.c ****         acc1 = (q31_t) ((((q63_t) acc1 << 32) + ((q63_t) x1 * c0)) >> 32);
 1232              		.loc 1 340 27
 1233 0bb0 D7F86431 		ldr	r3, [r7, #356]
 1234 0bb4 1A46     		mov	r2, r3
 1235 0bb6 4FEAE273 		asr	r3, r2, #31
 1236              		.loc 1 340 40
 1237 0bba 4FF00008 		mov	r8, #0
 1238 0bbe 4FF00009 		mov	r9, #0
 1239 0bc2 9146     		mov	r9, r2
 1240 0bc4 4FF00008 		mov	r8, #0
 1241              		.loc 1 340 50
 1242 0bc8 D7F85431 		ldr	r3, [r7, #340]
 1243 0bcc 1846     		mov	r0, r3
 1244 0bce 4FEAE071 		asr	r1, r0, #31
ARM GAS  /tmp/ccbVjeMN.s 			page 29


 1245              		.loc 1 340 61
 1246 0bd2 D7F82C31 		ldr	r3, [r7, #300]
 1247 0bd6 1A46     		mov	r2, r3
 1248 0bd8 4FEAE273 		asr	r3, r2, #31
 1249 0bdc 02FB01F5 		mul	r5, r2, r1
 1250 0be0 00FB03F4 		mul	r4, r0, r3
 1251 0be4 2C44     		add	r4, r4, r5
 1252 0be6 A0FB0223 		umull	r2, r3, r0, r2
 1253 0bea E118     		adds	r1, r4, r3
 1254 0bec 0B46     		mov	r3, r1
 1255              		.loc 1 340 47
 1256 0bee 18EB0201 		adds	r1, r8, r2
 1257 0bf2 B966     		str	r1, [r7, #104]
 1258 0bf4 49EB0303 		adc	r3, r9, r3
 1259 0bf8 FB66     		str	r3, [r7, #108]
 1260              		.loc 1 340 68
 1261 0bfa 4FF00002 		mov	r2, #0
 1262 0bfe 4FF00003 		mov	r3, #0
 1263 0c02 D7E91A45 		ldrd	r4, [r7, #104]
 1264 0c06 2946     		mov	r1, r5
 1265 0c08 0A00     		movs	r2, r1
 1266 0c0a 2946     		mov	r1, r5
 1267 0c0c CB17     		asrs	r3, r1, #31
 1268              		.loc 1 340 14
 1269 0c0e 1346     		mov	r3, r2
 1270 0c10 C7F86431 		str	r3, [r7, #356]
 341:./Libraries/CMSIS/DSP/Source/FilteringFunctions/arm_conv_fast_q31.c ****         /* acc2 +=  x[6] * y[srcBLen - 5] */
 342:./Libraries/CMSIS/DSP/Source/FilteringFunctions/arm_conv_fast_q31.c ****         acc2 = (q31_t) ((((q63_t) acc2 << 32) + ((q63_t) x2 * c0)) >> 32);
 1271              		.loc 1 342 27
 1272 0c14 D7F86031 		ldr	r3, [r7, #352]
 1273 0c18 1A46     		mov	r2, r3
 1274 0c1a 4FEAE273 		asr	r3, r2, #31
 1275              		.loc 1 342 40
 1276 0c1e 4FF00008 		mov	r8, #0
 1277 0c22 4FF00009 		mov	r9, #0
 1278 0c26 9146     		mov	r9, r2
 1279 0c28 4FF00008 		mov	r8, #0
 1280              		.loc 1 342 50
 1281 0c2c D7F85031 		ldr	r3, [r7, #336]
 1282 0c30 1846     		mov	r0, r3
 1283 0c32 4FEAE071 		asr	r1, r0, #31
 1284              		.loc 1 342 61
 1285 0c36 D7F82C31 		ldr	r3, [r7, #300]
 1286 0c3a 1A46     		mov	r2, r3
 1287 0c3c 4FEAE273 		asr	r3, r2, #31
 1288 0c40 02FB01F5 		mul	r5, r2, r1
 1289 0c44 00FB03F4 		mul	r4, r0, r3
 1290 0c48 2C44     		add	r4, r4, r5
 1291 0c4a A0FB0223 		umull	r2, r3, r0, r2
 1292 0c4e E118     		adds	r1, r4, r3
 1293 0c50 0B46     		mov	r3, r1
 1294              		.loc 1 342 47
 1295 0c52 18EB0201 		adds	r1, r8, r2
 1296 0c56 3966     		str	r1, [r7, #96]
 1297 0c58 49EB0303 		adc	r3, r9, r3
 1298 0c5c 7B66     		str	r3, [r7, #100]
 1299              		.loc 1 342 68
ARM GAS  /tmp/ccbVjeMN.s 			page 30


 1300 0c5e 4FF00002 		mov	r2, #0
 1301 0c62 4FF00003 		mov	r3, #0
 1302 0c66 D7E91845 		ldrd	r4, [r7, #96]
 1303 0c6a 2946     		mov	r1, r5
 1304 0c6c 0A00     		movs	r2, r1
 1305 0c6e 2946     		mov	r1, r5
 1306 0c70 CB17     		asrs	r3, r1, #31
 1307              		.loc 1 342 14
 1308 0c72 1346     		mov	r3, r2
 1309 0c74 C7F86031 		str	r3, [r7, #352]
 343:./Libraries/CMSIS/DSP/Source/FilteringFunctions/arm_conv_fast_q31.c ****         /* acc3 +=  x[7] * y[srcBLen - 5] */
 344:./Libraries/CMSIS/DSP/Source/FilteringFunctions/arm_conv_fast_q31.c ****         acc3 = (q31_t) ((((q63_t) acc3 << 32) + ((q63_t) x3 * c0)) >> 32);
 1310              		.loc 1 344 27
 1311 0c78 D7F85C31 		ldr	r3, [r7, #348]
 1312 0c7c 1A46     		mov	r2, r3
 1313 0c7e 4FEAE273 		asr	r3, r2, #31
 1314              		.loc 1 344 40
 1315 0c82 4FF00008 		mov	r8, #0
 1316 0c86 4FF00009 		mov	r9, #0
 1317 0c8a 9146     		mov	r9, r2
 1318 0c8c 4FF00008 		mov	r8, #0
 1319              		.loc 1 344 50
 1320 0c90 D7F82831 		ldr	r3, [r7, #296]
 1321 0c94 1846     		mov	r0, r3
 1322 0c96 4FEAE071 		asr	r1, r0, #31
 1323              		.loc 1 344 61
 1324 0c9a D7F82C31 		ldr	r3, [r7, #300]
 1325 0c9e 1A46     		mov	r2, r3
 1326 0ca0 4FEAE273 		asr	r3, r2, #31
 1327 0ca4 02FB01F5 		mul	r5, r2, r1
 1328 0ca8 00FB03F4 		mul	r4, r0, r3
 1329 0cac 2C44     		add	r4, r4, r5
 1330 0cae A0FB0223 		umull	r2, r3, r0, r2
 1331 0cb2 E118     		adds	r1, r4, r3
 1332 0cb4 0B46     		mov	r3, r1
 1333              		.loc 1 344 47
 1334 0cb6 18EB0201 		adds	r1, r8, r2
 1335 0cba B965     		str	r1, [r7, #88]
 1336 0cbc 49EB0303 		adc	r3, r9, r3
 1337 0cc0 FB65     		str	r3, [r7, #92]
 1338              		.loc 1 344 68
 1339 0cc2 4FF00002 		mov	r2, #0
 1340 0cc6 4FF00003 		mov	r3, #0
 1341 0cca D7E91645 		ldrd	r4, [r7, #88]
 1342 0cce 2946     		mov	r1, r5
 1343 0cd0 0A00     		movs	r2, r1
 1344 0cd2 2946     		mov	r1, r5
 1345 0cd4 CB17     		asrs	r3, r1, #31
 1346              		.loc 1 344 14
 1347 0cd6 1346     		mov	r3, r2
 1348 0cd8 C7F85C31 		str	r3, [r7, #348]
 345:./Libraries/CMSIS/DSP/Source/FilteringFunctions/arm_conv_fast_q31.c **** 
 346:./Libraries/CMSIS/DSP/Source/FilteringFunctions/arm_conv_fast_q31.c ****         /* Reuse the present samples for the next MAC */
 347:./Libraries/CMSIS/DSP/Source/FilteringFunctions/arm_conv_fast_q31.c ****         x0 = x1;
 1349              		.loc 1 347 12
 1350 0cdc D7F85431 		ldr	r3, [r7, #340]
 1351 0ce0 C7F85831 		str	r3, [r7, #344]
ARM GAS  /tmp/ccbVjeMN.s 			page 31


 348:./Libraries/CMSIS/DSP/Source/FilteringFunctions/arm_conv_fast_q31.c ****         x1 = x2;
 1352              		.loc 1 348 12
 1353 0ce4 D7F85031 		ldr	r3, [r7, #336]
 1354 0ce8 C7F85431 		str	r3, [r7, #340]
 349:./Libraries/CMSIS/DSP/Source/FilteringFunctions/arm_conv_fast_q31.c ****         x2 = x3;
 1355              		.loc 1 349 12
 1356 0cec D7F82831 		ldr	r3, [r7, #296]
 1357 0cf0 C7F85031 		str	r3, [r7, #336]
 350:./Libraries/CMSIS/DSP/Source/FilteringFunctions/arm_conv_fast_q31.c **** 
 351:./Libraries/CMSIS/DSP/Source/FilteringFunctions/arm_conv_fast_q31.c ****         /* Decrement loop counter */
 352:./Libraries/CMSIS/DSP/Source/FilteringFunctions/arm_conv_fast_q31.c ****         k--;
 1358              		.loc 1 352 10
 1359 0cf4 D7F84431 		ldr	r3, [r7, #324]
 1360 0cf8 013B     		subs	r3, r3, #1
 1361 0cfa C7F84431 		str	r3, [r7, #324]
 1362              	.L13:
 329:./Libraries/CMSIS/DSP/Source/FilteringFunctions/arm_conv_fast_q31.c ****       {
 1363              		.loc 1 329 13
 1364 0cfe D7F84431 		ldr	r3, [r7, #324]
 1365 0d02 002B     		cmp	r3, #0
 1366 0d04 7FF412AF 		bne	.L14
 353:./Libraries/CMSIS/DSP/Source/FilteringFunctions/arm_conv_fast_q31.c ****       }
 354:./Libraries/CMSIS/DSP/Source/FilteringFunctions/arm_conv_fast_q31.c **** 
 355:./Libraries/CMSIS/DSP/Source/FilteringFunctions/arm_conv_fast_q31.c ****       /* Store the result in the accumulator in the destination buffer. */
 356:./Libraries/CMSIS/DSP/Source/FilteringFunctions/arm_conv_fast_q31.c ****       *pOut++ = (q31_t) (acc0 << 1);
 1367              		.loc 1 356 12
 1368 0d08 D7F87C21 		ldr	r2, [r7, #380]
 1369 0d0c 131D     		adds	r3, r2, #4
 1370 0d0e C7F87C31 		str	r3, [r7, #380]
 1371              		.loc 1 356 31
 1372 0d12 D7F86831 		ldr	r3, [r7, #360]
 1373 0d16 5B00     		lsls	r3, r3, #1
 1374              		.loc 1 356 15
 1375 0d18 1360     		str	r3, [r2]
 357:./Libraries/CMSIS/DSP/Source/FilteringFunctions/arm_conv_fast_q31.c ****       *pOut++ = (q31_t) (acc1 << 1);
 1376              		.loc 1 357 12
 1377 0d1a D7F87C21 		ldr	r2, [r7, #380]
 1378 0d1e 131D     		adds	r3, r2, #4
 1379 0d20 C7F87C31 		str	r3, [r7, #380]
 1380              		.loc 1 357 31
 1381 0d24 D7F86431 		ldr	r3, [r7, #356]
 1382 0d28 5B00     		lsls	r3, r3, #1
 1383              		.loc 1 357 15
 1384 0d2a 1360     		str	r3, [r2]
 358:./Libraries/CMSIS/DSP/Source/FilteringFunctions/arm_conv_fast_q31.c ****       *pOut++ = (q31_t) (acc2 << 1);
 1385              		.loc 1 358 12
 1386 0d2c D7F87C21 		ldr	r2, [r7, #380]
 1387 0d30 131D     		adds	r3, r2, #4
 1388 0d32 C7F87C31 		str	r3, [r7, #380]
 1389              		.loc 1 358 31
 1390 0d36 D7F86031 		ldr	r3, [r7, #352]
 1391 0d3a 5B00     		lsls	r3, r3, #1
 1392              		.loc 1 358 15
 1393 0d3c 1360     		str	r3, [r2]
 359:./Libraries/CMSIS/DSP/Source/FilteringFunctions/arm_conv_fast_q31.c ****       *pOut++ = (q31_t) (acc3 << 1);
 1394              		.loc 1 359 12
 1395 0d3e D7F87C21 		ldr	r2, [r7, #380]
ARM GAS  /tmp/ccbVjeMN.s 			page 32


 1396 0d42 131D     		adds	r3, r2, #4
 1397 0d44 C7F87C31 		str	r3, [r7, #380]
 1398              		.loc 1 359 31
 1399 0d48 D7F85C31 		ldr	r3, [r7, #348]
 1400 0d4c 5B00     		lsls	r3, r3, #1
 1401              		.loc 1 359 15
 1402 0d4e 1360     		str	r3, [r2]
 360:./Libraries/CMSIS/DSP/Source/FilteringFunctions/arm_conv_fast_q31.c **** 
 361:./Libraries/CMSIS/DSP/Source/FilteringFunctions/arm_conv_fast_q31.c ****       /* Increment the pointer pIn1 index, count by 4 */
 362:./Libraries/CMSIS/DSP/Source/FilteringFunctions/arm_conv_fast_q31.c ****       count += 4U;
 1403              		.loc 1 362 13
 1404 0d50 D7F84031 		ldr	r3, [r7, #320]
 1405 0d54 0433     		adds	r3, r3, #4
 1406 0d56 C7F84031 		str	r3, [r7, #320]
 363:./Libraries/CMSIS/DSP/Source/FilteringFunctions/arm_conv_fast_q31.c **** 
 364:./Libraries/CMSIS/DSP/Source/FilteringFunctions/arm_conv_fast_q31.c ****       /* Update the inputA and inputB pointers for next MAC calculation */
 365:./Libraries/CMSIS/DSP/Source/FilteringFunctions/arm_conv_fast_q31.c ****       px = pIn1 + count;
 1407              		.loc 1 365 17
 1408 0d5a D7F84031 		ldr	r3, [r7, #320]
 1409 0d5e 9A00     		lsls	r2, r3, #2
 1410              		.loc 1 365 10
 1411 0d60 D7F88431 		ldr	r3, [r7, #388]
 1412 0d64 1344     		add	r3, r3, r2
 1413 0d66 C7F87831 		str	r3, [r7, #376]
 366:./Libraries/CMSIS/DSP/Source/FilteringFunctions/arm_conv_fast_q31.c ****       py = pSrc2;
 1414              		.loc 1 366 10
 1415 0d6a D7F83031 		ldr	r3, [r7, #304]
 1416 0d6e C7F87431 		str	r3, [r7, #372]
 367:./Libraries/CMSIS/DSP/Source/FilteringFunctions/arm_conv_fast_q31.c **** 
 368:./Libraries/CMSIS/DSP/Source/FilteringFunctions/arm_conv_fast_q31.c ****       /* Decrement loop counter */
 369:./Libraries/CMSIS/DSP/Source/FilteringFunctions/arm_conv_fast_q31.c ****       blkCnt--;
 1417              		.loc 1 369 13
 1418 0d72 D7F83C31 		ldr	r3, [r7, #316]
 1419 0d76 013B     		subs	r3, r3, #1
 1420 0d78 C7F83C31 		str	r3, [r7, #316]
 1421              	.L11:
 239:./Libraries/CMSIS/DSP/Source/FilteringFunctions/arm_conv_fast_q31.c ****     {
 1422              		.loc 1 239 11
 1423 0d7c D7F83C31 		ldr	r3, [r7, #316]
 1424 0d80 002B     		cmp	r3, #0
 1425 0d82 7FF41BAB 		bne	.L15
 370:./Libraries/CMSIS/DSP/Source/FilteringFunctions/arm_conv_fast_q31.c ****     }
 371:./Libraries/CMSIS/DSP/Source/FilteringFunctions/arm_conv_fast_q31.c **** 
 372:./Libraries/CMSIS/DSP/Source/FilteringFunctions/arm_conv_fast_q31.c ****     /* If the blockSize2 is not a multiple of 4, compute any remaining output samples here.
 373:./Libraries/CMSIS/DSP/Source/FilteringFunctions/arm_conv_fast_q31.c ****      ** No loop unrolling is used. */
 374:./Libraries/CMSIS/DSP/Source/FilteringFunctions/arm_conv_fast_q31.c ****     blkCnt = blockSize2 % 0x4U;
 1426              		.loc 1 374 12
 1427 0d86 D7F83431 		ldr	r3, [r7, #308]
 1428 0d8a 03F00303 		and	r3, r3, #3
 1429 0d8e C7F83C31 		str	r3, [r7, #316]
 375:./Libraries/CMSIS/DSP/Source/FilteringFunctions/arm_conv_fast_q31.c **** 
 376:./Libraries/CMSIS/DSP/Source/FilteringFunctions/arm_conv_fast_q31.c ****     while (blkCnt > 0U)
 1430              		.loc 1 376 11
 1431 0d92 63E1     		b	.L16
 1432              	.L21:
 377:./Libraries/CMSIS/DSP/Source/FilteringFunctions/arm_conv_fast_q31.c ****     {
 378:./Libraries/CMSIS/DSP/Source/FilteringFunctions/arm_conv_fast_q31.c ****       /* Accumulator is made zero for every iteration */
ARM GAS  /tmp/ccbVjeMN.s 			page 33


 379:./Libraries/CMSIS/DSP/Source/FilteringFunctions/arm_conv_fast_q31.c ****       sum = 0;
 1433              		.loc 1 379 11
 1434 0d94 0023     		movs	r3, #0
 1435 0d96 C7F86C31 		str	r3, [r7, #364]
 380:./Libraries/CMSIS/DSP/Source/FilteringFunctions/arm_conv_fast_q31.c **** 
 381:./Libraries/CMSIS/DSP/Source/FilteringFunctions/arm_conv_fast_q31.c ****       /* Apply loop unrolling and compute 4 MACs simultaneously. */
 382:./Libraries/CMSIS/DSP/Source/FilteringFunctions/arm_conv_fast_q31.c ****       k = srcBLen >> 2U;
 1436              		.loc 1 382 9
 1437 0d9a D7F81831 		ldr	r3, [r7, #280]
 1438 0d9e 9B08     		lsrs	r3, r3, #2
 1439 0da0 C7F84431 		str	r3, [r7, #324]
 383:./Libraries/CMSIS/DSP/Source/FilteringFunctions/arm_conv_fast_q31.c **** 
 384:./Libraries/CMSIS/DSP/Source/FilteringFunctions/arm_conv_fast_q31.c ****       /* First part of the processing with loop unrolling.  Compute 4 MACs at a time.
 385:./Libraries/CMSIS/DSP/Source/FilteringFunctions/arm_conv_fast_q31.c ****        ** a second loop below computes MACs for the remaining 1 to 3 samples. */
 386:./Libraries/CMSIS/DSP/Source/FilteringFunctions/arm_conv_fast_q31.c ****       while (k > 0U)
 1440              		.loc 1 386 13
 1441 0da4 ECE0     		b	.L17
 1442              	.L18:
 387:./Libraries/CMSIS/DSP/Source/FilteringFunctions/arm_conv_fast_q31.c ****       {
 388:./Libraries/CMSIS/DSP/Source/FilteringFunctions/arm_conv_fast_q31.c ****         /* Perform the multiply-accumulates */
 389:./Libraries/CMSIS/DSP/Source/FilteringFunctions/arm_conv_fast_q31.c ****         sum = (q31_t) ((((q63_t) sum << 32) +
 1443              		.loc 1 389 26
 1444 0da6 D7F86C31 		ldr	r3, [r7, #364]
 1445 0daa 1A46     		mov	r2, r3
 1446 0dac 4FEAE273 		asr	r3, r2, #31
 1447              		.loc 1 389 38
 1448 0db0 4FF00008 		mov	r8, #0
 1449 0db4 4FF00009 		mov	r9, #0
 1450 0db8 9146     		mov	r9, r2
 1451 0dba 4FF00008 		mov	r8, #0
 390:./Libraries/CMSIS/DSP/Source/FilteringFunctions/arm_conv_fast_q31.c ****                         ((q63_t) *px++ * (*py--))) >> 32);
 1452              		.loc 1 390 37
 1453 0dbe D7F87821 		ldr	r2, [r7, #376]
 1454 0dc2 131D     		adds	r3, r2, #4
 1455 0dc4 C7F87831 		str	r3, [r7, #376]
 1456              		.loc 1 390 34
 1457 0dc8 1368     		ldr	r3, [r2]
 1458              		.loc 1 390 26
 1459 0dca 1C46     		mov	r4, r3
 1460 0dcc 4FEAE475 		asr	r5, r4, #31
 1461              		.loc 1 390 46
 1462 0dd0 D7F87421 		ldr	r2, [r7, #372]
 1463 0dd4 131F     		subs	r3, r2, #4
 1464 0dd6 C7F87431 		str	r3, [r7, #372]
 1465              		.loc 1 390 43
 1466 0dda 1368     		ldr	r3, [r2]
 1467 0ddc 1A46     		mov	r2, r3
 1468 0dde 4FEAE273 		asr	r3, r2, #31
 1469              		.loc 1 390 40
 1470 0de2 02FB05F0 		mul	r0, r2, r5
 1471 0de6 04FB03F1 		mul	r1, r4, r3
 1472 0dea 0144     		add	r1, r1, r0
 1473 0dec A4FB0223 		umull	r2, r3, r4, r2
 1474 0df0 1944     		add	r1, r1, r3
 1475 0df2 0B46     		mov	r3, r1
 389:./Libraries/CMSIS/DSP/Source/FilteringFunctions/arm_conv_fast_q31.c ****                         ((q63_t) *px++ * (*py--))) >> 32);
 1476              		.loc 1 389 45
ARM GAS  /tmp/ccbVjeMN.s 			page 34


 1477 0df4 18EB0201 		adds	r1, r8, r2
 1478 0df8 3965     		str	r1, [r7, #80]
 1479 0dfa 49EB0303 		adc	r3, r9, r3
 1480 0dfe 7B65     		str	r3, [r7, #84]
 1481              		.loc 1 390 52
 1482 0e00 4FF00002 		mov	r2, #0
 1483 0e04 4FF00003 		mov	r3, #0
 1484 0e08 D7E91445 		ldrd	r4, [r7, #80]
 1485 0e0c 2946     		mov	r1, r5
 1486 0e0e 0A00     		movs	r2, r1
 1487 0e10 2946     		mov	r1, r5
 1488 0e12 CB17     		asrs	r3, r1, #31
 389:./Libraries/CMSIS/DSP/Source/FilteringFunctions/arm_conv_fast_q31.c ****                         ((q63_t) *px++ * (*py--))) >> 32);
 1489              		.loc 1 389 13
 1490 0e14 1346     		mov	r3, r2
 1491 0e16 C7F86C31 		str	r3, [r7, #364]
 391:./Libraries/CMSIS/DSP/Source/FilteringFunctions/arm_conv_fast_q31.c ****         sum = (q31_t) ((((q63_t) sum << 32) +
 1492              		.loc 1 391 26
 1493 0e1a D7F86C31 		ldr	r3, [r7, #364]
 1494 0e1e 1A46     		mov	r2, r3
 1495 0e20 4FEAE273 		asr	r3, r2, #31
 1496              		.loc 1 391 38
 1497 0e24 4FF00008 		mov	r8, #0
 1498 0e28 4FF00009 		mov	r9, #0
 1499 0e2c 9146     		mov	r9, r2
 1500 0e2e 4FF00008 		mov	r8, #0
 392:./Libraries/CMSIS/DSP/Source/FilteringFunctions/arm_conv_fast_q31.c ****                         ((q63_t) *px++ * (*py--))) >> 32);
 1501              		.loc 1 392 37
 1502 0e32 D7F87821 		ldr	r2, [r7, #376]
 1503 0e36 131D     		adds	r3, r2, #4
 1504 0e38 C7F87831 		str	r3, [r7, #376]
 1505              		.loc 1 392 34
 1506 0e3c 1368     		ldr	r3, [r2]
 1507              		.loc 1 392 26
 1508 0e3e 1C46     		mov	r4, r3
 1509 0e40 4FEAE475 		asr	r5, r4, #31
 1510              		.loc 1 392 46
 1511 0e44 D7F87421 		ldr	r2, [r7, #372]
 1512 0e48 131F     		subs	r3, r2, #4
 1513 0e4a C7F87431 		str	r3, [r7, #372]
 1514              		.loc 1 392 43
 1515 0e4e 1368     		ldr	r3, [r2]
 1516 0e50 1A46     		mov	r2, r3
 1517 0e52 4FEAE273 		asr	r3, r2, #31
 1518              		.loc 1 392 40
 1519 0e56 02FB05F0 		mul	r0, r2, r5
 1520 0e5a 04FB03F1 		mul	r1, r4, r3
 1521 0e5e 0144     		add	r1, r1, r0
 1522 0e60 A4FB0223 		umull	r2, r3, r4, r2
 1523 0e64 1944     		add	r1, r1, r3
 1524 0e66 0B46     		mov	r3, r1
 391:./Libraries/CMSIS/DSP/Source/FilteringFunctions/arm_conv_fast_q31.c ****         sum = (q31_t) ((((q63_t) sum << 32) +
 1525              		.loc 1 391 45
 1526 0e68 18EB0201 		adds	r1, r8, r2
 1527 0e6c B964     		str	r1, [r7, #72]
 1528 0e6e 49EB0303 		adc	r3, r9, r3
 1529 0e72 FB64     		str	r3, [r7, #76]
ARM GAS  /tmp/ccbVjeMN.s 			page 35


 1530              		.loc 1 392 52
 1531 0e74 4FF00002 		mov	r2, #0
 1532 0e78 4FF00003 		mov	r3, #0
 1533 0e7c D7E91245 		ldrd	r4, [r7, #72]
 1534 0e80 2946     		mov	r1, r5
 1535 0e82 0A00     		movs	r2, r1
 1536 0e84 2946     		mov	r1, r5
 1537 0e86 CB17     		asrs	r3, r1, #31
 391:./Libraries/CMSIS/DSP/Source/FilteringFunctions/arm_conv_fast_q31.c ****         sum = (q31_t) ((((q63_t) sum << 32) +
 1538              		.loc 1 391 13
 1539 0e88 1346     		mov	r3, r2
 1540 0e8a C7F86C31 		str	r3, [r7, #364]
 393:./Libraries/CMSIS/DSP/Source/FilteringFunctions/arm_conv_fast_q31.c ****         sum = (q31_t) ((((q63_t) sum << 32) +
 1541              		.loc 1 393 26
 1542 0e8e D7F86C31 		ldr	r3, [r7, #364]
 1543 0e92 1A46     		mov	r2, r3
 1544 0e94 4FEAE273 		asr	r3, r2, #31
 1545              		.loc 1 393 38
 1546 0e98 4FF00008 		mov	r8, #0
 1547 0e9c 4FF00009 		mov	r9, #0
 1548 0ea0 9146     		mov	r9, r2
 1549 0ea2 4FF00008 		mov	r8, #0
 394:./Libraries/CMSIS/DSP/Source/FilteringFunctions/arm_conv_fast_q31.c ****                         ((q63_t) *px++ * (*py--))) >> 32);
 1550              		.loc 1 394 37
 1551 0ea6 D7F87821 		ldr	r2, [r7, #376]
 1552 0eaa 131D     		adds	r3, r2, #4
 1553 0eac C7F87831 		str	r3, [r7, #376]
 1554              		.loc 1 394 34
 1555 0eb0 1368     		ldr	r3, [r2]
 1556              		.loc 1 394 26
 1557 0eb2 1C46     		mov	r4, r3
 1558 0eb4 4FEAE475 		asr	r5, r4, #31
 1559              		.loc 1 394 46
 1560 0eb8 D7F87421 		ldr	r2, [r7, #372]
 1561 0ebc 131F     		subs	r3, r2, #4
 1562 0ebe C7F87431 		str	r3, [r7, #372]
 1563              		.loc 1 394 43
 1564 0ec2 1368     		ldr	r3, [r2]
 1565 0ec4 1A46     		mov	r2, r3
 1566 0ec6 4FEAE273 		asr	r3, r2, #31
 1567              		.loc 1 394 40
 1568 0eca 02FB05F0 		mul	r0, r2, r5
 1569 0ece 04FB03F1 		mul	r1, r4, r3
 1570 0ed2 0144     		add	r1, r1, r0
 1571 0ed4 A4FB0223 		umull	r2, r3, r4, r2
 1572 0ed8 1944     		add	r1, r1, r3
 1573 0eda 0B46     		mov	r3, r1
 393:./Libraries/CMSIS/DSP/Source/FilteringFunctions/arm_conv_fast_q31.c ****         sum = (q31_t) ((((q63_t) sum << 32) +
 1574              		.loc 1 393 45
 1575 0edc 18EB0201 		adds	r1, r8, r2
 1576 0ee0 3964     		str	r1, [r7, #64]
 1577 0ee2 49EB0303 		adc	r3, r9, r3
 1578 0ee6 7B64     		str	r3, [r7, #68]
 1579              		.loc 1 394 52
 1580 0ee8 4FF00002 		mov	r2, #0
 1581 0eec 4FF00003 		mov	r3, #0
 1582 0ef0 D7E91045 		ldrd	r4, [r7, #64]
ARM GAS  /tmp/ccbVjeMN.s 			page 36


 1583 0ef4 2946     		mov	r1, r5
 1584 0ef6 0A00     		movs	r2, r1
 1585 0ef8 2946     		mov	r1, r5
 1586 0efa CB17     		asrs	r3, r1, #31
 393:./Libraries/CMSIS/DSP/Source/FilteringFunctions/arm_conv_fast_q31.c ****         sum = (q31_t) ((((q63_t) sum << 32) +
 1587              		.loc 1 393 13
 1588 0efc 1346     		mov	r3, r2
 1589 0efe C7F86C31 		str	r3, [r7, #364]
 395:./Libraries/CMSIS/DSP/Source/FilteringFunctions/arm_conv_fast_q31.c ****         sum = (q31_t) ((((q63_t) sum << 32) +
 1590              		.loc 1 395 26
 1591 0f02 D7F86C31 		ldr	r3, [r7, #364]
 1592 0f06 1A46     		mov	r2, r3
 1593 0f08 4FEAE273 		asr	r3, r2, #31
 1594              		.loc 1 395 38
 1595 0f0c 4FF00008 		mov	r8, #0
 1596 0f10 4FF00009 		mov	r9, #0
 1597 0f14 9146     		mov	r9, r2
 1598 0f16 4FF00008 		mov	r8, #0
 396:./Libraries/CMSIS/DSP/Source/FilteringFunctions/arm_conv_fast_q31.c ****                         ((q63_t) *px++ * (*py--))) >> 32);
 1599              		.loc 1 396 37
 1600 0f1a D7F87821 		ldr	r2, [r7, #376]
 1601 0f1e 131D     		adds	r3, r2, #4
 1602 0f20 C7F87831 		str	r3, [r7, #376]
 1603              		.loc 1 396 34
 1604 0f24 1368     		ldr	r3, [r2]
 1605              		.loc 1 396 26
 1606 0f26 1C46     		mov	r4, r3
 1607 0f28 4FEAE475 		asr	r5, r4, #31
 1608              		.loc 1 396 46
 1609 0f2c D7F87421 		ldr	r2, [r7, #372]
 1610 0f30 131F     		subs	r3, r2, #4
 1611 0f32 C7F87431 		str	r3, [r7, #372]
 1612              		.loc 1 396 43
 1613 0f36 1368     		ldr	r3, [r2]
 1614 0f38 1A46     		mov	r2, r3
 1615 0f3a 4FEAE273 		asr	r3, r2, #31
 1616              		.loc 1 396 40
 1617 0f3e 02FB05F0 		mul	r0, r2, r5
 1618 0f42 04FB03F1 		mul	r1, r4, r3
 1619 0f46 0144     		add	r1, r1, r0
 1620 0f48 A4FB0223 		umull	r2, r3, r4, r2
 1621 0f4c 1944     		add	r1, r1, r3
 1622 0f4e 0B46     		mov	r3, r1
 395:./Libraries/CMSIS/DSP/Source/FilteringFunctions/arm_conv_fast_q31.c ****         sum = (q31_t) ((((q63_t) sum << 32) +
 1623              		.loc 1 395 45
 1624 0f50 18EB0201 		adds	r1, r8, r2
 1625 0f54 B963     		str	r1, [r7, #56]
 1626 0f56 49EB0303 		adc	r3, r9, r3
 1627 0f5a FB63     		str	r3, [r7, #60]
 1628              		.loc 1 396 52
 1629 0f5c 4FF00002 		mov	r2, #0
 1630 0f60 4FF00003 		mov	r3, #0
 1631 0f64 D7E90E45 		ldrd	r4, [r7, #56]
 1632 0f68 2946     		mov	r1, r5
 1633 0f6a 0A00     		movs	r2, r1
 1634 0f6c 2946     		mov	r1, r5
 1635 0f6e CB17     		asrs	r3, r1, #31
ARM GAS  /tmp/ccbVjeMN.s 			page 37


 395:./Libraries/CMSIS/DSP/Source/FilteringFunctions/arm_conv_fast_q31.c ****         sum = (q31_t) ((((q63_t) sum << 32) +
 1636              		.loc 1 395 13
 1637 0f70 1346     		mov	r3, r2
 1638 0f72 C7F86C31 		str	r3, [r7, #364]
 397:./Libraries/CMSIS/DSP/Source/FilteringFunctions/arm_conv_fast_q31.c **** 
 398:./Libraries/CMSIS/DSP/Source/FilteringFunctions/arm_conv_fast_q31.c ****         /* Decrement loop counter */
 399:./Libraries/CMSIS/DSP/Source/FilteringFunctions/arm_conv_fast_q31.c ****         k--;
 1639              		.loc 1 399 10
 1640 0f76 D7F84431 		ldr	r3, [r7, #324]
 1641 0f7a 013B     		subs	r3, r3, #1
 1642 0f7c C7F84431 		str	r3, [r7, #324]
 1643              	.L17:
 386:./Libraries/CMSIS/DSP/Source/FilteringFunctions/arm_conv_fast_q31.c ****       {
 1644              		.loc 1 386 13
 1645 0f80 D7F84431 		ldr	r3, [r7, #324]
 1646 0f84 002B     		cmp	r3, #0
 1647 0f86 7FF40EAF 		bne	.L18
 400:./Libraries/CMSIS/DSP/Source/FilteringFunctions/arm_conv_fast_q31.c ****       }
 401:./Libraries/CMSIS/DSP/Source/FilteringFunctions/arm_conv_fast_q31.c **** 
 402:./Libraries/CMSIS/DSP/Source/FilteringFunctions/arm_conv_fast_q31.c ****       /* If the srcBLen is not a multiple of 4, compute any remaining MACs here.
 403:./Libraries/CMSIS/DSP/Source/FilteringFunctions/arm_conv_fast_q31.c ****        ** No loop unrolling is used. */
 404:./Libraries/CMSIS/DSP/Source/FilteringFunctions/arm_conv_fast_q31.c ****       k = srcBLen % 0x4U;
 1648              		.loc 1 404 9
 1649 0f8a D7F81831 		ldr	r3, [r7, #280]
 1650 0f8e 03F00303 		and	r3, r3, #3
 1651 0f92 C7F84431 		str	r3, [r7, #324]
 405:./Libraries/CMSIS/DSP/Source/FilteringFunctions/arm_conv_fast_q31.c **** 
 406:./Libraries/CMSIS/DSP/Source/FilteringFunctions/arm_conv_fast_q31.c ****       while (k > 0U)
 1652              		.loc 1 406 13
 1653 0f96 3EE0     		b	.L19
 1654              	.L20:
 407:./Libraries/CMSIS/DSP/Source/FilteringFunctions/arm_conv_fast_q31.c ****       {
 408:./Libraries/CMSIS/DSP/Source/FilteringFunctions/arm_conv_fast_q31.c ****         /* Perform the multiply-accumulate */
 409:./Libraries/CMSIS/DSP/Source/FilteringFunctions/arm_conv_fast_q31.c ****         sum = (q31_t) ((((q63_t) sum << 32) +
 1655              		.loc 1 409 26
 1656 0f98 D7F86C31 		ldr	r3, [r7, #364]
 1657 0f9c 1A46     		mov	r2, r3
 1658 0f9e 4FEAE273 		asr	r3, r2, #31
 1659              		.loc 1 409 38
 1660 0fa2 4FF00008 		mov	r8, #0
 1661 0fa6 4FF00009 		mov	r9, #0
 1662 0faa 9146     		mov	r9, r2
 1663 0fac 4FF00008 		mov	r8, #0
 410:./Libraries/CMSIS/DSP/Source/FilteringFunctions/arm_conv_fast_q31.c ****                         ((q63_t) *px++ * (*py--))) >> 32);
 1664              		.loc 1 410 37
 1665 0fb0 D7F87821 		ldr	r2, [r7, #376]
 1666 0fb4 131D     		adds	r3, r2, #4
 1667 0fb6 C7F87831 		str	r3, [r7, #376]
 1668              		.loc 1 410 34
 1669 0fba 1368     		ldr	r3, [r2]
 1670              		.loc 1 410 26
 1671 0fbc 1C46     		mov	r4, r3
 1672 0fbe 4FEAE475 		asr	r5, r4, #31
 1673              		.loc 1 410 46
 1674 0fc2 D7F87421 		ldr	r2, [r7, #372]
 1675 0fc6 131F     		subs	r3, r2, #4
 1676 0fc8 C7F87431 		str	r3, [r7, #372]
ARM GAS  /tmp/ccbVjeMN.s 			page 38


 1677              		.loc 1 410 43
 1678 0fcc 1368     		ldr	r3, [r2]
 1679 0fce 1A46     		mov	r2, r3
 1680 0fd0 4FEAE273 		asr	r3, r2, #31
 1681              		.loc 1 410 40
 1682 0fd4 02FB05F0 		mul	r0, r2, r5
 1683 0fd8 04FB03F1 		mul	r1, r4, r3
 1684 0fdc 0144     		add	r1, r1, r0
 1685 0fde A4FB0223 		umull	r2, r3, r4, r2
 1686 0fe2 1944     		add	r1, r1, r3
 1687 0fe4 0B46     		mov	r3, r1
 409:./Libraries/CMSIS/DSP/Source/FilteringFunctions/arm_conv_fast_q31.c ****                         ((q63_t) *px++ * (*py--))) >> 32);
 1688              		.loc 1 409 45
 1689 0fe6 18EB0201 		adds	r1, r8, r2
 1690 0fea 3963     		str	r1, [r7, #48]
 1691 0fec 49EB0303 		adc	r3, r9, r3
 1692 0ff0 7B63     		str	r3, [r7, #52]
 1693              		.loc 1 410 52
 1694 0ff2 4FF00002 		mov	r2, #0
 1695 0ff6 4FF00003 		mov	r3, #0
 1696 0ffa D7E90C45 		ldrd	r4, [r7, #48]
 1697 0ffe 2946     		mov	r1, r5
 1698 1000 0A00     		movs	r2, r1
 1699 1002 2946     		mov	r1, r5
 1700 1004 CB17     		asrs	r3, r1, #31
 409:./Libraries/CMSIS/DSP/Source/FilteringFunctions/arm_conv_fast_q31.c ****                         ((q63_t) *px++ * (*py--))) >> 32);
 1701              		.loc 1 409 13
 1702 1006 1346     		mov	r3, r2
 1703 1008 C7F86C31 		str	r3, [r7, #364]
 411:./Libraries/CMSIS/DSP/Source/FilteringFunctions/arm_conv_fast_q31.c **** 
 412:./Libraries/CMSIS/DSP/Source/FilteringFunctions/arm_conv_fast_q31.c ****         /* Decrement loop counter */
 413:./Libraries/CMSIS/DSP/Source/FilteringFunctions/arm_conv_fast_q31.c ****         k--;
 1704              		.loc 1 413 10
 1705 100c D7F84431 		ldr	r3, [r7, #324]
 1706 1010 013B     		subs	r3, r3, #1
 1707 1012 C7F84431 		str	r3, [r7, #324]
 1708              	.L19:
 406:./Libraries/CMSIS/DSP/Source/FilteringFunctions/arm_conv_fast_q31.c ****       {
 1709              		.loc 1 406 13
 1710 1016 D7F84431 		ldr	r3, [r7, #324]
 1711 101a 002B     		cmp	r3, #0
 1712 101c BCD1     		bne	.L20
 414:./Libraries/CMSIS/DSP/Source/FilteringFunctions/arm_conv_fast_q31.c ****       }
 415:./Libraries/CMSIS/DSP/Source/FilteringFunctions/arm_conv_fast_q31.c **** 
 416:./Libraries/CMSIS/DSP/Source/FilteringFunctions/arm_conv_fast_q31.c ****       /* Store the result in the accumulator in the destination buffer. */
 417:./Libraries/CMSIS/DSP/Source/FilteringFunctions/arm_conv_fast_q31.c ****       *pOut++ = sum << 1;
 1713              		.loc 1 417 12
 1714 101e D7F87C21 		ldr	r2, [r7, #380]
 1715 1022 131D     		adds	r3, r2, #4
 1716 1024 C7F87C31 		str	r3, [r7, #380]
 1717              		.loc 1 417 21
 1718 1028 D7F86C31 		ldr	r3, [r7, #364]
 1719 102c 5B00     		lsls	r3, r3, #1
 1720              		.loc 1 417 15
 1721 102e 1360     		str	r3, [r2]
 418:./Libraries/CMSIS/DSP/Source/FilteringFunctions/arm_conv_fast_q31.c **** 
 419:./Libraries/CMSIS/DSP/Source/FilteringFunctions/arm_conv_fast_q31.c ****       /* Increment MAC count */
ARM GAS  /tmp/ccbVjeMN.s 			page 39


 420:./Libraries/CMSIS/DSP/Source/FilteringFunctions/arm_conv_fast_q31.c ****       count++;
 1722              		.loc 1 420 12
 1723 1030 D7F84031 		ldr	r3, [r7, #320]
 1724 1034 0133     		adds	r3, r3, #1
 1725 1036 C7F84031 		str	r3, [r7, #320]
 421:./Libraries/CMSIS/DSP/Source/FilteringFunctions/arm_conv_fast_q31.c **** 
 422:./Libraries/CMSIS/DSP/Source/FilteringFunctions/arm_conv_fast_q31.c ****       /* Update the inputA and inputB pointers for next MAC calculation */
 423:./Libraries/CMSIS/DSP/Source/FilteringFunctions/arm_conv_fast_q31.c ****       px = pIn1 + count;
 1726              		.loc 1 423 17
 1727 103a D7F84031 		ldr	r3, [r7, #320]
 1728 103e 9A00     		lsls	r2, r3, #2
 1729              		.loc 1 423 10
 1730 1040 D7F88431 		ldr	r3, [r7, #388]
 1731 1044 1344     		add	r3, r3, r2
 1732 1046 C7F87831 		str	r3, [r7, #376]
 424:./Libraries/CMSIS/DSP/Source/FilteringFunctions/arm_conv_fast_q31.c ****       py = pSrc2;
 1733              		.loc 1 424 10
 1734 104a D7F83031 		ldr	r3, [r7, #304]
 1735 104e C7F87431 		str	r3, [r7, #372]
 425:./Libraries/CMSIS/DSP/Source/FilteringFunctions/arm_conv_fast_q31.c **** 
 426:./Libraries/CMSIS/DSP/Source/FilteringFunctions/arm_conv_fast_q31.c ****       /* Decrement loop counter */
 427:./Libraries/CMSIS/DSP/Source/FilteringFunctions/arm_conv_fast_q31.c ****       blkCnt--;
 1736              		.loc 1 427 13
 1737 1052 D7F83C31 		ldr	r3, [r7, #316]
 1738 1056 013B     		subs	r3, r3, #1
 1739 1058 C7F83C31 		str	r3, [r7, #316]
 1740              	.L16:
 376:./Libraries/CMSIS/DSP/Source/FilteringFunctions/arm_conv_fast_q31.c ****     {
 1741              		.loc 1 376 11
 1742 105c D7F83C31 		ldr	r3, [r7, #316]
 1743 1060 002B     		cmp	r3, #0
 1744 1062 7FF497AE 		bne	.L21
 1745 1066 72E0     		b	.L22
 1746              	.L10:
 428:./Libraries/CMSIS/DSP/Source/FilteringFunctions/arm_conv_fast_q31.c ****     }
 429:./Libraries/CMSIS/DSP/Source/FilteringFunctions/arm_conv_fast_q31.c ****   }
 430:./Libraries/CMSIS/DSP/Source/FilteringFunctions/arm_conv_fast_q31.c ****   else
 431:./Libraries/CMSIS/DSP/Source/FilteringFunctions/arm_conv_fast_q31.c ****   {
 432:./Libraries/CMSIS/DSP/Source/FilteringFunctions/arm_conv_fast_q31.c ****     /* If the srcBLen is not a multiple of 4,
 433:./Libraries/CMSIS/DSP/Source/FilteringFunctions/arm_conv_fast_q31.c ****      * the blockSize2 loop cannot be unrolled by 4 */
 434:./Libraries/CMSIS/DSP/Source/FilteringFunctions/arm_conv_fast_q31.c ****     blkCnt = blockSize2;
 1747              		.loc 1 434 12
 1748 1068 D7F83431 		ldr	r3, [r7, #308]
 1749 106c C7F83C31 		str	r3, [r7, #316]
 435:./Libraries/CMSIS/DSP/Source/FilteringFunctions/arm_conv_fast_q31.c **** 
 436:./Libraries/CMSIS/DSP/Source/FilteringFunctions/arm_conv_fast_q31.c ****     while (blkCnt > 0U)
 1750              		.loc 1 436 11
 1751 1070 69E0     		b	.L23
 1752              	.L26:
 437:./Libraries/CMSIS/DSP/Source/FilteringFunctions/arm_conv_fast_q31.c ****     {
 438:./Libraries/CMSIS/DSP/Source/FilteringFunctions/arm_conv_fast_q31.c ****       /* Accumulator is made zero for every iteration */
 439:./Libraries/CMSIS/DSP/Source/FilteringFunctions/arm_conv_fast_q31.c ****       sum = 0;
 1753              		.loc 1 439 11
 1754 1072 0023     		movs	r3, #0
 1755 1074 C7F86C31 		str	r3, [r7, #364]
 440:./Libraries/CMSIS/DSP/Source/FilteringFunctions/arm_conv_fast_q31.c **** 
 441:./Libraries/CMSIS/DSP/Source/FilteringFunctions/arm_conv_fast_q31.c ****       /* srcBLen number of MACS should be performed */
ARM GAS  /tmp/ccbVjeMN.s 			page 40


 442:./Libraries/CMSIS/DSP/Source/FilteringFunctions/arm_conv_fast_q31.c ****       k = srcBLen;
 1756              		.loc 1 442 9
 1757 1078 D7F81831 		ldr	r3, [r7, #280]
 1758 107c C7F84431 		str	r3, [r7, #324]
 443:./Libraries/CMSIS/DSP/Source/FilteringFunctions/arm_conv_fast_q31.c **** 
 444:./Libraries/CMSIS/DSP/Source/FilteringFunctions/arm_conv_fast_q31.c ****       while (k > 0U)
 1759              		.loc 1 444 13
 1760 1080 3EE0     		b	.L24
 1761              	.L25:
 445:./Libraries/CMSIS/DSP/Source/FilteringFunctions/arm_conv_fast_q31.c ****       {
 446:./Libraries/CMSIS/DSP/Source/FilteringFunctions/arm_conv_fast_q31.c ****         /* Perform the multiply-accumulate */
 447:./Libraries/CMSIS/DSP/Source/FilteringFunctions/arm_conv_fast_q31.c ****         sum = (q31_t) ((((q63_t) sum << 32) +
 1762              		.loc 1 447 26
 1763 1082 D7F86C31 		ldr	r3, [r7, #364]
 1764 1086 1A46     		mov	r2, r3
 1765 1088 4FEAE273 		asr	r3, r2, #31
 1766              		.loc 1 447 38
 1767 108c 4FF00008 		mov	r8, #0
 1768 1090 4FF00009 		mov	r9, #0
 1769 1094 9146     		mov	r9, r2
 1770 1096 4FF00008 		mov	r8, #0
 448:./Libraries/CMSIS/DSP/Source/FilteringFunctions/arm_conv_fast_q31.c ****                         ((q63_t) *px++ * (*py--))) >> 32);
 1771              		.loc 1 448 37
 1772 109a D7F87821 		ldr	r2, [r7, #376]
 1773 109e 131D     		adds	r3, r2, #4
 1774 10a0 C7F87831 		str	r3, [r7, #376]
 1775              		.loc 1 448 34
 1776 10a4 1368     		ldr	r3, [r2]
 1777              		.loc 1 448 26
 1778 10a6 1C46     		mov	r4, r3
 1779 10a8 4FEAE475 		asr	r5, r4, #31
 1780              		.loc 1 448 46
 1781 10ac D7F87421 		ldr	r2, [r7, #372]
 1782 10b0 131F     		subs	r3, r2, #4
 1783 10b2 C7F87431 		str	r3, [r7, #372]
 1784              		.loc 1 448 43
 1785 10b6 1368     		ldr	r3, [r2]
 1786 10b8 1A46     		mov	r2, r3
 1787 10ba 4FEAE273 		asr	r3, r2, #31
 1788              		.loc 1 448 40
 1789 10be 02FB05F0 		mul	r0, r2, r5
 1790 10c2 04FB03F1 		mul	r1, r4, r3
 1791 10c6 0144     		add	r1, r1, r0
 1792 10c8 A4FB0223 		umull	r2, r3, r4, r2
 1793 10cc 1944     		add	r1, r1, r3
 1794 10ce 0B46     		mov	r3, r1
 447:./Libraries/CMSIS/DSP/Source/FilteringFunctions/arm_conv_fast_q31.c ****                         ((q63_t) *px++ * (*py--))) >> 32);
 1795              		.loc 1 447 45
 1796 10d0 18EB0201 		adds	r1, r8, r2
 1797 10d4 B962     		str	r1, [r7, #40]
 1798 10d6 49EB0303 		adc	r3, r9, r3
 1799 10da FB62     		str	r3, [r7, #44]
 1800              		.loc 1 448 52
 1801 10dc 4FF00002 		mov	r2, #0
 1802 10e0 4FF00003 		mov	r3, #0
 1803 10e4 D7E90A45 		ldrd	r4, [r7, #40]
 1804 10e8 2946     		mov	r1, r5
ARM GAS  /tmp/ccbVjeMN.s 			page 41


 1805 10ea 0A00     		movs	r2, r1
 1806 10ec 2946     		mov	r1, r5
 1807 10ee CB17     		asrs	r3, r1, #31
 447:./Libraries/CMSIS/DSP/Source/FilteringFunctions/arm_conv_fast_q31.c ****                         ((q63_t) *px++ * (*py--))) >> 32);
 1808              		.loc 1 447 13
 1809 10f0 1346     		mov	r3, r2
 1810 10f2 C7F86C31 		str	r3, [r7, #364]
 449:./Libraries/CMSIS/DSP/Source/FilteringFunctions/arm_conv_fast_q31.c **** 
 450:./Libraries/CMSIS/DSP/Source/FilteringFunctions/arm_conv_fast_q31.c ****         /* Decrement loop counter */
 451:./Libraries/CMSIS/DSP/Source/FilteringFunctions/arm_conv_fast_q31.c ****         k--;
 1811              		.loc 1 451 10
 1812 10f6 D7F84431 		ldr	r3, [r7, #324]
 1813 10fa 013B     		subs	r3, r3, #1
 1814 10fc C7F84431 		str	r3, [r7, #324]
 1815              	.L24:
 444:./Libraries/CMSIS/DSP/Source/FilteringFunctions/arm_conv_fast_q31.c ****       {
 1816              		.loc 1 444 13
 1817 1100 D7F84431 		ldr	r3, [r7, #324]
 1818 1104 002B     		cmp	r3, #0
 1819 1106 BCD1     		bne	.L25
 452:./Libraries/CMSIS/DSP/Source/FilteringFunctions/arm_conv_fast_q31.c ****       }
 453:./Libraries/CMSIS/DSP/Source/FilteringFunctions/arm_conv_fast_q31.c **** 
 454:./Libraries/CMSIS/DSP/Source/FilteringFunctions/arm_conv_fast_q31.c ****       /* Store the result in the accumulator in the destination buffer. */
 455:./Libraries/CMSIS/DSP/Source/FilteringFunctions/arm_conv_fast_q31.c ****       *pOut++ = sum << 1;
 1820              		.loc 1 455 12
 1821 1108 D7F87C21 		ldr	r2, [r7, #380]
 1822 110c 131D     		adds	r3, r2, #4
 1823 110e C7F87C31 		str	r3, [r7, #380]
 1824              		.loc 1 455 21
 1825 1112 D7F86C31 		ldr	r3, [r7, #364]
 1826 1116 5B00     		lsls	r3, r3, #1
 1827              		.loc 1 455 15
 1828 1118 1360     		str	r3, [r2]
 456:./Libraries/CMSIS/DSP/Source/FilteringFunctions/arm_conv_fast_q31.c **** 
 457:./Libraries/CMSIS/DSP/Source/FilteringFunctions/arm_conv_fast_q31.c ****       /* Increment MAC count */
 458:./Libraries/CMSIS/DSP/Source/FilteringFunctions/arm_conv_fast_q31.c ****       count++;
 1829              		.loc 1 458 12
 1830 111a D7F84031 		ldr	r3, [r7, #320]
 1831 111e 0133     		adds	r3, r3, #1
 1832 1120 C7F84031 		str	r3, [r7, #320]
 459:./Libraries/CMSIS/DSP/Source/FilteringFunctions/arm_conv_fast_q31.c **** 
 460:./Libraries/CMSIS/DSP/Source/FilteringFunctions/arm_conv_fast_q31.c ****       /* Update the inputA and inputB pointers for next MAC calculation */
 461:./Libraries/CMSIS/DSP/Source/FilteringFunctions/arm_conv_fast_q31.c ****       px = pIn1 + count;
 1833              		.loc 1 461 17
 1834 1124 D7F84031 		ldr	r3, [r7, #320]
 1835 1128 9B00     		lsls	r3, r3, #2
 1836              		.loc 1 461 10
 1837 112a D7F88421 		ldr	r2, [r7, #388]
 1838 112e 1344     		add	r3, r3, r2
 1839 1130 C7F87831 		str	r3, [r7, #376]
 462:./Libraries/CMSIS/DSP/Source/FilteringFunctions/arm_conv_fast_q31.c ****       py = pSrc2;
 1840              		.loc 1 462 10
 1841 1134 D7F83031 		ldr	r3, [r7, #304]
 1842 1138 C7F87431 		str	r3, [r7, #372]
 463:./Libraries/CMSIS/DSP/Source/FilteringFunctions/arm_conv_fast_q31.c **** 
 464:./Libraries/CMSIS/DSP/Source/FilteringFunctions/arm_conv_fast_q31.c ****       /* Decrement loop counter */
 465:./Libraries/CMSIS/DSP/Source/FilteringFunctions/arm_conv_fast_q31.c ****       blkCnt--;
ARM GAS  /tmp/ccbVjeMN.s 			page 42


 1843              		.loc 1 465 13
 1844 113c D7F83C31 		ldr	r3, [r7, #316]
 1845 1140 013B     		subs	r3, r3, #1
 1846 1142 C7F83C31 		str	r3, [r7, #316]
 1847              	.L23:
 436:./Libraries/CMSIS/DSP/Source/FilteringFunctions/arm_conv_fast_q31.c ****     {
 1848              		.loc 1 436 11
 1849 1146 D7F83C31 		ldr	r3, [r7, #316]
 1850 114a 002B     		cmp	r3, #0
 1851 114c 91D1     		bne	.L26
 1852              	.L22:
 466:./Libraries/CMSIS/DSP/Source/FilteringFunctions/arm_conv_fast_q31.c ****     }
 467:./Libraries/CMSIS/DSP/Source/FilteringFunctions/arm_conv_fast_q31.c ****   }
 468:./Libraries/CMSIS/DSP/Source/FilteringFunctions/arm_conv_fast_q31.c **** 
 469:./Libraries/CMSIS/DSP/Source/FilteringFunctions/arm_conv_fast_q31.c **** 
 470:./Libraries/CMSIS/DSP/Source/FilteringFunctions/arm_conv_fast_q31.c ****   /* --------------------------
 471:./Libraries/CMSIS/DSP/Source/FilteringFunctions/arm_conv_fast_q31.c ****    * Initializations of stage3
 472:./Libraries/CMSIS/DSP/Source/FilteringFunctions/arm_conv_fast_q31.c ****    * -------------------------*/
 473:./Libraries/CMSIS/DSP/Source/FilteringFunctions/arm_conv_fast_q31.c **** 
 474:./Libraries/CMSIS/DSP/Source/FilteringFunctions/arm_conv_fast_q31.c ****   /* sum += x[srcALen-srcBLen+1] * y[srcBLen-1] + x[srcALen-srcBLen+2] * y[srcBLen-2] +...+ x[srcAL
 475:./Libraries/CMSIS/DSP/Source/FilteringFunctions/arm_conv_fast_q31.c ****    * sum += x[srcALen-srcBLen+2] * y[srcBLen-1] + x[srcALen-srcBLen+3] * y[srcBLen-2] +...+ x[srcAL
 476:./Libraries/CMSIS/DSP/Source/FilteringFunctions/arm_conv_fast_q31.c ****    * ....
 477:./Libraries/CMSIS/DSP/Source/FilteringFunctions/arm_conv_fast_q31.c ****    * sum +=  x[srcALen-2] * y[srcBLen-1] + x[srcALen-1] * y[srcBLen-2]
 478:./Libraries/CMSIS/DSP/Source/FilteringFunctions/arm_conv_fast_q31.c ****    * sum +=  x[srcALen-1] * y[srcBLen-1]
 479:./Libraries/CMSIS/DSP/Source/FilteringFunctions/arm_conv_fast_q31.c ****    */
 480:./Libraries/CMSIS/DSP/Source/FilteringFunctions/arm_conv_fast_q31.c **** 
 481:./Libraries/CMSIS/DSP/Source/FilteringFunctions/arm_conv_fast_q31.c ****   /* In this stage the MAC operations are decreased by 1 for every iteration.
 482:./Libraries/CMSIS/DSP/Source/FilteringFunctions/arm_conv_fast_q31.c ****      The blockSize3 variable holds the number of MAC operations performed */
 483:./Libraries/CMSIS/DSP/Source/FilteringFunctions/arm_conv_fast_q31.c **** 
 484:./Libraries/CMSIS/DSP/Source/FilteringFunctions/arm_conv_fast_q31.c ****   /* Working pointer of inputA */
 485:./Libraries/CMSIS/DSP/Source/FilteringFunctions/arm_conv_fast_q31.c ****   pSrc1 = (pIn1 + srcALen) - (srcBLen - 1U);
 1853              		.loc 1 485 28
 1854 114e D7F82021 		ldr	r2, [r7, #288]
 1855 1152 D7F81831 		ldr	r3, [r7, #280]
 1856 1156 D31A     		subs	r3, r2, r3
 1857 1158 0133     		adds	r3, r3, #1
 1858 115a 9B00     		lsls	r3, r3, #2
 1859              		.loc 1 485 9
 1860 115c D7F88421 		ldr	r2, [r7, #388]
 1861 1160 1344     		add	r3, r3, r2
 1862 1162 C7F87031 		str	r3, [r7, #368]
 486:./Libraries/CMSIS/DSP/Source/FilteringFunctions/arm_conv_fast_q31.c ****   px = pSrc1;
 1863              		.loc 1 486 6
 1864 1166 D7F87031 		ldr	r3, [r7, #368]
 1865 116a C7F87831 		str	r3, [r7, #376]
 487:./Libraries/CMSIS/DSP/Source/FilteringFunctions/arm_conv_fast_q31.c **** 
 488:./Libraries/CMSIS/DSP/Source/FilteringFunctions/arm_conv_fast_q31.c ****   /* Working pointer of inputB */
 489:./Libraries/CMSIS/DSP/Source/FilteringFunctions/arm_conv_fast_q31.c ****   pSrc2 = pIn2 + (srcBLen - 1U);
 1866              		.loc 1 489 16
 1867 116e D7F81821 		ldr	r2, [r7, #280]
 1868 1172 6FF04043 		mvn	r3, #-1073741824
 1869 1176 1344     		add	r3, r3, r2
 1870 1178 9B00     		lsls	r3, r3, #2
 1871              		.loc 1 489 9
 1872 117a D7F88021 		ldr	r2, [r7, #384]
 1873 117e 1344     		add	r3, r3, r2
 1874 1180 C7F83031 		str	r3, [r7, #304]
ARM GAS  /tmp/ccbVjeMN.s 			page 43


 490:./Libraries/CMSIS/DSP/Source/FilteringFunctions/arm_conv_fast_q31.c ****   py = pSrc2;
 1875              		.loc 1 490 6
 1876 1184 D7F83031 		ldr	r3, [r7, #304]
 1877 1188 C7F87431 		str	r3, [r7, #372]
 491:./Libraries/CMSIS/DSP/Source/FilteringFunctions/arm_conv_fast_q31.c **** 
 492:./Libraries/CMSIS/DSP/Source/FilteringFunctions/arm_conv_fast_q31.c ****   /* -------------------
 493:./Libraries/CMSIS/DSP/Source/FilteringFunctions/arm_conv_fast_q31.c ****    * Stage3 process
 494:./Libraries/CMSIS/DSP/Source/FilteringFunctions/arm_conv_fast_q31.c ****    * ------------------*/
 495:./Libraries/CMSIS/DSP/Source/FilteringFunctions/arm_conv_fast_q31.c **** 
 496:./Libraries/CMSIS/DSP/Source/FilteringFunctions/arm_conv_fast_q31.c ****   while (blockSize3 > 0U)
 1878              		.loc 1 496 9
 1879 118c 5FE1     		b	.L27
 1880              	.L32:
 497:./Libraries/CMSIS/DSP/Source/FilteringFunctions/arm_conv_fast_q31.c ****   {
 498:./Libraries/CMSIS/DSP/Source/FilteringFunctions/arm_conv_fast_q31.c ****     /* Accumulator is made zero for every iteration */
 499:./Libraries/CMSIS/DSP/Source/FilteringFunctions/arm_conv_fast_q31.c ****     sum = 0;
 1881              		.loc 1 499 9
 1882 118e 0023     		movs	r3, #0
 1883 1190 C7F86C31 		str	r3, [r7, #364]
 500:./Libraries/CMSIS/DSP/Source/FilteringFunctions/arm_conv_fast_q31.c **** 
 501:./Libraries/CMSIS/DSP/Source/FilteringFunctions/arm_conv_fast_q31.c ****     /* Apply loop unrolling and compute 4 MACs simultaneously. */
 502:./Libraries/CMSIS/DSP/Source/FilteringFunctions/arm_conv_fast_q31.c ****     k = blockSize3 >> 2U;
 1884              		.loc 1 502 7
 1885 1194 D7F84831 		ldr	r3, [r7, #328]
 1886 1198 9B08     		lsrs	r3, r3, #2
 1887 119a C7F84431 		str	r3, [r7, #324]
 503:./Libraries/CMSIS/DSP/Source/FilteringFunctions/arm_conv_fast_q31.c **** 
 504:./Libraries/CMSIS/DSP/Source/FilteringFunctions/arm_conv_fast_q31.c ****     /* First part of the processing with loop unrolling.  Compute 4 MACs at a time.
 505:./Libraries/CMSIS/DSP/Source/FilteringFunctions/arm_conv_fast_q31.c ****      ** a second loop below computes MACs for the remaining 1 to 3 samples. */
 506:./Libraries/CMSIS/DSP/Source/FilteringFunctions/arm_conv_fast_q31.c ****     while (k > 0U)
 1888              		.loc 1 506 11
 1889 119e ECE0     		b	.L28
 1890              	.L29:
 507:./Libraries/CMSIS/DSP/Source/FilteringFunctions/arm_conv_fast_q31.c ****     {
 508:./Libraries/CMSIS/DSP/Source/FilteringFunctions/arm_conv_fast_q31.c ****       /* Perform the multiply-accumulate */
 509:./Libraries/CMSIS/DSP/Source/FilteringFunctions/arm_conv_fast_q31.c ****       /* sum += x[srcALen - srcBLen + 1] * y[srcBLen - 1] */
 510:./Libraries/CMSIS/DSP/Source/FilteringFunctions/arm_conv_fast_q31.c ****       sum = (q31_t) ((((q63_t) sum << 32) +
 1891              		.loc 1 510 24
 1892 11a0 D7F86C31 		ldr	r3, [r7, #364]
 1893 11a4 1A46     		mov	r2, r3
 1894 11a6 4FEAE273 		asr	r3, r2, #31
 1895              		.loc 1 510 36
 1896 11aa 4FF00008 		mov	r8, #0
 1897 11ae 4FF00009 		mov	r9, #0
 1898 11b2 9146     		mov	r9, r2
 1899 11b4 4FF00008 		mov	r8, #0
 511:./Libraries/CMSIS/DSP/Source/FilteringFunctions/arm_conv_fast_q31.c ****                       ((q63_t) *px++ * (*py--))) >> 32);
 1900              		.loc 1 511 35
 1901 11b8 D7F87831 		ldr	r3, [r7, #376]
 1902 11bc 1A1D     		adds	r2, r3, #4
 1903 11be C7F87821 		str	r2, [r7, #376]
 1904              		.loc 1 511 32
 1905 11c2 1B68     		ldr	r3, [r3]
 1906              		.loc 1 511 24
 1907 11c4 1C46     		mov	r4, r3
 1908 11c6 4FEAE475 		asr	r5, r4, #31
 1909              		.loc 1 511 44
ARM GAS  /tmp/ccbVjeMN.s 			page 44


 1910 11ca D7F87421 		ldr	r2, [r7, #372]
 1911 11ce 131F     		subs	r3, r2, #4
 1912 11d0 C7F87431 		str	r3, [r7, #372]
 1913              		.loc 1 511 41
 1914 11d4 1368     		ldr	r3, [r2]
 1915 11d6 1A46     		mov	r2, r3
 1916 11d8 4FEAE273 		asr	r3, r2, #31
 1917              		.loc 1 511 38
 1918 11dc 02FB05F0 		mul	r0, r2, r5
 1919 11e0 04FB03F1 		mul	r1, r4, r3
 1920 11e4 0144     		add	r1, r1, r0
 1921 11e6 A4FB0223 		umull	r2, r3, r4, r2
 1922 11ea 1944     		add	r1, r1, r3
 1923 11ec 0B46     		mov	r3, r1
 510:./Libraries/CMSIS/DSP/Source/FilteringFunctions/arm_conv_fast_q31.c ****                       ((q63_t) *px++ * (*py--))) >> 32);
 1924              		.loc 1 510 43
 1925 11ee 18EB0201 		adds	r1, r8, r2
 1926 11f2 3962     		str	r1, [r7, #32]
 1927 11f4 49EB0303 		adc	r3, r9, r3
 1928 11f8 7B62     		str	r3, [r7, #36]
 1929              		.loc 1 511 50
 1930 11fa 4FF00002 		mov	r2, #0
 1931 11fe 4FF00003 		mov	r3, #0
 1932 1202 D7E90845 		ldrd	r4, [r7, #32]
 1933 1206 2946     		mov	r1, r5
 1934 1208 0A00     		movs	r2, r1
 1935 120a 2946     		mov	r1, r5
 1936 120c CB17     		asrs	r3, r1, #31
 510:./Libraries/CMSIS/DSP/Source/FilteringFunctions/arm_conv_fast_q31.c ****                       ((q63_t) *px++ * (*py--))) >> 32);
 1937              		.loc 1 510 11
 1938 120e 1346     		mov	r3, r2
 1939 1210 C7F86C31 		str	r3, [r7, #364]
 512:./Libraries/CMSIS/DSP/Source/FilteringFunctions/arm_conv_fast_q31.c **** 
 513:./Libraries/CMSIS/DSP/Source/FilteringFunctions/arm_conv_fast_q31.c ****       /* sum += x[srcALen - srcBLen + 2] * y[srcBLen - 2] */
 514:./Libraries/CMSIS/DSP/Source/FilteringFunctions/arm_conv_fast_q31.c ****       sum = (q31_t) ((((q63_t) sum << 32) +
 1940              		.loc 1 514 24
 1941 1214 D7F86C31 		ldr	r3, [r7, #364]
 1942 1218 1A46     		mov	r2, r3
 1943 121a 4FEAE273 		asr	r3, r2, #31
 1944              		.loc 1 514 36
 1945 121e 4FF00008 		mov	r8, #0
 1946 1222 4FF00009 		mov	r9, #0
 1947 1226 9146     		mov	r9, r2
 1948 1228 4FF00008 		mov	r8, #0
 515:./Libraries/CMSIS/DSP/Source/FilteringFunctions/arm_conv_fast_q31.c ****                       ((q63_t) *px++ * (*py--))) >> 32);
 1949              		.loc 1 515 35
 1950 122c D7F87831 		ldr	r3, [r7, #376]
 1951 1230 1A1D     		adds	r2, r3, #4
 1952 1232 C7F87821 		str	r2, [r7, #376]
 1953              		.loc 1 515 32
 1954 1236 1B68     		ldr	r3, [r3]
 1955              		.loc 1 515 24
 1956 1238 1C46     		mov	r4, r3
 1957 123a 4FEAE475 		asr	r5, r4, #31
 1958              		.loc 1 515 44
 1959 123e D7F87421 		ldr	r2, [r7, #372]
 1960 1242 131F     		subs	r3, r2, #4
ARM GAS  /tmp/ccbVjeMN.s 			page 45


 1961 1244 C7F87431 		str	r3, [r7, #372]
 1962              		.loc 1 515 41
 1963 1248 1368     		ldr	r3, [r2]
 1964 124a 1A46     		mov	r2, r3
 1965 124c 4FEAE273 		asr	r3, r2, #31
 1966              		.loc 1 515 38
 1967 1250 02FB05F0 		mul	r0, r2, r5
 1968 1254 04FB03F1 		mul	r1, r4, r3
 1969 1258 0144     		add	r1, r1, r0
 1970 125a A4FB0223 		umull	r2, r3, r4, r2
 1971 125e 1944     		add	r1, r1, r3
 1972 1260 0B46     		mov	r3, r1
 514:./Libraries/CMSIS/DSP/Source/FilteringFunctions/arm_conv_fast_q31.c ****                       ((q63_t) *px++ * (*py--))) >> 32);
 1973              		.loc 1 514 43
 1974 1262 18EB0201 		adds	r1, r8, r2
 1975 1266 B961     		str	r1, [r7, #24]
 1976 1268 49EB0303 		adc	r3, r9, r3
 1977 126c FB61     		str	r3, [r7, #28]
 1978              		.loc 1 515 50
 1979 126e 4FF00002 		mov	r2, #0
 1980 1272 4FF00003 		mov	r3, #0
 1981 1276 D7E90645 		ldrd	r4, [r7, #24]
 1982 127a 2946     		mov	r1, r5
 1983 127c 0A00     		movs	r2, r1
 1984 127e 2946     		mov	r1, r5
 1985 1280 CB17     		asrs	r3, r1, #31
 514:./Libraries/CMSIS/DSP/Source/FilteringFunctions/arm_conv_fast_q31.c ****                       ((q63_t) *px++ * (*py--))) >> 32);
 1986              		.loc 1 514 11
 1987 1282 1346     		mov	r3, r2
 1988 1284 C7F86C31 		str	r3, [r7, #364]
 516:./Libraries/CMSIS/DSP/Source/FilteringFunctions/arm_conv_fast_q31.c **** 
 517:./Libraries/CMSIS/DSP/Source/FilteringFunctions/arm_conv_fast_q31.c ****       /* sum += x[srcALen - srcBLen + 3] * y[srcBLen - 3] */
 518:./Libraries/CMSIS/DSP/Source/FilteringFunctions/arm_conv_fast_q31.c ****       sum = (q31_t) ((((q63_t) sum << 32) +
 1989              		.loc 1 518 24
 1990 1288 D7F86C31 		ldr	r3, [r7, #364]
 1991 128c 1A46     		mov	r2, r3
 1992 128e 4FEAE273 		asr	r3, r2, #31
 1993              		.loc 1 518 36
 1994 1292 4FF00008 		mov	r8, #0
 1995 1296 4FF00009 		mov	r9, #0
 1996 129a 9146     		mov	r9, r2
 1997 129c 4FF00008 		mov	r8, #0
 519:./Libraries/CMSIS/DSP/Source/FilteringFunctions/arm_conv_fast_q31.c ****                       ((q63_t) *px++ * (*py--))) >> 32);
 1998              		.loc 1 519 35
 1999 12a0 D7F87831 		ldr	r3, [r7, #376]
 2000 12a4 1A1D     		adds	r2, r3, #4
 2001 12a6 C7F87821 		str	r2, [r7, #376]
 2002              		.loc 1 519 32
 2003 12aa 1B68     		ldr	r3, [r3]
 2004              		.loc 1 519 24
 2005 12ac 1C46     		mov	r4, r3
 2006 12ae 4FEAE475 		asr	r5, r4, #31
 2007              		.loc 1 519 44
 2008 12b2 D7F87421 		ldr	r2, [r7, #372]
 2009 12b6 131F     		subs	r3, r2, #4
 2010 12b8 C7F87431 		str	r3, [r7, #372]
 2011              		.loc 1 519 41
ARM GAS  /tmp/ccbVjeMN.s 			page 46


 2012 12bc 1368     		ldr	r3, [r2]
 2013 12be 1A46     		mov	r2, r3
 2014 12c0 4FEAE273 		asr	r3, r2, #31
 2015              		.loc 1 519 38
 2016 12c4 02FB05F0 		mul	r0, r2, r5
 2017 12c8 04FB03F1 		mul	r1, r4, r3
 2018 12cc 0144     		add	r1, r1, r0
 2019 12ce A4FB0223 		umull	r2, r3, r4, r2
 2020 12d2 1944     		add	r1, r1, r3
 2021 12d4 0B46     		mov	r3, r1
 518:./Libraries/CMSIS/DSP/Source/FilteringFunctions/arm_conv_fast_q31.c ****                       ((q63_t) *px++ * (*py--))) >> 32);
 2022              		.loc 1 518 43
 2023 12d6 18EB0201 		adds	r1, r8, r2
 2024 12da 3961     		str	r1, [r7, #16]
 2025 12dc 49EB0303 		adc	r3, r9, r3
 2026 12e0 7B61     		str	r3, [r7, #20]
 2027              		.loc 1 519 50
 2028 12e2 4FF00002 		mov	r2, #0
 2029 12e6 4FF00003 		mov	r3, #0
 2030 12ea D7E90445 		ldrd	r4, [r7, #16]
 2031 12ee 2946     		mov	r1, r5
 2032 12f0 0A00     		movs	r2, r1
 2033 12f2 2946     		mov	r1, r5
 2034 12f4 CB17     		asrs	r3, r1, #31
 518:./Libraries/CMSIS/DSP/Source/FilteringFunctions/arm_conv_fast_q31.c ****                       ((q63_t) *px++ * (*py--))) >> 32);
 2035              		.loc 1 518 11
 2036 12f6 1346     		mov	r3, r2
 2037 12f8 C7F86C31 		str	r3, [r7, #364]
 520:./Libraries/CMSIS/DSP/Source/FilteringFunctions/arm_conv_fast_q31.c **** 
 521:./Libraries/CMSIS/DSP/Source/FilteringFunctions/arm_conv_fast_q31.c ****       /* sum += x[srcALen - srcBLen + 4] * y[srcBLen - 4] */
 522:./Libraries/CMSIS/DSP/Source/FilteringFunctions/arm_conv_fast_q31.c ****       sum = (q31_t) ((((q63_t) sum << 32) +
 2038              		.loc 1 522 24
 2039 12fc D7F86C31 		ldr	r3, [r7, #364]
 2040 1300 1A46     		mov	r2, r3
 2041 1302 4FEAE273 		asr	r3, r2, #31
 2042              		.loc 1 522 36
 2043 1306 4FF00008 		mov	r8, #0
 2044 130a 4FF00009 		mov	r9, #0
 2045 130e 9146     		mov	r9, r2
 2046 1310 4FF00008 		mov	r8, #0
 523:./Libraries/CMSIS/DSP/Source/FilteringFunctions/arm_conv_fast_q31.c ****                       ((q63_t) *px++ * (*py--))) >> 32);
 2047              		.loc 1 523 35
 2048 1314 D7F87831 		ldr	r3, [r7, #376]
 2049 1318 1A1D     		adds	r2, r3, #4
 2050 131a C7F87821 		str	r2, [r7, #376]
 2051              		.loc 1 523 32
 2052 131e 1B68     		ldr	r3, [r3]
 2053              		.loc 1 523 24
 2054 1320 1C46     		mov	r4, r3
 2055 1322 4FEAE475 		asr	r5, r4, #31
 2056              		.loc 1 523 44
 2057 1326 D7F87421 		ldr	r2, [r7, #372]
 2058 132a 131F     		subs	r3, r2, #4
 2059 132c C7F87431 		str	r3, [r7, #372]
 2060              		.loc 1 523 41
 2061 1330 1368     		ldr	r3, [r2]
 2062 1332 1A46     		mov	r2, r3
ARM GAS  /tmp/ccbVjeMN.s 			page 47


 2063 1334 4FEAE273 		asr	r3, r2, #31
 2064              		.loc 1 523 38
 2065 1338 02FB05F0 		mul	r0, r2, r5
 2066 133c 04FB03F1 		mul	r1, r4, r3
 2067 1340 0144     		add	r1, r1, r0
 2068 1342 A4FB0223 		umull	r2, r3, r4, r2
 2069 1346 1944     		add	r1, r1, r3
 2070 1348 0B46     		mov	r3, r1
 522:./Libraries/CMSIS/DSP/Source/FilteringFunctions/arm_conv_fast_q31.c ****                       ((q63_t) *px++ * (*py--))) >> 32);
 2071              		.loc 1 522 43
 2072 134a 18EB0201 		adds	r1, r8, r2
 2073 134e B960     		str	r1, [r7, #8]
 2074 1350 49EB0303 		adc	r3, r9, r3
 2075 1354 FB60     		str	r3, [r7, #12]
 2076              		.loc 1 523 50
 2077 1356 4FF00002 		mov	r2, #0
 2078 135a 4FF00003 		mov	r3, #0
 2079 135e D7E90245 		ldrd	r4, [r7, #8]
 2080 1362 2946     		mov	r1, r5
 2081 1364 0A00     		movs	r2, r1
 2082 1366 2946     		mov	r1, r5
 2083 1368 CB17     		asrs	r3, r1, #31
 522:./Libraries/CMSIS/DSP/Source/FilteringFunctions/arm_conv_fast_q31.c ****                       ((q63_t) *px++ * (*py--))) >> 32);
 2084              		.loc 1 522 11
 2085 136a 1346     		mov	r3, r2
 2086 136c C7F86C31 		str	r3, [r7, #364]
 524:./Libraries/CMSIS/DSP/Source/FilteringFunctions/arm_conv_fast_q31.c **** 
 525:./Libraries/CMSIS/DSP/Source/FilteringFunctions/arm_conv_fast_q31.c ****       /* Decrement loop counter */
 526:./Libraries/CMSIS/DSP/Source/FilteringFunctions/arm_conv_fast_q31.c ****       k--;
 2087              		.loc 1 526 8
 2088 1370 D7F84431 		ldr	r3, [r7, #324]
 2089 1374 013B     		subs	r3, r3, #1
 2090 1376 C7F84431 		str	r3, [r7, #324]
 2091              	.L28:
 506:./Libraries/CMSIS/DSP/Source/FilteringFunctions/arm_conv_fast_q31.c ****     {
 2092              		.loc 1 506 11
 2093 137a D7F84431 		ldr	r3, [r7, #324]
 2094 137e 002B     		cmp	r3, #0
 2095 1380 7FF40EAF 		bne	.L29
 527:./Libraries/CMSIS/DSP/Source/FilteringFunctions/arm_conv_fast_q31.c ****     }
 528:./Libraries/CMSIS/DSP/Source/FilteringFunctions/arm_conv_fast_q31.c **** 
 529:./Libraries/CMSIS/DSP/Source/FilteringFunctions/arm_conv_fast_q31.c ****     /* If the blockSize3 is not a multiple of 4, compute any remaining MACs here.
 530:./Libraries/CMSIS/DSP/Source/FilteringFunctions/arm_conv_fast_q31.c ****      ** No loop unrolling is used. */
 531:./Libraries/CMSIS/DSP/Source/FilteringFunctions/arm_conv_fast_q31.c ****     k = blockSize3 % 0x4U;
 2096              		.loc 1 531 7
 2097 1384 D7F84831 		ldr	r3, [r7, #328]
 2098 1388 03F00303 		and	r3, r3, #3
 2099 138c C7F84431 		str	r3, [r7, #324]
 532:./Libraries/CMSIS/DSP/Source/FilteringFunctions/arm_conv_fast_q31.c **** 
 533:./Libraries/CMSIS/DSP/Source/FilteringFunctions/arm_conv_fast_q31.c ****     while (k > 0U)
 2100              		.loc 1 533 11
 2101 1390 3EE0     		b	.L30
 2102              	.L31:
 534:./Libraries/CMSIS/DSP/Source/FilteringFunctions/arm_conv_fast_q31.c ****     {
 535:./Libraries/CMSIS/DSP/Source/FilteringFunctions/arm_conv_fast_q31.c ****       /* Perform the multiply-accumulate */
 536:./Libraries/CMSIS/DSP/Source/FilteringFunctions/arm_conv_fast_q31.c ****       sum = (q31_t) ((((q63_t) sum << 32) +
 2103              		.loc 1 536 24
ARM GAS  /tmp/ccbVjeMN.s 			page 48


 2104 1392 D7F86C31 		ldr	r3, [r7, #364]
 2105 1396 1A46     		mov	r2, r3
 2106 1398 4FEAE273 		asr	r3, r2, #31
 2107              		.loc 1 536 36
 2108 139c 4FF00008 		mov	r8, #0
 2109 13a0 4FF00009 		mov	r9, #0
 2110 13a4 9146     		mov	r9, r2
 2111 13a6 4FF00008 		mov	r8, #0
 537:./Libraries/CMSIS/DSP/Source/FilteringFunctions/arm_conv_fast_q31.c ****                       ((q63_t) *px++ * (*py--))) >> 32);
 2112              		.loc 1 537 35
 2113 13aa D7F87831 		ldr	r3, [r7, #376]
 2114 13ae 1A1D     		adds	r2, r3, #4
 2115 13b0 C7F87821 		str	r2, [r7, #376]
 2116              		.loc 1 537 32
 2117 13b4 1B68     		ldr	r3, [r3]
 2118              		.loc 1 537 24
 2119 13b6 1C46     		mov	r4, r3
 2120 13b8 4FEAE475 		asr	r5, r4, #31
 2121              		.loc 1 537 44
 2122 13bc D7F87421 		ldr	r2, [r7, #372]
 2123 13c0 131F     		subs	r3, r2, #4
 2124 13c2 C7F87431 		str	r3, [r7, #372]
 2125              		.loc 1 537 41
 2126 13c6 1368     		ldr	r3, [r2]
 2127 13c8 1A46     		mov	r2, r3
 2128 13ca 4FEAE273 		asr	r3, r2, #31
 2129              		.loc 1 537 38
 2130 13ce 02FB05F0 		mul	r0, r2, r5
 2131 13d2 04FB03F1 		mul	r1, r4, r3
 2132 13d6 0144     		add	r1, r1, r0
 2133 13d8 A4FB0223 		umull	r2, r3, r4, r2
 2134 13dc 1944     		add	r1, r1, r3
 2135 13de 0B46     		mov	r3, r1
 536:./Libraries/CMSIS/DSP/Source/FilteringFunctions/arm_conv_fast_q31.c ****                       ((q63_t) *px++ * (*py--))) >> 32);
 2136              		.loc 1 536 43
 2137 13e0 18EB0201 		adds	r1, r8, r2
 2138 13e4 3960     		str	r1, [r7]
 2139 13e6 49EB0303 		adc	r3, r9, r3
 2140 13ea 7B60     		str	r3, [r7, #4]
 2141              		.loc 1 537 50
 2142 13ec 4FF00002 		mov	r2, #0
 2143 13f0 4FF00003 		mov	r3, #0
 2144 13f4 D7E90045 		ldrd	r4, [r7]
 2145 13f8 2946     		mov	r1, r5
 2146 13fa 0A00     		movs	r2, r1
 2147 13fc 2946     		mov	r1, r5
 2148 13fe CB17     		asrs	r3, r1, #31
 536:./Libraries/CMSIS/DSP/Source/FilteringFunctions/arm_conv_fast_q31.c ****                       ((q63_t) *px++ * (*py--))) >> 32);
 2149              		.loc 1 536 11
 2150 1400 1346     		mov	r3, r2
 2151 1402 C7F86C31 		str	r3, [r7, #364]
 538:./Libraries/CMSIS/DSP/Source/FilteringFunctions/arm_conv_fast_q31.c **** 
 539:./Libraries/CMSIS/DSP/Source/FilteringFunctions/arm_conv_fast_q31.c ****       /* Decrement loop counter */
 540:./Libraries/CMSIS/DSP/Source/FilteringFunctions/arm_conv_fast_q31.c ****       k--;
 2152              		.loc 1 540 8
 2153 1406 D7F84431 		ldr	r3, [r7, #324]
 2154 140a 013B     		subs	r3, r3, #1
ARM GAS  /tmp/ccbVjeMN.s 			page 49


 2155 140c C7F84431 		str	r3, [r7, #324]
 2156              	.L30:
 533:./Libraries/CMSIS/DSP/Source/FilteringFunctions/arm_conv_fast_q31.c ****     {
 2157              		.loc 1 533 11
 2158 1410 D7F84431 		ldr	r3, [r7, #324]
 2159 1414 002B     		cmp	r3, #0
 2160 1416 BCD1     		bne	.L31
 541:./Libraries/CMSIS/DSP/Source/FilteringFunctions/arm_conv_fast_q31.c ****     }
 542:./Libraries/CMSIS/DSP/Source/FilteringFunctions/arm_conv_fast_q31.c **** 
 543:./Libraries/CMSIS/DSP/Source/FilteringFunctions/arm_conv_fast_q31.c ****     /* Store the result in the accumulator in the destination buffer. */
 544:./Libraries/CMSIS/DSP/Source/FilteringFunctions/arm_conv_fast_q31.c ****     *pOut++ = sum << 1;
 2161              		.loc 1 544 10
 2162 1418 D7F87C31 		ldr	r3, [r7, #380]
 2163 141c 1A1D     		adds	r2, r3, #4
 2164 141e C7F87C21 		str	r2, [r7, #380]
 2165              		.loc 1 544 19
 2166 1422 D7F86C21 		ldr	r2, [r7, #364]
 2167 1426 5200     		lsls	r2, r2, #1
 2168              		.loc 1 544 13
 2169 1428 1A60     		str	r2, [r3]
 545:./Libraries/CMSIS/DSP/Source/FilteringFunctions/arm_conv_fast_q31.c **** 
 546:./Libraries/CMSIS/DSP/Source/FilteringFunctions/arm_conv_fast_q31.c ****     /* Update the inputA and inputB pointers for next MAC calculation */
 547:./Libraries/CMSIS/DSP/Source/FilteringFunctions/arm_conv_fast_q31.c ****     px = ++pSrc1;
 2170              		.loc 1 547 8
 2171 142a D7F87031 		ldr	r3, [r7, #368]
 2172 142e 0433     		adds	r3, r3, #4
 2173 1430 C7F87031 		str	r3, [r7, #368]
 2174 1434 D7F87031 		ldr	r3, [r7, #368]
 2175 1438 C7F87831 		str	r3, [r7, #376]
 548:./Libraries/CMSIS/DSP/Source/FilteringFunctions/arm_conv_fast_q31.c ****     py = pSrc2;
 2176              		.loc 1 548 8
 2177 143c D7F83031 		ldr	r3, [r7, #304]
 2178 1440 C7F87431 		str	r3, [r7, #372]
 549:./Libraries/CMSIS/DSP/Source/FilteringFunctions/arm_conv_fast_q31.c **** 
 550:./Libraries/CMSIS/DSP/Source/FilteringFunctions/arm_conv_fast_q31.c ****     /* Decrement loop counter */
 551:./Libraries/CMSIS/DSP/Source/FilteringFunctions/arm_conv_fast_q31.c ****     blockSize3--;
 2179              		.loc 1 551 15
 2180 1444 D7F84831 		ldr	r3, [r7, #328]
 2181 1448 013B     		subs	r3, r3, #1
 2182 144a C7F84831 		str	r3, [r7, #328]
 2183              	.L27:
 496:./Libraries/CMSIS/DSP/Source/FilteringFunctions/arm_conv_fast_q31.c ****   {
 2184              		.loc 1 496 9
 2185 144e D7F84831 		ldr	r3, [r7, #328]
 2186 1452 002B     		cmp	r3, #0
 2187 1454 7FF49BAE 		bne	.L32
 552:./Libraries/CMSIS/DSP/Source/FilteringFunctions/arm_conv_fast_q31.c ****   }
 553:./Libraries/CMSIS/DSP/Source/FilteringFunctions/arm_conv_fast_q31.c **** 
 554:./Libraries/CMSIS/DSP/Source/FilteringFunctions/arm_conv_fast_q31.c **** }
 2188              		.loc 1 554 1
 2189 1458 00BF     		nop
 2190 145a 00BF     		nop
 2191 145c 07F5C677 		add	r7, r7, #396
 2192              	.LCFI3:
 2193              		.cfi_def_cfa_offset 28
 2194 1460 BD46     		mov	sp, r7
 2195              	.LCFI4:
ARM GAS  /tmp/ccbVjeMN.s 			page 50


 2196              		.cfi_def_cfa_register 13
 2197              		@ sp needed
 2198 1462 BDE8B00F 		pop	{r4, r5, r7, r8, r9, r10, fp}
 2199              	.LCFI5:
 2200              		.cfi_restore 11
 2201              		.cfi_restore 10
 2202              		.cfi_restore 9
 2203              		.cfi_restore 8
 2204              		.cfi_restore 7
 2205              		.cfi_restore 5
 2206              		.cfi_restore 4
 2207              		.cfi_def_cfa_offset 0
 2208 1466 7047     		bx	lr
 2209              		.cfi_endproc
 2210              	.LFE145:
 2212              		.text
 2213              	.Letext0:
 2214              		.file 2 "/usr/lib/gcc/arm-none-eabi/9.2.1/include/stdint.h"
 2215              		.file 3 "/usr/lib/gcc/arm-none-eabi/9.2.1/include/stddef.h"
 2216              		.file 4 "/usr/include/newlib/sys/_types.h"
 2217              		.file 5 "/usr/include/newlib/sys/reent.h"
 2218              		.file 6 "/usr/include/newlib/sys/lock.h"
 2219              		.file 7 "/usr/include/newlib/math.h"
 2220              		.file 8 "./Libraries/CMSIS/DSP/Include/arm_math.h"
ARM GAS  /tmp/ccbVjeMN.s 			page 51

