ARM GAS  /tmp/ccjRrBV8.s 			page 1


   1              		.cpu cortex-m7
   2              		.eabi_attribute 28, 1
   3              		.eabi_attribute 20, 1
   4              		.eabi_attribute 21, 1
   5              		.eabi_attribute 23, 3
   6              		.eabi_attribute 24, 1
   7              		.eabi_attribute 25, 1
   8              		.eabi_attribute 26, 1
   9              		.eabi_attribute 30, 6
  10              		.eabi_attribute 34, 1
  11              		.eabi_attribute 18, 4
  12              		.file	"arm_biquad_cascade_df1_fast_q31.c"
  13              		.text
  14              	.Ltext0:
  15              		.cfi_sections	.debug_frame
  16              		.section	.text.arm_biquad_cascade_df1_fast_q31,"ax",%progbits
  17              		.align	1
  18              		.global	arm_biquad_cascade_df1_fast_q31
  19              		.arch armv7e-m
  20              		.syntax unified
  21              		.thumb
  22              		.thumb_func
  23              		.fpu fpv5-d16
  25              	arm_biquad_cascade_df1_fast_q31:
  26              	.LFB145:
  27              		.file 1 "./Libraries/CMSIS/DSP/Source/FilteringFunctions/arm_biquad_cascade_df1_fast_q31.c"
   1:./Libraries/CMSIS/DSP/Source/FilteringFunctions/arm_biquad_cascade_df1_fast_q31.c **** /* ----------------------------------------------------------------------
   2:./Libraries/CMSIS/DSP/Source/FilteringFunctions/arm_biquad_cascade_df1_fast_q31.c ****  * Project:      CMSIS DSP Library
   3:./Libraries/CMSIS/DSP/Source/FilteringFunctions/arm_biquad_cascade_df1_fast_q31.c ****  * Title:        arm_biquad_cascade_df1_fast_q31.c
   4:./Libraries/CMSIS/DSP/Source/FilteringFunctions/arm_biquad_cascade_df1_fast_q31.c ****  * Description:  Processing function for the Q31 Fast Biquad cascade DirectFormI(DF1) filter
   5:./Libraries/CMSIS/DSP/Source/FilteringFunctions/arm_biquad_cascade_df1_fast_q31.c ****  *
   6:./Libraries/CMSIS/DSP/Source/FilteringFunctions/arm_biquad_cascade_df1_fast_q31.c ****  * $Date:        18. March 2019
   7:./Libraries/CMSIS/DSP/Source/FilteringFunctions/arm_biquad_cascade_df1_fast_q31.c ****  * $Revision:    V1.6.0
   8:./Libraries/CMSIS/DSP/Source/FilteringFunctions/arm_biquad_cascade_df1_fast_q31.c ****  *
   9:./Libraries/CMSIS/DSP/Source/FilteringFunctions/arm_biquad_cascade_df1_fast_q31.c ****  * Target Processor: Cortex-M cores
  10:./Libraries/CMSIS/DSP/Source/FilteringFunctions/arm_biquad_cascade_df1_fast_q31.c ****  * -------------------------------------------------------------------- */
  11:./Libraries/CMSIS/DSP/Source/FilteringFunctions/arm_biquad_cascade_df1_fast_q31.c **** /*
  12:./Libraries/CMSIS/DSP/Source/FilteringFunctions/arm_biquad_cascade_df1_fast_q31.c ****  * Copyright (C) 2010-2019 ARM Limited or its affiliates. All rights reserved.
  13:./Libraries/CMSIS/DSP/Source/FilteringFunctions/arm_biquad_cascade_df1_fast_q31.c ****  *
  14:./Libraries/CMSIS/DSP/Source/FilteringFunctions/arm_biquad_cascade_df1_fast_q31.c ****  * SPDX-License-Identifier: Apache-2.0
  15:./Libraries/CMSIS/DSP/Source/FilteringFunctions/arm_biquad_cascade_df1_fast_q31.c ****  *
  16:./Libraries/CMSIS/DSP/Source/FilteringFunctions/arm_biquad_cascade_df1_fast_q31.c ****  * Licensed under the Apache License, Version 2.0 (the License); you may
  17:./Libraries/CMSIS/DSP/Source/FilteringFunctions/arm_biquad_cascade_df1_fast_q31.c ****  * not use this file except in compliance with the License.
  18:./Libraries/CMSIS/DSP/Source/FilteringFunctions/arm_biquad_cascade_df1_fast_q31.c ****  * You may obtain a copy of the License at
  19:./Libraries/CMSIS/DSP/Source/FilteringFunctions/arm_biquad_cascade_df1_fast_q31.c ****  *
  20:./Libraries/CMSIS/DSP/Source/FilteringFunctions/arm_biquad_cascade_df1_fast_q31.c ****  * www.apache.org/licenses/LICENSE-2.0
  21:./Libraries/CMSIS/DSP/Source/FilteringFunctions/arm_biquad_cascade_df1_fast_q31.c ****  *
  22:./Libraries/CMSIS/DSP/Source/FilteringFunctions/arm_biquad_cascade_df1_fast_q31.c ****  * Unless required by applicable law or agreed to in writing, software
  23:./Libraries/CMSIS/DSP/Source/FilteringFunctions/arm_biquad_cascade_df1_fast_q31.c ****  * distributed under the License is distributed on an AS IS BASIS, WITHOUT
  24:./Libraries/CMSIS/DSP/Source/FilteringFunctions/arm_biquad_cascade_df1_fast_q31.c ****  * WARRANTIES OR CONDITIONS OF ANY KIND, either express or implied.
  25:./Libraries/CMSIS/DSP/Source/FilteringFunctions/arm_biquad_cascade_df1_fast_q31.c ****  * See the License for the specific language governing permissions and
  26:./Libraries/CMSIS/DSP/Source/FilteringFunctions/arm_biquad_cascade_df1_fast_q31.c ****  * limitations under the License.
  27:./Libraries/CMSIS/DSP/Source/FilteringFunctions/arm_biquad_cascade_df1_fast_q31.c ****  */
  28:./Libraries/CMSIS/DSP/Source/FilteringFunctions/arm_biquad_cascade_df1_fast_q31.c **** 
  29:./Libraries/CMSIS/DSP/Source/FilteringFunctions/arm_biquad_cascade_df1_fast_q31.c **** #include "arm_math.h"
  30:./Libraries/CMSIS/DSP/Source/FilteringFunctions/arm_biquad_cascade_df1_fast_q31.c **** 
  31:./Libraries/CMSIS/DSP/Source/FilteringFunctions/arm_biquad_cascade_df1_fast_q31.c **** /**
ARM GAS  /tmp/ccjRrBV8.s 			page 2


  32:./Libraries/CMSIS/DSP/Source/FilteringFunctions/arm_biquad_cascade_df1_fast_q31.c ****   @ingroup groupFilters
  33:./Libraries/CMSIS/DSP/Source/FilteringFunctions/arm_biquad_cascade_df1_fast_q31.c ****  */
  34:./Libraries/CMSIS/DSP/Source/FilteringFunctions/arm_biquad_cascade_df1_fast_q31.c **** 
  35:./Libraries/CMSIS/DSP/Source/FilteringFunctions/arm_biquad_cascade_df1_fast_q31.c **** /**
  36:./Libraries/CMSIS/DSP/Source/FilteringFunctions/arm_biquad_cascade_df1_fast_q31.c ****   @addtogroup BiquadCascadeDF1
  37:./Libraries/CMSIS/DSP/Source/FilteringFunctions/arm_biquad_cascade_df1_fast_q31.c ****   @{
  38:./Libraries/CMSIS/DSP/Source/FilteringFunctions/arm_biquad_cascade_df1_fast_q31.c ****  */
  39:./Libraries/CMSIS/DSP/Source/FilteringFunctions/arm_biquad_cascade_df1_fast_q31.c **** 
  40:./Libraries/CMSIS/DSP/Source/FilteringFunctions/arm_biquad_cascade_df1_fast_q31.c **** /**
  41:./Libraries/CMSIS/DSP/Source/FilteringFunctions/arm_biquad_cascade_df1_fast_q31.c ****   @brief         Processing function for the Q31 Biquad cascade filter (fast variant).
  42:./Libraries/CMSIS/DSP/Source/FilteringFunctions/arm_biquad_cascade_df1_fast_q31.c ****   @param[in]     S         points to an instance of the Q31 Biquad cascade structure
  43:./Libraries/CMSIS/DSP/Source/FilteringFunctions/arm_biquad_cascade_df1_fast_q31.c ****   @param[in]     pSrc      points to the block of input data
  44:./Libraries/CMSIS/DSP/Source/FilteringFunctions/arm_biquad_cascade_df1_fast_q31.c ****   @param[out]    pDst      points to the block of output data
  45:./Libraries/CMSIS/DSP/Source/FilteringFunctions/arm_biquad_cascade_df1_fast_q31.c ****   @param[in]     blockSize number of samples to process per call
  46:./Libraries/CMSIS/DSP/Source/FilteringFunctions/arm_biquad_cascade_df1_fast_q31.c ****   @return        none
  47:./Libraries/CMSIS/DSP/Source/FilteringFunctions/arm_biquad_cascade_df1_fast_q31.c **** 
  48:./Libraries/CMSIS/DSP/Source/FilteringFunctions/arm_biquad_cascade_df1_fast_q31.c ****   @par           Scaling and Overflow Behavior
  49:./Libraries/CMSIS/DSP/Source/FilteringFunctions/arm_biquad_cascade_df1_fast_q31.c ****                    This function is optimized for speed at the expense of fixed-point precision and
  50:./Libraries/CMSIS/DSP/Source/FilteringFunctions/arm_biquad_cascade_df1_fast_q31.c ****                    The result of each 1.31 x 1.31 multiplication is truncated to 2.30 format.
  51:./Libraries/CMSIS/DSP/Source/FilteringFunctions/arm_biquad_cascade_df1_fast_q31.c ****                    These intermediate results are added to a 2.30 accumulator.
  52:./Libraries/CMSIS/DSP/Source/FilteringFunctions/arm_biquad_cascade_df1_fast_q31.c ****                    Finally, the accumulator is saturated and converted to a 1.31 result.
  53:./Libraries/CMSIS/DSP/Source/FilteringFunctions/arm_biquad_cascade_df1_fast_q31.c ****                    The fast version has the same overflow behavior as the standard version and prov
  54:./Libraries/CMSIS/DSP/Source/FilteringFunctions/arm_biquad_cascade_df1_fast_q31.c ****                    In order to avoid overflows completely the input signal must be scaled down by t
  55:./Libraries/CMSIS/DSP/Source/FilteringFunctions/arm_biquad_cascade_df1_fast_q31.c ****                    arm_biquad_cascade_df1_init_q31() to initialize filter structure.
  56:./Libraries/CMSIS/DSP/Source/FilteringFunctions/arm_biquad_cascade_df1_fast_q31.c ****   @remark
  57:./Libraries/CMSIS/DSP/Source/FilteringFunctions/arm_biquad_cascade_df1_fast_q31.c ****                    Refer to \ref arm_biquad_cascade_df1_q31() for a slower implementation of this f
  58:./Libraries/CMSIS/DSP/Source/FilteringFunctions/arm_biquad_cascade_df1_fast_q31.c ****                    which uses 64-bit accumulation to provide higher precision. Both the slow and th
  59:./Libraries/CMSIS/DSP/Source/FilteringFunctions/arm_biquad_cascade_df1_fast_q31.c ****                    Use the function \ref arm_biquad_cascade_df1_init_q31() to initialize the filter
  60:./Libraries/CMSIS/DSP/Source/FilteringFunctions/arm_biquad_cascade_df1_fast_q31.c ****  */
  61:./Libraries/CMSIS/DSP/Source/FilteringFunctions/arm_biquad_cascade_df1_fast_q31.c **** 
  62:./Libraries/CMSIS/DSP/Source/FilteringFunctions/arm_biquad_cascade_df1_fast_q31.c **** void arm_biquad_cascade_df1_fast_q31(
  63:./Libraries/CMSIS/DSP/Source/FilteringFunctions/arm_biquad_cascade_df1_fast_q31.c ****   const arm_biquad_casd_df1_inst_q31 * S,
  64:./Libraries/CMSIS/DSP/Source/FilteringFunctions/arm_biquad_cascade_df1_fast_q31.c ****   const q31_t * pSrc,
  65:./Libraries/CMSIS/DSP/Source/FilteringFunctions/arm_biquad_cascade_df1_fast_q31.c ****         q31_t * pDst,
  66:./Libraries/CMSIS/DSP/Source/FilteringFunctions/arm_biquad_cascade_df1_fast_q31.c ****         uint32_t blockSize)
  67:./Libraries/CMSIS/DSP/Source/FilteringFunctions/arm_biquad_cascade_df1_fast_q31.c **** {
  28              		.loc 1 67 1
  29              		.cfi_startproc
  30              		@ args = 0, pretend = 0, frame = 152
  31              		@ frame_needed = 1, uses_anonymous_args = 0
  32              		@ link register save eliminated.
  33 0000 2DE9B00F 		push	{r4, r5, r7, r8, r9, r10, fp}
  34              	.LCFI0:
  35              		.cfi_def_cfa_offset 28
  36              		.cfi_offset 4, -28
  37              		.cfi_offset 5, -24
  38              		.cfi_offset 7, -20
  39              		.cfi_offset 8, -16
  40              		.cfi_offset 9, -12
  41              		.cfi_offset 10, -8
  42              		.cfi_offset 11, -4
  43 0004 A7B0     		sub	sp, sp, #156
  44              	.LCFI1:
  45              		.cfi_def_cfa_offset 184
  46 0006 00AF     		add	r7, sp, #0
  47              	.LCFI2:
  48              		.cfi_def_cfa_register 7
ARM GAS  /tmp/ccjRrBV8.s 			page 3


  49 0008 F864     		str	r0, [r7, #76]
  50 000a B964     		str	r1, [r7, #72]
  51 000c 7A64     		str	r2, [r7, #68]
  52 000e 3B64     		str	r3, [r7, #64]
  68:./Libraries/CMSIS/DSP/Source/FilteringFunctions/arm_biquad_cascade_df1_fast_q31.c ****   const q31_t *pIn = pSrc;                             /* Source pointer */
  53              		.loc 1 68 16
  54 0010 BB6C     		ldr	r3, [r7, #72]
  55 0012 C7F89430 		str	r3, [r7, #148]
  69:./Libraries/CMSIS/DSP/Source/FilteringFunctions/arm_biquad_cascade_df1_fast_q31.c ****         q31_t *pOut = pDst;                            /* Destination pointer */
  56              		.loc 1 69 16
  57 0016 7B6C     		ldr	r3, [r7, #68]
  58 0018 C7F89030 		str	r3, [r7, #144]
  70:./Libraries/CMSIS/DSP/Source/FilteringFunctions/arm_biquad_cascade_df1_fast_q31.c ****         q31_t *pState = S->pState;                     /* pState pointer */
  59              		.loc 1 70 16
  60 001c FB6C     		ldr	r3, [r7, #76]
  61 001e 5B68     		ldr	r3, [r3, #4]
  62 0020 C7F88C30 		str	r3, [r7, #140]
  71:./Libraries/CMSIS/DSP/Source/FilteringFunctions/arm_biquad_cascade_df1_fast_q31.c ****   const q31_t *pCoeffs = S->pCoeffs;                   /* Coefficient pointer */
  63              		.loc 1 71 16
  64 0024 FB6C     		ldr	r3, [r7, #76]
  65 0026 9B68     		ldr	r3, [r3, #8]
  66 0028 C7F88830 		str	r3, [r7, #136]
  72:./Libraries/CMSIS/DSP/Source/FilteringFunctions/arm_biquad_cascade_df1_fast_q31.c ****         q31_t acc = 0;                                 /* Accumulator */
  67              		.loc 1 72 15
  68 002c 0023     		movs	r3, #0
  69 002e FB66     		str	r3, [r7, #108]
  73:./Libraries/CMSIS/DSP/Source/FilteringFunctions/arm_biquad_cascade_df1_fast_q31.c ****         q31_t b0, b1, b2, a1, a2;                      /* Filter coefficients */
  74:./Libraries/CMSIS/DSP/Source/FilteringFunctions/arm_biquad_cascade_df1_fast_q31.c ****         q31_t Xn1, Xn2, Yn1, Yn2;                      /* Filter pState variables */
  75:./Libraries/CMSIS/DSP/Source/FilteringFunctions/arm_biquad_cascade_df1_fast_q31.c ****         q31_t Xn;                                      /* Temporary input */
  76:./Libraries/CMSIS/DSP/Source/FilteringFunctions/arm_biquad_cascade_df1_fast_q31.c ****         int32_t shift = (int32_t) S->postShift + 1;    /* Shift to be applied to the output */
  70              		.loc 1 76 36
  71 0030 FB6C     		ldr	r3, [r7, #76]
  72 0032 1B7B     		ldrb	r3, [r3, #12]	@ zero_extendqisi2
  73              		.loc 1 76 17
  74 0034 0133     		adds	r3, r3, #1
  75 0036 BB66     		str	r3, [r7, #104]
  77:./Libraries/CMSIS/DSP/Source/FilteringFunctions/arm_biquad_cascade_df1_fast_q31.c ****         uint32_t sample, stage = S->numStages;         /* Loop counters */
  76              		.loc 1 77 26
  77 0038 FB6C     		ldr	r3, [r7, #76]
  78 003a 1B68     		ldr	r3, [r3]
  79 003c 3B67     		str	r3, [r7, #112]
  80              	.L4:
  78:./Libraries/CMSIS/DSP/Source/FilteringFunctions/arm_biquad_cascade_df1_fast_q31.c **** 
  79:./Libraries/CMSIS/DSP/Source/FilteringFunctions/arm_biquad_cascade_df1_fast_q31.c ****   do
  80:./Libraries/CMSIS/DSP/Source/FilteringFunctions/arm_biquad_cascade_df1_fast_q31.c ****   {
  81:./Libraries/CMSIS/DSP/Source/FilteringFunctions/arm_biquad_cascade_df1_fast_q31.c ****     /* Reading the coefficients */
  82:./Libraries/CMSIS/DSP/Source/FilteringFunctions/arm_biquad_cascade_df1_fast_q31.c ****     b0 = *pCoeffs++;
  81              		.loc 1 82 18
  82 003e D7F88820 		ldr	r2, [r7, #136]
  83 0042 131D     		adds	r3, r2, #4
  84 0044 C7F88830 		str	r3, [r7, #136]
  85              		.loc 1 82 8
  86 0048 1368     		ldr	r3, [r2]
  87 004a 7B66     		str	r3, [r7, #100]
  83:./Libraries/CMSIS/DSP/Source/FilteringFunctions/arm_biquad_cascade_df1_fast_q31.c ****     b1 = *pCoeffs++;
  88              		.loc 1 83 18
  89 004c D7F88820 		ldr	r2, [r7, #136]
ARM GAS  /tmp/ccjRrBV8.s 			page 4


  90 0050 131D     		adds	r3, r2, #4
  91 0052 C7F88830 		str	r3, [r7, #136]
  92              		.loc 1 83 8
  93 0056 1368     		ldr	r3, [r2]
  94 0058 3B66     		str	r3, [r7, #96]
  84:./Libraries/CMSIS/DSP/Source/FilteringFunctions/arm_biquad_cascade_df1_fast_q31.c ****     b2 = *pCoeffs++;
  95              		.loc 1 84 18
  96 005a D7F88820 		ldr	r2, [r7, #136]
  97 005e 131D     		adds	r3, r2, #4
  98 0060 C7F88830 		str	r3, [r7, #136]
  99              		.loc 1 84 8
 100 0064 1368     		ldr	r3, [r2]
 101 0066 FB65     		str	r3, [r7, #92]
  85:./Libraries/CMSIS/DSP/Source/FilteringFunctions/arm_biquad_cascade_df1_fast_q31.c ****     a1 = *pCoeffs++;
 102              		.loc 1 85 18
 103 0068 D7F88820 		ldr	r2, [r7, #136]
 104 006c 131D     		adds	r3, r2, #4
 105 006e C7F88830 		str	r3, [r7, #136]
 106              		.loc 1 85 8
 107 0072 1368     		ldr	r3, [r2]
 108 0074 BB65     		str	r3, [r7, #88]
  86:./Libraries/CMSIS/DSP/Source/FilteringFunctions/arm_biquad_cascade_df1_fast_q31.c ****     a2 = *pCoeffs++;
 109              		.loc 1 86 18
 110 0076 D7F88820 		ldr	r2, [r7, #136]
 111 007a 131D     		adds	r3, r2, #4
 112 007c C7F88830 		str	r3, [r7, #136]
 113              		.loc 1 86 8
 114 0080 1368     		ldr	r3, [r2]
 115 0082 7B65     		str	r3, [r7, #84]
  87:./Libraries/CMSIS/DSP/Source/FilteringFunctions/arm_biquad_cascade_df1_fast_q31.c **** 
  88:./Libraries/CMSIS/DSP/Source/FilteringFunctions/arm_biquad_cascade_df1_fast_q31.c ****     /* Reading the pState values */
  89:./Libraries/CMSIS/DSP/Source/FilteringFunctions/arm_biquad_cascade_df1_fast_q31.c ****     Xn1 = pState[0];
 116              		.loc 1 89 9
 117 0084 D7F88C30 		ldr	r3, [r7, #140]
 118 0088 1B68     		ldr	r3, [r3]
 119 008a C7F88430 		str	r3, [r7, #132]
  90:./Libraries/CMSIS/DSP/Source/FilteringFunctions/arm_biquad_cascade_df1_fast_q31.c ****     Xn2 = pState[1];
 120              		.loc 1 90 9
 121 008e D7F88C30 		ldr	r3, [r7, #140]
 122 0092 5B68     		ldr	r3, [r3, #4]
 123 0094 C7F88030 		str	r3, [r7, #128]
  91:./Libraries/CMSIS/DSP/Source/FilteringFunctions/arm_biquad_cascade_df1_fast_q31.c ****     Yn1 = pState[2];
 124              		.loc 1 91 9
 125 0098 D7F88C30 		ldr	r3, [r7, #140]
 126 009c 9B68     		ldr	r3, [r3, #8]
 127 009e FB67     		str	r3, [r7, #124]
  92:./Libraries/CMSIS/DSP/Source/FilteringFunctions/arm_biquad_cascade_df1_fast_q31.c ****     Yn2 = pState[3];
 128              		.loc 1 92 9
 129 00a0 D7F88C30 		ldr	r3, [r7, #140]
 130 00a4 DB68     		ldr	r3, [r3, #12]
 131 00a6 BB67     		str	r3, [r7, #120]
  93:./Libraries/CMSIS/DSP/Source/FilteringFunctions/arm_biquad_cascade_df1_fast_q31.c **** 
  94:./Libraries/CMSIS/DSP/Source/FilteringFunctions/arm_biquad_cascade_df1_fast_q31.c **** #if defined (ARM_MATH_LOOPUNROLL)
  95:./Libraries/CMSIS/DSP/Source/FilteringFunctions/arm_biquad_cascade_df1_fast_q31.c **** 
  96:./Libraries/CMSIS/DSP/Source/FilteringFunctions/arm_biquad_cascade_df1_fast_q31.c ****     /* Apply loop unrolling and compute 4 output values simultaneously. */
  97:./Libraries/CMSIS/DSP/Source/FilteringFunctions/arm_biquad_cascade_df1_fast_q31.c ****     /* Variables acc ... acc3 hold output values that are being computed:
  98:./Libraries/CMSIS/DSP/Source/FilteringFunctions/arm_biquad_cascade_df1_fast_q31.c ****      *
ARM GAS  /tmp/ccjRrBV8.s 			page 5


  99:./Libraries/CMSIS/DSP/Source/FilteringFunctions/arm_biquad_cascade_df1_fast_q31.c ****      * acc =  b0 * x[n] + b1 * x[n-1] + b2 * x[n-2] + a1 * y[n-1] + a2 * y[n-2]
 100:./Libraries/CMSIS/DSP/Source/FilteringFunctions/arm_biquad_cascade_df1_fast_q31.c ****      */
 101:./Libraries/CMSIS/DSP/Source/FilteringFunctions/arm_biquad_cascade_df1_fast_q31.c **** 
 102:./Libraries/CMSIS/DSP/Source/FilteringFunctions/arm_biquad_cascade_df1_fast_q31.c ****     /* Loop unrolling: Compute 4 outputs at a time */
 103:./Libraries/CMSIS/DSP/Source/FilteringFunctions/arm_biquad_cascade_df1_fast_q31.c ****     sample = blockSize >> 2U;
 104:./Libraries/CMSIS/DSP/Source/FilteringFunctions/arm_biquad_cascade_df1_fast_q31.c **** 
 105:./Libraries/CMSIS/DSP/Source/FilteringFunctions/arm_biquad_cascade_df1_fast_q31.c ****     while (sample > 0U)
 106:./Libraries/CMSIS/DSP/Source/FilteringFunctions/arm_biquad_cascade_df1_fast_q31.c ****     {
 107:./Libraries/CMSIS/DSP/Source/FilteringFunctions/arm_biquad_cascade_df1_fast_q31.c ****       /* Read the input */
 108:./Libraries/CMSIS/DSP/Source/FilteringFunctions/arm_biquad_cascade_df1_fast_q31.c ****       Xn = *pIn;
 109:./Libraries/CMSIS/DSP/Source/FilteringFunctions/arm_biquad_cascade_df1_fast_q31.c **** 
 110:./Libraries/CMSIS/DSP/Source/FilteringFunctions/arm_biquad_cascade_df1_fast_q31.c ****       /* acc =  b0 * x[n] + b1 * x[n-1] + b2 * x[n-2] + a1 * y[n-1] + a2 * y[n-2] */
 111:./Libraries/CMSIS/DSP/Source/FilteringFunctions/arm_biquad_cascade_df1_fast_q31.c ****       /* acc =  b0 * x[n] */
 112:./Libraries/CMSIS/DSP/Source/FilteringFunctions/arm_biquad_cascade_df1_fast_q31.c ****       /* acc = (q31_t) (((q63_t) b1 * Xn1) >> 32);*/
 113:./Libraries/CMSIS/DSP/Source/FilteringFunctions/arm_biquad_cascade_df1_fast_q31.c ****       mult_32x32_keep32_R(acc, b1, Xn1);
 114:./Libraries/CMSIS/DSP/Source/FilteringFunctions/arm_biquad_cascade_df1_fast_q31.c ****       /* acc +=  b1 * x[n-1] */
 115:./Libraries/CMSIS/DSP/Source/FilteringFunctions/arm_biquad_cascade_df1_fast_q31.c ****       /* acc = (q31_t) ((((q63_t) acc << 32) + ((q63_t) b0 * (Xn))) >> 32);*/
 116:./Libraries/CMSIS/DSP/Source/FilteringFunctions/arm_biquad_cascade_df1_fast_q31.c ****       multAcc_32x32_keep32_R(acc, b0, Xn);
 117:./Libraries/CMSIS/DSP/Source/FilteringFunctions/arm_biquad_cascade_df1_fast_q31.c ****       /* acc +=  b[2] * x[n-2] */
 118:./Libraries/CMSIS/DSP/Source/FilteringFunctions/arm_biquad_cascade_df1_fast_q31.c ****       /* acc = (q31_t) ((((q63_t) acc << 32) + ((q63_t) b2 * (Xn2))) >> 32);*/
 119:./Libraries/CMSIS/DSP/Source/FilteringFunctions/arm_biquad_cascade_df1_fast_q31.c ****       multAcc_32x32_keep32_R(acc, b2, Xn2);
 120:./Libraries/CMSIS/DSP/Source/FilteringFunctions/arm_biquad_cascade_df1_fast_q31.c ****       /* acc +=  a1 * y[n-1] */
 121:./Libraries/CMSIS/DSP/Source/FilteringFunctions/arm_biquad_cascade_df1_fast_q31.c ****       /* acc = (q31_t) ((((q63_t) acc << 32) + ((q63_t) a1 * (Yn1))) >> 32);*/
 122:./Libraries/CMSIS/DSP/Source/FilteringFunctions/arm_biquad_cascade_df1_fast_q31.c ****       multAcc_32x32_keep32_R(acc, a1, Yn1);
 123:./Libraries/CMSIS/DSP/Source/FilteringFunctions/arm_biquad_cascade_df1_fast_q31.c ****       /* acc +=  a2 * y[n-2] */
 124:./Libraries/CMSIS/DSP/Source/FilteringFunctions/arm_biquad_cascade_df1_fast_q31.c ****       /* acc = (q31_t) ((((q63_t) acc << 32) + ((q63_t) a2 * (Yn2))) >> 32);*/
 125:./Libraries/CMSIS/DSP/Source/FilteringFunctions/arm_biquad_cascade_df1_fast_q31.c ****       multAcc_32x32_keep32_R(acc, a2, Yn2);
 126:./Libraries/CMSIS/DSP/Source/FilteringFunctions/arm_biquad_cascade_df1_fast_q31.c **** 
 127:./Libraries/CMSIS/DSP/Source/FilteringFunctions/arm_biquad_cascade_df1_fast_q31.c ****       /* The result is converted to 1.31 , Yn2 variable is reused */
 128:./Libraries/CMSIS/DSP/Source/FilteringFunctions/arm_biquad_cascade_df1_fast_q31.c ****       Yn2 = acc << shift;
 129:./Libraries/CMSIS/DSP/Source/FilteringFunctions/arm_biquad_cascade_df1_fast_q31.c **** 
 130:./Libraries/CMSIS/DSP/Source/FilteringFunctions/arm_biquad_cascade_df1_fast_q31.c ****       /* Read the second input */
 131:./Libraries/CMSIS/DSP/Source/FilteringFunctions/arm_biquad_cascade_df1_fast_q31.c ****       Xn2 = *(pIn + 1U);
 132:./Libraries/CMSIS/DSP/Source/FilteringFunctions/arm_biquad_cascade_df1_fast_q31.c **** 
 133:./Libraries/CMSIS/DSP/Source/FilteringFunctions/arm_biquad_cascade_df1_fast_q31.c ****       /* Store the output in the destination buffer. */
 134:./Libraries/CMSIS/DSP/Source/FilteringFunctions/arm_biquad_cascade_df1_fast_q31.c ****       *pOut = Yn2;
 135:./Libraries/CMSIS/DSP/Source/FilteringFunctions/arm_biquad_cascade_df1_fast_q31.c **** 
 136:./Libraries/CMSIS/DSP/Source/FilteringFunctions/arm_biquad_cascade_df1_fast_q31.c ****       /* acc =  b0 * x[n] + b1 * x[n-1] + b2 * x[n-2] + a1 * y[n-1] + a2 * y[n-2] */
 137:./Libraries/CMSIS/DSP/Source/FilteringFunctions/arm_biquad_cascade_df1_fast_q31.c ****       /* acc =  b0 * x[n] */
 138:./Libraries/CMSIS/DSP/Source/FilteringFunctions/arm_biquad_cascade_df1_fast_q31.c ****       /* acc = (q31_t) (((q63_t) b0 * (Xn2)) >> 32);*/
 139:./Libraries/CMSIS/DSP/Source/FilteringFunctions/arm_biquad_cascade_df1_fast_q31.c ****       mult_32x32_keep32_R(acc, b0, Xn2);
 140:./Libraries/CMSIS/DSP/Source/FilteringFunctions/arm_biquad_cascade_df1_fast_q31.c ****       /* acc +=  b1 * x[n-1] */
 141:./Libraries/CMSIS/DSP/Source/FilteringFunctions/arm_biquad_cascade_df1_fast_q31.c ****       /* acc = (q31_t) ((((q63_t) acc << 32) + ((q63_t) b1 * (Xn))) >> 32);*/
 142:./Libraries/CMSIS/DSP/Source/FilteringFunctions/arm_biquad_cascade_df1_fast_q31.c ****       multAcc_32x32_keep32_R(acc, b1, Xn);
 143:./Libraries/CMSIS/DSP/Source/FilteringFunctions/arm_biquad_cascade_df1_fast_q31.c ****       /* acc +=  b[2] * x[n-2] */
 144:./Libraries/CMSIS/DSP/Source/FilteringFunctions/arm_biquad_cascade_df1_fast_q31.c ****       /* acc = (q31_t) ((((q63_t) acc << 32) + ((q63_t) b2 * (Xn1))) >> 32);*/
 145:./Libraries/CMSIS/DSP/Source/FilteringFunctions/arm_biquad_cascade_df1_fast_q31.c ****       multAcc_32x32_keep32_R(acc, b2, Xn1);
 146:./Libraries/CMSIS/DSP/Source/FilteringFunctions/arm_biquad_cascade_df1_fast_q31.c ****       /* acc +=  a1 * y[n-1] */
 147:./Libraries/CMSIS/DSP/Source/FilteringFunctions/arm_biquad_cascade_df1_fast_q31.c ****       /* acc = (q31_t) ((((q63_t) acc << 32) + ((q63_t) a1 * (Yn2))) >> 32);*/
 148:./Libraries/CMSIS/DSP/Source/FilteringFunctions/arm_biquad_cascade_df1_fast_q31.c ****       multAcc_32x32_keep32_R(acc, a1, Yn2);
 149:./Libraries/CMSIS/DSP/Source/FilteringFunctions/arm_biquad_cascade_df1_fast_q31.c ****       /* acc +=  a2 * y[n-2] */
 150:./Libraries/CMSIS/DSP/Source/FilteringFunctions/arm_biquad_cascade_df1_fast_q31.c ****       /* acc = (q31_t) ((((q63_t) acc << 32) + ((q63_t) a2 * (Yn1))) >> 32);*/
 151:./Libraries/CMSIS/DSP/Source/FilteringFunctions/arm_biquad_cascade_df1_fast_q31.c ****       multAcc_32x32_keep32_R(acc, a2, Yn1);
 152:./Libraries/CMSIS/DSP/Source/FilteringFunctions/arm_biquad_cascade_df1_fast_q31.c **** 
 153:./Libraries/CMSIS/DSP/Source/FilteringFunctions/arm_biquad_cascade_df1_fast_q31.c ****       /* The result is converted to 1.31, Yn1 variable is reused  */
 154:./Libraries/CMSIS/DSP/Source/FilteringFunctions/arm_biquad_cascade_df1_fast_q31.c ****       Yn1 = acc << shift;
 155:./Libraries/CMSIS/DSP/Source/FilteringFunctions/arm_biquad_cascade_df1_fast_q31.c **** 
ARM GAS  /tmp/ccjRrBV8.s 			page 6


 156:./Libraries/CMSIS/DSP/Source/FilteringFunctions/arm_biquad_cascade_df1_fast_q31.c ****       /* Read the third input  */
 157:./Libraries/CMSIS/DSP/Source/FilteringFunctions/arm_biquad_cascade_df1_fast_q31.c ****       Xn1 = *(pIn + 2U);
 158:./Libraries/CMSIS/DSP/Source/FilteringFunctions/arm_biquad_cascade_df1_fast_q31.c **** 
 159:./Libraries/CMSIS/DSP/Source/FilteringFunctions/arm_biquad_cascade_df1_fast_q31.c ****       /* Store the output in the destination buffer. */
 160:./Libraries/CMSIS/DSP/Source/FilteringFunctions/arm_biquad_cascade_df1_fast_q31.c ****       *(pOut + 1U) = Yn1;
 161:./Libraries/CMSIS/DSP/Source/FilteringFunctions/arm_biquad_cascade_df1_fast_q31.c **** 
 162:./Libraries/CMSIS/DSP/Source/FilteringFunctions/arm_biquad_cascade_df1_fast_q31.c ****       /* acc =  b0 * x[n] + b1 * x[n-1] + b2 * x[n-2] + a1 * y[n-1] + a2 * y[n-2] */
 163:./Libraries/CMSIS/DSP/Source/FilteringFunctions/arm_biquad_cascade_df1_fast_q31.c ****       /* acc =  b0 * x[n] */
 164:./Libraries/CMSIS/DSP/Source/FilteringFunctions/arm_biquad_cascade_df1_fast_q31.c ****       /* acc = (q31_t) (((q63_t) b0 * (Xn1)) >> 32);*/
 165:./Libraries/CMSIS/DSP/Source/FilteringFunctions/arm_biquad_cascade_df1_fast_q31.c ****       mult_32x32_keep32_R(acc, b0, Xn1);
 166:./Libraries/CMSIS/DSP/Source/FilteringFunctions/arm_biquad_cascade_df1_fast_q31.c ****       /* acc +=  b1 * x[n-1] */
 167:./Libraries/CMSIS/DSP/Source/FilteringFunctions/arm_biquad_cascade_df1_fast_q31.c ****       /* acc = (q31_t) ((((q63_t) acc << 32) + ((q63_t) b1 * (Xn2))) >> 32);*/
 168:./Libraries/CMSIS/DSP/Source/FilteringFunctions/arm_biquad_cascade_df1_fast_q31.c ****       multAcc_32x32_keep32_R(acc, b1, Xn2);
 169:./Libraries/CMSIS/DSP/Source/FilteringFunctions/arm_biquad_cascade_df1_fast_q31.c ****       /* acc +=  b[2] * x[n-2] */
 170:./Libraries/CMSIS/DSP/Source/FilteringFunctions/arm_biquad_cascade_df1_fast_q31.c ****       /* acc = (q31_t) ((((q63_t) acc << 32) + ((q63_t) b2 * (Xn))) >> 32);*/
 171:./Libraries/CMSIS/DSP/Source/FilteringFunctions/arm_biquad_cascade_df1_fast_q31.c ****       multAcc_32x32_keep32_R(acc, b2, Xn);
 172:./Libraries/CMSIS/DSP/Source/FilteringFunctions/arm_biquad_cascade_df1_fast_q31.c ****       /* acc +=  a1 * y[n-1] */
 173:./Libraries/CMSIS/DSP/Source/FilteringFunctions/arm_biquad_cascade_df1_fast_q31.c ****       /* acc = (q31_t) ((((q63_t) acc << 32) + ((q63_t) a1 * (Yn1))) >> 32);*/
 174:./Libraries/CMSIS/DSP/Source/FilteringFunctions/arm_biquad_cascade_df1_fast_q31.c ****       multAcc_32x32_keep32_R(acc, a1, Yn1);
 175:./Libraries/CMSIS/DSP/Source/FilteringFunctions/arm_biquad_cascade_df1_fast_q31.c ****       /* acc +=  a2 * y[n-2] */
 176:./Libraries/CMSIS/DSP/Source/FilteringFunctions/arm_biquad_cascade_df1_fast_q31.c ****       /* acc = (q31_t) ((((q63_t) acc << 32) + ((q63_t) a2 * (Yn2))) >> 32);*/
 177:./Libraries/CMSIS/DSP/Source/FilteringFunctions/arm_biquad_cascade_df1_fast_q31.c ****       multAcc_32x32_keep32_R(acc, a2, Yn2);
 178:./Libraries/CMSIS/DSP/Source/FilteringFunctions/arm_biquad_cascade_df1_fast_q31.c **** 
 179:./Libraries/CMSIS/DSP/Source/FilteringFunctions/arm_biquad_cascade_df1_fast_q31.c ****       /* The result is converted to 1.31, Yn2 variable is reused  */
 180:./Libraries/CMSIS/DSP/Source/FilteringFunctions/arm_biquad_cascade_df1_fast_q31.c ****       Yn2 = acc << shift;
 181:./Libraries/CMSIS/DSP/Source/FilteringFunctions/arm_biquad_cascade_df1_fast_q31.c **** 
 182:./Libraries/CMSIS/DSP/Source/FilteringFunctions/arm_biquad_cascade_df1_fast_q31.c ****       /* Read the forth input */
 183:./Libraries/CMSIS/DSP/Source/FilteringFunctions/arm_biquad_cascade_df1_fast_q31.c ****       Xn = *(pIn + 3U);
 184:./Libraries/CMSIS/DSP/Source/FilteringFunctions/arm_biquad_cascade_df1_fast_q31.c **** 
 185:./Libraries/CMSIS/DSP/Source/FilteringFunctions/arm_biquad_cascade_df1_fast_q31.c ****       /* Store the output in the destination buffer. */
 186:./Libraries/CMSIS/DSP/Source/FilteringFunctions/arm_biquad_cascade_df1_fast_q31.c ****       *(pOut + 2U) = Yn2;
 187:./Libraries/CMSIS/DSP/Source/FilteringFunctions/arm_biquad_cascade_df1_fast_q31.c ****       pIn += 4U;
 188:./Libraries/CMSIS/DSP/Source/FilteringFunctions/arm_biquad_cascade_df1_fast_q31.c **** 
 189:./Libraries/CMSIS/DSP/Source/FilteringFunctions/arm_biquad_cascade_df1_fast_q31.c ****       /* acc =  b0 * x[n] + b1 * x[n-1] + b2 * x[n-2] + a1 * y[n-1] + a2 * y[n-2] */
 190:./Libraries/CMSIS/DSP/Source/FilteringFunctions/arm_biquad_cascade_df1_fast_q31.c ****       /* acc =  b0 * x[n] */
 191:./Libraries/CMSIS/DSP/Source/FilteringFunctions/arm_biquad_cascade_df1_fast_q31.c ****       /* acc = (q31_t) (((q63_t) b0 * (Xn)) >> 32);*/
 192:./Libraries/CMSIS/DSP/Source/FilteringFunctions/arm_biquad_cascade_df1_fast_q31.c ****       mult_32x32_keep32_R(acc, b0, Xn);
 193:./Libraries/CMSIS/DSP/Source/FilteringFunctions/arm_biquad_cascade_df1_fast_q31.c ****       /* acc +=  b1 * x[n-1] */
 194:./Libraries/CMSIS/DSP/Source/FilteringFunctions/arm_biquad_cascade_df1_fast_q31.c ****       /*acc = (q31_t) ((((q63_t) acc << 32) + ((q63_t) b1 * (Xn1))) >> 32);*/
 195:./Libraries/CMSIS/DSP/Source/FilteringFunctions/arm_biquad_cascade_df1_fast_q31.c ****       multAcc_32x32_keep32_R(acc, b1, Xn1);
 196:./Libraries/CMSIS/DSP/Source/FilteringFunctions/arm_biquad_cascade_df1_fast_q31.c ****       /* acc +=  b[2] * x[n-2] */
 197:./Libraries/CMSIS/DSP/Source/FilteringFunctions/arm_biquad_cascade_df1_fast_q31.c ****       /*acc = (q31_t) ((((q63_t) acc << 32) + ((q63_t) b2 * (Xn2))) >> 32);*/
 198:./Libraries/CMSIS/DSP/Source/FilteringFunctions/arm_biquad_cascade_df1_fast_q31.c ****       multAcc_32x32_keep32_R(acc, b2, Xn2);
 199:./Libraries/CMSIS/DSP/Source/FilteringFunctions/arm_biquad_cascade_df1_fast_q31.c ****       /* acc +=  a1 * y[n-1] */
 200:./Libraries/CMSIS/DSP/Source/FilteringFunctions/arm_biquad_cascade_df1_fast_q31.c ****       /*acc = (q31_t) ((((q63_t) acc << 32) + ((q63_t) a1 * (Yn2))) >> 32);*/
 201:./Libraries/CMSIS/DSP/Source/FilteringFunctions/arm_biquad_cascade_df1_fast_q31.c ****       multAcc_32x32_keep32_R(acc, a1, Yn2);
 202:./Libraries/CMSIS/DSP/Source/FilteringFunctions/arm_biquad_cascade_df1_fast_q31.c ****       /* acc +=  a2 * y[n-2] */
 203:./Libraries/CMSIS/DSP/Source/FilteringFunctions/arm_biquad_cascade_df1_fast_q31.c ****       /*acc = (q31_t) ((((q63_t) acc << 32) + ((q63_t) a2 * (Yn1))) >> 32);*/
 204:./Libraries/CMSIS/DSP/Source/FilteringFunctions/arm_biquad_cascade_df1_fast_q31.c ****       multAcc_32x32_keep32_R(acc, a2, Yn1);
 205:./Libraries/CMSIS/DSP/Source/FilteringFunctions/arm_biquad_cascade_df1_fast_q31.c **** 
 206:./Libraries/CMSIS/DSP/Source/FilteringFunctions/arm_biquad_cascade_df1_fast_q31.c ****       /* Every time after the output is computed state should be updated. */
 207:./Libraries/CMSIS/DSP/Source/FilteringFunctions/arm_biquad_cascade_df1_fast_q31.c ****       /* The states should be updated as:  */
 208:./Libraries/CMSIS/DSP/Source/FilteringFunctions/arm_biquad_cascade_df1_fast_q31.c ****       /* Xn2 = Xn1 */
 209:./Libraries/CMSIS/DSP/Source/FilteringFunctions/arm_biquad_cascade_df1_fast_q31.c ****       Xn2 = Xn1;
 210:./Libraries/CMSIS/DSP/Source/FilteringFunctions/arm_biquad_cascade_df1_fast_q31.c **** 
 211:./Libraries/CMSIS/DSP/Source/FilteringFunctions/arm_biquad_cascade_df1_fast_q31.c ****       /* The result is converted to 1.31, Yn1 variable is reused  */
 212:./Libraries/CMSIS/DSP/Source/FilteringFunctions/arm_biquad_cascade_df1_fast_q31.c ****       Yn1 = acc << shift;
ARM GAS  /tmp/ccjRrBV8.s 			page 7


 213:./Libraries/CMSIS/DSP/Source/FilteringFunctions/arm_biquad_cascade_df1_fast_q31.c **** 
 214:./Libraries/CMSIS/DSP/Source/FilteringFunctions/arm_biquad_cascade_df1_fast_q31.c ****       /* Xn1 = Xn */
 215:./Libraries/CMSIS/DSP/Source/FilteringFunctions/arm_biquad_cascade_df1_fast_q31.c ****       Xn1 = Xn;
 216:./Libraries/CMSIS/DSP/Source/FilteringFunctions/arm_biquad_cascade_df1_fast_q31.c **** 
 217:./Libraries/CMSIS/DSP/Source/FilteringFunctions/arm_biquad_cascade_df1_fast_q31.c ****       /* Store the output in the destination buffer. */
 218:./Libraries/CMSIS/DSP/Source/FilteringFunctions/arm_biquad_cascade_df1_fast_q31.c ****       *(pOut + 3U) = Yn1;
 219:./Libraries/CMSIS/DSP/Source/FilteringFunctions/arm_biquad_cascade_df1_fast_q31.c ****       pOut += 4U;
 220:./Libraries/CMSIS/DSP/Source/FilteringFunctions/arm_biquad_cascade_df1_fast_q31.c **** 
 221:./Libraries/CMSIS/DSP/Source/FilteringFunctions/arm_biquad_cascade_df1_fast_q31.c ****       /* decrement loop counter */
 222:./Libraries/CMSIS/DSP/Source/FilteringFunctions/arm_biquad_cascade_df1_fast_q31.c ****       sample--;
 223:./Libraries/CMSIS/DSP/Source/FilteringFunctions/arm_biquad_cascade_df1_fast_q31.c ****     }
 224:./Libraries/CMSIS/DSP/Source/FilteringFunctions/arm_biquad_cascade_df1_fast_q31.c **** 
 225:./Libraries/CMSIS/DSP/Source/FilteringFunctions/arm_biquad_cascade_df1_fast_q31.c ****     /* Loop unrolling: Compute remaining outputs */
 226:./Libraries/CMSIS/DSP/Source/FilteringFunctions/arm_biquad_cascade_df1_fast_q31.c ****     sample = (blockSize & 0x3U);
 227:./Libraries/CMSIS/DSP/Source/FilteringFunctions/arm_biquad_cascade_df1_fast_q31.c **** 
 228:./Libraries/CMSIS/DSP/Source/FilteringFunctions/arm_biquad_cascade_df1_fast_q31.c **** #else
 229:./Libraries/CMSIS/DSP/Source/FilteringFunctions/arm_biquad_cascade_df1_fast_q31.c **** 
 230:./Libraries/CMSIS/DSP/Source/FilteringFunctions/arm_biquad_cascade_df1_fast_q31.c ****     /* Initialize blkCnt with number of samples */
 231:./Libraries/CMSIS/DSP/Source/FilteringFunctions/arm_biquad_cascade_df1_fast_q31.c ****     sample = blockSize;
 132              		.loc 1 231 12
 133 00a8 3B6C     		ldr	r3, [r7, #64]
 134 00aa 7B67     		str	r3, [r7, #116]
 232:./Libraries/CMSIS/DSP/Source/FilteringFunctions/arm_biquad_cascade_df1_fast_q31.c **** 
 233:./Libraries/CMSIS/DSP/Source/FilteringFunctions/arm_biquad_cascade_df1_fast_q31.c **** #endif /* #if defined (ARM_MATH_LOOPUNROLL) */
 234:./Libraries/CMSIS/DSP/Source/FilteringFunctions/arm_biquad_cascade_df1_fast_q31.c **** 
 235:./Libraries/CMSIS/DSP/Source/FilteringFunctions/arm_biquad_cascade_df1_fast_q31.c ****     while (sample > 0U)
 135              		.loc 1 235 11
 136 00ac 20E1     		b	.L2
 137              	.L3:
 236:./Libraries/CMSIS/DSP/Source/FilteringFunctions/arm_biquad_cascade_df1_fast_q31.c ****     {
 237:./Libraries/CMSIS/DSP/Source/FilteringFunctions/arm_biquad_cascade_df1_fast_q31.c ****       /* Read the input */
 238:./Libraries/CMSIS/DSP/Source/FilteringFunctions/arm_biquad_cascade_df1_fast_q31.c ****       Xn = *pIn++;
 138              		.loc 1 238 16
 139 00ae D7F89420 		ldr	r2, [r7, #148]
 140 00b2 131D     		adds	r3, r2, #4
 141 00b4 C7F89430 		str	r3, [r7, #148]
 142              		.loc 1 238 10
 143 00b8 1368     		ldr	r3, [r2]
 144 00ba 3B65     		str	r3, [r7, #80]
 239:./Libraries/CMSIS/DSP/Source/FilteringFunctions/arm_biquad_cascade_df1_fast_q31.c **** 
 240:./Libraries/CMSIS/DSP/Source/FilteringFunctions/arm_biquad_cascade_df1_fast_q31.c ****       /* acc =  b0 * x[n] + b1 * x[n-1] + b2 * x[n-2] + a1 * y[n-1] + a2 * y[n-2] */
 241:./Libraries/CMSIS/DSP/Source/FilteringFunctions/arm_biquad_cascade_df1_fast_q31.c ****       /* acc =  b0 * x[n] */
 242:./Libraries/CMSIS/DSP/Source/FilteringFunctions/arm_biquad_cascade_df1_fast_q31.c ****       /* acc = (q31_t) (((q63_t) b0 * (Xn)) >> 32);*/
 243:./Libraries/CMSIS/DSP/Source/FilteringFunctions/arm_biquad_cascade_df1_fast_q31.c ****       mult_32x32_keep32_R(acc, b0, Xn);
 145              		.loc 1 243 7
 146 00bc 7B6E     		ldr	r3, [r7, #100]
 147 00be 1846     		mov	r0, r3
 148 00c0 4FEAE071 		asr	r1, r0, #31
 149 00c4 3B6D     		ldr	r3, [r7, #80]
 150 00c6 1A46     		mov	r2, r3
 151 00c8 4FEAE273 		asr	r3, r2, #31
 152 00cc 02FB01F5 		mul	r5, r2, r1
 153 00d0 00FB03F4 		mul	r4, r0, r3
 154 00d4 2C44     		add	r4, r4, r5
 155 00d6 A0FB0223 		umull	r2, r3, r0, r2
 156 00da E118     		adds	r1, r4, r3
 157 00dc 0B46     		mov	r3, r1
ARM GAS  /tmp/ccjRrBV8.s 			page 8


 158 00de 12F10041 		adds	r1, r2, #-2147483648
 159 00e2 B963     		str	r1, [r7, #56]
 160 00e4 43F10003 		adc	r3, r3, #0
 161 00e8 FB63     		str	r3, [r7, #60]
 162 00ea 4FF00002 		mov	r2, #0
 163 00ee 4FF00003 		mov	r3, #0
 164 00f2 D7E90E45 		ldrd	r4, [r7, #56]
 165 00f6 2946     		mov	r1, r5
 166 00f8 0A00     		movs	r2, r1
 167 00fa 2946     		mov	r1, r5
 168 00fc CB17     		asrs	r3, r1, #31
 169 00fe 1346     		mov	r3, r2
 170 0100 FB66     		str	r3, [r7, #108]
 244:./Libraries/CMSIS/DSP/Source/FilteringFunctions/arm_biquad_cascade_df1_fast_q31.c ****       /* acc +=  b1 * x[n-1] */
 245:./Libraries/CMSIS/DSP/Source/FilteringFunctions/arm_biquad_cascade_df1_fast_q31.c ****       /* acc = (q31_t) ((((q63_t) acc << 32) + ((q63_t) b1 * (Xn1))) >> 32);*/
 246:./Libraries/CMSIS/DSP/Source/FilteringFunctions/arm_biquad_cascade_df1_fast_q31.c ****       multAcc_32x32_keep32_R(acc, b1, Xn1);
 171              		.loc 1 246 7
 172 0102 FB6E     		ldr	r3, [r7, #108]
 173 0104 1A46     		mov	r2, r3
 174 0106 4FEAE273 		asr	r3, r2, #31
 175 010a 4FF00008 		mov	r8, #0
 176 010e 4FF00009 		mov	r9, #0
 177 0112 9146     		mov	r9, r2
 178 0114 4FF00008 		mov	r8, #0
 179 0118 3B6E     		ldr	r3, [r7, #96]
 180 011a 1846     		mov	r0, r3
 181 011c 4FEAE071 		asr	r1, r0, #31
 182 0120 D7F88430 		ldr	r3, [r7, #132]
 183 0124 1A46     		mov	r2, r3
 184 0126 4FEAE273 		asr	r3, r2, #31
 185 012a 02FB01F5 		mul	r5, r2, r1
 186 012e 00FB03F4 		mul	r4, r0, r3
 187 0132 2C44     		add	r4, r4, r5
 188 0134 A0FB0223 		umull	r2, r3, r0, r2
 189 0138 E118     		adds	r1, r4, r3
 190 013a 0B46     		mov	r3, r1
 191 013c 18EB0201 		adds	r1, r8, r2
 192 0140 3963     		str	r1, [r7, #48]
 193 0142 49EB0303 		adc	r3, r9, r3
 194 0146 7B63     		str	r3, [r7, #52]
 195 0148 D7E90C12 		ldrd	r1, [r7, #48]
 196 014c 0B46     		mov	r3, r1
 197 014e 13F10043 		adds	r3, r3, #-2147483648
 198 0152 BB62     		str	r3, [r7, #40]
 199 0154 1346     		mov	r3, r2
 200 0156 43F10003 		adc	r3, r3, #0
 201 015a FB62     		str	r3, [r7, #44]
 202 015c 4FF00002 		mov	r2, #0
 203 0160 4FF00003 		mov	r3, #0
 204 0164 D7E90A45 		ldrd	r4, [r7, #40]
 205 0168 2946     		mov	r1, r5
 206 016a 0A00     		movs	r2, r1
 207 016c 2946     		mov	r1, r5
 208 016e CB17     		asrs	r3, r1, #31
 209 0170 1346     		mov	r3, r2
 210 0172 FB66     		str	r3, [r7, #108]
 247:./Libraries/CMSIS/DSP/Source/FilteringFunctions/arm_biquad_cascade_df1_fast_q31.c ****       /* acc +=  b[2] * x[n-2] */
ARM GAS  /tmp/ccjRrBV8.s 			page 9


 248:./Libraries/CMSIS/DSP/Source/FilteringFunctions/arm_biquad_cascade_df1_fast_q31.c ****       /* acc = (q31_t) ((((q63_t) acc << 32) + ((q63_t) b2 * (Xn2))) >> 32);*/
 249:./Libraries/CMSIS/DSP/Source/FilteringFunctions/arm_biquad_cascade_df1_fast_q31.c ****       multAcc_32x32_keep32_R(acc, b2, Xn2);
 211              		.loc 1 249 7
 212 0174 FB6E     		ldr	r3, [r7, #108]
 213 0176 1A46     		mov	r2, r3
 214 0178 4FEAE273 		asr	r3, r2, #31
 215 017c 4FF00008 		mov	r8, #0
 216 0180 4FF00009 		mov	r9, #0
 217 0184 9146     		mov	r9, r2
 218 0186 4FF00008 		mov	r8, #0
 219 018a FB6D     		ldr	r3, [r7, #92]
 220 018c 1846     		mov	r0, r3
 221 018e 4FEAE071 		asr	r1, r0, #31
 222 0192 D7F88030 		ldr	r3, [r7, #128]
 223 0196 1A46     		mov	r2, r3
 224 0198 4FEAE273 		asr	r3, r2, #31
 225 019c 02FB01F5 		mul	r5, r2, r1
 226 01a0 00FB03F4 		mul	r4, r0, r3
 227 01a4 2C44     		add	r4, r4, r5
 228 01a6 A0FB0223 		umull	r2, r3, r0, r2
 229 01aa E118     		adds	r1, r4, r3
 230 01ac 0B46     		mov	r3, r1
 231 01ae 18EB0201 		adds	r1, r8, r2
 232 01b2 3962     		str	r1, [r7, #32]
 233 01b4 49EB0303 		adc	r3, r9, r3
 234 01b8 7B62     		str	r3, [r7, #36]
 235 01ba D7E90812 		ldrd	r1, [r7, #32]
 236 01be 0B46     		mov	r3, r1
 237 01c0 13F10043 		adds	r3, r3, #-2147483648
 238 01c4 BB61     		str	r3, [r7, #24]
 239 01c6 1346     		mov	r3, r2
 240 01c8 43F10003 		adc	r3, r3, #0
 241 01cc FB61     		str	r3, [r7, #28]
 242 01ce 4FF00002 		mov	r2, #0
 243 01d2 4FF00003 		mov	r3, #0
 244 01d6 D7E90645 		ldrd	r4, [r7, #24]
 245 01da 2946     		mov	r1, r5
 246 01dc 0A00     		movs	r2, r1
 247 01de 2946     		mov	r1, r5
 248 01e0 CB17     		asrs	r3, r1, #31
 249 01e2 1346     		mov	r3, r2
 250 01e4 FB66     		str	r3, [r7, #108]
 250:./Libraries/CMSIS/DSP/Source/FilteringFunctions/arm_biquad_cascade_df1_fast_q31.c ****       /* acc +=  a1 * y[n-1] */
 251:./Libraries/CMSIS/DSP/Source/FilteringFunctions/arm_biquad_cascade_df1_fast_q31.c ****       /* acc = (q31_t) ((((q63_t) acc << 32) + ((q63_t) a1 * (Yn1))) >> 32);*/
 252:./Libraries/CMSIS/DSP/Source/FilteringFunctions/arm_biquad_cascade_df1_fast_q31.c ****       multAcc_32x32_keep32_R(acc, a1, Yn1);
 251              		.loc 1 252 7
 252 01e6 FB6E     		ldr	r3, [r7, #108]
 253 01e8 1A46     		mov	r2, r3
 254 01ea 4FEAE273 		asr	r3, r2, #31
 255 01ee 4FF00008 		mov	r8, #0
 256 01f2 4FF00009 		mov	r9, #0
 257 01f6 9146     		mov	r9, r2
 258 01f8 4FF00008 		mov	r8, #0
 259 01fc BB6D     		ldr	r3, [r7, #88]
 260 01fe 1846     		mov	r0, r3
 261 0200 4FEAE071 		asr	r1, r0, #31
 262 0204 FB6F     		ldr	r3, [r7, #124]
ARM GAS  /tmp/ccjRrBV8.s 			page 10


 263 0206 1A46     		mov	r2, r3
 264 0208 4FEAE273 		asr	r3, r2, #31
 265 020c 02FB01F5 		mul	r5, r2, r1
 266 0210 00FB03F4 		mul	r4, r0, r3
 267 0214 2C44     		add	r4, r4, r5
 268 0216 A0FB0223 		umull	r2, r3, r0, r2
 269 021a E118     		adds	r1, r4, r3
 270 021c 0B46     		mov	r3, r1
 271 021e 18EB0201 		adds	r1, r8, r2
 272 0222 3961     		str	r1, [r7, #16]
 273 0224 49EB0303 		adc	r3, r9, r3
 274 0228 7B61     		str	r3, [r7, #20]
 275 022a D7E90412 		ldrd	r1, [r7, #16]
 276 022e 0B46     		mov	r3, r1
 277 0230 13F10043 		adds	r3, r3, #-2147483648
 278 0234 BB60     		str	r3, [r7, #8]
 279 0236 1346     		mov	r3, r2
 280 0238 43F10003 		adc	r3, r3, #0
 281 023c FB60     		str	r3, [r7, #12]
 282 023e 4FF00002 		mov	r2, #0
 283 0242 4FF00003 		mov	r3, #0
 284 0246 D7E90245 		ldrd	r4, [r7, #8]
 285 024a 2946     		mov	r1, r5
 286 024c 0A00     		movs	r2, r1
 287 024e 2946     		mov	r1, r5
 288 0250 CB17     		asrs	r3, r1, #31
 289 0252 1346     		mov	r3, r2
 290 0254 FB66     		str	r3, [r7, #108]
 253:./Libraries/CMSIS/DSP/Source/FilteringFunctions/arm_biquad_cascade_df1_fast_q31.c ****       /* acc +=  a2 * y[n-2] */
 254:./Libraries/CMSIS/DSP/Source/FilteringFunctions/arm_biquad_cascade_df1_fast_q31.c ****       /* acc = (q31_t) ((((q63_t) acc << 32) + ((q63_t) a2 * (Yn2))) >> 32);*/
 255:./Libraries/CMSIS/DSP/Source/FilteringFunctions/arm_biquad_cascade_df1_fast_q31.c ****       multAcc_32x32_keep32_R(acc, a2, Yn2);
 291              		.loc 1 255 7
 292 0256 FB6E     		ldr	r3, [r7, #108]
 293 0258 1A46     		mov	r2, r3
 294 025a 4FEAE273 		asr	r3, r2, #31
 295 025e 4FF00008 		mov	r8, #0
 296 0262 4FF00009 		mov	r9, #0
 297 0266 9146     		mov	r9, r2
 298 0268 4FF00008 		mov	r8, #0
 299 026c 7B6D     		ldr	r3, [r7, #84]
 300 026e 1846     		mov	r0, r3
 301 0270 4FEAE071 		asr	r1, r0, #31
 302 0274 BB6F     		ldr	r3, [r7, #120]
 303 0276 1A46     		mov	r2, r3
 304 0278 4FEAE273 		asr	r3, r2, #31
 305 027c 02FB01F5 		mul	r5, r2, r1
 306 0280 00FB03F4 		mul	r4, r0, r3
 307 0284 2C44     		add	r4, r4, r5
 308 0286 A0FB0223 		umull	r2, r3, r0, r2
 309 028a E118     		adds	r1, r4, r3
 310 028c 0B46     		mov	r3, r1
 311 028e 18EB0201 		adds	r1, r8, r2
 312 0292 3960     		str	r1, [r7]
 313 0294 49EB0303 		adc	r3, r9, r3
 314 0298 7B60     		str	r3, [r7, #4]
 315 029a D7E90012 		ldrd	r1, [r7]
 316 029e 0B46     		mov	r3, r1
ARM GAS  /tmp/ccjRrBV8.s 			page 11


 317 02a0 13F1004A 		adds	r10, r3, #-2147483648
 318 02a4 1346     		mov	r3, r2
 319 02a6 43F1000B 		adc	fp, r3, #0
 320 02aa 4FF00002 		mov	r2, #0
 321 02ae 4FF00003 		mov	r3, #0
 322 02b2 5A46     		mov	r2, fp
 323 02b4 4FEAEB73 		asr	r3, fp, #31
 324 02b8 1346     		mov	r3, r2
 325 02ba FB66     		str	r3, [r7, #108]
 256:./Libraries/CMSIS/DSP/Source/FilteringFunctions/arm_biquad_cascade_df1_fast_q31.c **** 
 257:./Libraries/CMSIS/DSP/Source/FilteringFunctions/arm_biquad_cascade_df1_fast_q31.c ****       /* The result is converted to 1.31  */
 258:./Libraries/CMSIS/DSP/Source/FilteringFunctions/arm_biquad_cascade_df1_fast_q31.c ****       acc = acc << shift;
 326              		.loc 1 258 11
 327 02bc FA6E     		ldr	r2, [r7, #108]
 328 02be BB6E     		ldr	r3, [r7, #104]
 329 02c0 02FA03F3 		lsl	r3, r2, r3
 330 02c4 FB66     		str	r3, [r7, #108]
 259:./Libraries/CMSIS/DSP/Source/FilteringFunctions/arm_biquad_cascade_df1_fast_q31.c **** 
 260:./Libraries/CMSIS/DSP/Source/FilteringFunctions/arm_biquad_cascade_df1_fast_q31.c ****       /* Every time after the output is computed state should be updated. */
 261:./Libraries/CMSIS/DSP/Source/FilteringFunctions/arm_biquad_cascade_df1_fast_q31.c ****       /* The states should be updated as:  */
 262:./Libraries/CMSIS/DSP/Source/FilteringFunctions/arm_biquad_cascade_df1_fast_q31.c ****       /* Xn2 = Xn1 */
 263:./Libraries/CMSIS/DSP/Source/FilteringFunctions/arm_biquad_cascade_df1_fast_q31.c ****       /* Xn1 = Xn  */
 264:./Libraries/CMSIS/DSP/Source/FilteringFunctions/arm_biquad_cascade_df1_fast_q31.c ****       /* Yn2 = Yn1 */
 265:./Libraries/CMSIS/DSP/Source/FilteringFunctions/arm_biquad_cascade_df1_fast_q31.c ****       /* Yn1 = acc */
 266:./Libraries/CMSIS/DSP/Source/FilteringFunctions/arm_biquad_cascade_df1_fast_q31.c ****       Xn2 = Xn1;
 331              		.loc 1 266 11
 332 02c6 D7F88430 		ldr	r3, [r7, #132]
 333 02ca C7F88030 		str	r3, [r7, #128]
 267:./Libraries/CMSIS/DSP/Source/FilteringFunctions/arm_biquad_cascade_df1_fast_q31.c ****       Xn1 = Xn;
 334              		.loc 1 267 11
 335 02ce 3B6D     		ldr	r3, [r7, #80]
 336 02d0 C7F88430 		str	r3, [r7, #132]
 268:./Libraries/CMSIS/DSP/Source/FilteringFunctions/arm_biquad_cascade_df1_fast_q31.c ****       Yn2 = Yn1;
 337              		.loc 1 268 11
 338 02d4 FB6F     		ldr	r3, [r7, #124]
 339 02d6 BB67     		str	r3, [r7, #120]
 269:./Libraries/CMSIS/DSP/Source/FilteringFunctions/arm_biquad_cascade_df1_fast_q31.c ****       Yn1 = acc;
 340              		.loc 1 269 11
 341 02d8 FB6E     		ldr	r3, [r7, #108]
 342 02da FB67     		str	r3, [r7, #124]
 270:./Libraries/CMSIS/DSP/Source/FilteringFunctions/arm_biquad_cascade_df1_fast_q31.c **** 
 271:./Libraries/CMSIS/DSP/Source/FilteringFunctions/arm_biquad_cascade_df1_fast_q31.c ****       /* Store the output in the destination buffer. */
 272:./Libraries/CMSIS/DSP/Source/FilteringFunctions/arm_biquad_cascade_df1_fast_q31.c ****       *pOut++ = acc;
 343              		.loc 1 272 12
 344 02dc D7F89020 		ldr	r2, [r7, #144]
 345 02e0 131D     		adds	r3, r2, #4
 346 02e2 C7F89030 		str	r3, [r7, #144]
 347              		.loc 1 272 15
 348 02e6 FB6E     		ldr	r3, [r7, #108]
 349 02e8 1360     		str	r3, [r2]
 273:./Libraries/CMSIS/DSP/Source/FilteringFunctions/arm_biquad_cascade_df1_fast_q31.c **** 
 274:./Libraries/CMSIS/DSP/Source/FilteringFunctions/arm_biquad_cascade_df1_fast_q31.c ****       /* decrement loop counter */
 275:./Libraries/CMSIS/DSP/Source/FilteringFunctions/arm_biquad_cascade_df1_fast_q31.c ****       sample--;
 350              		.loc 1 275 13
 351 02ea 7B6F     		ldr	r3, [r7, #116]
 352 02ec 013B     		subs	r3, r3, #1
 353 02ee 7B67     		str	r3, [r7, #116]
ARM GAS  /tmp/ccjRrBV8.s 			page 12


 354              	.L2:
 235:./Libraries/CMSIS/DSP/Source/FilteringFunctions/arm_biquad_cascade_df1_fast_q31.c ****     {
 355              		.loc 1 235 11
 356 02f0 7B6F     		ldr	r3, [r7, #116]
 357 02f2 002B     		cmp	r3, #0
 358 02f4 7FF4DBAE 		bne	.L3
 276:./Libraries/CMSIS/DSP/Source/FilteringFunctions/arm_biquad_cascade_df1_fast_q31.c ****     }
 277:./Libraries/CMSIS/DSP/Source/FilteringFunctions/arm_biquad_cascade_df1_fast_q31.c **** 
 278:./Libraries/CMSIS/DSP/Source/FilteringFunctions/arm_biquad_cascade_df1_fast_q31.c ****     /* The first stage goes from the input buffer to the output buffer. */
 279:./Libraries/CMSIS/DSP/Source/FilteringFunctions/arm_biquad_cascade_df1_fast_q31.c ****     /* Subsequent stages occur in-place in the output buffer */
 280:./Libraries/CMSIS/DSP/Source/FilteringFunctions/arm_biquad_cascade_df1_fast_q31.c ****     pIn = pDst;
 359              		.loc 1 280 9
 360 02f8 7B6C     		ldr	r3, [r7, #68]
 361 02fa C7F89430 		str	r3, [r7, #148]
 281:./Libraries/CMSIS/DSP/Source/FilteringFunctions/arm_biquad_cascade_df1_fast_q31.c **** 
 282:./Libraries/CMSIS/DSP/Source/FilteringFunctions/arm_biquad_cascade_df1_fast_q31.c ****     /* Reset to destination pointer */
 283:./Libraries/CMSIS/DSP/Source/FilteringFunctions/arm_biquad_cascade_df1_fast_q31.c ****     pOut = pDst;
 362              		.loc 1 283 10
 363 02fe 7B6C     		ldr	r3, [r7, #68]
 364 0300 C7F89030 		str	r3, [r7, #144]
 284:./Libraries/CMSIS/DSP/Source/FilteringFunctions/arm_biquad_cascade_df1_fast_q31.c **** 
 285:./Libraries/CMSIS/DSP/Source/FilteringFunctions/arm_biquad_cascade_df1_fast_q31.c ****     /* Store the updated state variables back into the pState array */
 286:./Libraries/CMSIS/DSP/Source/FilteringFunctions/arm_biquad_cascade_df1_fast_q31.c ****     *pState++ = Xn1;
 365              		.loc 1 286 12
 366 0304 D7F88C20 		ldr	r2, [r7, #140]
 367 0308 131D     		adds	r3, r2, #4
 368 030a C7F88C30 		str	r3, [r7, #140]
 369              		.loc 1 286 15
 370 030e D7F88430 		ldr	r3, [r7, #132]
 371 0312 1360     		str	r3, [r2]
 287:./Libraries/CMSIS/DSP/Source/FilteringFunctions/arm_biquad_cascade_df1_fast_q31.c ****     *pState++ = Xn2;
 372              		.loc 1 287 12
 373 0314 D7F88C20 		ldr	r2, [r7, #140]
 374 0318 131D     		adds	r3, r2, #4
 375 031a C7F88C30 		str	r3, [r7, #140]
 376              		.loc 1 287 15
 377 031e D7F88030 		ldr	r3, [r7, #128]
 378 0322 1360     		str	r3, [r2]
 288:./Libraries/CMSIS/DSP/Source/FilteringFunctions/arm_biquad_cascade_df1_fast_q31.c ****     *pState++ = Yn1;
 379              		.loc 1 288 12
 380 0324 D7F88C20 		ldr	r2, [r7, #140]
 381 0328 131D     		adds	r3, r2, #4
 382 032a C7F88C30 		str	r3, [r7, #140]
 383              		.loc 1 288 15
 384 032e FB6F     		ldr	r3, [r7, #124]
 385 0330 1360     		str	r3, [r2]
 289:./Libraries/CMSIS/DSP/Source/FilteringFunctions/arm_biquad_cascade_df1_fast_q31.c ****     *pState++ = Yn2;
 386              		.loc 1 289 12
 387 0332 D7F88C20 		ldr	r2, [r7, #140]
 388 0336 131D     		adds	r3, r2, #4
 389 0338 C7F88C30 		str	r3, [r7, #140]
 390              		.loc 1 289 15
 391 033c BB6F     		ldr	r3, [r7, #120]
 392 033e 1360     		str	r3, [r2]
 290:./Libraries/CMSIS/DSP/Source/FilteringFunctions/arm_biquad_cascade_df1_fast_q31.c **** 
 291:./Libraries/CMSIS/DSP/Source/FilteringFunctions/arm_biquad_cascade_df1_fast_q31.c ****   } while (--stage);
 393              		.loc 1 291 3
ARM GAS  /tmp/ccjRrBV8.s 			page 13


 394 0340 3B6F     		ldr	r3, [r7, #112]
 395 0342 013B     		subs	r3, r3, #1
 396 0344 3B67     		str	r3, [r7, #112]
 397 0346 3B6F     		ldr	r3, [r7, #112]
 398 0348 002B     		cmp	r3, #0
 399 034a 7FF478AE 		bne	.L4
 292:./Libraries/CMSIS/DSP/Source/FilteringFunctions/arm_biquad_cascade_df1_fast_q31.c **** }
 400              		.loc 1 292 1
 401 034e 00BF     		nop
 402 0350 00BF     		nop
 403 0352 9C37     		adds	r7, r7, #156
 404              	.LCFI3:
 405              		.cfi_def_cfa_offset 28
 406 0354 BD46     		mov	sp, r7
 407              	.LCFI4:
 408              		.cfi_def_cfa_register 13
 409              		@ sp needed
 410 0356 BDE8B00F 		pop	{r4, r5, r7, r8, r9, r10, fp}
 411              	.LCFI5:
 412              		.cfi_restore 11
 413              		.cfi_restore 10
 414              		.cfi_restore 9
 415              		.cfi_restore 8
 416              		.cfi_restore 7
 417              		.cfi_restore 5
 418              		.cfi_restore 4
 419              		.cfi_def_cfa_offset 0
 420 035a 7047     		bx	lr
 421              		.cfi_endproc
 422              	.LFE145:
 424              		.text
 425              	.Letext0:
 426              		.file 2 "/usr/lib/gcc/arm-none-eabi/9.2.1/include/stdint.h"
 427              		.file 3 "/usr/lib/gcc/arm-none-eabi/9.2.1/include/stddef.h"
 428              		.file 4 "/usr/include/newlib/sys/_types.h"
 429              		.file 5 "/usr/include/newlib/sys/reent.h"
 430              		.file 6 "/usr/include/newlib/sys/lock.h"
 431              		.file 7 "/usr/include/newlib/math.h"
 432              		.file 8 "./Libraries/CMSIS/DSP/Include/arm_math.h"
ARM GAS  /tmp/ccjRrBV8.s 			page 14

