ARM GAS  /tmp/ccQymEZf.s 			page 1


   1              		.cpu cortex-m7
   2              		.eabi_attribute 28, 1
   3              		.eabi_attribute 20, 1
   4              		.eabi_attribute 21, 1
   5              		.eabi_attribute 23, 3
   6              		.eabi_attribute 24, 1
   7              		.eabi_attribute 25, 1
   8              		.eabi_attribute 26, 1
   9              		.eabi_attribute 30, 6
  10              		.eabi_attribute 34, 1
  11              		.eabi_attribute 18, 4
  12              		.file	"arm_correlate_f32.c"
  13              		.text
  14              	.Ltext0:
  15              		.cfi_sections	.debug_frame
  16              		.section	.text.arm_correlate_f32,"ax",%progbits
  17              		.align	1
  18              		.global	arm_correlate_f32
  19              		.arch armv7e-m
  20              		.syntax unified
  21              		.thumb
  22              		.thumb_func
  23              		.fpu fpv5-d16
  25              	arm_correlate_f32:
  26              	.LFB145:
  27              		.file 1 "./Libraries/CMSIS/DSP/Source/FilteringFunctions/arm_correlate_f32.c"
   1:./Libraries/CMSIS/DSP/Source/FilteringFunctions/arm_correlate_f32.c **** /* ----------------------------------------------------------------------
   2:./Libraries/CMSIS/DSP/Source/FilteringFunctions/arm_correlate_f32.c ****  * Project:      CMSIS DSP Library
   3:./Libraries/CMSIS/DSP/Source/FilteringFunctions/arm_correlate_f32.c ****  * Title:        arm_correlate_f32.c
   4:./Libraries/CMSIS/DSP/Source/FilteringFunctions/arm_correlate_f32.c ****  * Description:  Correlation of floating-point sequences
   5:./Libraries/CMSIS/DSP/Source/FilteringFunctions/arm_correlate_f32.c ****  *
   6:./Libraries/CMSIS/DSP/Source/FilteringFunctions/arm_correlate_f32.c ****  * $Date:        18. March 2019
   7:./Libraries/CMSIS/DSP/Source/FilteringFunctions/arm_correlate_f32.c ****  * $Revision:    V1.6.0
   8:./Libraries/CMSIS/DSP/Source/FilteringFunctions/arm_correlate_f32.c ****  *
   9:./Libraries/CMSIS/DSP/Source/FilteringFunctions/arm_correlate_f32.c ****  * Target Processor: Cortex-M cores
  10:./Libraries/CMSIS/DSP/Source/FilteringFunctions/arm_correlate_f32.c ****  * -------------------------------------------------------------------- */
  11:./Libraries/CMSIS/DSP/Source/FilteringFunctions/arm_correlate_f32.c **** /*
  12:./Libraries/CMSIS/DSP/Source/FilteringFunctions/arm_correlate_f32.c ****  * Copyright (C) 2010-2019 ARM Limited or its affiliates. All rights reserved.
  13:./Libraries/CMSIS/DSP/Source/FilteringFunctions/arm_correlate_f32.c ****  *
  14:./Libraries/CMSIS/DSP/Source/FilteringFunctions/arm_correlate_f32.c ****  * SPDX-License-Identifier: Apache-2.0
  15:./Libraries/CMSIS/DSP/Source/FilteringFunctions/arm_correlate_f32.c ****  *
  16:./Libraries/CMSIS/DSP/Source/FilteringFunctions/arm_correlate_f32.c ****  * Licensed under the Apache License, Version 2.0 (the License); you may
  17:./Libraries/CMSIS/DSP/Source/FilteringFunctions/arm_correlate_f32.c ****  * not use this file except in compliance with the License.
  18:./Libraries/CMSIS/DSP/Source/FilteringFunctions/arm_correlate_f32.c ****  * You may obtain a copy of the License at
  19:./Libraries/CMSIS/DSP/Source/FilteringFunctions/arm_correlate_f32.c ****  *
  20:./Libraries/CMSIS/DSP/Source/FilteringFunctions/arm_correlate_f32.c ****  * www.apache.org/licenses/LICENSE-2.0
  21:./Libraries/CMSIS/DSP/Source/FilteringFunctions/arm_correlate_f32.c ****  *
  22:./Libraries/CMSIS/DSP/Source/FilteringFunctions/arm_correlate_f32.c ****  * Unless required by applicable law or agreed to in writing, software
  23:./Libraries/CMSIS/DSP/Source/FilteringFunctions/arm_correlate_f32.c ****  * distributed under the License is distributed on an AS IS BASIS, WITHOUT
  24:./Libraries/CMSIS/DSP/Source/FilteringFunctions/arm_correlate_f32.c ****  * WARRANTIES OR CONDITIONS OF ANY KIND, either express or implied.
  25:./Libraries/CMSIS/DSP/Source/FilteringFunctions/arm_correlate_f32.c ****  * See the License for the specific language governing permissions and
  26:./Libraries/CMSIS/DSP/Source/FilteringFunctions/arm_correlate_f32.c ****  * limitations under the License.
  27:./Libraries/CMSIS/DSP/Source/FilteringFunctions/arm_correlate_f32.c ****  */
  28:./Libraries/CMSIS/DSP/Source/FilteringFunctions/arm_correlate_f32.c **** 
  29:./Libraries/CMSIS/DSP/Source/FilteringFunctions/arm_correlate_f32.c **** #include "arm_math.h"
  30:./Libraries/CMSIS/DSP/Source/FilteringFunctions/arm_correlate_f32.c **** 
  31:./Libraries/CMSIS/DSP/Source/FilteringFunctions/arm_correlate_f32.c **** /**
ARM GAS  /tmp/ccQymEZf.s 			page 2


  32:./Libraries/CMSIS/DSP/Source/FilteringFunctions/arm_correlate_f32.c ****   @ingroup groupFilters
  33:./Libraries/CMSIS/DSP/Source/FilteringFunctions/arm_correlate_f32.c ****  */
  34:./Libraries/CMSIS/DSP/Source/FilteringFunctions/arm_correlate_f32.c **** 
  35:./Libraries/CMSIS/DSP/Source/FilteringFunctions/arm_correlate_f32.c **** /**
  36:./Libraries/CMSIS/DSP/Source/FilteringFunctions/arm_correlate_f32.c ****   @defgroup Corr Correlation
  37:./Libraries/CMSIS/DSP/Source/FilteringFunctions/arm_correlate_f32.c **** 
  38:./Libraries/CMSIS/DSP/Source/FilteringFunctions/arm_correlate_f32.c ****   Correlation is a mathematical operation that is similar to convolution.
  39:./Libraries/CMSIS/DSP/Source/FilteringFunctions/arm_correlate_f32.c ****   As with convolution, correlation uses two signals to produce a third signal.
  40:./Libraries/CMSIS/DSP/Source/FilteringFunctions/arm_correlate_f32.c ****   The underlying algorithms in correlation and convolution are identical except that one of the inp
  41:./Libraries/CMSIS/DSP/Source/FilteringFunctions/arm_correlate_f32.c ****   Correlation is commonly used to measure the similarity between two signals.
  42:./Libraries/CMSIS/DSP/Source/FilteringFunctions/arm_correlate_f32.c ****   It has applications in pattern recognition, cryptanalysis, and searching.
  43:./Libraries/CMSIS/DSP/Source/FilteringFunctions/arm_correlate_f32.c ****   The CMSIS library provides correlation functions for Q7, Q15, Q31 and floating-point data types.
  44:./Libraries/CMSIS/DSP/Source/FilteringFunctions/arm_correlate_f32.c ****   Fast versions of the Q15 and Q31 functions are also provided.
  45:./Libraries/CMSIS/DSP/Source/FilteringFunctions/arm_correlate_f32.c **** 
  46:./Libraries/CMSIS/DSP/Source/FilteringFunctions/arm_correlate_f32.c ****   @par           Algorithm
  47:./Libraries/CMSIS/DSP/Source/FilteringFunctions/arm_correlate_f32.c ****                    Let <code>a[n]</code> and <code>b[n]</code> be sequences of length <code>srcALen
  48:./Libraries/CMSIS/DSP/Source/FilteringFunctions/arm_correlate_f32.c ****                    The convolution of the two signals is denoted by
  49:./Libraries/CMSIS/DSP/Source/FilteringFunctions/arm_correlate_f32.c ****   <pre>
  50:./Libraries/CMSIS/DSP/Source/FilteringFunctions/arm_correlate_f32.c ****       c[n] = a[n] * b[n]
  51:./Libraries/CMSIS/DSP/Source/FilteringFunctions/arm_correlate_f32.c ****   </pre>
  52:./Libraries/CMSIS/DSP/Source/FilteringFunctions/arm_correlate_f32.c ****                    In correlation, one of the signals is flipped in time
  53:./Libraries/CMSIS/DSP/Source/FilteringFunctions/arm_correlate_f32.c ****   <pre>
  54:./Libraries/CMSIS/DSP/Source/FilteringFunctions/arm_correlate_f32.c ****        c[n] = a[n] * b[-n]
  55:./Libraries/CMSIS/DSP/Source/FilteringFunctions/arm_correlate_f32.c ****   </pre>
  56:./Libraries/CMSIS/DSP/Source/FilteringFunctions/arm_correlate_f32.c ****   @par
  57:./Libraries/CMSIS/DSP/Source/FilteringFunctions/arm_correlate_f32.c ****                    and this is mathematically defined as
  58:./Libraries/CMSIS/DSP/Source/FilteringFunctions/arm_correlate_f32.c ****                    \image html CorrelateEquation.gif
  59:./Libraries/CMSIS/DSP/Source/FilteringFunctions/arm_correlate_f32.c ****   @par
  60:./Libraries/CMSIS/DSP/Source/FilteringFunctions/arm_correlate_f32.c ****                    The <code>pSrcA</code> points to the first input vector of length <code>srcALen<
  61:./Libraries/CMSIS/DSP/Source/FilteringFunctions/arm_correlate_f32.c ****                    The result <code>c[n]</code> is of length <code>2 * max(srcALen, srcBLen) - 1</c
  62:./Libraries/CMSIS/DSP/Source/FilteringFunctions/arm_correlate_f32.c ****                    The output result is written to <code>pDst</code> and the calling function must 
  63:./Libraries/CMSIS/DSP/Source/FilteringFunctions/arm_correlate_f32.c **** 
  64:./Libraries/CMSIS/DSP/Source/FilteringFunctions/arm_correlate_f32.c ****   @note
  65:./Libraries/CMSIS/DSP/Source/FilteringFunctions/arm_correlate_f32.c ****                    The <code>pDst</code> should be initialized to all zeros before being used.
  66:./Libraries/CMSIS/DSP/Source/FilteringFunctions/arm_correlate_f32.c **** 
  67:./Libraries/CMSIS/DSP/Source/FilteringFunctions/arm_correlate_f32.c ****   @par           Fixed-Point Behavior
  68:./Libraries/CMSIS/DSP/Source/FilteringFunctions/arm_correlate_f32.c ****                    Correlation requires summing up a large number of intermediate products.
  69:./Libraries/CMSIS/DSP/Source/FilteringFunctions/arm_correlate_f32.c ****                    As such, the Q7, Q15, and Q31 functions run a risk of overflow and saturation.
  70:./Libraries/CMSIS/DSP/Source/FilteringFunctions/arm_correlate_f32.c ****                    Refer to the function specific documentation below for further details of the pa
  71:./Libraries/CMSIS/DSP/Source/FilteringFunctions/arm_correlate_f32.c **** 
  72:./Libraries/CMSIS/DSP/Source/FilteringFunctions/arm_correlate_f32.c ****   @par           Fast Versions
  73:./Libraries/CMSIS/DSP/Source/FilteringFunctions/arm_correlate_f32.c ****                    Fast versions are supported for Q31 and Q15.  Cycles for Fast versions are less 
  74:./Libraries/CMSIS/DSP/Source/FilteringFunctions/arm_correlate_f32.c ****                    the input signals should be scaled down to avoid intermediate overflows.
  75:./Libraries/CMSIS/DSP/Source/FilteringFunctions/arm_correlate_f32.c **** 
  76:./Libraries/CMSIS/DSP/Source/FilteringFunctions/arm_correlate_f32.c ****   @par           Opt Versions
  77:./Libraries/CMSIS/DSP/Source/FilteringFunctions/arm_correlate_f32.c ****                    Opt versions are supported for Q15 and Q7.  Design uses internal scratch buffer 
  78:./Libraries/CMSIS/DSP/Source/FilteringFunctions/arm_correlate_f32.c ****                    These versions are optimised in cycles and consumes more memory (Scratch memory)
  79:./Libraries/CMSIS/DSP/Source/FilteringFunctions/arm_correlate_f32.c ****  */
  80:./Libraries/CMSIS/DSP/Source/FilteringFunctions/arm_correlate_f32.c **** 
  81:./Libraries/CMSIS/DSP/Source/FilteringFunctions/arm_correlate_f32.c **** /**
  82:./Libraries/CMSIS/DSP/Source/FilteringFunctions/arm_correlate_f32.c ****   @addtogroup Corr
  83:./Libraries/CMSIS/DSP/Source/FilteringFunctions/arm_correlate_f32.c ****   @{
  84:./Libraries/CMSIS/DSP/Source/FilteringFunctions/arm_correlate_f32.c ****  */
  85:./Libraries/CMSIS/DSP/Source/FilteringFunctions/arm_correlate_f32.c **** 
  86:./Libraries/CMSIS/DSP/Source/FilteringFunctions/arm_correlate_f32.c **** /**
  87:./Libraries/CMSIS/DSP/Source/FilteringFunctions/arm_correlate_f32.c ****   @brief         Correlation of floating-point sequences.
  88:./Libraries/CMSIS/DSP/Source/FilteringFunctions/arm_correlate_f32.c ****   @param[in]     pSrcA      points to the first input sequence
ARM GAS  /tmp/ccQymEZf.s 			page 3


  89:./Libraries/CMSIS/DSP/Source/FilteringFunctions/arm_correlate_f32.c ****   @param[in]     srcALen    length of the first input sequence
  90:./Libraries/CMSIS/DSP/Source/FilteringFunctions/arm_correlate_f32.c ****   @param[in]     pSrcB      points to the second input sequence
  91:./Libraries/CMSIS/DSP/Source/FilteringFunctions/arm_correlate_f32.c ****   @param[in]     srcBLen    length of the second input sequence
  92:./Libraries/CMSIS/DSP/Source/FilteringFunctions/arm_correlate_f32.c ****   @param[out]    pDst       points to the location where the output result is written.  Length 2 * 
  93:./Libraries/CMSIS/DSP/Source/FilteringFunctions/arm_correlate_f32.c ****   @return        none
  94:./Libraries/CMSIS/DSP/Source/FilteringFunctions/arm_correlate_f32.c ****  */
  95:./Libraries/CMSIS/DSP/Source/FilteringFunctions/arm_correlate_f32.c **** 
  96:./Libraries/CMSIS/DSP/Source/FilteringFunctions/arm_correlate_f32.c **** void arm_correlate_f32(
  97:./Libraries/CMSIS/DSP/Source/FilteringFunctions/arm_correlate_f32.c ****   const float32_t * pSrcA,
  98:./Libraries/CMSIS/DSP/Source/FilteringFunctions/arm_correlate_f32.c ****         uint32_t srcALen,
  99:./Libraries/CMSIS/DSP/Source/FilteringFunctions/arm_correlate_f32.c ****   const float32_t * pSrcB,
 100:./Libraries/CMSIS/DSP/Source/FilteringFunctions/arm_correlate_f32.c ****         uint32_t srcBLen,
 101:./Libraries/CMSIS/DSP/Source/FilteringFunctions/arm_correlate_f32.c ****         float32_t * pDst)
 102:./Libraries/CMSIS/DSP/Source/FilteringFunctions/arm_correlate_f32.c **** {
  28              		.loc 1 102 1
  29              		.cfi_startproc
  30              		@ args = 4, pretend = 0, frame = 80
  31              		@ frame_needed = 1, uses_anonymous_args = 0
  32              		@ link register save eliminated.
  33 0000 80B4     		push	{r7}
  34              	.LCFI0:
  35              		.cfi_def_cfa_offset 4
  36              		.cfi_offset 7, -4
  37 0002 95B0     		sub	sp, sp, #84
  38              	.LCFI1:
  39              		.cfi_def_cfa_offset 88
  40 0004 00AF     		add	r7, sp, #0
  41              	.LCFI2:
  42              		.cfi_def_cfa_register 7
  43 0006 F860     		str	r0, [r7, #12]
  44 0008 B960     		str	r1, [r7, #8]
  45 000a 7A60     		str	r2, [r7, #4]
  46 000c 3B60     		str	r3, [r7]
 103:./Libraries/CMSIS/DSP/Source/FilteringFunctions/arm_correlate_f32.c **** 
 104:./Libraries/CMSIS/DSP/Source/FilteringFunctions/arm_correlate_f32.c **** #if (1)
 105:./Libraries/CMSIS/DSP/Source/FilteringFunctions/arm_correlate_f32.c **** //#if !defined(ARM_MATH_CM0_FAMILY)
 106:./Libraries/CMSIS/DSP/Source/FilteringFunctions/arm_correlate_f32.c ****   
 107:./Libraries/CMSIS/DSP/Source/FilteringFunctions/arm_correlate_f32.c ****   const float32_t *pIn1;                               /* InputA pointer */
 108:./Libraries/CMSIS/DSP/Source/FilteringFunctions/arm_correlate_f32.c ****   const float32_t *pIn2;                               /* InputB pointer */
 109:./Libraries/CMSIS/DSP/Source/FilteringFunctions/arm_correlate_f32.c ****         float32_t *pOut = pDst;                        /* Output pointer */
  47              		.loc 1 109 20
  48 000e BB6D     		ldr	r3, [r7, #88]
  49 0010 7B64     		str	r3, [r7, #68]
 110:./Libraries/CMSIS/DSP/Source/FilteringFunctions/arm_correlate_f32.c ****   const float32_t *px;                                 /* Intermediate inputA pointer */
 111:./Libraries/CMSIS/DSP/Source/FilteringFunctions/arm_correlate_f32.c ****   const float32_t *py;                                 /* Intermediate inputB pointer */
 112:./Libraries/CMSIS/DSP/Source/FilteringFunctions/arm_correlate_f32.c ****   const float32_t *pSrc1;
 113:./Libraries/CMSIS/DSP/Source/FilteringFunctions/arm_correlate_f32.c ****         float32_t sum;
 114:./Libraries/CMSIS/DSP/Source/FilteringFunctions/arm_correlate_f32.c ****         uint32_t blockSize1, blockSize2, blockSize3;   /* Loop counters */
 115:./Libraries/CMSIS/DSP/Source/FilteringFunctions/arm_correlate_f32.c ****         uint32_t j, k, count, blkCnt;                  /* Loop counters */
 116:./Libraries/CMSIS/DSP/Source/FilteringFunctions/arm_correlate_f32.c ****         uint32_t outBlockSize;                         /* Loop counter */
 117:./Libraries/CMSIS/DSP/Source/FilteringFunctions/arm_correlate_f32.c ****         int32_t inc = 1;                               /* Destination address modifier */
  50              		.loc 1 117 17
  51 0012 0123     		movs	r3, #1
  52 0014 FB61     		str	r3, [r7, #28]
 118:./Libraries/CMSIS/DSP/Source/FilteringFunctions/arm_correlate_f32.c **** 
 119:./Libraries/CMSIS/DSP/Source/FilteringFunctions/arm_correlate_f32.c **** #if defined (ARM_MATH_LOOPUNROLL) || defined (ARM_MATH_NEON)
 120:./Libraries/CMSIS/DSP/Source/FilteringFunctions/arm_correlate_f32.c ****   float32_t acc0, acc1, acc2, acc3;                    /* Accumulators */
ARM GAS  /tmp/ccQymEZf.s 			page 4


 121:./Libraries/CMSIS/DSP/Source/FilteringFunctions/arm_correlate_f32.c ****   float32_t x0, x1, x2, x3, c0;                        /* temporary variables for holding input and
 122:./Libraries/CMSIS/DSP/Source/FilteringFunctions/arm_correlate_f32.c **** #endif
 123:./Libraries/CMSIS/DSP/Source/FilteringFunctions/arm_correlate_f32.c **** 
 124:./Libraries/CMSIS/DSP/Source/FilteringFunctions/arm_correlate_f32.c ****   /* The algorithm implementation is based on the lengths of the inputs. */
 125:./Libraries/CMSIS/DSP/Source/FilteringFunctions/arm_correlate_f32.c ****   /* srcB is always made to slide across srcA. */
 126:./Libraries/CMSIS/DSP/Source/FilteringFunctions/arm_correlate_f32.c ****   /* So srcBLen is always considered as shorter or equal to srcALen */
 127:./Libraries/CMSIS/DSP/Source/FilteringFunctions/arm_correlate_f32.c ****   /* But CORR(x, y) is reverse of CORR(y, x) */
 128:./Libraries/CMSIS/DSP/Source/FilteringFunctions/arm_correlate_f32.c ****   /* So, when srcBLen > srcALen, output pointer is made to point to the end of the output buffer */
 129:./Libraries/CMSIS/DSP/Source/FilteringFunctions/arm_correlate_f32.c ****   /* and the destination pointer modifier, inc is set to -1 */
 130:./Libraries/CMSIS/DSP/Source/FilteringFunctions/arm_correlate_f32.c ****   /* If srcALen > srcBLen, zero pad has to be done to srcB to make the two inputs of same length */
 131:./Libraries/CMSIS/DSP/Source/FilteringFunctions/arm_correlate_f32.c ****   /* But to improve the performance,
 132:./Libraries/CMSIS/DSP/Source/FilteringFunctions/arm_correlate_f32.c ****    * we assume zeroes in the output instead of zero padding either of the the inputs*/
 133:./Libraries/CMSIS/DSP/Source/FilteringFunctions/arm_correlate_f32.c ****   /* If srcALen > srcBLen,
 134:./Libraries/CMSIS/DSP/Source/FilteringFunctions/arm_correlate_f32.c ****    * (srcALen - srcBLen) zeroes has to included in the starting of the output buffer */
 135:./Libraries/CMSIS/DSP/Source/FilteringFunctions/arm_correlate_f32.c ****   /* If srcALen < srcBLen,
 136:./Libraries/CMSIS/DSP/Source/FilteringFunctions/arm_correlate_f32.c ****    * (srcALen - srcBLen) zeroes has to included in the ending of the output buffer */
 137:./Libraries/CMSIS/DSP/Source/FilteringFunctions/arm_correlate_f32.c ****   if (srcALen >= srcBLen)
  53              		.loc 1 137 6
  54 0016 BA68     		ldr	r2, [r7, #8]
  55 0018 3B68     		ldr	r3, [r7]
  56 001a 9A42     		cmp	r2, r3
  57 001c 14D3     		bcc	.L2
 138:./Libraries/CMSIS/DSP/Source/FilteringFunctions/arm_correlate_f32.c ****   {
 139:./Libraries/CMSIS/DSP/Source/FilteringFunctions/arm_correlate_f32.c ****     /* Initialization of inputA pointer */
 140:./Libraries/CMSIS/DSP/Source/FilteringFunctions/arm_correlate_f32.c ****     pIn1 = pSrcA;
  58              		.loc 1 140 10
  59 001e FB68     		ldr	r3, [r7, #12]
  60 0020 FB64     		str	r3, [r7, #76]
 141:./Libraries/CMSIS/DSP/Source/FilteringFunctions/arm_correlate_f32.c **** 
 142:./Libraries/CMSIS/DSP/Source/FilteringFunctions/arm_correlate_f32.c ****     /* Initialization of inputB pointer */
 143:./Libraries/CMSIS/DSP/Source/FilteringFunctions/arm_correlate_f32.c ****     pIn2 = pSrcB;
  61              		.loc 1 143 10
  62 0022 7B68     		ldr	r3, [r7, #4]
  63 0024 BB64     		str	r3, [r7, #72]
 144:./Libraries/CMSIS/DSP/Source/FilteringFunctions/arm_correlate_f32.c **** 
 145:./Libraries/CMSIS/DSP/Source/FilteringFunctions/arm_correlate_f32.c ****     /* Number of output samples is calculated */
 146:./Libraries/CMSIS/DSP/Source/FilteringFunctions/arm_correlate_f32.c ****     outBlockSize = (2U * srcALen) - 1U;
  64              		.loc 1 146 24
  65 0026 BB68     		ldr	r3, [r7, #8]
  66 0028 5B00     		lsls	r3, r3, #1
  67              		.loc 1 146 18
  68 002a 013B     		subs	r3, r3, #1
  69 002c 7B61     		str	r3, [r7, #20]
 147:./Libraries/CMSIS/DSP/Source/FilteringFunctions/arm_correlate_f32.c **** 
 148:./Libraries/CMSIS/DSP/Source/FilteringFunctions/arm_correlate_f32.c ****     /* When srcALen > srcBLen, zero padding has to be done to srcB
 149:./Libraries/CMSIS/DSP/Source/FilteringFunctions/arm_correlate_f32.c ****      * to make their lengths equal.
 150:./Libraries/CMSIS/DSP/Source/FilteringFunctions/arm_correlate_f32.c ****      * Instead, (outBlockSize - (srcALen + srcBLen - 1))
 151:./Libraries/CMSIS/DSP/Source/FilteringFunctions/arm_correlate_f32.c ****      * number of output samples are made zero */
 152:./Libraries/CMSIS/DSP/Source/FilteringFunctions/arm_correlate_f32.c ****     j = outBlockSize - (srcALen + (srcBLen - 1U));
  70              		.loc 1 152 33
  71 002e 3A68     		ldr	r2, [r7]
  72 0030 BB68     		ldr	r3, [r7, #8]
  73 0032 1344     		add	r3, r3, r2
  74              		.loc 1 152 22
  75 0034 7A69     		ldr	r2, [r7, #20]
  76 0036 D31A     		subs	r3, r2, r3
  77              		.loc 1 152 7
ARM GAS  /tmp/ccQymEZf.s 			page 5


  78 0038 0133     		adds	r3, r3, #1
  79 003a BB61     		str	r3, [r7, #24]
 153:./Libraries/CMSIS/DSP/Source/FilteringFunctions/arm_correlate_f32.c **** 
 154:./Libraries/CMSIS/DSP/Source/FilteringFunctions/arm_correlate_f32.c ****     /* Updating the pointer position to non zero value */
 155:./Libraries/CMSIS/DSP/Source/FilteringFunctions/arm_correlate_f32.c ****     pOut += j;
  80              		.loc 1 155 10
  81 003c BB69     		ldr	r3, [r7, #24]
  82 003e 9B00     		lsls	r3, r3, #2
  83 0040 7A6C     		ldr	r2, [r7, #68]
  84 0042 1344     		add	r3, r3, r2
  85 0044 7B64     		str	r3, [r7, #68]
  86 0046 15E0     		b	.L3
  87              	.L2:
 156:./Libraries/CMSIS/DSP/Source/FilteringFunctions/arm_correlate_f32.c ****   }
 157:./Libraries/CMSIS/DSP/Source/FilteringFunctions/arm_correlate_f32.c ****   else
 158:./Libraries/CMSIS/DSP/Source/FilteringFunctions/arm_correlate_f32.c ****   {
 159:./Libraries/CMSIS/DSP/Source/FilteringFunctions/arm_correlate_f32.c ****     /* Initialization of inputA pointer */
 160:./Libraries/CMSIS/DSP/Source/FilteringFunctions/arm_correlate_f32.c ****     pIn1 = pSrcB;
  88              		.loc 1 160 10
  89 0048 7B68     		ldr	r3, [r7, #4]
  90 004a FB64     		str	r3, [r7, #76]
 161:./Libraries/CMSIS/DSP/Source/FilteringFunctions/arm_correlate_f32.c **** 
 162:./Libraries/CMSIS/DSP/Source/FilteringFunctions/arm_correlate_f32.c ****     /* Initialization of inputB pointer */
 163:./Libraries/CMSIS/DSP/Source/FilteringFunctions/arm_correlate_f32.c ****     pIn2 = pSrcA;
  91              		.loc 1 163 10
  92 004c FB68     		ldr	r3, [r7, #12]
  93 004e BB64     		str	r3, [r7, #72]
 164:./Libraries/CMSIS/DSP/Source/FilteringFunctions/arm_correlate_f32.c **** 
 165:./Libraries/CMSIS/DSP/Source/FilteringFunctions/arm_correlate_f32.c ****     /* srcBLen is always considered as shorter or equal to srcALen */
 166:./Libraries/CMSIS/DSP/Source/FilteringFunctions/arm_correlate_f32.c ****     j = srcBLen;
  94              		.loc 1 166 7
  95 0050 3B68     		ldr	r3, [r7]
  96 0052 BB61     		str	r3, [r7, #24]
 167:./Libraries/CMSIS/DSP/Source/FilteringFunctions/arm_correlate_f32.c ****     srcBLen = srcALen;
  97              		.loc 1 167 13
  98 0054 BB68     		ldr	r3, [r7, #8]
  99 0056 3B60     		str	r3, [r7]
 168:./Libraries/CMSIS/DSP/Source/FilteringFunctions/arm_correlate_f32.c ****     srcALen = j;
 100              		.loc 1 168 13
 101 0058 BB69     		ldr	r3, [r7, #24]
 102 005a BB60     		str	r3, [r7, #8]
 169:./Libraries/CMSIS/DSP/Source/FilteringFunctions/arm_correlate_f32.c **** 
 170:./Libraries/CMSIS/DSP/Source/FilteringFunctions/arm_correlate_f32.c ****     /* CORR(x, y) = Reverse order(CORR(y, x)) */
 171:./Libraries/CMSIS/DSP/Source/FilteringFunctions/arm_correlate_f32.c ****     /* Hence set the destination pointer to point to the last output sample */
 172:./Libraries/CMSIS/DSP/Source/FilteringFunctions/arm_correlate_f32.c ****     pOut = pDst + ((srcALen + srcBLen) - 2U);
 103              		.loc 1 172 29
 104 005c BA68     		ldr	r2, [r7, #8]
 105 005e 3B68     		ldr	r3, [r7]
 106 0060 1A44     		add	r2, r2, r3
 107              		.loc 1 172 17
 108 0062 914B     		ldr	r3, .L22
 109 0064 1344     		add	r3, r3, r2
 110 0066 9B00     		lsls	r3, r3, #2
 111              		.loc 1 172 10
 112 0068 BA6D     		ldr	r2, [r7, #88]
 113 006a 1344     		add	r3, r3, r2
 114 006c 7B64     		str	r3, [r7, #68]
ARM GAS  /tmp/ccQymEZf.s 			page 6


 173:./Libraries/CMSIS/DSP/Source/FilteringFunctions/arm_correlate_f32.c **** 
 174:./Libraries/CMSIS/DSP/Source/FilteringFunctions/arm_correlate_f32.c ****     /* Destination address modifier is set to -1 */
 175:./Libraries/CMSIS/DSP/Source/FilteringFunctions/arm_correlate_f32.c ****     inc = -1;
 115              		.loc 1 175 9
 116 006e 4FF0FF33 		mov	r3, #-1
 117 0072 FB61     		str	r3, [r7, #28]
 118              	.L3:
 176:./Libraries/CMSIS/DSP/Source/FilteringFunctions/arm_correlate_f32.c ****   }
 177:./Libraries/CMSIS/DSP/Source/FilteringFunctions/arm_correlate_f32.c **** 
 178:./Libraries/CMSIS/DSP/Source/FilteringFunctions/arm_correlate_f32.c ****   /* The function is internally
 179:./Libraries/CMSIS/DSP/Source/FilteringFunctions/arm_correlate_f32.c ****    * divided into three stages according to the number of multiplications that has to be
 180:./Libraries/CMSIS/DSP/Source/FilteringFunctions/arm_correlate_f32.c ****    * taken place between inputA samples and inputB samples. In the first stage of the
 181:./Libraries/CMSIS/DSP/Source/FilteringFunctions/arm_correlate_f32.c ****    * algorithm, the multiplications increase by one for every iteration.
 182:./Libraries/CMSIS/DSP/Source/FilteringFunctions/arm_correlate_f32.c ****    * In the second stage of the algorithm, srcBLen number of multiplications are done.
 183:./Libraries/CMSIS/DSP/Source/FilteringFunctions/arm_correlate_f32.c ****    * In the third stage of the algorithm, the multiplications decrease by one
 184:./Libraries/CMSIS/DSP/Source/FilteringFunctions/arm_correlate_f32.c ****    * for every iteration. */
 185:./Libraries/CMSIS/DSP/Source/FilteringFunctions/arm_correlate_f32.c **** 
 186:./Libraries/CMSIS/DSP/Source/FilteringFunctions/arm_correlate_f32.c ****   /* The algorithm is implemented in three stages.
 187:./Libraries/CMSIS/DSP/Source/FilteringFunctions/arm_correlate_f32.c ****      The loop counters of each stage is initiated here. */
 188:./Libraries/CMSIS/DSP/Source/FilteringFunctions/arm_correlate_f32.c ****   blockSize1 = srcBLen - 1U;
 119              		.loc 1 188 14
 120 0074 3B68     		ldr	r3, [r7]
 121 0076 013B     		subs	r3, r3, #1
 122 0078 3B63     		str	r3, [r7, #48]
 189:./Libraries/CMSIS/DSP/Source/FilteringFunctions/arm_correlate_f32.c ****   blockSize2 = srcALen - (srcBLen - 1U);
 123              		.loc 1 189 24
 124 007a BA68     		ldr	r2, [r7, #8]
 125 007c 3B68     		ldr	r3, [r7]
 126 007e D31A     		subs	r3, r2, r3
 127              		.loc 1 189 14
 128 0080 0133     		adds	r3, r3, #1
 129 0082 3B61     		str	r3, [r7, #16]
 190:./Libraries/CMSIS/DSP/Source/FilteringFunctions/arm_correlate_f32.c ****   blockSize3 = blockSize1;
 130              		.loc 1 190 14
 131 0084 3B6B     		ldr	r3, [r7, #48]
 132 0086 FB62     		str	r3, [r7, #44]
 191:./Libraries/CMSIS/DSP/Source/FilteringFunctions/arm_correlate_f32.c **** 
 192:./Libraries/CMSIS/DSP/Source/FilteringFunctions/arm_correlate_f32.c ****   /* --------------------------
 193:./Libraries/CMSIS/DSP/Source/FilteringFunctions/arm_correlate_f32.c ****    * Initializations of stage1
 194:./Libraries/CMSIS/DSP/Source/FilteringFunctions/arm_correlate_f32.c ****    * -------------------------*/
 195:./Libraries/CMSIS/DSP/Source/FilteringFunctions/arm_correlate_f32.c **** 
 196:./Libraries/CMSIS/DSP/Source/FilteringFunctions/arm_correlate_f32.c ****   /* sum = x[0] * y[srcBlen - 1]
 197:./Libraries/CMSIS/DSP/Source/FilteringFunctions/arm_correlate_f32.c ****    * sum = x[0] * y[srcBlen-2] + x[1] * y[srcBlen - 1]
 198:./Libraries/CMSIS/DSP/Source/FilteringFunctions/arm_correlate_f32.c ****    * ....
 199:./Libraries/CMSIS/DSP/Source/FilteringFunctions/arm_correlate_f32.c ****    * sum = x[0] * y[0] + x[1] * y[1] +...+ x[srcBLen - 1] * y[srcBLen - 1]
 200:./Libraries/CMSIS/DSP/Source/FilteringFunctions/arm_correlate_f32.c ****    */
 201:./Libraries/CMSIS/DSP/Source/FilteringFunctions/arm_correlate_f32.c **** 
 202:./Libraries/CMSIS/DSP/Source/FilteringFunctions/arm_correlate_f32.c ****   /* In this stage the MAC operations are increased by 1 for every iteration.
 203:./Libraries/CMSIS/DSP/Source/FilteringFunctions/arm_correlate_f32.c ****      The count variable holds the number of MAC operations performed */
 204:./Libraries/CMSIS/DSP/Source/FilteringFunctions/arm_correlate_f32.c ****   count = 1U;
 133              		.loc 1 204 9
 134 0088 0123     		movs	r3, #1
 135 008a 7B62     		str	r3, [r7, #36]
 205:./Libraries/CMSIS/DSP/Source/FilteringFunctions/arm_correlate_f32.c **** 
 206:./Libraries/CMSIS/DSP/Source/FilteringFunctions/arm_correlate_f32.c ****   /* Working pointer of inputA */
 207:./Libraries/CMSIS/DSP/Source/FilteringFunctions/arm_correlate_f32.c ****   px = pIn1;
 136              		.loc 1 207 6
ARM GAS  /tmp/ccQymEZf.s 			page 7


 137 008c FB6C     		ldr	r3, [r7, #76]
 138 008e 3B64     		str	r3, [r7, #64]
 208:./Libraries/CMSIS/DSP/Source/FilteringFunctions/arm_correlate_f32.c **** 
 209:./Libraries/CMSIS/DSP/Source/FilteringFunctions/arm_correlate_f32.c ****   /* Working pointer of inputB */
 210:./Libraries/CMSIS/DSP/Source/FilteringFunctions/arm_correlate_f32.c ****   pSrc1 = pIn2 + (srcBLen - 1U);
 139              		.loc 1 210 16
 140 0090 3A68     		ldr	r2, [r7]
 141 0092 6FF04043 		mvn	r3, #-1073741824
 142 0096 1344     		add	r3, r3, r2
 143 0098 9B00     		lsls	r3, r3, #2
 144              		.loc 1 210 9
 145 009a BA6C     		ldr	r2, [r7, #72]
 146 009c 1344     		add	r3, r3, r2
 147 009e BB63     		str	r3, [r7, #56]
 211:./Libraries/CMSIS/DSP/Source/FilteringFunctions/arm_correlate_f32.c ****   py = pSrc1;
 148              		.loc 1 211 6
 149 00a0 BB6B     		ldr	r3, [r7, #56]
 150 00a2 FB63     		str	r3, [r7, #60]
 212:./Libraries/CMSIS/DSP/Source/FilteringFunctions/arm_correlate_f32.c **** 
 213:./Libraries/CMSIS/DSP/Source/FilteringFunctions/arm_correlate_f32.c ****   /* ------------------------
 214:./Libraries/CMSIS/DSP/Source/FilteringFunctions/arm_correlate_f32.c ****    * Stage1 process
 215:./Libraries/CMSIS/DSP/Source/FilteringFunctions/arm_correlate_f32.c ****    * ----------------------*/
 216:./Libraries/CMSIS/DSP/Source/FilteringFunctions/arm_correlate_f32.c **** 
 217:./Libraries/CMSIS/DSP/Source/FilteringFunctions/arm_correlate_f32.c ****   /* The first stage starts here */
 218:./Libraries/CMSIS/DSP/Source/FilteringFunctions/arm_correlate_f32.c ****   while (blockSize1 > 0U)
 151              		.loc 1 218 9
 152 00a4 33E0     		b	.L4
 153              	.L7:
 219:./Libraries/CMSIS/DSP/Source/FilteringFunctions/arm_correlate_f32.c ****   {
 220:./Libraries/CMSIS/DSP/Source/FilteringFunctions/arm_correlate_f32.c ****     /* Accumulator is made zero for every iteration */
 221:./Libraries/CMSIS/DSP/Source/FilteringFunctions/arm_correlate_f32.c ****     sum = 0.0f;
 154              		.loc 1 221 9
 155 00a6 4FF00003 		mov	r3, #0
 156 00aa 7B63     		str	r3, [r7, #52]	@ float
 222:./Libraries/CMSIS/DSP/Source/FilteringFunctions/arm_correlate_f32.c **** 
 223:./Libraries/CMSIS/DSP/Source/FilteringFunctions/arm_correlate_f32.c **** #if defined (ARM_MATH_LOOPUNROLL) || defined(ARM_MATH_NEON)
 224:./Libraries/CMSIS/DSP/Source/FilteringFunctions/arm_correlate_f32.c **** 
 225:./Libraries/CMSIS/DSP/Source/FilteringFunctions/arm_correlate_f32.c ****     /* Loop unrolling: Compute 4 outputs at a time */
 226:./Libraries/CMSIS/DSP/Source/FilteringFunctions/arm_correlate_f32.c ****     k = count >> 2U;
 227:./Libraries/CMSIS/DSP/Source/FilteringFunctions/arm_correlate_f32.c **** 
 228:./Libraries/CMSIS/DSP/Source/FilteringFunctions/arm_correlate_f32.c **** #if defined(ARM_MATH_NEON)
 229:./Libraries/CMSIS/DSP/Source/FilteringFunctions/arm_correlate_f32.c ****     float32x4_t x,y;
 230:./Libraries/CMSIS/DSP/Source/FilteringFunctions/arm_correlate_f32.c ****     float32x4_t res = vdupq_n_f32(0) ;
 231:./Libraries/CMSIS/DSP/Source/FilteringFunctions/arm_correlate_f32.c ****     float32x2_t accum = vdup_n_f32(0);
 232:./Libraries/CMSIS/DSP/Source/FilteringFunctions/arm_correlate_f32.c **** 
 233:./Libraries/CMSIS/DSP/Source/FilteringFunctions/arm_correlate_f32.c ****     while (k > 0U)
 234:./Libraries/CMSIS/DSP/Source/FilteringFunctions/arm_correlate_f32.c ****     {
 235:./Libraries/CMSIS/DSP/Source/FilteringFunctions/arm_correlate_f32.c ****       x = vld1q_f32(px);
 236:./Libraries/CMSIS/DSP/Source/FilteringFunctions/arm_correlate_f32.c ****       y = vld1q_f32(py);
 237:./Libraries/CMSIS/DSP/Source/FilteringFunctions/arm_correlate_f32.c **** 
 238:./Libraries/CMSIS/DSP/Source/FilteringFunctions/arm_correlate_f32.c ****       res = vmlaq_f32(res,x, y);
 239:./Libraries/CMSIS/DSP/Source/FilteringFunctions/arm_correlate_f32.c **** 
 240:./Libraries/CMSIS/DSP/Source/FilteringFunctions/arm_correlate_f32.c ****       px += 4;
 241:./Libraries/CMSIS/DSP/Source/FilteringFunctions/arm_correlate_f32.c ****       py += 4;
 242:./Libraries/CMSIS/DSP/Source/FilteringFunctions/arm_correlate_f32.c **** 
 243:./Libraries/CMSIS/DSP/Source/FilteringFunctions/arm_correlate_f32.c ****       /* Decrement the loop counter */
 244:./Libraries/CMSIS/DSP/Source/FilteringFunctions/arm_correlate_f32.c ****       k--;
ARM GAS  /tmp/ccQymEZf.s 			page 8


 245:./Libraries/CMSIS/DSP/Source/FilteringFunctions/arm_correlate_f32.c ****     }
 246:./Libraries/CMSIS/DSP/Source/FilteringFunctions/arm_correlate_f32.c **** 
 247:./Libraries/CMSIS/DSP/Source/FilteringFunctions/arm_correlate_f32.c ****     accum = vpadd_f32(vget_low_f32(res), vget_high_f32(res));
 248:./Libraries/CMSIS/DSP/Source/FilteringFunctions/arm_correlate_f32.c ****     sum += accum[0] + accum[1];
 249:./Libraries/CMSIS/DSP/Source/FilteringFunctions/arm_correlate_f32.c **** 
 250:./Libraries/CMSIS/DSP/Source/FilteringFunctions/arm_correlate_f32.c ****     k = count & 0x3;
 251:./Libraries/CMSIS/DSP/Source/FilteringFunctions/arm_correlate_f32.c **** #else
 252:./Libraries/CMSIS/DSP/Source/FilteringFunctions/arm_correlate_f32.c ****     /* First part of the processing with loop unrolling.  Compute 4 MACs at a time.
 253:./Libraries/CMSIS/DSP/Source/FilteringFunctions/arm_correlate_f32.c ****      ** a second loop below computes MACs for the remaining 1 to 3 samples. */
 254:./Libraries/CMSIS/DSP/Source/FilteringFunctions/arm_correlate_f32.c ****     while (k > 0U)
 255:./Libraries/CMSIS/DSP/Source/FilteringFunctions/arm_correlate_f32.c ****     {
 256:./Libraries/CMSIS/DSP/Source/FilteringFunctions/arm_correlate_f32.c ****       /* x[0] * y[srcBLen - 4] */
 257:./Libraries/CMSIS/DSP/Source/FilteringFunctions/arm_correlate_f32.c ****       sum += *px++ * *py++;
 258:./Libraries/CMSIS/DSP/Source/FilteringFunctions/arm_correlate_f32.c **** 
 259:./Libraries/CMSIS/DSP/Source/FilteringFunctions/arm_correlate_f32.c ****       /* x[1] * y[srcBLen - 3] */
 260:./Libraries/CMSIS/DSP/Source/FilteringFunctions/arm_correlate_f32.c ****       sum += *px++ * *py++;
 261:./Libraries/CMSIS/DSP/Source/FilteringFunctions/arm_correlate_f32.c **** 
 262:./Libraries/CMSIS/DSP/Source/FilteringFunctions/arm_correlate_f32.c ****       /* x[2] * y[srcBLen - 2] */
 263:./Libraries/CMSIS/DSP/Source/FilteringFunctions/arm_correlate_f32.c ****       sum += *px++ * *py++;
 264:./Libraries/CMSIS/DSP/Source/FilteringFunctions/arm_correlate_f32.c **** 
 265:./Libraries/CMSIS/DSP/Source/FilteringFunctions/arm_correlate_f32.c ****       /* x[3] * y[srcBLen - 1] */
 266:./Libraries/CMSIS/DSP/Source/FilteringFunctions/arm_correlate_f32.c ****       sum += *px++ * *py++;
 267:./Libraries/CMSIS/DSP/Source/FilteringFunctions/arm_correlate_f32.c **** 
 268:./Libraries/CMSIS/DSP/Source/FilteringFunctions/arm_correlate_f32.c ****       /* Decrement loop counter */
 269:./Libraries/CMSIS/DSP/Source/FilteringFunctions/arm_correlate_f32.c ****       k--;
 270:./Libraries/CMSIS/DSP/Source/FilteringFunctions/arm_correlate_f32.c ****     }
 271:./Libraries/CMSIS/DSP/Source/FilteringFunctions/arm_correlate_f32.c **** 
 272:./Libraries/CMSIS/DSP/Source/FilteringFunctions/arm_correlate_f32.c ****     /* Loop unrolling: Compute remaining outputs */
 273:./Libraries/CMSIS/DSP/Source/FilteringFunctions/arm_correlate_f32.c ****     k = count % 0x4U;
 274:./Libraries/CMSIS/DSP/Source/FilteringFunctions/arm_correlate_f32.c **** 
 275:./Libraries/CMSIS/DSP/Source/FilteringFunctions/arm_correlate_f32.c **** #endif /* #if defined(ARM_MATH_NEON) */
 276:./Libraries/CMSIS/DSP/Source/FilteringFunctions/arm_correlate_f32.c **** #else
 277:./Libraries/CMSIS/DSP/Source/FilteringFunctions/arm_correlate_f32.c **** 
 278:./Libraries/CMSIS/DSP/Source/FilteringFunctions/arm_correlate_f32.c ****     /* Initialize k with number of samples */
 279:./Libraries/CMSIS/DSP/Source/FilteringFunctions/arm_correlate_f32.c ****     k = count;
 157              		.loc 1 279 7
 158 00ac 7B6A     		ldr	r3, [r7, #36]
 159 00ae BB62     		str	r3, [r7, #40]
 280:./Libraries/CMSIS/DSP/Source/FilteringFunctions/arm_correlate_f32.c **** 
 281:./Libraries/CMSIS/DSP/Source/FilteringFunctions/arm_correlate_f32.c **** #endif /* #if defined (ARM_MATH_LOOPUNROLL) || defined(ARM_MATH_NEON) */
 282:./Libraries/CMSIS/DSP/Source/FilteringFunctions/arm_correlate_f32.c **** 
 283:./Libraries/CMSIS/DSP/Source/FilteringFunctions/arm_correlate_f32.c ****     while (k > 0U)
 160              		.loc 1 283 11
 161 00b0 14E0     		b	.L5
 162              	.L6:
 284:./Libraries/CMSIS/DSP/Source/FilteringFunctions/arm_correlate_f32.c ****     {
 285:./Libraries/CMSIS/DSP/Source/FilteringFunctions/arm_correlate_f32.c ****       /* Perform the multiply-accumulate */
 286:./Libraries/CMSIS/DSP/Source/FilteringFunctions/arm_correlate_f32.c ****       /* x[0] * y[srcBLen - 1] */
 287:./Libraries/CMSIS/DSP/Source/FilteringFunctions/arm_correlate_f32.c ****       sum += *px++ * *py++;
 163              		.loc 1 287 17
 164 00b2 3B6C     		ldr	r3, [r7, #64]
 165 00b4 1A1D     		adds	r2, r3, #4
 166 00b6 3A64     		str	r2, [r7, #64]
 167              		.loc 1 287 14
 168 00b8 93ED007A 		vldr.32	s14, [r3]
 169              		.loc 1 287 25
 170 00bc FB6B     		ldr	r3, [r7, #60]
ARM GAS  /tmp/ccQymEZf.s 			page 9


 171 00be 1A1D     		adds	r2, r3, #4
 172 00c0 FA63     		str	r2, [r7, #60]
 173              		.loc 1 287 22
 174 00c2 D3ED007A 		vldr.32	s15, [r3]
 175              		.loc 1 287 20
 176 00c6 67EE277A 		vmul.f32	s15, s14, s15
 177              		.loc 1 287 11
 178 00ca 97ED0D7A 		vldr.32	s14, [r7, #52]
 179 00ce 77EE277A 		vadd.f32	s15, s14, s15
 180 00d2 C7ED0D7A 		vstr.32	s15, [r7, #52]
 288:./Libraries/CMSIS/DSP/Source/FilteringFunctions/arm_correlate_f32.c **** 
 289:./Libraries/CMSIS/DSP/Source/FilteringFunctions/arm_correlate_f32.c ****       /* Decrement loop counter */
 290:./Libraries/CMSIS/DSP/Source/FilteringFunctions/arm_correlate_f32.c ****       k--;
 181              		.loc 1 290 8
 182 00d6 BB6A     		ldr	r3, [r7, #40]
 183 00d8 013B     		subs	r3, r3, #1
 184 00da BB62     		str	r3, [r7, #40]
 185              	.L5:
 283:./Libraries/CMSIS/DSP/Source/FilteringFunctions/arm_correlate_f32.c ****     {
 186              		.loc 1 283 11
 187 00dc BB6A     		ldr	r3, [r7, #40]
 188 00de 002B     		cmp	r3, #0
 189 00e0 E7D1     		bne	.L6
 291:./Libraries/CMSIS/DSP/Source/FilteringFunctions/arm_correlate_f32.c ****     }
 292:./Libraries/CMSIS/DSP/Source/FilteringFunctions/arm_correlate_f32.c **** 
 293:./Libraries/CMSIS/DSP/Source/FilteringFunctions/arm_correlate_f32.c ****     /* Store the result in the accumulator in the destination buffer. */
 294:./Libraries/CMSIS/DSP/Source/FilteringFunctions/arm_correlate_f32.c ****     *pOut = sum;
 190              		.loc 1 294 11
 191 00e2 7B6C     		ldr	r3, [r7, #68]
 192 00e4 7A6B     		ldr	r2, [r7, #52]	@ float
 193 00e6 1A60     		str	r2, [r3]	@ float
 295:./Libraries/CMSIS/DSP/Source/FilteringFunctions/arm_correlate_f32.c ****     /* Destination pointer is updated according to the address modifier, inc */
 296:./Libraries/CMSIS/DSP/Source/FilteringFunctions/arm_correlate_f32.c ****     pOut += inc;
 194              		.loc 1 296 10
 195 00e8 FB69     		ldr	r3, [r7, #28]
 196 00ea 9B00     		lsls	r3, r3, #2
 197 00ec 7A6C     		ldr	r2, [r7, #68]
 198 00ee 1344     		add	r3, r3, r2
 199 00f0 7B64     		str	r3, [r7, #68]
 297:./Libraries/CMSIS/DSP/Source/FilteringFunctions/arm_correlate_f32.c **** 
 298:./Libraries/CMSIS/DSP/Source/FilteringFunctions/arm_correlate_f32.c ****     /* Update the inputA and inputB pointers for next MAC calculation */
 299:./Libraries/CMSIS/DSP/Source/FilteringFunctions/arm_correlate_f32.c ****     py = pSrc1 - count;
 200              		.loc 1 299 16
 201 00f2 7B6A     		ldr	r3, [r7, #36]
 202 00f4 9B00     		lsls	r3, r3, #2
 203 00f6 5B42     		rsbs	r3, r3, #0
 204              		.loc 1 299 8
 205 00f8 BA6B     		ldr	r2, [r7, #56]
 206 00fa 1344     		add	r3, r3, r2
 207 00fc FB63     		str	r3, [r7, #60]
 300:./Libraries/CMSIS/DSP/Source/FilteringFunctions/arm_correlate_f32.c ****     px = pIn1;
 208              		.loc 1 300 8
 209 00fe FB6C     		ldr	r3, [r7, #76]
 210 0100 3B64     		str	r3, [r7, #64]
 301:./Libraries/CMSIS/DSP/Source/FilteringFunctions/arm_correlate_f32.c **** 
 302:./Libraries/CMSIS/DSP/Source/FilteringFunctions/arm_correlate_f32.c ****     /* Increment MAC count */
 303:./Libraries/CMSIS/DSP/Source/FilteringFunctions/arm_correlate_f32.c ****     count++;
ARM GAS  /tmp/ccQymEZf.s 			page 10


 211              		.loc 1 303 10
 212 0102 7B6A     		ldr	r3, [r7, #36]
 213 0104 0133     		adds	r3, r3, #1
 214 0106 7B62     		str	r3, [r7, #36]
 304:./Libraries/CMSIS/DSP/Source/FilteringFunctions/arm_correlate_f32.c **** 
 305:./Libraries/CMSIS/DSP/Source/FilteringFunctions/arm_correlate_f32.c ****     /* Decrement loop counter */
 306:./Libraries/CMSIS/DSP/Source/FilteringFunctions/arm_correlate_f32.c ****     blockSize1--;
 215              		.loc 1 306 15
 216 0108 3B6B     		ldr	r3, [r7, #48]
 217 010a 013B     		subs	r3, r3, #1
 218 010c 3B63     		str	r3, [r7, #48]
 219              	.L4:
 218:./Libraries/CMSIS/DSP/Source/FilteringFunctions/arm_correlate_f32.c ****   {
 220              		.loc 1 218 9
 221 010e 3B6B     		ldr	r3, [r7, #48]
 222 0110 002B     		cmp	r3, #0
 223 0112 C8D1     		bne	.L7
 307:./Libraries/CMSIS/DSP/Source/FilteringFunctions/arm_correlate_f32.c ****   }
 308:./Libraries/CMSIS/DSP/Source/FilteringFunctions/arm_correlate_f32.c **** 
 309:./Libraries/CMSIS/DSP/Source/FilteringFunctions/arm_correlate_f32.c ****   /* --------------------------
 310:./Libraries/CMSIS/DSP/Source/FilteringFunctions/arm_correlate_f32.c ****    * Initializations of stage2
 311:./Libraries/CMSIS/DSP/Source/FilteringFunctions/arm_correlate_f32.c ****    * ------------------------*/
 312:./Libraries/CMSIS/DSP/Source/FilteringFunctions/arm_correlate_f32.c **** 
 313:./Libraries/CMSIS/DSP/Source/FilteringFunctions/arm_correlate_f32.c ****   /* sum = x[0] * y[0] + x[1] * y[1] +...+ x[srcBLen-1] * y[srcBLen-1]
 314:./Libraries/CMSIS/DSP/Source/FilteringFunctions/arm_correlate_f32.c ****    * sum = x[1] * y[0] + x[2] * y[1] +...+ x[srcBLen]   * y[srcBLen-1]
 315:./Libraries/CMSIS/DSP/Source/FilteringFunctions/arm_correlate_f32.c ****    * ....
 316:./Libraries/CMSIS/DSP/Source/FilteringFunctions/arm_correlate_f32.c ****    * sum = x[srcALen-srcBLen-2] * y[0] + x[srcALen-srcBLen-1] * y[1] +...+ x[srcALen-1] * y[srcBLen
 317:./Libraries/CMSIS/DSP/Source/FilteringFunctions/arm_correlate_f32.c ****    */
 318:./Libraries/CMSIS/DSP/Source/FilteringFunctions/arm_correlate_f32.c **** 
 319:./Libraries/CMSIS/DSP/Source/FilteringFunctions/arm_correlate_f32.c ****   /* Working pointer of inputA */
 320:./Libraries/CMSIS/DSP/Source/FilteringFunctions/arm_correlate_f32.c ****   px = pIn1;
 224              		.loc 1 320 6
 225 0114 FB6C     		ldr	r3, [r7, #76]
 226 0116 3B64     		str	r3, [r7, #64]
 321:./Libraries/CMSIS/DSP/Source/FilteringFunctions/arm_correlate_f32.c **** 
 322:./Libraries/CMSIS/DSP/Source/FilteringFunctions/arm_correlate_f32.c ****   /* Working pointer of inputB */
 323:./Libraries/CMSIS/DSP/Source/FilteringFunctions/arm_correlate_f32.c ****   py = pIn2;
 227              		.loc 1 323 6
 228 0118 BB6C     		ldr	r3, [r7, #72]
 229 011a FB63     		str	r3, [r7, #60]
 324:./Libraries/CMSIS/DSP/Source/FilteringFunctions/arm_correlate_f32.c **** 
 325:./Libraries/CMSIS/DSP/Source/FilteringFunctions/arm_correlate_f32.c ****   /* count is index by which the pointer pIn1 to be incremented */
 326:./Libraries/CMSIS/DSP/Source/FilteringFunctions/arm_correlate_f32.c ****   count = 0U;
 230              		.loc 1 326 9
 231 011c 0023     		movs	r3, #0
 232 011e 7B62     		str	r3, [r7, #36]
 327:./Libraries/CMSIS/DSP/Source/FilteringFunctions/arm_correlate_f32.c **** 
 328:./Libraries/CMSIS/DSP/Source/FilteringFunctions/arm_correlate_f32.c ****   /* -------------------
 329:./Libraries/CMSIS/DSP/Source/FilteringFunctions/arm_correlate_f32.c ****    * Stage2 process
 330:./Libraries/CMSIS/DSP/Source/FilteringFunctions/arm_correlate_f32.c ****    * ------------------*/
 331:./Libraries/CMSIS/DSP/Source/FilteringFunctions/arm_correlate_f32.c **** 
 332:./Libraries/CMSIS/DSP/Source/FilteringFunctions/arm_correlate_f32.c ****   /* Stage2 depends on srcBLen as in this stage srcBLen number of MACS are performed.
 333:./Libraries/CMSIS/DSP/Source/FilteringFunctions/arm_correlate_f32.c ****    * So, to loop unroll over blockSize2,
 334:./Libraries/CMSIS/DSP/Source/FilteringFunctions/arm_correlate_f32.c ****    * srcBLen should be greater than or equal to 4 */
 335:./Libraries/CMSIS/DSP/Source/FilteringFunctions/arm_correlate_f32.c ****   if (srcBLen >= 4U)
 233              		.loc 1 335 6
 234 0120 3B68     		ldr	r3, [r7]
ARM GAS  /tmp/ccQymEZf.s 			page 11


 235 0122 032B     		cmp	r3, #3
 236 0124 39D9     		bls	.L8
 336:./Libraries/CMSIS/DSP/Source/FilteringFunctions/arm_correlate_f32.c ****   {
 337:./Libraries/CMSIS/DSP/Source/FilteringFunctions/arm_correlate_f32.c **** #if defined (ARM_MATH_LOOPUNROLL) || defined(ARM_MATH_NEON)
 338:./Libraries/CMSIS/DSP/Source/FilteringFunctions/arm_correlate_f32.c **** 
 339:./Libraries/CMSIS/DSP/Source/FilteringFunctions/arm_correlate_f32.c ****     /* Loop unrolling: Compute 4 outputs at a time */
 340:./Libraries/CMSIS/DSP/Source/FilteringFunctions/arm_correlate_f32.c ****     blkCnt = blockSize2 >> 2U;
 341:./Libraries/CMSIS/DSP/Source/FilteringFunctions/arm_correlate_f32.c **** 
 342:./Libraries/CMSIS/DSP/Source/FilteringFunctions/arm_correlate_f32.c **** #if defined(ARM_MATH_NEON)
 343:./Libraries/CMSIS/DSP/Source/FilteringFunctions/arm_correlate_f32.c ****       float32x4_t c;
 344:./Libraries/CMSIS/DSP/Source/FilteringFunctions/arm_correlate_f32.c ****       float32x4_t x1v;
 345:./Libraries/CMSIS/DSP/Source/FilteringFunctions/arm_correlate_f32.c ****       float32x4_t x2v;
 346:./Libraries/CMSIS/DSP/Source/FilteringFunctions/arm_correlate_f32.c ****       uint32x4_t x1v_u;
 347:./Libraries/CMSIS/DSP/Source/FilteringFunctions/arm_correlate_f32.c ****       uint32x4_t x2v_u;
 348:./Libraries/CMSIS/DSP/Source/FilteringFunctions/arm_correlate_f32.c ****       float32x4_t x;
 349:./Libraries/CMSIS/DSP/Source/FilteringFunctions/arm_correlate_f32.c ****       uint32x4_t x_u;
 350:./Libraries/CMSIS/DSP/Source/FilteringFunctions/arm_correlate_f32.c ****       float32x4_t res = vdupq_n_f32(0) ;
 351:./Libraries/CMSIS/DSP/Source/FilteringFunctions/arm_correlate_f32.c **** #endif /* #if defined(ARM_MATH_NEON) */
 352:./Libraries/CMSIS/DSP/Source/FilteringFunctions/arm_correlate_f32.c **** 
 353:./Libraries/CMSIS/DSP/Source/FilteringFunctions/arm_correlate_f32.c ****     while (blkCnt > 0U)
 354:./Libraries/CMSIS/DSP/Source/FilteringFunctions/arm_correlate_f32.c ****     {
 355:./Libraries/CMSIS/DSP/Source/FilteringFunctions/arm_correlate_f32.c ****       /* Set all accumulators to zero */
 356:./Libraries/CMSIS/DSP/Source/FilteringFunctions/arm_correlate_f32.c ****       acc0 = 0.0f;
 357:./Libraries/CMSIS/DSP/Source/FilteringFunctions/arm_correlate_f32.c ****       acc1 = 0.0f;
 358:./Libraries/CMSIS/DSP/Source/FilteringFunctions/arm_correlate_f32.c ****       acc2 = 0.0f;
 359:./Libraries/CMSIS/DSP/Source/FilteringFunctions/arm_correlate_f32.c ****       acc3 = 0.0f;
 360:./Libraries/CMSIS/DSP/Source/FilteringFunctions/arm_correlate_f32.c **** 
 361:./Libraries/CMSIS/DSP/Source/FilteringFunctions/arm_correlate_f32.c **** #if defined(ARM_MATH_NEON)
 362:./Libraries/CMSIS/DSP/Source/FilteringFunctions/arm_correlate_f32.c ****       /* Compute 4 MACs simultaneously. */
 363:./Libraries/CMSIS/DSP/Source/FilteringFunctions/arm_correlate_f32.c ****       k = srcBLen >> 2U;
 364:./Libraries/CMSIS/DSP/Source/FilteringFunctions/arm_correlate_f32.c **** 
 365:./Libraries/CMSIS/DSP/Source/FilteringFunctions/arm_correlate_f32.c ****       res = vdupq_n_f32(0) ;
 366:./Libraries/CMSIS/DSP/Source/FilteringFunctions/arm_correlate_f32.c **** 
 367:./Libraries/CMSIS/DSP/Source/FilteringFunctions/arm_correlate_f32.c ****       x1v = vld1q_f32(px);
 368:./Libraries/CMSIS/DSP/Source/FilteringFunctions/arm_correlate_f32.c ****       px += 4;
 369:./Libraries/CMSIS/DSP/Source/FilteringFunctions/arm_correlate_f32.c ****       do
 370:./Libraries/CMSIS/DSP/Source/FilteringFunctions/arm_correlate_f32.c ****       {
 371:./Libraries/CMSIS/DSP/Source/FilteringFunctions/arm_correlate_f32.c ****         x2v = vld1q_f32(px);
 372:./Libraries/CMSIS/DSP/Source/FilteringFunctions/arm_correlate_f32.c ****         c = vld1q_f32(py);
 373:./Libraries/CMSIS/DSP/Source/FilteringFunctions/arm_correlate_f32.c **** 
 374:./Libraries/CMSIS/DSP/Source/FilteringFunctions/arm_correlate_f32.c ****         py += 4;
 375:./Libraries/CMSIS/DSP/Source/FilteringFunctions/arm_correlate_f32.c **** 
 376:./Libraries/CMSIS/DSP/Source/FilteringFunctions/arm_correlate_f32.c ****         x = x1v;
 377:./Libraries/CMSIS/DSP/Source/FilteringFunctions/arm_correlate_f32.c ****         res = vmlaq_n_f32(res,x,c[0]);
 378:./Libraries/CMSIS/DSP/Source/FilteringFunctions/arm_correlate_f32.c **** 
 379:./Libraries/CMSIS/DSP/Source/FilteringFunctions/arm_correlate_f32.c ****         x = vextq_f32(x1v,x2v,1);
 380:./Libraries/CMSIS/DSP/Source/FilteringFunctions/arm_correlate_f32.c **** 
 381:./Libraries/CMSIS/DSP/Source/FilteringFunctions/arm_correlate_f32.c ****         res = vmlaq_n_f32(res,x,c[1]);
 382:./Libraries/CMSIS/DSP/Source/FilteringFunctions/arm_correlate_f32.c **** 
 383:./Libraries/CMSIS/DSP/Source/FilteringFunctions/arm_correlate_f32.c ****         x = vextq_f32(x1v,x2v,2);
 384:./Libraries/CMSIS/DSP/Source/FilteringFunctions/arm_correlate_f32.c **** 
 385:./Libraries/CMSIS/DSP/Source/FilteringFunctions/arm_correlate_f32.c **** 	res = vmlaq_n_f32(res,x,c[2]);
 386:./Libraries/CMSIS/DSP/Source/FilteringFunctions/arm_correlate_f32.c **** 
 387:./Libraries/CMSIS/DSP/Source/FilteringFunctions/arm_correlate_f32.c ****         x = vextq_f32(x1v,x2v,3);
 388:./Libraries/CMSIS/DSP/Source/FilteringFunctions/arm_correlate_f32.c **** 
 389:./Libraries/CMSIS/DSP/Source/FilteringFunctions/arm_correlate_f32.c **** 	res = vmlaq_n_f32(res,x,c[3]);
 390:./Libraries/CMSIS/DSP/Source/FilteringFunctions/arm_correlate_f32.c **** 
ARM GAS  /tmp/ccQymEZf.s 			page 12


 391:./Libraries/CMSIS/DSP/Source/FilteringFunctions/arm_correlate_f32.c ****         x1v = x2v;
 392:./Libraries/CMSIS/DSP/Source/FilteringFunctions/arm_correlate_f32.c ****         px+=4;
 393:./Libraries/CMSIS/DSP/Source/FilteringFunctions/arm_correlate_f32.c ****         x2v = vld1q_f32(px);
 394:./Libraries/CMSIS/DSP/Source/FilteringFunctions/arm_correlate_f32.c **** 
 395:./Libraries/CMSIS/DSP/Source/FilteringFunctions/arm_correlate_f32.c ****       } while (--k);
 396:./Libraries/CMSIS/DSP/Source/FilteringFunctions/arm_correlate_f32.c ****       
 397:./Libraries/CMSIS/DSP/Source/FilteringFunctions/arm_correlate_f32.c ****       /* If the srcBLen is not a multiple of 4, compute any remaining MACs here.
 398:./Libraries/CMSIS/DSP/Source/FilteringFunctions/arm_correlate_f32.c ****        ** No loop unrolling is used. */
 399:./Libraries/CMSIS/DSP/Source/FilteringFunctions/arm_correlate_f32.c ****       k = srcBLen & 0x3;
 400:./Libraries/CMSIS/DSP/Source/FilteringFunctions/arm_correlate_f32.c **** 
 401:./Libraries/CMSIS/DSP/Source/FilteringFunctions/arm_correlate_f32.c ****       while (k > 0U)
 402:./Libraries/CMSIS/DSP/Source/FilteringFunctions/arm_correlate_f32.c ****       {
 403:./Libraries/CMSIS/DSP/Source/FilteringFunctions/arm_correlate_f32.c ****         /* Read y[srcBLen - 5] sample */
 404:./Libraries/CMSIS/DSP/Source/FilteringFunctions/arm_correlate_f32.c ****         c0 = *(py++);
 405:./Libraries/CMSIS/DSP/Source/FilteringFunctions/arm_correlate_f32.c **** 
 406:./Libraries/CMSIS/DSP/Source/FilteringFunctions/arm_correlate_f32.c ****         res = vmlaq_n_f32(res,x1v,c0);
 407:./Libraries/CMSIS/DSP/Source/FilteringFunctions/arm_correlate_f32.c **** 
 408:./Libraries/CMSIS/DSP/Source/FilteringFunctions/arm_correlate_f32.c ****         /* Reuse the present samples for the next MAC */
 409:./Libraries/CMSIS/DSP/Source/FilteringFunctions/arm_correlate_f32.c ****         x1v[0] = x1v[1];
 410:./Libraries/CMSIS/DSP/Source/FilteringFunctions/arm_correlate_f32.c ****         x1v[1] = x1v[2];
 411:./Libraries/CMSIS/DSP/Source/FilteringFunctions/arm_correlate_f32.c ****         x1v[2] = x1v[3];
 412:./Libraries/CMSIS/DSP/Source/FilteringFunctions/arm_correlate_f32.c **** 
 413:./Libraries/CMSIS/DSP/Source/FilteringFunctions/arm_correlate_f32.c ****         x1v[3] = *(px++);
 414:./Libraries/CMSIS/DSP/Source/FilteringFunctions/arm_correlate_f32.c **** 
 415:./Libraries/CMSIS/DSP/Source/FilteringFunctions/arm_correlate_f32.c ****         /* Decrement the loop counter */
 416:./Libraries/CMSIS/DSP/Source/FilteringFunctions/arm_correlate_f32.c ****         k--;
 417:./Libraries/CMSIS/DSP/Source/FilteringFunctions/arm_correlate_f32.c ****       }
 418:./Libraries/CMSIS/DSP/Source/FilteringFunctions/arm_correlate_f32.c **** 
 419:./Libraries/CMSIS/DSP/Source/FilteringFunctions/arm_correlate_f32.c ****       px-=1;
 420:./Libraries/CMSIS/DSP/Source/FilteringFunctions/arm_correlate_f32.c **** 
 421:./Libraries/CMSIS/DSP/Source/FilteringFunctions/arm_correlate_f32.c ****       acc0 = res[0];
 422:./Libraries/CMSIS/DSP/Source/FilteringFunctions/arm_correlate_f32.c ****       acc1 = res[1];
 423:./Libraries/CMSIS/DSP/Source/FilteringFunctions/arm_correlate_f32.c ****       acc2 = res[2];
 424:./Libraries/CMSIS/DSP/Source/FilteringFunctions/arm_correlate_f32.c ****       acc3 = res[3];
 425:./Libraries/CMSIS/DSP/Source/FilteringFunctions/arm_correlate_f32.c **** #else
 426:./Libraries/CMSIS/DSP/Source/FilteringFunctions/arm_correlate_f32.c ****       /* read x[0], x[1], x[2] samples */
 427:./Libraries/CMSIS/DSP/Source/FilteringFunctions/arm_correlate_f32.c ****       x0 = *px++;
 428:./Libraries/CMSIS/DSP/Source/FilteringFunctions/arm_correlate_f32.c ****       x1 = *px++;
 429:./Libraries/CMSIS/DSP/Source/FilteringFunctions/arm_correlate_f32.c ****       x2 = *px++;
 430:./Libraries/CMSIS/DSP/Source/FilteringFunctions/arm_correlate_f32.c **** 
 431:./Libraries/CMSIS/DSP/Source/FilteringFunctions/arm_correlate_f32.c ****       /* Apply loop unrolling and compute 4 MACs simultaneously. */
 432:./Libraries/CMSIS/DSP/Source/FilteringFunctions/arm_correlate_f32.c ****       k = srcBLen >> 2U;
 433:./Libraries/CMSIS/DSP/Source/FilteringFunctions/arm_correlate_f32.c **** 
 434:./Libraries/CMSIS/DSP/Source/FilteringFunctions/arm_correlate_f32.c ****       /* First part of the processing with loop unrolling.  Compute 4 MACs at a time.
 435:./Libraries/CMSIS/DSP/Source/FilteringFunctions/arm_correlate_f32.c ****        ** a second loop below computes MACs for the remaining 1 to 3 samples. */
 436:./Libraries/CMSIS/DSP/Source/FilteringFunctions/arm_correlate_f32.c ****       do
 437:./Libraries/CMSIS/DSP/Source/FilteringFunctions/arm_correlate_f32.c ****       {
 438:./Libraries/CMSIS/DSP/Source/FilteringFunctions/arm_correlate_f32.c ****         /* Read y[0] sample */
 439:./Libraries/CMSIS/DSP/Source/FilteringFunctions/arm_correlate_f32.c ****         c0 = *(py++);
 440:./Libraries/CMSIS/DSP/Source/FilteringFunctions/arm_correlate_f32.c ****         /* Read x[3] sample */
 441:./Libraries/CMSIS/DSP/Source/FilteringFunctions/arm_correlate_f32.c ****         x3 = *(px++);
 442:./Libraries/CMSIS/DSP/Source/FilteringFunctions/arm_correlate_f32.c **** 
 443:./Libraries/CMSIS/DSP/Source/FilteringFunctions/arm_correlate_f32.c ****         /* Perform the multiply-accumulate */
 444:./Libraries/CMSIS/DSP/Source/FilteringFunctions/arm_correlate_f32.c ****         /* acc0 +=  x[0] * y[0] */
 445:./Libraries/CMSIS/DSP/Source/FilteringFunctions/arm_correlate_f32.c ****         acc0 += x0 * c0;
 446:./Libraries/CMSIS/DSP/Source/FilteringFunctions/arm_correlate_f32.c ****         /* acc1 +=  x[1] * y[0] */
 447:./Libraries/CMSIS/DSP/Source/FilteringFunctions/arm_correlate_f32.c ****         acc1 += x1 * c0;
ARM GAS  /tmp/ccQymEZf.s 			page 13


 448:./Libraries/CMSIS/DSP/Source/FilteringFunctions/arm_correlate_f32.c ****         /* acc2 +=  x[2] * y[0] */
 449:./Libraries/CMSIS/DSP/Source/FilteringFunctions/arm_correlate_f32.c ****         acc2 += x2 * c0;
 450:./Libraries/CMSIS/DSP/Source/FilteringFunctions/arm_correlate_f32.c ****         /* acc3 +=  x[3] * y[0] */
 451:./Libraries/CMSIS/DSP/Source/FilteringFunctions/arm_correlate_f32.c ****         acc3 += x3 * c0;
 452:./Libraries/CMSIS/DSP/Source/FilteringFunctions/arm_correlate_f32.c **** 
 453:./Libraries/CMSIS/DSP/Source/FilteringFunctions/arm_correlate_f32.c ****         /* Read y[1] sample */
 454:./Libraries/CMSIS/DSP/Source/FilteringFunctions/arm_correlate_f32.c ****         c0 = *(py++);
 455:./Libraries/CMSIS/DSP/Source/FilteringFunctions/arm_correlate_f32.c ****         /* Read x[4] sample */
 456:./Libraries/CMSIS/DSP/Source/FilteringFunctions/arm_correlate_f32.c ****         x0 = *(px++);
 457:./Libraries/CMSIS/DSP/Source/FilteringFunctions/arm_correlate_f32.c **** 
 458:./Libraries/CMSIS/DSP/Source/FilteringFunctions/arm_correlate_f32.c ****         /* Perform the multiply-accumulate */
 459:./Libraries/CMSIS/DSP/Source/FilteringFunctions/arm_correlate_f32.c ****         /* acc0 +=  x[1] * y[1] */
 460:./Libraries/CMSIS/DSP/Source/FilteringFunctions/arm_correlate_f32.c ****         acc0 += x1 * c0;
 461:./Libraries/CMSIS/DSP/Source/FilteringFunctions/arm_correlate_f32.c ****         /* acc1 +=  x[2] * y[1] */
 462:./Libraries/CMSIS/DSP/Source/FilteringFunctions/arm_correlate_f32.c ****         acc1 += x2 * c0;
 463:./Libraries/CMSIS/DSP/Source/FilteringFunctions/arm_correlate_f32.c ****         /* acc2 +=  x[3] * y[1] */
 464:./Libraries/CMSIS/DSP/Source/FilteringFunctions/arm_correlate_f32.c ****         acc2 += x3 * c0;
 465:./Libraries/CMSIS/DSP/Source/FilteringFunctions/arm_correlate_f32.c ****         /* acc3 +=  x[4] * y[1] */
 466:./Libraries/CMSIS/DSP/Source/FilteringFunctions/arm_correlate_f32.c ****         acc3 += x0 * c0;
 467:./Libraries/CMSIS/DSP/Source/FilteringFunctions/arm_correlate_f32.c **** 
 468:./Libraries/CMSIS/DSP/Source/FilteringFunctions/arm_correlate_f32.c ****         /* Read y[2] sample */
 469:./Libraries/CMSIS/DSP/Source/FilteringFunctions/arm_correlate_f32.c ****         c0 = *(py++);
 470:./Libraries/CMSIS/DSP/Source/FilteringFunctions/arm_correlate_f32.c ****         /* Read x[5] sample */
 471:./Libraries/CMSIS/DSP/Source/FilteringFunctions/arm_correlate_f32.c ****         x1 = *(px++);
 472:./Libraries/CMSIS/DSP/Source/FilteringFunctions/arm_correlate_f32.c **** 
 473:./Libraries/CMSIS/DSP/Source/FilteringFunctions/arm_correlate_f32.c ****         /* Perform the multiply-accumulate */
 474:./Libraries/CMSIS/DSP/Source/FilteringFunctions/arm_correlate_f32.c ****         /* acc0 +=  x[2] * y[2] */
 475:./Libraries/CMSIS/DSP/Source/FilteringFunctions/arm_correlate_f32.c ****         acc0 += x2 * c0;
 476:./Libraries/CMSIS/DSP/Source/FilteringFunctions/arm_correlate_f32.c ****         /* acc1 +=  x[3] * y[2] */
 477:./Libraries/CMSIS/DSP/Source/FilteringFunctions/arm_correlate_f32.c ****         acc1 += x3 * c0;
 478:./Libraries/CMSIS/DSP/Source/FilteringFunctions/arm_correlate_f32.c ****         /* acc2 +=  x[4] * y[2] */
 479:./Libraries/CMSIS/DSP/Source/FilteringFunctions/arm_correlate_f32.c ****         acc2 += x0 * c0;
 480:./Libraries/CMSIS/DSP/Source/FilteringFunctions/arm_correlate_f32.c ****         /* acc3 +=  x[5] * y[2] */
 481:./Libraries/CMSIS/DSP/Source/FilteringFunctions/arm_correlate_f32.c ****         acc3 += x1 * c0;
 482:./Libraries/CMSIS/DSP/Source/FilteringFunctions/arm_correlate_f32.c **** 
 483:./Libraries/CMSIS/DSP/Source/FilteringFunctions/arm_correlate_f32.c ****         /* Read y[3] sample */
 484:./Libraries/CMSIS/DSP/Source/FilteringFunctions/arm_correlate_f32.c ****         c0 = *(py++);
 485:./Libraries/CMSIS/DSP/Source/FilteringFunctions/arm_correlate_f32.c ****         /* Read x[6] sample */
 486:./Libraries/CMSIS/DSP/Source/FilteringFunctions/arm_correlate_f32.c ****         x2 = *(px++);
 487:./Libraries/CMSIS/DSP/Source/FilteringFunctions/arm_correlate_f32.c **** 
 488:./Libraries/CMSIS/DSP/Source/FilteringFunctions/arm_correlate_f32.c ****         /* Perform the multiply-accumulate */
 489:./Libraries/CMSIS/DSP/Source/FilteringFunctions/arm_correlate_f32.c ****         /* acc0 +=  x[3] * y[3] */
 490:./Libraries/CMSIS/DSP/Source/FilteringFunctions/arm_correlate_f32.c ****         acc0 += x3 * c0;
 491:./Libraries/CMSIS/DSP/Source/FilteringFunctions/arm_correlate_f32.c ****         /* acc1 +=  x[4] * y[3] */
 492:./Libraries/CMSIS/DSP/Source/FilteringFunctions/arm_correlate_f32.c ****         acc1 += x0 * c0;
 493:./Libraries/CMSIS/DSP/Source/FilteringFunctions/arm_correlate_f32.c ****         /* acc2 +=  x[5] * y[3] */
 494:./Libraries/CMSIS/DSP/Source/FilteringFunctions/arm_correlate_f32.c ****         acc2 += x1 * c0;
 495:./Libraries/CMSIS/DSP/Source/FilteringFunctions/arm_correlate_f32.c ****         /* acc3 +=  x[6] * y[3] */
 496:./Libraries/CMSIS/DSP/Source/FilteringFunctions/arm_correlate_f32.c ****         acc3 += x2 * c0;
 497:./Libraries/CMSIS/DSP/Source/FilteringFunctions/arm_correlate_f32.c **** 
 498:./Libraries/CMSIS/DSP/Source/FilteringFunctions/arm_correlate_f32.c ****       } while (--k);
 499:./Libraries/CMSIS/DSP/Source/FilteringFunctions/arm_correlate_f32.c **** 
 500:./Libraries/CMSIS/DSP/Source/FilteringFunctions/arm_correlate_f32.c ****       /* If the srcBLen is not a multiple of 4, compute any remaining MACs here.
 501:./Libraries/CMSIS/DSP/Source/FilteringFunctions/arm_correlate_f32.c ****        ** No loop unrolling is used. */
 502:./Libraries/CMSIS/DSP/Source/FilteringFunctions/arm_correlate_f32.c ****       k = srcBLen % 0x4U;
 503:./Libraries/CMSIS/DSP/Source/FilteringFunctions/arm_correlate_f32.c **** 
 504:./Libraries/CMSIS/DSP/Source/FilteringFunctions/arm_correlate_f32.c ****       while (k > 0U)
ARM GAS  /tmp/ccQymEZf.s 			page 14


 505:./Libraries/CMSIS/DSP/Source/FilteringFunctions/arm_correlate_f32.c ****       {
 506:./Libraries/CMSIS/DSP/Source/FilteringFunctions/arm_correlate_f32.c ****         /* Read y[4] sample */
 507:./Libraries/CMSIS/DSP/Source/FilteringFunctions/arm_correlate_f32.c ****         c0 = *(py++);
 508:./Libraries/CMSIS/DSP/Source/FilteringFunctions/arm_correlate_f32.c ****         /* Read x[7] sample */
 509:./Libraries/CMSIS/DSP/Source/FilteringFunctions/arm_correlate_f32.c ****         x3 = *(px++);
 510:./Libraries/CMSIS/DSP/Source/FilteringFunctions/arm_correlate_f32.c **** 
 511:./Libraries/CMSIS/DSP/Source/FilteringFunctions/arm_correlate_f32.c ****         /* Perform the multiply-accumulate */
 512:./Libraries/CMSIS/DSP/Source/FilteringFunctions/arm_correlate_f32.c ****         /* acc0 +=  x[4] * y[4] */
 513:./Libraries/CMSIS/DSP/Source/FilteringFunctions/arm_correlate_f32.c ****         acc0 += x0 * c0;
 514:./Libraries/CMSIS/DSP/Source/FilteringFunctions/arm_correlate_f32.c ****         /* acc1 +=  x[5] * y[4] */
 515:./Libraries/CMSIS/DSP/Source/FilteringFunctions/arm_correlate_f32.c ****         acc1 += x1 * c0;
 516:./Libraries/CMSIS/DSP/Source/FilteringFunctions/arm_correlate_f32.c ****         /* acc2 +=  x[6] * y[4] */
 517:./Libraries/CMSIS/DSP/Source/FilteringFunctions/arm_correlate_f32.c ****         acc2 += x2 * c0;
 518:./Libraries/CMSIS/DSP/Source/FilteringFunctions/arm_correlate_f32.c ****         /* acc3 +=  x[7] * y[4] */
 519:./Libraries/CMSIS/DSP/Source/FilteringFunctions/arm_correlate_f32.c ****         acc3 += x3 * c0;
 520:./Libraries/CMSIS/DSP/Source/FilteringFunctions/arm_correlate_f32.c **** 
 521:./Libraries/CMSIS/DSP/Source/FilteringFunctions/arm_correlate_f32.c ****         /* Reuse the present samples for the next MAC */
 522:./Libraries/CMSIS/DSP/Source/FilteringFunctions/arm_correlate_f32.c ****         x0 = x1;
 523:./Libraries/CMSIS/DSP/Source/FilteringFunctions/arm_correlate_f32.c ****         x1 = x2;
 524:./Libraries/CMSIS/DSP/Source/FilteringFunctions/arm_correlate_f32.c ****         x2 = x3;
 525:./Libraries/CMSIS/DSP/Source/FilteringFunctions/arm_correlate_f32.c **** 
 526:./Libraries/CMSIS/DSP/Source/FilteringFunctions/arm_correlate_f32.c ****         /* Decrement the loop counter */
 527:./Libraries/CMSIS/DSP/Source/FilteringFunctions/arm_correlate_f32.c ****         k--;
 528:./Libraries/CMSIS/DSP/Source/FilteringFunctions/arm_correlate_f32.c ****       }
 529:./Libraries/CMSIS/DSP/Source/FilteringFunctions/arm_correlate_f32.c **** 
 530:./Libraries/CMSIS/DSP/Source/FilteringFunctions/arm_correlate_f32.c **** #endif /* #if defined(ARM_MATH_NEON) */
 531:./Libraries/CMSIS/DSP/Source/FilteringFunctions/arm_correlate_f32.c **** 
 532:./Libraries/CMSIS/DSP/Source/FilteringFunctions/arm_correlate_f32.c ****       /* Store the result in the accumulator in the destination buffer. */
 533:./Libraries/CMSIS/DSP/Source/FilteringFunctions/arm_correlate_f32.c ****       *pOut = acc0;
 534:./Libraries/CMSIS/DSP/Source/FilteringFunctions/arm_correlate_f32.c ****       /* Destination pointer is updated according to the address modifier, inc */
 535:./Libraries/CMSIS/DSP/Source/FilteringFunctions/arm_correlate_f32.c ****       pOut += inc;
 536:./Libraries/CMSIS/DSP/Source/FilteringFunctions/arm_correlate_f32.c **** 
 537:./Libraries/CMSIS/DSP/Source/FilteringFunctions/arm_correlate_f32.c ****       *pOut = acc1;
 538:./Libraries/CMSIS/DSP/Source/FilteringFunctions/arm_correlate_f32.c ****       pOut += inc;
 539:./Libraries/CMSIS/DSP/Source/FilteringFunctions/arm_correlate_f32.c **** 
 540:./Libraries/CMSIS/DSP/Source/FilteringFunctions/arm_correlate_f32.c ****       *pOut = acc2;
 541:./Libraries/CMSIS/DSP/Source/FilteringFunctions/arm_correlate_f32.c ****       pOut += inc;
 542:./Libraries/CMSIS/DSP/Source/FilteringFunctions/arm_correlate_f32.c **** 
 543:./Libraries/CMSIS/DSP/Source/FilteringFunctions/arm_correlate_f32.c ****       *pOut = acc3;
 544:./Libraries/CMSIS/DSP/Source/FilteringFunctions/arm_correlate_f32.c ****       pOut += inc;
 545:./Libraries/CMSIS/DSP/Source/FilteringFunctions/arm_correlate_f32.c **** 
 546:./Libraries/CMSIS/DSP/Source/FilteringFunctions/arm_correlate_f32.c ****       /* Increment the pointer pIn1 index, count by 4 */
 547:./Libraries/CMSIS/DSP/Source/FilteringFunctions/arm_correlate_f32.c ****       count += 4U;
 548:./Libraries/CMSIS/DSP/Source/FilteringFunctions/arm_correlate_f32.c **** 
 549:./Libraries/CMSIS/DSP/Source/FilteringFunctions/arm_correlate_f32.c ****       /* Update the inputA and inputB pointers for next MAC calculation */
 550:./Libraries/CMSIS/DSP/Source/FilteringFunctions/arm_correlate_f32.c ****       px = pIn1 + count;
 551:./Libraries/CMSIS/DSP/Source/FilteringFunctions/arm_correlate_f32.c ****       py = pIn2;
 552:./Libraries/CMSIS/DSP/Source/FilteringFunctions/arm_correlate_f32.c **** 
 553:./Libraries/CMSIS/DSP/Source/FilteringFunctions/arm_correlate_f32.c ****       /* Decrement loop counter */
 554:./Libraries/CMSIS/DSP/Source/FilteringFunctions/arm_correlate_f32.c ****       blkCnt--;
 555:./Libraries/CMSIS/DSP/Source/FilteringFunctions/arm_correlate_f32.c ****     }
 556:./Libraries/CMSIS/DSP/Source/FilteringFunctions/arm_correlate_f32.c **** 
 557:./Libraries/CMSIS/DSP/Source/FilteringFunctions/arm_correlate_f32.c ****     /* Loop unrolling: Compute remaining outputs */
 558:./Libraries/CMSIS/DSP/Source/FilteringFunctions/arm_correlate_f32.c ****     blkCnt = blockSize2 % 0x4U;
 559:./Libraries/CMSIS/DSP/Source/FilteringFunctions/arm_correlate_f32.c **** 
 560:./Libraries/CMSIS/DSP/Source/FilteringFunctions/arm_correlate_f32.c **** #else
 561:./Libraries/CMSIS/DSP/Source/FilteringFunctions/arm_correlate_f32.c **** 
ARM GAS  /tmp/ccQymEZf.s 			page 15


 562:./Libraries/CMSIS/DSP/Source/FilteringFunctions/arm_correlate_f32.c ****     /* Initialize blkCnt with number of samples */
 563:./Libraries/CMSIS/DSP/Source/FilteringFunctions/arm_correlate_f32.c ****     blkCnt = blockSize2;
 237              		.loc 1 563 12
 238 0126 3B69     		ldr	r3, [r7, #16]
 239 0128 3B62     		str	r3, [r7, #32]
 564:./Libraries/CMSIS/DSP/Source/FilteringFunctions/arm_correlate_f32.c **** 
 565:./Libraries/CMSIS/DSP/Source/FilteringFunctions/arm_correlate_f32.c **** #endif /* #if defined (ARM_MATH_LOOPUNROLL) || defined(ARM_MATH_NEON) */
 566:./Libraries/CMSIS/DSP/Source/FilteringFunctions/arm_correlate_f32.c **** 
 567:./Libraries/CMSIS/DSP/Source/FilteringFunctions/arm_correlate_f32.c ****     while (blkCnt > 0U)
 240              		.loc 1 567 11
 241 012a 32E0     		b	.L9
 242              	.L12:
 568:./Libraries/CMSIS/DSP/Source/FilteringFunctions/arm_correlate_f32.c ****     {
 569:./Libraries/CMSIS/DSP/Source/FilteringFunctions/arm_correlate_f32.c ****       /* Accumulator is made zero for every iteration */
 570:./Libraries/CMSIS/DSP/Source/FilteringFunctions/arm_correlate_f32.c ****       sum = 0.0f;
 243              		.loc 1 570 11
 244 012c 4FF00003 		mov	r3, #0
 245 0130 7B63     		str	r3, [r7, #52]	@ float
 571:./Libraries/CMSIS/DSP/Source/FilteringFunctions/arm_correlate_f32.c **** 
 572:./Libraries/CMSIS/DSP/Source/FilteringFunctions/arm_correlate_f32.c **** #if defined (ARM_MATH_LOOPUNROLL) || defined(ARM_MATH_NEON)
 573:./Libraries/CMSIS/DSP/Source/FilteringFunctions/arm_correlate_f32.c **** 
 574:./Libraries/CMSIS/DSP/Source/FilteringFunctions/arm_correlate_f32.c ****     /* Loop unrolling: Compute 4 outputs at a time */
 575:./Libraries/CMSIS/DSP/Source/FilteringFunctions/arm_correlate_f32.c ****       k = srcBLen >> 2U;
 576:./Libraries/CMSIS/DSP/Source/FilteringFunctions/arm_correlate_f32.c **** 
 577:./Libraries/CMSIS/DSP/Source/FilteringFunctions/arm_correlate_f32.c **** #if defined(ARM_MATH_NEON)
 578:./Libraries/CMSIS/DSP/Source/FilteringFunctions/arm_correlate_f32.c ****     float32x4_t x,y;
 579:./Libraries/CMSIS/DSP/Source/FilteringFunctions/arm_correlate_f32.c ****     float32x4_t res = vdupq_n_f32(0) ;
 580:./Libraries/CMSIS/DSP/Source/FilteringFunctions/arm_correlate_f32.c ****     float32x2_t accum = vdup_n_f32(0);
 581:./Libraries/CMSIS/DSP/Source/FilteringFunctions/arm_correlate_f32.c **** 
 582:./Libraries/CMSIS/DSP/Source/FilteringFunctions/arm_correlate_f32.c ****     while (k > 0U)
 583:./Libraries/CMSIS/DSP/Source/FilteringFunctions/arm_correlate_f32.c ****     {
 584:./Libraries/CMSIS/DSP/Source/FilteringFunctions/arm_correlate_f32.c ****       x = vld1q_f32(px);
 585:./Libraries/CMSIS/DSP/Source/FilteringFunctions/arm_correlate_f32.c ****       y = vld1q_f32(py);
 586:./Libraries/CMSIS/DSP/Source/FilteringFunctions/arm_correlate_f32.c **** 
 587:./Libraries/CMSIS/DSP/Source/FilteringFunctions/arm_correlate_f32.c ****       res = vmlaq_f32(res,x, y);
 588:./Libraries/CMSIS/DSP/Source/FilteringFunctions/arm_correlate_f32.c **** 
 589:./Libraries/CMSIS/DSP/Source/FilteringFunctions/arm_correlate_f32.c ****       px += 4;
 590:./Libraries/CMSIS/DSP/Source/FilteringFunctions/arm_correlate_f32.c ****       py += 4;
 591:./Libraries/CMSIS/DSP/Source/FilteringFunctions/arm_correlate_f32.c ****       /* Decrement the loop counter */
 592:./Libraries/CMSIS/DSP/Source/FilteringFunctions/arm_correlate_f32.c ****       k--;
 593:./Libraries/CMSIS/DSP/Source/FilteringFunctions/arm_correlate_f32.c ****     }
 594:./Libraries/CMSIS/DSP/Source/FilteringFunctions/arm_correlate_f32.c **** 
 595:./Libraries/CMSIS/DSP/Source/FilteringFunctions/arm_correlate_f32.c ****     accum = vpadd_f32(vget_low_f32(res), vget_high_f32(res));
 596:./Libraries/CMSIS/DSP/Source/FilteringFunctions/arm_correlate_f32.c ****     sum += accum[0] + accum[1];
 597:./Libraries/CMSIS/DSP/Source/FilteringFunctions/arm_correlate_f32.c **** #else
 598:./Libraries/CMSIS/DSP/Source/FilteringFunctions/arm_correlate_f32.c ****       /* First part of the processing with loop unrolling.  Compute 4 MACs at a time.
 599:./Libraries/CMSIS/DSP/Source/FilteringFunctions/arm_correlate_f32.c ****        ** a second loop below computes MACs for the remaining 1 to 3 samples. */
 600:./Libraries/CMSIS/DSP/Source/FilteringFunctions/arm_correlate_f32.c ****       while (k > 0U)
 601:./Libraries/CMSIS/DSP/Source/FilteringFunctions/arm_correlate_f32.c ****       {
 602:./Libraries/CMSIS/DSP/Source/FilteringFunctions/arm_correlate_f32.c ****         /* Perform the multiply-accumulate */
 603:./Libraries/CMSIS/DSP/Source/FilteringFunctions/arm_correlate_f32.c ****         sum += *px++ * *py++;
 604:./Libraries/CMSIS/DSP/Source/FilteringFunctions/arm_correlate_f32.c ****         sum += *px++ * *py++;
 605:./Libraries/CMSIS/DSP/Source/FilteringFunctions/arm_correlate_f32.c ****         sum += *px++ * *py++;
 606:./Libraries/CMSIS/DSP/Source/FilteringFunctions/arm_correlate_f32.c ****         sum += *px++ * *py++;
 607:./Libraries/CMSIS/DSP/Source/FilteringFunctions/arm_correlate_f32.c **** 
 608:./Libraries/CMSIS/DSP/Source/FilteringFunctions/arm_correlate_f32.c ****         /* Decrement loop counter */
 609:./Libraries/CMSIS/DSP/Source/FilteringFunctions/arm_correlate_f32.c ****         k--;
ARM GAS  /tmp/ccQymEZf.s 			page 16


 610:./Libraries/CMSIS/DSP/Source/FilteringFunctions/arm_correlate_f32.c ****       }
 611:./Libraries/CMSIS/DSP/Source/FilteringFunctions/arm_correlate_f32.c **** #endif /* #if defined(ARM_MATH_NEON) */
 612:./Libraries/CMSIS/DSP/Source/FilteringFunctions/arm_correlate_f32.c ****       /* If the srcBLen is not a multiple of 4, compute any remaining MACs here.
 613:./Libraries/CMSIS/DSP/Source/FilteringFunctions/arm_correlate_f32.c ****        ** No loop unrolling is used. */
 614:./Libraries/CMSIS/DSP/Source/FilteringFunctions/arm_correlate_f32.c ****       k = srcBLen % 0x4U;
 615:./Libraries/CMSIS/DSP/Source/FilteringFunctions/arm_correlate_f32.c **** #else
 616:./Libraries/CMSIS/DSP/Source/FilteringFunctions/arm_correlate_f32.c **** 
 617:./Libraries/CMSIS/DSP/Source/FilteringFunctions/arm_correlate_f32.c ****       /* Initialize blkCnt with number of samples */
 618:./Libraries/CMSIS/DSP/Source/FilteringFunctions/arm_correlate_f32.c ****       k = srcBLen;
 246              		.loc 1 618 9
 247 0132 3B68     		ldr	r3, [r7]
 248 0134 BB62     		str	r3, [r7, #40]
 619:./Libraries/CMSIS/DSP/Source/FilteringFunctions/arm_correlate_f32.c **** 
 620:./Libraries/CMSIS/DSP/Source/FilteringFunctions/arm_correlate_f32.c **** #endif /* #if defined (ARM_MATH_LOOPUNROLL) || defined(ARM_MATH_NEON) */
 621:./Libraries/CMSIS/DSP/Source/FilteringFunctions/arm_correlate_f32.c **** 
 622:./Libraries/CMSIS/DSP/Source/FilteringFunctions/arm_correlate_f32.c ****       while (k > 0U)
 249              		.loc 1 622 13
 250 0136 14E0     		b	.L10
 251              	.L11:
 623:./Libraries/CMSIS/DSP/Source/FilteringFunctions/arm_correlate_f32.c ****       {
 624:./Libraries/CMSIS/DSP/Source/FilteringFunctions/arm_correlate_f32.c ****         /* Perform the multiply-accumulate */
 625:./Libraries/CMSIS/DSP/Source/FilteringFunctions/arm_correlate_f32.c ****         sum += *px++ * *py++;
 252              		.loc 1 625 19
 253 0138 3B6C     		ldr	r3, [r7, #64]
 254 013a 1A1D     		adds	r2, r3, #4
 255 013c 3A64     		str	r2, [r7, #64]
 256              		.loc 1 625 16
 257 013e 93ED007A 		vldr.32	s14, [r3]
 258              		.loc 1 625 27
 259 0142 FB6B     		ldr	r3, [r7, #60]
 260 0144 1A1D     		adds	r2, r3, #4
 261 0146 FA63     		str	r2, [r7, #60]
 262              		.loc 1 625 24
 263 0148 D3ED007A 		vldr.32	s15, [r3]
 264              		.loc 1 625 22
 265 014c 67EE277A 		vmul.f32	s15, s14, s15
 266              		.loc 1 625 13
 267 0150 97ED0D7A 		vldr.32	s14, [r7, #52]
 268 0154 77EE277A 		vadd.f32	s15, s14, s15
 269 0158 C7ED0D7A 		vstr.32	s15, [r7, #52]
 626:./Libraries/CMSIS/DSP/Source/FilteringFunctions/arm_correlate_f32.c **** 
 627:./Libraries/CMSIS/DSP/Source/FilteringFunctions/arm_correlate_f32.c ****         /* Decrement the loop counter */
 628:./Libraries/CMSIS/DSP/Source/FilteringFunctions/arm_correlate_f32.c ****         k--;
 270              		.loc 1 628 10
 271 015c BB6A     		ldr	r3, [r7, #40]
 272 015e 013B     		subs	r3, r3, #1
 273 0160 BB62     		str	r3, [r7, #40]
 274              	.L10:
 622:./Libraries/CMSIS/DSP/Source/FilteringFunctions/arm_correlate_f32.c ****       {
 275              		.loc 1 622 13
 276 0162 BB6A     		ldr	r3, [r7, #40]
 277 0164 002B     		cmp	r3, #0
 278 0166 E7D1     		bne	.L11
 629:./Libraries/CMSIS/DSP/Source/FilteringFunctions/arm_correlate_f32.c ****       }
 630:./Libraries/CMSIS/DSP/Source/FilteringFunctions/arm_correlate_f32.c **** 
 631:./Libraries/CMSIS/DSP/Source/FilteringFunctions/arm_correlate_f32.c ****       /* Store the result in the accumulator in the destination buffer. */
 632:./Libraries/CMSIS/DSP/Source/FilteringFunctions/arm_correlate_f32.c ****       *pOut = sum;
ARM GAS  /tmp/ccQymEZf.s 			page 17


 279              		.loc 1 632 13
 280 0168 7B6C     		ldr	r3, [r7, #68]
 281 016a 7A6B     		ldr	r2, [r7, #52]	@ float
 282 016c 1A60     		str	r2, [r3]	@ float
 633:./Libraries/CMSIS/DSP/Source/FilteringFunctions/arm_correlate_f32.c **** 
 634:./Libraries/CMSIS/DSP/Source/FilteringFunctions/arm_correlate_f32.c ****       /* Destination pointer is updated according to the address modifier, inc */
 635:./Libraries/CMSIS/DSP/Source/FilteringFunctions/arm_correlate_f32.c ****       pOut += inc;
 283              		.loc 1 635 12
 284 016e FB69     		ldr	r3, [r7, #28]
 285 0170 9B00     		lsls	r3, r3, #2
 286 0172 7A6C     		ldr	r2, [r7, #68]
 287 0174 1344     		add	r3, r3, r2
 288 0176 7B64     		str	r3, [r7, #68]
 636:./Libraries/CMSIS/DSP/Source/FilteringFunctions/arm_correlate_f32.c **** 
 637:./Libraries/CMSIS/DSP/Source/FilteringFunctions/arm_correlate_f32.c ****       /* Increment the pointer pIn1 index, count by 1 */
 638:./Libraries/CMSIS/DSP/Source/FilteringFunctions/arm_correlate_f32.c ****       count++;
 289              		.loc 1 638 12
 290 0178 7B6A     		ldr	r3, [r7, #36]
 291 017a 0133     		adds	r3, r3, #1
 292 017c 7B62     		str	r3, [r7, #36]
 639:./Libraries/CMSIS/DSP/Source/FilteringFunctions/arm_correlate_f32.c **** 
 640:./Libraries/CMSIS/DSP/Source/FilteringFunctions/arm_correlate_f32.c ****       /* Update the inputA and inputB pointers for next MAC calculation */
 641:./Libraries/CMSIS/DSP/Source/FilteringFunctions/arm_correlate_f32.c ****       px = pIn1 + count;
 293              		.loc 1 641 17
 294 017e 7B6A     		ldr	r3, [r7, #36]
 295 0180 9B00     		lsls	r3, r3, #2
 296              		.loc 1 641 10
 297 0182 FA6C     		ldr	r2, [r7, #76]
 298 0184 1344     		add	r3, r3, r2
 299 0186 3B64     		str	r3, [r7, #64]
 642:./Libraries/CMSIS/DSP/Source/FilteringFunctions/arm_correlate_f32.c ****       py = pIn2;
 300              		.loc 1 642 10
 301 0188 BB6C     		ldr	r3, [r7, #72]
 302 018a FB63     		str	r3, [r7, #60]
 643:./Libraries/CMSIS/DSP/Source/FilteringFunctions/arm_correlate_f32.c **** 
 644:./Libraries/CMSIS/DSP/Source/FilteringFunctions/arm_correlate_f32.c ****       /* Decrement the loop counter */
 645:./Libraries/CMSIS/DSP/Source/FilteringFunctions/arm_correlate_f32.c ****       blkCnt--;
 303              		.loc 1 645 13
 304 018c 3B6A     		ldr	r3, [r7, #32]
 305 018e 013B     		subs	r3, r3, #1
 306 0190 3B62     		str	r3, [r7, #32]
 307              	.L9:
 567:./Libraries/CMSIS/DSP/Source/FilteringFunctions/arm_correlate_f32.c ****     {
 308              		.loc 1 567 11
 309 0192 3B6A     		ldr	r3, [r7, #32]
 310 0194 002B     		cmp	r3, #0
 311 0196 C9D1     		bne	.L12
 312 0198 38E0     		b	.L13
 313              	.L8:
 646:./Libraries/CMSIS/DSP/Source/FilteringFunctions/arm_correlate_f32.c ****     }
 647:./Libraries/CMSIS/DSP/Source/FilteringFunctions/arm_correlate_f32.c ****   }
 648:./Libraries/CMSIS/DSP/Source/FilteringFunctions/arm_correlate_f32.c ****   else
 649:./Libraries/CMSIS/DSP/Source/FilteringFunctions/arm_correlate_f32.c ****   {
 650:./Libraries/CMSIS/DSP/Source/FilteringFunctions/arm_correlate_f32.c ****     /* If the srcBLen is not a multiple of 4,
 651:./Libraries/CMSIS/DSP/Source/FilteringFunctions/arm_correlate_f32.c ****      * the blockSize2 loop cannot be unrolled by 4 */
 652:./Libraries/CMSIS/DSP/Source/FilteringFunctions/arm_correlate_f32.c ****     blkCnt = blockSize2;
 314              		.loc 1 652 12
ARM GAS  /tmp/ccQymEZf.s 			page 18


 315 019a 3B69     		ldr	r3, [r7, #16]
 316 019c 3B62     		str	r3, [r7, #32]
 653:./Libraries/CMSIS/DSP/Source/FilteringFunctions/arm_correlate_f32.c **** 
 654:./Libraries/CMSIS/DSP/Source/FilteringFunctions/arm_correlate_f32.c ****     while (blkCnt > 0U)
 317              		.loc 1 654 11
 318 019e 32E0     		b	.L14
 319              	.L17:
 655:./Libraries/CMSIS/DSP/Source/FilteringFunctions/arm_correlate_f32.c ****     {
 656:./Libraries/CMSIS/DSP/Source/FilteringFunctions/arm_correlate_f32.c ****       /* Accumulator is made zero for every iteration */
 657:./Libraries/CMSIS/DSP/Source/FilteringFunctions/arm_correlate_f32.c ****       sum = 0.0f;
 320              		.loc 1 657 11
 321 01a0 4FF00003 		mov	r3, #0
 322 01a4 7B63     		str	r3, [r7, #52]	@ float
 658:./Libraries/CMSIS/DSP/Source/FilteringFunctions/arm_correlate_f32.c **** 
 659:./Libraries/CMSIS/DSP/Source/FilteringFunctions/arm_correlate_f32.c ****       /* Loop over srcBLen */
 660:./Libraries/CMSIS/DSP/Source/FilteringFunctions/arm_correlate_f32.c ****       k = srcBLen;
 323              		.loc 1 660 9
 324 01a6 3B68     		ldr	r3, [r7]
 325 01a8 BB62     		str	r3, [r7, #40]
 661:./Libraries/CMSIS/DSP/Source/FilteringFunctions/arm_correlate_f32.c **** 
 662:./Libraries/CMSIS/DSP/Source/FilteringFunctions/arm_correlate_f32.c ****       while (k > 0U)
 326              		.loc 1 662 13
 327 01aa 14E0     		b	.L15
 328              	.L16:
 663:./Libraries/CMSIS/DSP/Source/FilteringFunctions/arm_correlate_f32.c ****       {
 664:./Libraries/CMSIS/DSP/Source/FilteringFunctions/arm_correlate_f32.c ****         /* Perform the multiply-accumulate */
 665:./Libraries/CMSIS/DSP/Source/FilteringFunctions/arm_correlate_f32.c ****         sum += *px++ * *py++;
 329              		.loc 1 665 19
 330 01ac 3B6C     		ldr	r3, [r7, #64]
 331 01ae 1A1D     		adds	r2, r3, #4
 332 01b0 3A64     		str	r2, [r7, #64]
 333              		.loc 1 665 16
 334 01b2 93ED007A 		vldr.32	s14, [r3]
 335              		.loc 1 665 27
 336 01b6 FB6B     		ldr	r3, [r7, #60]
 337 01b8 1A1D     		adds	r2, r3, #4
 338 01ba FA63     		str	r2, [r7, #60]
 339              		.loc 1 665 24
 340 01bc D3ED007A 		vldr.32	s15, [r3]
 341              		.loc 1 665 22
 342 01c0 67EE277A 		vmul.f32	s15, s14, s15
 343              		.loc 1 665 13
 344 01c4 97ED0D7A 		vldr.32	s14, [r7, #52]
 345 01c8 77EE277A 		vadd.f32	s15, s14, s15
 346 01cc C7ED0D7A 		vstr.32	s15, [r7, #52]
 666:./Libraries/CMSIS/DSP/Source/FilteringFunctions/arm_correlate_f32.c **** 
 667:./Libraries/CMSIS/DSP/Source/FilteringFunctions/arm_correlate_f32.c ****         /* Decrement the loop counter */
 668:./Libraries/CMSIS/DSP/Source/FilteringFunctions/arm_correlate_f32.c ****         k--;
 347              		.loc 1 668 10
 348 01d0 BB6A     		ldr	r3, [r7, #40]
 349 01d2 013B     		subs	r3, r3, #1
 350 01d4 BB62     		str	r3, [r7, #40]
 351              	.L15:
 662:./Libraries/CMSIS/DSP/Source/FilteringFunctions/arm_correlate_f32.c ****       {
 352              		.loc 1 662 13
 353 01d6 BB6A     		ldr	r3, [r7, #40]
 354 01d8 002B     		cmp	r3, #0
ARM GAS  /tmp/ccQymEZf.s 			page 19


 355 01da E7D1     		bne	.L16
 669:./Libraries/CMSIS/DSP/Source/FilteringFunctions/arm_correlate_f32.c ****       }
 670:./Libraries/CMSIS/DSP/Source/FilteringFunctions/arm_correlate_f32.c **** 
 671:./Libraries/CMSIS/DSP/Source/FilteringFunctions/arm_correlate_f32.c ****       /* Store the result in the accumulator in the destination buffer. */
 672:./Libraries/CMSIS/DSP/Source/FilteringFunctions/arm_correlate_f32.c ****       *pOut = sum;
 356              		.loc 1 672 13
 357 01dc 7B6C     		ldr	r3, [r7, #68]
 358 01de 7A6B     		ldr	r2, [r7, #52]	@ float
 359 01e0 1A60     		str	r2, [r3]	@ float
 673:./Libraries/CMSIS/DSP/Source/FilteringFunctions/arm_correlate_f32.c ****       /* Destination pointer is updated according to the address modifier, inc */
 674:./Libraries/CMSIS/DSP/Source/FilteringFunctions/arm_correlate_f32.c ****       pOut += inc;
 360              		.loc 1 674 12
 361 01e2 FB69     		ldr	r3, [r7, #28]
 362 01e4 9B00     		lsls	r3, r3, #2
 363 01e6 7A6C     		ldr	r2, [r7, #68]
 364 01e8 1344     		add	r3, r3, r2
 365 01ea 7B64     		str	r3, [r7, #68]
 675:./Libraries/CMSIS/DSP/Source/FilteringFunctions/arm_correlate_f32.c **** 
 676:./Libraries/CMSIS/DSP/Source/FilteringFunctions/arm_correlate_f32.c ****       /* Increment the pointer pIn1 index, count by 1 */
 677:./Libraries/CMSIS/DSP/Source/FilteringFunctions/arm_correlate_f32.c ****       count++;
 366              		.loc 1 677 12
 367 01ec 7B6A     		ldr	r3, [r7, #36]
 368 01ee 0133     		adds	r3, r3, #1
 369 01f0 7B62     		str	r3, [r7, #36]
 678:./Libraries/CMSIS/DSP/Source/FilteringFunctions/arm_correlate_f32.c **** 
 679:./Libraries/CMSIS/DSP/Source/FilteringFunctions/arm_correlate_f32.c ****       /* Update the inputA and inputB pointers for next MAC calculation */
 680:./Libraries/CMSIS/DSP/Source/FilteringFunctions/arm_correlate_f32.c ****       px = pIn1 + count;
 370              		.loc 1 680 17
 371 01f2 7B6A     		ldr	r3, [r7, #36]
 372 01f4 9B00     		lsls	r3, r3, #2
 373              		.loc 1 680 10
 374 01f6 FA6C     		ldr	r2, [r7, #76]
 375 01f8 1344     		add	r3, r3, r2
 376 01fa 3B64     		str	r3, [r7, #64]
 681:./Libraries/CMSIS/DSP/Source/FilteringFunctions/arm_correlate_f32.c ****       py = pIn2;
 377              		.loc 1 681 10
 378 01fc BB6C     		ldr	r3, [r7, #72]
 379 01fe FB63     		str	r3, [r7, #60]
 682:./Libraries/CMSIS/DSP/Source/FilteringFunctions/arm_correlate_f32.c **** 
 683:./Libraries/CMSIS/DSP/Source/FilteringFunctions/arm_correlate_f32.c ****       /* Decrement the loop counter */
 684:./Libraries/CMSIS/DSP/Source/FilteringFunctions/arm_correlate_f32.c ****       blkCnt--;
 380              		.loc 1 684 13
 381 0200 3B6A     		ldr	r3, [r7, #32]
 382 0202 013B     		subs	r3, r3, #1
 383 0204 3B62     		str	r3, [r7, #32]
 384              	.L14:
 654:./Libraries/CMSIS/DSP/Source/FilteringFunctions/arm_correlate_f32.c ****     {
 385              		.loc 1 654 11
 386 0206 3B6A     		ldr	r3, [r7, #32]
 387 0208 002B     		cmp	r3, #0
 388 020a C9D1     		bne	.L17
 389              	.L13:
 685:./Libraries/CMSIS/DSP/Source/FilteringFunctions/arm_correlate_f32.c ****     }
 686:./Libraries/CMSIS/DSP/Source/FilteringFunctions/arm_correlate_f32.c ****   }
 687:./Libraries/CMSIS/DSP/Source/FilteringFunctions/arm_correlate_f32.c **** 
 688:./Libraries/CMSIS/DSP/Source/FilteringFunctions/arm_correlate_f32.c **** 
 689:./Libraries/CMSIS/DSP/Source/FilteringFunctions/arm_correlate_f32.c ****   /* --------------------------
ARM GAS  /tmp/ccQymEZf.s 			page 20


 690:./Libraries/CMSIS/DSP/Source/FilteringFunctions/arm_correlate_f32.c ****    * Initializations of stage3
 691:./Libraries/CMSIS/DSP/Source/FilteringFunctions/arm_correlate_f32.c ****    * -------------------------*/
 692:./Libraries/CMSIS/DSP/Source/FilteringFunctions/arm_correlate_f32.c **** 
 693:./Libraries/CMSIS/DSP/Source/FilteringFunctions/arm_correlate_f32.c ****   /* sum += x[srcALen-srcBLen+1] * y[0] + x[srcALen-srcBLen+2] * y[1] +...+ x[srcALen-1] * y[srcBLe
 694:./Libraries/CMSIS/DSP/Source/FilteringFunctions/arm_correlate_f32.c ****    * sum += x[srcALen-srcBLen+2] * y[0] + x[srcALen-srcBLen+3] * y[1] +...+ x[srcALen-1] * y[srcBLe
 695:./Libraries/CMSIS/DSP/Source/FilteringFunctions/arm_correlate_f32.c ****    * ....
 696:./Libraries/CMSIS/DSP/Source/FilteringFunctions/arm_correlate_f32.c ****    * sum +=  x[srcALen-2] * y[0] + x[srcALen-1] * y[1]
 697:./Libraries/CMSIS/DSP/Source/FilteringFunctions/arm_correlate_f32.c ****    * sum +=  x[srcALen-1] * y[0]
 698:./Libraries/CMSIS/DSP/Source/FilteringFunctions/arm_correlate_f32.c ****    */
 699:./Libraries/CMSIS/DSP/Source/FilteringFunctions/arm_correlate_f32.c **** 
 700:./Libraries/CMSIS/DSP/Source/FilteringFunctions/arm_correlate_f32.c ****   /* In this stage the MAC operations are decreased by 1 for every iteration.
 701:./Libraries/CMSIS/DSP/Source/FilteringFunctions/arm_correlate_f32.c ****      The count variable holds the number of MAC operations performed */
 702:./Libraries/CMSIS/DSP/Source/FilteringFunctions/arm_correlate_f32.c ****   count = srcBLen - 1U;
 390              		.loc 1 702 9
 391 020c 3B68     		ldr	r3, [r7]
 392 020e 013B     		subs	r3, r3, #1
 393 0210 7B62     		str	r3, [r7, #36]
 703:./Libraries/CMSIS/DSP/Source/FilteringFunctions/arm_correlate_f32.c **** 
 704:./Libraries/CMSIS/DSP/Source/FilteringFunctions/arm_correlate_f32.c ****   /* Working pointer of inputA */
 705:./Libraries/CMSIS/DSP/Source/FilteringFunctions/arm_correlate_f32.c ****   pSrc1 = pIn1 + (srcALen - (srcBLen - 1U));
 394              		.loc 1 705 27
 395 0212 BA68     		ldr	r2, [r7, #8]
 396 0214 3B68     		ldr	r3, [r7]
 397 0216 D31A     		subs	r3, r2, r3
 398 0218 0133     		adds	r3, r3, #1
 399              		.loc 1 705 16
 400 021a 9B00     		lsls	r3, r3, #2
 401              		.loc 1 705 9
 402 021c FA6C     		ldr	r2, [r7, #76]
 403 021e 1344     		add	r3, r3, r2
 404 0220 BB63     		str	r3, [r7, #56]
 706:./Libraries/CMSIS/DSP/Source/FilteringFunctions/arm_correlate_f32.c ****   px = pSrc1;
 405              		.loc 1 706 6
 406 0222 BB6B     		ldr	r3, [r7, #56]
 407 0224 3B64     		str	r3, [r7, #64]
 707:./Libraries/CMSIS/DSP/Source/FilteringFunctions/arm_correlate_f32.c **** 
 708:./Libraries/CMSIS/DSP/Source/FilteringFunctions/arm_correlate_f32.c ****   /* Working pointer of inputB */
 709:./Libraries/CMSIS/DSP/Source/FilteringFunctions/arm_correlate_f32.c ****   py = pIn2;
 408              		.loc 1 709 6
 409 0226 BB6C     		ldr	r3, [r7, #72]
 410 0228 FB63     		str	r3, [r7, #60]
 710:./Libraries/CMSIS/DSP/Source/FilteringFunctions/arm_correlate_f32.c **** 
 711:./Libraries/CMSIS/DSP/Source/FilteringFunctions/arm_correlate_f32.c ****   /* -------------------
 712:./Libraries/CMSIS/DSP/Source/FilteringFunctions/arm_correlate_f32.c ****    * Stage3 process
 713:./Libraries/CMSIS/DSP/Source/FilteringFunctions/arm_correlate_f32.c ****    * ------------------*/
 714:./Libraries/CMSIS/DSP/Source/FilteringFunctions/arm_correlate_f32.c **** 
 715:./Libraries/CMSIS/DSP/Source/FilteringFunctions/arm_correlate_f32.c ****   while (blockSize3 > 0U)
 411              		.loc 1 715 9
 412 022a 32E0     		b	.L18
 413              	.L21:
 716:./Libraries/CMSIS/DSP/Source/FilteringFunctions/arm_correlate_f32.c ****   {
 717:./Libraries/CMSIS/DSP/Source/FilteringFunctions/arm_correlate_f32.c ****     /* Accumulator is made zero for every iteration */
 718:./Libraries/CMSIS/DSP/Source/FilteringFunctions/arm_correlate_f32.c ****     sum = 0.0f;
 414              		.loc 1 718 9
 415 022c 4FF00003 		mov	r3, #0
 416 0230 7B63     		str	r3, [r7, #52]	@ float
 719:./Libraries/CMSIS/DSP/Source/FilteringFunctions/arm_correlate_f32.c **** 
ARM GAS  /tmp/ccQymEZf.s 			page 21


 720:./Libraries/CMSIS/DSP/Source/FilteringFunctions/arm_correlate_f32.c **** #if defined (ARM_MATH_LOOPUNROLL) || defined(ARM_MATH_NEON)
 721:./Libraries/CMSIS/DSP/Source/FilteringFunctions/arm_correlate_f32.c **** 
 722:./Libraries/CMSIS/DSP/Source/FilteringFunctions/arm_correlate_f32.c ****     /* Loop unrolling: Compute 4 outputs at a time */
 723:./Libraries/CMSIS/DSP/Source/FilteringFunctions/arm_correlate_f32.c ****     k = count >> 2U;
 724:./Libraries/CMSIS/DSP/Source/FilteringFunctions/arm_correlate_f32.c **** 
 725:./Libraries/CMSIS/DSP/Source/FilteringFunctions/arm_correlate_f32.c **** #if defined(ARM_MATH_NEON)
 726:./Libraries/CMSIS/DSP/Source/FilteringFunctions/arm_correlate_f32.c ****     float32x4_t x,y;
 727:./Libraries/CMSIS/DSP/Source/FilteringFunctions/arm_correlate_f32.c ****     float32x4_t res = vdupq_n_f32(0) ;
 728:./Libraries/CMSIS/DSP/Source/FilteringFunctions/arm_correlate_f32.c ****     float32x2_t accum = vdup_n_f32(0);
 729:./Libraries/CMSIS/DSP/Source/FilteringFunctions/arm_correlate_f32.c **** 
 730:./Libraries/CMSIS/DSP/Source/FilteringFunctions/arm_correlate_f32.c ****     while (k > 0U)
 731:./Libraries/CMSIS/DSP/Source/FilteringFunctions/arm_correlate_f32.c ****     {
 732:./Libraries/CMSIS/DSP/Source/FilteringFunctions/arm_correlate_f32.c ****       x = vld1q_f32(px);
 733:./Libraries/CMSIS/DSP/Source/FilteringFunctions/arm_correlate_f32.c ****       y = vld1q_f32(py);
 734:./Libraries/CMSIS/DSP/Source/FilteringFunctions/arm_correlate_f32.c **** 
 735:./Libraries/CMSIS/DSP/Source/FilteringFunctions/arm_correlate_f32.c ****       res = vmlaq_f32(res,x, y);
 736:./Libraries/CMSIS/DSP/Source/FilteringFunctions/arm_correlate_f32.c **** 
 737:./Libraries/CMSIS/DSP/Source/FilteringFunctions/arm_correlate_f32.c ****       px += 4;
 738:./Libraries/CMSIS/DSP/Source/FilteringFunctions/arm_correlate_f32.c ****       py += 4;
 739:./Libraries/CMSIS/DSP/Source/FilteringFunctions/arm_correlate_f32.c **** 
 740:./Libraries/CMSIS/DSP/Source/FilteringFunctions/arm_correlate_f32.c ****       /* Decrement the loop counter */
 741:./Libraries/CMSIS/DSP/Source/FilteringFunctions/arm_correlate_f32.c ****       k--;
 742:./Libraries/CMSIS/DSP/Source/FilteringFunctions/arm_correlate_f32.c ****     }
 743:./Libraries/CMSIS/DSP/Source/FilteringFunctions/arm_correlate_f32.c **** 
 744:./Libraries/CMSIS/DSP/Source/FilteringFunctions/arm_correlate_f32.c ****     accum = vpadd_f32(vget_low_f32(res), vget_high_f32(res));
 745:./Libraries/CMSIS/DSP/Source/FilteringFunctions/arm_correlate_f32.c ****     sum += accum[0] + accum[1];
 746:./Libraries/CMSIS/DSP/Source/FilteringFunctions/arm_correlate_f32.c **** #else
 747:./Libraries/CMSIS/DSP/Source/FilteringFunctions/arm_correlate_f32.c ****     /* First part of the processing with loop unrolling.  Compute 4 MACs at a time.
 748:./Libraries/CMSIS/DSP/Source/FilteringFunctions/arm_correlate_f32.c ****      ** a second loop below computes MACs for the remaining 1 to 3 samples. */
 749:./Libraries/CMSIS/DSP/Source/FilteringFunctions/arm_correlate_f32.c ****     while (k > 0U)
 750:./Libraries/CMSIS/DSP/Source/FilteringFunctions/arm_correlate_f32.c ****     {
 751:./Libraries/CMSIS/DSP/Source/FilteringFunctions/arm_correlate_f32.c ****       /* Perform the multiply-accumulate */
 752:./Libraries/CMSIS/DSP/Source/FilteringFunctions/arm_correlate_f32.c ****       /* sum += x[srcALen - srcBLen + 4] * y[3] */
 753:./Libraries/CMSIS/DSP/Source/FilteringFunctions/arm_correlate_f32.c ****       sum += *px++ * *py++;
 754:./Libraries/CMSIS/DSP/Source/FilteringFunctions/arm_correlate_f32.c **** 
 755:./Libraries/CMSIS/DSP/Source/FilteringFunctions/arm_correlate_f32.c ****       /* sum += x[srcALen - srcBLen + 3] * y[2] */
 756:./Libraries/CMSIS/DSP/Source/FilteringFunctions/arm_correlate_f32.c ****       sum += *px++ * *py++;
 757:./Libraries/CMSIS/DSP/Source/FilteringFunctions/arm_correlate_f32.c **** 
 758:./Libraries/CMSIS/DSP/Source/FilteringFunctions/arm_correlate_f32.c ****       /* sum += x[srcALen - srcBLen + 2] * y[1] */
 759:./Libraries/CMSIS/DSP/Source/FilteringFunctions/arm_correlate_f32.c ****       sum += *px++ * *py++;
 760:./Libraries/CMSIS/DSP/Source/FilteringFunctions/arm_correlate_f32.c **** 
 761:./Libraries/CMSIS/DSP/Source/FilteringFunctions/arm_correlate_f32.c ****       /* sum += x[srcALen - srcBLen + 1] * y[0] */
 762:./Libraries/CMSIS/DSP/Source/FilteringFunctions/arm_correlate_f32.c ****       sum += *px++ * *py++;
 763:./Libraries/CMSIS/DSP/Source/FilteringFunctions/arm_correlate_f32.c **** 
 764:./Libraries/CMSIS/DSP/Source/FilteringFunctions/arm_correlate_f32.c ****       /* Decrement loop counter */
 765:./Libraries/CMSIS/DSP/Source/FilteringFunctions/arm_correlate_f32.c ****       k--;
 766:./Libraries/CMSIS/DSP/Source/FilteringFunctions/arm_correlate_f32.c ****     }
 767:./Libraries/CMSIS/DSP/Source/FilteringFunctions/arm_correlate_f32.c **** 
 768:./Libraries/CMSIS/DSP/Source/FilteringFunctions/arm_correlate_f32.c **** #endif /* #if defined (ARM_MATH_NEON) */
 769:./Libraries/CMSIS/DSP/Source/FilteringFunctions/arm_correlate_f32.c ****     /* Loop unrolling: Compute remaining outputs */
 770:./Libraries/CMSIS/DSP/Source/FilteringFunctions/arm_correlate_f32.c ****     k = count % 0x4U;
 771:./Libraries/CMSIS/DSP/Source/FilteringFunctions/arm_correlate_f32.c **** 
 772:./Libraries/CMSIS/DSP/Source/FilteringFunctions/arm_correlate_f32.c **** #else
 773:./Libraries/CMSIS/DSP/Source/FilteringFunctions/arm_correlate_f32.c **** 
 774:./Libraries/CMSIS/DSP/Source/FilteringFunctions/arm_correlate_f32.c ****     /* Initialize blkCnt with number of samples */
 775:./Libraries/CMSIS/DSP/Source/FilteringFunctions/arm_correlate_f32.c ****     k = count;
 417              		.loc 1 775 7
ARM GAS  /tmp/ccQymEZf.s 			page 22


 418 0232 7B6A     		ldr	r3, [r7, #36]
 419 0234 BB62     		str	r3, [r7, #40]
 776:./Libraries/CMSIS/DSP/Source/FilteringFunctions/arm_correlate_f32.c **** 
 777:./Libraries/CMSIS/DSP/Source/FilteringFunctions/arm_correlate_f32.c **** #endif /* #if defined (ARM_MATH_LOOPUNROLL) || defined(ARM_MATH_NEON) */
 778:./Libraries/CMSIS/DSP/Source/FilteringFunctions/arm_correlate_f32.c **** 
 779:./Libraries/CMSIS/DSP/Source/FilteringFunctions/arm_correlate_f32.c ****     while (k > 0U)
 420              		.loc 1 779 11
 421 0236 14E0     		b	.L19
 422              	.L20:
 780:./Libraries/CMSIS/DSP/Source/FilteringFunctions/arm_correlate_f32.c ****     {
 781:./Libraries/CMSIS/DSP/Source/FilteringFunctions/arm_correlate_f32.c ****       /* Perform the multiply-accumulate */
 782:./Libraries/CMSIS/DSP/Source/FilteringFunctions/arm_correlate_f32.c ****       sum += *px++ * *py++;
 423              		.loc 1 782 17
 424 0238 3B6C     		ldr	r3, [r7, #64]
 425 023a 1A1D     		adds	r2, r3, #4
 426 023c 3A64     		str	r2, [r7, #64]
 427              		.loc 1 782 14
 428 023e 93ED007A 		vldr.32	s14, [r3]
 429              		.loc 1 782 25
 430 0242 FB6B     		ldr	r3, [r7, #60]
 431 0244 1A1D     		adds	r2, r3, #4
 432 0246 FA63     		str	r2, [r7, #60]
 433              		.loc 1 782 22
 434 0248 D3ED007A 		vldr.32	s15, [r3]
 435              		.loc 1 782 20
 436 024c 67EE277A 		vmul.f32	s15, s14, s15
 437              		.loc 1 782 11
 438 0250 97ED0D7A 		vldr.32	s14, [r7, #52]
 439 0254 77EE277A 		vadd.f32	s15, s14, s15
 440 0258 C7ED0D7A 		vstr.32	s15, [r7, #52]
 783:./Libraries/CMSIS/DSP/Source/FilteringFunctions/arm_correlate_f32.c **** 
 784:./Libraries/CMSIS/DSP/Source/FilteringFunctions/arm_correlate_f32.c ****       /* Decrement loop counter */
 785:./Libraries/CMSIS/DSP/Source/FilteringFunctions/arm_correlate_f32.c ****       k--;
 441              		.loc 1 785 8
 442 025c BB6A     		ldr	r3, [r7, #40]
 443 025e 013B     		subs	r3, r3, #1
 444 0260 BB62     		str	r3, [r7, #40]
 445              	.L19:
 779:./Libraries/CMSIS/DSP/Source/FilteringFunctions/arm_correlate_f32.c ****     {
 446              		.loc 1 779 11
 447 0262 BB6A     		ldr	r3, [r7, #40]
 448 0264 002B     		cmp	r3, #0
 449 0266 E7D1     		bne	.L20
 786:./Libraries/CMSIS/DSP/Source/FilteringFunctions/arm_correlate_f32.c ****     }
 787:./Libraries/CMSIS/DSP/Source/FilteringFunctions/arm_correlate_f32.c **** 
 788:./Libraries/CMSIS/DSP/Source/FilteringFunctions/arm_correlate_f32.c ****     /* Store the result in the accumulator in the destination buffer. */
 789:./Libraries/CMSIS/DSP/Source/FilteringFunctions/arm_correlate_f32.c ****     *pOut = sum;
 450              		.loc 1 789 11
 451 0268 7B6C     		ldr	r3, [r7, #68]
 452 026a 7A6B     		ldr	r2, [r7, #52]	@ float
 453 026c 1A60     		str	r2, [r3]	@ float
 790:./Libraries/CMSIS/DSP/Source/FilteringFunctions/arm_correlate_f32.c ****     /* Destination pointer is updated according to the address modifier, inc */
 791:./Libraries/CMSIS/DSP/Source/FilteringFunctions/arm_correlate_f32.c ****     pOut += inc;
 454              		.loc 1 791 10
 455 026e FB69     		ldr	r3, [r7, #28]
 456 0270 9B00     		lsls	r3, r3, #2
 457 0272 7A6C     		ldr	r2, [r7, #68]
ARM GAS  /tmp/ccQymEZf.s 			page 23


 458 0274 1344     		add	r3, r3, r2
 459 0276 7B64     		str	r3, [r7, #68]
 792:./Libraries/CMSIS/DSP/Source/FilteringFunctions/arm_correlate_f32.c **** 
 793:./Libraries/CMSIS/DSP/Source/FilteringFunctions/arm_correlate_f32.c ****     /* Update the inputA and inputB pointers for next MAC calculation */
 794:./Libraries/CMSIS/DSP/Source/FilteringFunctions/arm_correlate_f32.c ****     px = ++pSrc1;
 460              		.loc 1 794 8
 461 0278 BB6B     		ldr	r3, [r7, #56]
 462 027a 0433     		adds	r3, r3, #4
 463 027c BB63     		str	r3, [r7, #56]
 464 027e BB6B     		ldr	r3, [r7, #56]
 465 0280 3B64     		str	r3, [r7, #64]
 795:./Libraries/CMSIS/DSP/Source/FilteringFunctions/arm_correlate_f32.c ****     py = pIn2;
 466              		.loc 1 795 8
 467 0282 BB6C     		ldr	r3, [r7, #72]
 468 0284 FB63     		str	r3, [r7, #60]
 796:./Libraries/CMSIS/DSP/Source/FilteringFunctions/arm_correlate_f32.c **** 
 797:./Libraries/CMSIS/DSP/Source/FilteringFunctions/arm_correlate_f32.c ****     /* Decrement MAC count */
 798:./Libraries/CMSIS/DSP/Source/FilteringFunctions/arm_correlate_f32.c ****     count--;
 469              		.loc 1 798 10
 470 0286 7B6A     		ldr	r3, [r7, #36]
 471 0288 013B     		subs	r3, r3, #1
 472 028a 7B62     		str	r3, [r7, #36]
 799:./Libraries/CMSIS/DSP/Source/FilteringFunctions/arm_correlate_f32.c **** 
 800:./Libraries/CMSIS/DSP/Source/FilteringFunctions/arm_correlate_f32.c ****     /* Decrement the loop counter */
 801:./Libraries/CMSIS/DSP/Source/FilteringFunctions/arm_correlate_f32.c ****     blockSize3--;
 473              		.loc 1 801 15
 474 028c FB6A     		ldr	r3, [r7, #44]
 475 028e 013B     		subs	r3, r3, #1
 476 0290 FB62     		str	r3, [r7, #44]
 477              	.L18:
 715:./Libraries/CMSIS/DSP/Source/FilteringFunctions/arm_correlate_f32.c ****   {
 478              		.loc 1 715 9
 479 0292 FB6A     		ldr	r3, [r7, #44]
 480 0294 002B     		cmp	r3, #0
 481 0296 C9D1     		bne	.L21
 802:./Libraries/CMSIS/DSP/Source/FilteringFunctions/arm_correlate_f32.c ****   }
 803:./Libraries/CMSIS/DSP/Source/FilteringFunctions/arm_correlate_f32.c **** 
 804:./Libraries/CMSIS/DSP/Source/FilteringFunctions/arm_correlate_f32.c **** #else
 805:./Libraries/CMSIS/DSP/Source/FilteringFunctions/arm_correlate_f32.c **** /* alternate version for CM0_FAMILY */
 806:./Libraries/CMSIS/DSP/Source/FilteringFunctions/arm_correlate_f32.c **** 
 807:./Libraries/CMSIS/DSP/Source/FilteringFunctions/arm_correlate_f32.c ****   const float32_t *pIn1 = pSrcA;                       /* inputA pointer */
 808:./Libraries/CMSIS/DSP/Source/FilteringFunctions/arm_correlate_f32.c ****   const float32_t *pIn2 = pSrcB + (srcBLen - 1U);      /* inputB pointer */
 809:./Libraries/CMSIS/DSP/Source/FilteringFunctions/arm_correlate_f32.c ****         float32_t sum;                                 /* Accumulator */
 810:./Libraries/CMSIS/DSP/Source/FilteringFunctions/arm_correlate_f32.c ****         uint32_t i = 0U, j;                            /* Loop counters */
 811:./Libraries/CMSIS/DSP/Source/FilteringFunctions/arm_correlate_f32.c ****         uint32_t inv = 0U;                             /* Reverse order flag */
 812:./Libraries/CMSIS/DSP/Source/FilteringFunctions/arm_correlate_f32.c ****         uint32_t tot = 0U;                             /* Length */
 813:./Libraries/CMSIS/DSP/Source/FilteringFunctions/arm_correlate_f32.c **** 
 814:./Libraries/CMSIS/DSP/Source/FilteringFunctions/arm_correlate_f32.c ****   /* The algorithm implementation is based on the lengths of the inputs. */
 815:./Libraries/CMSIS/DSP/Source/FilteringFunctions/arm_correlate_f32.c ****   /* srcB is always made to slide across srcA. */
 816:./Libraries/CMSIS/DSP/Source/FilteringFunctions/arm_correlate_f32.c ****   /* So srcBLen is always considered as shorter or equal to srcALen */
 817:./Libraries/CMSIS/DSP/Source/FilteringFunctions/arm_correlate_f32.c ****   /* But CORR(x, y) is reverse of CORR(y, x) */
 818:./Libraries/CMSIS/DSP/Source/FilteringFunctions/arm_correlate_f32.c ****   /* So, when srcBLen > srcALen, output pointer is made to point to the end of the output buffer */
 819:./Libraries/CMSIS/DSP/Source/FilteringFunctions/arm_correlate_f32.c ****   /* and a varaible, inv is set to 1 */
 820:./Libraries/CMSIS/DSP/Source/FilteringFunctions/arm_correlate_f32.c ****   /* If lengths are not equal then zero pad has to be done to  make the two
 821:./Libraries/CMSIS/DSP/Source/FilteringFunctions/arm_correlate_f32.c ****    * inputs of same length. But to improve the performance, we assume zeroes
 822:./Libraries/CMSIS/DSP/Source/FilteringFunctions/arm_correlate_f32.c ****    * in the output instead of zero padding either of the the inputs*/
 823:./Libraries/CMSIS/DSP/Source/FilteringFunctions/arm_correlate_f32.c ****   /* If srcALen > srcBLen, (srcALen - srcBLen) zeroes has to included in the
ARM GAS  /tmp/ccQymEZf.s 			page 24


 824:./Libraries/CMSIS/DSP/Source/FilteringFunctions/arm_correlate_f32.c ****    * starting of the output buffer */
 825:./Libraries/CMSIS/DSP/Source/FilteringFunctions/arm_correlate_f32.c ****   /* If srcALen < srcBLen, (srcALen - srcBLen) zeroes has to included in the
 826:./Libraries/CMSIS/DSP/Source/FilteringFunctions/arm_correlate_f32.c ****    * ending of the output buffer */
 827:./Libraries/CMSIS/DSP/Source/FilteringFunctions/arm_correlate_f32.c ****   /* Once the zero padding is done the remaining of the output is calcualted
 828:./Libraries/CMSIS/DSP/Source/FilteringFunctions/arm_correlate_f32.c ****    * using convolution but with the shorter signal time shifted. */
 829:./Libraries/CMSIS/DSP/Source/FilteringFunctions/arm_correlate_f32.c **** 
 830:./Libraries/CMSIS/DSP/Source/FilteringFunctions/arm_correlate_f32.c ****   /* Calculate the length of the remaining sequence */
 831:./Libraries/CMSIS/DSP/Source/FilteringFunctions/arm_correlate_f32.c ****   tot = ((srcALen + srcBLen) - 2U);
 832:./Libraries/CMSIS/DSP/Source/FilteringFunctions/arm_correlate_f32.c **** 
 833:./Libraries/CMSIS/DSP/Source/FilteringFunctions/arm_correlate_f32.c ****   if (srcALen > srcBLen)
 834:./Libraries/CMSIS/DSP/Source/FilteringFunctions/arm_correlate_f32.c ****   {
 835:./Libraries/CMSIS/DSP/Source/FilteringFunctions/arm_correlate_f32.c ****     /* Calculating the number of zeros to be padded to the output */
 836:./Libraries/CMSIS/DSP/Source/FilteringFunctions/arm_correlate_f32.c ****     j = srcALen - srcBLen;
 837:./Libraries/CMSIS/DSP/Source/FilteringFunctions/arm_correlate_f32.c **** 
 838:./Libraries/CMSIS/DSP/Source/FilteringFunctions/arm_correlate_f32.c ****     /* Initialise the pointer after zero padding */
 839:./Libraries/CMSIS/DSP/Source/FilteringFunctions/arm_correlate_f32.c ****     pDst += j;
 840:./Libraries/CMSIS/DSP/Source/FilteringFunctions/arm_correlate_f32.c ****   }
 841:./Libraries/CMSIS/DSP/Source/FilteringFunctions/arm_correlate_f32.c **** 
 842:./Libraries/CMSIS/DSP/Source/FilteringFunctions/arm_correlate_f32.c ****   else if (srcALen < srcBLen)
 843:./Libraries/CMSIS/DSP/Source/FilteringFunctions/arm_correlate_f32.c ****   {
 844:./Libraries/CMSIS/DSP/Source/FilteringFunctions/arm_correlate_f32.c ****     /* Initialization to inputB pointer */
 845:./Libraries/CMSIS/DSP/Source/FilteringFunctions/arm_correlate_f32.c ****     pIn1 = pSrcB;
 846:./Libraries/CMSIS/DSP/Source/FilteringFunctions/arm_correlate_f32.c **** 
 847:./Libraries/CMSIS/DSP/Source/FilteringFunctions/arm_correlate_f32.c ****     /* Initialization to the end of inputA pointer */
 848:./Libraries/CMSIS/DSP/Source/FilteringFunctions/arm_correlate_f32.c ****     pIn2 = pSrcA + (srcALen - 1U);
 849:./Libraries/CMSIS/DSP/Source/FilteringFunctions/arm_correlate_f32.c **** 
 850:./Libraries/CMSIS/DSP/Source/FilteringFunctions/arm_correlate_f32.c ****     /* Initialisation of the pointer after zero padding */
 851:./Libraries/CMSIS/DSP/Source/FilteringFunctions/arm_correlate_f32.c ****     pDst = pDst + tot;
 852:./Libraries/CMSIS/DSP/Source/FilteringFunctions/arm_correlate_f32.c **** 
 853:./Libraries/CMSIS/DSP/Source/FilteringFunctions/arm_correlate_f32.c ****     /* Swapping the lengths */
 854:./Libraries/CMSIS/DSP/Source/FilteringFunctions/arm_correlate_f32.c ****     j = srcALen;
 855:./Libraries/CMSIS/DSP/Source/FilteringFunctions/arm_correlate_f32.c ****     srcALen = srcBLen;
 856:./Libraries/CMSIS/DSP/Source/FilteringFunctions/arm_correlate_f32.c ****     srcBLen = j;
 857:./Libraries/CMSIS/DSP/Source/FilteringFunctions/arm_correlate_f32.c **** 
 858:./Libraries/CMSIS/DSP/Source/FilteringFunctions/arm_correlate_f32.c ****     /* Setting the reverse flag */
 859:./Libraries/CMSIS/DSP/Source/FilteringFunctions/arm_correlate_f32.c ****     inv = 1;
 860:./Libraries/CMSIS/DSP/Source/FilteringFunctions/arm_correlate_f32.c **** 
 861:./Libraries/CMSIS/DSP/Source/FilteringFunctions/arm_correlate_f32.c ****   }
 862:./Libraries/CMSIS/DSP/Source/FilteringFunctions/arm_correlate_f32.c **** 
 863:./Libraries/CMSIS/DSP/Source/FilteringFunctions/arm_correlate_f32.c ****   /* Loop to calculate convolution for output length number of times */
 864:./Libraries/CMSIS/DSP/Source/FilteringFunctions/arm_correlate_f32.c ****   for (i = 0U; i <= tot; i++)
 865:./Libraries/CMSIS/DSP/Source/FilteringFunctions/arm_correlate_f32.c ****   {
 866:./Libraries/CMSIS/DSP/Source/FilteringFunctions/arm_correlate_f32.c ****     /* Initialize sum with zero to carry out MAC operations */
 867:./Libraries/CMSIS/DSP/Source/FilteringFunctions/arm_correlate_f32.c ****     sum = 0.0f;
 868:./Libraries/CMSIS/DSP/Source/FilteringFunctions/arm_correlate_f32.c **** 
 869:./Libraries/CMSIS/DSP/Source/FilteringFunctions/arm_correlate_f32.c ****     /* Loop to perform MAC operations according to convolution equation */
 870:./Libraries/CMSIS/DSP/Source/FilteringFunctions/arm_correlate_f32.c ****     for (j = 0U; j <= i; j++)
 871:./Libraries/CMSIS/DSP/Source/FilteringFunctions/arm_correlate_f32.c ****     {
 872:./Libraries/CMSIS/DSP/Source/FilteringFunctions/arm_correlate_f32.c ****       /* Check the array limitations */
 873:./Libraries/CMSIS/DSP/Source/FilteringFunctions/arm_correlate_f32.c ****       if ((((i - j) < srcBLen) && (j < srcALen)))
 874:./Libraries/CMSIS/DSP/Source/FilteringFunctions/arm_correlate_f32.c ****       {
 875:./Libraries/CMSIS/DSP/Source/FilteringFunctions/arm_correlate_f32.c ****         /* z[i] += x[i-j] * y[j] */
 876:./Libraries/CMSIS/DSP/Source/FilteringFunctions/arm_correlate_f32.c ****         sum += pIn1[j] * pIn2[-((int32_t) i - j)];
 877:./Libraries/CMSIS/DSP/Source/FilteringFunctions/arm_correlate_f32.c ****       }
 878:./Libraries/CMSIS/DSP/Source/FilteringFunctions/arm_correlate_f32.c ****     }
 879:./Libraries/CMSIS/DSP/Source/FilteringFunctions/arm_correlate_f32.c **** 
 880:./Libraries/CMSIS/DSP/Source/FilteringFunctions/arm_correlate_f32.c ****     /* Store the output in the destination buffer */
ARM GAS  /tmp/ccQymEZf.s 			page 25


 881:./Libraries/CMSIS/DSP/Source/FilteringFunctions/arm_correlate_f32.c ****     if (inv == 1)
 882:./Libraries/CMSIS/DSP/Source/FilteringFunctions/arm_correlate_f32.c ****       *pDst-- = sum;
 883:./Libraries/CMSIS/DSP/Source/FilteringFunctions/arm_correlate_f32.c ****     else
 884:./Libraries/CMSIS/DSP/Source/FilteringFunctions/arm_correlate_f32.c ****       *pDst++ = sum;
 885:./Libraries/CMSIS/DSP/Source/FilteringFunctions/arm_correlate_f32.c ****   }
 886:./Libraries/CMSIS/DSP/Source/FilteringFunctions/arm_correlate_f32.c **** 
 887:./Libraries/CMSIS/DSP/Source/FilteringFunctions/arm_correlate_f32.c **** #endif /* #if !defined(ARM_MATH_CM0_FAMILY) */
 888:./Libraries/CMSIS/DSP/Source/FilteringFunctions/arm_correlate_f32.c **** 
 889:./Libraries/CMSIS/DSP/Source/FilteringFunctions/arm_correlate_f32.c **** }
 482              		.loc 1 889 1
 483 0298 00BF     		nop
 484 029a 00BF     		nop
 485 029c 5437     		adds	r7, r7, #84
 486              	.LCFI3:
 487              		.cfi_def_cfa_offset 4
 488 029e BD46     		mov	sp, r7
 489              	.LCFI4:
 490              		.cfi_def_cfa_register 13
 491              		@ sp needed
 492 02a0 5DF8047B 		ldr	r7, [sp], #4
 493              	.LCFI5:
 494              		.cfi_restore 7
 495              		.cfi_def_cfa_offset 0
 496 02a4 7047     		bx	lr
 497              	.L23:
 498 02a6 00BF     		.align	2
 499              	.L22:
 500 02a8 FEFFFF3F 		.word	1073741822
 501              		.cfi_endproc
 502              	.LFE145:
 504              		.text
 505              	.Letext0:
 506              		.file 2 "/usr/lib/gcc/arm-none-eabi/9.2.1/include/stdint.h"
 507              		.file 3 "/usr/lib/gcc/arm-none-eabi/9.2.1/include/stddef.h"
 508              		.file 4 "/usr/include/newlib/sys/_types.h"
 509              		.file 5 "/usr/include/newlib/sys/reent.h"
 510              		.file 6 "/usr/include/newlib/sys/lock.h"
 511              		.file 7 "/usr/include/newlib/math.h"
 512              		.file 8 "./Libraries/CMSIS/DSP/Include/arm_math.h"
ARM GAS  /tmp/ccQymEZf.s 			page 26


DEFINED SYMBOLS
                            *ABS*:0000000000000000 arm_correlate_f32.c
     /tmp/ccQymEZf.s:17     .text.arm_correlate_f32:0000000000000000 $t
     /tmp/ccQymEZf.s:25     .text.arm_correlate_f32:0000000000000000 arm_correlate_f32
     /tmp/ccQymEZf.s:500    .text.arm_correlate_f32:00000000000002a8 $d

NO UNDEFINED SYMBOLS
