ARM GAS  /tmp/ccJSyl5L.s 			page 1


   1              		.cpu cortex-m7
   2              		.eabi_attribute 28, 1
   3              		.eabi_attribute 20, 1
   4              		.eabi_attribute 21, 1
   5              		.eabi_attribute 23, 3
   6              		.eabi_attribute 24, 1
   7              		.eabi_attribute 25, 1
   8              		.eabi_attribute 26, 1
   9              		.eabi_attribute 30, 6
  10              		.eabi_attribute 34, 1
  11              		.eabi_attribute 18, 4
  12              		.file	"arm_std_q31.c"
  13              		.text
  14              	.Ltext0:
  15              		.cfi_sections	.debug_frame
  16              		.global	__aeabi_ldivmod
  17              		.section	.text.arm_std_q31,"ax",%progbits
  18              		.align	1
  19              		.global	arm_std_q31
  20              		.arch armv7e-m
  21              		.syntax unified
  22              		.thumb
  23              		.thumb_func
  24              		.fpu fpv5-d16
  26              	arm_std_q31:
  27              	.LFB145:
  28              		.file 1 "./Libraries/CMSIS/DSP/Source/StatisticsFunctions/arm_std_q31.c"
   1:./Libraries/CMSIS/DSP/Source/StatisticsFunctions/arm_std_q31.c **** /* ----------------------------------------------------------------------
   2:./Libraries/CMSIS/DSP/Source/StatisticsFunctions/arm_std_q31.c ****  * Project:      CMSIS DSP Library
   3:./Libraries/CMSIS/DSP/Source/StatisticsFunctions/arm_std_q31.c ****  * Title:        arm_std_q31.c
   4:./Libraries/CMSIS/DSP/Source/StatisticsFunctions/arm_std_q31.c ****  * Description:  Standard deviation of the elements of a Q31 vector
   5:./Libraries/CMSIS/DSP/Source/StatisticsFunctions/arm_std_q31.c ****  *
   6:./Libraries/CMSIS/DSP/Source/StatisticsFunctions/arm_std_q31.c ****  * $Date:        18. March 2019
   7:./Libraries/CMSIS/DSP/Source/StatisticsFunctions/arm_std_q31.c ****  * $Revision:    V1.6.0
   8:./Libraries/CMSIS/DSP/Source/StatisticsFunctions/arm_std_q31.c ****  *
   9:./Libraries/CMSIS/DSP/Source/StatisticsFunctions/arm_std_q31.c ****  * Target Processor: Cortex-M cores
  10:./Libraries/CMSIS/DSP/Source/StatisticsFunctions/arm_std_q31.c ****  * -------------------------------------------------------------------- */
  11:./Libraries/CMSIS/DSP/Source/StatisticsFunctions/arm_std_q31.c **** /*
  12:./Libraries/CMSIS/DSP/Source/StatisticsFunctions/arm_std_q31.c ****  * Copyright (C) 2010-2019 ARM Limited or its affiliates. All rights reserved.
  13:./Libraries/CMSIS/DSP/Source/StatisticsFunctions/arm_std_q31.c ****  *
  14:./Libraries/CMSIS/DSP/Source/StatisticsFunctions/arm_std_q31.c ****  * SPDX-License-Identifier: Apache-2.0
  15:./Libraries/CMSIS/DSP/Source/StatisticsFunctions/arm_std_q31.c ****  *
  16:./Libraries/CMSIS/DSP/Source/StatisticsFunctions/arm_std_q31.c ****  * Licensed under the Apache License, Version 2.0 (the License); you may
  17:./Libraries/CMSIS/DSP/Source/StatisticsFunctions/arm_std_q31.c ****  * not use this file except in compliance with the License.
  18:./Libraries/CMSIS/DSP/Source/StatisticsFunctions/arm_std_q31.c ****  * You may obtain a copy of the License at
  19:./Libraries/CMSIS/DSP/Source/StatisticsFunctions/arm_std_q31.c ****  *
  20:./Libraries/CMSIS/DSP/Source/StatisticsFunctions/arm_std_q31.c ****  * www.apache.org/licenses/LICENSE-2.0
  21:./Libraries/CMSIS/DSP/Source/StatisticsFunctions/arm_std_q31.c ****  *
  22:./Libraries/CMSIS/DSP/Source/StatisticsFunctions/arm_std_q31.c ****  * Unless required by applicable law or agreed to in writing, software
  23:./Libraries/CMSIS/DSP/Source/StatisticsFunctions/arm_std_q31.c ****  * distributed under the License is distributed on an AS IS BASIS, WITHOUT
  24:./Libraries/CMSIS/DSP/Source/StatisticsFunctions/arm_std_q31.c ****  * WARRANTIES OR CONDITIONS OF ANY KIND, either express or implied.
  25:./Libraries/CMSIS/DSP/Source/StatisticsFunctions/arm_std_q31.c ****  * See the License for the specific language governing permissions and
  26:./Libraries/CMSIS/DSP/Source/StatisticsFunctions/arm_std_q31.c ****  * limitations under the License.
  27:./Libraries/CMSIS/DSP/Source/StatisticsFunctions/arm_std_q31.c ****  */
  28:./Libraries/CMSIS/DSP/Source/StatisticsFunctions/arm_std_q31.c **** 
  29:./Libraries/CMSIS/DSP/Source/StatisticsFunctions/arm_std_q31.c **** #include "arm_math.h"
  30:./Libraries/CMSIS/DSP/Source/StatisticsFunctions/arm_std_q31.c **** 
ARM GAS  /tmp/ccJSyl5L.s 			page 2


  31:./Libraries/CMSIS/DSP/Source/StatisticsFunctions/arm_std_q31.c **** /**
  32:./Libraries/CMSIS/DSP/Source/StatisticsFunctions/arm_std_q31.c ****   @ingroup groupStats
  33:./Libraries/CMSIS/DSP/Source/StatisticsFunctions/arm_std_q31.c ****  */
  34:./Libraries/CMSIS/DSP/Source/StatisticsFunctions/arm_std_q31.c **** 
  35:./Libraries/CMSIS/DSP/Source/StatisticsFunctions/arm_std_q31.c **** /**
  36:./Libraries/CMSIS/DSP/Source/StatisticsFunctions/arm_std_q31.c ****   @addtogroup STD
  37:./Libraries/CMSIS/DSP/Source/StatisticsFunctions/arm_std_q31.c ****   @{
  38:./Libraries/CMSIS/DSP/Source/StatisticsFunctions/arm_std_q31.c ****  */
  39:./Libraries/CMSIS/DSP/Source/StatisticsFunctions/arm_std_q31.c **** 
  40:./Libraries/CMSIS/DSP/Source/StatisticsFunctions/arm_std_q31.c **** /**
  41:./Libraries/CMSIS/DSP/Source/StatisticsFunctions/arm_std_q31.c ****   @brief         Standard deviation of the elements of a Q31 vector.
  42:./Libraries/CMSIS/DSP/Source/StatisticsFunctions/arm_std_q31.c ****   @param[in]     pSrc       points to the input vector.
  43:./Libraries/CMSIS/DSP/Source/StatisticsFunctions/arm_std_q31.c ****   @param[in]     blockSize  number of samples in input vector.
  44:./Libraries/CMSIS/DSP/Source/StatisticsFunctions/arm_std_q31.c ****   @param[out]    pResult    standard deviation value returned here.
  45:./Libraries/CMSIS/DSP/Source/StatisticsFunctions/arm_std_q31.c ****   @return        none
  46:./Libraries/CMSIS/DSP/Source/StatisticsFunctions/arm_std_q31.c **** 
  47:./Libraries/CMSIS/DSP/Source/StatisticsFunctions/arm_std_q31.c ****   @par           Scaling and Overflow Behavior
  48:./Libraries/CMSIS/DSP/Source/StatisticsFunctions/arm_std_q31.c ****                    The function is implemented using an internal 64-bit accumulator.
  49:./Libraries/CMSIS/DSP/Source/StatisticsFunctions/arm_std_q31.c ****                    The input is represented in 1.31 format, which is then downshifted by 8 bits
  50:./Libraries/CMSIS/DSP/Source/StatisticsFunctions/arm_std_q31.c ****                    which yields 1.23, and intermediate multiplication yields a 2.46 format.
  51:./Libraries/CMSIS/DSP/Source/StatisticsFunctions/arm_std_q31.c ****                    The accumulator maintains full precision of the intermediate multiplication resu
  52:./Libraries/CMSIS/DSP/Source/StatisticsFunctions/arm_std_q31.c ****                    but provides only a 16 guard bits.
  53:./Libraries/CMSIS/DSP/Source/StatisticsFunctions/arm_std_q31.c ****                    There is no saturation on intermediate additions.
  54:./Libraries/CMSIS/DSP/Source/StatisticsFunctions/arm_std_q31.c ****                    If the accumulator overflows it wraps around and distorts the result.
  55:./Libraries/CMSIS/DSP/Source/StatisticsFunctions/arm_std_q31.c ****                    In order to avoid overflows completely the input signal must be scaled down by
  56:./Libraries/CMSIS/DSP/Source/StatisticsFunctions/arm_std_q31.c ****                    log2(blockSize)-8 bits, as a total of blockSize additions are performed internal
  57:./Libraries/CMSIS/DSP/Source/StatisticsFunctions/arm_std_q31.c ****                    After division, internal variables should be Q18.46
  58:./Libraries/CMSIS/DSP/Source/StatisticsFunctions/arm_std_q31.c ****                    Finally, the 18.46 accumulator is right shifted by 15 bits to yield a 1.31 forma
  59:./Libraries/CMSIS/DSP/Source/StatisticsFunctions/arm_std_q31.c ****  */
  60:./Libraries/CMSIS/DSP/Source/StatisticsFunctions/arm_std_q31.c **** 
  61:./Libraries/CMSIS/DSP/Source/StatisticsFunctions/arm_std_q31.c **** void arm_std_q31(
  62:./Libraries/CMSIS/DSP/Source/StatisticsFunctions/arm_std_q31.c ****   const q31_t * pSrc,
  63:./Libraries/CMSIS/DSP/Source/StatisticsFunctions/arm_std_q31.c ****         uint32_t blockSize,
  64:./Libraries/CMSIS/DSP/Source/StatisticsFunctions/arm_std_q31.c ****         q31_t * pResult)
  65:./Libraries/CMSIS/DSP/Source/StatisticsFunctions/arm_std_q31.c **** {
  29              		.loc 1 65 1
  30              		.cfi_startproc
  31              		@ args = 0, pretend = 0, frame = 64
  32              		@ frame_needed = 1, uses_anonymous_args = 0
  33 0000 2DE9F04F 		push	{r4, r5, r6, r7, r8, r9, r10, fp, lr}
  34              	.LCFI0:
  35              		.cfi_def_cfa_offset 36
  36              		.cfi_offset 4, -36
  37              		.cfi_offset 5, -32
  38              		.cfi_offset 6, -28
  39              		.cfi_offset 7, -24
  40              		.cfi_offset 8, -20
  41              		.cfi_offset 9, -16
  42              		.cfi_offset 10, -12
  43              		.cfi_offset 11, -8
  44              		.cfi_offset 14, -4
  45 0004 91B0     		sub	sp, sp, #68
  46              	.LCFI1:
  47              		.cfi_def_cfa_offset 104
  48 0006 00AF     		add	r7, sp, #0
  49              	.LCFI2:
  50              		.cfi_def_cfa_register 7
ARM GAS  /tmp/ccJSyl5L.s 			page 3


  51 0008 F860     		str	r0, [r7, #12]
  52 000a B960     		str	r1, [r7, #8]
  53 000c 7A60     		str	r2, [r7, #4]
  66:./Libraries/CMSIS/DSP/Source/StatisticsFunctions/arm_std_q31.c ****         uint32_t blkCnt;                               /* Loop counter */
  67:./Libraries/CMSIS/DSP/Source/StatisticsFunctions/arm_std_q31.c ****         q63_t sum = 0;                                 /* Accumulator */
  54              		.loc 1 67 15
  55 000e 4FF00002 		mov	r2, #0
  56 0012 4FF00003 		mov	r3, #0
  57 0016 C7E90C23 		strd	r2, [r7, #48]
  68:./Libraries/CMSIS/DSP/Source/StatisticsFunctions/arm_std_q31.c ****         q63_t meanOfSquares, squareOfMean;             /* Square of mean and mean of square */
  69:./Libraries/CMSIS/DSP/Source/StatisticsFunctions/arm_std_q31.c ****         q63_t sumOfSquares = 0;                        /* Sum of squares */
  58              		.loc 1 69 15
  59 001a 4FF00002 		mov	r2, #0
  60 001e 4FF00003 		mov	r3, #0
  61 0022 C7E90A23 		strd	r2, [r7, #40]
  70:./Libraries/CMSIS/DSP/Source/StatisticsFunctions/arm_std_q31.c ****         q31_t in;                                      /* Temporary variable to store input value *
  71:./Libraries/CMSIS/DSP/Source/StatisticsFunctions/arm_std_q31.c **** 
  72:./Libraries/CMSIS/DSP/Source/StatisticsFunctions/arm_std_q31.c ****   if (blockSize <= 1U)
  62              		.loc 1 72 6
  63 0026 BB68     		ldr	r3, [r7, #8]
  64 0028 012B     		cmp	r3, #1
  65 002a 03D8     		bhi	.L2
  73:./Libraries/CMSIS/DSP/Source/StatisticsFunctions/arm_std_q31.c ****   {
  74:./Libraries/CMSIS/DSP/Source/StatisticsFunctions/arm_std_q31.c ****     *pResult = 0;
  66              		.loc 1 74 14
  67 002c 7B68     		ldr	r3, [r7, #4]
  68 002e 0022     		movs	r2, #0
  69 0030 1A60     		str	r2, [r3]
  75:./Libraries/CMSIS/DSP/Source/StatisticsFunctions/arm_std_q31.c ****     return;
  70              		.loc 1 75 5
  71 0032 70E0     		b	.L1
  72              	.L2:
  76:./Libraries/CMSIS/DSP/Source/StatisticsFunctions/arm_std_q31.c ****   }
  77:./Libraries/CMSIS/DSP/Source/StatisticsFunctions/arm_std_q31.c **** 
  78:./Libraries/CMSIS/DSP/Source/StatisticsFunctions/arm_std_q31.c **** #if defined (ARM_MATH_LOOPUNROLL)
  79:./Libraries/CMSIS/DSP/Source/StatisticsFunctions/arm_std_q31.c **** 
  80:./Libraries/CMSIS/DSP/Source/StatisticsFunctions/arm_std_q31.c ****   /* Loop unrolling: Compute 4 outputs at a time */
  81:./Libraries/CMSIS/DSP/Source/StatisticsFunctions/arm_std_q31.c ****   blkCnt = blockSize >> 2U;
  82:./Libraries/CMSIS/DSP/Source/StatisticsFunctions/arm_std_q31.c **** 
  83:./Libraries/CMSIS/DSP/Source/StatisticsFunctions/arm_std_q31.c ****   while (blkCnt > 0U)
  84:./Libraries/CMSIS/DSP/Source/StatisticsFunctions/arm_std_q31.c ****   {
  85:./Libraries/CMSIS/DSP/Source/StatisticsFunctions/arm_std_q31.c ****     /* C = A[0] * A[0] + A[1] * A[1] + ... + A[blockSize-1] * A[blockSize-1] */
  86:./Libraries/CMSIS/DSP/Source/StatisticsFunctions/arm_std_q31.c ****     /* C = A[0] + A[1] + ... + A[blockSize-1] */
  87:./Libraries/CMSIS/DSP/Source/StatisticsFunctions/arm_std_q31.c **** 
  88:./Libraries/CMSIS/DSP/Source/StatisticsFunctions/arm_std_q31.c ****     in = *pSrc++ >> 8U;
  89:./Libraries/CMSIS/DSP/Source/StatisticsFunctions/arm_std_q31.c ****     /* Compute sum of squares and store result in a temporary variable, sumOfSquares. */
  90:./Libraries/CMSIS/DSP/Source/StatisticsFunctions/arm_std_q31.c ****     sumOfSquares += ((q63_t) (in) * (in));
  91:./Libraries/CMSIS/DSP/Source/StatisticsFunctions/arm_std_q31.c ****     /* Compute sum and store result in a temporary variable, sum. */
  92:./Libraries/CMSIS/DSP/Source/StatisticsFunctions/arm_std_q31.c ****     sum += in;
  93:./Libraries/CMSIS/DSP/Source/StatisticsFunctions/arm_std_q31.c **** 
  94:./Libraries/CMSIS/DSP/Source/StatisticsFunctions/arm_std_q31.c ****     in = *pSrc++ >> 8U;
  95:./Libraries/CMSIS/DSP/Source/StatisticsFunctions/arm_std_q31.c ****     sumOfSquares += ((q63_t) (in) * (in));
  96:./Libraries/CMSIS/DSP/Source/StatisticsFunctions/arm_std_q31.c ****     sum += in;
  97:./Libraries/CMSIS/DSP/Source/StatisticsFunctions/arm_std_q31.c **** 
  98:./Libraries/CMSIS/DSP/Source/StatisticsFunctions/arm_std_q31.c ****     in = *pSrc++ >> 8U;
  99:./Libraries/CMSIS/DSP/Source/StatisticsFunctions/arm_std_q31.c ****     sumOfSquares += ((q63_t) (in) * (in));
 100:./Libraries/CMSIS/DSP/Source/StatisticsFunctions/arm_std_q31.c ****     sum += in;
ARM GAS  /tmp/ccJSyl5L.s 			page 4


 101:./Libraries/CMSIS/DSP/Source/StatisticsFunctions/arm_std_q31.c **** 
 102:./Libraries/CMSIS/DSP/Source/StatisticsFunctions/arm_std_q31.c ****     in = *pSrc++ >> 8U;
 103:./Libraries/CMSIS/DSP/Source/StatisticsFunctions/arm_std_q31.c ****     sumOfSquares += ((q63_t) (in) * (in));
 104:./Libraries/CMSIS/DSP/Source/StatisticsFunctions/arm_std_q31.c ****     sum += in;
 105:./Libraries/CMSIS/DSP/Source/StatisticsFunctions/arm_std_q31.c **** 
 106:./Libraries/CMSIS/DSP/Source/StatisticsFunctions/arm_std_q31.c ****     /* Decrement loop counter */
 107:./Libraries/CMSIS/DSP/Source/StatisticsFunctions/arm_std_q31.c ****     blkCnt--;
 108:./Libraries/CMSIS/DSP/Source/StatisticsFunctions/arm_std_q31.c ****   }
 109:./Libraries/CMSIS/DSP/Source/StatisticsFunctions/arm_std_q31.c **** 
 110:./Libraries/CMSIS/DSP/Source/StatisticsFunctions/arm_std_q31.c ****   /* Loop unrolling: Compute remaining outputs */
 111:./Libraries/CMSIS/DSP/Source/StatisticsFunctions/arm_std_q31.c ****   blkCnt = blockSize % 0x4U;
 112:./Libraries/CMSIS/DSP/Source/StatisticsFunctions/arm_std_q31.c **** 
 113:./Libraries/CMSIS/DSP/Source/StatisticsFunctions/arm_std_q31.c **** #else
 114:./Libraries/CMSIS/DSP/Source/StatisticsFunctions/arm_std_q31.c **** 
 115:./Libraries/CMSIS/DSP/Source/StatisticsFunctions/arm_std_q31.c ****   /* Initialize blkCnt with number of samples */
 116:./Libraries/CMSIS/DSP/Source/StatisticsFunctions/arm_std_q31.c ****   blkCnt = blockSize;
  73              		.loc 1 116 10
  74 0034 BB68     		ldr	r3, [r7, #8]
  75 0036 FB63     		str	r3, [r7, #60]
 117:./Libraries/CMSIS/DSP/Source/StatisticsFunctions/arm_std_q31.c **** 
 118:./Libraries/CMSIS/DSP/Source/StatisticsFunctions/arm_std_q31.c **** #endif /* #if defined (ARM_MATH_LOOPUNROLL) */
 119:./Libraries/CMSIS/DSP/Source/StatisticsFunctions/arm_std_q31.c **** 
 120:./Libraries/CMSIS/DSP/Source/StatisticsFunctions/arm_std_q31.c ****   while (blkCnt > 0U)
  76              		.loc 1 120 9
  77 0038 2DE0     		b	.L4
  78              	.L5:
 121:./Libraries/CMSIS/DSP/Source/StatisticsFunctions/arm_std_q31.c ****   {
 122:./Libraries/CMSIS/DSP/Source/StatisticsFunctions/arm_std_q31.c ****     /* C = A[0] * A[0] + A[1] * A[1] + ... + A[blockSize-1] * A[blockSize-1] */
 123:./Libraries/CMSIS/DSP/Source/StatisticsFunctions/arm_std_q31.c ****     /* C = A[0] + A[1] + ... + A[blockSize-1] */
 124:./Libraries/CMSIS/DSP/Source/StatisticsFunctions/arm_std_q31.c **** 
 125:./Libraries/CMSIS/DSP/Source/StatisticsFunctions/arm_std_q31.c ****     in = *pSrc++ >> 8U;
  79              		.loc 1 125 15
  80 003a FB68     		ldr	r3, [r7, #12]
  81 003c 1A1D     		adds	r2, r3, #4
  82 003e FA60     		str	r2, [r7, #12]
  83              		.loc 1 125 10
  84 0040 1B68     		ldr	r3, [r3]
  85              		.loc 1 125 8
  86 0042 1B12     		asrs	r3, r3, #8
  87 0044 7B61     		str	r3, [r7, #20]
 126:./Libraries/CMSIS/DSP/Source/StatisticsFunctions/arm_std_q31.c ****     /* Compute sum of squares and store result in a temporary variable, sumOfSquares. */
 127:./Libraries/CMSIS/DSP/Source/StatisticsFunctions/arm_std_q31.c ****     sumOfSquares += ((q63_t) (in) * (in));
  88              		.loc 1 127 22
  89 0046 7B69     		ldr	r3, [r7, #20]
  90 0048 1846     		mov	r0, r3
  91 004a 4FEAE071 		asr	r1, r0, #31
  92              		.loc 1 127 35
  93 004e 7B69     		ldr	r3, [r7, #20]
  94 0050 1A46     		mov	r2, r3
  95 0052 4FEAE273 		asr	r3, r2, #31
  96 0056 02FB01FC 		mul	ip, r2, r1
  97 005a 00FB03F6 		mul	r6, r0, r3
  98 005e 6644     		add	r6, r6, ip
  99 0060 A0FB0223 		umull	r2, r3, r0, r2
 100 0064 F118     		adds	r1, r6, r3
 101 0066 0B46     		mov	r3, r1
 102              		.loc 1 127 18
ARM GAS  /tmp/ccJSyl5L.s 			page 5


 103 0068 D7E90A01 		ldrd	r0, [r7, #40]
 104 006c 10EB0208 		adds	r8, r0, r2
 105 0070 41EB0309 		adc	r9, r1, r3
 106 0074 C7E90A89 		strd	r8, [r7, #40]
 128:./Libraries/CMSIS/DSP/Source/StatisticsFunctions/arm_std_q31.c ****     /* Compute sum and store result in a temporary variable, sum. */
 129:./Libraries/CMSIS/DSP/Source/StatisticsFunctions/arm_std_q31.c ****     sum += in;
 107              		.loc 1 129 9
 108 0078 7B69     		ldr	r3, [r7, #20]
 109 007a 1A46     		mov	r2, r3
 110 007c 4FEAE273 		asr	r3, r2, #31
 111 0080 D7E90C01 		ldrd	r0, [r7, #48]
 112 0084 10EB020A 		adds	r10, r0, r2
 113 0088 41EB030B 		adc	fp, r1, r3
 114 008c C7E90CAB 		strd	r10, [r7, #48]
 130:./Libraries/CMSIS/DSP/Source/StatisticsFunctions/arm_std_q31.c **** 
 131:./Libraries/CMSIS/DSP/Source/StatisticsFunctions/arm_std_q31.c ****     /* Decrement loop counter */
 132:./Libraries/CMSIS/DSP/Source/StatisticsFunctions/arm_std_q31.c ****     blkCnt--;
 115              		.loc 1 132 11
 116 0090 FB6B     		ldr	r3, [r7, #60]
 117 0092 013B     		subs	r3, r3, #1
 118 0094 FB63     		str	r3, [r7, #60]
 119              	.L4:
 120:./Libraries/CMSIS/DSP/Source/StatisticsFunctions/arm_std_q31.c ****   {
 120              		.loc 1 120 9
 121 0096 FB6B     		ldr	r3, [r7, #60]
 122 0098 002B     		cmp	r3, #0
 123 009a CED1     		bne	.L5
 133:./Libraries/CMSIS/DSP/Source/StatisticsFunctions/arm_std_q31.c ****   }
 134:./Libraries/CMSIS/DSP/Source/StatisticsFunctions/arm_std_q31.c **** 
 135:./Libraries/CMSIS/DSP/Source/StatisticsFunctions/arm_std_q31.c ****   /* Compute Mean of squares and store result in a temporary variable, meanOfSquares. */
 136:./Libraries/CMSIS/DSP/Source/StatisticsFunctions/arm_std_q31.c ****   meanOfSquares = (sumOfSquares / (q63_t)(blockSize - 1U));
 124              		.loc 1 136 53
 125 009c BB68     		ldr	r3, [r7, #8]
 126 009e 013B     		subs	r3, r3, #1
 127              		.loc 1 136 35
 128 00a0 1A46     		mov	r2, r3
 129 00a2 4FF00003 		mov	r3, #0
 130              		.loc 1 136 17
 131 00a6 D7E90A01 		ldrd	r0, [r7, #40]
 132 00aa FFF7FEFF 		bl	__aeabi_ldivmod
 133              	.LVL0:
 134 00ae 0246     		mov	r2, r0
 135 00b0 0B46     		mov	r3, r1
 136 00b2 C7E90823 		strd	r2, [r7, #32]
 137:./Libraries/CMSIS/DSP/Source/StatisticsFunctions/arm_std_q31.c **** 
 138:./Libraries/CMSIS/DSP/Source/StatisticsFunctions/arm_std_q31.c ****   /* Compute square of mean */
 139:./Libraries/CMSIS/DSP/Source/StatisticsFunctions/arm_std_q31.c ****   squareOfMean = ( sum * sum / (q63_t)(blockSize * (blockSize - 1U)));
 137              		.loc 1 139 24
 138 00b6 7B6B     		ldr	r3, [r7, #52]
 139 00b8 3A6B     		ldr	r2, [r7, #48]
 140 00ba 02FB03F2 		mul	r2, r2, r3
 141 00be 7B6B     		ldr	r3, [r7, #52]
 142 00c0 396B     		ldr	r1, [r7, #48]
 143 00c2 01FB03F3 		mul	r3, r1, r3
 144 00c6 1A44     		add	r2, r2, r3
 145 00c8 3B6B     		ldr	r3, [r7, #48]
 146 00ca A3FB0301 		umull	r0, r1, r3, r3
ARM GAS  /tmp/ccJSyl5L.s 			page 6


 147 00ce 5318     		adds	r3, r2, r1
 148 00d0 1946     		mov	r1, r3
 149              		.loc 1 139 63
 150 00d2 BB68     		ldr	r3, [r7, #8]
 151 00d4 013B     		subs	r3, r3, #1
 152              		.loc 1 139 50
 153 00d6 BA68     		ldr	r2, [r7, #8]
 154 00d8 02FB03F3 		mul	r3, r2, r3
 155              		.loc 1 139 32
 156 00dc 1A46     		mov	r2, r3
 157 00de 4FF00003 		mov	r3, #0
 158              		.loc 1 139 16
 159 00e2 FFF7FEFF 		bl	__aeabi_ldivmod
 160              	.LVL1:
 161 00e6 0246     		mov	r2, r0
 162 00e8 0B46     		mov	r3, r1
 163 00ea C7E90623 		strd	r2, [r7, #24]
 140:./Libraries/CMSIS/DSP/Source/StatisticsFunctions/arm_std_q31.c **** 
 141:./Libraries/CMSIS/DSP/Source/StatisticsFunctions/arm_std_q31.c ****   /* Compute standard deviation and store result in destination */
 142:./Libraries/CMSIS/DSP/Source/StatisticsFunctions/arm_std_q31.c ****   arm_sqrt_q31((meanOfSquares - squareOfMean) >> 15U, pResult);
 164              		.loc 1 142 31
 165 00ee D7E90801 		ldrd	r0, [r7, #32]
 166 00f2 D7E90623 		ldrd	r2, [r7, #24]
 167 00f6 841A     		subs	r4, r0, r2
 168 00f8 61EB0305 		sbc	r5, r1, r3
 169              		.loc 1 142 47
 170 00fc 4FF00002 		mov	r2, #0
 171 0100 4FF00003 		mov	r3, #0
 172 0104 E20B     		lsrs	r2, r4, #15
 173 0106 42EA4542 		orr	r2, r2, r5, lsl #17
 174 010a EB13     		asrs	r3, r5, #15
 175              		.loc 1 142 3
 176 010c 1346     		mov	r3, r2
 177 010e 7968     		ldr	r1, [r7, #4]
 178 0110 1846     		mov	r0, r3
 179 0112 FFF7FEFF 		bl	arm_sqrt_q31
 180              	.L1:
 143:./Libraries/CMSIS/DSP/Source/StatisticsFunctions/arm_std_q31.c **** }
 181              		.loc 1 143 1
 182 0116 4437     		adds	r7, r7, #68
 183              	.LCFI3:
 184              		.cfi_def_cfa_offset 36
 185 0118 BD46     		mov	sp, r7
 186              	.LCFI4:
 187              		.cfi_def_cfa_register 13
 188              		@ sp needed
 189 011a BDE8F08F 		pop	{r4, r5, r6, r7, r8, r9, r10, fp, pc}
 190              		.cfi_endproc
 191              	.LFE145:
 193              		.text
 194              	.Letext0:
 195              		.file 2 "/usr/lib/gcc/arm-none-eabi/9.2.1/include/stdint.h"
 196              		.file 3 "/usr/lib/gcc/arm-none-eabi/9.2.1/include/stddef.h"
 197              		.file 4 "/usr/include/newlib/sys/_types.h"
 198              		.file 5 "/usr/include/newlib/sys/reent.h"
 199              		.file 6 "/usr/include/newlib/sys/lock.h"
 200              		.file 7 "/usr/include/newlib/math.h"
ARM GAS  /tmp/ccJSyl5L.s 			page 7


 201              		.file 8 "./Libraries/CMSIS/DSP/Include/arm_math.h"
ARM GAS  /tmp/ccJSyl5L.s 			page 8

