ARM GAS  /tmp/ccNzgOB0.s 			page 1


   1              		.cpu cortex-m7
   2              		.eabi_attribute 28, 1
   3              		.eabi_attribute 20, 1
   4              		.eabi_attribute 21, 1
   5              		.eabi_attribute 23, 3
   6              		.eabi_attribute 24, 1
   7              		.eabi_attribute 25, 1
   8              		.eabi_attribute 26, 1
   9              		.eabi_attribute 30, 6
  10              		.eabi_attribute 34, 1
  11              		.eabi_attribute 18, 4
  12              		.file	"arm_correlate_q7.c"
  13              		.text
  14              	.Ltext0:
  15              		.cfi_sections	.debug_frame
  16              		.section	.text.arm_correlate_q7,"ax",%progbits
  17              		.align	1
  18              		.global	arm_correlate_q7
  19              		.arch armv7e-m
  20              		.syntax unified
  21              		.thumb
  22              		.thumb_func
  23              		.fpu fpv5-d16
  25              	arm_correlate_q7:
  26              	.LFB145:
  27              		.file 1 "./Libraries/CMSIS/DSP/Source/FilteringFunctions/arm_correlate_q7.c"
   1:./Libraries/CMSIS/DSP/Source/FilteringFunctions/arm_correlate_q7.c **** /* ----------------------------------------------------------------------
   2:./Libraries/CMSIS/DSP/Source/FilteringFunctions/arm_correlate_q7.c ****  * Project:      CMSIS DSP Library
   3:./Libraries/CMSIS/DSP/Source/FilteringFunctions/arm_correlate_q7.c ****  * Title:        arm_correlate_q7.c
   4:./Libraries/CMSIS/DSP/Source/FilteringFunctions/arm_correlate_q7.c ****  * Description:  Correlation of Q7 sequences
   5:./Libraries/CMSIS/DSP/Source/FilteringFunctions/arm_correlate_q7.c ****  *
   6:./Libraries/CMSIS/DSP/Source/FilteringFunctions/arm_correlate_q7.c ****  * $Date:        18. March 2019
   7:./Libraries/CMSIS/DSP/Source/FilteringFunctions/arm_correlate_q7.c ****  * $Revision:    V1.6.0
   8:./Libraries/CMSIS/DSP/Source/FilteringFunctions/arm_correlate_q7.c ****  *
   9:./Libraries/CMSIS/DSP/Source/FilteringFunctions/arm_correlate_q7.c ****  * Target Processor: Cortex-M cores
  10:./Libraries/CMSIS/DSP/Source/FilteringFunctions/arm_correlate_q7.c ****  * -------------------------------------------------------------------- */
  11:./Libraries/CMSIS/DSP/Source/FilteringFunctions/arm_correlate_q7.c **** /*
  12:./Libraries/CMSIS/DSP/Source/FilteringFunctions/arm_correlate_q7.c ****  * Copyright (C) 2010-2019 ARM Limited or its affiliates. All rights reserved.
  13:./Libraries/CMSIS/DSP/Source/FilteringFunctions/arm_correlate_q7.c ****  *
  14:./Libraries/CMSIS/DSP/Source/FilteringFunctions/arm_correlate_q7.c ****  * SPDX-License-Identifier: Apache-2.0
  15:./Libraries/CMSIS/DSP/Source/FilteringFunctions/arm_correlate_q7.c ****  *
  16:./Libraries/CMSIS/DSP/Source/FilteringFunctions/arm_correlate_q7.c ****  * Licensed under the Apache License, Version 2.0 (the License); you may
  17:./Libraries/CMSIS/DSP/Source/FilteringFunctions/arm_correlate_q7.c ****  * not use this file except in compliance with the License.
  18:./Libraries/CMSIS/DSP/Source/FilteringFunctions/arm_correlate_q7.c ****  * You may obtain a copy of the License at
  19:./Libraries/CMSIS/DSP/Source/FilteringFunctions/arm_correlate_q7.c ****  *
  20:./Libraries/CMSIS/DSP/Source/FilteringFunctions/arm_correlate_q7.c ****  * www.apache.org/licenses/LICENSE-2.0
  21:./Libraries/CMSIS/DSP/Source/FilteringFunctions/arm_correlate_q7.c ****  *
  22:./Libraries/CMSIS/DSP/Source/FilteringFunctions/arm_correlate_q7.c ****  * Unless required by applicable law or agreed to in writing, software
  23:./Libraries/CMSIS/DSP/Source/FilteringFunctions/arm_correlate_q7.c ****  * distributed under the License is distributed on an AS IS BASIS, WITHOUT
  24:./Libraries/CMSIS/DSP/Source/FilteringFunctions/arm_correlate_q7.c ****  * WARRANTIES OR CONDITIONS OF ANY KIND, either express or implied.
  25:./Libraries/CMSIS/DSP/Source/FilteringFunctions/arm_correlate_q7.c ****  * See the License for the specific language governing permissions and
  26:./Libraries/CMSIS/DSP/Source/FilteringFunctions/arm_correlate_q7.c ****  * limitations under the License.
  27:./Libraries/CMSIS/DSP/Source/FilteringFunctions/arm_correlate_q7.c ****  */
  28:./Libraries/CMSIS/DSP/Source/FilteringFunctions/arm_correlate_q7.c **** 
  29:./Libraries/CMSIS/DSP/Source/FilteringFunctions/arm_correlate_q7.c **** #include "arm_math.h"
  30:./Libraries/CMSIS/DSP/Source/FilteringFunctions/arm_correlate_q7.c **** 
  31:./Libraries/CMSIS/DSP/Source/FilteringFunctions/arm_correlate_q7.c **** /**
ARM GAS  /tmp/ccNzgOB0.s 			page 2


  32:./Libraries/CMSIS/DSP/Source/FilteringFunctions/arm_correlate_q7.c ****   @ingroup groupFilters
  33:./Libraries/CMSIS/DSP/Source/FilteringFunctions/arm_correlate_q7.c ****  */
  34:./Libraries/CMSIS/DSP/Source/FilteringFunctions/arm_correlate_q7.c **** 
  35:./Libraries/CMSIS/DSP/Source/FilteringFunctions/arm_correlate_q7.c **** /**
  36:./Libraries/CMSIS/DSP/Source/FilteringFunctions/arm_correlate_q7.c ****   @addtogroup Corr
  37:./Libraries/CMSIS/DSP/Source/FilteringFunctions/arm_correlate_q7.c ****   @{
  38:./Libraries/CMSIS/DSP/Source/FilteringFunctions/arm_correlate_q7.c ****  */
  39:./Libraries/CMSIS/DSP/Source/FilteringFunctions/arm_correlate_q7.c **** 
  40:./Libraries/CMSIS/DSP/Source/FilteringFunctions/arm_correlate_q7.c **** /**
  41:./Libraries/CMSIS/DSP/Source/FilteringFunctions/arm_correlate_q7.c ****   @brief         Correlation of Q7 sequences.
  42:./Libraries/CMSIS/DSP/Source/FilteringFunctions/arm_correlate_q7.c ****   @param[in]     pSrcA      points to the first input sequence
  43:./Libraries/CMSIS/DSP/Source/FilteringFunctions/arm_correlate_q7.c ****   @param[in]     srcALen    length of the first input sequence
  44:./Libraries/CMSIS/DSP/Source/FilteringFunctions/arm_correlate_q7.c ****   @param[in]     pSrcB      points to the second input sequence
  45:./Libraries/CMSIS/DSP/Source/FilteringFunctions/arm_correlate_q7.c ****   @param[in]     srcBLen    length of the second input sequence
  46:./Libraries/CMSIS/DSP/Source/FilteringFunctions/arm_correlate_q7.c ****   @param[out]    pDst       points to the location where the output result is written.  Length 2 * 
  47:./Libraries/CMSIS/DSP/Source/FilteringFunctions/arm_correlate_q7.c ****   @return        none
  48:./Libraries/CMSIS/DSP/Source/FilteringFunctions/arm_correlate_q7.c **** 
  49:./Libraries/CMSIS/DSP/Source/FilteringFunctions/arm_correlate_q7.c ****   @par           Scaling and Overflow Behavior
  50:./Libraries/CMSIS/DSP/Source/FilteringFunctions/arm_correlate_q7.c ****                    The function is implemented using a 32-bit internal accumulator.
  51:./Libraries/CMSIS/DSP/Source/FilteringFunctions/arm_correlate_q7.c ****                    Both the inputs are represented in 1.7 format and multiplications yield a 2.14 r
  52:./Libraries/CMSIS/DSP/Source/FilteringFunctions/arm_correlate_q7.c ****                    The 2.14 intermediate results are accumulated in a 32-bit accumulator in 18.14 f
  53:./Libraries/CMSIS/DSP/Source/FilteringFunctions/arm_correlate_q7.c ****                    This approach provides 17 guard bits and there is no risk of overflow as long as
  54:./Libraries/CMSIS/DSP/Source/FilteringFunctions/arm_correlate_q7.c ****                    The 18.14 result is then truncated to 18.7 format by discarding the low 7 bits a
  55:./Libraries/CMSIS/DSP/Source/FilteringFunctions/arm_correlate_q7.c **** 
  56:./Libraries/CMSIS/DSP/Source/FilteringFunctions/arm_correlate_q7.c ****  @remark
  57:./Libraries/CMSIS/DSP/Source/FilteringFunctions/arm_correlate_q7.c ****                    Refer to \ref arm_correlate_opt_q7() for a faster implementation of this functio
  58:./Libraries/CMSIS/DSP/Source/FilteringFunctions/arm_correlate_q7.c ****  */
  59:./Libraries/CMSIS/DSP/Source/FilteringFunctions/arm_correlate_q7.c **** 
  60:./Libraries/CMSIS/DSP/Source/FilteringFunctions/arm_correlate_q7.c **** void arm_correlate_q7(
  61:./Libraries/CMSIS/DSP/Source/FilteringFunctions/arm_correlate_q7.c ****   const q7_t * pSrcA,
  62:./Libraries/CMSIS/DSP/Source/FilteringFunctions/arm_correlate_q7.c ****         uint32_t srcALen,
  63:./Libraries/CMSIS/DSP/Source/FilteringFunctions/arm_correlate_q7.c ****   const q7_t * pSrcB,
  64:./Libraries/CMSIS/DSP/Source/FilteringFunctions/arm_correlate_q7.c ****         uint32_t srcBLen,
  65:./Libraries/CMSIS/DSP/Source/FilteringFunctions/arm_correlate_q7.c ****         q7_t * pDst)
  66:./Libraries/CMSIS/DSP/Source/FilteringFunctions/arm_correlate_q7.c **** {
  28              		.loc 1 66 1
  29              		.cfi_startproc
  30              		@ args = 4, pretend = 0, frame = 112
  31              		@ frame_needed = 1, uses_anonymous_args = 0
  32              		@ link register save eliminated.
  33 0000 80B4     		push	{r7}
  34              	.LCFI0:
  35              		.cfi_def_cfa_offset 4
  36              		.cfi_offset 7, -4
  37 0002 9DB0     		sub	sp, sp, #116
  38              	.LCFI1:
  39              		.cfi_def_cfa_offset 120
  40 0004 00AF     		add	r7, sp, #0
  41              	.LCFI2:
  42              		.cfi_def_cfa_register 7
  43 0006 F860     		str	r0, [r7, #12]
  44 0008 B960     		str	r1, [r7, #8]
  45 000a 7A60     		str	r2, [r7, #4]
  46 000c 3B60     		str	r3, [r7]
  67:./Libraries/CMSIS/DSP/Source/FilteringFunctions/arm_correlate_q7.c **** 
  68:./Libraries/CMSIS/DSP/Source/FilteringFunctions/arm_correlate_q7.c **** #if (1)
  69:./Libraries/CMSIS/DSP/Source/FilteringFunctions/arm_correlate_q7.c **** //#if !defined(ARM_MATH_CM0_FAMILY)
ARM GAS  /tmp/ccNzgOB0.s 			page 3


  70:./Libraries/CMSIS/DSP/Source/FilteringFunctions/arm_correlate_q7.c **** 
  71:./Libraries/CMSIS/DSP/Source/FilteringFunctions/arm_correlate_q7.c ****   const q7_t *pIn1;                                    /* InputA pointer */
  72:./Libraries/CMSIS/DSP/Source/FilteringFunctions/arm_correlate_q7.c ****   const q7_t *pIn2;                                    /* InputB pointer */
  73:./Libraries/CMSIS/DSP/Source/FilteringFunctions/arm_correlate_q7.c ****         q7_t *pOut = pDst;                             /* Output pointer */
  47              		.loc 1 73 15
  48 000e BB6F     		ldr	r3, [r7, #120]
  49 0010 7B66     		str	r3, [r7, #100]
  74:./Libraries/CMSIS/DSP/Source/FilteringFunctions/arm_correlate_q7.c ****   const q7_t *px;                                      /* Intermediate inputA pointer */
  75:./Libraries/CMSIS/DSP/Source/FilteringFunctions/arm_correlate_q7.c ****   const q7_t *py;                                      /* Intermediate inputB pointer */
  76:./Libraries/CMSIS/DSP/Source/FilteringFunctions/arm_correlate_q7.c ****   const q7_t *pSrc1;                                   /* Intermediate pointers */
  77:./Libraries/CMSIS/DSP/Source/FilteringFunctions/arm_correlate_q7.c ****         q31_t sum;                                     /* Accumulators */
  78:./Libraries/CMSIS/DSP/Source/FilteringFunctions/arm_correlate_q7.c ****         uint32_t blockSize1, blockSize2, blockSize3;   /* Loop counters */
  79:./Libraries/CMSIS/DSP/Source/FilteringFunctions/arm_correlate_q7.c ****         uint32_t j, k, count, blkCnt;                  /* Loop counters */
  80:./Libraries/CMSIS/DSP/Source/FilteringFunctions/arm_correlate_q7.c ****         uint32_t outBlockSize;
  81:./Libraries/CMSIS/DSP/Source/FilteringFunctions/arm_correlate_q7.c ****         int32_t inc = 1;
  50              		.loc 1 81 17
  51 0012 0123     		movs	r3, #1
  52 0014 FB63     		str	r3, [r7, #60]
  82:./Libraries/CMSIS/DSP/Source/FilteringFunctions/arm_correlate_q7.c **** 
  83:./Libraries/CMSIS/DSP/Source/FilteringFunctions/arm_correlate_q7.c **** #if defined (ARM_MATH_LOOPUNROLL)
  84:./Libraries/CMSIS/DSP/Source/FilteringFunctions/arm_correlate_q7.c ****         q31_t acc0, acc1, acc2, acc3;                  /* Accumulators */
  85:./Libraries/CMSIS/DSP/Source/FilteringFunctions/arm_correlate_q7.c ****         q31_t input1, input2;                          /* Temporary input variables */
  86:./Libraries/CMSIS/DSP/Source/FilteringFunctions/arm_correlate_q7.c ****         q15_t in1, in2;                                /* Temporary input variables */
  87:./Libraries/CMSIS/DSP/Source/FilteringFunctions/arm_correlate_q7.c ****         q7_t x0, x1, x2, x3, c0, c1;                   /* Temporary variables for holding input and
  88:./Libraries/CMSIS/DSP/Source/FilteringFunctions/arm_correlate_q7.c **** #endif
  89:./Libraries/CMSIS/DSP/Source/FilteringFunctions/arm_correlate_q7.c **** 
  90:./Libraries/CMSIS/DSP/Source/FilteringFunctions/arm_correlate_q7.c ****   /* The algorithm implementation is based on the lengths of the inputs. */
  91:./Libraries/CMSIS/DSP/Source/FilteringFunctions/arm_correlate_q7.c ****   /* srcB is always made to slide across srcA. */
  92:./Libraries/CMSIS/DSP/Source/FilteringFunctions/arm_correlate_q7.c ****   /* So srcBLen is always considered as shorter or equal to srcALen */
  93:./Libraries/CMSIS/DSP/Source/FilteringFunctions/arm_correlate_q7.c ****   /* But CORR(x, y) is reverse of CORR(y, x) */
  94:./Libraries/CMSIS/DSP/Source/FilteringFunctions/arm_correlate_q7.c ****   /* So, when srcBLen > srcALen, output pointer is made to point to the end of the output buffer */
  95:./Libraries/CMSIS/DSP/Source/FilteringFunctions/arm_correlate_q7.c ****   /* and the destination pointer modifier, inc is set to -1 */
  96:./Libraries/CMSIS/DSP/Source/FilteringFunctions/arm_correlate_q7.c ****   /* If srcALen > srcBLen, zero pad has to be done to srcB to make the two inputs of same length */
  97:./Libraries/CMSIS/DSP/Source/FilteringFunctions/arm_correlate_q7.c ****   /* But to improve the performance,
  98:./Libraries/CMSIS/DSP/Source/FilteringFunctions/arm_correlate_q7.c ****    * we include zeroes in the output instead of zero padding either of the the inputs*/
  99:./Libraries/CMSIS/DSP/Source/FilteringFunctions/arm_correlate_q7.c ****   /* If srcALen > srcBLen,
 100:./Libraries/CMSIS/DSP/Source/FilteringFunctions/arm_correlate_q7.c ****    * (srcALen - srcBLen) zeroes has to included in the starting of the output buffer */
 101:./Libraries/CMSIS/DSP/Source/FilteringFunctions/arm_correlate_q7.c ****   /* If srcALen < srcBLen,
 102:./Libraries/CMSIS/DSP/Source/FilteringFunctions/arm_correlate_q7.c ****    * (srcALen - srcBLen) zeroes has to included in the ending of the output buffer */
 103:./Libraries/CMSIS/DSP/Source/FilteringFunctions/arm_correlate_q7.c ****   if (srcALen >= srcBLen)
  53              		.loc 1 103 6
  54 0016 BA68     		ldr	r2, [r7, #8]
  55 0018 3B68     		ldr	r3, [r7]
  56 001a 9A42     		cmp	r2, r3
  57 001c 13D3     		bcc	.L2
 104:./Libraries/CMSIS/DSP/Source/FilteringFunctions/arm_correlate_q7.c ****   {
 105:./Libraries/CMSIS/DSP/Source/FilteringFunctions/arm_correlate_q7.c ****     /* Initialization of inputA pointer */
 106:./Libraries/CMSIS/DSP/Source/FilteringFunctions/arm_correlate_q7.c ****     pIn1 = pSrcA;
  58              		.loc 1 106 10
  59 001e FB68     		ldr	r3, [r7, #12]
  60 0020 FB66     		str	r3, [r7, #108]
 107:./Libraries/CMSIS/DSP/Source/FilteringFunctions/arm_correlate_q7.c **** 
 108:./Libraries/CMSIS/DSP/Source/FilteringFunctions/arm_correlate_q7.c ****     /* Initialization of inputB pointer */
 109:./Libraries/CMSIS/DSP/Source/FilteringFunctions/arm_correlate_q7.c ****     pIn2 = pSrcB;
  61              		.loc 1 109 10
  62 0022 7B68     		ldr	r3, [r7, #4]
  63 0024 BB66     		str	r3, [r7, #104]
ARM GAS  /tmp/ccNzgOB0.s 			page 4


 110:./Libraries/CMSIS/DSP/Source/FilteringFunctions/arm_correlate_q7.c **** 
 111:./Libraries/CMSIS/DSP/Source/FilteringFunctions/arm_correlate_q7.c ****     /* Number of output samples is calculated */
 112:./Libraries/CMSIS/DSP/Source/FilteringFunctions/arm_correlate_q7.c ****     outBlockSize = (2U * srcALen) - 1U;
  64              		.loc 1 112 24
  65 0026 BB68     		ldr	r3, [r7, #8]
  66 0028 5B00     		lsls	r3, r3, #1
  67              		.loc 1 112 18
  68 002a 013B     		subs	r3, r3, #1
  69 002c 7B63     		str	r3, [r7, #52]
 113:./Libraries/CMSIS/DSP/Source/FilteringFunctions/arm_correlate_q7.c **** 
 114:./Libraries/CMSIS/DSP/Source/FilteringFunctions/arm_correlate_q7.c ****     /* When srcALen > srcBLen, zero padding is done to srcB
 115:./Libraries/CMSIS/DSP/Source/FilteringFunctions/arm_correlate_q7.c ****      * to make their lengths equal.
 116:./Libraries/CMSIS/DSP/Source/FilteringFunctions/arm_correlate_q7.c ****      * Instead, (outBlockSize - (srcALen + srcBLen - 1))
 117:./Libraries/CMSIS/DSP/Source/FilteringFunctions/arm_correlate_q7.c ****      * number of output samples are made zero */
 118:./Libraries/CMSIS/DSP/Source/FilteringFunctions/arm_correlate_q7.c ****     j = outBlockSize - (srcALen + (srcBLen - 1U));
  70              		.loc 1 118 33
  71 002e 3A68     		ldr	r2, [r7]
  72 0030 BB68     		ldr	r3, [r7, #8]
  73 0032 1344     		add	r3, r3, r2
  74              		.loc 1 118 22
  75 0034 7A6B     		ldr	r2, [r7, #52]
  76 0036 D31A     		subs	r3, r2, r3
  77              		.loc 1 118 7
  78 0038 0133     		adds	r3, r3, #1
  79 003a BB63     		str	r3, [r7, #56]
 119:./Libraries/CMSIS/DSP/Source/FilteringFunctions/arm_correlate_q7.c **** 
 120:./Libraries/CMSIS/DSP/Source/FilteringFunctions/arm_correlate_q7.c ****     /* Updating the pointer position to non zero value */
 121:./Libraries/CMSIS/DSP/Source/FilteringFunctions/arm_correlate_q7.c ****     pOut += j;
  80              		.loc 1 121 10
  81 003c 7A6E     		ldr	r2, [r7, #100]
  82 003e BB6B     		ldr	r3, [r7, #56]
  83 0040 1344     		add	r3, r3, r2
  84 0042 7B66     		str	r3, [r7, #100]
  85 0044 13E0     		b	.L3
  86              	.L2:
 122:./Libraries/CMSIS/DSP/Source/FilteringFunctions/arm_correlate_q7.c ****   }
 123:./Libraries/CMSIS/DSP/Source/FilteringFunctions/arm_correlate_q7.c ****   else
 124:./Libraries/CMSIS/DSP/Source/FilteringFunctions/arm_correlate_q7.c ****   {
 125:./Libraries/CMSIS/DSP/Source/FilteringFunctions/arm_correlate_q7.c ****     /* Initialization of inputA pointer */
 126:./Libraries/CMSIS/DSP/Source/FilteringFunctions/arm_correlate_q7.c ****     pIn1 = pSrcB;
  87              		.loc 1 126 10
  88 0046 7B68     		ldr	r3, [r7, #4]
  89 0048 FB66     		str	r3, [r7, #108]
 127:./Libraries/CMSIS/DSP/Source/FilteringFunctions/arm_correlate_q7.c **** 
 128:./Libraries/CMSIS/DSP/Source/FilteringFunctions/arm_correlate_q7.c ****     /* Initialization of inputB pointer */
 129:./Libraries/CMSIS/DSP/Source/FilteringFunctions/arm_correlate_q7.c ****     pIn2 = pSrcA;
  90              		.loc 1 129 10
  91 004a FB68     		ldr	r3, [r7, #12]
  92 004c BB66     		str	r3, [r7, #104]
 130:./Libraries/CMSIS/DSP/Source/FilteringFunctions/arm_correlate_q7.c **** 
 131:./Libraries/CMSIS/DSP/Source/FilteringFunctions/arm_correlate_q7.c ****     /* srcBLen is always considered as shorter or equal to srcALen */
 132:./Libraries/CMSIS/DSP/Source/FilteringFunctions/arm_correlate_q7.c ****     j = srcBLen;
  93              		.loc 1 132 7
  94 004e 3B68     		ldr	r3, [r7]
  95 0050 BB63     		str	r3, [r7, #56]
 133:./Libraries/CMSIS/DSP/Source/FilteringFunctions/arm_correlate_q7.c ****     srcBLen = srcALen;
  96              		.loc 1 133 13
ARM GAS  /tmp/ccNzgOB0.s 			page 5


  97 0052 BB68     		ldr	r3, [r7, #8]
  98 0054 3B60     		str	r3, [r7]
 134:./Libraries/CMSIS/DSP/Source/FilteringFunctions/arm_correlate_q7.c ****     srcALen = j;
  99              		.loc 1 134 13
 100 0056 BB6B     		ldr	r3, [r7, #56]
 101 0058 BB60     		str	r3, [r7, #8]
 135:./Libraries/CMSIS/DSP/Source/FilteringFunctions/arm_correlate_q7.c **** 
 136:./Libraries/CMSIS/DSP/Source/FilteringFunctions/arm_correlate_q7.c ****     /* CORR(x, y) = Reverse order(CORR(y, x)) */
 137:./Libraries/CMSIS/DSP/Source/FilteringFunctions/arm_correlate_q7.c ****     /* Hence set the destination pointer to point to the last output sample */
 138:./Libraries/CMSIS/DSP/Source/FilteringFunctions/arm_correlate_q7.c ****     pOut = pDst + ((srcALen + srcBLen) - 2U);
 102              		.loc 1 138 29
 103 005a BA68     		ldr	r2, [r7, #8]
 104 005c 3B68     		ldr	r3, [r7]
 105 005e 1344     		add	r3, r3, r2
 106              		.loc 1 138 17
 107 0060 023B     		subs	r3, r3, #2
 108              		.loc 1 138 10
 109 0062 BA6F     		ldr	r2, [r7, #120]
 110 0064 1344     		add	r3, r3, r2
 111 0066 7B66     		str	r3, [r7, #100]
 139:./Libraries/CMSIS/DSP/Source/FilteringFunctions/arm_correlate_q7.c **** 
 140:./Libraries/CMSIS/DSP/Source/FilteringFunctions/arm_correlate_q7.c ****     /* Destination address modifier is set to -1 */
 141:./Libraries/CMSIS/DSP/Source/FilteringFunctions/arm_correlate_q7.c ****     inc = -1;
 112              		.loc 1 141 9
 113 0068 4FF0FF33 		mov	r3, #-1
 114 006c FB63     		str	r3, [r7, #60]
 115              	.L3:
 142:./Libraries/CMSIS/DSP/Source/FilteringFunctions/arm_correlate_q7.c ****   }
 143:./Libraries/CMSIS/DSP/Source/FilteringFunctions/arm_correlate_q7.c **** 
 144:./Libraries/CMSIS/DSP/Source/FilteringFunctions/arm_correlate_q7.c ****   /* The function is internally
 145:./Libraries/CMSIS/DSP/Source/FilteringFunctions/arm_correlate_q7.c ****    * divided into three stages according to the number of multiplications that has to be
 146:./Libraries/CMSIS/DSP/Source/FilteringFunctions/arm_correlate_q7.c ****    * taken place between inputA samples and inputB samples. In the first stage of the
 147:./Libraries/CMSIS/DSP/Source/FilteringFunctions/arm_correlate_q7.c ****    * algorithm, the multiplications increase by one for every iteration.
 148:./Libraries/CMSIS/DSP/Source/FilteringFunctions/arm_correlate_q7.c ****    * In the second stage of the algorithm, srcBLen number of multiplications are done.
 149:./Libraries/CMSIS/DSP/Source/FilteringFunctions/arm_correlate_q7.c ****    * In the third stage of the algorithm, the multiplications decrease by one
 150:./Libraries/CMSIS/DSP/Source/FilteringFunctions/arm_correlate_q7.c ****    * for every iteration. */
 151:./Libraries/CMSIS/DSP/Source/FilteringFunctions/arm_correlate_q7.c **** 
 152:./Libraries/CMSIS/DSP/Source/FilteringFunctions/arm_correlate_q7.c ****   /* The algorithm is implemented in three stages.
 153:./Libraries/CMSIS/DSP/Source/FilteringFunctions/arm_correlate_q7.c ****      The loop counters of each stage is initiated here. */
 154:./Libraries/CMSIS/DSP/Source/FilteringFunctions/arm_correlate_q7.c ****   blockSize1 = srcBLen - 1U;
 116              		.loc 1 154 14
 117 006e 3B68     		ldr	r3, [r7]
 118 0070 013B     		subs	r3, r3, #1
 119 0072 3B65     		str	r3, [r7, #80]
 155:./Libraries/CMSIS/DSP/Source/FilteringFunctions/arm_correlate_q7.c ****   blockSize2 = srcALen - (srcBLen - 1U);
 120              		.loc 1 155 24
 121 0074 BA68     		ldr	r2, [r7, #8]
 122 0076 3B68     		ldr	r3, [r7]
 123 0078 D31A     		subs	r3, r2, r3
 124              		.loc 1 155 14
 125 007a 0133     		adds	r3, r3, #1
 126 007c 3B63     		str	r3, [r7, #48]
 156:./Libraries/CMSIS/DSP/Source/FilteringFunctions/arm_correlate_q7.c ****   blockSize3 = blockSize1;
 127              		.loc 1 156 14
 128 007e 3B6D     		ldr	r3, [r7, #80]
 129 0080 FB64     		str	r3, [r7, #76]
 157:./Libraries/CMSIS/DSP/Source/FilteringFunctions/arm_correlate_q7.c **** 
ARM GAS  /tmp/ccNzgOB0.s 			page 6


 158:./Libraries/CMSIS/DSP/Source/FilteringFunctions/arm_correlate_q7.c ****   /* --------------------------
 159:./Libraries/CMSIS/DSP/Source/FilteringFunctions/arm_correlate_q7.c ****    * Initializations of stage1
 160:./Libraries/CMSIS/DSP/Source/FilteringFunctions/arm_correlate_q7.c ****    * -------------------------*/
 161:./Libraries/CMSIS/DSP/Source/FilteringFunctions/arm_correlate_q7.c **** 
 162:./Libraries/CMSIS/DSP/Source/FilteringFunctions/arm_correlate_q7.c ****   /* sum = x[0] * y[srcBlen - 1]
 163:./Libraries/CMSIS/DSP/Source/FilteringFunctions/arm_correlate_q7.c ****    * sum = x[0] * y[srcBlen - 2] + x[1] * y[srcBlen - 1]
 164:./Libraries/CMSIS/DSP/Source/FilteringFunctions/arm_correlate_q7.c ****    * ....
 165:./Libraries/CMSIS/DSP/Source/FilteringFunctions/arm_correlate_q7.c ****    * sum = x[0] * y[0] + x[1] * y[1] +...+ x[srcBLen - 1] * y[srcBLen - 1]
 166:./Libraries/CMSIS/DSP/Source/FilteringFunctions/arm_correlate_q7.c ****    */
 167:./Libraries/CMSIS/DSP/Source/FilteringFunctions/arm_correlate_q7.c **** 
 168:./Libraries/CMSIS/DSP/Source/FilteringFunctions/arm_correlate_q7.c ****   /* In this stage the MAC operations are increased by 1 for every iteration.
 169:./Libraries/CMSIS/DSP/Source/FilteringFunctions/arm_correlate_q7.c ****      The count variable holds the number of MAC operations performed */
 170:./Libraries/CMSIS/DSP/Source/FilteringFunctions/arm_correlate_q7.c ****   count = 1U;
 130              		.loc 1 170 9
 131 0082 0123     		movs	r3, #1
 132 0084 7B64     		str	r3, [r7, #68]
 171:./Libraries/CMSIS/DSP/Source/FilteringFunctions/arm_correlate_q7.c **** 
 172:./Libraries/CMSIS/DSP/Source/FilteringFunctions/arm_correlate_q7.c ****   /* Working pointer of inputA */
 173:./Libraries/CMSIS/DSP/Source/FilteringFunctions/arm_correlate_q7.c ****   px = pIn1;
 133              		.loc 1 173 6
 134 0086 FB6E     		ldr	r3, [r7, #108]
 135 0088 3B66     		str	r3, [r7, #96]
 174:./Libraries/CMSIS/DSP/Source/FilteringFunctions/arm_correlate_q7.c **** 
 175:./Libraries/CMSIS/DSP/Source/FilteringFunctions/arm_correlate_q7.c ****   /* Working pointer of inputB */
 176:./Libraries/CMSIS/DSP/Source/FilteringFunctions/arm_correlate_q7.c ****   pSrc1 = pIn2 + (srcBLen - 1U);
 136              		.loc 1 176 16
 137 008a 3B68     		ldr	r3, [r7]
 138 008c 013B     		subs	r3, r3, #1
 139              		.loc 1 176 9
 140 008e BA6E     		ldr	r2, [r7, #104]
 141 0090 1344     		add	r3, r3, r2
 142 0092 BB65     		str	r3, [r7, #88]
 177:./Libraries/CMSIS/DSP/Source/FilteringFunctions/arm_correlate_q7.c ****   py = pSrc1;
 143              		.loc 1 177 6
 144 0094 BB6D     		ldr	r3, [r7, #88]
 145 0096 FB65     		str	r3, [r7, #92]
 178:./Libraries/CMSIS/DSP/Source/FilteringFunctions/arm_correlate_q7.c **** 
 179:./Libraries/CMSIS/DSP/Source/FilteringFunctions/arm_correlate_q7.c ****   /* ------------------------
 180:./Libraries/CMSIS/DSP/Source/FilteringFunctions/arm_correlate_q7.c ****    * Stage1 process
 181:./Libraries/CMSIS/DSP/Source/FilteringFunctions/arm_correlate_q7.c ****    * ----------------------*/
 182:./Libraries/CMSIS/DSP/Source/FilteringFunctions/arm_correlate_q7.c **** 
 183:./Libraries/CMSIS/DSP/Source/FilteringFunctions/arm_correlate_q7.c ****   /* The first stage starts here */
 184:./Libraries/CMSIS/DSP/Source/FilteringFunctions/arm_correlate_q7.c ****   while (blockSize1 > 0U)
 146              		.loc 1 184 9
 147 0098 36E0     		b	.L4
 148              	.L7:
 185:./Libraries/CMSIS/DSP/Source/FilteringFunctions/arm_correlate_q7.c ****   {
 186:./Libraries/CMSIS/DSP/Source/FilteringFunctions/arm_correlate_q7.c ****     /* Accumulator is made zero for every iteration */
 187:./Libraries/CMSIS/DSP/Source/FilteringFunctions/arm_correlate_q7.c ****     sum = 0;
 149              		.loc 1 187 9
 150 009a 0023     		movs	r3, #0
 151 009c 7B65     		str	r3, [r7, #84]
 188:./Libraries/CMSIS/DSP/Source/FilteringFunctions/arm_correlate_q7.c **** 
 189:./Libraries/CMSIS/DSP/Source/FilteringFunctions/arm_correlate_q7.c **** #if defined (ARM_MATH_LOOPUNROLL)
 190:./Libraries/CMSIS/DSP/Source/FilteringFunctions/arm_correlate_q7.c **** 
 191:./Libraries/CMSIS/DSP/Source/FilteringFunctions/arm_correlate_q7.c ****     /* Loop unrolling: Compute 4 outputs at a time */
 192:./Libraries/CMSIS/DSP/Source/FilteringFunctions/arm_correlate_q7.c ****     k = count >> 2U;
ARM GAS  /tmp/ccNzgOB0.s 			page 7


 193:./Libraries/CMSIS/DSP/Source/FilteringFunctions/arm_correlate_q7.c **** 
 194:./Libraries/CMSIS/DSP/Source/FilteringFunctions/arm_correlate_q7.c ****     while (k > 0U)
 195:./Libraries/CMSIS/DSP/Source/FilteringFunctions/arm_correlate_q7.c ****     {
 196:./Libraries/CMSIS/DSP/Source/FilteringFunctions/arm_correlate_q7.c ****       /* x[0] , x[1] */
 197:./Libraries/CMSIS/DSP/Source/FilteringFunctions/arm_correlate_q7.c ****       in1 = (q15_t) *px++;
 198:./Libraries/CMSIS/DSP/Source/FilteringFunctions/arm_correlate_q7.c ****       in2 = (q15_t) *px++;
 199:./Libraries/CMSIS/DSP/Source/FilteringFunctions/arm_correlate_q7.c ****       input1 = ((q31_t) in1 & 0x0000FFFF) | ((q31_t) in2 << 16);
 200:./Libraries/CMSIS/DSP/Source/FilteringFunctions/arm_correlate_q7.c **** 
 201:./Libraries/CMSIS/DSP/Source/FilteringFunctions/arm_correlate_q7.c ****       /* y[srcBLen - 4] , y[srcBLen - 3] */
 202:./Libraries/CMSIS/DSP/Source/FilteringFunctions/arm_correlate_q7.c ****       in1 = (q15_t) *py++;
 203:./Libraries/CMSIS/DSP/Source/FilteringFunctions/arm_correlate_q7.c ****       in2 = (q15_t) *py++;
 204:./Libraries/CMSIS/DSP/Source/FilteringFunctions/arm_correlate_q7.c ****       input2 = ((q31_t) in1 & 0x0000FFFF) | ((q31_t) in2 << 16);
 205:./Libraries/CMSIS/DSP/Source/FilteringFunctions/arm_correlate_q7.c **** 
 206:./Libraries/CMSIS/DSP/Source/FilteringFunctions/arm_correlate_q7.c ****       /* x[0] * y[srcBLen - 4] */
 207:./Libraries/CMSIS/DSP/Source/FilteringFunctions/arm_correlate_q7.c ****       /* x[1] * y[srcBLen - 3] */
 208:./Libraries/CMSIS/DSP/Source/FilteringFunctions/arm_correlate_q7.c ****       sum = __SMLAD(input1, input2, sum);
 209:./Libraries/CMSIS/DSP/Source/FilteringFunctions/arm_correlate_q7.c **** 
 210:./Libraries/CMSIS/DSP/Source/FilteringFunctions/arm_correlate_q7.c ****       /* x[2] , x[3] */
 211:./Libraries/CMSIS/DSP/Source/FilteringFunctions/arm_correlate_q7.c ****       in1 = (q15_t) *px++;
 212:./Libraries/CMSIS/DSP/Source/FilteringFunctions/arm_correlate_q7.c ****       in2 = (q15_t) *px++;
 213:./Libraries/CMSIS/DSP/Source/FilteringFunctions/arm_correlate_q7.c ****       input1 = ((q31_t) in1 & 0x0000FFFF) | ((q31_t) in2 << 16);
 214:./Libraries/CMSIS/DSP/Source/FilteringFunctions/arm_correlate_q7.c **** 
 215:./Libraries/CMSIS/DSP/Source/FilteringFunctions/arm_correlate_q7.c ****       /* y[srcBLen - 2] , y[srcBLen - 1] */
 216:./Libraries/CMSIS/DSP/Source/FilteringFunctions/arm_correlate_q7.c ****       in1 = (q15_t) *py++;
 217:./Libraries/CMSIS/DSP/Source/FilteringFunctions/arm_correlate_q7.c ****       in2 = (q15_t) *py++;
 218:./Libraries/CMSIS/DSP/Source/FilteringFunctions/arm_correlate_q7.c ****       input2 = ((q31_t) in1 & 0x0000FFFF) | ((q31_t) in2 << 16);
 219:./Libraries/CMSIS/DSP/Source/FilteringFunctions/arm_correlate_q7.c **** 
 220:./Libraries/CMSIS/DSP/Source/FilteringFunctions/arm_correlate_q7.c ****       /* x[2] * y[srcBLen - 2] */
 221:./Libraries/CMSIS/DSP/Source/FilteringFunctions/arm_correlate_q7.c ****       /* x[3] * y[srcBLen - 1] */
 222:./Libraries/CMSIS/DSP/Source/FilteringFunctions/arm_correlate_q7.c ****       sum = __SMLAD(input1, input2, sum);
 223:./Libraries/CMSIS/DSP/Source/FilteringFunctions/arm_correlate_q7.c **** 
 224:./Libraries/CMSIS/DSP/Source/FilteringFunctions/arm_correlate_q7.c ****       /* Decrement loop counter */
 225:./Libraries/CMSIS/DSP/Source/FilteringFunctions/arm_correlate_q7.c ****       k--;
 226:./Libraries/CMSIS/DSP/Source/FilteringFunctions/arm_correlate_q7.c ****     }
 227:./Libraries/CMSIS/DSP/Source/FilteringFunctions/arm_correlate_q7.c **** 
 228:./Libraries/CMSIS/DSP/Source/FilteringFunctions/arm_correlate_q7.c ****     /* Loop unrolling: Compute remaining outputs */
 229:./Libraries/CMSIS/DSP/Source/FilteringFunctions/arm_correlate_q7.c ****     k = count % 0x4U;
 230:./Libraries/CMSIS/DSP/Source/FilteringFunctions/arm_correlate_q7.c **** 
 231:./Libraries/CMSIS/DSP/Source/FilteringFunctions/arm_correlate_q7.c **** #else
 232:./Libraries/CMSIS/DSP/Source/FilteringFunctions/arm_correlate_q7.c **** 
 233:./Libraries/CMSIS/DSP/Source/FilteringFunctions/arm_correlate_q7.c ****     /* Initialize k with number of samples */
 234:./Libraries/CMSIS/DSP/Source/FilteringFunctions/arm_correlate_q7.c ****     k = count;
 152              		.loc 1 234 7
 153 009e 7B6C     		ldr	r3, [r7, #68]
 154 00a0 BB64     		str	r3, [r7, #72]
 235:./Libraries/CMSIS/DSP/Source/FilteringFunctions/arm_correlate_q7.c **** 
 236:./Libraries/CMSIS/DSP/Source/FilteringFunctions/arm_correlate_q7.c **** #endif /* #if defined (ARM_MATH_LOOPUNROLL) */
 237:./Libraries/CMSIS/DSP/Source/FilteringFunctions/arm_correlate_q7.c **** 
 238:./Libraries/CMSIS/DSP/Source/FilteringFunctions/arm_correlate_q7.c ****     while (k > 0U)
 155              		.loc 1 238 11
 156 00a2 12E0     		b	.L5
 157              	.L6:
 239:./Libraries/CMSIS/DSP/Source/FilteringFunctions/arm_correlate_q7.c ****     {
 240:./Libraries/CMSIS/DSP/Source/FilteringFunctions/arm_correlate_q7.c ****       /* Perform the multiply-accumulate */
 241:./Libraries/CMSIS/DSP/Source/FilteringFunctions/arm_correlate_q7.c ****       /* x[0] * y[srcBLen - 1] */
 242:./Libraries/CMSIS/DSP/Source/FilteringFunctions/arm_correlate_q7.c ****       sum += (q31_t) ((q15_t) *px++ * *py++);
 158              		.loc 1 242 34
ARM GAS  /tmp/ccNzgOB0.s 			page 8


 159 00a4 3B6E     		ldr	r3, [r7, #96]
 160 00a6 5A1C     		adds	r2, r3, #1
 161 00a8 3A66     		str	r2, [r7, #96]
 162              		.loc 1 242 31
 163 00aa 93F90030 		ldrsb	r3, [r3]
 164              		.loc 1 242 23
 165 00ae 1946     		mov	r1, r3
 166              		.loc 1 242 42
 167 00b0 FB6D     		ldr	r3, [r7, #92]
 168 00b2 5A1C     		adds	r2, r3, #1
 169 00b4 FA65     		str	r2, [r7, #92]
 170              		.loc 1 242 39
 171 00b6 93F90030 		ldrsb	r3, [r3]
 172              		.loc 1 242 37
 173 00ba 03FB01F3 		mul	r3, r3, r1
 174              		.loc 1 242 11
 175 00be 7A6D     		ldr	r2, [r7, #84]
 176 00c0 1344     		add	r3, r3, r2
 177 00c2 7B65     		str	r3, [r7, #84]
 243:./Libraries/CMSIS/DSP/Source/FilteringFunctions/arm_correlate_q7.c **** 
 244:./Libraries/CMSIS/DSP/Source/FilteringFunctions/arm_correlate_q7.c ****       /* Decrement loop counter */
 245:./Libraries/CMSIS/DSP/Source/FilteringFunctions/arm_correlate_q7.c ****       k--;
 178              		.loc 1 245 8
 179 00c4 BB6C     		ldr	r3, [r7, #72]
 180 00c6 013B     		subs	r3, r3, #1
 181 00c8 BB64     		str	r3, [r7, #72]
 182              	.L5:
 238:./Libraries/CMSIS/DSP/Source/FilteringFunctions/arm_correlate_q7.c ****     {
 183              		.loc 1 238 11
 184 00ca BB6C     		ldr	r3, [r7, #72]
 185 00cc 002B     		cmp	r3, #0
 186 00ce E9D1     		bne	.L6
 187              	.LBB2:
 246:./Libraries/CMSIS/DSP/Source/FilteringFunctions/arm_correlate_q7.c ****     }
 247:./Libraries/CMSIS/DSP/Source/FilteringFunctions/arm_correlate_q7.c **** 
 248:./Libraries/CMSIS/DSP/Source/FilteringFunctions/arm_correlate_q7.c ****     /* Store the result in the accumulator in the destination buffer. */
 249:./Libraries/CMSIS/DSP/Source/FilteringFunctions/arm_correlate_q7.c ****     *pOut = (q7_t) (__SSAT(sum >> 7U, 8));
 188              		.loc 1 249 21
 189 00d0 7B6D     		ldr	r3, [r7, #84]
 190 00d2 DB11     		asrs	r3, r3, #7
 191 00d4 7B61     		str	r3, [r7, #20]
 192 00d6 7B69     		ldr	r3, [r7, #20]
 193              		.syntax unified
 194              	@ 249 "./Libraries/CMSIS/DSP/Source/FilteringFunctions/arm_correlate_q7.c" 1
 195 00d8 03F30703 		ssat r3, #8, r3
 196              	@ 0 "" 2
 197              		.thumb
 198              		.syntax unified
 199 00dc 3B61     		str	r3, [r7, #16]
 200 00de 3B69     		ldr	r3, [r7, #16]
 201              	.LBE2:
 202              		.loc 1 249 13
 203 00e0 5AB2     		sxtb	r2, r3
 204              		.loc 1 249 11
 205 00e2 7B6E     		ldr	r3, [r7, #100]
 206 00e4 1A70     		strb	r2, [r3]
 250:./Libraries/CMSIS/DSP/Source/FilteringFunctions/arm_correlate_q7.c ****     /* Destination pointer is updated according to the address modifier, inc */
ARM GAS  /tmp/ccNzgOB0.s 			page 9


 251:./Libraries/CMSIS/DSP/Source/FilteringFunctions/arm_correlate_q7.c ****     pOut += inc;
 207              		.loc 1 251 10
 208 00e6 FB6B     		ldr	r3, [r7, #60]
 209 00e8 7A6E     		ldr	r2, [r7, #100]
 210 00ea 1344     		add	r3, r3, r2
 211 00ec 7B66     		str	r3, [r7, #100]
 252:./Libraries/CMSIS/DSP/Source/FilteringFunctions/arm_correlate_q7.c **** 
 253:./Libraries/CMSIS/DSP/Source/FilteringFunctions/arm_correlate_q7.c ****     /* Update the inputA and inputB pointers for next MAC calculation */
 254:./Libraries/CMSIS/DSP/Source/FilteringFunctions/arm_correlate_q7.c ****     py = pSrc1 - count;
 212              		.loc 1 254 16
 213 00ee 7B6C     		ldr	r3, [r7, #68]
 214 00f0 5B42     		rsbs	r3, r3, #0
 215              		.loc 1 254 8
 216 00f2 BA6D     		ldr	r2, [r7, #88]
 217 00f4 1344     		add	r3, r3, r2
 218 00f6 FB65     		str	r3, [r7, #92]
 255:./Libraries/CMSIS/DSP/Source/FilteringFunctions/arm_correlate_q7.c ****     px = pIn1;
 219              		.loc 1 255 8
 220 00f8 FB6E     		ldr	r3, [r7, #108]
 221 00fa 3B66     		str	r3, [r7, #96]
 256:./Libraries/CMSIS/DSP/Source/FilteringFunctions/arm_correlate_q7.c **** 
 257:./Libraries/CMSIS/DSP/Source/FilteringFunctions/arm_correlate_q7.c ****     /* Increment MAC count */
 258:./Libraries/CMSIS/DSP/Source/FilteringFunctions/arm_correlate_q7.c ****     count++;
 222              		.loc 1 258 10
 223 00fc 7B6C     		ldr	r3, [r7, #68]
 224 00fe 0133     		adds	r3, r3, #1
 225 0100 7B64     		str	r3, [r7, #68]
 259:./Libraries/CMSIS/DSP/Source/FilteringFunctions/arm_correlate_q7.c **** 
 260:./Libraries/CMSIS/DSP/Source/FilteringFunctions/arm_correlate_q7.c ****     /* Decrement loop counter */
 261:./Libraries/CMSIS/DSP/Source/FilteringFunctions/arm_correlate_q7.c ****     blockSize1--;
 226              		.loc 1 261 15
 227 0102 3B6D     		ldr	r3, [r7, #80]
 228 0104 013B     		subs	r3, r3, #1
 229 0106 3B65     		str	r3, [r7, #80]
 230              	.L4:
 184:./Libraries/CMSIS/DSP/Source/FilteringFunctions/arm_correlate_q7.c ****   {
 231              		.loc 1 184 9
 232 0108 3B6D     		ldr	r3, [r7, #80]
 233 010a 002B     		cmp	r3, #0
 234 010c C5D1     		bne	.L7
 262:./Libraries/CMSIS/DSP/Source/FilteringFunctions/arm_correlate_q7.c ****   }
 263:./Libraries/CMSIS/DSP/Source/FilteringFunctions/arm_correlate_q7.c **** 
 264:./Libraries/CMSIS/DSP/Source/FilteringFunctions/arm_correlate_q7.c ****   /* --------------------------
 265:./Libraries/CMSIS/DSP/Source/FilteringFunctions/arm_correlate_q7.c ****    * Initializations of stage2
 266:./Libraries/CMSIS/DSP/Source/FilteringFunctions/arm_correlate_q7.c ****    * ------------------------*/
 267:./Libraries/CMSIS/DSP/Source/FilteringFunctions/arm_correlate_q7.c **** 
 268:./Libraries/CMSIS/DSP/Source/FilteringFunctions/arm_correlate_q7.c ****   /* sum = x[0] * y[0] + x[1] * y[1] +...+ x[srcBLen-1] * y[srcBLen-1]
 269:./Libraries/CMSIS/DSP/Source/FilteringFunctions/arm_correlate_q7.c ****    * sum = x[1] * y[0] + x[2] * y[1] +...+ x[srcBLen] * y[srcBLen-1]
 270:./Libraries/CMSIS/DSP/Source/FilteringFunctions/arm_correlate_q7.c ****    * ....
 271:./Libraries/CMSIS/DSP/Source/FilteringFunctions/arm_correlate_q7.c ****    * sum = x[srcALen-srcBLen-2] * y[0] + x[srcALen-srcBLen-1] * y[1] +...+ x[srcALen-1] * y[srcBLen
 272:./Libraries/CMSIS/DSP/Source/FilteringFunctions/arm_correlate_q7.c ****    */
 273:./Libraries/CMSIS/DSP/Source/FilteringFunctions/arm_correlate_q7.c **** 
 274:./Libraries/CMSIS/DSP/Source/FilteringFunctions/arm_correlate_q7.c ****   /* Working pointer of inputA */
 275:./Libraries/CMSIS/DSP/Source/FilteringFunctions/arm_correlate_q7.c ****   px = pIn1;
 235              		.loc 1 275 6
 236 010e FB6E     		ldr	r3, [r7, #108]
 237 0110 3B66     		str	r3, [r7, #96]
ARM GAS  /tmp/ccNzgOB0.s 			page 10


 276:./Libraries/CMSIS/DSP/Source/FilteringFunctions/arm_correlate_q7.c **** 
 277:./Libraries/CMSIS/DSP/Source/FilteringFunctions/arm_correlate_q7.c ****   /* Working pointer of inputB */
 278:./Libraries/CMSIS/DSP/Source/FilteringFunctions/arm_correlate_q7.c ****   py = pIn2;
 238              		.loc 1 278 6
 239 0112 BB6E     		ldr	r3, [r7, #104]
 240 0114 FB65     		str	r3, [r7, #92]
 279:./Libraries/CMSIS/DSP/Source/FilteringFunctions/arm_correlate_q7.c **** 
 280:./Libraries/CMSIS/DSP/Source/FilteringFunctions/arm_correlate_q7.c ****   /* count is index by which the pointer pIn1 to be incremented */
 281:./Libraries/CMSIS/DSP/Source/FilteringFunctions/arm_correlate_q7.c ****   count = 0U;
 241              		.loc 1 281 9
 242 0116 0023     		movs	r3, #0
 243 0118 7B64     		str	r3, [r7, #68]
 282:./Libraries/CMSIS/DSP/Source/FilteringFunctions/arm_correlate_q7.c **** 
 283:./Libraries/CMSIS/DSP/Source/FilteringFunctions/arm_correlate_q7.c ****   /* -------------------
 284:./Libraries/CMSIS/DSP/Source/FilteringFunctions/arm_correlate_q7.c ****    * Stage2 process
 285:./Libraries/CMSIS/DSP/Source/FilteringFunctions/arm_correlate_q7.c ****    * ------------------*/
 286:./Libraries/CMSIS/DSP/Source/FilteringFunctions/arm_correlate_q7.c **** 
 287:./Libraries/CMSIS/DSP/Source/FilteringFunctions/arm_correlate_q7.c ****   /* Stage2 depends on srcBLen as in this stage srcBLen number of MACS are performed.
 288:./Libraries/CMSIS/DSP/Source/FilteringFunctions/arm_correlate_q7.c ****    * So, to loop unroll over blockSize2,
 289:./Libraries/CMSIS/DSP/Source/FilteringFunctions/arm_correlate_q7.c ****    * srcBLen should be greater than or equal to 4 */
 290:./Libraries/CMSIS/DSP/Source/FilteringFunctions/arm_correlate_q7.c ****   if (srcBLen >= 4U)
 244              		.loc 1 290 6
 245 011a 3B68     		ldr	r3, [r7]
 246 011c 032B     		cmp	r3, #3
 247 011e 3CD9     		bls	.L8
 291:./Libraries/CMSIS/DSP/Source/FilteringFunctions/arm_correlate_q7.c ****   {
 292:./Libraries/CMSIS/DSP/Source/FilteringFunctions/arm_correlate_q7.c **** #if defined (ARM_MATH_LOOPUNROLL)
 293:./Libraries/CMSIS/DSP/Source/FilteringFunctions/arm_correlate_q7.c **** 
 294:./Libraries/CMSIS/DSP/Source/FilteringFunctions/arm_correlate_q7.c ****     /* Loop unrolling: Compute 4 outputs at a time */
 295:./Libraries/CMSIS/DSP/Source/FilteringFunctions/arm_correlate_q7.c ****     blkCnt = blockSize2 >> 2U;
 296:./Libraries/CMSIS/DSP/Source/FilteringFunctions/arm_correlate_q7.c **** 
 297:./Libraries/CMSIS/DSP/Source/FilteringFunctions/arm_correlate_q7.c ****     while (blkCnt > 0U)
 298:./Libraries/CMSIS/DSP/Source/FilteringFunctions/arm_correlate_q7.c ****     {
 299:./Libraries/CMSIS/DSP/Source/FilteringFunctions/arm_correlate_q7.c ****       /* Set all accumulators to zero */
 300:./Libraries/CMSIS/DSP/Source/FilteringFunctions/arm_correlate_q7.c ****       acc0 = 0;
 301:./Libraries/CMSIS/DSP/Source/FilteringFunctions/arm_correlate_q7.c ****       acc1 = 0;
 302:./Libraries/CMSIS/DSP/Source/FilteringFunctions/arm_correlate_q7.c ****       acc2 = 0;
 303:./Libraries/CMSIS/DSP/Source/FilteringFunctions/arm_correlate_q7.c ****       acc3 = 0;
 304:./Libraries/CMSIS/DSP/Source/FilteringFunctions/arm_correlate_q7.c **** 
 305:./Libraries/CMSIS/DSP/Source/FilteringFunctions/arm_correlate_q7.c ****       /* read x[0], x[1], x[2] samples */
 306:./Libraries/CMSIS/DSP/Source/FilteringFunctions/arm_correlate_q7.c ****       x0 = *px++;
 307:./Libraries/CMSIS/DSP/Source/FilteringFunctions/arm_correlate_q7.c ****       x1 = *px++;
 308:./Libraries/CMSIS/DSP/Source/FilteringFunctions/arm_correlate_q7.c ****       x2 = *px++;
 309:./Libraries/CMSIS/DSP/Source/FilteringFunctions/arm_correlate_q7.c **** 
 310:./Libraries/CMSIS/DSP/Source/FilteringFunctions/arm_correlate_q7.c ****       /* Apply loop unrolling and compute 4 MACs simultaneously. */
 311:./Libraries/CMSIS/DSP/Source/FilteringFunctions/arm_correlate_q7.c ****       k = srcBLen >> 2U;
 312:./Libraries/CMSIS/DSP/Source/FilteringFunctions/arm_correlate_q7.c **** 
 313:./Libraries/CMSIS/DSP/Source/FilteringFunctions/arm_correlate_q7.c ****       /* First part of the processing with loop unrolling.  Compute 4 MACs at a time.
 314:./Libraries/CMSIS/DSP/Source/FilteringFunctions/arm_correlate_q7.c ****        ** a second loop below computes MACs for the remaining 1 to 3 samples. */
 315:./Libraries/CMSIS/DSP/Source/FilteringFunctions/arm_correlate_q7.c ****       do
 316:./Libraries/CMSIS/DSP/Source/FilteringFunctions/arm_correlate_q7.c ****       {
 317:./Libraries/CMSIS/DSP/Source/FilteringFunctions/arm_correlate_q7.c ****         /* Read y[0] sample */
 318:./Libraries/CMSIS/DSP/Source/FilteringFunctions/arm_correlate_q7.c ****         c0 = *py++;
 319:./Libraries/CMSIS/DSP/Source/FilteringFunctions/arm_correlate_q7.c ****         /* Read y[1] sample */
 320:./Libraries/CMSIS/DSP/Source/FilteringFunctions/arm_correlate_q7.c ****         c1 = *py++;
 321:./Libraries/CMSIS/DSP/Source/FilteringFunctions/arm_correlate_q7.c **** 
 322:./Libraries/CMSIS/DSP/Source/FilteringFunctions/arm_correlate_q7.c ****         /* Read x[3] sample */
ARM GAS  /tmp/ccNzgOB0.s 			page 11


 323:./Libraries/CMSIS/DSP/Source/FilteringFunctions/arm_correlate_q7.c ****         x3 = *px++;
 324:./Libraries/CMSIS/DSP/Source/FilteringFunctions/arm_correlate_q7.c **** 
 325:./Libraries/CMSIS/DSP/Source/FilteringFunctions/arm_correlate_q7.c ****         /* x[0] and x[1] are packed */
 326:./Libraries/CMSIS/DSP/Source/FilteringFunctions/arm_correlate_q7.c ****         in1 = (q15_t) x0;
 327:./Libraries/CMSIS/DSP/Source/FilteringFunctions/arm_correlate_q7.c ****         in2 = (q15_t) x1;
 328:./Libraries/CMSIS/DSP/Source/FilteringFunctions/arm_correlate_q7.c **** 
 329:./Libraries/CMSIS/DSP/Source/FilteringFunctions/arm_correlate_q7.c ****         input1 = ((q31_t) in1 & 0x0000FFFF) | ((q31_t) in2 << 16U);
 330:./Libraries/CMSIS/DSP/Source/FilteringFunctions/arm_correlate_q7.c **** 
 331:./Libraries/CMSIS/DSP/Source/FilteringFunctions/arm_correlate_q7.c ****         /* y[0] and y[1] are packed */
 332:./Libraries/CMSIS/DSP/Source/FilteringFunctions/arm_correlate_q7.c ****         in1 = (q15_t) c0;
 333:./Libraries/CMSIS/DSP/Source/FilteringFunctions/arm_correlate_q7.c ****         in2 = (q15_t) c1;
 334:./Libraries/CMSIS/DSP/Source/FilteringFunctions/arm_correlate_q7.c **** 
 335:./Libraries/CMSIS/DSP/Source/FilteringFunctions/arm_correlate_q7.c ****         input2 = ((q31_t) in1 & 0x0000FFFF) | ((q31_t) in2 << 16U);
 336:./Libraries/CMSIS/DSP/Source/FilteringFunctions/arm_correlate_q7.c **** 
 337:./Libraries/CMSIS/DSP/Source/FilteringFunctions/arm_correlate_q7.c ****         /* acc0 += x[0] * y[0] + x[1] * y[1]  */
 338:./Libraries/CMSIS/DSP/Source/FilteringFunctions/arm_correlate_q7.c ****         acc0 = __SMLAD(input1, input2, acc0);
 339:./Libraries/CMSIS/DSP/Source/FilteringFunctions/arm_correlate_q7.c **** 
 340:./Libraries/CMSIS/DSP/Source/FilteringFunctions/arm_correlate_q7.c ****         /* x[1] and x[2] are packed */
 341:./Libraries/CMSIS/DSP/Source/FilteringFunctions/arm_correlate_q7.c ****         in1 = (q15_t) x1;
 342:./Libraries/CMSIS/DSP/Source/FilteringFunctions/arm_correlate_q7.c ****         in2 = (q15_t) x2;
 343:./Libraries/CMSIS/DSP/Source/FilteringFunctions/arm_correlate_q7.c **** 
 344:./Libraries/CMSIS/DSP/Source/FilteringFunctions/arm_correlate_q7.c ****         input1 = ((q31_t) in1 & 0x0000FFFF) | ((q31_t) in2 << 16U);
 345:./Libraries/CMSIS/DSP/Source/FilteringFunctions/arm_correlate_q7.c **** 
 346:./Libraries/CMSIS/DSP/Source/FilteringFunctions/arm_correlate_q7.c ****         /* acc1 += x[1] * y[0] + x[2] * y[1] */
 347:./Libraries/CMSIS/DSP/Source/FilteringFunctions/arm_correlate_q7.c ****         acc1 = __SMLAD(input1, input2, acc1);
 348:./Libraries/CMSIS/DSP/Source/FilteringFunctions/arm_correlate_q7.c **** 
 349:./Libraries/CMSIS/DSP/Source/FilteringFunctions/arm_correlate_q7.c ****         /* x[2] and x[3] are packed */
 350:./Libraries/CMSIS/DSP/Source/FilteringFunctions/arm_correlate_q7.c ****         in1 = (q15_t) x2;
 351:./Libraries/CMSIS/DSP/Source/FilteringFunctions/arm_correlate_q7.c ****         in2 = (q15_t) x3;
 352:./Libraries/CMSIS/DSP/Source/FilteringFunctions/arm_correlate_q7.c **** 
 353:./Libraries/CMSIS/DSP/Source/FilteringFunctions/arm_correlate_q7.c ****         input1 = ((q31_t) in1 & 0x0000FFFF) | ((q31_t) in2 << 16U);
 354:./Libraries/CMSIS/DSP/Source/FilteringFunctions/arm_correlate_q7.c **** 
 355:./Libraries/CMSIS/DSP/Source/FilteringFunctions/arm_correlate_q7.c ****         /* acc2 += x[2] * y[0] + x[3] * y[1]  */
 356:./Libraries/CMSIS/DSP/Source/FilteringFunctions/arm_correlate_q7.c ****         acc2 = __SMLAD(input1, input2, acc2);
 357:./Libraries/CMSIS/DSP/Source/FilteringFunctions/arm_correlate_q7.c **** 
 358:./Libraries/CMSIS/DSP/Source/FilteringFunctions/arm_correlate_q7.c ****         /* Read x[4] sample */
 359:./Libraries/CMSIS/DSP/Source/FilteringFunctions/arm_correlate_q7.c ****         x0 = *px++;
 360:./Libraries/CMSIS/DSP/Source/FilteringFunctions/arm_correlate_q7.c **** 
 361:./Libraries/CMSIS/DSP/Source/FilteringFunctions/arm_correlate_q7.c ****         /* x[3] and x[4] are packed */
 362:./Libraries/CMSIS/DSP/Source/FilteringFunctions/arm_correlate_q7.c ****         in1 = (q15_t) x3;
 363:./Libraries/CMSIS/DSP/Source/FilteringFunctions/arm_correlate_q7.c ****         in2 = (q15_t) x0;
 364:./Libraries/CMSIS/DSP/Source/FilteringFunctions/arm_correlate_q7.c **** 
 365:./Libraries/CMSIS/DSP/Source/FilteringFunctions/arm_correlate_q7.c ****         input1 = ((q31_t) in1 & 0x0000FFFF) | ((q31_t) in2 << 16U);
 366:./Libraries/CMSIS/DSP/Source/FilteringFunctions/arm_correlate_q7.c **** 
 367:./Libraries/CMSIS/DSP/Source/FilteringFunctions/arm_correlate_q7.c ****         /* acc3 += x[3] * y[0] + x[4] * y[1]  */
 368:./Libraries/CMSIS/DSP/Source/FilteringFunctions/arm_correlate_q7.c ****         acc3 = __SMLAD(input1, input2, acc3);
 369:./Libraries/CMSIS/DSP/Source/FilteringFunctions/arm_correlate_q7.c **** 
 370:./Libraries/CMSIS/DSP/Source/FilteringFunctions/arm_correlate_q7.c ****         /* Read y[2] sample */
 371:./Libraries/CMSIS/DSP/Source/FilteringFunctions/arm_correlate_q7.c ****         c0 = *py++;
 372:./Libraries/CMSIS/DSP/Source/FilteringFunctions/arm_correlate_q7.c ****         /* Read y[3] sample */
 373:./Libraries/CMSIS/DSP/Source/FilteringFunctions/arm_correlate_q7.c ****         c1 = *py++;
 374:./Libraries/CMSIS/DSP/Source/FilteringFunctions/arm_correlate_q7.c **** 
 375:./Libraries/CMSIS/DSP/Source/FilteringFunctions/arm_correlate_q7.c ****         /* Read x[5] sample */
 376:./Libraries/CMSIS/DSP/Source/FilteringFunctions/arm_correlate_q7.c ****         x1 = *px++;
 377:./Libraries/CMSIS/DSP/Source/FilteringFunctions/arm_correlate_q7.c **** 
 378:./Libraries/CMSIS/DSP/Source/FilteringFunctions/arm_correlate_q7.c ****         /* x[2] and x[3] are packed */
 379:./Libraries/CMSIS/DSP/Source/FilteringFunctions/arm_correlate_q7.c ****         in1 = (q15_t) x2;
ARM GAS  /tmp/ccNzgOB0.s 			page 12


 380:./Libraries/CMSIS/DSP/Source/FilteringFunctions/arm_correlate_q7.c ****         in2 = (q15_t) x3;
 381:./Libraries/CMSIS/DSP/Source/FilteringFunctions/arm_correlate_q7.c **** 
 382:./Libraries/CMSIS/DSP/Source/FilteringFunctions/arm_correlate_q7.c ****         input1 = ((q31_t) in1 & 0x0000FFFF) | ((q31_t) in2 << 16U);
 383:./Libraries/CMSIS/DSP/Source/FilteringFunctions/arm_correlate_q7.c **** 
 384:./Libraries/CMSIS/DSP/Source/FilteringFunctions/arm_correlate_q7.c ****         /* y[2] and y[3] are packed */
 385:./Libraries/CMSIS/DSP/Source/FilteringFunctions/arm_correlate_q7.c ****         in1 = (q15_t) c0;
 386:./Libraries/CMSIS/DSP/Source/FilteringFunctions/arm_correlate_q7.c ****         in2 = (q15_t) c1;
 387:./Libraries/CMSIS/DSP/Source/FilteringFunctions/arm_correlate_q7.c **** 
 388:./Libraries/CMSIS/DSP/Source/FilteringFunctions/arm_correlate_q7.c ****         input2 = ((q31_t) in1 & 0x0000FFFF) | ((q31_t) in2 << 16U);
 389:./Libraries/CMSIS/DSP/Source/FilteringFunctions/arm_correlate_q7.c **** 
 390:./Libraries/CMSIS/DSP/Source/FilteringFunctions/arm_correlate_q7.c ****         /* acc0 += x[2] * y[2] + x[3] * y[3]  */
 391:./Libraries/CMSIS/DSP/Source/FilteringFunctions/arm_correlate_q7.c ****         acc0 = __SMLAD(input1, input2, acc0);
 392:./Libraries/CMSIS/DSP/Source/FilteringFunctions/arm_correlate_q7.c **** 
 393:./Libraries/CMSIS/DSP/Source/FilteringFunctions/arm_correlate_q7.c ****         /* x[3] and x[4] are packed */
 394:./Libraries/CMSIS/DSP/Source/FilteringFunctions/arm_correlate_q7.c ****         in1 = (q15_t) x3;
 395:./Libraries/CMSIS/DSP/Source/FilteringFunctions/arm_correlate_q7.c ****         in2 = (q15_t) x0;
 396:./Libraries/CMSIS/DSP/Source/FilteringFunctions/arm_correlate_q7.c **** 
 397:./Libraries/CMSIS/DSP/Source/FilteringFunctions/arm_correlate_q7.c ****         input1 = ((q31_t) in1 & 0x0000FFFF) | ((q31_t) in2 << 16U);
 398:./Libraries/CMSIS/DSP/Source/FilteringFunctions/arm_correlate_q7.c **** 
 399:./Libraries/CMSIS/DSP/Source/FilteringFunctions/arm_correlate_q7.c ****         /* acc1 += x[3] * y[2] + x[4] * y[3]  */
 400:./Libraries/CMSIS/DSP/Source/FilteringFunctions/arm_correlate_q7.c ****         acc1 = __SMLAD(input1, input2, acc1);
 401:./Libraries/CMSIS/DSP/Source/FilteringFunctions/arm_correlate_q7.c **** 
 402:./Libraries/CMSIS/DSP/Source/FilteringFunctions/arm_correlate_q7.c ****         /* x[4] and x[5] are packed */
 403:./Libraries/CMSIS/DSP/Source/FilteringFunctions/arm_correlate_q7.c ****         in1 = (q15_t) x0;
 404:./Libraries/CMSIS/DSP/Source/FilteringFunctions/arm_correlate_q7.c ****         in2 = (q15_t) x1;
 405:./Libraries/CMSIS/DSP/Source/FilteringFunctions/arm_correlate_q7.c **** 
 406:./Libraries/CMSIS/DSP/Source/FilteringFunctions/arm_correlate_q7.c ****         input1 = ((q31_t) in1 & 0x0000FFFF) | ((q31_t) in2 << 16U);
 407:./Libraries/CMSIS/DSP/Source/FilteringFunctions/arm_correlate_q7.c **** 
 408:./Libraries/CMSIS/DSP/Source/FilteringFunctions/arm_correlate_q7.c ****         /* acc2 += x[4] * y[2] + x[5] * y[3]  */
 409:./Libraries/CMSIS/DSP/Source/FilteringFunctions/arm_correlate_q7.c ****         acc2 = __SMLAD(input1, input2, acc2);
 410:./Libraries/CMSIS/DSP/Source/FilteringFunctions/arm_correlate_q7.c **** 
 411:./Libraries/CMSIS/DSP/Source/FilteringFunctions/arm_correlate_q7.c ****         /* Read x[6] sample */
 412:./Libraries/CMSIS/DSP/Source/FilteringFunctions/arm_correlate_q7.c ****         x2 = *px++;
 413:./Libraries/CMSIS/DSP/Source/FilteringFunctions/arm_correlate_q7.c **** 
 414:./Libraries/CMSIS/DSP/Source/FilteringFunctions/arm_correlate_q7.c ****         /* x[5] and x[6] are packed */
 415:./Libraries/CMSIS/DSP/Source/FilteringFunctions/arm_correlate_q7.c ****         in1 = (q15_t) x1;
 416:./Libraries/CMSIS/DSP/Source/FilteringFunctions/arm_correlate_q7.c ****         in2 = (q15_t) x2;
 417:./Libraries/CMSIS/DSP/Source/FilteringFunctions/arm_correlate_q7.c **** 
 418:./Libraries/CMSIS/DSP/Source/FilteringFunctions/arm_correlate_q7.c ****         input1 = ((q31_t) in1 & 0x0000FFFF) | ((q31_t) in2 << 16U);
 419:./Libraries/CMSIS/DSP/Source/FilteringFunctions/arm_correlate_q7.c **** 
 420:./Libraries/CMSIS/DSP/Source/FilteringFunctions/arm_correlate_q7.c ****         /* acc3 += x[5] * y[2] + x[6] * y[3]  */
 421:./Libraries/CMSIS/DSP/Source/FilteringFunctions/arm_correlate_q7.c ****         acc3 = __SMLAD(input1, input2, acc3);
 422:./Libraries/CMSIS/DSP/Source/FilteringFunctions/arm_correlate_q7.c **** 
 423:./Libraries/CMSIS/DSP/Source/FilteringFunctions/arm_correlate_q7.c ****       } while (--k);
 424:./Libraries/CMSIS/DSP/Source/FilteringFunctions/arm_correlate_q7.c **** 
 425:./Libraries/CMSIS/DSP/Source/FilteringFunctions/arm_correlate_q7.c ****       /* If the srcBLen is not a multiple of 4, compute any remaining MACs here.
 426:./Libraries/CMSIS/DSP/Source/FilteringFunctions/arm_correlate_q7.c ****        ** No loop unrolling is used. */
 427:./Libraries/CMSIS/DSP/Source/FilteringFunctions/arm_correlate_q7.c ****       k = srcBLen % 0x4U;
 428:./Libraries/CMSIS/DSP/Source/FilteringFunctions/arm_correlate_q7.c **** 
 429:./Libraries/CMSIS/DSP/Source/FilteringFunctions/arm_correlate_q7.c ****       while (k > 0U)
 430:./Libraries/CMSIS/DSP/Source/FilteringFunctions/arm_correlate_q7.c ****       {
 431:./Libraries/CMSIS/DSP/Source/FilteringFunctions/arm_correlate_q7.c ****         /* Read y[4] sample */
 432:./Libraries/CMSIS/DSP/Source/FilteringFunctions/arm_correlate_q7.c ****         c0 = *py++;
 433:./Libraries/CMSIS/DSP/Source/FilteringFunctions/arm_correlate_q7.c ****         /* Read x[7] sample */
 434:./Libraries/CMSIS/DSP/Source/FilteringFunctions/arm_correlate_q7.c ****         x3 = *px++;
 435:./Libraries/CMSIS/DSP/Source/FilteringFunctions/arm_correlate_q7.c **** 
 436:./Libraries/CMSIS/DSP/Source/FilteringFunctions/arm_correlate_q7.c ****         /* Perform the multiply-accumulates */
ARM GAS  /tmp/ccNzgOB0.s 			page 13


 437:./Libraries/CMSIS/DSP/Source/FilteringFunctions/arm_correlate_q7.c ****         /* acc0 +=  x[4] * y[4] */
 438:./Libraries/CMSIS/DSP/Source/FilteringFunctions/arm_correlate_q7.c ****         acc0 += ((q15_t) x0 * c0);
 439:./Libraries/CMSIS/DSP/Source/FilteringFunctions/arm_correlate_q7.c ****         /* acc1 +=  x[5] * y[4] */
 440:./Libraries/CMSIS/DSP/Source/FilteringFunctions/arm_correlate_q7.c ****         acc1 += ((q15_t) x1 * c0);
 441:./Libraries/CMSIS/DSP/Source/FilteringFunctions/arm_correlate_q7.c ****         /* acc2 +=  x[6] * y[4] */
 442:./Libraries/CMSIS/DSP/Source/FilteringFunctions/arm_correlate_q7.c ****         acc2 += ((q15_t) x2 * c0);
 443:./Libraries/CMSIS/DSP/Source/FilteringFunctions/arm_correlate_q7.c ****         /* acc3 +=  x[7] * y[4] */
 444:./Libraries/CMSIS/DSP/Source/FilteringFunctions/arm_correlate_q7.c ****         acc3 += ((q15_t) x3 * c0);
 445:./Libraries/CMSIS/DSP/Source/FilteringFunctions/arm_correlate_q7.c **** 
 446:./Libraries/CMSIS/DSP/Source/FilteringFunctions/arm_correlate_q7.c ****         /* Reuse the present samples for the next MAC */
 447:./Libraries/CMSIS/DSP/Source/FilteringFunctions/arm_correlate_q7.c ****         x0 = x1;
 448:./Libraries/CMSIS/DSP/Source/FilteringFunctions/arm_correlate_q7.c ****         x1 = x2;
 449:./Libraries/CMSIS/DSP/Source/FilteringFunctions/arm_correlate_q7.c ****         x2 = x3;
 450:./Libraries/CMSIS/DSP/Source/FilteringFunctions/arm_correlate_q7.c **** 
 451:./Libraries/CMSIS/DSP/Source/FilteringFunctions/arm_correlate_q7.c ****         /* Decrement loop counter */
 452:./Libraries/CMSIS/DSP/Source/FilteringFunctions/arm_correlate_q7.c ****         k--;
 453:./Libraries/CMSIS/DSP/Source/FilteringFunctions/arm_correlate_q7.c ****       }
 454:./Libraries/CMSIS/DSP/Source/FilteringFunctions/arm_correlate_q7.c **** 
 455:./Libraries/CMSIS/DSP/Source/FilteringFunctions/arm_correlate_q7.c ****       /* Store the result in the accumulator in the destination buffer. */
 456:./Libraries/CMSIS/DSP/Source/FilteringFunctions/arm_correlate_q7.c ****       *pOut = (q7_t) (__SSAT(acc0 >> 7, 8));
 457:./Libraries/CMSIS/DSP/Source/FilteringFunctions/arm_correlate_q7.c ****       /* Destination pointer is updated according to the address modifier, inc */
 458:./Libraries/CMSIS/DSP/Source/FilteringFunctions/arm_correlate_q7.c ****       pOut += inc;
 459:./Libraries/CMSIS/DSP/Source/FilteringFunctions/arm_correlate_q7.c **** 
 460:./Libraries/CMSIS/DSP/Source/FilteringFunctions/arm_correlate_q7.c ****       *pOut = (q7_t) (__SSAT(acc1 >> 7, 8));
 461:./Libraries/CMSIS/DSP/Source/FilteringFunctions/arm_correlate_q7.c ****       pOut += inc;
 462:./Libraries/CMSIS/DSP/Source/FilteringFunctions/arm_correlate_q7.c **** 
 463:./Libraries/CMSIS/DSP/Source/FilteringFunctions/arm_correlate_q7.c ****       *pOut = (q7_t) (__SSAT(acc2 >> 7, 8));
 464:./Libraries/CMSIS/DSP/Source/FilteringFunctions/arm_correlate_q7.c ****       pOut += inc;
 465:./Libraries/CMSIS/DSP/Source/FilteringFunctions/arm_correlate_q7.c **** 
 466:./Libraries/CMSIS/DSP/Source/FilteringFunctions/arm_correlate_q7.c ****       *pOut = (q7_t) (__SSAT(acc3 >> 7, 8));
 467:./Libraries/CMSIS/DSP/Source/FilteringFunctions/arm_correlate_q7.c ****       pOut += inc;
 468:./Libraries/CMSIS/DSP/Source/FilteringFunctions/arm_correlate_q7.c **** 
 469:./Libraries/CMSIS/DSP/Source/FilteringFunctions/arm_correlate_q7.c **** 	  count += 4U;
 470:./Libraries/CMSIS/DSP/Source/FilteringFunctions/arm_correlate_q7.c ****       /* Update the inputA and inputB pointers for next MAC calculation */
 471:./Libraries/CMSIS/DSP/Source/FilteringFunctions/arm_correlate_q7.c ****       px = pIn1 + count;
 472:./Libraries/CMSIS/DSP/Source/FilteringFunctions/arm_correlate_q7.c ****       py = pIn2;
 473:./Libraries/CMSIS/DSP/Source/FilteringFunctions/arm_correlate_q7.c **** 
 474:./Libraries/CMSIS/DSP/Source/FilteringFunctions/arm_correlate_q7.c ****       /* Decrement loop counter */
 475:./Libraries/CMSIS/DSP/Source/FilteringFunctions/arm_correlate_q7.c ****       blkCnt--;
 476:./Libraries/CMSIS/DSP/Source/FilteringFunctions/arm_correlate_q7.c ****     }
 477:./Libraries/CMSIS/DSP/Source/FilteringFunctions/arm_correlate_q7.c **** 
 478:./Libraries/CMSIS/DSP/Source/FilteringFunctions/arm_correlate_q7.c ****     /* Loop unrolling: Compute remaining outputs */
 479:./Libraries/CMSIS/DSP/Source/FilteringFunctions/arm_correlate_q7.c ****     blkCnt = blockSize2 % 0x4U;
 480:./Libraries/CMSIS/DSP/Source/FilteringFunctions/arm_correlate_q7.c **** 
 481:./Libraries/CMSIS/DSP/Source/FilteringFunctions/arm_correlate_q7.c **** #else
 482:./Libraries/CMSIS/DSP/Source/FilteringFunctions/arm_correlate_q7.c **** 
 483:./Libraries/CMSIS/DSP/Source/FilteringFunctions/arm_correlate_q7.c ****     /* Initialize blkCnt with number of samples */
 484:./Libraries/CMSIS/DSP/Source/FilteringFunctions/arm_correlate_q7.c ****     blkCnt = blockSize2;
 248              		.loc 1 484 12
 249 0120 3B6B     		ldr	r3, [r7, #48]
 250 0122 3B64     		str	r3, [r7, #64]
 485:./Libraries/CMSIS/DSP/Source/FilteringFunctions/arm_correlate_q7.c **** 
 486:./Libraries/CMSIS/DSP/Source/FilteringFunctions/arm_correlate_q7.c **** #endif /* #if defined (ARM_MATH_LOOPUNROLL) */
 487:./Libraries/CMSIS/DSP/Source/FilteringFunctions/arm_correlate_q7.c **** 
 488:./Libraries/CMSIS/DSP/Source/FilteringFunctions/arm_correlate_q7.c ****     while (blkCnt > 0U)
 251              		.loc 1 488 11
 252 0124 35E0     		b	.L9
ARM GAS  /tmp/ccNzgOB0.s 			page 14


 253              	.L12:
 489:./Libraries/CMSIS/DSP/Source/FilteringFunctions/arm_correlate_q7.c ****     {
 490:./Libraries/CMSIS/DSP/Source/FilteringFunctions/arm_correlate_q7.c ****       /* Accumulator is made zero for every iteration */
 491:./Libraries/CMSIS/DSP/Source/FilteringFunctions/arm_correlate_q7.c ****       sum = 0;
 254              		.loc 1 491 11
 255 0126 0023     		movs	r3, #0
 256 0128 7B65     		str	r3, [r7, #84]
 492:./Libraries/CMSIS/DSP/Source/FilteringFunctions/arm_correlate_q7.c **** 
 493:./Libraries/CMSIS/DSP/Source/FilteringFunctions/arm_correlate_q7.c **** #if defined (ARM_MATH_LOOPUNROLL)
 494:./Libraries/CMSIS/DSP/Source/FilteringFunctions/arm_correlate_q7.c **** 
 495:./Libraries/CMSIS/DSP/Source/FilteringFunctions/arm_correlate_q7.c ****     /* Loop unrolling: Compute 4 outputs at a time */
 496:./Libraries/CMSIS/DSP/Source/FilteringFunctions/arm_correlate_q7.c ****       k = srcBLen >> 2U;
 497:./Libraries/CMSIS/DSP/Source/FilteringFunctions/arm_correlate_q7.c **** 
 498:./Libraries/CMSIS/DSP/Source/FilteringFunctions/arm_correlate_q7.c ****       while (k > 0U)
 499:./Libraries/CMSIS/DSP/Source/FilteringFunctions/arm_correlate_q7.c ****       {
 500:./Libraries/CMSIS/DSP/Source/FilteringFunctions/arm_correlate_q7.c **** 
 501:./Libraries/CMSIS/DSP/Source/FilteringFunctions/arm_correlate_q7.c ****         /* Reading two inputs of SrcA buffer and packing */
 502:./Libraries/CMSIS/DSP/Source/FilteringFunctions/arm_correlate_q7.c ****         in1 = (q15_t) *px++;
 503:./Libraries/CMSIS/DSP/Source/FilteringFunctions/arm_correlate_q7.c ****         in2 = (q15_t) *px++;
 504:./Libraries/CMSIS/DSP/Source/FilteringFunctions/arm_correlate_q7.c ****         input1 = ((q31_t) in1 & 0x0000FFFF) | ((q31_t) in2 << 16U);
 505:./Libraries/CMSIS/DSP/Source/FilteringFunctions/arm_correlate_q7.c **** 
 506:./Libraries/CMSIS/DSP/Source/FilteringFunctions/arm_correlate_q7.c ****         /* Reading two inputs of SrcB buffer and packing */
 507:./Libraries/CMSIS/DSP/Source/FilteringFunctions/arm_correlate_q7.c ****         in1 = (q15_t) *py++;
 508:./Libraries/CMSIS/DSP/Source/FilteringFunctions/arm_correlate_q7.c ****         in2 = (q15_t) *py++;
 509:./Libraries/CMSIS/DSP/Source/FilteringFunctions/arm_correlate_q7.c ****         input2 = ((q31_t) in1 & 0x0000FFFF) | ((q31_t) in2 << 16U);
 510:./Libraries/CMSIS/DSP/Source/FilteringFunctions/arm_correlate_q7.c **** 
 511:./Libraries/CMSIS/DSP/Source/FilteringFunctions/arm_correlate_q7.c ****         /* Perform the multiply-accumulate */
 512:./Libraries/CMSIS/DSP/Source/FilteringFunctions/arm_correlate_q7.c ****         sum = __SMLAD(input1, input2, sum);
 513:./Libraries/CMSIS/DSP/Source/FilteringFunctions/arm_correlate_q7.c **** 
 514:./Libraries/CMSIS/DSP/Source/FilteringFunctions/arm_correlate_q7.c ****         /* Reading two inputs of SrcA buffer and packing */
 515:./Libraries/CMSIS/DSP/Source/FilteringFunctions/arm_correlate_q7.c ****         in1 = (q15_t) *px++;
 516:./Libraries/CMSIS/DSP/Source/FilteringFunctions/arm_correlate_q7.c ****         in2 = (q15_t) *px++;
 517:./Libraries/CMSIS/DSP/Source/FilteringFunctions/arm_correlate_q7.c ****         input1 = ((q31_t) in1 & 0x0000FFFF) | ((q31_t) in2 << 16U);
 518:./Libraries/CMSIS/DSP/Source/FilteringFunctions/arm_correlate_q7.c **** 
 519:./Libraries/CMSIS/DSP/Source/FilteringFunctions/arm_correlate_q7.c ****         /* Reading two inputs of SrcB buffer and packing */
 520:./Libraries/CMSIS/DSP/Source/FilteringFunctions/arm_correlate_q7.c ****         in1 = (q15_t) *py++;
 521:./Libraries/CMSIS/DSP/Source/FilteringFunctions/arm_correlate_q7.c ****         in2 = (q15_t) *py++;
 522:./Libraries/CMSIS/DSP/Source/FilteringFunctions/arm_correlate_q7.c ****         input2 = ((q31_t) in1 & 0x0000FFFF) | ((q31_t) in2 << 16U);
 523:./Libraries/CMSIS/DSP/Source/FilteringFunctions/arm_correlate_q7.c **** 
 524:./Libraries/CMSIS/DSP/Source/FilteringFunctions/arm_correlate_q7.c ****         /* Perform the multiply-accumulate */
 525:./Libraries/CMSIS/DSP/Source/FilteringFunctions/arm_correlate_q7.c ****         sum = __SMLAD(input1, input2, sum);
 526:./Libraries/CMSIS/DSP/Source/FilteringFunctions/arm_correlate_q7.c **** 
 527:./Libraries/CMSIS/DSP/Source/FilteringFunctions/arm_correlate_q7.c ****         /* Decrement loop counter */
 528:./Libraries/CMSIS/DSP/Source/FilteringFunctions/arm_correlate_q7.c ****         k--;
 529:./Libraries/CMSIS/DSP/Source/FilteringFunctions/arm_correlate_q7.c ****       }
 530:./Libraries/CMSIS/DSP/Source/FilteringFunctions/arm_correlate_q7.c **** 
 531:./Libraries/CMSIS/DSP/Source/FilteringFunctions/arm_correlate_q7.c ****       /* Loop unrolling: Compute remaining outputs */
 532:./Libraries/CMSIS/DSP/Source/FilteringFunctions/arm_correlate_q7.c ****       k = srcBLen % 0x4U;
 533:./Libraries/CMSIS/DSP/Source/FilteringFunctions/arm_correlate_q7.c **** 
 534:./Libraries/CMSIS/DSP/Source/FilteringFunctions/arm_correlate_q7.c **** #else
 535:./Libraries/CMSIS/DSP/Source/FilteringFunctions/arm_correlate_q7.c **** 
 536:./Libraries/CMSIS/DSP/Source/FilteringFunctions/arm_correlate_q7.c ****       /* Initialize blkCnt with number of samples */
 537:./Libraries/CMSIS/DSP/Source/FilteringFunctions/arm_correlate_q7.c ****       k = srcBLen;
 257              		.loc 1 537 9
 258 012a 3B68     		ldr	r3, [r7]
 259 012c BB64     		str	r3, [r7, #72]
 538:./Libraries/CMSIS/DSP/Source/FilteringFunctions/arm_correlate_q7.c **** 
ARM GAS  /tmp/ccNzgOB0.s 			page 15


 539:./Libraries/CMSIS/DSP/Source/FilteringFunctions/arm_correlate_q7.c **** #endif /* #if defined (ARM_MATH_LOOPUNROLL) */
 540:./Libraries/CMSIS/DSP/Source/FilteringFunctions/arm_correlate_q7.c **** 
 541:./Libraries/CMSIS/DSP/Source/FilteringFunctions/arm_correlate_q7.c ****       while (k > 0U)
 260              		.loc 1 541 13
 261 012e 12E0     		b	.L10
 262              	.L11:
 542:./Libraries/CMSIS/DSP/Source/FilteringFunctions/arm_correlate_q7.c ****       {
 543:./Libraries/CMSIS/DSP/Source/FilteringFunctions/arm_correlate_q7.c ****         /* Perform the multiply-accumulate */
 544:./Libraries/CMSIS/DSP/Source/FilteringFunctions/arm_correlate_q7.c ****         sum += ((q15_t) *px++ * *py++);
 263              		.loc 1 544 28
 264 0130 3B6E     		ldr	r3, [r7, #96]
 265 0132 5A1C     		adds	r2, r3, #1
 266 0134 3A66     		str	r2, [r7, #96]
 267              		.loc 1 544 25
 268 0136 93F90030 		ldrsb	r3, [r3]
 269              		.loc 1 544 17
 270 013a 1946     		mov	r1, r3
 271              		.loc 1 544 36
 272 013c FB6D     		ldr	r3, [r7, #92]
 273 013e 5A1C     		adds	r2, r3, #1
 274 0140 FA65     		str	r2, [r7, #92]
 275              		.loc 1 544 33
 276 0142 93F90030 		ldrsb	r3, [r3]
 277              		.loc 1 544 31
 278 0146 03FB01F3 		mul	r3, r3, r1
 279              		.loc 1 544 13
 280 014a 7A6D     		ldr	r2, [r7, #84]
 281 014c 1344     		add	r3, r3, r2
 282 014e 7B65     		str	r3, [r7, #84]
 545:./Libraries/CMSIS/DSP/Source/FilteringFunctions/arm_correlate_q7.c **** 
 546:./Libraries/CMSIS/DSP/Source/FilteringFunctions/arm_correlate_q7.c ****         /* Decrement the loop counter */
 547:./Libraries/CMSIS/DSP/Source/FilteringFunctions/arm_correlate_q7.c ****         k--;
 283              		.loc 1 547 10
 284 0150 BB6C     		ldr	r3, [r7, #72]
 285 0152 013B     		subs	r3, r3, #1
 286 0154 BB64     		str	r3, [r7, #72]
 287              	.L10:
 541:./Libraries/CMSIS/DSP/Source/FilteringFunctions/arm_correlate_q7.c ****       {
 288              		.loc 1 541 13
 289 0156 BB6C     		ldr	r3, [r7, #72]
 290 0158 002B     		cmp	r3, #0
 291 015a E9D1     		bne	.L11
 292              	.LBB3:
 548:./Libraries/CMSIS/DSP/Source/FilteringFunctions/arm_correlate_q7.c ****       }
 549:./Libraries/CMSIS/DSP/Source/FilteringFunctions/arm_correlate_q7.c **** 
 550:./Libraries/CMSIS/DSP/Source/FilteringFunctions/arm_correlate_q7.c ****       /* Store the result in the accumulator in the destination buffer. */
 551:./Libraries/CMSIS/DSP/Source/FilteringFunctions/arm_correlate_q7.c ****       *pOut = (q7_t) (__SSAT(sum >> 7U, 8));
 293              		.loc 1 551 23
 294 015c 7B6D     		ldr	r3, [r7, #84]
 295 015e DB11     		asrs	r3, r3, #7
 296 0160 7B62     		str	r3, [r7, #36]
 297 0162 7B6A     		ldr	r3, [r7, #36]
 298              		.syntax unified
 299              	@ 551 "./Libraries/CMSIS/DSP/Source/FilteringFunctions/arm_correlate_q7.c" 1
 300 0164 03F30703 		ssat r3, #8, r3
 301              	@ 0 "" 2
 302              		.thumb
ARM GAS  /tmp/ccNzgOB0.s 			page 16


 303              		.syntax unified
 304 0168 3B62     		str	r3, [r7, #32]
 305 016a 3B6A     		ldr	r3, [r7, #32]
 306              	.LBE3:
 307              		.loc 1 551 15
 308 016c 5AB2     		sxtb	r2, r3
 309              		.loc 1 551 13
 310 016e 7B6E     		ldr	r3, [r7, #100]
 311 0170 1A70     		strb	r2, [r3]
 552:./Libraries/CMSIS/DSP/Source/FilteringFunctions/arm_correlate_q7.c ****       /* Destination pointer is updated according to the address modifier, inc */
 553:./Libraries/CMSIS/DSP/Source/FilteringFunctions/arm_correlate_q7.c ****       pOut += inc;
 312              		.loc 1 553 12
 313 0172 FB6B     		ldr	r3, [r7, #60]
 314 0174 7A6E     		ldr	r2, [r7, #100]
 315 0176 1344     		add	r3, r3, r2
 316 0178 7B66     		str	r3, [r7, #100]
 554:./Libraries/CMSIS/DSP/Source/FilteringFunctions/arm_correlate_q7.c **** 
 555:./Libraries/CMSIS/DSP/Source/FilteringFunctions/arm_correlate_q7.c ****       /* Increment the pointer pIn1 index, count by 1 */
 556:./Libraries/CMSIS/DSP/Source/FilteringFunctions/arm_correlate_q7.c ****       count++;
 317              		.loc 1 556 12
 318 017a 7B6C     		ldr	r3, [r7, #68]
 319 017c 0133     		adds	r3, r3, #1
 320 017e 7B64     		str	r3, [r7, #68]
 557:./Libraries/CMSIS/DSP/Source/FilteringFunctions/arm_correlate_q7.c **** 
 558:./Libraries/CMSIS/DSP/Source/FilteringFunctions/arm_correlate_q7.c ****       /* Update the inputA and inputB pointers for next MAC calculation */
 559:./Libraries/CMSIS/DSP/Source/FilteringFunctions/arm_correlate_q7.c ****       px = pIn1 + count;
 321              		.loc 1 559 10
 322 0180 FA6E     		ldr	r2, [r7, #108]
 323 0182 7B6C     		ldr	r3, [r7, #68]
 324 0184 1344     		add	r3, r3, r2
 325 0186 3B66     		str	r3, [r7, #96]
 560:./Libraries/CMSIS/DSP/Source/FilteringFunctions/arm_correlate_q7.c ****       py = pIn2;
 326              		.loc 1 560 10
 327 0188 BB6E     		ldr	r3, [r7, #104]
 328 018a FB65     		str	r3, [r7, #92]
 561:./Libraries/CMSIS/DSP/Source/FilteringFunctions/arm_correlate_q7.c **** 
 562:./Libraries/CMSIS/DSP/Source/FilteringFunctions/arm_correlate_q7.c ****       /* Decrement the loop counter */
 563:./Libraries/CMSIS/DSP/Source/FilteringFunctions/arm_correlate_q7.c ****       blkCnt--;
 329              		.loc 1 563 13
 330 018c 3B6C     		ldr	r3, [r7, #64]
 331 018e 013B     		subs	r3, r3, #1
 332 0190 3B64     		str	r3, [r7, #64]
 333              	.L9:
 488:./Libraries/CMSIS/DSP/Source/FilteringFunctions/arm_correlate_q7.c ****     {
 334              		.loc 1 488 11
 335 0192 3B6C     		ldr	r3, [r7, #64]
 336 0194 002B     		cmp	r3, #0
 337 0196 C6D1     		bne	.L12
 338 0198 3BE0     		b	.L13
 339              	.L8:
 564:./Libraries/CMSIS/DSP/Source/FilteringFunctions/arm_correlate_q7.c ****     }
 565:./Libraries/CMSIS/DSP/Source/FilteringFunctions/arm_correlate_q7.c ****   }
 566:./Libraries/CMSIS/DSP/Source/FilteringFunctions/arm_correlate_q7.c ****   else
 567:./Libraries/CMSIS/DSP/Source/FilteringFunctions/arm_correlate_q7.c ****   {
 568:./Libraries/CMSIS/DSP/Source/FilteringFunctions/arm_correlate_q7.c ****     /* If the srcBLen is not a multiple of 4,
 569:./Libraries/CMSIS/DSP/Source/FilteringFunctions/arm_correlate_q7.c ****      * the blockSize2 loop cannot be unrolled by 4 */
 570:./Libraries/CMSIS/DSP/Source/FilteringFunctions/arm_correlate_q7.c ****     blkCnt = blockSize2;
ARM GAS  /tmp/ccNzgOB0.s 			page 17


 340              		.loc 1 570 12
 341 019a 3B6B     		ldr	r3, [r7, #48]
 342 019c 3B64     		str	r3, [r7, #64]
 571:./Libraries/CMSIS/DSP/Source/FilteringFunctions/arm_correlate_q7.c **** 
 572:./Libraries/CMSIS/DSP/Source/FilteringFunctions/arm_correlate_q7.c ****     while (blkCnt > 0U)
 343              		.loc 1 572 11
 344 019e 35E0     		b	.L14
 345              	.L17:
 573:./Libraries/CMSIS/DSP/Source/FilteringFunctions/arm_correlate_q7.c ****     {
 574:./Libraries/CMSIS/DSP/Source/FilteringFunctions/arm_correlate_q7.c ****       /* Accumulator is made zero for every iteration */
 575:./Libraries/CMSIS/DSP/Source/FilteringFunctions/arm_correlate_q7.c ****       sum = 0;
 346              		.loc 1 575 11
 347 01a0 0023     		movs	r3, #0
 348 01a2 7B65     		str	r3, [r7, #84]
 576:./Libraries/CMSIS/DSP/Source/FilteringFunctions/arm_correlate_q7.c **** 
 577:./Libraries/CMSIS/DSP/Source/FilteringFunctions/arm_correlate_q7.c ****       /* srcBLen number of MACS should be performed */
 578:./Libraries/CMSIS/DSP/Source/FilteringFunctions/arm_correlate_q7.c ****       k = srcBLen;
 349              		.loc 1 578 9
 350 01a4 3B68     		ldr	r3, [r7]
 351 01a6 BB64     		str	r3, [r7, #72]
 579:./Libraries/CMSIS/DSP/Source/FilteringFunctions/arm_correlate_q7.c **** 
 580:./Libraries/CMSIS/DSP/Source/FilteringFunctions/arm_correlate_q7.c ****       while (k > 0U)
 352              		.loc 1 580 13
 353 01a8 12E0     		b	.L15
 354              	.L16:
 581:./Libraries/CMSIS/DSP/Source/FilteringFunctions/arm_correlate_q7.c ****       {
 582:./Libraries/CMSIS/DSP/Source/FilteringFunctions/arm_correlate_q7.c ****         /* Perform the multiply-accumulate */
 583:./Libraries/CMSIS/DSP/Source/FilteringFunctions/arm_correlate_q7.c ****         sum += ((q15_t) *px++ * *py++);
 355              		.loc 1 583 28
 356 01aa 3B6E     		ldr	r3, [r7, #96]
 357 01ac 5A1C     		adds	r2, r3, #1
 358 01ae 3A66     		str	r2, [r7, #96]
 359              		.loc 1 583 25
 360 01b0 93F90030 		ldrsb	r3, [r3]
 361              		.loc 1 583 17
 362 01b4 1946     		mov	r1, r3
 363              		.loc 1 583 36
 364 01b6 FB6D     		ldr	r3, [r7, #92]
 365 01b8 5A1C     		adds	r2, r3, #1
 366 01ba FA65     		str	r2, [r7, #92]
 367              		.loc 1 583 33
 368 01bc 93F90030 		ldrsb	r3, [r3]
 369              		.loc 1 583 31
 370 01c0 03FB01F3 		mul	r3, r3, r1
 371              		.loc 1 583 13
 372 01c4 7A6D     		ldr	r2, [r7, #84]
 373 01c6 1344     		add	r3, r3, r2
 374 01c8 7B65     		str	r3, [r7, #84]
 584:./Libraries/CMSIS/DSP/Source/FilteringFunctions/arm_correlate_q7.c **** 
 585:./Libraries/CMSIS/DSP/Source/FilteringFunctions/arm_correlate_q7.c ****         /* Decrement the loop counter */
 586:./Libraries/CMSIS/DSP/Source/FilteringFunctions/arm_correlate_q7.c ****         k--;
 375              		.loc 1 586 10
 376 01ca BB6C     		ldr	r3, [r7, #72]
 377 01cc 013B     		subs	r3, r3, #1
 378 01ce BB64     		str	r3, [r7, #72]
 379              	.L15:
 580:./Libraries/CMSIS/DSP/Source/FilteringFunctions/arm_correlate_q7.c ****       {
ARM GAS  /tmp/ccNzgOB0.s 			page 18


 380              		.loc 1 580 13
 381 01d0 BB6C     		ldr	r3, [r7, #72]
 382 01d2 002B     		cmp	r3, #0
 383 01d4 E9D1     		bne	.L16
 384              	.LBB4:
 587:./Libraries/CMSIS/DSP/Source/FilteringFunctions/arm_correlate_q7.c ****       }
 588:./Libraries/CMSIS/DSP/Source/FilteringFunctions/arm_correlate_q7.c **** 
 589:./Libraries/CMSIS/DSP/Source/FilteringFunctions/arm_correlate_q7.c ****       /* Store the result in the accumulator in the destination buffer. */
 590:./Libraries/CMSIS/DSP/Source/FilteringFunctions/arm_correlate_q7.c ****       *pOut = (q7_t) (__SSAT(sum >> 7U, 8));
 385              		.loc 1 590 23
 386 01d6 7B6D     		ldr	r3, [r7, #84]
 387 01d8 DB11     		asrs	r3, r3, #7
 388 01da FB62     		str	r3, [r7, #44]
 389 01dc FB6A     		ldr	r3, [r7, #44]
 390              		.syntax unified
 391              	@ 590 "./Libraries/CMSIS/DSP/Source/FilteringFunctions/arm_correlate_q7.c" 1
 392 01de 03F30703 		ssat r3, #8, r3
 393              	@ 0 "" 2
 394              		.thumb
 395              		.syntax unified
 396 01e2 BB62     		str	r3, [r7, #40]
 397 01e4 BB6A     		ldr	r3, [r7, #40]
 398              	.LBE4:
 399              		.loc 1 590 15
 400 01e6 5AB2     		sxtb	r2, r3
 401              		.loc 1 590 13
 402 01e8 7B6E     		ldr	r3, [r7, #100]
 403 01ea 1A70     		strb	r2, [r3]
 591:./Libraries/CMSIS/DSP/Source/FilteringFunctions/arm_correlate_q7.c ****       /* Destination pointer is updated according to the address modifier, inc */
 592:./Libraries/CMSIS/DSP/Source/FilteringFunctions/arm_correlate_q7.c ****       pOut += inc;
 404              		.loc 1 592 12
 405 01ec FB6B     		ldr	r3, [r7, #60]
 406 01ee 7A6E     		ldr	r2, [r7, #100]
 407 01f0 1344     		add	r3, r3, r2
 408 01f2 7B66     		str	r3, [r7, #100]
 593:./Libraries/CMSIS/DSP/Source/FilteringFunctions/arm_correlate_q7.c **** 
 594:./Libraries/CMSIS/DSP/Source/FilteringFunctions/arm_correlate_q7.c ****       /* Increment the MAC count */
 595:./Libraries/CMSIS/DSP/Source/FilteringFunctions/arm_correlate_q7.c ****       count++;
 409              		.loc 1 595 12
 410 01f4 7B6C     		ldr	r3, [r7, #68]
 411 01f6 0133     		adds	r3, r3, #1
 412 01f8 7B64     		str	r3, [r7, #68]
 596:./Libraries/CMSIS/DSP/Source/FilteringFunctions/arm_correlate_q7.c **** 
 597:./Libraries/CMSIS/DSP/Source/FilteringFunctions/arm_correlate_q7.c ****       /* Update the inputA and inputB pointers for next MAC calculation */
 598:./Libraries/CMSIS/DSP/Source/FilteringFunctions/arm_correlate_q7.c ****       px = pIn1 + count;
 413              		.loc 1 598 10
 414 01fa FA6E     		ldr	r2, [r7, #108]
 415 01fc 7B6C     		ldr	r3, [r7, #68]
 416 01fe 1344     		add	r3, r3, r2
 417 0200 3B66     		str	r3, [r7, #96]
 599:./Libraries/CMSIS/DSP/Source/FilteringFunctions/arm_correlate_q7.c ****       py = pIn2;
 418              		.loc 1 599 10
 419 0202 BB6E     		ldr	r3, [r7, #104]
 420 0204 FB65     		str	r3, [r7, #92]
 600:./Libraries/CMSIS/DSP/Source/FilteringFunctions/arm_correlate_q7.c **** 
 601:./Libraries/CMSIS/DSP/Source/FilteringFunctions/arm_correlate_q7.c ****       /* Decrement loop counter */
 602:./Libraries/CMSIS/DSP/Source/FilteringFunctions/arm_correlate_q7.c ****       blkCnt--;
ARM GAS  /tmp/ccNzgOB0.s 			page 19


 421              		.loc 1 602 13
 422 0206 3B6C     		ldr	r3, [r7, #64]
 423 0208 013B     		subs	r3, r3, #1
 424 020a 3B64     		str	r3, [r7, #64]
 425              	.L14:
 572:./Libraries/CMSIS/DSP/Source/FilteringFunctions/arm_correlate_q7.c ****     {
 426              		.loc 1 572 11
 427 020c 3B6C     		ldr	r3, [r7, #64]
 428 020e 002B     		cmp	r3, #0
 429 0210 C6D1     		bne	.L17
 430              	.L13:
 603:./Libraries/CMSIS/DSP/Source/FilteringFunctions/arm_correlate_q7.c ****     }
 604:./Libraries/CMSIS/DSP/Source/FilteringFunctions/arm_correlate_q7.c ****   }
 605:./Libraries/CMSIS/DSP/Source/FilteringFunctions/arm_correlate_q7.c **** 
 606:./Libraries/CMSIS/DSP/Source/FilteringFunctions/arm_correlate_q7.c **** 
 607:./Libraries/CMSIS/DSP/Source/FilteringFunctions/arm_correlate_q7.c ****   /* --------------------------
 608:./Libraries/CMSIS/DSP/Source/FilteringFunctions/arm_correlate_q7.c ****    * Initializations of stage3
 609:./Libraries/CMSIS/DSP/Source/FilteringFunctions/arm_correlate_q7.c ****    * -------------------------*/
 610:./Libraries/CMSIS/DSP/Source/FilteringFunctions/arm_correlate_q7.c **** 
 611:./Libraries/CMSIS/DSP/Source/FilteringFunctions/arm_correlate_q7.c ****   /* sum += x[srcALen-srcBLen+1] * y[0] + x[srcALen-srcBLen+2] * y[1] +...+ x[srcALen-1] * y[srcBLe
 612:./Libraries/CMSIS/DSP/Source/FilteringFunctions/arm_correlate_q7.c ****    * sum += x[srcALen-srcBLen+2] * y[0] + x[srcALen-srcBLen+3] * y[1] +...+ x[srcALen-1] * y[srcBLe
 613:./Libraries/CMSIS/DSP/Source/FilteringFunctions/arm_correlate_q7.c ****    * ....
 614:./Libraries/CMSIS/DSP/Source/FilteringFunctions/arm_correlate_q7.c ****    * sum +=  x[srcALen-2] * y[0] + x[srcALen-1] * y[1]
 615:./Libraries/CMSIS/DSP/Source/FilteringFunctions/arm_correlate_q7.c ****    * sum +=  x[srcALen-1] * y[0]
 616:./Libraries/CMSIS/DSP/Source/FilteringFunctions/arm_correlate_q7.c ****    */
 617:./Libraries/CMSIS/DSP/Source/FilteringFunctions/arm_correlate_q7.c **** 
 618:./Libraries/CMSIS/DSP/Source/FilteringFunctions/arm_correlate_q7.c ****   /* In this stage the MAC operations are decreased by 1 for every iteration.
 619:./Libraries/CMSIS/DSP/Source/FilteringFunctions/arm_correlate_q7.c ****      The count variable holds the number of MAC operations performed */
 620:./Libraries/CMSIS/DSP/Source/FilteringFunctions/arm_correlate_q7.c ****   count = srcBLen - 1U;
 431              		.loc 1 620 9
 432 0212 3B68     		ldr	r3, [r7]
 433 0214 013B     		subs	r3, r3, #1
 434 0216 7B64     		str	r3, [r7, #68]
 621:./Libraries/CMSIS/DSP/Source/FilteringFunctions/arm_correlate_q7.c **** 
 622:./Libraries/CMSIS/DSP/Source/FilteringFunctions/arm_correlate_q7.c ****   /* Working pointer of inputA */
 623:./Libraries/CMSIS/DSP/Source/FilteringFunctions/arm_correlate_q7.c ****   pSrc1 = pIn1 + (srcALen - (srcBLen - 1U));
 435              		.loc 1 623 27
 436 0218 BA68     		ldr	r2, [r7, #8]
 437 021a 3B68     		ldr	r3, [r7]
 438 021c D31A     		subs	r3, r2, r3
 439 021e 0133     		adds	r3, r3, #1
 440              		.loc 1 623 9
 441 0220 FA6E     		ldr	r2, [r7, #108]
 442 0222 1344     		add	r3, r3, r2
 443 0224 BB65     		str	r3, [r7, #88]
 624:./Libraries/CMSIS/DSP/Source/FilteringFunctions/arm_correlate_q7.c ****   px = pSrc1;
 444              		.loc 1 624 6
 445 0226 BB6D     		ldr	r3, [r7, #88]
 446 0228 3B66     		str	r3, [r7, #96]
 625:./Libraries/CMSIS/DSP/Source/FilteringFunctions/arm_correlate_q7.c **** 
 626:./Libraries/CMSIS/DSP/Source/FilteringFunctions/arm_correlate_q7.c ****   /* Working pointer of inputB */
 627:./Libraries/CMSIS/DSP/Source/FilteringFunctions/arm_correlate_q7.c ****   py = pIn2;
 447              		.loc 1 627 6
 448 022a BB6E     		ldr	r3, [r7, #104]
 449 022c FB65     		str	r3, [r7, #92]
 628:./Libraries/CMSIS/DSP/Source/FilteringFunctions/arm_correlate_q7.c **** 
 629:./Libraries/CMSIS/DSP/Source/FilteringFunctions/arm_correlate_q7.c ****   /* -------------------
ARM GAS  /tmp/ccNzgOB0.s 			page 20


 630:./Libraries/CMSIS/DSP/Source/FilteringFunctions/arm_correlate_q7.c ****    * Stage3 process
 631:./Libraries/CMSIS/DSP/Source/FilteringFunctions/arm_correlate_q7.c ****    * ------------------*/
 632:./Libraries/CMSIS/DSP/Source/FilteringFunctions/arm_correlate_q7.c **** 
 633:./Libraries/CMSIS/DSP/Source/FilteringFunctions/arm_correlate_q7.c ****   while (blockSize3 > 0U)
 450              		.loc 1 633 9
 451 022e 36E0     		b	.L18
 452              	.L21:
 634:./Libraries/CMSIS/DSP/Source/FilteringFunctions/arm_correlate_q7.c ****   {
 635:./Libraries/CMSIS/DSP/Source/FilteringFunctions/arm_correlate_q7.c ****     /* Accumulator is made zero for every iteration */
 636:./Libraries/CMSIS/DSP/Source/FilteringFunctions/arm_correlate_q7.c ****     sum = 0;
 453              		.loc 1 636 9
 454 0230 0023     		movs	r3, #0
 455 0232 7B65     		str	r3, [r7, #84]
 637:./Libraries/CMSIS/DSP/Source/FilteringFunctions/arm_correlate_q7.c **** 
 638:./Libraries/CMSIS/DSP/Source/FilteringFunctions/arm_correlate_q7.c **** #if defined (ARM_MATH_LOOPUNROLL)
 639:./Libraries/CMSIS/DSP/Source/FilteringFunctions/arm_correlate_q7.c **** 
 640:./Libraries/CMSIS/DSP/Source/FilteringFunctions/arm_correlate_q7.c ****     /* Loop unrolling: Compute 4 outputs at a time */
 641:./Libraries/CMSIS/DSP/Source/FilteringFunctions/arm_correlate_q7.c ****     k = count >> 2U;
 642:./Libraries/CMSIS/DSP/Source/FilteringFunctions/arm_correlate_q7.c **** 
 643:./Libraries/CMSIS/DSP/Source/FilteringFunctions/arm_correlate_q7.c ****     while (k > 0U)
 644:./Libraries/CMSIS/DSP/Source/FilteringFunctions/arm_correlate_q7.c ****     {
 645:./Libraries/CMSIS/DSP/Source/FilteringFunctions/arm_correlate_q7.c ****       /* x[srcALen - srcBLen + 1] , x[srcALen - srcBLen + 2]  */
 646:./Libraries/CMSIS/DSP/Source/FilteringFunctions/arm_correlate_q7.c ****       in1 = (q15_t) *px++;
 647:./Libraries/CMSIS/DSP/Source/FilteringFunctions/arm_correlate_q7.c ****       in2 = (q15_t) *px++;
 648:./Libraries/CMSIS/DSP/Source/FilteringFunctions/arm_correlate_q7.c ****       input1 = ((q31_t) in1 & 0x0000FFFF) | ((q31_t) in2 << 16U);
 649:./Libraries/CMSIS/DSP/Source/FilteringFunctions/arm_correlate_q7.c **** 
 650:./Libraries/CMSIS/DSP/Source/FilteringFunctions/arm_correlate_q7.c ****       /* y[0] , y[1] */
 651:./Libraries/CMSIS/DSP/Source/FilteringFunctions/arm_correlate_q7.c ****       in1 = (q15_t) *py++;
 652:./Libraries/CMSIS/DSP/Source/FilteringFunctions/arm_correlate_q7.c ****       in2 = (q15_t) *py++;
 653:./Libraries/CMSIS/DSP/Source/FilteringFunctions/arm_correlate_q7.c ****       input2 = ((q31_t) in1 & 0x0000FFFF) | ((q31_t) in2 << 16U);
 654:./Libraries/CMSIS/DSP/Source/FilteringFunctions/arm_correlate_q7.c **** 
 655:./Libraries/CMSIS/DSP/Source/FilteringFunctions/arm_correlate_q7.c ****       /* sum += x[srcALen - srcBLen + 1] * y[0] */
 656:./Libraries/CMSIS/DSP/Source/FilteringFunctions/arm_correlate_q7.c ****       /* sum += x[srcALen - srcBLen + 2] * y[1] */
 657:./Libraries/CMSIS/DSP/Source/FilteringFunctions/arm_correlate_q7.c ****       sum = __SMLAD(input1, input2, sum);
 658:./Libraries/CMSIS/DSP/Source/FilteringFunctions/arm_correlate_q7.c **** 
 659:./Libraries/CMSIS/DSP/Source/FilteringFunctions/arm_correlate_q7.c ****       /* x[srcALen - srcBLen + 3] , x[srcALen - srcBLen + 4] */
 660:./Libraries/CMSIS/DSP/Source/FilteringFunctions/arm_correlate_q7.c ****       in1 = (q15_t) *px++;
 661:./Libraries/CMSIS/DSP/Source/FilteringFunctions/arm_correlate_q7.c ****       in2 = (q15_t) *px++;
 662:./Libraries/CMSIS/DSP/Source/FilteringFunctions/arm_correlate_q7.c ****       input1 = ((q31_t) in1 & 0x0000FFFF) | ((q31_t) in2 << 16U);
 663:./Libraries/CMSIS/DSP/Source/FilteringFunctions/arm_correlate_q7.c **** 
 664:./Libraries/CMSIS/DSP/Source/FilteringFunctions/arm_correlate_q7.c ****       /* y[2] , y[3] */
 665:./Libraries/CMSIS/DSP/Source/FilteringFunctions/arm_correlate_q7.c ****       in1 = (q15_t) *py++;
 666:./Libraries/CMSIS/DSP/Source/FilteringFunctions/arm_correlate_q7.c ****       in2 = (q15_t) *py++;
 667:./Libraries/CMSIS/DSP/Source/FilteringFunctions/arm_correlate_q7.c ****       input2 = ((q31_t) in1 & 0x0000FFFF) | ((q31_t) in2 << 16U);
 668:./Libraries/CMSIS/DSP/Source/FilteringFunctions/arm_correlate_q7.c **** 
 669:./Libraries/CMSIS/DSP/Source/FilteringFunctions/arm_correlate_q7.c ****       /* sum += x[srcALen - srcBLen + 3] * y[2] */
 670:./Libraries/CMSIS/DSP/Source/FilteringFunctions/arm_correlate_q7.c ****       /* sum += x[srcALen - srcBLen + 4] * y[3] */
 671:./Libraries/CMSIS/DSP/Source/FilteringFunctions/arm_correlate_q7.c ****       sum = __SMLAD(input1, input2, sum);
 672:./Libraries/CMSIS/DSP/Source/FilteringFunctions/arm_correlate_q7.c **** 
 673:./Libraries/CMSIS/DSP/Source/FilteringFunctions/arm_correlate_q7.c ****       /* Decrement loop counter */
 674:./Libraries/CMSIS/DSP/Source/FilteringFunctions/arm_correlate_q7.c ****       k--;
 675:./Libraries/CMSIS/DSP/Source/FilteringFunctions/arm_correlate_q7.c ****     }
 676:./Libraries/CMSIS/DSP/Source/FilteringFunctions/arm_correlate_q7.c **** 
 677:./Libraries/CMSIS/DSP/Source/FilteringFunctions/arm_correlate_q7.c ****     /* Loop unrolling: Compute remaining outputs */
 678:./Libraries/CMSIS/DSP/Source/FilteringFunctions/arm_correlate_q7.c ****     k = count % 0x4U;
 679:./Libraries/CMSIS/DSP/Source/FilteringFunctions/arm_correlate_q7.c **** 
 680:./Libraries/CMSIS/DSP/Source/FilteringFunctions/arm_correlate_q7.c **** #else
ARM GAS  /tmp/ccNzgOB0.s 			page 21


 681:./Libraries/CMSIS/DSP/Source/FilteringFunctions/arm_correlate_q7.c **** 
 682:./Libraries/CMSIS/DSP/Source/FilteringFunctions/arm_correlate_q7.c ****     /* Initialize blkCnt with number of samples */
 683:./Libraries/CMSIS/DSP/Source/FilteringFunctions/arm_correlate_q7.c ****     k = count;
 456              		.loc 1 683 7
 457 0234 7B6C     		ldr	r3, [r7, #68]
 458 0236 BB64     		str	r3, [r7, #72]
 684:./Libraries/CMSIS/DSP/Source/FilteringFunctions/arm_correlate_q7.c **** 
 685:./Libraries/CMSIS/DSP/Source/FilteringFunctions/arm_correlate_q7.c **** #endif /* #if defined (ARM_MATH_LOOPUNROLL) */
 686:./Libraries/CMSIS/DSP/Source/FilteringFunctions/arm_correlate_q7.c **** 
 687:./Libraries/CMSIS/DSP/Source/FilteringFunctions/arm_correlate_q7.c ****     while (k > 0U)
 459              		.loc 1 687 11
 460 0238 12E0     		b	.L19
 461              	.L20:
 688:./Libraries/CMSIS/DSP/Source/FilteringFunctions/arm_correlate_q7.c ****     {
 689:./Libraries/CMSIS/DSP/Source/FilteringFunctions/arm_correlate_q7.c ****       /* Perform the multiply-accumulate */
 690:./Libraries/CMSIS/DSP/Source/FilteringFunctions/arm_correlate_q7.c ****       sum += ((q15_t) *px++ * *py++);
 462              		.loc 1 690 26
 463 023a 3B6E     		ldr	r3, [r7, #96]
 464 023c 5A1C     		adds	r2, r3, #1
 465 023e 3A66     		str	r2, [r7, #96]
 466              		.loc 1 690 23
 467 0240 93F90030 		ldrsb	r3, [r3]
 468              		.loc 1 690 15
 469 0244 1946     		mov	r1, r3
 470              		.loc 1 690 34
 471 0246 FB6D     		ldr	r3, [r7, #92]
 472 0248 5A1C     		adds	r2, r3, #1
 473 024a FA65     		str	r2, [r7, #92]
 474              		.loc 1 690 31
 475 024c 93F90030 		ldrsb	r3, [r3]
 476              		.loc 1 690 29
 477 0250 03FB01F3 		mul	r3, r3, r1
 478              		.loc 1 690 11
 479 0254 7A6D     		ldr	r2, [r7, #84]
 480 0256 1344     		add	r3, r3, r2
 481 0258 7B65     		str	r3, [r7, #84]
 691:./Libraries/CMSIS/DSP/Source/FilteringFunctions/arm_correlate_q7.c **** 
 692:./Libraries/CMSIS/DSP/Source/FilteringFunctions/arm_correlate_q7.c ****       /* Decrement loop counter */
 693:./Libraries/CMSIS/DSP/Source/FilteringFunctions/arm_correlate_q7.c ****       k--;
 482              		.loc 1 693 8
 483 025a BB6C     		ldr	r3, [r7, #72]
 484 025c 013B     		subs	r3, r3, #1
 485 025e BB64     		str	r3, [r7, #72]
 486              	.L19:
 687:./Libraries/CMSIS/DSP/Source/FilteringFunctions/arm_correlate_q7.c ****     {
 487              		.loc 1 687 11
 488 0260 BB6C     		ldr	r3, [r7, #72]
 489 0262 002B     		cmp	r3, #0
 490 0264 E9D1     		bne	.L20
 491              	.LBB5:
 694:./Libraries/CMSIS/DSP/Source/FilteringFunctions/arm_correlate_q7.c ****     }
 695:./Libraries/CMSIS/DSP/Source/FilteringFunctions/arm_correlate_q7.c **** 
 696:./Libraries/CMSIS/DSP/Source/FilteringFunctions/arm_correlate_q7.c ****     /* Store the result in the accumulator in the destination buffer. */
 697:./Libraries/CMSIS/DSP/Source/FilteringFunctions/arm_correlate_q7.c ****     *pOut = (q7_t) (__SSAT(sum >> 7U, 8));
 492              		.loc 1 697 21
 493 0266 7B6D     		ldr	r3, [r7, #84]
 494 0268 DB11     		asrs	r3, r3, #7
ARM GAS  /tmp/ccNzgOB0.s 			page 22


 495 026a FB61     		str	r3, [r7, #28]
 496 026c FB69     		ldr	r3, [r7, #28]
 497              		.syntax unified
 498              	@ 697 "./Libraries/CMSIS/DSP/Source/FilteringFunctions/arm_correlate_q7.c" 1
 499 026e 03F30703 		ssat r3, #8, r3
 500              	@ 0 "" 2
 501              		.thumb
 502              		.syntax unified
 503 0272 BB61     		str	r3, [r7, #24]
 504 0274 BB69     		ldr	r3, [r7, #24]
 505              	.LBE5:
 506              		.loc 1 697 13
 507 0276 5AB2     		sxtb	r2, r3
 508              		.loc 1 697 11
 509 0278 7B6E     		ldr	r3, [r7, #100]
 510 027a 1A70     		strb	r2, [r3]
 698:./Libraries/CMSIS/DSP/Source/FilteringFunctions/arm_correlate_q7.c ****     /* Destination pointer is updated according to the address modifier, inc */
 699:./Libraries/CMSIS/DSP/Source/FilteringFunctions/arm_correlate_q7.c ****     pOut += inc;
 511              		.loc 1 699 10
 512 027c FB6B     		ldr	r3, [r7, #60]
 513 027e 7A6E     		ldr	r2, [r7, #100]
 514 0280 1344     		add	r3, r3, r2
 515 0282 7B66     		str	r3, [r7, #100]
 700:./Libraries/CMSIS/DSP/Source/FilteringFunctions/arm_correlate_q7.c **** 
 701:./Libraries/CMSIS/DSP/Source/FilteringFunctions/arm_correlate_q7.c ****     /* Update the inputA and inputB pointers for next MAC calculation */
 702:./Libraries/CMSIS/DSP/Source/FilteringFunctions/arm_correlate_q7.c ****     px = ++pSrc1;
 516              		.loc 1 702 8
 517 0284 BB6D     		ldr	r3, [r7, #88]
 518 0286 0133     		adds	r3, r3, #1
 519 0288 BB65     		str	r3, [r7, #88]
 520 028a BB6D     		ldr	r3, [r7, #88]
 521 028c 3B66     		str	r3, [r7, #96]
 703:./Libraries/CMSIS/DSP/Source/FilteringFunctions/arm_correlate_q7.c ****     py = pIn2;
 522              		.loc 1 703 8
 523 028e BB6E     		ldr	r3, [r7, #104]
 524 0290 FB65     		str	r3, [r7, #92]
 704:./Libraries/CMSIS/DSP/Source/FilteringFunctions/arm_correlate_q7.c **** 
 705:./Libraries/CMSIS/DSP/Source/FilteringFunctions/arm_correlate_q7.c ****     /* Decrement MAC count */
 706:./Libraries/CMSIS/DSP/Source/FilteringFunctions/arm_correlate_q7.c ****     count--;
 525              		.loc 1 706 10
 526 0292 7B6C     		ldr	r3, [r7, #68]
 527 0294 013B     		subs	r3, r3, #1
 528 0296 7B64     		str	r3, [r7, #68]
 707:./Libraries/CMSIS/DSP/Source/FilteringFunctions/arm_correlate_q7.c **** 
 708:./Libraries/CMSIS/DSP/Source/FilteringFunctions/arm_correlate_q7.c ****     /* Decrement loop counter */
 709:./Libraries/CMSIS/DSP/Source/FilteringFunctions/arm_correlate_q7.c ****     blockSize3--;
 529              		.loc 1 709 15
 530 0298 FB6C     		ldr	r3, [r7, #76]
 531 029a 013B     		subs	r3, r3, #1
 532 029c FB64     		str	r3, [r7, #76]
 533              	.L18:
 633:./Libraries/CMSIS/DSP/Source/FilteringFunctions/arm_correlate_q7.c ****   {
 534              		.loc 1 633 9
 535 029e FB6C     		ldr	r3, [r7, #76]
 536 02a0 002B     		cmp	r3, #0
 537 02a2 C5D1     		bne	.L21
 710:./Libraries/CMSIS/DSP/Source/FilteringFunctions/arm_correlate_q7.c ****   }
ARM GAS  /tmp/ccNzgOB0.s 			page 23


 711:./Libraries/CMSIS/DSP/Source/FilteringFunctions/arm_correlate_q7.c **** 
 712:./Libraries/CMSIS/DSP/Source/FilteringFunctions/arm_correlate_q7.c **** #else
 713:./Libraries/CMSIS/DSP/Source/FilteringFunctions/arm_correlate_q7.c **** /* alternate version for CM0_FAMILY */
 714:./Libraries/CMSIS/DSP/Source/FilteringFunctions/arm_correlate_q7.c **** 
 715:./Libraries/CMSIS/DSP/Source/FilteringFunctions/arm_correlate_q7.c ****   const q7_t *pIn1 = pSrcA;                            /* InputA pointer */
 716:./Libraries/CMSIS/DSP/Source/FilteringFunctions/arm_correlate_q7.c ****   const q7_t *pIn2 = pSrcB + (srcBLen - 1U);           /* InputB pointer */
 717:./Libraries/CMSIS/DSP/Source/FilteringFunctions/arm_correlate_q7.c ****         q31_t sum;                                     /* Accumulator */
 718:./Libraries/CMSIS/DSP/Source/FilteringFunctions/arm_correlate_q7.c ****         uint32_t i = 0U, j;                            /* Loop counters */
 719:./Libraries/CMSIS/DSP/Source/FilteringFunctions/arm_correlate_q7.c ****         uint32_t inv = 0U;                             /* Reverse order flag */
 720:./Libraries/CMSIS/DSP/Source/FilteringFunctions/arm_correlate_q7.c ****         uint32_t tot = 0U;                             /* Length */
 721:./Libraries/CMSIS/DSP/Source/FilteringFunctions/arm_correlate_q7.c **** 
 722:./Libraries/CMSIS/DSP/Source/FilteringFunctions/arm_correlate_q7.c ****   /* The algorithm implementation is based on the lengths of the inputs. */
 723:./Libraries/CMSIS/DSP/Source/FilteringFunctions/arm_correlate_q7.c ****   /* srcB is always made to slide across srcA. */
 724:./Libraries/CMSIS/DSP/Source/FilteringFunctions/arm_correlate_q7.c ****   /* So srcBLen is always considered as shorter or equal to srcALen */
 725:./Libraries/CMSIS/DSP/Source/FilteringFunctions/arm_correlate_q7.c ****   /* But CORR(x, y) is reverse of CORR(y, x) */
 726:./Libraries/CMSIS/DSP/Source/FilteringFunctions/arm_correlate_q7.c ****   /* So, when srcBLen > srcALen, output pointer is made to point to the end of the output buffer */
 727:./Libraries/CMSIS/DSP/Source/FilteringFunctions/arm_correlate_q7.c ****   /* and a varaible, inv is set to 1 */
 728:./Libraries/CMSIS/DSP/Source/FilteringFunctions/arm_correlate_q7.c ****   /* If lengths are not equal then zero pad has to be done to  make the two
 729:./Libraries/CMSIS/DSP/Source/FilteringFunctions/arm_correlate_q7.c ****    * inputs of same length. But to improve the performance, we include zeroes
 730:./Libraries/CMSIS/DSP/Source/FilteringFunctions/arm_correlate_q7.c ****    * in the output instead of zero padding either of the the inputs*/
 731:./Libraries/CMSIS/DSP/Source/FilteringFunctions/arm_correlate_q7.c ****   /* If srcALen > srcBLen, (srcALen - srcBLen) zeroes has to included in the
 732:./Libraries/CMSIS/DSP/Source/FilteringFunctions/arm_correlate_q7.c ****    * starting of the output buffer */
 733:./Libraries/CMSIS/DSP/Source/FilteringFunctions/arm_correlate_q7.c ****   /* If srcALen < srcBLen, (srcALen - srcBLen) zeroes has to included in the
 734:./Libraries/CMSIS/DSP/Source/FilteringFunctions/arm_correlate_q7.c ****    * ending of the output buffer */
 735:./Libraries/CMSIS/DSP/Source/FilteringFunctions/arm_correlate_q7.c ****   /* Once the zero padding is done the remaining of the output is calcualted
 736:./Libraries/CMSIS/DSP/Source/FilteringFunctions/arm_correlate_q7.c ****    * using convolution but with the shorter signal time shifted. */
 737:./Libraries/CMSIS/DSP/Source/FilteringFunctions/arm_correlate_q7.c **** 
 738:./Libraries/CMSIS/DSP/Source/FilteringFunctions/arm_correlate_q7.c ****   /* Calculate the length of the remaining sequence */
 739:./Libraries/CMSIS/DSP/Source/FilteringFunctions/arm_correlate_q7.c ****   tot = ((srcALen + srcBLen) - 2U);
 740:./Libraries/CMSIS/DSP/Source/FilteringFunctions/arm_correlate_q7.c **** 
 741:./Libraries/CMSIS/DSP/Source/FilteringFunctions/arm_correlate_q7.c ****   if (srcALen > srcBLen)
 742:./Libraries/CMSIS/DSP/Source/FilteringFunctions/arm_correlate_q7.c ****   {
 743:./Libraries/CMSIS/DSP/Source/FilteringFunctions/arm_correlate_q7.c ****     /* Calculating the number of zeros to be padded to the output */
 744:./Libraries/CMSIS/DSP/Source/FilteringFunctions/arm_correlate_q7.c ****     j = srcALen - srcBLen;
 745:./Libraries/CMSIS/DSP/Source/FilteringFunctions/arm_correlate_q7.c **** 
 746:./Libraries/CMSIS/DSP/Source/FilteringFunctions/arm_correlate_q7.c ****     /* Initialise the pointer after zero padding */
 747:./Libraries/CMSIS/DSP/Source/FilteringFunctions/arm_correlate_q7.c ****     pDst += j;
 748:./Libraries/CMSIS/DSP/Source/FilteringFunctions/arm_correlate_q7.c ****   }
 749:./Libraries/CMSIS/DSP/Source/FilteringFunctions/arm_correlate_q7.c **** 
 750:./Libraries/CMSIS/DSP/Source/FilteringFunctions/arm_correlate_q7.c ****   else if (srcALen < srcBLen)
 751:./Libraries/CMSIS/DSP/Source/FilteringFunctions/arm_correlate_q7.c ****   {
 752:./Libraries/CMSIS/DSP/Source/FilteringFunctions/arm_correlate_q7.c ****     /* Initialization to inputB pointer */
 753:./Libraries/CMSIS/DSP/Source/FilteringFunctions/arm_correlate_q7.c ****     pIn1 = pSrcB;
 754:./Libraries/CMSIS/DSP/Source/FilteringFunctions/arm_correlate_q7.c **** 
 755:./Libraries/CMSIS/DSP/Source/FilteringFunctions/arm_correlate_q7.c ****     /* Initialization to the end of inputA pointer */
 756:./Libraries/CMSIS/DSP/Source/FilteringFunctions/arm_correlate_q7.c ****     pIn2 = pSrcA + (srcALen - 1U);
 757:./Libraries/CMSIS/DSP/Source/FilteringFunctions/arm_correlate_q7.c **** 
 758:./Libraries/CMSIS/DSP/Source/FilteringFunctions/arm_correlate_q7.c ****     /* Initialisation of the pointer after zero padding */
 759:./Libraries/CMSIS/DSP/Source/FilteringFunctions/arm_correlate_q7.c ****     pDst = pDst + tot;
 760:./Libraries/CMSIS/DSP/Source/FilteringFunctions/arm_correlate_q7.c **** 
 761:./Libraries/CMSIS/DSP/Source/FilteringFunctions/arm_correlate_q7.c ****     /* Swapping the lengths */
 762:./Libraries/CMSIS/DSP/Source/FilteringFunctions/arm_correlate_q7.c ****     j = srcALen;
 763:./Libraries/CMSIS/DSP/Source/FilteringFunctions/arm_correlate_q7.c ****     srcALen = srcBLen;
 764:./Libraries/CMSIS/DSP/Source/FilteringFunctions/arm_correlate_q7.c ****     srcBLen = j;
 765:./Libraries/CMSIS/DSP/Source/FilteringFunctions/arm_correlate_q7.c **** 
 766:./Libraries/CMSIS/DSP/Source/FilteringFunctions/arm_correlate_q7.c ****     /* Setting the reverse flag */
 767:./Libraries/CMSIS/DSP/Source/FilteringFunctions/arm_correlate_q7.c ****     inv = 1;
ARM GAS  /tmp/ccNzgOB0.s 			page 24


 768:./Libraries/CMSIS/DSP/Source/FilteringFunctions/arm_correlate_q7.c ****   }
 769:./Libraries/CMSIS/DSP/Source/FilteringFunctions/arm_correlate_q7.c **** 
 770:./Libraries/CMSIS/DSP/Source/FilteringFunctions/arm_correlate_q7.c ****   /* Loop to calculate convolution for output length number of times */
 771:./Libraries/CMSIS/DSP/Source/FilteringFunctions/arm_correlate_q7.c ****   for (i = 0U; i <= tot; i++)
 772:./Libraries/CMSIS/DSP/Source/FilteringFunctions/arm_correlate_q7.c ****   {
 773:./Libraries/CMSIS/DSP/Source/FilteringFunctions/arm_correlate_q7.c ****     /* Initialize sum with zero to carry out MAC operations */
 774:./Libraries/CMSIS/DSP/Source/FilteringFunctions/arm_correlate_q7.c ****     sum = 0;
 775:./Libraries/CMSIS/DSP/Source/FilteringFunctions/arm_correlate_q7.c **** 
 776:./Libraries/CMSIS/DSP/Source/FilteringFunctions/arm_correlate_q7.c ****     /* Loop to perform MAC operations according to convolution equation */
 777:./Libraries/CMSIS/DSP/Source/FilteringFunctions/arm_correlate_q7.c ****     for (j = 0U; j <= i; j++)
 778:./Libraries/CMSIS/DSP/Source/FilteringFunctions/arm_correlate_q7.c ****     {
 779:./Libraries/CMSIS/DSP/Source/FilteringFunctions/arm_correlate_q7.c ****       /* Check the array limitations */
 780:./Libraries/CMSIS/DSP/Source/FilteringFunctions/arm_correlate_q7.c ****       if (((i - j) < srcBLen) && (j < srcALen))
 781:./Libraries/CMSIS/DSP/Source/FilteringFunctions/arm_correlate_q7.c ****       {
 782:./Libraries/CMSIS/DSP/Source/FilteringFunctions/arm_correlate_q7.c ****         /* z[i] += x[i-j] * y[j] */
 783:./Libraries/CMSIS/DSP/Source/FilteringFunctions/arm_correlate_q7.c ****         sum += ((q15_t) pIn1[j] * pIn2[-((int32_t) i - j)]);
 784:./Libraries/CMSIS/DSP/Source/FilteringFunctions/arm_correlate_q7.c ****       }
 785:./Libraries/CMSIS/DSP/Source/FilteringFunctions/arm_correlate_q7.c ****     }
 786:./Libraries/CMSIS/DSP/Source/FilteringFunctions/arm_correlate_q7.c **** 
 787:./Libraries/CMSIS/DSP/Source/FilteringFunctions/arm_correlate_q7.c ****     /* Store the output in the destination buffer */
 788:./Libraries/CMSIS/DSP/Source/FilteringFunctions/arm_correlate_q7.c ****     if (inv == 1)
 789:./Libraries/CMSIS/DSP/Source/FilteringFunctions/arm_correlate_q7.c ****       *pDst-- = (q7_t) __SSAT((sum >> 7U), 8U);
 790:./Libraries/CMSIS/DSP/Source/FilteringFunctions/arm_correlate_q7.c ****     else
 791:./Libraries/CMSIS/DSP/Source/FilteringFunctions/arm_correlate_q7.c ****       *pDst++ = (q7_t) __SSAT((sum >> 7U), 8U);
 792:./Libraries/CMSIS/DSP/Source/FilteringFunctions/arm_correlate_q7.c ****   }
 793:./Libraries/CMSIS/DSP/Source/FilteringFunctions/arm_correlate_q7.c **** 
 794:./Libraries/CMSIS/DSP/Source/FilteringFunctions/arm_correlate_q7.c **** #endif /* #if !defined(ARM_MATH_CM0_FAMILY) */
 795:./Libraries/CMSIS/DSP/Source/FilteringFunctions/arm_correlate_q7.c **** 
 796:./Libraries/CMSIS/DSP/Source/FilteringFunctions/arm_correlate_q7.c **** }
 538              		.loc 1 796 1
 539 02a4 00BF     		nop
 540 02a6 00BF     		nop
 541 02a8 7437     		adds	r7, r7, #116
 542              	.LCFI3:
 543              		.cfi_def_cfa_offset 4
 544 02aa BD46     		mov	sp, r7
 545              	.LCFI4:
 546              		.cfi_def_cfa_register 13
 547              		@ sp needed
 548 02ac 5DF8047B 		ldr	r7, [sp], #4
 549              	.LCFI5:
 550              		.cfi_restore 7
 551              		.cfi_def_cfa_offset 0
 552 02b0 7047     		bx	lr
 553              		.cfi_endproc
 554              	.LFE145:
 556              		.text
 557              	.Letext0:
 558              		.file 2 "/usr/lib/gcc/arm-none-eabi/9.2.1/include/stdint.h"
 559              		.file 3 "/usr/lib/gcc/arm-none-eabi/9.2.1/include/stddef.h"
 560              		.file 4 "/usr/include/newlib/sys/_types.h"
 561              		.file 5 "/usr/include/newlib/sys/reent.h"
 562              		.file 6 "/usr/include/newlib/sys/lock.h"
 563              		.file 7 "/usr/include/newlib/math.h"
 564              		.file 8 "./Libraries/CMSIS/DSP/Include/arm_math.h"
ARM GAS  /tmp/ccNzgOB0.s 			page 25


DEFINED SYMBOLS
                            *ABS*:0000000000000000 arm_correlate_q7.c
     /tmp/ccNzgOB0.s:17     .text.arm_correlate_q7:0000000000000000 $t
     /tmp/ccNzgOB0.s:25     .text.arm_correlate_q7:0000000000000000 arm_correlate_q7

NO UNDEFINED SYMBOLS
