ARM GAS  /tmp/cccDsQ5x.s 			page 1


   1              		.cpu cortex-m7
   2              		.eabi_attribute 28, 1
   3              		.eabi_attribute 20, 1
   4              		.eabi_attribute 21, 1
   5              		.eabi_attribute 23, 3
   6              		.eabi_attribute 24, 1
   7              		.eabi_attribute 25, 1
   8              		.eabi_attribute 26, 1
   9              		.eabi_attribute 30, 6
  10              		.eabi_attribute 34, 1
  11              		.eabi_attribute 18, 4
  12              		.file	"arm_biquad_cascade_df1_f32.c"
  13              		.text
  14              	.Ltext0:
  15              		.cfi_sections	.debug_frame
  16              		.section	.text.arm_biquad_cascade_df1_f32,"ax",%progbits
  17              		.align	1
  18              		.global	arm_biquad_cascade_df1_f32
  19              		.arch armv7e-m
  20              		.syntax unified
  21              		.thumb
  22              		.thumb_func
  23              		.fpu fpv5-d16
  25              	arm_biquad_cascade_df1_f32:
  26              	.LFB145:
  27              		.file 1 "./Libraries/CMSIS/DSP/Source/FilteringFunctions/arm_biquad_cascade_df1_f32.c"
   1:./Libraries/CMSIS/DSP/Source/FilteringFunctions/arm_biquad_cascade_df1_f32.c **** /* ----------------------------------------------------------------------
   2:./Libraries/CMSIS/DSP/Source/FilteringFunctions/arm_biquad_cascade_df1_f32.c ****  * Project:      CMSIS DSP Library
   3:./Libraries/CMSIS/DSP/Source/FilteringFunctions/arm_biquad_cascade_df1_f32.c ****  * Title:        arm_biquad_cascade_df1_f32.c
   4:./Libraries/CMSIS/DSP/Source/FilteringFunctions/arm_biquad_cascade_df1_f32.c ****  * Description:  Processing function for the floating-point Biquad cascade DirectFormI(DF1) filter
   5:./Libraries/CMSIS/DSP/Source/FilteringFunctions/arm_biquad_cascade_df1_f32.c ****  *
   6:./Libraries/CMSIS/DSP/Source/FilteringFunctions/arm_biquad_cascade_df1_f32.c ****  * $Date:        18. March 2019
   7:./Libraries/CMSIS/DSP/Source/FilteringFunctions/arm_biquad_cascade_df1_f32.c ****  * $Revision:    V1.6.0
   8:./Libraries/CMSIS/DSP/Source/FilteringFunctions/arm_biquad_cascade_df1_f32.c ****  *
   9:./Libraries/CMSIS/DSP/Source/FilteringFunctions/arm_biquad_cascade_df1_f32.c ****  * Target Processor: Cortex-M cores
  10:./Libraries/CMSIS/DSP/Source/FilteringFunctions/arm_biquad_cascade_df1_f32.c ****  * -------------------------------------------------------------------- */
  11:./Libraries/CMSIS/DSP/Source/FilteringFunctions/arm_biquad_cascade_df1_f32.c **** /*
  12:./Libraries/CMSIS/DSP/Source/FilteringFunctions/arm_biquad_cascade_df1_f32.c ****  * Copyright (C) 2010-2019 ARM Limited or its affiliates. All rights reserved.
  13:./Libraries/CMSIS/DSP/Source/FilteringFunctions/arm_biquad_cascade_df1_f32.c ****  *
  14:./Libraries/CMSIS/DSP/Source/FilteringFunctions/arm_biquad_cascade_df1_f32.c ****  * SPDX-License-Identifier: Apache-2.0
  15:./Libraries/CMSIS/DSP/Source/FilteringFunctions/arm_biquad_cascade_df1_f32.c ****  *
  16:./Libraries/CMSIS/DSP/Source/FilteringFunctions/arm_biquad_cascade_df1_f32.c ****  * Licensed under the Apache License, Version 2.0 (the License); you may
  17:./Libraries/CMSIS/DSP/Source/FilteringFunctions/arm_biquad_cascade_df1_f32.c ****  * not use this file except in compliance with the License.
  18:./Libraries/CMSIS/DSP/Source/FilteringFunctions/arm_biquad_cascade_df1_f32.c ****  * You may obtain a copy of the License at
  19:./Libraries/CMSIS/DSP/Source/FilteringFunctions/arm_biquad_cascade_df1_f32.c ****  *
  20:./Libraries/CMSIS/DSP/Source/FilteringFunctions/arm_biquad_cascade_df1_f32.c ****  * www.apache.org/licenses/LICENSE-2.0
  21:./Libraries/CMSIS/DSP/Source/FilteringFunctions/arm_biquad_cascade_df1_f32.c ****  *
  22:./Libraries/CMSIS/DSP/Source/FilteringFunctions/arm_biquad_cascade_df1_f32.c ****  * Unless required by applicable law or agreed to in writing, software
  23:./Libraries/CMSIS/DSP/Source/FilteringFunctions/arm_biquad_cascade_df1_f32.c ****  * distributed under the License is distributed on an AS IS BASIS, WITHOUT
  24:./Libraries/CMSIS/DSP/Source/FilteringFunctions/arm_biquad_cascade_df1_f32.c ****  * WARRANTIES OR CONDITIONS OF ANY KIND, either express or implied.
  25:./Libraries/CMSIS/DSP/Source/FilteringFunctions/arm_biquad_cascade_df1_f32.c ****  * See the License for the specific language governing permissions and
  26:./Libraries/CMSIS/DSP/Source/FilteringFunctions/arm_biquad_cascade_df1_f32.c ****  * limitations under the License.
  27:./Libraries/CMSIS/DSP/Source/FilteringFunctions/arm_biquad_cascade_df1_f32.c ****  */
  28:./Libraries/CMSIS/DSP/Source/FilteringFunctions/arm_biquad_cascade_df1_f32.c **** 
  29:./Libraries/CMSIS/DSP/Source/FilteringFunctions/arm_biquad_cascade_df1_f32.c **** #include "arm_math.h"
  30:./Libraries/CMSIS/DSP/Source/FilteringFunctions/arm_biquad_cascade_df1_f32.c **** 
  31:./Libraries/CMSIS/DSP/Source/FilteringFunctions/arm_biquad_cascade_df1_f32.c **** /**
ARM GAS  /tmp/cccDsQ5x.s 			page 2


  32:./Libraries/CMSIS/DSP/Source/FilteringFunctions/arm_biquad_cascade_df1_f32.c ****   @ingroup groupFilters
  33:./Libraries/CMSIS/DSP/Source/FilteringFunctions/arm_biquad_cascade_df1_f32.c ****  */
  34:./Libraries/CMSIS/DSP/Source/FilteringFunctions/arm_biquad_cascade_df1_f32.c **** 
  35:./Libraries/CMSIS/DSP/Source/FilteringFunctions/arm_biquad_cascade_df1_f32.c **** /**
  36:./Libraries/CMSIS/DSP/Source/FilteringFunctions/arm_biquad_cascade_df1_f32.c ****   @defgroup BiquadCascadeDF1 Biquad Cascade IIR Filters Using Direct Form I Structure
  37:./Libraries/CMSIS/DSP/Source/FilteringFunctions/arm_biquad_cascade_df1_f32.c **** 
  38:./Libraries/CMSIS/DSP/Source/FilteringFunctions/arm_biquad_cascade_df1_f32.c ****   This set of functions implements arbitrary order recursive (IIR) filters.
  39:./Libraries/CMSIS/DSP/Source/FilteringFunctions/arm_biquad_cascade_df1_f32.c ****   The filters are implemented as a cascade of second order Biquad sections.
  40:./Libraries/CMSIS/DSP/Source/FilteringFunctions/arm_biquad_cascade_df1_f32.c ****   The functions support Q15, Q31 and floating-point data types.
  41:./Libraries/CMSIS/DSP/Source/FilteringFunctions/arm_biquad_cascade_df1_f32.c ****   Fast version of Q15 and Q31 also available.
  42:./Libraries/CMSIS/DSP/Source/FilteringFunctions/arm_biquad_cascade_df1_f32.c **** 
  43:./Libraries/CMSIS/DSP/Source/FilteringFunctions/arm_biquad_cascade_df1_f32.c ****   The functions operate on blocks of input and output data and each call to the function
  44:./Libraries/CMSIS/DSP/Source/FilteringFunctions/arm_biquad_cascade_df1_f32.c ****   processes <code>blockSize</code> samples through the filter.
  45:./Libraries/CMSIS/DSP/Source/FilteringFunctions/arm_biquad_cascade_df1_f32.c ****   <code>pSrc</code> points to the array of input data and
  46:./Libraries/CMSIS/DSP/Source/FilteringFunctions/arm_biquad_cascade_df1_f32.c ****   <code>pDst</code> points to the array of output data.
  47:./Libraries/CMSIS/DSP/Source/FilteringFunctions/arm_biquad_cascade_df1_f32.c ****   Both arrays contain <code>blockSize</code> values.
  48:./Libraries/CMSIS/DSP/Source/FilteringFunctions/arm_biquad_cascade_df1_f32.c **** 
  49:./Libraries/CMSIS/DSP/Source/FilteringFunctions/arm_biquad_cascade_df1_f32.c ****   @par           Algorithm
  50:./Libraries/CMSIS/DSP/Source/FilteringFunctions/arm_biquad_cascade_df1_f32.c ****                    Each Biquad stage implements a second order filter using the difference equation
  51:./Libraries/CMSIS/DSP/Source/FilteringFunctions/arm_biquad_cascade_df1_f32.c ****   <pre>
  52:./Libraries/CMSIS/DSP/Source/FilteringFunctions/arm_biquad_cascade_df1_f32.c ****       y[n] = b0 * x[n] + b1 * x[n-1] + b2 * x[n-2] + a1 * y[n-1] + a2 * y[n-2]
  53:./Libraries/CMSIS/DSP/Source/FilteringFunctions/arm_biquad_cascade_df1_f32.c ****   </pre>
  54:./Libraries/CMSIS/DSP/Source/FilteringFunctions/arm_biquad_cascade_df1_f32.c ****                   A Direct Form I algorithm is used with 5 coefficients and 4 state variables per s
  55:./Libraries/CMSIS/DSP/Source/FilteringFunctions/arm_biquad_cascade_df1_f32.c ****                   \image html Biquad.gif "Single Biquad filter stage"
  56:./Libraries/CMSIS/DSP/Source/FilteringFunctions/arm_biquad_cascade_df1_f32.c ****                   Coefficients <code>b0, b1 and b2 </code> multiply the input signal <code>x[n]</co
  57:./Libraries/CMSIS/DSP/Source/FilteringFunctions/arm_biquad_cascade_df1_f32.c ****                   Coefficients <code>a1</code> and <code>a2</code> multiply the output signal <code
  58:./Libraries/CMSIS/DSP/Source/FilteringFunctions/arm_biquad_cascade_df1_f32.c ****                   Pay careful attention to the sign of the feedback coefficients.
  59:./Libraries/CMSIS/DSP/Source/FilteringFunctions/arm_biquad_cascade_df1_f32.c ****                   Some design tools use the difference equation
  60:./Libraries/CMSIS/DSP/Source/FilteringFunctions/arm_biquad_cascade_df1_f32.c ****   <pre>
  61:./Libraries/CMSIS/DSP/Source/FilteringFunctions/arm_biquad_cascade_df1_f32.c ****       y[n] = b0 * x[n] + b1 * x[n-1] + b2 * x[n-2] - a1 * y[n-1] - a2 * y[n-2]
  62:./Libraries/CMSIS/DSP/Source/FilteringFunctions/arm_biquad_cascade_df1_f32.c ****   </pre>
  63:./Libraries/CMSIS/DSP/Source/FilteringFunctions/arm_biquad_cascade_df1_f32.c ****                   In this case the feedback coefficients <code>a1</code> and <code>a2</code>
  64:./Libraries/CMSIS/DSP/Source/FilteringFunctions/arm_biquad_cascade_df1_f32.c ****                   must be negated when used with the CMSIS DSP Library.
  65:./Libraries/CMSIS/DSP/Source/FilteringFunctions/arm_biquad_cascade_df1_f32.c **** 
  66:./Libraries/CMSIS/DSP/Source/FilteringFunctions/arm_biquad_cascade_df1_f32.c ****   @par
  67:./Libraries/CMSIS/DSP/Source/FilteringFunctions/arm_biquad_cascade_df1_f32.c ****                    Higher order filters are realized as a cascade of second order sections.
  68:./Libraries/CMSIS/DSP/Source/FilteringFunctions/arm_biquad_cascade_df1_f32.c ****                    <code>numStages</code> refers to the number of second order stages used.
  69:./Libraries/CMSIS/DSP/Source/FilteringFunctions/arm_biquad_cascade_df1_f32.c ****                    For example, an 8th order filter would be realized with <code>numStages=4</code>
  70:./Libraries/CMSIS/DSP/Source/FilteringFunctions/arm_biquad_cascade_df1_f32.c ****                    \image html BiquadCascade.gif "8th order filter using a cascade of Biquad stages
  71:./Libraries/CMSIS/DSP/Source/FilteringFunctions/arm_biquad_cascade_df1_f32.c ****                    A 9th order filter would be realized with <code>numStages=5</code> second order 
  72:./Libraries/CMSIS/DSP/Source/FilteringFunctions/arm_biquad_cascade_df1_f32.c **** 
  73:./Libraries/CMSIS/DSP/Source/FilteringFunctions/arm_biquad_cascade_df1_f32.c ****   @par
  74:./Libraries/CMSIS/DSP/Source/FilteringFunctions/arm_biquad_cascade_df1_f32.c ****                    The <code>pState</code> points to state variables array.
  75:./Libraries/CMSIS/DSP/Source/FilteringFunctions/arm_biquad_cascade_df1_f32.c ****                    Each Biquad stage has 4 state variables <code>x[n-1], x[n-2], y[n-1],</code> and
  76:./Libraries/CMSIS/DSP/Source/FilteringFunctions/arm_biquad_cascade_df1_f32.c ****                    The state variables are arranged in the <code>pState</code> array as:
  77:./Libraries/CMSIS/DSP/Source/FilteringFunctions/arm_biquad_cascade_df1_f32.c ****   <pre>
  78:./Libraries/CMSIS/DSP/Source/FilteringFunctions/arm_biquad_cascade_df1_f32.c ****       {x[n-1], x[n-2], y[n-1], y[n-2]}
  79:./Libraries/CMSIS/DSP/Source/FilteringFunctions/arm_biquad_cascade_df1_f32.c ****   </pre>
  80:./Libraries/CMSIS/DSP/Source/FilteringFunctions/arm_biquad_cascade_df1_f32.c **** 
  81:./Libraries/CMSIS/DSP/Source/FilteringFunctions/arm_biquad_cascade_df1_f32.c ****   @par
  82:./Libraries/CMSIS/DSP/Source/FilteringFunctions/arm_biquad_cascade_df1_f32.c ****                    The 4 state variables for stage 1 are first, then the 4 state variables for stag
  83:./Libraries/CMSIS/DSP/Source/FilteringFunctions/arm_biquad_cascade_df1_f32.c ****                    The state array has a total length of <code>4*numStages</code> values.
  84:./Libraries/CMSIS/DSP/Source/FilteringFunctions/arm_biquad_cascade_df1_f32.c ****                    The state variables are updated after each block of data is processed, the coeff
  85:./Libraries/CMSIS/DSP/Source/FilteringFunctions/arm_biquad_cascade_df1_f32.c **** 
  86:./Libraries/CMSIS/DSP/Source/FilteringFunctions/arm_biquad_cascade_df1_f32.c ****   @par           Instance Structure
  87:./Libraries/CMSIS/DSP/Source/FilteringFunctions/arm_biquad_cascade_df1_f32.c ****                    The coefficients and state variables for a filter are stored together in an inst
  88:./Libraries/CMSIS/DSP/Source/FilteringFunctions/arm_biquad_cascade_df1_f32.c ****                    A separate instance structure must be defined for each filter.
ARM GAS  /tmp/cccDsQ5x.s 			page 3


  89:./Libraries/CMSIS/DSP/Source/FilteringFunctions/arm_biquad_cascade_df1_f32.c ****                    Coefficient arrays may be shared among several instances while state variable ar
  90:./Libraries/CMSIS/DSP/Source/FilteringFunctions/arm_biquad_cascade_df1_f32.c ****                    There are separate instance structure declarations for each of the 3 supported d
  91:./Libraries/CMSIS/DSP/Source/FilteringFunctions/arm_biquad_cascade_df1_f32.c **** 
  92:./Libraries/CMSIS/DSP/Source/FilteringFunctions/arm_biquad_cascade_df1_f32.c ****   @par           Init Function
  93:./Libraries/CMSIS/DSP/Source/FilteringFunctions/arm_biquad_cascade_df1_f32.c ****                    There is also an associated initialization function for each data type.
  94:./Libraries/CMSIS/DSP/Source/FilteringFunctions/arm_biquad_cascade_df1_f32.c ****                    The initialization function performs following operations:
  95:./Libraries/CMSIS/DSP/Source/FilteringFunctions/arm_biquad_cascade_df1_f32.c ****                    - Sets the values of the internal structure fields.
  96:./Libraries/CMSIS/DSP/Source/FilteringFunctions/arm_biquad_cascade_df1_f32.c ****                    - Zeros out the values in the state buffer.
  97:./Libraries/CMSIS/DSP/Source/FilteringFunctions/arm_biquad_cascade_df1_f32.c ****                    To do this manually without calling the init function, assign the follow subfiel
  98:./Libraries/CMSIS/DSP/Source/FilteringFunctions/arm_biquad_cascade_df1_f32.c ****                    numStages, pCoeffs, pState. Also set all of the values in pState to zero.
  99:./Libraries/CMSIS/DSP/Source/FilteringFunctions/arm_biquad_cascade_df1_f32.c **** 
 100:./Libraries/CMSIS/DSP/Source/FilteringFunctions/arm_biquad_cascade_df1_f32.c ****   @par
 101:./Libraries/CMSIS/DSP/Source/FilteringFunctions/arm_biquad_cascade_df1_f32.c ****                    Use of the initialization function is optional.
 102:./Libraries/CMSIS/DSP/Source/FilteringFunctions/arm_biquad_cascade_df1_f32.c ****                    However, if the initialization function is used, then the instance structure can
 103:./Libraries/CMSIS/DSP/Source/FilteringFunctions/arm_biquad_cascade_df1_f32.c ****                    To place an instance structure into a const data section, the instance structure
 104:./Libraries/CMSIS/DSP/Source/FilteringFunctions/arm_biquad_cascade_df1_f32.c ****                    Set the values in the state buffer to zeros before static initialization.
 105:./Libraries/CMSIS/DSP/Source/FilteringFunctions/arm_biquad_cascade_df1_f32.c ****                    The code below statically initializes each of the 3 different data type filter i
 106:./Libraries/CMSIS/DSP/Source/FilteringFunctions/arm_biquad_cascade_df1_f32.c ****   <pre>
 107:./Libraries/CMSIS/DSP/Source/FilteringFunctions/arm_biquad_cascade_df1_f32.c ****       arm_biquad_casd_df1_inst_f32 S1 = {numStages, pState, pCoeffs};
 108:./Libraries/CMSIS/DSP/Source/FilteringFunctions/arm_biquad_cascade_df1_f32.c ****       arm_biquad_casd_df1_inst_q15 S2 = {numStages, pState, pCoeffs, postShift};
 109:./Libraries/CMSIS/DSP/Source/FilteringFunctions/arm_biquad_cascade_df1_f32.c ****       arm_biquad_casd_df1_inst_q31 S3 = {numStages, pState, pCoeffs, postShift};
 110:./Libraries/CMSIS/DSP/Source/FilteringFunctions/arm_biquad_cascade_df1_f32.c ****   </pre>
 111:./Libraries/CMSIS/DSP/Source/FilteringFunctions/arm_biquad_cascade_df1_f32.c ****                    where <code>numStages</code> is the number of Biquad stages in the filter;
 112:./Libraries/CMSIS/DSP/Source/FilteringFunctions/arm_biquad_cascade_df1_f32.c ****                    <code>pState</code> is the address of the state buffer;
 113:./Libraries/CMSIS/DSP/Source/FilteringFunctions/arm_biquad_cascade_df1_f32.c ****                    <code>pCoeffs</code> is the address of the coefficient buffer;
 114:./Libraries/CMSIS/DSP/Source/FilteringFunctions/arm_biquad_cascade_df1_f32.c ****                    <code>postShift</code> shift to be applied.
 115:./Libraries/CMSIS/DSP/Source/FilteringFunctions/arm_biquad_cascade_df1_f32.c **** 
 116:./Libraries/CMSIS/DSP/Source/FilteringFunctions/arm_biquad_cascade_df1_f32.c ****   @par           Fixed-Point Behavior
 117:./Libraries/CMSIS/DSP/Source/FilteringFunctions/arm_biquad_cascade_df1_f32.c ****                    Care must be taken when using the Q15 and Q31 versions of the Biquad Cascade fil
 118:./Libraries/CMSIS/DSP/Source/FilteringFunctions/arm_biquad_cascade_df1_f32.c ****                    Following issues must be considered:
 119:./Libraries/CMSIS/DSP/Source/FilteringFunctions/arm_biquad_cascade_df1_f32.c ****                    - Scaling of coefficients
 120:./Libraries/CMSIS/DSP/Source/FilteringFunctions/arm_biquad_cascade_df1_f32.c ****                    - Filter gain
 121:./Libraries/CMSIS/DSP/Source/FilteringFunctions/arm_biquad_cascade_df1_f32.c ****                    - Overflow and saturation
 122:./Libraries/CMSIS/DSP/Source/FilteringFunctions/arm_biquad_cascade_df1_f32.c **** 
 123:./Libraries/CMSIS/DSP/Source/FilteringFunctions/arm_biquad_cascade_df1_f32.c ****   @par           Scaling of coefficients
 124:./Libraries/CMSIS/DSP/Source/FilteringFunctions/arm_biquad_cascade_df1_f32.c ****                    Filter coefficients are represented as fractional values and
 125:./Libraries/CMSIS/DSP/Source/FilteringFunctions/arm_biquad_cascade_df1_f32.c ****                    coefficients are restricted to lie in the range <code>[-1 +1)</code>.
 126:./Libraries/CMSIS/DSP/Source/FilteringFunctions/arm_biquad_cascade_df1_f32.c ****                    The fixed-point functions have an additional scaling parameter <code>postShift</
 127:./Libraries/CMSIS/DSP/Source/FilteringFunctions/arm_biquad_cascade_df1_f32.c ****                    which allow the filter coefficients to exceed the range <code>[+1 -1)</code>.
 128:./Libraries/CMSIS/DSP/Source/FilteringFunctions/arm_biquad_cascade_df1_f32.c ****                    At the output of the filter's accumulator is a shift register which shifts the r
 129:./Libraries/CMSIS/DSP/Source/FilteringFunctions/arm_biquad_cascade_df1_f32.c ****                    \image html BiquadPostshift.gif "Fixed-point Biquad with shift by postShift bits
 130:./Libraries/CMSIS/DSP/Source/FilteringFunctions/arm_biquad_cascade_df1_f32.c ****                    This essentially scales the filter coefficients by <code>2^postShift</code>.
 131:./Libraries/CMSIS/DSP/Source/FilteringFunctions/arm_biquad_cascade_df1_f32.c ****                    For example, to realize the coefficients
 132:./Libraries/CMSIS/DSP/Source/FilteringFunctions/arm_biquad_cascade_df1_f32.c ****   <pre>
 133:./Libraries/CMSIS/DSP/Source/FilteringFunctions/arm_biquad_cascade_df1_f32.c ****      {1.5, -0.8, 1.2, 1.6, -0.9}
 134:./Libraries/CMSIS/DSP/Source/FilteringFunctions/arm_biquad_cascade_df1_f32.c ****   </pre>
 135:./Libraries/CMSIS/DSP/Source/FilteringFunctions/arm_biquad_cascade_df1_f32.c ****                    set the pCoeffs array to:
 136:./Libraries/CMSIS/DSP/Source/FilteringFunctions/arm_biquad_cascade_df1_f32.c ****   <pre>
 137:./Libraries/CMSIS/DSP/Source/FilteringFunctions/arm_biquad_cascade_df1_f32.c ****      {0.75, -0.4, 0.6, 0.8, -0.45}
 138:./Libraries/CMSIS/DSP/Source/FilteringFunctions/arm_biquad_cascade_df1_f32.c ****   </pre>
 139:./Libraries/CMSIS/DSP/Source/FilteringFunctions/arm_biquad_cascade_df1_f32.c ****                    and set <code>postShift=1</code>
 140:./Libraries/CMSIS/DSP/Source/FilteringFunctions/arm_biquad_cascade_df1_f32.c **** 
 141:./Libraries/CMSIS/DSP/Source/FilteringFunctions/arm_biquad_cascade_df1_f32.c ****   @par           Filter gain
 142:./Libraries/CMSIS/DSP/Source/FilteringFunctions/arm_biquad_cascade_df1_f32.c ****                    The frequency response of a Biquad filter is a function of its coefficients.
 143:./Libraries/CMSIS/DSP/Source/FilteringFunctions/arm_biquad_cascade_df1_f32.c ****                    It is possible for the gain through the filter to exceed 1.0 meaning that the fi
 144:./Libraries/CMSIS/DSP/Source/FilteringFunctions/arm_biquad_cascade_df1_f32.c ****                    This means that an input signal with amplitude < 1.0 may result in an output > 1
 145:./Libraries/CMSIS/DSP/Source/FilteringFunctions/arm_biquad_cascade_df1_f32.c ****                    To avoid this behavior the filter needs to be scaled down such that its peak gai
ARM GAS  /tmp/cccDsQ5x.s 			page 4


 146:./Libraries/CMSIS/DSP/Source/FilteringFunctions/arm_biquad_cascade_df1_f32.c **** 
 147:./Libraries/CMSIS/DSP/Source/FilteringFunctions/arm_biquad_cascade_df1_f32.c ****   @par           Overflow and saturation
 148:./Libraries/CMSIS/DSP/Source/FilteringFunctions/arm_biquad_cascade_df1_f32.c ****                    For Q15 and Q31 versions, it is described separately as part of the function spe
 149:./Libraries/CMSIS/DSP/Source/FilteringFunctions/arm_biquad_cascade_df1_f32.c ****  */
 150:./Libraries/CMSIS/DSP/Source/FilteringFunctions/arm_biquad_cascade_df1_f32.c **** 
 151:./Libraries/CMSIS/DSP/Source/FilteringFunctions/arm_biquad_cascade_df1_f32.c **** /**
 152:./Libraries/CMSIS/DSP/Source/FilteringFunctions/arm_biquad_cascade_df1_f32.c ****   @addtogroup BiquadCascadeDF1
 153:./Libraries/CMSIS/DSP/Source/FilteringFunctions/arm_biquad_cascade_df1_f32.c ****   @{
 154:./Libraries/CMSIS/DSP/Source/FilteringFunctions/arm_biquad_cascade_df1_f32.c ****  */
 155:./Libraries/CMSIS/DSP/Source/FilteringFunctions/arm_biquad_cascade_df1_f32.c **** 
 156:./Libraries/CMSIS/DSP/Source/FilteringFunctions/arm_biquad_cascade_df1_f32.c **** /**
 157:./Libraries/CMSIS/DSP/Source/FilteringFunctions/arm_biquad_cascade_df1_f32.c ****   @brief         Processing function for the floating-point Biquad cascade filter.
 158:./Libraries/CMSIS/DSP/Source/FilteringFunctions/arm_biquad_cascade_df1_f32.c ****   @param[in]     S         points to an instance of the floating-point Biquad cascade structure
 159:./Libraries/CMSIS/DSP/Source/FilteringFunctions/arm_biquad_cascade_df1_f32.c ****   @param[in]     pSrc      points to the block of input data
 160:./Libraries/CMSIS/DSP/Source/FilteringFunctions/arm_biquad_cascade_df1_f32.c ****   @param[out]    pDst      points to the block of output data
 161:./Libraries/CMSIS/DSP/Source/FilteringFunctions/arm_biquad_cascade_df1_f32.c ****   @param[in]     blockSize  number of samples to process
 162:./Libraries/CMSIS/DSP/Source/FilteringFunctions/arm_biquad_cascade_df1_f32.c ****   @return        none
 163:./Libraries/CMSIS/DSP/Source/FilteringFunctions/arm_biquad_cascade_df1_f32.c ****  */
 164:./Libraries/CMSIS/DSP/Source/FilteringFunctions/arm_biquad_cascade_df1_f32.c **** 
 165:./Libraries/CMSIS/DSP/Source/FilteringFunctions/arm_biquad_cascade_df1_f32.c **** #if defined(ARM_MATH_NEON) 
 166:./Libraries/CMSIS/DSP/Source/FilteringFunctions/arm_biquad_cascade_df1_f32.c **** void arm_biquad_cascade_df1_f32(
 167:./Libraries/CMSIS/DSP/Source/FilteringFunctions/arm_biquad_cascade_df1_f32.c ****   const arm_biquad_casd_df1_inst_f32 * S,
 168:./Libraries/CMSIS/DSP/Source/FilteringFunctions/arm_biquad_cascade_df1_f32.c ****   const float32_t * pSrc,
 169:./Libraries/CMSIS/DSP/Source/FilteringFunctions/arm_biquad_cascade_df1_f32.c ****   float32_t * pDst,
 170:./Libraries/CMSIS/DSP/Source/FilteringFunctions/arm_biquad_cascade_df1_f32.c ****   uint32_t blockSize)
 171:./Libraries/CMSIS/DSP/Source/FilteringFunctions/arm_biquad_cascade_df1_f32.c **** {
 172:./Libraries/CMSIS/DSP/Source/FilteringFunctions/arm_biquad_cascade_df1_f32.c **** 
 173:./Libraries/CMSIS/DSP/Source/FilteringFunctions/arm_biquad_cascade_df1_f32.c ****   const float32_t *pIn = pSrc;                         /*  source pointer            */
 174:./Libraries/CMSIS/DSP/Source/FilteringFunctions/arm_biquad_cascade_df1_f32.c ****   float32_t *pOut = pDst;                        /*  destination pointer       */
 175:./Libraries/CMSIS/DSP/Source/FilteringFunctions/arm_biquad_cascade_df1_f32.c ****   float32_t *pState = S->pState;                 /*  pState pointer            */
 176:./Libraries/CMSIS/DSP/Source/FilteringFunctions/arm_biquad_cascade_df1_f32.c ****   const float32_t *pCoeffs = S->pCoeffs;               /*  coefficient pointer       */
 177:./Libraries/CMSIS/DSP/Source/FilteringFunctions/arm_biquad_cascade_df1_f32.c ****   float32_t acc;                                 /*  Simulates the accumulator */
 178:./Libraries/CMSIS/DSP/Source/FilteringFunctions/arm_biquad_cascade_df1_f32.c ****   
 179:./Libraries/CMSIS/DSP/Source/FilteringFunctions/arm_biquad_cascade_df1_f32.c ****   uint32_t sample, stage = S->numStages;         /*  loop counters             */
 180:./Libraries/CMSIS/DSP/Source/FilteringFunctions/arm_biquad_cascade_df1_f32.c **** 
 181:./Libraries/CMSIS/DSP/Source/FilteringFunctions/arm_biquad_cascade_df1_f32.c ****   float32x4_t Xn;
 182:./Libraries/CMSIS/DSP/Source/FilteringFunctions/arm_biquad_cascade_df1_f32.c ****   float32x2_t Yn;
 183:./Libraries/CMSIS/DSP/Source/FilteringFunctions/arm_biquad_cascade_df1_f32.c ****   float32x2_t a;
 184:./Libraries/CMSIS/DSP/Source/FilteringFunctions/arm_biquad_cascade_df1_f32.c ****   float32x4_t b;
 185:./Libraries/CMSIS/DSP/Source/FilteringFunctions/arm_biquad_cascade_df1_f32.c ****   
 186:./Libraries/CMSIS/DSP/Source/FilteringFunctions/arm_biquad_cascade_df1_f32.c ****   float32x4_t x,tmp;
 187:./Libraries/CMSIS/DSP/Source/FilteringFunctions/arm_biquad_cascade_df1_f32.c ****   float32x2_t t;
 188:./Libraries/CMSIS/DSP/Source/FilteringFunctions/arm_biquad_cascade_df1_f32.c ****   float32x2x2_t y;
 189:./Libraries/CMSIS/DSP/Source/FilteringFunctions/arm_biquad_cascade_df1_f32.c **** 
 190:./Libraries/CMSIS/DSP/Source/FilteringFunctions/arm_biquad_cascade_df1_f32.c ****   float32_t Xns;
 191:./Libraries/CMSIS/DSP/Source/FilteringFunctions/arm_biquad_cascade_df1_f32.c **** 
 192:./Libraries/CMSIS/DSP/Source/FilteringFunctions/arm_biquad_cascade_df1_f32.c ****   while (stage > 0U)
 193:./Libraries/CMSIS/DSP/Source/FilteringFunctions/arm_biquad_cascade_df1_f32.c ****   {
 194:./Libraries/CMSIS/DSP/Source/FilteringFunctions/arm_biquad_cascade_df1_f32.c ****     /* Reading the coefficients */
 195:./Libraries/CMSIS/DSP/Source/FilteringFunctions/arm_biquad_cascade_df1_f32.c ****     Xn = vld1q_f32(pState);
 196:./Libraries/CMSIS/DSP/Source/FilteringFunctions/arm_biquad_cascade_df1_f32.c ****     Yn = vld1_f32(pState + 2);
 197:./Libraries/CMSIS/DSP/Source/FilteringFunctions/arm_biquad_cascade_df1_f32.c **** 
 198:./Libraries/CMSIS/DSP/Source/FilteringFunctions/arm_biquad_cascade_df1_f32.c ****     b = vld1q_f32(pCoeffs);
 199:./Libraries/CMSIS/DSP/Source/FilteringFunctions/arm_biquad_cascade_df1_f32.c ****     b = vrev64q_f32(b);  
 200:./Libraries/CMSIS/DSP/Source/FilteringFunctions/arm_biquad_cascade_df1_f32.c ****     b = vcombine_f32(vget_high_f32(b), vget_low_f32(b));
 201:./Libraries/CMSIS/DSP/Source/FilteringFunctions/arm_biquad_cascade_df1_f32.c **** 
 202:./Libraries/CMSIS/DSP/Source/FilteringFunctions/arm_biquad_cascade_df1_f32.c ****     a = vld1_f32(pCoeffs + 3);
ARM GAS  /tmp/cccDsQ5x.s 			page 5


 203:./Libraries/CMSIS/DSP/Source/FilteringFunctions/arm_biquad_cascade_df1_f32.c ****     a = vrev64_f32(a);
 204:./Libraries/CMSIS/DSP/Source/FilteringFunctions/arm_biquad_cascade_df1_f32.c ****     b[0] = 0.0;
 205:./Libraries/CMSIS/DSP/Source/FilteringFunctions/arm_biquad_cascade_df1_f32.c ****     pCoeffs += 5;
 206:./Libraries/CMSIS/DSP/Source/FilteringFunctions/arm_biquad_cascade_df1_f32.c ****     
 207:./Libraries/CMSIS/DSP/Source/FilteringFunctions/arm_biquad_cascade_df1_f32.c ****     /* Reading the pState values */
 208:./Libraries/CMSIS/DSP/Source/FilteringFunctions/arm_biquad_cascade_df1_f32.c ****    
 209:./Libraries/CMSIS/DSP/Source/FilteringFunctions/arm_biquad_cascade_df1_f32.c ****     /* Apply loop unrolling and compute 4 output values simultaneously. */
 210:./Libraries/CMSIS/DSP/Source/FilteringFunctions/arm_biquad_cascade_df1_f32.c ****     /*      The variable acc hold output values that are being computed:
 211:./Libraries/CMSIS/DSP/Source/FilteringFunctions/arm_biquad_cascade_df1_f32.c ****      *
 212:./Libraries/CMSIS/DSP/Source/FilteringFunctions/arm_biquad_cascade_df1_f32.c ****      *    acc =  b0 * x[n] + b1 * x[n-1] + b2 * x[n-2] + a1 * y[n-1] + a2 * y[n-2]
 213:./Libraries/CMSIS/DSP/Source/FilteringFunctions/arm_biquad_cascade_df1_f32.c ****      *    acc =  b0 * x[n] + b1 * x[n-1] + b2 * x[n-2] + a1 * y[n-1] + a2 * y[n-2]
 214:./Libraries/CMSIS/DSP/Source/FilteringFunctions/arm_biquad_cascade_df1_f32.c ****      *    acc =  b0 * x[n] + b1 * x[n-1] + b2 * x[n-2] + a1 * y[n-1] + a2 * y[n-2]
 215:./Libraries/CMSIS/DSP/Source/FilteringFunctions/arm_biquad_cascade_df1_f32.c ****      *    acc =  b0 * x[n] + b1 * x[n-1] + b2 * x[n-2] + a1 * y[n-1] + a2 * y[n-2]
 216:./Libraries/CMSIS/DSP/Source/FilteringFunctions/arm_biquad_cascade_df1_f32.c ****      */
 217:./Libraries/CMSIS/DSP/Source/FilteringFunctions/arm_biquad_cascade_df1_f32.c **** 
 218:./Libraries/CMSIS/DSP/Source/FilteringFunctions/arm_biquad_cascade_df1_f32.c ****     /* First part of the processing with loop unrolling.  Compute 4 outputs at a time.
 219:./Libraries/CMSIS/DSP/Source/FilteringFunctions/arm_biquad_cascade_df1_f32.c ****      ** a second loop below computes the remaining 1 to 3 samples. */
 220:./Libraries/CMSIS/DSP/Source/FilteringFunctions/arm_biquad_cascade_df1_f32.c ****     sample = blockSize >> 2U;
 221:./Libraries/CMSIS/DSP/Source/FilteringFunctions/arm_biquad_cascade_df1_f32.c **** 
 222:./Libraries/CMSIS/DSP/Source/FilteringFunctions/arm_biquad_cascade_df1_f32.c ****     while (sample > 0U)
 223:./Libraries/CMSIS/DSP/Source/FilteringFunctions/arm_biquad_cascade_df1_f32.c ****     {
 224:./Libraries/CMSIS/DSP/Source/FilteringFunctions/arm_biquad_cascade_df1_f32.c ****       /* Read the first 4 inputs */
 225:./Libraries/CMSIS/DSP/Source/FilteringFunctions/arm_biquad_cascade_df1_f32.c ****       x = vld1q_f32(pIn);
 226:./Libraries/CMSIS/DSP/Source/FilteringFunctions/arm_biquad_cascade_df1_f32.c **** 
 227:./Libraries/CMSIS/DSP/Source/FilteringFunctions/arm_biquad_cascade_df1_f32.c ****       pIn += 4;
 228:./Libraries/CMSIS/DSP/Source/FilteringFunctions/arm_biquad_cascade_df1_f32.c **** 
 229:./Libraries/CMSIS/DSP/Source/FilteringFunctions/arm_biquad_cascade_df1_f32.c ****       tmp = vextq_f32(Xn, x, 1);
 230:./Libraries/CMSIS/DSP/Source/FilteringFunctions/arm_biquad_cascade_df1_f32.c ****       t = vmul_f32(vget_high_f32(b), vget_high_f32(tmp));
 231:./Libraries/CMSIS/DSP/Source/FilteringFunctions/arm_biquad_cascade_df1_f32.c ****       t = vmla_f32(t, vget_low_f32(b), vget_low_f32(tmp));
 232:./Libraries/CMSIS/DSP/Source/FilteringFunctions/arm_biquad_cascade_df1_f32.c ****       t = vmla_f32(t, a, Yn);
 233:./Libraries/CMSIS/DSP/Source/FilteringFunctions/arm_biquad_cascade_df1_f32.c ****       t = vpadd_f32(t, t);
 234:./Libraries/CMSIS/DSP/Source/FilteringFunctions/arm_biquad_cascade_df1_f32.c ****       Yn = vext_f32(Yn, t, 1);
 235:./Libraries/CMSIS/DSP/Source/FilteringFunctions/arm_biquad_cascade_df1_f32.c **** 
 236:./Libraries/CMSIS/DSP/Source/FilteringFunctions/arm_biquad_cascade_df1_f32.c ****       tmp = vextq_f32(Xn, x, 2);
 237:./Libraries/CMSIS/DSP/Source/FilteringFunctions/arm_biquad_cascade_df1_f32.c ****       t = vmul_f32(vget_high_f32(b), vget_high_f32(tmp));
 238:./Libraries/CMSIS/DSP/Source/FilteringFunctions/arm_biquad_cascade_df1_f32.c ****       t = vmla_f32(t, vget_low_f32(b), vget_low_f32(tmp));
 239:./Libraries/CMSIS/DSP/Source/FilteringFunctions/arm_biquad_cascade_df1_f32.c ****       t = vmla_f32(t, a, Yn);
 240:./Libraries/CMSIS/DSP/Source/FilteringFunctions/arm_biquad_cascade_df1_f32.c ****       t = vpadd_f32(t, t);
 241:./Libraries/CMSIS/DSP/Source/FilteringFunctions/arm_biquad_cascade_df1_f32.c ****       Yn = vext_f32(Yn, t, 1);
 242:./Libraries/CMSIS/DSP/Source/FilteringFunctions/arm_biquad_cascade_df1_f32.c **** 
 243:./Libraries/CMSIS/DSP/Source/FilteringFunctions/arm_biquad_cascade_df1_f32.c ****       y.val[0] = Yn;
 244:./Libraries/CMSIS/DSP/Source/FilteringFunctions/arm_biquad_cascade_df1_f32.c **** 
 245:./Libraries/CMSIS/DSP/Source/FilteringFunctions/arm_biquad_cascade_df1_f32.c ****       tmp = vextq_f32(Xn, x, 3);
 246:./Libraries/CMSIS/DSP/Source/FilteringFunctions/arm_biquad_cascade_df1_f32.c ****       t = vmul_f32(vget_high_f32(b), vget_high_f32(tmp));
 247:./Libraries/CMSIS/DSP/Source/FilteringFunctions/arm_biquad_cascade_df1_f32.c ****       t = vmla_f32(t, vget_low_f32(b), vget_low_f32(tmp));
 248:./Libraries/CMSIS/DSP/Source/FilteringFunctions/arm_biquad_cascade_df1_f32.c ****       t = vmla_f32(t, a, Yn);
 249:./Libraries/CMSIS/DSP/Source/FilteringFunctions/arm_biquad_cascade_df1_f32.c ****       t = vpadd_f32(t, t);
 250:./Libraries/CMSIS/DSP/Source/FilteringFunctions/arm_biquad_cascade_df1_f32.c ****       Yn = vext_f32(Yn, t, 1);
 251:./Libraries/CMSIS/DSP/Source/FilteringFunctions/arm_biquad_cascade_df1_f32.c **** 
 252:./Libraries/CMSIS/DSP/Source/FilteringFunctions/arm_biquad_cascade_df1_f32.c ****       Xn = x;
 253:./Libraries/CMSIS/DSP/Source/FilteringFunctions/arm_biquad_cascade_df1_f32.c ****       t = vmul_f32(vget_high_f32(b), vget_high_f32(Xn));
 254:./Libraries/CMSIS/DSP/Source/FilteringFunctions/arm_biquad_cascade_df1_f32.c ****       t = vmla_f32(t, vget_low_f32(b), vget_low_f32(Xn));
 255:./Libraries/CMSIS/DSP/Source/FilteringFunctions/arm_biquad_cascade_df1_f32.c ****       t = vmla_f32(t, a, Yn);
 256:./Libraries/CMSIS/DSP/Source/FilteringFunctions/arm_biquad_cascade_df1_f32.c ****       t = vpadd_f32(t, t);
 257:./Libraries/CMSIS/DSP/Source/FilteringFunctions/arm_biquad_cascade_df1_f32.c ****       Yn = vext_f32(Yn, t, 1);
 258:./Libraries/CMSIS/DSP/Source/FilteringFunctions/arm_biquad_cascade_df1_f32.c ****       
 259:./Libraries/CMSIS/DSP/Source/FilteringFunctions/arm_biquad_cascade_df1_f32.c ****       y.val[1] = Yn;
ARM GAS  /tmp/cccDsQ5x.s 			page 6


 260:./Libraries/CMSIS/DSP/Source/FilteringFunctions/arm_biquad_cascade_df1_f32.c **** 
 261:./Libraries/CMSIS/DSP/Source/FilteringFunctions/arm_biquad_cascade_df1_f32.c ****       tmp = vcombine_f32(y.val[0], y.val[1]);
 262:./Libraries/CMSIS/DSP/Source/FilteringFunctions/arm_biquad_cascade_df1_f32.c **** 
 263:./Libraries/CMSIS/DSP/Source/FilteringFunctions/arm_biquad_cascade_df1_f32.c ****       /* Store the 4 outputs and increment the pointer */
 264:./Libraries/CMSIS/DSP/Source/FilteringFunctions/arm_biquad_cascade_df1_f32.c ****       vst1q_f32(pOut, tmp);
 265:./Libraries/CMSIS/DSP/Source/FilteringFunctions/arm_biquad_cascade_df1_f32.c ****       pOut += 4;
 266:./Libraries/CMSIS/DSP/Source/FilteringFunctions/arm_biquad_cascade_df1_f32.c **** 
 267:./Libraries/CMSIS/DSP/Source/FilteringFunctions/arm_biquad_cascade_df1_f32.c ****       /* Decrement the loop counter */
 268:./Libraries/CMSIS/DSP/Source/FilteringFunctions/arm_biquad_cascade_df1_f32.c ****       sample--;
 269:./Libraries/CMSIS/DSP/Source/FilteringFunctions/arm_biquad_cascade_df1_f32.c ****     }
 270:./Libraries/CMSIS/DSP/Source/FilteringFunctions/arm_biquad_cascade_df1_f32.c **** 
 271:./Libraries/CMSIS/DSP/Source/FilteringFunctions/arm_biquad_cascade_df1_f32.c ****     /* If the block size is not a multiple of 4, compute any remaining output samples here.
 272:./Libraries/CMSIS/DSP/Source/FilteringFunctions/arm_biquad_cascade_df1_f32.c ****      ** No loop unrolling is used. */
 273:./Libraries/CMSIS/DSP/Source/FilteringFunctions/arm_biquad_cascade_df1_f32.c ****     sample = blockSize & 0x3U;
 274:./Libraries/CMSIS/DSP/Source/FilteringFunctions/arm_biquad_cascade_df1_f32.c **** 
 275:./Libraries/CMSIS/DSP/Source/FilteringFunctions/arm_biquad_cascade_df1_f32.c ****     while (sample > 0U)
 276:./Libraries/CMSIS/DSP/Source/FilteringFunctions/arm_biquad_cascade_df1_f32.c ****     {
 277:./Libraries/CMSIS/DSP/Source/FilteringFunctions/arm_biquad_cascade_df1_f32.c ****       /* Read the input */
 278:./Libraries/CMSIS/DSP/Source/FilteringFunctions/arm_biquad_cascade_df1_f32.c ****       Xns = *pIn++;
 279:./Libraries/CMSIS/DSP/Source/FilteringFunctions/arm_biquad_cascade_df1_f32.c **** 
 280:./Libraries/CMSIS/DSP/Source/FilteringFunctions/arm_biquad_cascade_df1_f32.c ****       /* acc =  b0 * x[n] + b1 * x[n-1] + b2 * x[n-2] + a1 * y[n-1] + a2 * y[n-2] */
 281:./Libraries/CMSIS/DSP/Source/FilteringFunctions/arm_biquad_cascade_df1_f32.c ****       acc =  (b[1] * Xn[2]) + (b[2] * Xn[3]) + (b[3] * Xns) + (a[0] * Yn[0]) + (a[1] * Yn[1]);
 282:./Libraries/CMSIS/DSP/Source/FilteringFunctions/arm_biquad_cascade_df1_f32.c **** 
 283:./Libraries/CMSIS/DSP/Source/FilteringFunctions/arm_biquad_cascade_df1_f32.c ****       /* Store the result in the accumulator in the destination buffer. */
 284:./Libraries/CMSIS/DSP/Source/FilteringFunctions/arm_biquad_cascade_df1_f32.c ****       *pOut++ = acc;
 285:./Libraries/CMSIS/DSP/Source/FilteringFunctions/arm_biquad_cascade_df1_f32.c **** 
 286:./Libraries/CMSIS/DSP/Source/FilteringFunctions/arm_biquad_cascade_df1_f32.c ****       /* Every time after the output is computed state should be updated. */
 287:./Libraries/CMSIS/DSP/Source/FilteringFunctions/arm_biquad_cascade_df1_f32.c ****       /* The states should be updated as:    */
 288:./Libraries/CMSIS/DSP/Source/FilteringFunctions/arm_biquad_cascade_df1_f32.c ****       /* Xn2 = Xn1   */
 289:./Libraries/CMSIS/DSP/Source/FilteringFunctions/arm_biquad_cascade_df1_f32.c ****       /* Xn1 = Xn    */
 290:./Libraries/CMSIS/DSP/Source/FilteringFunctions/arm_biquad_cascade_df1_f32.c ****       /* Yn2 = Yn1   */
 291:./Libraries/CMSIS/DSP/Source/FilteringFunctions/arm_biquad_cascade_df1_f32.c ****       /* Yn1 = acc   */
 292:./Libraries/CMSIS/DSP/Source/FilteringFunctions/arm_biquad_cascade_df1_f32.c ****       Xn[2] = Xn[3];
 293:./Libraries/CMSIS/DSP/Source/FilteringFunctions/arm_biquad_cascade_df1_f32.c ****       Xn[3] = Xns;
 294:./Libraries/CMSIS/DSP/Source/FilteringFunctions/arm_biquad_cascade_df1_f32.c ****       Yn[0] = Yn[1];
 295:./Libraries/CMSIS/DSP/Source/FilteringFunctions/arm_biquad_cascade_df1_f32.c ****       Yn[1] = acc;
 296:./Libraries/CMSIS/DSP/Source/FilteringFunctions/arm_biquad_cascade_df1_f32.c **** 
 297:./Libraries/CMSIS/DSP/Source/FilteringFunctions/arm_biquad_cascade_df1_f32.c ****       /* Decrement the loop counter */
 298:./Libraries/CMSIS/DSP/Source/FilteringFunctions/arm_biquad_cascade_df1_f32.c ****       sample--;
 299:./Libraries/CMSIS/DSP/Source/FilteringFunctions/arm_biquad_cascade_df1_f32.c **** 
 300:./Libraries/CMSIS/DSP/Source/FilteringFunctions/arm_biquad_cascade_df1_f32.c ****     }
 301:./Libraries/CMSIS/DSP/Source/FilteringFunctions/arm_biquad_cascade_df1_f32.c **** 
 302:./Libraries/CMSIS/DSP/Source/FilteringFunctions/arm_biquad_cascade_df1_f32.c ****     vst1q_f32(pState,vcombine_f32(vrev64_f32(vget_high_f32(Xn)),vrev64_f32(Yn)));
 303:./Libraries/CMSIS/DSP/Source/FilteringFunctions/arm_biquad_cascade_df1_f32.c ****     pState += 4;
 304:./Libraries/CMSIS/DSP/Source/FilteringFunctions/arm_biquad_cascade_df1_f32.c ****     /*  Store the updated state variables back into the pState array */
 305:./Libraries/CMSIS/DSP/Source/FilteringFunctions/arm_biquad_cascade_df1_f32.c ****    
 306:./Libraries/CMSIS/DSP/Source/FilteringFunctions/arm_biquad_cascade_df1_f32.c ****     /*  The first stage goes from the input buffer to the output buffer. */
 307:./Libraries/CMSIS/DSP/Source/FilteringFunctions/arm_biquad_cascade_df1_f32.c ****     /*  Subsequent numStages  occur in-place in the output buffer */
 308:./Libraries/CMSIS/DSP/Source/FilteringFunctions/arm_biquad_cascade_df1_f32.c ****     pIn = pDst;
 309:./Libraries/CMSIS/DSP/Source/FilteringFunctions/arm_biquad_cascade_df1_f32.c **** 
 310:./Libraries/CMSIS/DSP/Source/FilteringFunctions/arm_biquad_cascade_df1_f32.c ****     /* Reset the output pointer */
 311:./Libraries/CMSIS/DSP/Source/FilteringFunctions/arm_biquad_cascade_df1_f32.c ****     pOut = pDst;
 312:./Libraries/CMSIS/DSP/Source/FilteringFunctions/arm_biquad_cascade_df1_f32.c **** 
 313:./Libraries/CMSIS/DSP/Source/FilteringFunctions/arm_biquad_cascade_df1_f32.c ****     /* Decrement the loop counter */
 314:./Libraries/CMSIS/DSP/Source/FilteringFunctions/arm_biquad_cascade_df1_f32.c ****     stage--;
 315:./Libraries/CMSIS/DSP/Source/FilteringFunctions/arm_biquad_cascade_df1_f32.c ****   }
 316:./Libraries/CMSIS/DSP/Source/FilteringFunctions/arm_biquad_cascade_df1_f32.c **** }
ARM GAS  /tmp/cccDsQ5x.s 			page 7


 317:./Libraries/CMSIS/DSP/Source/FilteringFunctions/arm_biquad_cascade_df1_f32.c **** 
 318:./Libraries/CMSIS/DSP/Source/FilteringFunctions/arm_biquad_cascade_df1_f32.c **** #else
 319:./Libraries/CMSIS/DSP/Source/FilteringFunctions/arm_biquad_cascade_df1_f32.c **** void arm_biquad_cascade_df1_f32(
 320:./Libraries/CMSIS/DSP/Source/FilteringFunctions/arm_biquad_cascade_df1_f32.c ****   const arm_biquad_casd_df1_inst_f32 * S,
 321:./Libraries/CMSIS/DSP/Source/FilteringFunctions/arm_biquad_cascade_df1_f32.c ****   const float32_t * pSrc,
 322:./Libraries/CMSIS/DSP/Source/FilteringFunctions/arm_biquad_cascade_df1_f32.c ****         float32_t * pDst,
 323:./Libraries/CMSIS/DSP/Source/FilteringFunctions/arm_biquad_cascade_df1_f32.c ****         uint32_t blockSize)
 324:./Libraries/CMSIS/DSP/Source/FilteringFunctions/arm_biquad_cascade_df1_f32.c **** {
  28              		.loc 1 324 1
  29              		.cfi_startproc
  30              		@ args = 0, pretend = 0, frame = 88
  31              		@ frame_needed = 1, uses_anonymous_args = 0
  32              		@ link register save eliminated.
  33 0000 80B4     		push	{r7}
  34              	.LCFI0:
  35              		.cfi_def_cfa_offset 4
  36              		.cfi_offset 7, -4
  37 0002 97B0     		sub	sp, sp, #92
  38              	.LCFI1:
  39              		.cfi_def_cfa_offset 96
  40 0004 00AF     		add	r7, sp, #0
  41              	.LCFI2:
  42              		.cfi_def_cfa_register 7
  43 0006 F860     		str	r0, [r7, #12]
  44 0008 B960     		str	r1, [r7, #8]
  45 000a 7A60     		str	r2, [r7, #4]
  46 000c 3B60     		str	r3, [r7]
 325:./Libraries/CMSIS/DSP/Source/FilteringFunctions/arm_biquad_cascade_df1_f32.c ****   const float32_t *pIn = pSrc;                         /* Source pointer */
  47              		.loc 1 325 20
  48 000e BB68     		ldr	r3, [r7, #8]
  49 0010 7B65     		str	r3, [r7, #84]
 326:./Libraries/CMSIS/DSP/Source/FilteringFunctions/arm_biquad_cascade_df1_f32.c ****         float32_t *pOut = pDst;                        /* Destination pointer */
  50              		.loc 1 326 20
  51 0012 7B68     		ldr	r3, [r7, #4]
  52 0014 3B65     		str	r3, [r7, #80]
 327:./Libraries/CMSIS/DSP/Source/FilteringFunctions/arm_biquad_cascade_df1_f32.c ****         float32_t *pState = S->pState;                 /* pState pointer */
  53              		.loc 1 327 20
  54 0016 FB68     		ldr	r3, [r7, #12]
  55 0018 5B68     		ldr	r3, [r3, #4]
  56 001a FB64     		str	r3, [r7, #76]
 328:./Libraries/CMSIS/DSP/Source/FilteringFunctions/arm_biquad_cascade_df1_f32.c ****   const float32_t *pCoeffs = S->pCoeffs;               /* Coefficient pointer */
  57              		.loc 1 328 20
  58 001c FB68     		ldr	r3, [r7, #12]
  59 001e 9B68     		ldr	r3, [r3, #8]
  60 0020 BB64     		str	r3, [r7, #72]
 329:./Libraries/CMSIS/DSP/Source/FilteringFunctions/arm_biquad_cascade_df1_f32.c ****         float32_t acc;                                 /* Accumulator */
 330:./Libraries/CMSIS/DSP/Source/FilteringFunctions/arm_biquad_cascade_df1_f32.c ****         float32_t b0, b1, b2, a1, a2;                  /* Filter coefficients */
 331:./Libraries/CMSIS/DSP/Source/FilteringFunctions/arm_biquad_cascade_df1_f32.c ****         float32_t Xn1, Xn2, Yn1, Yn2;                  /* Filter pState variables */
 332:./Libraries/CMSIS/DSP/Source/FilteringFunctions/arm_biquad_cascade_df1_f32.c ****         float32_t Xn;                                  /* Temporary input */
 333:./Libraries/CMSIS/DSP/Source/FilteringFunctions/arm_biquad_cascade_df1_f32.c ****         uint32_t sample, stage = S->numStages;         /* Loop counters */
  61              		.loc 1 333 26
  62 0022 FB68     		ldr	r3, [r7, #12]
  63 0024 1B68     		ldr	r3, [r3]
  64 0026 3B63     		str	r3, [r7, #48]
  65              	.L4:
 334:./Libraries/CMSIS/DSP/Source/FilteringFunctions/arm_biquad_cascade_df1_f32.c **** 
 335:./Libraries/CMSIS/DSP/Source/FilteringFunctions/arm_biquad_cascade_df1_f32.c ****   do
ARM GAS  /tmp/cccDsQ5x.s 			page 8


 336:./Libraries/CMSIS/DSP/Source/FilteringFunctions/arm_biquad_cascade_df1_f32.c ****   {
 337:./Libraries/CMSIS/DSP/Source/FilteringFunctions/arm_biquad_cascade_df1_f32.c ****     /* Reading the coefficients */
 338:./Libraries/CMSIS/DSP/Source/FilteringFunctions/arm_biquad_cascade_df1_f32.c ****     b0 = *pCoeffs++;
  66              		.loc 1 338 18
  67 0028 BB6C     		ldr	r3, [r7, #72]
  68 002a 1A1D     		adds	r2, r3, #4
  69 002c BA64     		str	r2, [r7, #72]
  70              		.loc 1 338 8
  71 002e 1B68     		ldr	r3, [r3]	@ float
  72 0030 FB62     		str	r3, [r7, #44]	@ float
 339:./Libraries/CMSIS/DSP/Source/FilteringFunctions/arm_biquad_cascade_df1_f32.c ****     b1 = *pCoeffs++;
  73              		.loc 1 339 18
  74 0032 BB6C     		ldr	r3, [r7, #72]
  75 0034 1A1D     		adds	r2, r3, #4
  76 0036 BA64     		str	r2, [r7, #72]
  77              		.loc 1 339 8
  78 0038 1B68     		ldr	r3, [r3]	@ float
  79 003a BB62     		str	r3, [r7, #40]	@ float
 340:./Libraries/CMSIS/DSP/Source/FilteringFunctions/arm_biquad_cascade_df1_f32.c ****     b2 = *pCoeffs++;
  80              		.loc 1 340 18
  81 003c BB6C     		ldr	r3, [r7, #72]
  82 003e 1A1D     		adds	r2, r3, #4
  83 0040 BA64     		str	r2, [r7, #72]
  84              		.loc 1 340 8
  85 0042 1B68     		ldr	r3, [r3]	@ float
  86 0044 7B62     		str	r3, [r7, #36]	@ float
 341:./Libraries/CMSIS/DSP/Source/FilteringFunctions/arm_biquad_cascade_df1_f32.c ****     a1 = *pCoeffs++;
  87              		.loc 1 341 18
  88 0046 BB6C     		ldr	r3, [r7, #72]
  89 0048 1A1D     		adds	r2, r3, #4
  90 004a BA64     		str	r2, [r7, #72]
  91              		.loc 1 341 8
  92 004c 1B68     		ldr	r3, [r3]	@ float
  93 004e 3B62     		str	r3, [r7, #32]	@ float
 342:./Libraries/CMSIS/DSP/Source/FilteringFunctions/arm_biquad_cascade_df1_f32.c ****     a2 = *pCoeffs++;
  94              		.loc 1 342 18
  95 0050 BB6C     		ldr	r3, [r7, #72]
  96 0052 1A1D     		adds	r2, r3, #4
  97 0054 BA64     		str	r2, [r7, #72]
  98              		.loc 1 342 8
  99 0056 1B68     		ldr	r3, [r3]	@ float
 100 0058 FB61     		str	r3, [r7, #28]	@ float
 343:./Libraries/CMSIS/DSP/Source/FilteringFunctions/arm_biquad_cascade_df1_f32.c **** 
 344:./Libraries/CMSIS/DSP/Source/FilteringFunctions/arm_biquad_cascade_df1_f32.c ****     /* Reading the pState values */
 345:./Libraries/CMSIS/DSP/Source/FilteringFunctions/arm_biquad_cascade_df1_f32.c ****     Xn1 = pState[0];
 101              		.loc 1 345 9
 102 005a FB6C     		ldr	r3, [r7, #76]
 103 005c 1B68     		ldr	r3, [r3]	@ float
 104 005e 7B64     		str	r3, [r7, #68]	@ float
 346:./Libraries/CMSIS/DSP/Source/FilteringFunctions/arm_biquad_cascade_df1_f32.c ****     Xn2 = pState[1];
 105              		.loc 1 346 9
 106 0060 FB6C     		ldr	r3, [r7, #76]
 107 0062 5B68     		ldr	r3, [r3, #4]	@ float
 108 0064 3B64     		str	r3, [r7, #64]	@ float
 347:./Libraries/CMSIS/DSP/Source/FilteringFunctions/arm_biquad_cascade_df1_f32.c ****     Yn1 = pState[2];
 109              		.loc 1 347 9
 110 0066 FB6C     		ldr	r3, [r7, #76]
ARM GAS  /tmp/cccDsQ5x.s 			page 9


 111 0068 9B68     		ldr	r3, [r3, #8]	@ float
 112 006a FB63     		str	r3, [r7, #60]	@ float
 348:./Libraries/CMSIS/DSP/Source/FilteringFunctions/arm_biquad_cascade_df1_f32.c ****     Yn2 = pState[3];
 113              		.loc 1 348 9
 114 006c FB6C     		ldr	r3, [r7, #76]
 115 006e DB68     		ldr	r3, [r3, #12]	@ float
 116 0070 BB63     		str	r3, [r7, #56]	@ float
 349:./Libraries/CMSIS/DSP/Source/FilteringFunctions/arm_biquad_cascade_df1_f32.c **** 
 350:./Libraries/CMSIS/DSP/Source/FilteringFunctions/arm_biquad_cascade_df1_f32.c **** #if defined (ARM_MATH_LOOPUNROLL)
 351:./Libraries/CMSIS/DSP/Source/FilteringFunctions/arm_biquad_cascade_df1_f32.c **** 
 352:./Libraries/CMSIS/DSP/Source/FilteringFunctions/arm_biquad_cascade_df1_f32.c ****     /* Apply loop unrolling and compute 4 output values simultaneously. */
 353:./Libraries/CMSIS/DSP/Source/FilteringFunctions/arm_biquad_cascade_df1_f32.c ****     /* Variable acc hold output values that are being computed:
 354:./Libraries/CMSIS/DSP/Source/FilteringFunctions/arm_biquad_cascade_df1_f32.c ****      *
 355:./Libraries/CMSIS/DSP/Source/FilteringFunctions/arm_biquad_cascade_df1_f32.c ****      * acc =  b0 * x[n] + b1 * x[n-1] + b2 * x[n-2] + a1 * y[n-1] + a2 * y[n-2]
 356:./Libraries/CMSIS/DSP/Source/FilteringFunctions/arm_biquad_cascade_df1_f32.c ****      * acc =  b0 * x[n] + b1 * x[n-1] + b2 * x[n-2] + a1 * y[n-1] + a2 * y[n-2]
 357:./Libraries/CMSIS/DSP/Source/FilteringFunctions/arm_biquad_cascade_df1_f32.c ****      * acc =  b0 * x[n] + b1 * x[n-1] + b2 * x[n-2] + a1 * y[n-1] + a2 * y[n-2]
 358:./Libraries/CMSIS/DSP/Source/FilteringFunctions/arm_biquad_cascade_df1_f32.c ****      * acc =  b0 * x[n] + b1 * x[n-1] + b2 * x[n-2] + a1 * y[n-1] + a2 * y[n-2]
 359:./Libraries/CMSIS/DSP/Source/FilteringFunctions/arm_biquad_cascade_df1_f32.c ****      */
 360:./Libraries/CMSIS/DSP/Source/FilteringFunctions/arm_biquad_cascade_df1_f32.c **** 
 361:./Libraries/CMSIS/DSP/Source/FilteringFunctions/arm_biquad_cascade_df1_f32.c ****     /* Loop unrolling: Compute 4 outputs at a time */
 362:./Libraries/CMSIS/DSP/Source/FilteringFunctions/arm_biquad_cascade_df1_f32.c ****     sample = blockSize >> 2U;
 363:./Libraries/CMSIS/DSP/Source/FilteringFunctions/arm_biquad_cascade_df1_f32.c **** 
 364:./Libraries/CMSIS/DSP/Source/FilteringFunctions/arm_biquad_cascade_df1_f32.c ****     while (sample > 0U)
 365:./Libraries/CMSIS/DSP/Source/FilteringFunctions/arm_biquad_cascade_df1_f32.c ****     {
 366:./Libraries/CMSIS/DSP/Source/FilteringFunctions/arm_biquad_cascade_df1_f32.c ****       /* Read the first input */
 367:./Libraries/CMSIS/DSP/Source/FilteringFunctions/arm_biquad_cascade_df1_f32.c ****       Xn = *pIn++;
 368:./Libraries/CMSIS/DSP/Source/FilteringFunctions/arm_biquad_cascade_df1_f32.c **** 
 369:./Libraries/CMSIS/DSP/Source/FilteringFunctions/arm_biquad_cascade_df1_f32.c ****       /* acc =  b0 * x[n] + b1 * x[n-1] + b2 * x[n-2] + a1 * y[n-1] + a2 * y[n-2] */
 370:./Libraries/CMSIS/DSP/Source/FilteringFunctions/arm_biquad_cascade_df1_f32.c ****       Yn2 = (b0 * Xn) + (b1 * Xn1) + (b2 * Xn2) + (a1 * Yn1) + (a2 * Yn2);
 371:./Libraries/CMSIS/DSP/Source/FilteringFunctions/arm_biquad_cascade_df1_f32.c **** 
 372:./Libraries/CMSIS/DSP/Source/FilteringFunctions/arm_biquad_cascade_df1_f32.c ****       /* Store output in destination buffer. */
 373:./Libraries/CMSIS/DSP/Source/FilteringFunctions/arm_biquad_cascade_df1_f32.c ****       *pOut++ = Yn2;
 374:./Libraries/CMSIS/DSP/Source/FilteringFunctions/arm_biquad_cascade_df1_f32.c **** 
 375:./Libraries/CMSIS/DSP/Source/FilteringFunctions/arm_biquad_cascade_df1_f32.c ****       /* Every time after the output is computed state should be updated. */
 376:./Libraries/CMSIS/DSP/Source/FilteringFunctions/arm_biquad_cascade_df1_f32.c ****       /* The states should be updated as: */
 377:./Libraries/CMSIS/DSP/Source/FilteringFunctions/arm_biquad_cascade_df1_f32.c ****       /* Xn2 = Xn1 */
 378:./Libraries/CMSIS/DSP/Source/FilteringFunctions/arm_biquad_cascade_df1_f32.c ****       /* Xn1 = Xn  */
 379:./Libraries/CMSIS/DSP/Source/FilteringFunctions/arm_biquad_cascade_df1_f32.c ****       /* Yn2 = Yn1 */
 380:./Libraries/CMSIS/DSP/Source/FilteringFunctions/arm_biquad_cascade_df1_f32.c ****       /* Yn1 = acc */
 381:./Libraries/CMSIS/DSP/Source/FilteringFunctions/arm_biquad_cascade_df1_f32.c **** 
 382:./Libraries/CMSIS/DSP/Source/FilteringFunctions/arm_biquad_cascade_df1_f32.c ****       /* Read the second input */
 383:./Libraries/CMSIS/DSP/Source/FilteringFunctions/arm_biquad_cascade_df1_f32.c ****       Xn2 = *pIn++;
 384:./Libraries/CMSIS/DSP/Source/FilteringFunctions/arm_biquad_cascade_df1_f32.c **** 
 385:./Libraries/CMSIS/DSP/Source/FilteringFunctions/arm_biquad_cascade_df1_f32.c ****       /* acc =  b0 * x[n] + b1 * x[n-1] + b2 * x[n-2] + a1 * y[n-1] + a2 * y[n-2] */
 386:./Libraries/CMSIS/DSP/Source/FilteringFunctions/arm_biquad_cascade_df1_f32.c ****       Yn1 = (b0 * Xn2) + (b1 * Xn) + (b2 * Xn1) + (a1 * Yn2) + (a2 * Yn1);
 387:./Libraries/CMSIS/DSP/Source/FilteringFunctions/arm_biquad_cascade_df1_f32.c **** 
 388:./Libraries/CMSIS/DSP/Source/FilteringFunctions/arm_biquad_cascade_df1_f32.c ****       /* Store output in destination buffer. */
 389:./Libraries/CMSIS/DSP/Source/FilteringFunctions/arm_biquad_cascade_df1_f32.c ****       *pOut++ = Yn1;
 390:./Libraries/CMSIS/DSP/Source/FilteringFunctions/arm_biquad_cascade_df1_f32.c **** 
 391:./Libraries/CMSIS/DSP/Source/FilteringFunctions/arm_biquad_cascade_df1_f32.c ****       /* Every time after the output is computed state should be updated. */
 392:./Libraries/CMSIS/DSP/Source/FilteringFunctions/arm_biquad_cascade_df1_f32.c ****       /* The states should be updated as: */
 393:./Libraries/CMSIS/DSP/Source/FilteringFunctions/arm_biquad_cascade_df1_f32.c ****       /* Xn2 = Xn1 */
 394:./Libraries/CMSIS/DSP/Source/FilteringFunctions/arm_biquad_cascade_df1_f32.c ****       /* Xn1 = Xn  */
 395:./Libraries/CMSIS/DSP/Source/FilteringFunctions/arm_biquad_cascade_df1_f32.c ****       /* Yn2 = Yn1 */
 396:./Libraries/CMSIS/DSP/Source/FilteringFunctions/arm_biquad_cascade_df1_f32.c ****       /* Yn1 = acc */
 397:./Libraries/CMSIS/DSP/Source/FilteringFunctions/arm_biquad_cascade_df1_f32.c **** 
 398:./Libraries/CMSIS/DSP/Source/FilteringFunctions/arm_biquad_cascade_df1_f32.c ****       /* Read the third input */
ARM GAS  /tmp/cccDsQ5x.s 			page 10


 399:./Libraries/CMSIS/DSP/Source/FilteringFunctions/arm_biquad_cascade_df1_f32.c ****       Xn1 = *pIn++;
 400:./Libraries/CMSIS/DSP/Source/FilteringFunctions/arm_biquad_cascade_df1_f32.c **** 
 401:./Libraries/CMSIS/DSP/Source/FilteringFunctions/arm_biquad_cascade_df1_f32.c ****       /* acc =  b0 * x[n] + b1 * x[n-1] + b2 * x[n-2] + a1 * y[n-1] + a2 * y[n-2] */
 402:./Libraries/CMSIS/DSP/Source/FilteringFunctions/arm_biquad_cascade_df1_f32.c ****       Yn2 = (b0 * Xn1) + (b1 * Xn2) + (b2 * Xn) + (a1 * Yn1) + (a2 * Yn2);
 403:./Libraries/CMSIS/DSP/Source/FilteringFunctions/arm_biquad_cascade_df1_f32.c **** 
 404:./Libraries/CMSIS/DSP/Source/FilteringFunctions/arm_biquad_cascade_df1_f32.c ****       /* Store output in destination buffer. */
 405:./Libraries/CMSIS/DSP/Source/FilteringFunctions/arm_biquad_cascade_df1_f32.c ****       *pOut++ = Yn2;
 406:./Libraries/CMSIS/DSP/Source/FilteringFunctions/arm_biquad_cascade_df1_f32.c **** 
 407:./Libraries/CMSIS/DSP/Source/FilteringFunctions/arm_biquad_cascade_df1_f32.c ****       /* Every time after the output is computed state should be updated. */
 408:./Libraries/CMSIS/DSP/Source/FilteringFunctions/arm_biquad_cascade_df1_f32.c ****       /* The states should be updated as: */
 409:./Libraries/CMSIS/DSP/Source/FilteringFunctions/arm_biquad_cascade_df1_f32.c ****       /* Xn2 = Xn1 */
 410:./Libraries/CMSIS/DSP/Source/FilteringFunctions/arm_biquad_cascade_df1_f32.c ****       /* Xn1 = Xn  */
 411:./Libraries/CMSIS/DSP/Source/FilteringFunctions/arm_biquad_cascade_df1_f32.c ****       /* Yn2 = Yn1 */
 412:./Libraries/CMSIS/DSP/Source/FilteringFunctions/arm_biquad_cascade_df1_f32.c ****       /* Yn1 = acc */
 413:./Libraries/CMSIS/DSP/Source/FilteringFunctions/arm_biquad_cascade_df1_f32.c **** 
 414:./Libraries/CMSIS/DSP/Source/FilteringFunctions/arm_biquad_cascade_df1_f32.c ****       /* Read the forth input */
 415:./Libraries/CMSIS/DSP/Source/FilteringFunctions/arm_biquad_cascade_df1_f32.c ****       Xn = *pIn++;
 416:./Libraries/CMSIS/DSP/Source/FilteringFunctions/arm_biquad_cascade_df1_f32.c **** 
 417:./Libraries/CMSIS/DSP/Source/FilteringFunctions/arm_biquad_cascade_df1_f32.c ****       /* acc =  b0 * x[n] + b1 * x[n-1] + b2 * x[n-2] + a1 * y[n-1] + a2 * y[n-2] */
 418:./Libraries/CMSIS/DSP/Source/FilteringFunctions/arm_biquad_cascade_df1_f32.c ****       Yn1 = (b0 * Xn) + (b1 * Xn1) + (b2 * Xn2) + (a1 * Yn2) + (a2 * Yn1);
 419:./Libraries/CMSIS/DSP/Source/FilteringFunctions/arm_biquad_cascade_df1_f32.c **** 
 420:./Libraries/CMSIS/DSP/Source/FilteringFunctions/arm_biquad_cascade_df1_f32.c ****       /* Store output in destination buffer. */
 421:./Libraries/CMSIS/DSP/Source/FilteringFunctions/arm_biquad_cascade_df1_f32.c ****       *pOut++ = Yn1;
 422:./Libraries/CMSIS/DSP/Source/FilteringFunctions/arm_biquad_cascade_df1_f32.c **** 
 423:./Libraries/CMSIS/DSP/Source/FilteringFunctions/arm_biquad_cascade_df1_f32.c ****       /* Every time after the output is computed state should be updated. */
 424:./Libraries/CMSIS/DSP/Source/FilteringFunctions/arm_biquad_cascade_df1_f32.c ****       /* The states should be updated as: */
 425:./Libraries/CMSIS/DSP/Source/FilteringFunctions/arm_biquad_cascade_df1_f32.c ****       /* Xn2 = Xn1 */
 426:./Libraries/CMSIS/DSP/Source/FilteringFunctions/arm_biquad_cascade_df1_f32.c ****       /* Xn1 = Xn  */
 427:./Libraries/CMSIS/DSP/Source/FilteringFunctions/arm_biquad_cascade_df1_f32.c ****       /* Yn2 = Yn1 */
 428:./Libraries/CMSIS/DSP/Source/FilteringFunctions/arm_biquad_cascade_df1_f32.c ****       /* Yn1 = acc */
 429:./Libraries/CMSIS/DSP/Source/FilteringFunctions/arm_biquad_cascade_df1_f32.c ****       Xn2 = Xn1;
 430:./Libraries/CMSIS/DSP/Source/FilteringFunctions/arm_biquad_cascade_df1_f32.c ****       Xn1 = Xn;
 431:./Libraries/CMSIS/DSP/Source/FilteringFunctions/arm_biquad_cascade_df1_f32.c **** 
 432:./Libraries/CMSIS/DSP/Source/FilteringFunctions/arm_biquad_cascade_df1_f32.c ****       /* decrement loop counter */
 433:./Libraries/CMSIS/DSP/Source/FilteringFunctions/arm_biquad_cascade_df1_f32.c ****       sample--;
 434:./Libraries/CMSIS/DSP/Source/FilteringFunctions/arm_biquad_cascade_df1_f32.c ****     }
 435:./Libraries/CMSIS/DSP/Source/FilteringFunctions/arm_biquad_cascade_df1_f32.c **** 
 436:./Libraries/CMSIS/DSP/Source/FilteringFunctions/arm_biquad_cascade_df1_f32.c ****     /* Loop unrolling: Compute remaining outputs */
 437:./Libraries/CMSIS/DSP/Source/FilteringFunctions/arm_biquad_cascade_df1_f32.c ****     sample = blockSize & 0x3U;
 438:./Libraries/CMSIS/DSP/Source/FilteringFunctions/arm_biquad_cascade_df1_f32.c **** 
 439:./Libraries/CMSIS/DSP/Source/FilteringFunctions/arm_biquad_cascade_df1_f32.c **** #else
 440:./Libraries/CMSIS/DSP/Source/FilteringFunctions/arm_biquad_cascade_df1_f32.c **** 
 441:./Libraries/CMSIS/DSP/Source/FilteringFunctions/arm_biquad_cascade_df1_f32.c ****     /* Initialize blkCnt with number of samples */
 442:./Libraries/CMSIS/DSP/Source/FilteringFunctions/arm_biquad_cascade_df1_f32.c ****     sample = blockSize;
 117              		.loc 1 442 12
 118 0072 3B68     		ldr	r3, [r7]
 119 0074 7B63     		str	r3, [r7, #52]
 443:./Libraries/CMSIS/DSP/Source/FilteringFunctions/arm_biquad_cascade_df1_f32.c **** 
 444:./Libraries/CMSIS/DSP/Source/FilteringFunctions/arm_biquad_cascade_df1_f32.c **** #endif /* #if defined (ARM_MATH_LOOPUNROLL) */
 445:./Libraries/CMSIS/DSP/Source/FilteringFunctions/arm_biquad_cascade_df1_f32.c **** 
 446:./Libraries/CMSIS/DSP/Source/FilteringFunctions/arm_biquad_cascade_df1_f32.c ****     while (sample > 0U)
 120              		.loc 1 446 11
 121 0076 3CE0     		b	.L2
 122              	.L3:
 447:./Libraries/CMSIS/DSP/Source/FilteringFunctions/arm_biquad_cascade_df1_f32.c ****     {
 448:./Libraries/CMSIS/DSP/Source/FilteringFunctions/arm_biquad_cascade_df1_f32.c ****       /* Read the input */
 449:./Libraries/CMSIS/DSP/Source/FilteringFunctions/arm_biquad_cascade_df1_f32.c ****       Xn = *pIn++;
ARM GAS  /tmp/cccDsQ5x.s 			page 11


 123              		.loc 1 449 16
 124 0078 7B6D     		ldr	r3, [r7, #84]
 125 007a 1A1D     		adds	r2, r3, #4
 126 007c 7A65     		str	r2, [r7, #84]
 127              		.loc 1 449 10
 128 007e 1B68     		ldr	r3, [r3]	@ float
 129 0080 BB61     		str	r3, [r7, #24]	@ float
 450:./Libraries/CMSIS/DSP/Source/FilteringFunctions/arm_biquad_cascade_df1_f32.c **** 
 451:./Libraries/CMSIS/DSP/Source/FilteringFunctions/arm_biquad_cascade_df1_f32.c ****       /* acc =  b0 * x[n] + b1 * x[n-1] + b2 * x[n-2] + a1 * y[n-1] + a2 * y[n-2] */
 452:./Libraries/CMSIS/DSP/Source/FilteringFunctions/arm_biquad_cascade_df1_f32.c ****       acc = (b0 * Xn) + (b1 * Xn1) + (b2 * Xn2) + (a1 * Yn1) + (a2 * Yn2);
 130              		.loc 1 452 17
 131 0082 97ED0B7A 		vldr.32	s14, [r7, #44]
 132 0086 D7ED067A 		vldr.32	s15, [r7, #24]
 133 008a 27EE277A 		vmul.f32	s14, s14, s15
 134              		.loc 1 452 29
 135 008e D7ED0A6A 		vldr.32	s13, [r7, #40]
 136 0092 D7ED117A 		vldr.32	s15, [r7, #68]
 137 0096 66EEA77A 		vmul.f32	s15, s13, s15
 138              		.loc 1 452 23
 139 009a 37EE277A 		vadd.f32	s14, s14, s15
 140              		.loc 1 452 42
 141 009e D7ED096A 		vldr.32	s13, [r7, #36]
 142 00a2 D7ED107A 		vldr.32	s15, [r7, #64]
 143 00a6 66EEA77A 		vmul.f32	s15, s13, s15
 144              		.loc 1 452 36
 145 00aa 37EE277A 		vadd.f32	s14, s14, s15
 146              		.loc 1 452 55
 147 00ae D7ED086A 		vldr.32	s13, [r7, #32]
 148 00b2 D7ED0F7A 		vldr.32	s15, [r7, #60]
 149 00b6 66EEA77A 		vmul.f32	s15, s13, s15
 150              		.loc 1 452 49
 151 00ba 37EE277A 		vadd.f32	s14, s14, s15
 152              		.loc 1 452 68
 153 00be D7ED076A 		vldr.32	s13, [r7, #28]
 154 00c2 D7ED0E7A 		vldr.32	s15, [r7, #56]
 155 00c6 66EEA77A 		vmul.f32	s15, s13, s15
 156              		.loc 1 452 11
 157 00ca 77EE277A 		vadd.f32	s15, s14, s15
 158 00ce C7ED057A 		vstr.32	s15, [r7, #20]
 453:./Libraries/CMSIS/DSP/Source/FilteringFunctions/arm_biquad_cascade_df1_f32.c **** 
 454:./Libraries/CMSIS/DSP/Source/FilteringFunctions/arm_biquad_cascade_df1_f32.c ****       /* Store output in destination buffer. */
 455:./Libraries/CMSIS/DSP/Source/FilteringFunctions/arm_biquad_cascade_df1_f32.c ****       *pOut++ = acc;
 159              		.loc 1 455 12
 160 00d2 3B6D     		ldr	r3, [r7, #80]
 161 00d4 1A1D     		adds	r2, r3, #4
 162 00d6 3A65     		str	r2, [r7, #80]
 163              		.loc 1 455 15
 164 00d8 7A69     		ldr	r2, [r7, #20]	@ float
 165 00da 1A60     		str	r2, [r3]	@ float
 456:./Libraries/CMSIS/DSP/Source/FilteringFunctions/arm_biquad_cascade_df1_f32.c **** 
 457:./Libraries/CMSIS/DSP/Source/FilteringFunctions/arm_biquad_cascade_df1_f32.c ****       /* Every time after the output is computed state should be updated. */
 458:./Libraries/CMSIS/DSP/Source/FilteringFunctions/arm_biquad_cascade_df1_f32.c ****       /* The states should be updated as: */
 459:./Libraries/CMSIS/DSP/Source/FilteringFunctions/arm_biquad_cascade_df1_f32.c ****       /* Xn2 = Xn1 */
 460:./Libraries/CMSIS/DSP/Source/FilteringFunctions/arm_biquad_cascade_df1_f32.c ****       /* Xn1 = Xn  */
 461:./Libraries/CMSIS/DSP/Source/FilteringFunctions/arm_biquad_cascade_df1_f32.c ****       /* Yn2 = Yn1 */
 462:./Libraries/CMSIS/DSP/Source/FilteringFunctions/arm_biquad_cascade_df1_f32.c ****       /* Yn1 = acc */
 463:./Libraries/CMSIS/DSP/Source/FilteringFunctions/arm_biquad_cascade_df1_f32.c ****       Xn2 = Xn1;
ARM GAS  /tmp/cccDsQ5x.s 			page 12


 166              		.loc 1 463 11
 167 00dc 7B6C     		ldr	r3, [r7, #68]	@ float
 168 00de 3B64     		str	r3, [r7, #64]	@ float
 464:./Libraries/CMSIS/DSP/Source/FilteringFunctions/arm_biquad_cascade_df1_f32.c ****       Xn1 = Xn;
 169              		.loc 1 464 11
 170 00e0 BB69     		ldr	r3, [r7, #24]	@ float
 171 00e2 7B64     		str	r3, [r7, #68]	@ float
 465:./Libraries/CMSIS/DSP/Source/FilteringFunctions/arm_biquad_cascade_df1_f32.c ****       Yn2 = Yn1;
 172              		.loc 1 465 11
 173 00e4 FB6B     		ldr	r3, [r7, #60]	@ float
 174 00e6 BB63     		str	r3, [r7, #56]	@ float
 466:./Libraries/CMSIS/DSP/Source/FilteringFunctions/arm_biquad_cascade_df1_f32.c ****       Yn1 = acc;
 175              		.loc 1 466 11
 176 00e8 7B69     		ldr	r3, [r7, #20]	@ float
 177 00ea FB63     		str	r3, [r7, #60]	@ float
 467:./Libraries/CMSIS/DSP/Source/FilteringFunctions/arm_biquad_cascade_df1_f32.c **** 
 468:./Libraries/CMSIS/DSP/Source/FilteringFunctions/arm_biquad_cascade_df1_f32.c ****       /* decrement loop counter */
 469:./Libraries/CMSIS/DSP/Source/FilteringFunctions/arm_biquad_cascade_df1_f32.c ****       sample--;
 178              		.loc 1 469 13
 179 00ec 7B6B     		ldr	r3, [r7, #52]
 180 00ee 013B     		subs	r3, r3, #1
 181 00f0 7B63     		str	r3, [r7, #52]
 182              	.L2:
 446:./Libraries/CMSIS/DSP/Source/FilteringFunctions/arm_biquad_cascade_df1_f32.c ****     {
 183              		.loc 1 446 11
 184 00f2 7B6B     		ldr	r3, [r7, #52]
 185 00f4 002B     		cmp	r3, #0
 186 00f6 BFD1     		bne	.L3
 470:./Libraries/CMSIS/DSP/Source/FilteringFunctions/arm_biquad_cascade_df1_f32.c ****     }
 471:./Libraries/CMSIS/DSP/Source/FilteringFunctions/arm_biquad_cascade_df1_f32.c **** 
 472:./Libraries/CMSIS/DSP/Source/FilteringFunctions/arm_biquad_cascade_df1_f32.c ****     /* Store the updated state variables back into the pState array */
 473:./Libraries/CMSIS/DSP/Source/FilteringFunctions/arm_biquad_cascade_df1_f32.c ****     *pState++ = Xn1;
 187              		.loc 1 473 12
 188 00f8 FB6C     		ldr	r3, [r7, #76]
 189 00fa 1A1D     		adds	r2, r3, #4
 190 00fc FA64     		str	r2, [r7, #76]
 191              		.loc 1 473 15
 192 00fe 7A6C     		ldr	r2, [r7, #68]	@ float
 193 0100 1A60     		str	r2, [r3]	@ float
 474:./Libraries/CMSIS/DSP/Source/FilteringFunctions/arm_biquad_cascade_df1_f32.c ****     *pState++ = Xn2;
 194              		.loc 1 474 12
 195 0102 FB6C     		ldr	r3, [r7, #76]
 196 0104 1A1D     		adds	r2, r3, #4
 197 0106 FA64     		str	r2, [r7, #76]
 198              		.loc 1 474 15
 199 0108 3A6C     		ldr	r2, [r7, #64]	@ float
 200 010a 1A60     		str	r2, [r3]	@ float
 475:./Libraries/CMSIS/DSP/Source/FilteringFunctions/arm_biquad_cascade_df1_f32.c ****     *pState++ = Yn1;
 201              		.loc 1 475 12
 202 010c FB6C     		ldr	r3, [r7, #76]
 203 010e 1A1D     		adds	r2, r3, #4
 204 0110 FA64     		str	r2, [r7, #76]
 205              		.loc 1 475 15
 206 0112 FA6B     		ldr	r2, [r7, #60]	@ float
 207 0114 1A60     		str	r2, [r3]	@ float
 476:./Libraries/CMSIS/DSP/Source/FilteringFunctions/arm_biquad_cascade_df1_f32.c ****     *pState++ = Yn2;
 208              		.loc 1 476 12
ARM GAS  /tmp/cccDsQ5x.s 			page 13


 209 0116 FB6C     		ldr	r3, [r7, #76]
 210 0118 1A1D     		adds	r2, r3, #4
 211 011a FA64     		str	r2, [r7, #76]
 212              		.loc 1 476 15
 213 011c BA6B     		ldr	r2, [r7, #56]	@ float
 214 011e 1A60     		str	r2, [r3]	@ float
 477:./Libraries/CMSIS/DSP/Source/FilteringFunctions/arm_biquad_cascade_df1_f32.c **** 
 478:./Libraries/CMSIS/DSP/Source/FilteringFunctions/arm_biquad_cascade_df1_f32.c ****     /* The first stage goes from the input buffer to the output buffer. */
 479:./Libraries/CMSIS/DSP/Source/FilteringFunctions/arm_biquad_cascade_df1_f32.c ****     /* Subsequent numStages occur in-place in the output buffer */
 480:./Libraries/CMSIS/DSP/Source/FilteringFunctions/arm_biquad_cascade_df1_f32.c ****     pIn = pDst;
 215              		.loc 1 480 9
 216 0120 7B68     		ldr	r3, [r7, #4]
 217 0122 7B65     		str	r3, [r7, #84]
 481:./Libraries/CMSIS/DSP/Source/FilteringFunctions/arm_biquad_cascade_df1_f32.c **** 
 482:./Libraries/CMSIS/DSP/Source/FilteringFunctions/arm_biquad_cascade_df1_f32.c ****     /* Reset output pointer */
 483:./Libraries/CMSIS/DSP/Source/FilteringFunctions/arm_biquad_cascade_df1_f32.c ****     pOut = pDst;
 218              		.loc 1 483 10
 219 0124 7B68     		ldr	r3, [r7, #4]
 220 0126 3B65     		str	r3, [r7, #80]
 484:./Libraries/CMSIS/DSP/Source/FilteringFunctions/arm_biquad_cascade_df1_f32.c **** 
 485:./Libraries/CMSIS/DSP/Source/FilteringFunctions/arm_biquad_cascade_df1_f32.c ****     /* decrement loop counter */
 486:./Libraries/CMSIS/DSP/Source/FilteringFunctions/arm_biquad_cascade_df1_f32.c ****     stage--;
 221              		.loc 1 486 10
 222 0128 3B6B     		ldr	r3, [r7, #48]
 223 012a 013B     		subs	r3, r3, #1
 224 012c 3B63     		str	r3, [r7, #48]
 487:./Libraries/CMSIS/DSP/Source/FilteringFunctions/arm_biquad_cascade_df1_f32.c **** 
 488:./Libraries/CMSIS/DSP/Source/FilteringFunctions/arm_biquad_cascade_df1_f32.c ****   } while (stage > 0U);
 225              		.loc 1 488 3
 226 012e 3B6B     		ldr	r3, [r7, #48]
 227 0130 002B     		cmp	r3, #0
 228 0132 7FF479AF 		bne	.L4
 489:./Libraries/CMSIS/DSP/Source/FilteringFunctions/arm_biquad_cascade_df1_f32.c **** 
 490:./Libraries/CMSIS/DSP/Source/FilteringFunctions/arm_biquad_cascade_df1_f32.c **** }
 229              		.loc 1 490 1
 230 0136 00BF     		nop
 231 0138 00BF     		nop
 232 013a 5C37     		adds	r7, r7, #92
 233              	.LCFI3:
 234              		.cfi_def_cfa_offset 4
 235 013c BD46     		mov	sp, r7
 236              	.LCFI4:
 237              		.cfi_def_cfa_register 13
 238              		@ sp needed
 239 013e 5DF8047B 		ldr	r7, [sp], #4
 240              	.LCFI5:
 241              		.cfi_restore 7
 242              		.cfi_def_cfa_offset 0
 243 0142 7047     		bx	lr
 244              		.cfi_endproc
 245              	.LFE145:
 247              		.text
 248              	.Letext0:
 249              		.file 2 "/usr/lib/gcc/arm-none-eabi/9.2.1/include/stdint.h"
 250              		.file 3 "/usr/lib/gcc/arm-none-eabi/9.2.1/include/stddef.h"
 251              		.file 4 "/usr/include/newlib/sys/_types.h"
 252              		.file 5 "/usr/include/newlib/sys/reent.h"
ARM GAS  /tmp/cccDsQ5x.s 			page 14


 253              		.file 6 "/usr/include/newlib/sys/lock.h"
 254              		.file 7 "/usr/include/newlib/math.h"
 255              		.file 8 "./Libraries/CMSIS/DSP/Include/arm_math.h"
ARM GAS  /tmp/cccDsQ5x.s 			page 15

