ARM GAS  /tmp/ccOjSIur.s 			page 1


   1              		.cpu cortex-m7
   2              		.eabi_attribute 28, 1
   3              		.eabi_attribute 20, 1
   4              		.eabi_attribute 21, 1
   5              		.eabi_attribute 23, 3
   6              		.eabi_attribute 24, 1
   7              		.eabi_attribute 25, 1
   8              		.eabi_attribute 26, 1
   9              		.eabi_attribute 30, 6
  10              		.eabi_attribute 34, 1
  11              		.eabi_attribute 18, 4
  12              		.file	"arm_cmplx_mult_cmplx_f32.c"
  13              		.text
  14              	.Ltext0:
  15              		.cfi_sections	.debug_frame
  16              		.section	.text.arm_cmplx_mult_cmplx_f32,"ax",%progbits
  17              		.align	1
  18              		.global	arm_cmplx_mult_cmplx_f32
  19              		.arch armv7e-m
  20              		.syntax unified
  21              		.thumb
  22              		.thumb_func
  23              		.fpu fpv5-d16
  25              	arm_cmplx_mult_cmplx_f32:
  26              	.LFB145:
  27              		.file 1 "./Libraries/CMSIS/DSP/Source/ComplexMathFunctions/arm_cmplx_mult_cmplx_f32.c"
   1:./Libraries/CMSIS/DSP/Source/ComplexMathFunctions/arm_cmplx_mult_cmplx_f32.c **** /* ----------------------------------------------------------------------
   2:./Libraries/CMSIS/DSP/Source/ComplexMathFunctions/arm_cmplx_mult_cmplx_f32.c ****  * Project:      CMSIS DSP Library
   3:./Libraries/CMSIS/DSP/Source/ComplexMathFunctions/arm_cmplx_mult_cmplx_f32.c ****  * Title:        arm_cmplx_mult_cmplx_f32.c
   4:./Libraries/CMSIS/DSP/Source/ComplexMathFunctions/arm_cmplx_mult_cmplx_f32.c ****  * Description:  Floating-point complex-by-complex multiplication
   5:./Libraries/CMSIS/DSP/Source/ComplexMathFunctions/arm_cmplx_mult_cmplx_f32.c ****  *
   6:./Libraries/CMSIS/DSP/Source/ComplexMathFunctions/arm_cmplx_mult_cmplx_f32.c ****  * $Date:        18. March 2019
   7:./Libraries/CMSIS/DSP/Source/ComplexMathFunctions/arm_cmplx_mult_cmplx_f32.c ****  * $Revision:    V1.6.0
   8:./Libraries/CMSIS/DSP/Source/ComplexMathFunctions/arm_cmplx_mult_cmplx_f32.c ****  *
   9:./Libraries/CMSIS/DSP/Source/ComplexMathFunctions/arm_cmplx_mult_cmplx_f32.c ****  * Target Processor: Cortex-M cores
  10:./Libraries/CMSIS/DSP/Source/ComplexMathFunctions/arm_cmplx_mult_cmplx_f32.c ****  * -------------------------------------------------------------------- */
  11:./Libraries/CMSIS/DSP/Source/ComplexMathFunctions/arm_cmplx_mult_cmplx_f32.c **** /*
  12:./Libraries/CMSIS/DSP/Source/ComplexMathFunctions/arm_cmplx_mult_cmplx_f32.c ****  * Copyright (C) 2010-2019 ARM Limited or its affiliates. All rights reserved.
  13:./Libraries/CMSIS/DSP/Source/ComplexMathFunctions/arm_cmplx_mult_cmplx_f32.c ****  *
  14:./Libraries/CMSIS/DSP/Source/ComplexMathFunctions/arm_cmplx_mult_cmplx_f32.c ****  * SPDX-License-Identifier: Apache-2.0
  15:./Libraries/CMSIS/DSP/Source/ComplexMathFunctions/arm_cmplx_mult_cmplx_f32.c ****  *
  16:./Libraries/CMSIS/DSP/Source/ComplexMathFunctions/arm_cmplx_mult_cmplx_f32.c ****  * Licensed under the Apache License, Version 2.0 (the License); you may
  17:./Libraries/CMSIS/DSP/Source/ComplexMathFunctions/arm_cmplx_mult_cmplx_f32.c ****  * not use this file except in compliance with the License.
  18:./Libraries/CMSIS/DSP/Source/ComplexMathFunctions/arm_cmplx_mult_cmplx_f32.c ****  * You may obtain a copy of the License at
  19:./Libraries/CMSIS/DSP/Source/ComplexMathFunctions/arm_cmplx_mult_cmplx_f32.c ****  *
  20:./Libraries/CMSIS/DSP/Source/ComplexMathFunctions/arm_cmplx_mult_cmplx_f32.c ****  * www.apache.org/licenses/LICENSE-2.0
  21:./Libraries/CMSIS/DSP/Source/ComplexMathFunctions/arm_cmplx_mult_cmplx_f32.c ****  *
  22:./Libraries/CMSIS/DSP/Source/ComplexMathFunctions/arm_cmplx_mult_cmplx_f32.c ****  * Unless required by applicable law or agreed to in writing, software
  23:./Libraries/CMSIS/DSP/Source/ComplexMathFunctions/arm_cmplx_mult_cmplx_f32.c ****  * distributed under the License is distributed on an AS IS BASIS, WITHOUT
  24:./Libraries/CMSIS/DSP/Source/ComplexMathFunctions/arm_cmplx_mult_cmplx_f32.c ****  * WARRANTIES OR CONDITIONS OF ANY KIND, either express or implied.
  25:./Libraries/CMSIS/DSP/Source/ComplexMathFunctions/arm_cmplx_mult_cmplx_f32.c ****  * See the License for the specific language governing permissions and
  26:./Libraries/CMSIS/DSP/Source/ComplexMathFunctions/arm_cmplx_mult_cmplx_f32.c ****  * limitations under the License.
  27:./Libraries/CMSIS/DSP/Source/ComplexMathFunctions/arm_cmplx_mult_cmplx_f32.c ****  */
  28:./Libraries/CMSIS/DSP/Source/ComplexMathFunctions/arm_cmplx_mult_cmplx_f32.c **** 
  29:./Libraries/CMSIS/DSP/Source/ComplexMathFunctions/arm_cmplx_mult_cmplx_f32.c **** #include "arm_math.h"
  30:./Libraries/CMSIS/DSP/Source/ComplexMathFunctions/arm_cmplx_mult_cmplx_f32.c **** 
  31:./Libraries/CMSIS/DSP/Source/ComplexMathFunctions/arm_cmplx_mult_cmplx_f32.c **** /**
ARM GAS  /tmp/ccOjSIur.s 			page 2


  32:./Libraries/CMSIS/DSP/Source/ComplexMathFunctions/arm_cmplx_mult_cmplx_f32.c ****   @ingroup groupCmplxMath
  33:./Libraries/CMSIS/DSP/Source/ComplexMathFunctions/arm_cmplx_mult_cmplx_f32.c ****  */
  34:./Libraries/CMSIS/DSP/Source/ComplexMathFunctions/arm_cmplx_mult_cmplx_f32.c **** 
  35:./Libraries/CMSIS/DSP/Source/ComplexMathFunctions/arm_cmplx_mult_cmplx_f32.c **** /**
  36:./Libraries/CMSIS/DSP/Source/ComplexMathFunctions/arm_cmplx_mult_cmplx_f32.c ****   @defgroup CmplxByCmplxMult Complex-by-Complex Multiplication
  37:./Libraries/CMSIS/DSP/Source/ComplexMathFunctions/arm_cmplx_mult_cmplx_f32.c **** 
  38:./Libraries/CMSIS/DSP/Source/ComplexMathFunctions/arm_cmplx_mult_cmplx_f32.c ****   Multiplies a complex vector by another complex vector and generates a complex result.
  39:./Libraries/CMSIS/DSP/Source/ComplexMathFunctions/arm_cmplx_mult_cmplx_f32.c ****   The data in the complex arrays is stored in an interleaved fashion
  40:./Libraries/CMSIS/DSP/Source/ComplexMathFunctions/arm_cmplx_mult_cmplx_f32.c ****   (real, imag, real, imag, ...).
  41:./Libraries/CMSIS/DSP/Source/ComplexMathFunctions/arm_cmplx_mult_cmplx_f32.c ****   The parameter <code>numSamples</code> represents the number of complex
  42:./Libraries/CMSIS/DSP/Source/ComplexMathFunctions/arm_cmplx_mult_cmplx_f32.c ****   samples processed.  The complex arrays have a total of <code>2*numSamples</code>
  43:./Libraries/CMSIS/DSP/Source/ComplexMathFunctions/arm_cmplx_mult_cmplx_f32.c ****   real values.
  44:./Libraries/CMSIS/DSP/Source/ComplexMathFunctions/arm_cmplx_mult_cmplx_f32.c **** 
  45:./Libraries/CMSIS/DSP/Source/ComplexMathFunctions/arm_cmplx_mult_cmplx_f32.c ****   The underlying algorithm is used:
  46:./Libraries/CMSIS/DSP/Source/ComplexMathFunctions/arm_cmplx_mult_cmplx_f32.c **** 
  47:./Libraries/CMSIS/DSP/Source/ComplexMathFunctions/arm_cmplx_mult_cmplx_f32.c ****   <pre>
  48:./Libraries/CMSIS/DSP/Source/ComplexMathFunctions/arm_cmplx_mult_cmplx_f32.c ****   for (n = 0; n < numSamples; n++) {
  49:./Libraries/CMSIS/DSP/Source/ComplexMathFunctions/arm_cmplx_mult_cmplx_f32.c ****       pDst[(2*n)+0] = pSrcA[(2*n)+0] * pSrcB[(2*n)+0] - pSrcA[(2*n)+1] * pSrcB[(2*n)+1];
  50:./Libraries/CMSIS/DSP/Source/ComplexMathFunctions/arm_cmplx_mult_cmplx_f32.c ****       pDst[(2*n)+1] = pSrcA[(2*n)+0] * pSrcB[(2*n)+1] + pSrcA[(2*n)+1] * pSrcB[(2*n)+0];
  51:./Libraries/CMSIS/DSP/Source/ComplexMathFunctions/arm_cmplx_mult_cmplx_f32.c ****   }
  52:./Libraries/CMSIS/DSP/Source/ComplexMathFunctions/arm_cmplx_mult_cmplx_f32.c ****   </pre>
  53:./Libraries/CMSIS/DSP/Source/ComplexMathFunctions/arm_cmplx_mult_cmplx_f32.c **** 
  54:./Libraries/CMSIS/DSP/Source/ComplexMathFunctions/arm_cmplx_mult_cmplx_f32.c ****   There are separate functions for floating-point, Q15, and Q31 data types.
  55:./Libraries/CMSIS/DSP/Source/ComplexMathFunctions/arm_cmplx_mult_cmplx_f32.c ****  */
  56:./Libraries/CMSIS/DSP/Source/ComplexMathFunctions/arm_cmplx_mult_cmplx_f32.c **** 
  57:./Libraries/CMSIS/DSP/Source/ComplexMathFunctions/arm_cmplx_mult_cmplx_f32.c **** /**
  58:./Libraries/CMSIS/DSP/Source/ComplexMathFunctions/arm_cmplx_mult_cmplx_f32.c ****   @addtogroup CmplxByCmplxMult
  59:./Libraries/CMSIS/DSP/Source/ComplexMathFunctions/arm_cmplx_mult_cmplx_f32.c ****   @{
  60:./Libraries/CMSIS/DSP/Source/ComplexMathFunctions/arm_cmplx_mult_cmplx_f32.c ****  */
  61:./Libraries/CMSIS/DSP/Source/ComplexMathFunctions/arm_cmplx_mult_cmplx_f32.c **** 
  62:./Libraries/CMSIS/DSP/Source/ComplexMathFunctions/arm_cmplx_mult_cmplx_f32.c **** /**
  63:./Libraries/CMSIS/DSP/Source/ComplexMathFunctions/arm_cmplx_mult_cmplx_f32.c ****   @brief         Floating-point complex-by-complex multiplication.
  64:./Libraries/CMSIS/DSP/Source/ComplexMathFunctions/arm_cmplx_mult_cmplx_f32.c ****   @param[in]     pSrcA       points to first input vector
  65:./Libraries/CMSIS/DSP/Source/ComplexMathFunctions/arm_cmplx_mult_cmplx_f32.c ****   @param[in]     pSrcB       points to second input vector
  66:./Libraries/CMSIS/DSP/Source/ComplexMathFunctions/arm_cmplx_mult_cmplx_f32.c ****   @param[out]    pDst        points to output vector
  67:./Libraries/CMSIS/DSP/Source/ComplexMathFunctions/arm_cmplx_mult_cmplx_f32.c ****   @param[in]     numSamples  number of samples in each vector
  68:./Libraries/CMSIS/DSP/Source/ComplexMathFunctions/arm_cmplx_mult_cmplx_f32.c ****   @return        none
  69:./Libraries/CMSIS/DSP/Source/ComplexMathFunctions/arm_cmplx_mult_cmplx_f32.c ****  */
  70:./Libraries/CMSIS/DSP/Source/ComplexMathFunctions/arm_cmplx_mult_cmplx_f32.c **** 
  71:./Libraries/CMSIS/DSP/Source/ComplexMathFunctions/arm_cmplx_mult_cmplx_f32.c **** void arm_cmplx_mult_cmplx_f32(
  72:./Libraries/CMSIS/DSP/Source/ComplexMathFunctions/arm_cmplx_mult_cmplx_f32.c ****   const float32_t * pSrcA,
  73:./Libraries/CMSIS/DSP/Source/ComplexMathFunctions/arm_cmplx_mult_cmplx_f32.c ****   const float32_t * pSrcB,
  74:./Libraries/CMSIS/DSP/Source/ComplexMathFunctions/arm_cmplx_mult_cmplx_f32.c ****         float32_t * pDst,
  75:./Libraries/CMSIS/DSP/Source/ComplexMathFunctions/arm_cmplx_mult_cmplx_f32.c ****         uint32_t numSamples)
  76:./Libraries/CMSIS/DSP/Source/ComplexMathFunctions/arm_cmplx_mult_cmplx_f32.c **** {
  28              		.loc 1 76 1
  29              		.cfi_startproc
  30              		@ args = 0, pretend = 0, frame = 40
  31              		@ frame_needed = 1, uses_anonymous_args = 0
  32              		@ link register save eliminated.
  33 0000 80B4     		push	{r7}
  34              	.LCFI0:
  35              		.cfi_def_cfa_offset 4
  36              		.cfi_offset 7, -4
  37 0002 8BB0     		sub	sp, sp, #44
  38              	.LCFI1:
  39              		.cfi_def_cfa_offset 48
ARM GAS  /tmp/ccOjSIur.s 			page 3


  40 0004 00AF     		add	r7, sp, #0
  41              	.LCFI2:
  42              		.cfi_def_cfa_register 7
  43 0006 F860     		str	r0, [r7, #12]
  44 0008 B960     		str	r1, [r7, #8]
  45 000a 7A60     		str	r2, [r7, #4]
  46 000c 3B60     		str	r3, [r7]
  77:./Libraries/CMSIS/DSP/Source/ComplexMathFunctions/arm_cmplx_mult_cmplx_f32.c ****     uint32_t blkCnt;                               /* Loop counter */
  78:./Libraries/CMSIS/DSP/Source/ComplexMathFunctions/arm_cmplx_mult_cmplx_f32.c ****     float32_t a, b, c, d;  /* Temporary variables to store real and imaginary values */
  79:./Libraries/CMSIS/DSP/Source/ComplexMathFunctions/arm_cmplx_mult_cmplx_f32.c **** 
  80:./Libraries/CMSIS/DSP/Source/ComplexMathFunctions/arm_cmplx_mult_cmplx_f32.c **** #if defined(ARM_MATH_NEON)
  81:./Libraries/CMSIS/DSP/Source/ComplexMathFunctions/arm_cmplx_mult_cmplx_f32.c ****     float32x4x2_t va, vb;
  82:./Libraries/CMSIS/DSP/Source/ComplexMathFunctions/arm_cmplx_mult_cmplx_f32.c ****     float32x4_t real, imag;
  83:./Libraries/CMSIS/DSP/Source/ComplexMathFunctions/arm_cmplx_mult_cmplx_f32.c ****     float32x4x2_t outCplx;
  84:./Libraries/CMSIS/DSP/Source/ComplexMathFunctions/arm_cmplx_mult_cmplx_f32.c **** 
  85:./Libraries/CMSIS/DSP/Source/ComplexMathFunctions/arm_cmplx_mult_cmplx_f32.c ****     /* Compute 4 outputs at a time */
  86:./Libraries/CMSIS/DSP/Source/ComplexMathFunctions/arm_cmplx_mult_cmplx_f32.c ****     blkCnt = numSamples >> 2U;
  87:./Libraries/CMSIS/DSP/Source/ComplexMathFunctions/arm_cmplx_mult_cmplx_f32.c **** 
  88:./Libraries/CMSIS/DSP/Source/ComplexMathFunctions/arm_cmplx_mult_cmplx_f32.c ****     while (blkCnt > 0U)
  89:./Libraries/CMSIS/DSP/Source/ComplexMathFunctions/arm_cmplx_mult_cmplx_f32.c ****     {
  90:./Libraries/CMSIS/DSP/Source/ComplexMathFunctions/arm_cmplx_mult_cmplx_f32.c ****         va = vld2q_f32(pSrcA);  // load & separate real/imag pSrcA (de-interleave 2)
  91:./Libraries/CMSIS/DSP/Source/ComplexMathFunctions/arm_cmplx_mult_cmplx_f32.c ****         vb = vld2q_f32(pSrcB);  // load & separate real/imag pSrcB
  92:./Libraries/CMSIS/DSP/Source/ComplexMathFunctions/arm_cmplx_mult_cmplx_f32.c **** 
  93:./Libraries/CMSIS/DSP/Source/ComplexMathFunctions/arm_cmplx_mult_cmplx_f32.c **** 	/* Increment pointers */
  94:./Libraries/CMSIS/DSP/Source/ComplexMathFunctions/arm_cmplx_mult_cmplx_f32.c ****         pSrcA += 8;
  95:./Libraries/CMSIS/DSP/Source/ComplexMathFunctions/arm_cmplx_mult_cmplx_f32.c ****         pSrcB += 8;
  96:./Libraries/CMSIS/DSP/Source/ComplexMathFunctions/arm_cmplx_mult_cmplx_f32.c **** 	
  97:./Libraries/CMSIS/DSP/Source/ComplexMathFunctions/arm_cmplx_mult_cmplx_f32.c **** 	/* Re{C} = Re{A}*Re{B} - Im{A}*Im{B} */
  98:./Libraries/CMSIS/DSP/Source/ComplexMathFunctions/arm_cmplx_mult_cmplx_f32.c ****         outCplx.val[0] = vmulq_f32(va.val[0], vb.val[0]);
  99:./Libraries/CMSIS/DSP/Source/ComplexMathFunctions/arm_cmplx_mult_cmplx_f32.c ****         outCplx.val[0] = vmlsq_f32(outCplx.val[0], va.val[1], vb.val[1]);
 100:./Libraries/CMSIS/DSP/Source/ComplexMathFunctions/arm_cmplx_mult_cmplx_f32.c **** 
 101:./Libraries/CMSIS/DSP/Source/ComplexMathFunctions/arm_cmplx_mult_cmplx_f32.c **** 	/* Im{C} = Re{A}*Im{B} + Im{A}*Re{B} */
 102:./Libraries/CMSIS/DSP/Source/ComplexMathFunctions/arm_cmplx_mult_cmplx_f32.c ****         outCplx.val[1] = vmulq_f32(va.val[0], vb.val[1]);
 103:./Libraries/CMSIS/DSP/Source/ComplexMathFunctions/arm_cmplx_mult_cmplx_f32.c ****         outCplx.val[1] = vmlaq_f32(outCplx.val[1], va.val[1], vb.val[0]);
 104:./Libraries/CMSIS/DSP/Source/ComplexMathFunctions/arm_cmplx_mult_cmplx_f32.c **** 
 105:./Libraries/CMSIS/DSP/Source/ComplexMathFunctions/arm_cmplx_mult_cmplx_f32.c ****         vst2q_f32(pDst, outCplx);
 106:./Libraries/CMSIS/DSP/Source/ComplexMathFunctions/arm_cmplx_mult_cmplx_f32.c **** 
 107:./Libraries/CMSIS/DSP/Source/ComplexMathFunctions/arm_cmplx_mult_cmplx_f32.c **** 	/* Increment pointer */
 108:./Libraries/CMSIS/DSP/Source/ComplexMathFunctions/arm_cmplx_mult_cmplx_f32.c ****         pDst += 8;
 109:./Libraries/CMSIS/DSP/Source/ComplexMathFunctions/arm_cmplx_mult_cmplx_f32.c **** 
 110:./Libraries/CMSIS/DSP/Source/ComplexMathFunctions/arm_cmplx_mult_cmplx_f32.c **** 	/* Decrement the loop counter */
 111:./Libraries/CMSIS/DSP/Source/ComplexMathFunctions/arm_cmplx_mult_cmplx_f32.c ****         blkCnt--;
 112:./Libraries/CMSIS/DSP/Source/ComplexMathFunctions/arm_cmplx_mult_cmplx_f32.c ****     }
 113:./Libraries/CMSIS/DSP/Source/ComplexMathFunctions/arm_cmplx_mult_cmplx_f32.c **** 
 114:./Libraries/CMSIS/DSP/Source/ComplexMathFunctions/arm_cmplx_mult_cmplx_f32.c ****     /* Tail */
 115:./Libraries/CMSIS/DSP/Source/ComplexMathFunctions/arm_cmplx_mult_cmplx_f32.c ****     blkCnt = numSamples & 3;
 116:./Libraries/CMSIS/DSP/Source/ComplexMathFunctions/arm_cmplx_mult_cmplx_f32.c **** 
 117:./Libraries/CMSIS/DSP/Source/ComplexMathFunctions/arm_cmplx_mult_cmplx_f32.c **** #else
 118:./Libraries/CMSIS/DSP/Source/ComplexMathFunctions/arm_cmplx_mult_cmplx_f32.c **** #if defined (ARM_MATH_LOOPUNROLL)
 119:./Libraries/CMSIS/DSP/Source/ComplexMathFunctions/arm_cmplx_mult_cmplx_f32.c **** 
 120:./Libraries/CMSIS/DSP/Source/ComplexMathFunctions/arm_cmplx_mult_cmplx_f32.c ****   /* Loop unrolling: Compute 4 outputs at a time */
 121:./Libraries/CMSIS/DSP/Source/ComplexMathFunctions/arm_cmplx_mult_cmplx_f32.c ****   blkCnt = numSamples >> 2U;
 122:./Libraries/CMSIS/DSP/Source/ComplexMathFunctions/arm_cmplx_mult_cmplx_f32.c **** 
 123:./Libraries/CMSIS/DSP/Source/ComplexMathFunctions/arm_cmplx_mult_cmplx_f32.c ****   while (blkCnt > 0U)
 124:./Libraries/CMSIS/DSP/Source/ComplexMathFunctions/arm_cmplx_mult_cmplx_f32.c ****   {
 125:./Libraries/CMSIS/DSP/Source/ComplexMathFunctions/arm_cmplx_mult_cmplx_f32.c ****     /* C[2 * i    ] = A[2 * i] * B[2 * i    ] - A[2 * i + 1] * B[2 * i + 1]. */
 126:./Libraries/CMSIS/DSP/Source/ComplexMathFunctions/arm_cmplx_mult_cmplx_f32.c ****     /* C[2 * i + 1] = A[2 * i] * B[2 * i + 1] + A[2 * i + 1] * B[2 * i    ]. */
ARM GAS  /tmp/ccOjSIur.s 			page 4


 127:./Libraries/CMSIS/DSP/Source/ComplexMathFunctions/arm_cmplx_mult_cmplx_f32.c **** 
 128:./Libraries/CMSIS/DSP/Source/ComplexMathFunctions/arm_cmplx_mult_cmplx_f32.c ****     a = *pSrcA++;
 129:./Libraries/CMSIS/DSP/Source/ComplexMathFunctions/arm_cmplx_mult_cmplx_f32.c ****     b = *pSrcA++;
 130:./Libraries/CMSIS/DSP/Source/ComplexMathFunctions/arm_cmplx_mult_cmplx_f32.c ****     c = *pSrcB++;
 131:./Libraries/CMSIS/DSP/Source/ComplexMathFunctions/arm_cmplx_mult_cmplx_f32.c ****     d = *pSrcB++;
 132:./Libraries/CMSIS/DSP/Source/ComplexMathFunctions/arm_cmplx_mult_cmplx_f32.c ****     /* store result in destination buffer. */
 133:./Libraries/CMSIS/DSP/Source/ComplexMathFunctions/arm_cmplx_mult_cmplx_f32.c ****     *pDst++ = (a * c) - (b * d);
 134:./Libraries/CMSIS/DSP/Source/ComplexMathFunctions/arm_cmplx_mult_cmplx_f32.c ****     *pDst++ = (a * d) + (b * c);
 135:./Libraries/CMSIS/DSP/Source/ComplexMathFunctions/arm_cmplx_mult_cmplx_f32.c **** 
 136:./Libraries/CMSIS/DSP/Source/ComplexMathFunctions/arm_cmplx_mult_cmplx_f32.c ****     a = *pSrcA++;
 137:./Libraries/CMSIS/DSP/Source/ComplexMathFunctions/arm_cmplx_mult_cmplx_f32.c ****     b = *pSrcA++;
 138:./Libraries/CMSIS/DSP/Source/ComplexMathFunctions/arm_cmplx_mult_cmplx_f32.c ****     c = *pSrcB++;
 139:./Libraries/CMSIS/DSP/Source/ComplexMathFunctions/arm_cmplx_mult_cmplx_f32.c ****     d = *pSrcB++;
 140:./Libraries/CMSIS/DSP/Source/ComplexMathFunctions/arm_cmplx_mult_cmplx_f32.c ****     *pDst++ = (a * c) - (b * d);
 141:./Libraries/CMSIS/DSP/Source/ComplexMathFunctions/arm_cmplx_mult_cmplx_f32.c ****     *pDst++ = (a * d) + (b * c);
 142:./Libraries/CMSIS/DSP/Source/ComplexMathFunctions/arm_cmplx_mult_cmplx_f32.c **** 
 143:./Libraries/CMSIS/DSP/Source/ComplexMathFunctions/arm_cmplx_mult_cmplx_f32.c ****     a = *pSrcA++;
 144:./Libraries/CMSIS/DSP/Source/ComplexMathFunctions/arm_cmplx_mult_cmplx_f32.c ****     b = *pSrcA++;
 145:./Libraries/CMSIS/DSP/Source/ComplexMathFunctions/arm_cmplx_mult_cmplx_f32.c ****     c = *pSrcB++;
 146:./Libraries/CMSIS/DSP/Source/ComplexMathFunctions/arm_cmplx_mult_cmplx_f32.c ****     d = *pSrcB++;
 147:./Libraries/CMSIS/DSP/Source/ComplexMathFunctions/arm_cmplx_mult_cmplx_f32.c ****     *pDst++ = (a * c) - (b * d);
 148:./Libraries/CMSIS/DSP/Source/ComplexMathFunctions/arm_cmplx_mult_cmplx_f32.c ****     *pDst++ = (a * d) + (b * c);
 149:./Libraries/CMSIS/DSP/Source/ComplexMathFunctions/arm_cmplx_mult_cmplx_f32.c **** 
 150:./Libraries/CMSIS/DSP/Source/ComplexMathFunctions/arm_cmplx_mult_cmplx_f32.c ****     a = *pSrcA++;
 151:./Libraries/CMSIS/DSP/Source/ComplexMathFunctions/arm_cmplx_mult_cmplx_f32.c ****     b = *pSrcA++;
 152:./Libraries/CMSIS/DSP/Source/ComplexMathFunctions/arm_cmplx_mult_cmplx_f32.c ****     c = *pSrcB++;
 153:./Libraries/CMSIS/DSP/Source/ComplexMathFunctions/arm_cmplx_mult_cmplx_f32.c ****     d = *pSrcB++;
 154:./Libraries/CMSIS/DSP/Source/ComplexMathFunctions/arm_cmplx_mult_cmplx_f32.c ****     *pDst++ = (a * c) - (b * d);
 155:./Libraries/CMSIS/DSP/Source/ComplexMathFunctions/arm_cmplx_mult_cmplx_f32.c ****     *pDst++ = (a * d) + (b * c);
 156:./Libraries/CMSIS/DSP/Source/ComplexMathFunctions/arm_cmplx_mult_cmplx_f32.c **** 
 157:./Libraries/CMSIS/DSP/Source/ComplexMathFunctions/arm_cmplx_mult_cmplx_f32.c ****     /* Decrement loop counter */
 158:./Libraries/CMSIS/DSP/Source/ComplexMathFunctions/arm_cmplx_mult_cmplx_f32.c ****     blkCnt--;
 159:./Libraries/CMSIS/DSP/Source/ComplexMathFunctions/arm_cmplx_mult_cmplx_f32.c ****   }
 160:./Libraries/CMSIS/DSP/Source/ComplexMathFunctions/arm_cmplx_mult_cmplx_f32.c **** 
 161:./Libraries/CMSIS/DSP/Source/ComplexMathFunctions/arm_cmplx_mult_cmplx_f32.c ****   /* Loop unrolling: Compute remaining outputs */
 162:./Libraries/CMSIS/DSP/Source/ComplexMathFunctions/arm_cmplx_mult_cmplx_f32.c ****   blkCnt = numSamples % 0x4U;
 163:./Libraries/CMSIS/DSP/Source/ComplexMathFunctions/arm_cmplx_mult_cmplx_f32.c **** 
 164:./Libraries/CMSIS/DSP/Source/ComplexMathFunctions/arm_cmplx_mult_cmplx_f32.c **** #else
 165:./Libraries/CMSIS/DSP/Source/ComplexMathFunctions/arm_cmplx_mult_cmplx_f32.c **** 
 166:./Libraries/CMSIS/DSP/Source/ComplexMathFunctions/arm_cmplx_mult_cmplx_f32.c ****   /* Initialize blkCnt with number of samples */
 167:./Libraries/CMSIS/DSP/Source/ComplexMathFunctions/arm_cmplx_mult_cmplx_f32.c ****   blkCnt = numSamples;
  47              		.loc 1 167 10
  48 000e 3B68     		ldr	r3, [r7]
  49 0010 7B62     		str	r3, [r7, #36]
 168:./Libraries/CMSIS/DSP/Source/ComplexMathFunctions/arm_cmplx_mult_cmplx_f32.c **** 
 169:./Libraries/CMSIS/DSP/Source/ComplexMathFunctions/arm_cmplx_mult_cmplx_f32.c **** #endif /* #if defined (ARM_MATH_LOOPUNROLL) */
 170:./Libraries/CMSIS/DSP/Source/ComplexMathFunctions/arm_cmplx_mult_cmplx_f32.c **** #endif /* #if defined(ARM_MATH_NEON) */
 171:./Libraries/CMSIS/DSP/Source/ComplexMathFunctions/arm_cmplx_mult_cmplx_f32.c **** 
 172:./Libraries/CMSIS/DSP/Source/ComplexMathFunctions/arm_cmplx_mult_cmplx_f32.c ****   while (blkCnt > 0U)
  50              		.loc 1 172 9
  51 0012 3CE0     		b	.L2
  52              	.L3:
 173:./Libraries/CMSIS/DSP/Source/ComplexMathFunctions/arm_cmplx_mult_cmplx_f32.c ****   {
 174:./Libraries/CMSIS/DSP/Source/ComplexMathFunctions/arm_cmplx_mult_cmplx_f32.c ****     /* C[2 * i    ] = A[2 * i] * B[2 * i    ] - A[2 * i + 1] * B[2 * i + 1]. */
 175:./Libraries/CMSIS/DSP/Source/ComplexMathFunctions/arm_cmplx_mult_cmplx_f32.c ****     /* C[2 * i + 1] = A[2 * i] * B[2 * i + 1] + A[2 * i + 1] * B[2 * i    ]. */
 176:./Libraries/CMSIS/DSP/Source/ComplexMathFunctions/arm_cmplx_mult_cmplx_f32.c **** 
 177:./Libraries/CMSIS/DSP/Source/ComplexMathFunctions/arm_cmplx_mult_cmplx_f32.c ****     a = *pSrcA++;
ARM GAS  /tmp/ccOjSIur.s 			page 5


  53              		.loc 1 177 15
  54 0014 FB68     		ldr	r3, [r7, #12]
  55 0016 1A1D     		adds	r2, r3, #4
  56 0018 FA60     		str	r2, [r7, #12]
  57              		.loc 1 177 7
  58 001a 1B68     		ldr	r3, [r3]	@ float
  59 001c 3B62     		str	r3, [r7, #32]	@ float
 178:./Libraries/CMSIS/DSP/Source/ComplexMathFunctions/arm_cmplx_mult_cmplx_f32.c ****     b = *pSrcA++;
  60              		.loc 1 178 15
  61 001e FB68     		ldr	r3, [r7, #12]
  62 0020 1A1D     		adds	r2, r3, #4
  63 0022 FA60     		str	r2, [r7, #12]
  64              		.loc 1 178 7
  65 0024 1B68     		ldr	r3, [r3]	@ float
  66 0026 FB61     		str	r3, [r7, #28]	@ float
 179:./Libraries/CMSIS/DSP/Source/ComplexMathFunctions/arm_cmplx_mult_cmplx_f32.c ****     c = *pSrcB++;
  67              		.loc 1 179 15
  68 0028 BB68     		ldr	r3, [r7, #8]
  69 002a 1A1D     		adds	r2, r3, #4
  70 002c BA60     		str	r2, [r7, #8]
  71              		.loc 1 179 7
  72 002e 1B68     		ldr	r3, [r3]	@ float
  73 0030 BB61     		str	r3, [r7, #24]	@ float
 180:./Libraries/CMSIS/DSP/Source/ComplexMathFunctions/arm_cmplx_mult_cmplx_f32.c ****     d = *pSrcB++;
  74              		.loc 1 180 15
  75 0032 BB68     		ldr	r3, [r7, #8]
  76 0034 1A1D     		adds	r2, r3, #4
  77 0036 BA60     		str	r2, [r7, #8]
  78              		.loc 1 180 7
  79 0038 1B68     		ldr	r3, [r3]	@ float
  80 003a 7B61     		str	r3, [r7, #20]	@ float
 181:./Libraries/CMSIS/DSP/Source/ComplexMathFunctions/arm_cmplx_mult_cmplx_f32.c **** 
 182:./Libraries/CMSIS/DSP/Source/ComplexMathFunctions/arm_cmplx_mult_cmplx_f32.c ****     /* store result in destination buffer. */
 183:./Libraries/CMSIS/DSP/Source/ComplexMathFunctions/arm_cmplx_mult_cmplx_f32.c ****     *pDst++ = (a * c) - (b * d);
  81              		.loc 1 183 18
  82 003c 97ED087A 		vldr.32	s14, [r7, #32]
  83 0040 D7ED067A 		vldr.32	s15, [r7, #24]
  84 0044 27EE277A 		vmul.f32	s14, s14, s15
  85              		.loc 1 183 28
  86 0048 D7ED076A 		vldr.32	s13, [r7, #28]
  87 004c D7ED057A 		vldr.32	s15, [r7, #20]
  88 0050 66EEA77A 		vmul.f32	s15, s13, s15
  89              		.loc 1 183 10
  90 0054 7B68     		ldr	r3, [r7, #4]
  91 0056 1A1D     		adds	r2, r3, #4
  92 0058 7A60     		str	r2, [r7, #4]
  93              		.loc 1 183 23
  94 005a 77EE677A 		vsub.f32	s15, s14, s15
  95              		.loc 1 183 13
  96 005e C3ED007A 		vstr.32	s15, [r3]
 184:./Libraries/CMSIS/DSP/Source/ComplexMathFunctions/arm_cmplx_mult_cmplx_f32.c ****     *pDst++ = (a * d) + (b * c);
  97              		.loc 1 184 18
  98 0062 97ED087A 		vldr.32	s14, [r7, #32]
  99 0066 D7ED057A 		vldr.32	s15, [r7, #20]
 100 006a 27EE277A 		vmul.f32	s14, s14, s15
 101              		.loc 1 184 28
 102 006e D7ED076A 		vldr.32	s13, [r7, #28]
ARM GAS  /tmp/ccOjSIur.s 			page 6


 103 0072 D7ED067A 		vldr.32	s15, [r7, #24]
 104 0076 66EEA77A 		vmul.f32	s15, s13, s15
 105              		.loc 1 184 10
 106 007a 7B68     		ldr	r3, [r7, #4]
 107 007c 1A1D     		adds	r2, r3, #4
 108 007e 7A60     		str	r2, [r7, #4]
 109              		.loc 1 184 23
 110 0080 77EE277A 		vadd.f32	s15, s14, s15
 111              		.loc 1 184 13
 112 0084 C3ED007A 		vstr.32	s15, [r3]
 185:./Libraries/CMSIS/DSP/Source/ComplexMathFunctions/arm_cmplx_mult_cmplx_f32.c **** 
 186:./Libraries/CMSIS/DSP/Source/ComplexMathFunctions/arm_cmplx_mult_cmplx_f32.c ****     /* Decrement loop counter */
 187:./Libraries/CMSIS/DSP/Source/ComplexMathFunctions/arm_cmplx_mult_cmplx_f32.c ****     blkCnt--;
 113              		.loc 1 187 11
 114 0088 7B6A     		ldr	r3, [r7, #36]
 115 008a 013B     		subs	r3, r3, #1
 116 008c 7B62     		str	r3, [r7, #36]
 117              	.L2:
 172:./Libraries/CMSIS/DSP/Source/ComplexMathFunctions/arm_cmplx_mult_cmplx_f32.c ****   {
 118              		.loc 1 172 9
 119 008e 7B6A     		ldr	r3, [r7, #36]
 120 0090 002B     		cmp	r3, #0
 121 0092 BFD1     		bne	.L3
 188:./Libraries/CMSIS/DSP/Source/ComplexMathFunctions/arm_cmplx_mult_cmplx_f32.c ****   }
 189:./Libraries/CMSIS/DSP/Source/ComplexMathFunctions/arm_cmplx_mult_cmplx_f32.c **** 
 190:./Libraries/CMSIS/DSP/Source/ComplexMathFunctions/arm_cmplx_mult_cmplx_f32.c **** }
 122              		.loc 1 190 1
 123 0094 00BF     		nop
 124 0096 00BF     		nop
 125 0098 2C37     		adds	r7, r7, #44
 126              	.LCFI3:
 127              		.cfi_def_cfa_offset 4
 128 009a BD46     		mov	sp, r7
 129              	.LCFI4:
 130              		.cfi_def_cfa_register 13
 131              		@ sp needed
 132 009c 5DF8047B 		ldr	r7, [sp], #4
 133              	.LCFI5:
 134              		.cfi_restore 7
 135              		.cfi_def_cfa_offset 0
 136 00a0 7047     		bx	lr
 137              		.cfi_endproc
 138              	.LFE145:
 140              		.text
 141              	.Letext0:
 142              		.file 2 "/usr/lib/gcc/arm-none-eabi/9.2.1/include/stdint.h"
 143              		.file 3 "/usr/lib/gcc/arm-none-eabi/9.2.1/include/stddef.h"
 144              		.file 4 "/usr/include/newlib/sys/_types.h"
 145              		.file 5 "/usr/include/newlib/sys/reent.h"
 146              		.file 6 "/usr/include/newlib/sys/lock.h"
 147              		.file 7 "/usr/include/newlib/math.h"
 148              		.file 8 "./Libraries/CMSIS/DSP/Include/arm_math.h"
ARM GAS  /tmp/ccOjSIur.s 			page 7

