ARM GAS  /tmp/ccX2G2eJ.s 			page 1


   1              		.cpu cortex-m7
   2              		.eabi_attribute 28, 1
   3              		.eabi_attribute 20, 1
   4              		.eabi_attribute 21, 1
   5              		.eabi_attribute 23, 3
   6              		.eabi_attribute 24, 1
   7              		.eabi_attribute 25, 1
   8              		.eabi_attribute 26, 1
   9              		.eabi_attribute 30, 6
  10              		.eabi_attribute 34, 1
  11              		.eabi_attribute 18, 4
  12              		.file	"arm_conv_partial_q31.c"
  13              		.text
  14              	.Ltext0:
  15              		.cfi_sections	.debug_frame
  16              		.section	.text.arm_conv_partial_q31,"ax",%progbits
  17              		.align	1
  18              		.global	arm_conv_partial_q31
  19              		.arch armv7e-m
  20              		.syntax unified
  21              		.thumb
  22              		.thumb_func
  23              		.fpu fpv5-d16
  25              	arm_conv_partial_q31:
  26              	.LFB145:
  27              		.file 1 "./Libraries/CMSIS/DSP/Source/FilteringFunctions/arm_conv_partial_q31.c"
   1:./Libraries/CMSIS/DSP/Source/FilteringFunctions/arm_conv_partial_q31.c **** /* ----------------------------------------------------------------------
   2:./Libraries/CMSIS/DSP/Source/FilteringFunctions/arm_conv_partial_q31.c ****  * Project:      CMSIS DSP Library
   3:./Libraries/CMSIS/DSP/Source/FilteringFunctions/arm_conv_partial_q31.c ****  * Title:        arm_conv_partial_q31.c
   4:./Libraries/CMSIS/DSP/Source/FilteringFunctions/arm_conv_partial_q31.c ****  * Description:  Partial convolution of Q31 sequences
   5:./Libraries/CMSIS/DSP/Source/FilteringFunctions/arm_conv_partial_q31.c ****  *
   6:./Libraries/CMSIS/DSP/Source/FilteringFunctions/arm_conv_partial_q31.c ****  * $Date:        18. March 2019
   7:./Libraries/CMSIS/DSP/Source/FilteringFunctions/arm_conv_partial_q31.c ****  * $Revision:    V1.6.0
   8:./Libraries/CMSIS/DSP/Source/FilteringFunctions/arm_conv_partial_q31.c ****  *
   9:./Libraries/CMSIS/DSP/Source/FilteringFunctions/arm_conv_partial_q31.c ****  * Target Processor: Cortex-M cores
  10:./Libraries/CMSIS/DSP/Source/FilteringFunctions/arm_conv_partial_q31.c ****  * -------------------------------------------------------------------- */
  11:./Libraries/CMSIS/DSP/Source/FilteringFunctions/arm_conv_partial_q31.c **** /*
  12:./Libraries/CMSIS/DSP/Source/FilteringFunctions/arm_conv_partial_q31.c ****  * Copyright (C) 2010-2019 ARM Limited or its affiliates. All rights reserved.
  13:./Libraries/CMSIS/DSP/Source/FilteringFunctions/arm_conv_partial_q31.c ****  *
  14:./Libraries/CMSIS/DSP/Source/FilteringFunctions/arm_conv_partial_q31.c ****  * SPDX-License-Identifier: Apache-2.0
  15:./Libraries/CMSIS/DSP/Source/FilteringFunctions/arm_conv_partial_q31.c ****  *
  16:./Libraries/CMSIS/DSP/Source/FilteringFunctions/arm_conv_partial_q31.c ****  * Licensed under the Apache License, Version 2.0 (the License); you may
  17:./Libraries/CMSIS/DSP/Source/FilteringFunctions/arm_conv_partial_q31.c ****  * not use this file except in compliance with the License.
  18:./Libraries/CMSIS/DSP/Source/FilteringFunctions/arm_conv_partial_q31.c ****  * You may obtain a copy of the License at
  19:./Libraries/CMSIS/DSP/Source/FilteringFunctions/arm_conv_partial_q31.c ****  *
  20:./Libraries/CMSIS/DSP/Source/FilteringFunctions/arm_conv_partial_q31.c ****  * www.apache.org/licenses/LICENSE-2.0
  21:./Libraries/CMSIS/DSP/Source/FilteringFunctions/arm_conv_partial_q31.c ****  *
  22:./Libraries/CMSIS/DSP/Source/FilteringFunctions/arm_conv_partial_q31.c ****  * Unless required by applicable law or agreed to in writing, software
  23:./Libraries/CMSIS/DSP/Source/FilteringFunctions/arm_conv_partial_q31.c ****  * distributed under the License is distributed on an AS IS BASIS, WITHOUT
  24:./Libraries/CMSIS/DSP/Source/FilteringFunctions/arm_conv_partial_q31.c ****  * WARRANTIES OR CONDITIONS OF ANY KIND, either express or implied.
  25:./Libraries/CMSIS/DSP/Source/FilteringFunctions/arm_conv_partial_q31.c ****  * See the License for the specific language governing permissions and
  26:./Libraries/CMSIS/DSP/Source/FilteringFunctions/arm_conv_partial_q31.c ****  * limitations under the License.
  27:./Libraries/CMSIS/DSP/Source/FilteringFunctions/arm_conv_partial_q31.c ****  */
  28:./Libraries/CMSIS/DSP/Source/FilteringFunctions/arm_conv_partial_q31.c **** 
  29:./Libraries/CMSIS/DSP/Source/FilteringFunctions/arm_conv_partial_q31.c **** #include "arm_math.h"
  30:./Libraries/CMSIS/DSP/Source/FilteringFunctions/arm_conv_partial_q31.c **** 
  31:./Libraries/CMSIS/DSP/Source/FilteringFunctions/arm_conv_partial_q31.c **** /**
ARM GAS  /tmp/ccX2G2eJ.s 			page 2


  32:./Libraries/CMSIS/DSP/Source/FilteringFunctions/arm_conv_partial_q31.c ****   @ingroup groupFilters
  33:./Libraries/CMSIS/DSP/Source/FilteringFunctions/arm_conv_partial_q31.c ****  */
  34:./Libraries/CMSIS/DSP/Source/FilteringFunctions/arm_conv_partial_q31.c **** 
  35:./Libraries/CMSIS/DSP/Source/FilteringFunctions/arm_conv_partial_q31.c **** /**
  36:./Libraries/CMSIS/DSP/Source/FilteringFunctions/arm_conv_partial_q31.c ****   @addtogroup PartialConv
  37:./Libraries/CMSIS/DSP/Source/FilteringFunctions/arm_conv_partial_q31.c ****   @{
  38:./Libraries/CMSIS/DSP/Source/FilteringFunctions/arm_conv_partial_q31.c ****  */
  39:./Libraries/CMSIS/DSP/Source/FilteringFunctions/arm_conv_partial_q31.c **** 
  40:./Libraries/CMSIS/DSP/Source/FilteringFunctions/arm_conv_partial_q31.c **** /**
  41:./Libraries/CMSIS/DSP/Source/FilteringFunctions/arm_conv_partial_q31.c ****   @brief         Partial convolution of Q31 sequences.
  42:./Libraries/CMSIS/DSP/Source/FilteringFunctions/arm_conv_partial_q31.c ****   @param[in]     pSrcA      points to the first input sequence
  43:./Libraries/CMSIS/DSP/Source/FilteringFunctions/arm_conv_partial_q31.c ****   @param[in]     srcALen    length of the first input sequence
  44:./Libraries/CMSIS/DSP/Source/FilteringFunctions/arm_conv_partial_q31.c ****   @param[in]     pSrcB      points to the second input sequence
  45:./Libraries/CMSIS/DSP/Source/FilteringFunctions/arm_conv_partial_q31.c ****   @param[in]     srcBLen    length of the second input sequence
  46:./Libraries/CMSIS/DSP/Source/FilteringFunctions/arm_conv_partial_q31.c ****   @param[out]    pDst       points to the location where the output result is written
  47:./Libraries/CMSIS/DSP/Source/FilteringFunctions/arm_conv_partial_q31.c ****   @param[in]     firstIndex is the first output sample to start with
  48:./Libraries/CMSIS/DSP/Source/FilteringFunctions/arm_conv_partial_q31.c ****   @param[in]     numPoints  is the number of output points to be computed
  49:./Libraries/CMSIS/DSP/Source/FilteringFunctions/arm_conv_partial_q31.c ****   @return        execution status
  50:./Libraries/CMSIS/DSP/Source/FilteringFunctions/arm_conv_partial_q31.c ****                    - \ref ARM_MATH_SUCCESS        : Operation successful
  51:./Libraries/CMSIS/DSP/Source/FilteringFunctions/arm_conv_partial_q31.c ****                    - \ref ARM_MATH_ARGUMENT_ERROR : requested subset is not in the range [0 srcALen
  52:./Libraries/CMSIS/DSP/Source/FilteringFunctions/arm_conv_partial_q31.c **** 
  53:./Libraries/CMSIS/DSP/Source/FilteringFunctions/arm_conv_partial_q31.c ****   @remark
  54:./Libraries/CMSIS/DSP/Source/FilteringFunctions/arm_conv_partial_q31.c ****                    Refer to \ref arm_conv_partial_fast_q31() for a faster but less precise implemen
  55:./Libraries/CMSIS/DSP/Source/FilteringFunctions/arm_conv_partial_q31.c ****  */
  56:./Libraries/CMSIS/DSP/Source/FilteringFunctions/arm_conv_partial_q31.c **** 
  57:./Libraries/CMSIS/DSP/Source/FilteringFunctions/arm_conv_partial_q31.c **** arm_status arm_conv_partial_q31(
  58:./Libraries/CMSIS/DSP/Source/FilteringFunctions/arm_conv_partial_q31.c ****   const q31_t * pSrcA,
  59:./Libraries/CMSIS/DSP/Source/FilteringFunctions/arm_conv_partial_q31.c ****         uint32_t srcALen,
  60:./Libraries/CMSIS/DSP/Source/FilteringFunctions/arm_conv_partial_q31.c ****   const q31_t * pSrcB,
  61:./Libraries/CMSIS/DSP/Source/FilteringFunctions/arm_conv_partial_q31.c ****         uint32_t srcBLen,
  62:./Libraries/CMSIS/DSP/Source/FilteringFunctions/arm_conv_partial_q31.c ****         q31_t * pDst,
  63:./Libraries/CMSIS/DSP/Source/FilteringFunctions/arm_conv_partial_q31.c ****         uint32_t firstIndex,
  64:./Libraries/CMSIS/DSP/Source/FilteringFunctions/arm_conv_partial_q31.c ****         uint32_t numPoints)
  65:./Libraries/CMSIS/DSP/Source/FilteringFunctions/arm_conv_partial_q31.c **** {
  28              		.loc 1 65 1
  29              		.cfi_startproc
  30              		@ args = 12, pretend = 0, frame = 104
  31              		@ frame_needed = 1, uses_anonymous_args = 0
  32              		@ link register save eliminated.
  33 0000 2DE9F00F 		push	{r4, r5, r6, r7, r8, r9, r10, fp}
  34              	.LCFI0:
  35              		.cfi_def_cfa_offset 32
  36              		.cfi_offset 4, -32
  37              		.cfi_offset 5, -28
  38              		.cfi_offset 6, -24
  39              		.cfi_offset 7, -20
  40              		.cfi_offset 8, -16
  41              		.cfi_offset 9, -12
  42              		.cfi_offset 10, -8
  43              		.cfi_offset 11, -4
  44 0004 9AB0     		sub	sp, sp, #104
  45              	.LCFI1:
  46              		.cfi_def_cfa_offset 136
  47 0006 00AF     		add	r7, sp, #0
  48              	.LCFI2:
  49              		.cfi_def_cfa_register 7
  50 0008 7861     		str	r0, [r7, #20]
ARM GAS  /tmp/ccX2G2eJ.s 			page 3


  51 000a 3961     		str	r1, [r7, #16]
  52 000c FA60     		str	r2, [r7, #12]
  53 000e BB60     		str	r3, [r7, #8]
  66:./Libraries/CMSIS/DSP/Source/FilteringFunctions/arm_conv_partial_q31.c **** 
  67:./Libraries/CMSIS/DSP/Source/FilteringFunctions/arm_conv_partial_q31.c **** #if (1)
  68:./Libraries/CMSIS/DSP/Source/FilteringFunctions/arm_conv_partial_q31.c **** //#if !defined(ARM_MATH_CM0_FAMILY)
  69:./Libraries/CMSIS/DSP/Source/FilteringFunctions/arm_conv_partial_q31.c **** 
  70:./Libraries/CMSIS/DSP/Source/FilteringFunctions/arm_conv_partial_q31.c ****   const q31_t *pIn1;                                   /* InputA pointer */
  71:./Libraries/CMSIS/DSP/Source/FilteringFunctions/arm_conv_partial_q31.c ****   const q31_t *pIn2;                                   /* InputB pointer */
  72:./Libraries/CMSIS/DSP/Source/FilteringFunctions/arm_conv_partial_q31.c ****         q31_t *pOut = pDst;                            /* Output pointer */
  54              		.loc 1 72 16
  55 0010 D7F88830 		ldr	r3, [r7, #136]
  56 0014 FB65     		str	r3, [r7, #92]
  73:./Libraries/CMSIS/DSP/Source/FilteringFunctions/arm_conv_partial_q31.c ****   const q31_t *px;                                     /* Intermediate inputA pointer */
  74:./Libraries/CMSIS/DSP/Source/FilteringFunctions/arm_conv_partial_q31.c ****   const q31_t *py;                                     /* Intermediate inputB pointer */
  75:./Libraries/CMSIS/DSP/Source/FilteringFunctions/arm_conv_partial_q31.c ****   const q31_t *pSrc1, *pSrc2;                          /* Intermediate pointers */
  76:./Libraries/CMSIS/DSP/Source/FilteringFunctions/arm_conv_partial_q31.c ****         q63_t sum;                                     /* Accumulator */
  77:./Libraries/CMSIS/DSP/Source/FilteringFunctions/arm_conv_partial_q31.c ****         uint32_t j, k, count, blkCnt, check;
  78:./Libraries/CMSIS/DSP/Source/FilteringFunctions/arm_conv_partial_q31.c ****         int32_t blockSize1, blockSize2, blockSize3;    /* Loop counters */
  79:./Libraries/CMSIS/DSP/Source/FilteringFunctions/arm_conv_partial_q31.c ****         arm_status status;                             /* Status of Partial convolution */
  80:./Libraries/CMSIS/DSP/Source/FilteringFunctions/arm_conv_partial_q31.c **** 
  81:./Libraries/CMSIS/DSP/Source/FilteringFunctions/arm_conv_partial_q31.c **** #if defined (ARM_MATH_LOOPUNROLL)
  82:./Libraries/CMSIS/DSP/Source/FilteringFunctions/arm_conv_partial_q31.c ****         q63_t acc0, acc1, acc2;                        /* Accumulator */
  83:./Libraries/CMSIS/DSP/Source/FilteringFunctions/arm_conv_partial_q31.c ****         q31_t x0, x1, x2, c0;                          /* Temporary variables */
  84:./Libraries/CMSIS/DSP/Source/FilteringFunctions/arm_conv_partial_q31.c **** #endif
  85:./Libraries/CMSIS/DSP/Source/FilteringFunctions/arm_conv_partial_q31.c **** 
  86:./Libraries/CMSIS/DSP/Source/FilteringFunctions/arm_conv_partial_q31.c ****   /* Check for range of output samples to be calculated */
  87:./Libraries/CMSIS/DSP/Source/FilteringFunctions/arm_conv_partial_q31.c ****   if ((firstIndex + numPoints) > ((srcALen + (srcBLen - 1U))))
  57              		.loc 1 87 19
  58 0016 D7F88C20 		ldr	r2, [r7, #140]
  59 001a D7F89030 		ldr	r3, [r7, #144]
  60 001e 1A44     		add	r2, r2, r3
  61              		.loc 1 87 44
  62 0020 B968     		ldr	r1, [r7, #8]
  63 0022 3B69     		ldr	r3, [r7, #16]
  64 0024 0B44     		add	r3, r3, r1
  65 0026 013B     		subs	r3, r3, #1
  66              		.loc 1 87 6
  67 0028 9A42     		cmp	r2, r3
  68 002a 03D9     		bls	.L2
  88:./Libraries/CMSIS/DSP/Source/FilteringFunctions/arm_conv_partial_q31.c ****   {
  89:./Libraries/CMSIS/DSP/Source/FilteringFunctions/arm_conv_partial_q31.c ****     /* Set status as ARM_MATH_ARGUMENT_ERROR */
  90:./Libraries/CMSIS/DSP/Source/FilteringFunctions/arm_conv_partial_q31.c ****     status = ARM_MATH_ARGUMENT_ERROR;
  69              		.loc 1 90 12
  70 002c FF23     		movs	r3, #255
  71 002e 87F82B30 		strb	r3, [r7, #43]
  72 0032 E3E1     		b	.L3
  73              	.L2:
  91:./Libraries/CMSIS/DSP/Source/FilteringFunctions/arm_conv_partial_q31.c ****   }
  92:./Libraries/CMSIS/DSP/Source/FilteringFunctions/arm_conv_partial_q31.c ****   else
  93:./Libraries/CMSIS/DSP/Source/FilteringFunctions/arm_conv_partial_q31.c ****   {
  94:./Libraries/CMSIS/DSP/Source/FilteringFunctions/arm_conv_partial_q31.c ****     /* The algorithm implementation is based on the lengths of the inputs. */
  95:./Libraries/CMSIS/DSP/Source/FilteringFunctions/arm_conv_partial_q31.c ****     /* srcB is always made to slide across srcA. */
  96:./Libraries/CMSIS/DSP/Source/FilteringFunctions/arm_conv_partial_q31.c ****     /* So srcBLen is always considered as shorter or equal to srcALen */
  97:./Libraries/CMSIS/DSP/Source/FilteringFunctions/arm_conv_partial_q31.c ****     if (srcALen >= srcBLen)
  74              		.loc 1 97 8
  75 0034 3A69     		ldr	r2, [r7, #16]
ARM GAS  /tmp/ccX2G2eJ.s 			page 4


  76 0036 BB68     		ldr	r3, [r7, #8]
  77 0038 9A42     		cmp	r2, r3
  78 003a 04D3     		bcc	.L4
  98:./Libraries/CMSIS/DSP/Source/FilteringFunctions/arm_conv_partial_q31.c ****     {
  99:./Libraries/CMSIS/DSP/Source/FilteringFunctions/arm_conv_partial_q31.c ****       /* Initialization of inputA pointer */
 100:./Libraries/CMSIS/DSP/Source/FilteringFunctions/arm_conv_partial_q31.c ****       pIn1 = pSrcA;
  79              		.loc 1 100 12
  80 003c 7B69     		ldr	r3, [r7, #20]
  81 003e 7B66     		str	r3, [r7, #100]
 101:./Libraries/CMSIS/DSP/Source/FilteringFunctions/arm_conv_partial_q31.c **** 
 102:./Libraries/CMSIS/DSP/Source/FilteringFunctions/arm_conv_partial_q31.c ****       /* Initialization of inputB pointer */
 103:./Libraries/CMSIS/DSP/Source/FilteringFunctions/arm_conv_partial_q31.c ****       pIn2 = pSrcB;
  82              		.loc 1 103 12
  83 0040 FB68     		ldr	r3, [r7, #12]
  84 0042 3B66     		str	r3, [r7, #96]
  85 0044 09E0     		b	.L5
  86              	.L4:
 104:./Libraries/CMSIS/DSP/Source/FilteringFunctions/arm_conv_partial_q31.c ****     }
 105:./Libraries/CMSIS/DSP/Source/FilteringFunctions/arm_conv_partial_q31.c ****     else
 106:./Libraries/CMSIS/DSP/Source/FilteringFunctions/arm_conv_partial_q31.c ****     {
 107:./Libraries/CMSIS/DSP/Source/FilteringFunctions/arm_conv_partial_q31.c ****       /* Initialization of inputA pointer */
 108:./Libraries/CMSIS/DSP/Source/FilteringFunctions/arm_conv_partial_q31.c ****       pIn1 = pSrcB;
  87              		.loc 1 108 12
  88 0046 FB68     		ldr	r3, [r7, #12]
  89 0048 7B66     		str	r3, [r7, #100]
 109:./Libraries/CMSIS/DSP/Source/FilteringFunctions/arm_conv_partial_q31.c **** 
 110:./Libraries/CMSIS/DSP/Source/FilteringFunctions/arm_conv_partial_q31.c ****       /* Initialization of inputB pointer */
 111:./Libraries/CMSIS/DSP/Source/FilteringFunctions/arm_conv_partial_q31.c ****       pIn2 = pSrcA;
  90              		.loc 1 111 12
  91 004a 7B69     		ldr	r3, [r7, #20]
  92 004c 3B66     		str	r3, [r7, #96]
 112:./Libraries/CMSIS/DSP/Source/FilteringFunctions/arm_conv_partial_q31.c **** 
 113:./Libraries/CMSIS/DSP/Source/FilteringFunctions/arm_conv_partial_q31.c ****       /* srcBLen is always considered as shorter or equal to srcALen */
 114:./Libraries/CMSIS/DSP/Source/FilteringFunctions/arm_conv_partial_q31.c ****       j = srcBLen;
  93              		.loc 1 114 9
  94 004e BB68     		ldr	r3, [r7, #8]
  95 0050 7B62     		str	r3, [r7, #36]
 115:./Libraries/CMSIS/DSP/Source/FilteringFunctions/arm_conv_partial_q31.c ****       srcBLen = srcALen;
  96              		.loc 1 115 15
  97 0052 3B69     		ldr	r3, [r7, #16]
  98 0054 BB60     		str	r3, [r7, #8]
 116:./Libraries/CMSIS/DSP/Source/FilteringFunctions/arm_conv_partial_q31.c ****       srcALen = j;
  99              		.loc 1 116 15
 100 0056 7B6A     		ldr	r3, [r7, #36]
 101 0058 3B61     		str	r3, [r7, #16]
 102              	.L5:
 117:./Libraries/CMSIS/DSP/Source/FilteringFunctions/arm_conv_partial_q31.c ****     }
 118:./Libraries/CMSIS/DSP/Source/FilteringFunctions/arm_conv_partial_q31.c **** 
 119:./Libraries/CMSIS/DSP/Source/FilteringFunctions/arm_conv_partial_q31.c ****     /* Conditions to check which loopCounter holds
 120:./Libraries/CMSIS/DSP/Source/FilteringFunctions/arm_conv_partial_q31.c ****      * the first and last indices of the output samples to be calculated. */
 121:./Libraries/CMSIS/DSP/Source/FilteringFunctions/arm_conv_partial_q31.c ****     check = firstIndex + numPoints;
 103              		.loc 1 121 11
 104 005a D7F88C20 		ldr	r2, [r7, #140]
 105 005e D7F89030 		ldr	r3, [r7, #144]
 106 0062 1344     		add	r3, r3, r2
 107 0064 3B62     		str	r3, [r7, #32]
 122:./Libraries/CMSIS/DSP/Source/FilteringFunctions/arm_conv_partial_q31.c ****     blockSize3 = ((int32_t)check > (int32_t)srcALen) ? (int32_t)check - (int32_t)srcALen : 0;
ARM GAS  /tmp/ccX2G2eJ.s 			page 5


 108              		.loc 1 122 19
 109 0066 3A6A     		ldr	r2, [r7, #32]
 110              		.loc 1 122 36
 111 0068 3B69     		ldr	r3, [r7, #16]
 112              		.loc 1 122 90
 113 006a 9A42     		cmp	r2, r3
 114 006c 03DD     		ble	.L6
 115              		.loc 1 122 56 discriminator 1
 116 006e 3A6A     		ldr	r2, [r7, #32]
 117              		.loc 1 122 73 discriminator 1
 118 0070 3B69     		ldr	r3, [r7, #16]
 119              		.loc 1 122 90 discriminator 1
 120 0072 D31A     		subs	r3, r2, r3
 121 0074 00E0     		b	.L7
 122              	.L6:
 123              		.loc 1 122 90 is_stmt 0 discriminator 2
 124 0076 0023     		movs	r3, #0
 125              	.L7:
 126              		.loc 1 122 16 is_stmt 1 discriminator 4
 127 0078 FB62     		str	r3, [r7, #44]
 123:./Libraries/CMSIS/DSP/Source/FilteringFunctions/arm_conv_partial_q31.c ****     blockSize3 = ((int32_t)firstIndex > (int32_t)srcALen - 1) ? blockSize3 - (int32_t)firstIndex + 
 128              		.loc 1 123 41 discriminator 4
 129 007a 3A69     		ldr	r2, [r7, #16]
 130              		.loc 1 123 19 discriminator 4
 131 007c D7F88C30 		ldr	r3, [r7, #140]
 132              		.loc 1 123 117 discriminator 4
 133 0080 9A42     		cmp	r2, r3
 134 0082 06DC     		bgt	.L8
 135              		.loc 1 123 78 discriminator 1
 136 0084 D7F88C30 		ldr	r3, [r7, #140]
 137              		.loc 1 123 76 discriminator 1
 138 0088 FA6A     		ldr	r2, [r7, #44]
 139 008a D21A     		subs	r2, r2, r3
 140              		.loc 1 123 100 discriminator 1
 141 008c 3B69     		ldr	r3, [r7, #16]
 142              		.loc 1 123 117 discriminator 1
 143 008e 1344     		add	r3, r3, r2
 144 0090 00E0     		b	.L9
 145              	.L8:
 146              		.loc 1 123 117 is_stmt 0 discriminator 2
 147 0092 FB6A     		ldr	r3, [r7, #44]
 148              	.L9:
 149              		.loc 1 123 16 is_stmt 1 discriminator 4
 150 0094 FB62     		str	r3, [r7, #44]
 124:./Libraries/CMSIS/DSP/Source/FilteringFunctions/arm_conv_partial_q31.c ****     blockSize1 = ((int32_t) srcBLen - 1) - (int32_t) firstIndex;
 151              		.loc 1 124 42 discriminator 4
 152 0096 BA68     		ldr	r2, [r7, #8]
 153 0098 D7F88C30 		ldr	r3, [r7, #140]
 154 009c D31A     		subs	r3, r2, r3
 155 009e 013B     		subs	r3, r3, #1
 156              		.loc 1 124 16 discriminator 4
 157 00a0 3B63     		str	r3, [r7, #48]
 125:./Libraries/CMSIS/DSP/Source/FilteringFunctions/arm_conv_partial_q31.c ****     blockSize1 = (blockSize1 > 0) ? ((check > (srcBLen - 1U)) ? blockSize1 : (int32_t) numPoints) :
 158              		.loc 1 125 99 discriminator 4
 159 00a2 3B6B     		ldr	r3, [r7, #48]
 160 00a4 002B     		cmp	r3, #0
 161 00a6 09DD     		ble	.L10
ARM GAS  /tmp/ccX2G2eJ.s 			page 6


 162              		.loc 1 125 56 discriminator 1
 163 00a8 BB68     		ldr	r3, [r7, #8]
 164 00aa 013B     		subs	r3, r3, #1
 165              		.loc 1 125 76 discriminator 1
 166 00ac 3A6A     		ldr	r2, [r7, #32]
 167 00ae 9A42     		cmp	r2, r3
 168 00b0 01D9     		bls	.L11
 169              		.loc 1 125 76 is_stmt 0 discriminator 3
 170 00b2 3B6B     		ldr	r3, [r7, #48]
 171 00b4 03E0     		b	.L13
 172              	.L11:
 173              		.loc 1 125 76 discriminator 4
 174 00b6 D7F89030 		ldr	r3, [r7, #144]
 175 00ba 00E0     		b	.L13
 176              	.L10:
 177              		.loc 1 125 99 is_stmt 1 discriminator 2
 178 00bc 0023     		movs	r3, #0
 179              	.L13:
 180              		.loc 1 125 16 discriminator 8
 181 00be 3B63     		str	r3, [r7, #48]
 126:./Libraries/CMSIS/DSP/Source/FilteringFunctions/arm_conv_partial_q31.c ****     blockSize2 = (int32_t) check - ((blockSize3 + blockSize1) + (int32_t) firstIndex);
 182              		.loc 1 126 18 discriminator 8
 183 00c0 3A6A     		ldr	r2, [r7, #32]
 184              		.loc 1 126 49 discriminator 8
 185 00c2 F96A     		ldr	r1, [r7, #44]
 186 00c4 3B6B     		ldr	r3, [r7, #48]
 187 00c6 1944     		add	r1, r1, r3
 188              		.loc 1 126 65 discriminator 8
 189 00c8 D7F88C30 		ldr	r3, [r7, #140]
 190              		.loc 1 126 63 discriminator 8
 191 00cc 0B44     		add	r3, r3, r1
 192              		.loc 1 126 16 discriminator 8
 193 00ce D31A     		subs	r3, r2, r3
 194 00d0 FB61     		str	r3, [r7, #28]
 127:./Libraries/CMSIS/DSP/Source/FilteringFunctions/arm_conv_partial_q31.c ****     blockSize2 = (blockSize2 > 0) ? blockSize2 : 0;
 195              		.loc 1 127 16 discriminator 8
 196 00d2 FB69     		ldr	r3, [r7, #28]
 197 00d4 23EAE373 		bic	r3, r3, r3, asr #31
 198 00d8 FB61     		str	r3, [r7, #28]
 128:./Libraries/CMSIS/DSP/Source/FilteringFunctions/arm_conv_partial_q31.c **** 
 129:./Libraries/CMSIS/DSP/Source/FilteringFunctions/arm_conv_partial_q31.c ****     /* conv(x,y) at n = x[n] * y[0] + x[n-1] * y[1] + x[n-2] * y[2] + ...+ x[n-N+1] * y[N -1] */
 130:./Libraries/CMSIS/DSP/Source/FilteringFunctions/arm_conv_partial_q31.c ****     /* The function is internally
 131:./Libraries/CMSIS/DSP/Source/FilteringFunctions/arm_conv_partial_q31.c ****      * divided into three stages according to the number of multiplications that has to be
 132:./Libraries/CMSIS/DSP/Source/FilteringFunctions/arm_conv_partial_q31.c ****      * taken place between inputA samples and inputB samples. In the first stage of the
 133:./Libraries/CMSIS/DSP/Source/FilteringFunctions/arm_conv_partial_q31.c ****      * algorithm, the multiplications increase by one for every iteration.
 134:./Libraries/CMSIS/DSP/Source/FilteringFunctions/arm_conv_partial_q31.c ****      * In the second stage of the algorithm, srcBLen number of multiplications are done.
 135:./Libraries/CMSIS/DSP/Source/FilteringFunctions/arm_conv_partial_q31.c ****      * In the third stage of the algorithm, the multiplications decrease by one
 136:./Libraries/CMSIS/DSP/Source/FilteringFunctions/arm_conv_partial_q31.c ****      * for every iteration. */
 137:./Libraries/CMSIS/DSP/Source/FilteringFunctions/arm_conv_partial_q31.c **** 
 138:./Libraries/CMSIS/DSP/Source/FilteringFunctions/arm_conv_partial_q31.c ****     /* Set the output pointer to point to the firstIndex
 139:./Libraries/CMSIS/DSP/Source/FilteringFunctions/arm_conv_partial_q31.c ****      * of the output sample to be calculated. */
 140:./Libraries/CMSIS/DSP/Source/FilteringFunctions/arm_conv_partial_q31.c ****     pOut = pDst + firstIndex;
 199              		.loc 1 140 17 discriminator 8
 200 00da D7F88C30 		ldr	r3, [r7, #140]
 201 00de 9B00     		lsls	r3, r3, #2
 202              		.loc 1 140 10 discriminator 8
 203 00e0 D7F88820 		ldr	r2, [r7, #136]
ARM GAS  /tmp/ccX2G2eJ.s 			page 7


 204 00e4 1344     		add	r3, r3, r2
 205 00e6 FB65     		str	r3, [r7, #92]
 141:./Libraries/CMSIS/DSP/Source/FilteringFunctions/arm_conv_partial_q31.c **** 
 142:./Libraries/CMSIS/DSP/Source/FilteringFunctions/arm_conv_partial_q31.c ****     /* --------------------------
 143:./Libraries/CMSIS/DSP/Source/FilteringFunctions/arm_conv_partial_q31.c ****      * Initializations of stage1
 144:./Libraries/CMSIS/DSP/Source/FilteringFunctions/arm_conv_partial_q31.c ****      * -------------------------*/
 145:./Libraries/CMSIS/DSP/Source/FilteringFunctions/arm_conv_partial_q31.c **** 
 146:./Libraries/CMSIS/DSP/Source/FilteringFunctions/arm_conv_partial_q31.c ****     /* sum = x[0] * y[0]
 147:./Libraries/CMSIS/DSP/Source/FilteringFunctions/arm_conv_partial_q31.c ****      * sum = x[0] * y[1] + x[1] * y[0]
 148:./Libraries/CMSIS/DSP/Source/FilteringFunctions/arm_conv_partial_q31.c ****      * ....
 149:./Libraries/CMSIS/DSP/Source/FilteringFunctions/arm_conv_partial_q31.c ****      * sum = x[0] * y[srcBlen - 1] + x[1] * y[srcBlen - 2] +...+ x[srcBLen - 1] * y[0]
 150:./Libraries/CMSIS/DSP/Source/FilteringFunctions/arm_conv_partial_q31.c ****      */
 151:./Libraries/CMSIS/DSP/Source/FilteringFunctions/arm_conv_partial_q31.c **** 
 152:./Libraries/CMSIS/DSP/Source/FilteringFunctions/arm_conv_partial_q31.c ****     /* In this stage the MAC operations are increased by 1 for every iteration.
 153:./Libraries/CMSIS/DSP/Source/FilteringFunctions/arm_conv_partial_q31.c ****        The count variable holds the number of MAC operations performed.
 154:./Libraries/CMSIS/DSP/Source/FilteringFunctions/arm_conv_partial_q31.c ****        Since the partial convolution starts from firstIndex
 155:./Libraries/CMSIS/DSP/Source/FilteringFunctions/arm_conv_partial_q31.c ****        Number of Macs to be performed is firstIndex + 1 */
 156:./Libraries/CMSIS/DSP/Source/FilteringFunctions/arm_conv_partial_q31.c ****     count = 1U + firstIndex;
 206              		.loc 1 156 11 discriminator 8
 207 00e8 D7F88C30 		ldr	r3, [r7, #140]
 208 00ec 0133     		adds	r3, r3, #1
 209 00ee BB63     		str	r3, [r7, #56]
 157:./Libraries/CMSIS/DSP/Source/FilteringFunctions/arm_conv_partial_q31.c **** 
 158:./Libraries/CMSIS/DSP/Source/FilteringFunctions/arm_conv_partial_q31.c ****     /* Working pointer of inputA */
 159:./Libraries/CMSIS/DSP/Source/FilteringFunctions/arm_conv_partial_q31.c ****     px = pIn1;
 210              		.loc 1 159 8 discriminator 8
 211 00f0 7B6E     		ldr	r3, [r7, #100]
 212 00f2 BB65     		str	r3, [r7, #88]
 160:./Libraries/CMSIS/DSP/Source/FilteringFunctions/arm_conv_partial_q31.c **** 
 161:./Libraries/CMSIS/DSP/Source/FilteringFunctions/arm_conv_partial_q31.c ****     /* Working pointer of inputB */
 162:./Libraries/CMSIS/DSP/Source/FilteringFunctions/arm_conv_partial_q31.c ****     pSrc2 = pIn2 + firstIndex;
 213              		.loc 1 162 18 discriminator 8
 214 00f4 D7F88C30 		ldr	r3, [r7, #140]
 215 00f8 9B00     		lsls	r3, r3, #2
 216              		.loc 1 162 11 discriminator 8
 217 00fa 3A6E     		ldr	r2, [r7, #96]
 218 00fc 1344     		add	r3, r3, r2
 219 00fe FB64     		str	r3, [r7, #76]
 163:./Libraries/CMSIS/DSP/Source/FilteringFunctions/arm_conv_partial_q31.c ****     py = pSrc2;
 220              		.loc 1 163 8 discriminator 8
 221 0100 FB6C     		ldr	r3, [r7, #76]
 222 0102 7B65     		str	r3, [r7, #84]
 164:./Libraries/CMSIS/DSP/Source/FilteringFunctions/arm_conv_partial_q31.c **** 
 165:./Libraries/CMSIS/DSP/Source/FilteringFunctions/arm_conv_partial_q31.c ****     /* ------------------------
 166:./Libraries/CMSIS/DSP/Source/FilteringFunctions/arm_conv_partial_q31.c ****      * Stage1 process
 167:./Libraries/CMSIS/DSP/Source/FilteringFunctions/arm_conv_partial_q31.c ****      * ----------------------*/
 168:./Libraries/CMSIS/DSP/Source/FilteringFunctions/arm_conv_partial_q31.c **** 
 169:./Libraries/CMSIS/DSP/Source/FilteringFunctions/arm_conv_partial_q31.c ****     /* The first stage starts here */
 170:./Libraries/CMSIS/DSP/Source/FilteringFunctions/arm_conv_partial_q31.c ****     while (blockSize1 > 0U)
 223              		.loc 1 170 11 discriminator 8
 224 0104 4CE0     		b	.L14
 225              	.L17:
 171:./Libraries/CMSIS/DSP/Source/FilteringFunctions/arm_conv_partial_q31.c ****     {
 172:./Libraries/CMSIS/DSP/Source/FilteringFunctions/arm_conv_partial_q31.c ****       /* Accumulator is made zero for every iteration */
 173:./Libraries/CMSIS/DSP/Source/FilteringFunctions/arm_conv_partial_q31.c ****       sum = 0;
 226              		.loc 1 173 11
 227 0106 4FF00002 		mov	r2, #0
ARM GAS  /tmp/ccX2G2eJ.s 			page 8


 228 010a 4FF00003 		mov	r3, #0
 229 010e C7E91023 		strd	r2, [r7, #64]
 174:./Libraries/CMSIS/DSP/Source/FilteringFunctions/arm_conv_partial_q31.c **** 
 175:./Libraries/CMSIS/DSP/Source/FilteringFunctions/arm_conv_partial_q31.c **** #if defined (ARM_MATH_LOOPUNROLL)
 176:./Libraries/CMSIS/DSP/Source/FilteringFunctions/arm_conv_partial_q31.c **** 
 177:./Libraries/CMSIS/DSP/Source/FilteringFunctions/arm_conv_partial_q31.c ****       /* Loop unrolling: Compute 4 outputs at a time */
 178:./Libraries/CMSIS/DSP/Source/FilteringFunctions/arm_conv_partial_q31.c ****       k = count >> 2U;
 179:./Libraries/CMSIS/DSP/Source/FilteringFunctions/arm_conv_partial_q31.c **** 
 180:./Libraries/CMSIS/DSP/Source/FilteringFunctions/arm_conv_partial_q31.c ****       while (k > 0U)
 181:./Libraries/CMSIS/DSP/Source/FilteringFunctions/arm_conv_partial_q31.c ****       {
 182:./Libraries/CMSIS/DSP/Source/FilteringFunctions/arm_conv_partial_q31.c ****         /* x[0] * y[srcBLen - 1] */
 183:./Libraries/CMSIS/DSP/Source/FilteringFunctions/arm_conv_partial_q31.c ****         sum += (q63_t) *px++ * (*py--);
 184:./Libraries/CMSIS/DSP/Source/FilteringFunctions/arm_conv_partial_q31.c **** 
 185:./Libraries/CMSIS/DSP/Source/FilteringFunctions/arm_conv_partial_q31.c ****         /* x[1] * y[srcBLen - 2] */
 186:./Libraries/CMSIS/DSP/Source/FilteringFunctions/arm_conv_partial_q31.c ****         sum += (q63_t) *px++ * (*py--);
 187:./Libraries/CMSIS/DSP/Source/FilteringFunctions/arm_conv_partial_q31.c **** 
 188:./Libraries/CMSIS/DSP/Source/FilteringFunctions/arm_conv_partial_q31.c ****         /* x[2] * y[srcBLen - 3] */
 189:./Libraries/CMSIS/DSP/Source/FilteringFunctions/arm_conv_partial_q31.c ****         sum += (q63_t) *px++ * (*py--);
 190:./Libraries/CMSIS/DSP/Source/FilteringFunctions/arm_conv_partial_q31.c **** 
 191:./Libraries/CMSIS/DSP/Source/FilteringFunctions/arm_conv_partial_q31.c ****         /* x[3] * y[srcBLen - 4] */
 192:./Libraries/CMSIS/DSP/Source/FilteringFunctions/arm_conv_partial_q31.c ****         sum += (q63_t) *px++ * (*py--);
 193:./Libraries/CMSIS/DSP/Source/FilteringFunctions/arm_conv_partial_q31.c **** 
 194:./Libraries/CMSIS/DSP/Source/FilteringFunctions/arm_conv_partial_q31.c ****         /* Decrement loop counter */
 195:./Libraries/CMSIS/DSP/Source/FilteringFunctions/arm_conv_partial_q31.c ****         k--;
 196:./Libraries/CMSIS/DSP/Source/FilteringFunctions/arm_conv_partial_q31.c ****       }
 197:./Libraries/CMSIS/DSP/Source/FilteringFunctions/arm_conv_partial_q31.c **** 
 198:./Libraries/CMSIS/DSP/Source/FilteringFunctions/arm_conv_partial_q31.c ****       /* Loop unrolling: Compute remaining outputs */
 199:./Libraries/CMSIS/DSP/Source/FilteringFunctions/arm_conv_partial_q31.c ****       k = count % 0x4U;
 200:./Libraries/CMSIS/DSP/Source/FilteringFunctions/arm_conv_partial_q31.c **** 
 201:./Libraries/CMSIS/DSP/Source/FilteringFunctions/arm_conv_partial_q31.c **** #else
 202:./Libraries/CMSIS/DSP/Source/FilteringFunctions/arm_conv_partial_q31.c **** 
 203:./Libraries/CMSIS/DSP/Source/FilteringFunctions/arm_conv_partial_q31.c ****       /* Initialize k with number of samples */
 204:./Libraries/CMSIS/DSP/Source/FilteringFunctions/arm_conv_partial_q31.c ****       k = count;
 230              		.loc 1 204 9
 231 0112 BB6B     		ldr	r3, [r7, #56]
 232 0114 FB63     		str	r3, [r7, #60]
 205:./Libraries/CMSIS/DSP/Source/FilteringFunctions/arm_conv_partial_q31.c **** 
 206:./Libraries/CMSIS/DSP/Source/FilteringFunctions/arm_conv_partial_q31.c **** #endif /* #if defined (ARM_MATH_LOOPUNROLL) */
 207:./Libraries/CMSIS/DSP/Source/FilteringFunctions/arm_conv_partial_q31.c **** 
 208:./Libraries/CMSIS/DSP/Source/FilteringFunctions/arm_conv_partial_q31.c ****       while (k > 0U)
 233              		.loc 1 208 13
 234 0116 24E0     		b	.L15
 235              	.L16:
 209:./Libraries/CMSIS/DSP/Source/FilteringFunctions/arm_conv_partial_q31.c ****       {
 210:./Libraries/CMSIS/DSP/Source/FilteringFunctions/arm_conv_partial_q31.c ****         /* Perform the multiply-accumulate */
 211:./Libraries/CMSIS/DSP/Source/FilteringFunctions/arm_conv_partial_q31.c ****         sum += (q63_t) *px++ * (*py--);
 236              		.loc 1 211 27
 237 0118 BB6D     		ldr	r3, [r7, #88]
 238 011a 1A1D     		adds	r2, r3, #4
 239 011c BA65     		str	r2, [r7, #88]
 240              		.loc 1 211 24
 241 011e 1B68     		ldr	r3, [r3]
 242              		.loc 1 211 16
 243 0120 1846     		mov	r0, r3
 244 0122 4FEAE071 		asr	r1, r0, #31
 245              		.loc 1 211 36
 246 0126 7B6D     		ldr	r3, [r7, #84]
ARM GAS  /tmp/ccX2G2eJ.s 			page 9


 247 0128 1A1F     		subs	r2, r3, #4
 248 012a 7A65     		str	r2, [r7, #84]
 249              		.loc 1 211 33
 250 012c 1B68     		ldr	r3, [r3]
 251 012e 1A46     		mov	r2, r3
 252 0130 4FEAE273 		asr	r3, r2, #31
 253              		.loc 1 211 30
 254 0134 02FB01FC 		mul	ip, r2, r1
 255 0138 00FB03F6 		mul	r6, r0, r3
 256 013c 6644     		add	r6, r6, ip
 257 013e A0FB0223 		umull	r2, r3, r0, r2
 258 0142 F118     		adds	r1, r6, r3
 259 0144 0B46     		mov	r3, r1
 260              		.loc 1 211 13
 261 0146 D7E91001 		ldrd	r0, [r7, #64]
 262 014a 8618     		adds	r6, r0, r2
 263 014c 3E60     		str	r6, [r7]
 264 014e 41EB0303 		adc	r3, r1, r3
 265 0152 7B60     		str	r3, [r7, #4]
 266 0154 D7E90023 		ldrd	r2, [r7]
 267 0158 C7E91023 		strd	r2, [r7, #64]
 212:./Libraries/CMSIS/DSP/Source/FilteringFunctions/arm_conv_partial_q31.c **** 
 213:./Libraries/CMSIS/DSP/Source/FilteringFunctions/arm_conv_partial_q31.c ****         /* Decrement loop counter */
 214:./Libraries/CMSIS/DSP/Source/FilteringFunctions/arm_conv_partial_q31.c ****         k--;
 268              		.loc 1 214 10
 269 015c FB6B     		ldr	r3, [r7, #60]
 270 015e 013B     		subs	r3, r3, #1
 271 0160 FB63     		str	r3, [r7, #60]
 272              	.L15:
 208:./Libraries/CMSIS/DSP/Source/FilteringFunctions/arm_conv_partial_q31.c ****       {
 273              		.loc 1 208 13
 274 0162 FB6B     		ldr	r3, [r7, #60]
 275 0164 002B     		cmp	r3, #0
 276 0166 D7D1     		bne	.L16
 215:./Libraries/CMSIS/DSP/Source/FilteringFunctions/arm_conv_partial_q31.c ****       }
 216:./Libraries/CMSIS/DSP/Source/FilteringFunctions/arm_conv_partial_q31.c **** 
 217:./Libraries/CMSIS/DSP/Source/FilteringFunctions/arm_conv_partial_q31.c ****       /* Store the result in the accumulator in the destination buffer. */
 218:./Libraries/CMSIS/DSP/Source/FilteringFunctions/arm_conv_partial_q31.c ****       *pOut++ = (q31_t) (sum >> 31);
 277              		.loc 1 218 30
 278 0168 D7E91001 		ldrd	r0, [r7, #64]
 279 016c 4FF00002 		mov	r2, #0
 280 0170 4FF00003 		mov	r3, #0
 281 0174 C20F     		lsrs	r2, r0, #31
 282 0176 42EA4102 		orr	r2, r2, r1, lsl #1
 283 017a CB17     		asrs	r3, r1, #31
 284              		.loc 1 218 12
 285 017c F96D     		ldr	r1, [r7, #92]
 286 017e 081D     		adds	r0, r1, #4
 287 0180 F865     		str	r0, [r7, #92]
 288              		.loc 1 218 17
 289 0182 1346     		mov	r3, r2
 290              		.loc 1 218 15
 291 0184 0B60     		str	r3, [r1]
 219:./Libraries/CMSIS/DSP/Source/FilteringFunctions/arm_conv_partial_q31.c **** 
 220:./Libraries/CMSIS/DSP/Source/FilteringFunctions/arm_conv_partial_q31.c ****       /* Update the inputA and inputB pointers for next MAC calculation */
 221:./Libraries/CMSIS/DSP/Source/FilteringFunctions/arm_conv_partial_q31.c ****       py = ++pSrc2;
 292              		.loc 1 221 10
ARM GAS  /tmp/ccX2G2eJ.s 			page 10


 293 0186 FB6C     		ldr	r3, [r7, #76]
 294 0188 0433     		adds	r3, r3, #4
 295 018a FB64     		str	r3, [r7, #76]
 296 018c FB6C     		ldr	r3, [r7, #76]
 297 018e 7B65     		str	r3, [r7, #84]
 222:./Libraries/CMSIS/DSP/Source/FilteringFunctions/arm_conv_partial_q31.c ****       px = pIn1;
 298              		.loc 1 222 10
 299 0190 7B6E     		ldr	r3, [r7, #100]
 300 0192 BB65     		str	r3, [r7, #88]
 223:./Libraries/CMSIS/DSP/Source/FilteringFunctions/arm_conv_partial_q31.c **** 
 224:./Libraries/CMSIS/DSP/Source/FilteringFunctions/arm_conv_partial_q31.c ****       /* Increment MAC count */
 225:./Libraries/CMSIS/DSP/Source/FilteringFunctions/arm_conv_partial_q31.c ****       count++;
 301              		.loc 1 225 12
 302 0194 BB6B     		ldr	r3, [r7, #56]
 303 0196 0133     		adds	r3, r3, #1
 304 0198 BB63     		str	r3, [r7, #56]
 226:./Libraries/CMSIS/DSP/Source/FilteringFunctions/arm_conv_partial_q31.c **** 
 227:./Libraries/CMSIS/DSP/Source/FilteringFunctions/arm_conv_partial_q31.c ****       /* Decrement loop counter */
 228:./Libraries/CMSIS/DSP/Source/FilteringFunctions/arm_conv_partial_q31.c ****       blockSize1--;
 305              		.loc 1 228 17
 306 019a 3B6B     		ldr	r3, [r7, #48]
 307 019c 013B     		subs	r3, r3, #1
 308 019e 3B63     		str	r3, [r7, #48]
 309              	.L14:
 170:./Libraries/CMSIS/DSP/Source/FilteringFunctions/arm_conv_partial_q31.c ****     {
 310              		.loc 1 170 11
 311 01a0 3B6B     		ldr	r3, [r7, #48]
 312 01a2 002B     		cmp	r3, #0
 313 01a4 AFD1     		bne	.L17
 229:./Libraries/CMSIS/DSP/Source/FilteringFunctions/arm_conv_partial_q31.c ****     }
 230:./Libraries/CMSIS/DSP/Source/FilteringFunctions/arm_conv_partial_q31.c **** 
 231:./Libraries/CMSIS/DSP/Source/FilteringFunctions/arm_conv_partial_q31.c ****     /* --------------------------
 232:./Libraries/CMSIS/DSP/Source/FilteringFunctions/arm_conv_partial_q31.c ****      * Initializations of stage2
 233:./Libraries/CMSIS/DSP/Source/FilteringFunctions/arm_conv_partial_q31.c ****      * ------------------------*/
 234:./Libraries/CMSIS/DSP/Source/FilteringFunctions/arm_conv_partial_q31.c **** 
 235:./Libraries/CMSIS/DSP/Source/FilteringFunctions/arm_conv_partial_q31.c ****     /* sum = x[0] * y[srcBLen-1] + x[1] * y[srcBLen-2] +...+ x[srcBLen-1] * y[0]
 236:./Libraries/CMSIS/DSP/Source/FilteringFunctions/arm_conv_partial_q31.c ****      * sum = x[1] * y[srcBLen-1] + x[2] * y[srcBLen-2] +...+ x[srcBLen] * y[0]
 237:./Libraries/CMSIS/DSP/Source/FilteringFunctions/arm_conv_partial_q31.c ****      * ....
 238:./Libraries/CMSIS/DSP/Source/FilteringFunctions/arm_conv_partial_q31.c ****      * sum = x[srcALen-srcBLen-2] * y[srcBLen-1] + x[srcALen] * y[srcBLen-2] +...+ x[srcALen-1] * y
 239:./Libraries/CMSIS/DSP/Source/FilteringFunctions/arm_conv_partial_q31.c ****      */
 240:./Libraries/CMSIS/DSP/Source/FilteringFunctions/arm_conv_partial_q31.c **** 
 241:./Libraries/CMSIS/DSP/Source/FilteringFunctions/arm_conv_partial_q31.c ****     /* Working pointer of inputA */
 242:./Libraries/CMSIS/DSP/Source/FilteringFunctions/arm_conv_partial_q31.c ****     if ((int32_t)firstIndex - (int32_t)srcBLen + 1 > 0)
 314              		.loc 1 242 9
 315 01a6 D7F88C20 		ldr	r2, [r7, #140]
 316              		.loc 1 242 31
 317 01aa BB68     		ldr	r3, [r7, #8]
 318              		.loc 1 242 29
 319 01ac D31A     		subs	r3, r2, r3
 320              		.loc 1 242 8
 321 01ae 002B     		cmp	r3, #0
 322 01b0 09DB     		blt	.L18
 243:./Libraries/CMSIS/DSP/Source/FilteringFunctions/arm_conv_partial_q31.c ****     {
 244:./Libraries/CMSIS/DSP/Source/FilteringFunctions/arm_conv_partial_q31.c ****       pSrc1 = pIn1 + firstIndex - srcBLen + 1;
 323              		.loc 1 244 33
 324 01b2 D7F88C20 		ldr	r2, [r7, #140]
 325 01b6 BB68     		ldr	r3, [r7, #8]
ARM GAS  /tmp/ccX2G2eJ.s 			page 11


 326 01b8 D31A     		subs	r3, r2, r3
 327              		.loc 1 244 43
 328 01ba 0133     		adds	r3, r3, #1
 329 01bc 9B00     		lsls	r3, r3, #2
 330              		.loc 1 244 13
 331 01be 7A6E     		ldr	r2, [r7, #100]
 332 01c0 1344     		add	r3, r3, r2
 333 01c2 3B65     		str	r3, [r7, #80]
 334 01c4 01E0     		b	.L19
 335              	.L18:
 245:./Libraries/CMSIS/DSP/Source/FilteringFunctions/arm_conv_partial_q31.c ****     }
 246:./Libraries/CMSIS/DSP/Source/FilteringFunctions/arm_conv_partial_q31.c ****     else
 247:./Libraries/CMSIS/DSP/Source/FilteringFunctions/arm_conv_partial_q31.c ****     {
 248:./Libraries/CMSIS/DSP/Source/FilteringFunctions/arm_conv_partial_q31.c ****       pSrc1 = pIn1;
 336              		.loc 1 248 13
 337 01c6 7B6E     		ldr	r3, [r7, #100]
 338 01c8 3B65     		str	r3, [r7, #80]
 339              	.L19:
 249:./Libraries/CMSIS/DSP/Source/FilteringFunctions/arm_conv_partial_q31.c ****     }
 250:./Libraries/CMSIS/DSP/Source/FilteringFunctions/arm_conv_partial_q31.c ****     px = pSrc1;
 340              		.loc 1 250 8
 341 01ca 3B6D     		ldr	r3, [r7, #80]
 342 01cc BB65     		str	r3, [r7, #88]
 251:./Libraries/CMSIS/DSP/Source/FilteringFunctions/arm_conv_partial_q31.c **** 
 252:./Libraries/CMSIS/DSP/Source/FilteringFunctions/arm_conv_partial_q31.c ****     /* Working pointer of inputB */
 253:./Libraries/CMSIS/DSP/Source/FilteringFunctions/arm_conv_partial_q31.c ****     pSrc2 = pIn2 + (srcBLen - 1U);
 343              		.loc 1 253 18
 344 01ce BA68     		ldr	r2, [r7, #8]
 345 01d0 6FF04043 		mvn	r3, #-1073741824
 346 01d4 1344     		add	r3, r3, r2
 347 01d6 9B00     		lsls	r3, r3, #2
 348              		.loc 1 253 11
 349 01d8 3A6E     		ldr	r2, [r7, #96]
 350 01da 1344     		add	r3, r3, r2
 351 01dc FB64     		str	r3, [r7, #76]
 254:./Libraries/CMSIS/DSP/Source/FilteringFunctions/arm_conv_partial_q31.c ****     py = pSrc2;
 352              		.loc 1 254 8
 353 01de FB6C     		ldr	r3, [r7, #76]
 354 01e0 7B65     		str	r3, [r7, #84]
 255:./Libraries/CMSIS/DSP/Source/FilteringFunctions/arm_conv_partial_q31.c **** 
 256:./Libraries/CMSIS/DSP/Source/FilteringFunctions/arm_conv_partial_q31.c ****     /* count is index by which the pointer pIn1 to be incremented */
 257:./Libraries/CMSIS/DSP/Source/FilteringFunctions/arm_conv_partial_q31.c ****     count = 0U;
 355              		.loc 1 257 11
 356 01e2 0023     		movs	r3, #0
 357 01e4 BB63     		str	r3, [r7, #56]
 258:./Libraries/CMSIS/DSP/Source/FilteringFunctions/arm_conv_partial_q31.c **** 
 259:./Libraries/CMSIS/DSP/Source/FilteringFunctions/arm_conv_partial_q31.c ****     /* -------------------
 260:./Libraries/CMSIS/DSP/Source/FilteringFunctions/arm_conv_partial_q31.c ****      * Stage2 process
 261:./Libraries/CMSIS/DSP/Source/FilteringFunctions/arm_conv_partial_q31.c ****      * ------------------*/
 262:./Libraries/CMSIS/DSP/Source/FilteringFunctions/arm_conv_partial_q31.c **** 
 263:./Libraries/CMSIS/DSP/Source/FilteringFunctions/arm_conv_partial_q31.c ****     /* Stage2 depends on srcBLen as in this stage srcBLen number of MACS are performed.
 264:./Libraries/CMSIS/DSP/Source/FilteringFunctions/arm_conv_partial_q31.c ****      * So, to loop unroll over blockSize2,
 265:./Libraries/CMSIS/DSP/Source/FilteringFunctions/arm_conv_partial_q31.c ****      * srcBLen should be greater than or equal to 4 */
 266:./Libraries/CMSIS/DSP/Source/FilteringFunctions/arm_conv_partial_q31.c ****     if (srcBLen >= 4U)
 358              		.loc 1 266 8
 359 01e6 BB68     		ldr	r3, [r7, #8]
 360 01e8 032B     		cmp	r3, #3
ARM GAS  /tmp/ccX2G2eJ.s 			page 12


 361 01ea 50D9     		bls	.L20
 267:./Libraries/CMSIS/DSP/Source/FilteringFunctions/arm_conv_partial_q31.c ****     {
 268:./Libraries/CMSIS/DSP/Source/FilteringFunctions/arm_conv_partial_q31.c **** #if defined (ARM_MATH_LOOPUNROLL)
 269:./Libraries/CMSIS/DSP/Source/FilteringFunctions/arm_conv_partial_q31.c **** 
 270:./Libraries/CMSIS/DSP/Source/FilteringFunctions/arm_conv_partial_q31.c ****       /* Loop unroll over blkCnt */
 271:./Libraries/CMSIS/DSP/Source/FilteringFunctions/arm_conv_partial_q31.c ****       blkCnt = blockSize2 / 3;
 272:./Libraries/CMSIS/DSP/Source/FilteringFunctions/arm_conv_partial_q31.c **** 
 273:./Libraries/CMSIS/DSP/Source/FilteringFunctions/arm_conv_partial_q31.c ****       while (blkCnt > 0U)
 274:./Libraries/CMSIS/DSP/Source/FilteringFunctions/arm_conv_partial_q31.c ****       {
 275:./Libraries/CMSIS/DSP/Source/FilteringFunctions/arm_conv_partial_q31.c ****         /* Set all accumulators to zero */
 276:./Libraries/CMSIS/DSP/Source/FilteringFunctions/arm_conv_partial_q31.c ****         acc0 = 0;
 277:./Libraries/CMSIS/DSP/Source/FilteringFunctions/arm_conv_partial_q31.c ****         acc1 = 0;
 278:./Libraries/CMSIS/DSP/Source/FilteringFunctions/arm_conv_partial_q31.c ****         acc2 = 0;
 279:./Libraries/CMSIS/DSP/Source/FilteringFunctions/arm_conv_partial_q31.c **** 
 280:./Libraries/CMSIS/DSP/Source/FilteringFunctions/arm_conv_partial_q31.c ****         /* read x[0], x[1] samples */
 281:./Libraries/CMSIS/DSP/Source/FilteringFunctions/arm_conv_partial_q31.c ****         x0 = *px++;
 282:./Libraries/CMSIS/DSP/Source/FilteringFunctions/arm_conv_partial_q31.c ****         x1 = *px++;
 283:./Libraries/CMSIS/DSP/Source/FilteringFunctions/arm_conv_partial_q31.c **** 
 284:./Libraries/CMSIS/DSP/Source/FilteringFunctions/arm_conv_partial_q31.c ****         /* Apply loop unrolling and compute 3 MACs simultaneously. */
 285:./Libraries/CMSIS/DSP/Source/FilteringFunctions/arm_conv_partial_q31.c ****         k = srcBLen / 3;
 286:./Libraries/CMSIS/DSP/Source/FilteringFunctions/arm_conv_partial_q31.c **** 
 287:./Libraries/CMSIS/DSP/Source/FilteringFunctions/arm_conv_partial_q31.c ****         /* First part of the processing with loop unrolling.  Compute 3 MACs at a time.
 288:./Libraries/CMSIS/DSP/Source/FilteringFunctions/arm_conv_partial_q31.c ****          ** a second loop below computes MACs for the remaining 1 to 2 samples. */
 289:./Libraries/CMSIS/DSP/Source/FilteringFunctions/arm_conv_partial_q31.c ****         do
 290:./Libraries/CMSIS/DSP/Source/FilteringFunctions/arm_conv_partial_q31.c ****         {
 291:./Libraries/CMSIS/DSP/Source/FilteringFunctions/arm_conv_partial_q31.c ****           /* Read y[srcBLen - 1] sample */
 292:./Libraries/CMSIS/DSP/Source/FilteringFunctions/arm_conv_partial_q31.c ****           c0 = *(py);
 293:./Libraries/CMSIS/DSP/Source/FilteringFunctions/arm_conv_partial_q31.c **** 
 294:./Libraries/CMSIS/DSP/Source/FilteringFunctions/arm_conv_partial_q31.c ****           /* Read x[2] sample */
 295:./Libraries/CMSIS/DSP/Source/FilteringFunctions/arm_conv_partial_q31.c ****           x2 = *(px);
 296:./Libraries/CMSIS/DSP/Source/FilteringFunctions/arm_conv_partial_q31.c **** 
 297:./Libraries/CMSIS/DSP/Source/FilteringFunctions/arm_conv_partial_q31.c ****           /* Perform the multiply-accumulate */
 298:./Libraries/CMSIS/DSP/Source/FilteringFunctions/arm_conv_partial_q31.c ****           /* acc0 +=  x[0] * y[srcBLen - 1] */
 299:./Libraries/CMSIS/DSP/Source/FilteringFunctions/arm_conv_partial_q31.c ****           acc0 += (q63_t) x0 * c0;
 300:./Libraries/CMSIS/DSP/Source/FilteringFunctions/arm_conv_partial_q31.c ****           /* acc1 +=  x[1] * y[srcBLen - 1] */
 301:./Libraries/CMSIS/DSP/Source/FilteringFunctions/arm_conv_partial_q31.c ****           acc1 += (q63_t) x1 * c0;
 302:./Libraries/CMSIS/DSP/Source/FilteringFunctions/arm_conv_partial_q31.c ****           /* acc2 +=  x[2] * y[srcBLen - 1] */
 303:./Libraries/CMSIS/DSP/Source/FilteringFunctions/arm_conv_partial_q31.c ****           acc2 += (q63_t) x2 * c0;
 304:./Libraries/CMSIS/DSP/Source/FilteringFunctions/arm_conv_partial_q31.c **** 
 305:./Libraries/CMSIS/DSP/Source/FilteringFunctions/arm_conv_partial_q31.c ****           /* Read y[srcBLen - 2] sample */
 306:./Libraries/CMSIS/DSP/Source/FilteringFunctions/arm_conv_partial_q31.c ****           c0 = *(py - 1U);
 307:./Libraries/CMSIS/DSP/Source/FilteringFunctions/arm_conv_partial_q31.c **** 
 308:./Libraries/CMSIS/DSP/Source/FilteringFunctions/arm_conv_partial_q31.c ****           /* Read x[3] sample */
 309:./Libraries/CMSIS/DSP/Source/FilteringFunctions/arm_conv_partial_q31.c ****           x0 = *(px + 1U);
 310:./Libraries/CMSIS/DSP/Source/FilteringFunctions/arm_conv_partial_q31.c **** 
 311:./Libraries/CMSIS/DSP/Source/FilteringFunctions/arm_conv_partial_q31.c ****           /* Perform the multiply-accumulate */
 312:./Libraries/CMSIS/DSP/Source/FilteringFunctions/arm_conv_partial_q31.c ****           /* acc0 +=  x[1] * y[srcBLen - 2] */
 313:./Libraries/CMSIS/DSP/Source/FilteringFunctions/arm_conv_partial_q31.c ****           acc0 += (q63_t) x1 * c0;
 314:./Libraries/CMSIS/DSP/Source/FilteringFunctions/arm_conv_partial_q31.c ****           /* acc1 +=  x[2] * y[srcBLen - 2] */
 315:./Libraries/CMSIS/DSP/Source/FilteringFunctions/arm_conv_partial_q31.c ****           acc1 += (q63_t) x2 * c0;
 316:./Libraries/CMSIS/DSP/Source/FilteringFunctions/arm_conv_partial_q31.c ****           /* acc2 +=  x[3] * y[srcBLen - 2] */
 317:./Libraries/CMSIS/DSP/Source/FilteringFunctions/arm_conv_partial_q31.c ****           acc2 += (q63_t) x0 * c0;
 318:./Libraries/CMSIS/DSP/Source/FilteringFunctions/arm_conv_partial_q31.c **** 
 319:./Libraries/CMSIS/DSP/Source/FilteringFunctions/arm_conv_partial_q31.c ****           /* Read y[srcBLen - 3] sample */
 320:./Libraries/CMSIS/DSP/Source/FilteringFunctions/arm_conv_partial_q31.c ****           c0 = *(py - 2U);
 321:./Libraries/CMSIS/DSP/Source/FilteringFunctions/arm_conv_partial_q31.c **** 
 322:./Libraries/CMSIS/DSP/Source/FilteringFunctions/arm_conv_partial_q31.c ****           /* Read x[4] sample */
ARM GAS  /tmp/ccX2G2eJ.s 			page 13


 323:./Libraries/CMSIS/DSP/Source/FilteringFunctions/arm_conv_partial_q31.c ****           x1 = *(px + 2U);
 324:./Libraries/CMSIS/DSP/Source/FilteringFunctions/arm_conv_partial_q31.c **** 
 325:./Libraries/CMSIS/DSP/Source/FilteringFunctions/arm_conv_partial_q31.c ****           /* Perform the multiply-accumulate */
 326:./Libraries/CMSIS/DSP/Source/FilteringFunctions/arm_conv_partial_q31.c ****           /* acc0 +=  x[2] * y[srcBLen - 3] */
 327:./Libraries/CMSIS/DSP/Source/FilteringFunctions/arm_conv_partial_q31.c ****           acc0 += (q63_t) x2 * c0;
 328:./Libraries/CMSIS/DSP/Source/FilteringFunctions/arm_conv_partial_q31.c ****           /* acc1 +=  x[3] * y[srcBLen - 2] */
 329:./Libraries/CMSIS/DSP/Source/FilteringFunctions/arm_conv_partial_q31.c ****           acc1 += (q63_t) x0 * c0;
 330:./Libraries/CMSIS/DSP/Source/FilteringFunctions/arm_conv_partial_q31.c ****           /* acc2 +=  x[4] * y[srcBLen - 2] */
 331:./Libraries/CMSIS/DSP/Source/FilteringFunctions/arm_conv_partial_q31.c ****           acc2 += (q63_t) x1 * c0;
 332:./Libraries/CMSIS/DSP/Source/FilteringFunctions/arm_conv_partial_q31.c **** 
 333:./Libraries/CMSIS/DSP/Source/FilteringFunctions/arm_conv_partial_q31.c **** 
 334:./Libraries/CMSIS/DSP/Source/FilteringFunctions/arm_conv_partial_q31.c ****           px += 3U;
 335:./Libraries/CMSIS/DSP/Source/FilteringFunctions/arm_conv_partial_q31.c **** 
 336:./Libraries/CMSIS/DSP/Source/FilteringFunctions/arm_conv_partial_q31.c ****           py -= 3U;
 337:./Libraries/CMSIS/DSP/Source/FilteringFunctions/arm_conv_partial_q31.c **** 
 338:./Libraries/CMSIS/DSP/Source/FilteringFunctions/arm_conv_partial_q31.c ****         } while (--k);
 339:./Libraries/CMSIS/DSP/Source/FilteringFunctions/arm_conv_partial_q31.c **** 
 340:./Libraries/CMSIS/DSP/Source/FilteringFunctions/arm_conv_partial_q31.c ****         /* If the srcBLen is not a multiple of 3, compute any remaining MACs here.
 341:./Libraries/CMSIS/DSP/Source/FilteringFunctions/arm_conv_partial_q31.c ****          ** No loop unrolling is used. */
 342:./Libraries/CMSIS/DSP/Source/FilteringFunctions/arm_conv_partial_q31.c ****         k = srcBLen - (3 * (srcBLen / 3));
 343:./Libraries/CMSIS/DSP/Source/FilteringFunctions/arm_conv_partial_q31.c **** 
 344:./Libraries/CMSIS/DSP/Source/FilteringFunctions/arm_conv_partial_q31.c ****         while (k > 0U)
 345:./Libraries/CMSIS/DSP/Source/FilteringFunctions/arm_conv_partial_q31.c ****         {
 346:./Libraries/CMSIS/DSP/Source/FilteringFunctions/arm_conv_partial_q31.c ****           /* Read y[srcBLen - 5] sample */
 347:./Libraries/CMSIS/DSP/Source/FilteringFunctions/arm_conv_partial_q31.c ****           c0 = *py--;
 348:./Libraries/CMSIS/DSP/Source/FilteringFunctions/arm_conv_partial_q31.c ****           /* Read x[7] sample */
 349:./Libraries/CMSIS/DSP/Source/FilteringFunctions/arm_conv_partial_q31.c ****           x2 = *px++;
 350:./Libraries/CMSIS/DSP/Source/FilteringFunctions/arm_conv_partial_q31.c **** 
 351:./Libraries/CMSIS/DSP/Source/FilteringFunctions/arm_conv_partial_q31.c ****           /* Perform the multiply-accumulates */
 352:./Libraries/CMSIS/DSP/Source/FilteringFunctions/arm_conv_partial_q31.c ****           /* acc0 +=  x[4] * y[srcBLen - 5] */
 353:./Libraries/CMSIS/DSP/Source/FilteringFunctions/arm_conv_partial_q31.c ****           acc0 += (q63_t) x0 * c0;
 354:./Libraries/CMSIS/DSP/Source/FilteringFunctions/arm_conv_partial_q31.c ****           /* acc1 +=  x[5] * y[srcBLen - 5] */
 355:./Libraries/CMSIS/DSP/Source/FilteringFunctions/arm_conv_partial_q31.c ****           acc1 += (q63_t) x1 * c0;
 356:./Libraries/CMSIS/DSP/Source/FilteringFunctions/arm_conv_partial_q31.c ****           /* acc2 +=  x[6] * y[srcBLen - 5] */
 357:./Libraries/CMSIS/DSP/Source/FilteringFunctions/arm_conv_partial_q31.c ****           acc2 += (q63_t) x2 * c0;
 358:./Libraries/CMSIS/DSP/Source/FilteringFunctions/arm_conv_partial_q31.c **** 
 359:./Libraries/CMSIS/DSP/Source/FilteringFunctions/arm_conv_partial_q31.c ****           /* Reuse the present samples for the next MAC */
 360:./Libraries/CMSIS/DSP/Source/FilteringFunctions/arm_conv_partial_q31.c ****           x0 = x1;
 361:./Libraries/CMSIS/DSP/Source/FilteringFunctions/arm_conv_partial_q31.c ****           x1 = x2;
 362:./Libraries/CMSIS/DSP/Source/FilteringFunctions/arm_conv_partial_q31.c **** 
 363:./Libraries/CMSIS/DSP/Source/FilteringFunctions/arm_conv_partial_q31.c ****           /* Decrement the loop counter */
 364:./Libraries/CMSIS/DSP/Source/FilteringFunctions/arm_conv_partial_q31.c ****           k--;
 365:./Libraries/CMSIS/DSP/Source/FilteringFunctions/arm_conv_partial_q31.c ****         }
 366:./Libraries/CMSIS/DSP/Source/FilteringFunctions/arm_conv_partial_q31.c **** 
 367:./Libraries/CMSIS/DSP/Source/FilteringFunctions/arm_conv_partial_q31.c ****         /* Store the result in the accumulator in the destination buffer. */
 368:./Libraries/CMSIS/DSP/Source/FilteringFunctions/arm_conv_partial_q31.c ****         *pOut++ = (q31_t) (acc0 >> 31);
 369:./Libraries/CMSIS/DSP/Source/FilteringFunctions/arm_conv_partial_q31.c ****         *pOut++ = (q31_t) (acc1 >> 31);
 370:./Libraries/CMSIS/DSP/Source/FilteringFunctions/arm_conv_partial_q31.c ****         *pOut++ = (q31_t) (acc2 >> 31);
 371:./Libraries/CMSIS/DSP/Source/FilteringFunctions/arm_conv_partial_q31.c **** 
 372:./Libraries/CMSIS/DSP/Source/FilteringFunctions/arm_conv_partial_q31.c ****         /* Increment the pointer pIn1 index, count by 3 */
 373:./Libraries/CMSIS/DSP/Source/FilteringFunctions/arm_conv_partial_q31.c ****         count += 3U;
 374:./Libraries/CMSIS/DSP/Source/FilteringFunctions/arm_conv_partial_q31.c **** 
 375:./Libraries/CMSIS/DSP/Source/FilteringFunctions/arm_conv_partial_q31.c ****         /* Update the inputA and inputB pointers for next MAC calculation */
 376:./Libraries/CMSIS/DSP/Source/FilteringFunctions/arm_conv_partial_q31.c ****         px = pSrc1 + count;
 377:./Libraries/CMSIS/DSP/Source/FilteringFunctions/arm_conv_partial_q31.c ****         py = pSrc2;
 378:./Libraries/CMSIS/DSP/Source/FilteringFunctions/arm_conv_partial_q31.c **** 
 379:./Libraries/CMSIS/DSP/Source/FilteringFunctions/arm_conv_partial_q31.c ****         /* Decrement loop counter */
ARM GAS  /tmp/ccX2G2eJ.s 			page 14


 380:./Libraries/CMSIS/DSP/Source/FilteringFunctions/arm_conv_partial_q31.c ****         blkCnt--;
 381:./Libraries/CMSIS/DSP/Source/FilteringFunctions/arm_conv_partial_q31.c ****       }
 382:./Libraries/CMSIS/DSP/Source/FilteringFunctions/arm_conv_partial_q31.c **** 
 383:./Libraries/CMSIS/DSP/Source/FilteringFunctions/arm_conv_partial_q31.c ****       /* Loop unrolling: Compute remaining outputs */
 384:./Libraries/CMSIS/DSP/Source/FilteringFunctions/arm_conv_partial_q31.c ****       blkCnt = blockSize2 - 3 * (blockSize2 / 3);
 385:./Libraries/CMSIS/DSP/Source/FilteringFunctions/arm_conv_partial_q31.c **** 
 386:./Libraries/CMSIS/DSP/Source/FilteringFunctions/arm_conv_partial_q31.c **** #else
 387:./Libraries/CMSIS/DSP/Source/FilteringFunctions/arm_conv_partial_q31.c **** 
 388:./Libraries/CMSIS/DSP/Source/FilteringFunctions/arm_conv_partial_q31.c ****       /* Initialize blkCnt with number of samples */
 389:./Libraries/CMSIS/DSP/Source/FilteringFunctions/arm_conv_partial_q31.c ****       blkCnt = blockSize2;
 362              		.loc 1 389 14
 363 01ec FB69     		ldr	r3, [r7, #28]
 364 01ee 7B63     		str	r3, [r7, #52]
 390:./Libraries/CMSIS/DSP/Source/FilteringFunctions/arm_conv_partial_q31.c **** 
 391:./Libraries/CMSIS/DSP/Source/FilteringFunctions/arm_conv_partial_q31.c **** #endif /* #if defined (ARM_MATH_LOOPUNROLL) */
 392:./Libraries/CMSIS/DSP/Source/FilteringFunctions/arm_conv_partial_q31.c **** 
 393:./Libraries/CMSIS/DSP/Source/FilteringFunctions/arm_conv_partial_q31.c ****       while (blkCnt > 0U)
 365              		.loc 1 393 13
 366 01f0 49E0     		b	.L21
 367              	.L24:
 394:./Libraries/CMSIS/DSP/Source/FilteringFunctions/arm_conv_partial_q31.c ****       {
 395:./Libraries/CMSIS/DSP/Source/FilteringFunctions/arm_conv_partial_q31.c ****         /* Accumulator is made zero for every iteration */
 396:./Libraries/CMSIS/DSP/Source/FilteringFunctions/arm_conv_partial_q31.c ****         sum = 0;
 368              		.loc 1 396 13
 369 01f2 4FF00002 		mov	r2, #0
 370 01f6 4FF00003 		mov	r3, #0
 371 01fa C7E91023 		strd	r2, [r7, #64]
 397:./Libraries/CMSIS/DSP/Source/FilteringFunctions/arm_conv_partial_q31.c **** 
 398:./Libraries/CMSIS/DSP/Source/FilteringFunctions/arm_conv_partial_q31.c **** #if defined (ARM_MATH_LOOPUNROLL)
 399:./Libraries/CMSIS/DSP/Source/FilteringFunctions/arm_conv_partial_q31.c **** 
 400:./Libraries/CMSIS/DSP/Source/FilteringFunctions/arm_conv_partial_q31.c ****         /* Loop unrolling: Compute 4 outputs at a time */
 401:./Libraries/CMSIS/DSP/Source/FilteringFunctions/arm_conv_partial_q31.c ****         k = srcBLen >> 2U;
 402:./Libraries/CMSIS/DSP/Source/FilteringFunctions/arm_conv_partial_q31.c **** 
 403:./Libraries/CMSIS/DSP/Source/FilteringFunctions/arm_conv_partial_q31.c ****         while (k > 0U)
 404:./Libraries/CMSIS/DSP/Source/FilteringFunctions/arm_conv_partial_q31.c ****         {
 405:./Libraries/CMSIS/DSP/Source/FilteringFunctions/arm_conv_partial_q31.c ****           /* Perform the multiply-accumulates */
 406:./Libraries/CMSIS/DSP/Source/FilteringFunctions/arm_conv_partial_q31.c ****           sum += (q63_t) *px++ * (*py--);
 407:./Libraries/CMSIS/DSP/Source/FilteringFunctions/arm_conv_partial_q31.c ****           sum += (q63_t) *px++ * (*py--);
 408:./Libraries/CMSIS/DSP/Source/FilteringFunctions/arm_conv_partial_q31.c ****           sum += (q63_t) *px++ * (*py--);
 409:./Libraries/CMSIS/DSP/Source/FilteringFunctions/arm_conv_partial_q31.c ****           sum += (q63_t) *px++ * (*py--);
 410:./Libraries/CMSIS/DSP/Source/FilteringFunctions/arm_conv_partial_q31.c **** 
 411:./Libraries/CMSIS/DSP/Source/FilteringFunctions/arm_conv_partial_q31.c ****           /* Decrement loop counter */
 412:./Libraries/CMSIS/DSP/Source/FilteringFunctions/arm_conv_partial_q31.c ****           k--;
 413:./Libraries/CMSIS/DSP/Source/FilteringFunctions/arm_conv_partial_q31.c ****         }
 414:./Libraries/CMSIS/DSP/Source/FilteringFunctions/arm_conv_partial_q31.c **** 
 415:./Libraries/CMSIS/DSP/Source/FilteringFunctions/arm_conv_partial_q31.c ****         /* Loop unrolling: Compute remaining outputs */
 416:./Libraries/CMSIS/DSP/Source/FilteringFunctions/arm_conv_partial_q31.c ****         k = srcBLen % 0x4U;
 417:./Libraries/CMSIS/DSP/Source/FilteringFunctions/arm_conv_partial_q31.c **** 
 418:./Libraries/CMSIS/DSP/Source/FilteringFunctions/arm_conv_partial_q31.c **** #else
 419:./Libraries/CMSIS/DSP/Source/FilteringFunctions/arm_conv_partial_q31.c **** 
 420:./Libraries/CMSIS/DSP/Source/FilteringFunctions/arm_conv_partial_q31.c ****         /* Initialize blkCnt with number of samples */
 421:./Libraries/CMSIS/DSP/Source/FilteringFunctions/arm_conv_partial_q31.c ****         k = srcBLen;
 372              		.loc 1 421 11
 373 01fe BB68     		ldr	r3, [r7, #8]
 374 0200 FB63     		str	r3, [r7, #60]
 422:./Libraries/CMSIS/DSP/Source/FilteringFunctions/arm_conv_partial_q31.c **** 
 423:./Libraries/CMSIS/DSP/Source/FilteringFunctions/arm_conv_partial_q31.c **** #endif /* #if defined (ARM_MATH_LOOPUNROLL) */
ARM GAS  /tmp/ccX2G2eJ.s 			page 15


 424:./Libraries/CMSIS/DSP/Source/FilteringFunctions/arm_conv_partial_q31.c **** 
 425:./Libraries/CMSIS/DSP/Source/FilteringFunctions/arm_conv_partial_q31.c ****         while (k > 0U)
 375              		.loc 1 425 15
 376 0202 21E0     		b	.L22
 377              	.L23:
 426:./Libraries/CMSIS/DSP/Source/FilteringFunctions/arm_conv_partial_q31.c ****         {
 427:./Libraries/CMSIS/DSP/Source/FilteringFunctions/arm_conv_partial_q31.c ****           /* Perform the multiply-accumulate */
 428:./Libraries/CMSIS/DSP/Source/FilteringFunctions/arm_conv_partial_q31.c ****           sum += (q63_t) *px++ * *py--;
 378              		.loc 1 428 29
 379 0204 BB6D     		ldr	r3, [r7, #88]
 380 0206 1A1D     		adds	r2, r3, #4
 381 0208 BA65     		str	r2, [r7, #88]
 382              		.loc 1 428 26
 383 020a 1B68     		ldr	r3, [r3]
 384              		.loc 1 428 18
 385 020c 1846     		mov	r0, r3
 386 020e 4FEAE071 		asr	r1, r0, #31
 387              		.loc 1 428 37
 388 0212 7B6D     		ldr	r3, [r7, #84]
 389 0214 1A1F     		subs	r2, r3, #4
 390 0216 7A65     		str	r2, [r7, #84]
 391              		.loc 1 428 34
 392 0218 1B68     		ldr	r3, [r3]
 393 021a 1A46     		mov	r2, r3
 394 021c 4FEAE273 		asr	r3, r2, #31
 395              		.loc 1 428 32
 396 0220 02FB01FC 		mul	ip, r2, r1
 397 0224 00FB03F6 		mul	r6, r0, r3
 398 0228 6644     		add	r6, r6, ip
 399 022a A0FB0223 		umull	r2, r3, r0, r2
 400 022e F118     		adds	r1, r6, r3
 401 0230 0B46     		mov	r3, r1
 402              		.loc 1 428 15
 403 0232 D7E91001 		ldrd	r0, [r7, #64]
 404 0236 10EB020A 		adds	r10, r0, r2
 405 023a 41EB030B 		adc	fp, r1, r3
 406 023e C7E910AB 		strd	r10, [r7, #64]
 429:./Libraries/CMSIS/DSP/Source/FilteringFunctions/arm_conv_partial_q31.c **** 
 430:./Libraries/CMSIS/DSP/Source/FilteringFunctions/arm_conv_partial_q31.c ****           /* Decrement loop counter */
 431:./Libraries/CMSIS/DSP/Source/FilteringFunctions/arm_conv_partial_q31.c ****           k--;
 407              		.loc 1 431 12
 408 0242 FB6B     		ldr	r3, [r7, #60]
 409 0244 013B     		subs	r3, r3, #1
 410 0246 FB63     		str	r3, [r7, #60]
 411              	.L22:
 425:./Libraries/CMSIS/DSP/Source/FilteringFunctions/arm_conv_partial_q31.c ****         {
 412              		.loc 1 425 15
 413 0248 FB6B     		ldr	r3, [r7, #60]
 414 024a 002B     		cmp	r3, #0
 415 024c DAD1     		bne	.L23
 432:./Libraries/CMSIS/DSP/Source/FilteringFunctions/arm_conv_partial_q31.c ****         }
 433:./Libraries/CMSIS/DSP/Source/FilteringFunctions/arm_conv_partial_q31.c **** 
 434:./Libraries/CMSIS/DSP/Source/FilteringFunctions/arm_conv_partial_q31.c ****         /* Store the result in the accumulator in the destination buffer. */
 435:./Libraries/CMSIS/DSP/Source/FilteringFunctions/arm_conv_partial_q31.c ****         *pOut++ = (q31_t) (sum >> 31);
 416              		.loc 1 435 32
 417 024e D7E91001 		ldrd	r0, [r7, #64]
 418 0252 4FF00002 		mov	r2, #0
ARM GAS  /tmp/ccX2G2eJ.s 			page 16


 419 0256 4FF00003 		mov	r3, #0
 420 025a C20F     		lsrs	r2, r0, #31
 421 025c 42EA4102 		orr	r2, r2, r1, lsl #1
 422 0260 CB17     		asrs	r3, r1, #31
 423              		.loc 1 435 14
 424 0262 F96D     		ldr	r1, [r7, #92]
 425 0264 081D     		adds	r0, r1, #4
 426 0266 F865     		str	r0, [r7, #92]
 427              		.loc 1 435 19
 428 0268 1346     		mov	r3, r2
 429              		.loc 1 435 17
 430 026a 0B60     		str	r3, [r1]
 436:./Libraries/CMSIS/DSP/Source/FilteringFunctions/arm_conv_partial_q31.c **** 
 437:./Libraries/CMSIS/DSP/Source/FilteringFunctions/arm_conv_partial_q31.c ****         /* Increment MAC count */
 438:./Libraries/CMSIS/DSP/Source/FilteringFunctions/arm_conv_partial_q31.c ****         count++;
 431              		.loc 1 438 14
 432 026c BB6B     		ldr	r3, [r7, #56]
 433 026e 0133     		adds	r3, r3, #1
 434 0270 BB63     		str	r3, [r7, #56]
 439:./Libraries/CMSIS/DSP/Source/FilteringFunctions/arm_conv_partial_q31.c **** 
 440:./Libraries/CMSIS/DSP/Source/FilteringFunctions/arm_conv_partial_q31.c ****         /* Update the inputA and inputB pointers for next MAC calculation */
 441:./Libraries/CMSIS/DSP/Source/FilteringFunctions/arm_conv_partial_q31.c ****         px = pSrc1 + count;
 435              		.loc 1 441 20
 436 0272 BB6B     		ldr	r3, [r7, #56]
 437 0274 9B00     		lsls	r3, r3, #2
 438              		.loc 1 441 12
 439 0276 3A6D     		ldr	r2, [r7, #80]
 440 0278 1344     		add	r3, r3, r2
 441 027a BB65     		str	r3, [r7, #88]
 442:./Libraries/CMSIS/DSP/Source/FilteringFunctions/arm_conv_partial_q31.c ****         py = pSrc2;
 442              		.loc 1 442 12
 443 027c FB6C     		ldr	r3, [r7, #76]
 444 027e 7B65     		str	r3, [r7, #84]
 443:./Libraries/CMSIS/DSP/Source/FilteringFunctions/arm_conv_partial_q31.c **** 
 444:./Libraries/CMSIS/DSP/Source/FilteringFunctions/arm_conv_partial_q31.c ****         /* Decrement loop counter */
 445:./Libraries/CMSIS/DSP/Source/FilteringFunctions/arm_conv_partial_q31.c ****         blkCnt--;
 445              		.loc 1 445 15
 446 0280 7B6B     		ldr	r3, [r7, #52]
 447 0282 013B     		subs	r3, r3, #1
 448 0284 7B63     		str	r3, [r7, #52]
 449              	.L21:
 393:./Libraries/CMSIS/DSP/Source/FilteringFunctions/arm_conv_partial_q31.c ****       {
 450              		.loc 1 393 13
 451 0286 7B6B     		ldr	r3, [r7, #52]
 452 0288 002B     		cmp	r3, #0
 453 028a B2D1     		bne	.L24
 454 028c 4FE0     		b	.L25
 455              	.L20:
 446:./Libraries/CMSIS/DSP/Source/FilteringFunctions/arm_conv_partial_q31.c ****       }
 447:./Libraries/CMSIS/DSP/Source/FilteringFunctions/arm_conv_partial_q31.c ****     }
 448:./Libraries/CMSIS/DSP/Source/FilteringFunctions/arm_conv_partial_q31.c ****     else
 449:./Libraries/CMSIS/DSP/Source/FilteringFunctions/arm_conv_partial_q31.c ****     {
 450:./Libraries/CMSIS/DSP/Source/FilteringFunctions/arm_conv_partial_q31.c ****       /* If the srcBLen is not a multiple of 4,
 451:./Libraries/CMSIS/DSP/Source/FilteringFunctions/arm_conv_partial_q31.c ****        * the blockSize2 loop cannot be unrolled by 4 */
 452:./Libraries/CMSIS/DSP/Source/FilteringFunctions/arm_conv_partial_q31.c ****       blkCnt = (uint32_t) blockSize2;
 456              		.loc 1 452 14
 457 028e FB69     		ldr	r3, [r7, #28]
ARM GAS  /tmp/ccX2G2eJ.s 			page 17


 458 0290 7B63     		str	r3, [r7, #52]
 453:./Libraries/CMSIS/DSP/Source/FilteringFunctions/arm_conv_partial_q31.c **** 
 454:./Libraries/CMSIS/DSP/Source/FilteringFunctions/arm_conv_partial_q31.c ****       while (blkCnt > 0U)
 459              		.loc 1 454 13
 460 0292 49E0     		b	.L26
 461              	.L29:
 455:./Libraries/CMSIS/DSP/Source/FilteringFunctions/arm_conv_partial_q31.c ****       {
 456:./Libraries/CMSIS/DSP/Source/FilteringFunctions/arm_conv_partial_q31.c ****         /* Accumulator is made zero for every iteration */
 457:./Libraries/CMSIS/DSP/Source/FilteringFunctions/arm_conv_partial_q31.c ****         sum = 0;
 462              		.loc 1 457 13
 463 0294 4FF00002 		mov	r2, #0
 464 0298 4FF00003 		mov	r3, #0
 465 029c C7E91023 		strd	r2, [r7, #64]
 458:./Libraries/CMSIS/DSP/Source/FilteringFunctions/arm_conv_partial_q31.c **** 
 459:./Libraries/CMSIS/DSP/Source/FilteringFunctions/arm_conv_partial_q31.c ****         /* srcBLen number of MACS should be performed */
 460:./Libraries/CMSIS/DSP/Source/FilteringFunctions/arm_conv_partial_q31.c ****         k = srcBLen;
 466              		.loc 1 460 11
 467 02a0 BB68     		ldr	r3, [r7, #8]
 468 02a2 FB63     		str	r3, [r7, #60]
 461:./Libraries/CMSIS/DSP/Source/FilteringFunctions/arm_conv_partial_q31.c **** 
 462:./Libraries/CMSIS/DSP/Source/FilteringFunctions/arm_conv_partial_q31.c ****         while (k > 0U)
 469              		.loc 1 462 15
 470 02a4 21E0     		b	.L27
 471              	.L28:
 463:./Libraries/CMSIS/DSP/Source/FilteringFunctions/arm_conv_partial_q31.c ****         {
 464:./Libraries/CMSIS/DSP/Source/FilteringFunctions/arm_conv_partial_q31.c ****           /* Perform the multiply-accumulate */
 465:./Libraries/CMSIS/DSP/Source/FilteringFunctions/arm_conv_partial_q31.c ****           sum += (q63_t) *px++ * *py--;
 472              		.loc 1 465 29
 473 02a6 BB6D     		ldr	r3, [r7, #88]
 474 02a8 1A1D     		adds	r2, r3, #4
 475 02aa BA65     		str	r2, [r7, #88]
 476              		.loc 1 465 26
 477 02ac 1B68     		ldr	r3, [r3]
 478              		.loc 1 465 18
 479 02ae 1846     		mov	r0, r3
 480 02b0 4FEAE071 		asr	r1, r0, #31
 481              		.loc 1 465 37
 482 02b4 7B6D     		ldr	r3, [r7, #84]
 483 02b6 1A1F     		subs	r2, r3, #4
 484 02b8 7A65     		str	r2, [r7, #84]
 485              		.loc 1 465 34
 486 02ba 1B68     		ldr	r3, [r3]
 487 02bc 1A46     		mov	r2, r3
 488 02be 4FEAE273 		asr	r3, r2, #31
 489              		.loc 1 465 32
 490 02c2 02FB01FC 		mul	ip, r2, r1
 491 02c6 00FB03F6 		mul	r6, r0, r3
 492 02ca 6644     		add	r6, r6, ip
 493 02cc A0FB0223 		umull	r2, r3, r0, r2
 494 02d0 F118     		adds	r1, r6, r3
 495 02d2 0B46     		mov	r3, r1
 496              		.loc 1 465 15
 497 02d4 D7E91001 		ldrd	r0, [r7, #64]
 498 02d8 10EB0208 		adds	r8, r0, r2
 499 02dc 41EB0309 		adc	r9, r1, r3
 500 02e0 C7E91089 		strd	r8, [r7, #64]
 466:./Libraries/CMSIS/DSP/Source/FilteringFunctions/arm_conv_partial_q31.c **** 
ARM GAS  /tmp/ccX2G2eJ.s 			page 18


 467:./Libraries/CMSIS/DSP/Source/FilteringFunctions/arm_conv_partial_q31.c ****           /* Decrement loop counter */
 468:./Libraries/CMSIS/DSP/Source/FilteringFunctions/arm_conv_partial_q31.c ****           k--;
 501              		.loc 1 468 12
 502 02e4 FB6B     		ldr	r3, [r7, #60]
 503 02e6 013B     		subs	r3, r3, #1
 504 02e8 FB63     		str	r3, [r7, #60]
 505              	.L27:
 462:./Libraries/CMSIS/DSP/Source/FilteringFunctions/arm_conv_partial_q31.c ****         {
 506              		.loc 1 462 15
 507 02ea FB6B     		ldr	r3, [r7, #60]
 508 02ec 002B     		cmp	r3, #0
 509 02ee DAD1     		bne	.L28
 469:./Libraries/CMSIS/DSP/Source/FilteringFunctions/arm_conv_partial_q31.c ****         }
 470:./Libraries/CMSIS/DSP/Source/FilteringFunctions/arm_conv_partial_q31.c **** 
 471:./Libraries/CMSIS/DSP/Source/FilteringFunctions/arm_conv_partial_q31.c ****         /* Store the result in the accumulator in the destination buffer. */
 472:./Libraries/CMSIS/DSP/Source/FilteringFunctions/arm_conv_partial_q31.c ****         *pOut++ = (q31_t) (sum >> 31);
 510              		.loc 1 472 32
 511 02f0 D7E91001 		ldrd	r0, [r7, #64]
 512 02f4 4FF00002 		mov	r2, #0
 513 02f8 4FF00003 		mov	r3, #0
 514 02fc C20F     		lsrs	r2, r0, #31
 515 02fe 42EA4102 		orr	r2, r2, r1, lsl #1
 516 0302 CB17     		asrs	r3, r1, #31
 517              		.loc 1 472 14
 518 0304 F96D     		ldr	r1, [r7, #92]
 519 0306 081D     		adds	r0, r1, #4
 520 0308 F865     		str	r0, [r7, #92]
 521              		.loc 1 472 19
 522 030a 1346     		mov	r3, r2
 523              		.loc 1 472 17
 524 030c 0B60     		str	r3, [r1]
 473:./Libraries/CMSIS/DSP/Source/FilteringFunctions/arm_conv_partial_q31.c **** 
 474:./Libraries/CMSIS/DSP/Source/FilteringFunctions/arm_conv_partial_q31.c ****         /* Increment the MAC count */
 475:./Libraries/CMSIS/DSP/Source/FilteringFunctions/arm_conv_partial_q31.c ****         count++;
 525              		.loc 1 475 14
 526 030e BB6B     		ldr	r3, [r7, #56]
 527 0310 0133     		adds	r3, r3, #1
 528 0312 BB63     		str	r3, [r7, #56]
 476:./Libraries/CMSIS/DSP/Source/FilteringFunctions/arm_conv_partial_q31.c **** 
 477:./Libraries/CMSIS/DSP/Source/FilteringFunctions/arm_conv_partial_q31.c ****         /* Update the inputA and inputB pointers for next MAC calculation */
 478:./Libraries/CMSIS/DSP/Source/FilteringFunctions/arm_conv_partial_q31.c ****         px = pSrc1 + count;
 529              		.loc 1 478 20
 530 0314 BB6B     		ldr	r3, [r7, #56]
 531 0316 9B00     		lsls	r3, r3, #2
 532              		.loc 1 478 12
 533 0318 3A6D     		ldr	r2, [r7, #80]
 534 031a 1344     		add	r3, r3, r2
 535 031c BB65     		str	r3, [r7, #88]
 479:./Libraries/CMSIS/DSP/Source/FilteringFunctions/arm_conv_partial_q31.c ****         py = pSrc2;
 536              		.loc 1 479 12
 537 031e FB6C     		ldr	r3, [r7, #76]
 538 0320 7B65     		str	r3, [r7, #84]
 480:./Libraries/CMSIS/DSP/Source/FilteringFunctions/arm_conv_partial_q31.c **** 
 481:./Libraries/CMSIS/DSP/Source/FilteringFunctions/arm_conv_partial_q31.c ****         /* Decrement the loop counter */
 482:./Libraries/CMSIS/DSP/Source/FilteringFunctions/arm_conv_partial_q31.c ****         blkCnt--;
 539              		.loc 1 482 15
 540 0322 7B6B     		ldr	r3, [r7, #52]
ARM GAS  /tmp/ccX2G2eJ.s 			page 19


 541 0324 013B     		subs	r3, r3, #1
 542 0326 7B63     		str	r3, [r7, #52]
 543              	.L26:
 454:./Libraries/CMSIS/DSP/Source/FilteringFunctions/arm_conv_partial_q31.c ****       {
 544              		.loc 1 454 13
 545 0328 7B6B     		ldr	r3, [r7, #52]
 546 032a 002B     		cmp	r3, #0
 547 032c B2D1     		bne	.L29
 548              	.L25:
 483:./Libraries/CMSIS/DSP/Source/FilteringFunctions/arm_conv_partial_q31.c ****       }
 484:./Libraries/CMSIS/DSP/Source/FilteringFunctions/arm_conv_partial_q31.c ****     }
 485:./Libraries/CMSIS/DSP/Source/FilteringFunctions/arm_conv_partial_q31.c **** 
 486:./Libraries/CMSIS/DSP/Source/FilteringFunctions/arm_conv_partial_q31.c **** 
 487:./Libraries/CMSIS/DSP/Source/FilteringFunctions/arm_conv_partial_q31.c ****     /* --------------------------
 488:./Libraries/CMSIS/DSP/Source/FilteringFunctions/arm_conv_partial_q31.c ****      * Initializations of stage3
 489:./Libraries/CMSIS/DSP/Source/FilteringFunctions/arm_conv_partial_q31.c ****      * -------------------------*/
 490:./Libraries/CMSIS/DSP/Source/FilteringFunctions/arm_conv_partial_q31.c **** 
 491:./Libraries/CMSIS/DSP/Source/FilteringFunctions/arm_conv_partial_q31.c ****     /* sum += x[srcALen-srcBLen+1] * y[srcBLen-1] + x[srcALen-srcBLen+2] * y[srcBLen-2] +...+ x[src
 492:./Libraries/CMSIS/DSP/Source/FilteringFunctions/arm_conv_partial_q31.c ****      * sum += x[srcALen-srcBLen+2] * y[srcBLen-1] + x[srcALen-srcBLen+3] * y[srcBLen-2] +...+ x[src
 493:./Libraries/CMSIS/DSP/Source/FilteringFunctions/arm_conv_partial_q31.c ****      * ....
 494:./Libraries/CMSIS/DSP/Source/FilteringFunctions/arm_conv_partial_q31.c ****      * sum +=  x[srcALen-2] * y[srcBLen-1] + x[srcALen-1] * y[srcBLen-2]
 495:./Libraries/CMSIS/DSP/Source/FilteringFunctions/arm_conv_partial_q31.c ****      * sum +=  x[srcALen-1] * y[srcBLen-1]
 496:./Libraries/CMSIS/DSP/Source/FilteringFunctions/arm_conv_partial_q31.c ****      */
 497:./Libraries/CMSIS/DSP/Source/FilteringFunctions/arm_conv_partial_q31.c **** 
 498:./Libraries/CMSIS/DSP/Source/FilteringFunctions/arm_conv_partial_q31.c ****     /* In this stage the MAC operations are decreased by 1 for every iteration.
 499:./Libraries/CMSIS/DSP/Source/FilteringFunctions/arm_conv_partial_q31.c ****        The blockSize3 variable holds the number of MAC operations performed */
 500:./Libraries/CMSIS/DSP/Source/FilteringFunctions/arm_conv_partial_q31.c ****     count = srcBLen - 1U;
 549              		.loc 1 500 11
 550 032e BB68     		ldr	r3, [r7, #8]
 551 0330 013B     		subs	r3, r3, #1
 552 0332 BB63     		str	r3, [r7, #56]
 501:./Libraries/CMSIS/DSP/Source/FilteringFunctions/arm_conv_partial_q31.c **** 
 502:./Libraries/CMSIS/DSP/Source/FilteringFunctions/arm_conv_partial_q31.c ****     /* Working pointer of inputA */
 503:./Libraries/CMSIS/DSP/Source/FilteringFunctions/arm_conv_partial_q31.c ****     pSrc1 = (pIn1 + srcALen) - (srcBLen - 1U);
 553              		.loc 1 503 30
 554 0334 3A69     		ldr	r2, [r7, #16]
 555 0336 BB68     		ldr	r3, [r7, #8]
 556 0338 D31A     		subs	r3, r2, r3
 557 033a 0133     		adds	r3, r3, #1
 558 033c 9B00     		lsls	r3, r3, #2
 559              		.loc 1 503 11
 560 033e 7A6E     		ldr	r2, [r7, #100]
 561 0340 1344     		add	r3, r3, r2
 562 0342 3B65     		str	r3, [r7, #80]
 504:./Libraries/CMSIS/DSP/Source/FilteringFunctions/arm_conv_partial_q31.c ****     px = pSrc1;
 563              		.loc 1 504 8
 564 0344 3B6D     		ldr	r3, [r7, #80]
 565 0346 BB65     		str	r3, [r7, #88]
 505:./Libraries/CMSIS/DSP/Source/FilteringFunctions/arm_conv_partial_q31.c **** 
 506:./Libraries/CMSIS/DSP/Source/FilteringFunctions/arm_conv_partial_q31.c ****     /* Working pointer of inputB */
 507:./Libraries/CMSIS/DSP/Source/FilteringFunctions/arm_conv_partial_q31.c ****     pSrc2 = pIn2 + (srcBLen - 1U);
 566              		.loc 1 507 18
 567 0348 BA68     		ldr	r2, [r7, #8]
 568 034a 6FF04043 		mvn	r3, #-1073741824
 569 034e 1344     		add	r3, r3, r2
 570 0350 9B00     		lsls	r3, r3, #2
 571              		.loc 1 507 11
ARM GAS  /tmp/ccX2G2eJ.s 			page 20


 572 0352 3A6E     		ldr	r2, [r7, #96]
 573 0354 1344     		add	r3, r3, r2
 574 0356 FB64     		str	r3, [r7, #76]
 508:./Libraries/CMSIS/DSP/Source/FilteringFunctions/arm_conv_partial_q31.c ****     py = pSrc2;
 575              		.loc 1 508 8
 576 0358 FB6C     		ldr	r3, [r7, #76]
 577 035a 7B65     		str	r3, [r7, #84]
 509:./Libraries/CMSIS/DSP/Source/FilteringFunctions/arm_conv_partial_q31.c **** 
 510:./Libraries/CMSIS/DSP/Source/FilteringFunctions/arm_conv_partial_q31.c ****     /* -------------------
 511:./Libraries/CMSIS/DSP/Source/FilteringFunctions/arm_conv_partial_q31.c ****      * Stage3 process
 512:./Libraries/CMSIS/DSP/Source/FilteringFunctions/arm_conv_partial_q31.c ****      * ------------------*/
 513:./Libraries/CMSIS/DSP/Source/FilteringFunctions/arm_conv_partial_q31.c **** 
 514:./Libraries/CMSIS/DSP/Source/FilteringFunctions/arm_conv_partial_q31.c ****     while (blockSize3 > 0U)
 578              		.loc 1 514 11
 579 035c 48E0     		b	.L30
 580              	.L33:
 515:./Libraries/CMSIS/DSP/Source/FilteringFunctions/arm_conv_partial_q31.c ****     {
 516:./Libraries/CMSIS/DSP/Source/FilteringFunctions/arm_conv_partial_q31.c ****       /* Accumulator is made zero for every iteration */
 517:./Libraries/CMSIS/DSP/Source/FilteringFunctions/arm_conv_partial_q31.c ****       sum = 0;
 581              		.loc 1 517 11
 582 035e 4FF00002 		mov	r2, #0
 583 0362 4FF00003 		mov	r3, #0
 584 0366 C7E91023 		strd	r2, [r7, #64]
 518:./Libraries/CMSIS/DSP/Source/FilteringFunctions/arm_conv_partial_q31.c **** 
 519:./Libraries/CMSIS/DSP/Source/FilteringFunctions/arm_conv_partial_q31.c **** #if defined (ARM_MATH_LOOPUNROLL)
 520:./Libraries/CMSIS/DSP/Source/FilteringFunctions/arm_conv_partial_q31.c **** 
 521:./Libraries/CMSIS/DSP/Source/FilteringFunctions/arm_conv_partial_q31.c ****       /* Loop unrolling: Compute 4 outputs at a time */
 522:./Libraries/CMSIS/DSP/Source/FilteringFunctions/arm_conv_partial_q31.c ****       k = count >> 2U;
 523:./Libraries/CMSIS/DSP/Source/FilteringFunctions/arm_conv_partial_q31.c **** 
 524:./Libraries/CMSIS/DSP/Source/FilteringFunctions/arm_conv_partial_q31.c ****       while (k > 0U)
 525:./Libraries/CMSIS/DSP/Source/FilteringFunctions/arm_conv_partial_q31.c ****       {
 526:./Libraries/CMSIS/DSP/Source/FilteringFunctions/arm_conv_partial_q31.c ****         /* sum += x[srcALen - srcBLen + 1] * y[srcBLen - 1] */
 527:./Libraries/CMSIS/DSP/Source/FilteringFunctions/arm_conv_partial_q31.c ****         sum += (q63_t) *px++ * *py--;
 528:./Libraries/CMSIS/DSP/Source/FilteringFunctions/arm_conv_partial_q31.c **** 
 529:./Libraries/CMSIS/DSP/Source/FilteringFunctions/arm_conv_partial_q31.c ****         /* sum += x[srcALen - srcBLen + 2] * y[srcBLen - 2] */
 530:./Libraries/CMSIS/DSP/Source/FilteringFunctions/arm_conv_partial_q31.c ****         sum += (q63_t) *px++ * *py--;
 531:./Libraries/CMSIS/DSP/Source/FilteringFunctions/arm_conv_partial_q31.c **** 
 532:./Libraries/CMSIS/DSP/Source/FilteringFunctions/arm_conv_partial_q31.c ****         /* sum += x[srcALen - srcBLen + 3] * y[srcBLen - 3] */
 533:./Libraries/CMSIS/DSP/Source/FilteringFunctions/arm_conv_partial_q31.c ****         sum += (q63_t) *px++ * *py--;
 534:./Libraries/CMSIS/DSP/Source/FilteringFunctions/arm_conv_partial_q31.c **** 
 535:./Libraries/CMSIS/DSP/Source/FilteringFunctions/arm_conv_partial_q31.c ****         /* sum += x[srcALen - srcBLen + 4] * y[srcBLen - 4] */
 536:./Libraries/CMSIS/DSP/Source/FilteringFunctions/arm_conv_partial_q31.c ****         sum += (q63_t) *px++ * *py--;
 537:./Libraries/CMSIS/DSP/Source/FilteringFunctions/arm_conv_partial_q31.c **** 
 538:./Libraries/CMSIS/DSP/Source/FilteringFunctions/arm_conv_partial_q31.c ****         /* Decrement loop counter */
 539:./Libraries/CMSIS/DSP/Source/FilteringFunctions/arm_conv_partial_q31.c ****         k--;
 540:./Libraries/CMSIS/DSP/Source/FilteringFunctions/arm_conv_partial_q31.c ****       }
 541:./Libraries/CMSIS/DSP/Source/FilteringFunctions/arm_conv_partial_q31.c **** 
 542:./Libraries/CMSIS/DSP/Source/FilteringFunctions/arm_conv_partial_q31.c ****       /* Loop unrolling: Compute remaining outputs */
 543:./Libraries/CMSIS/DSP/Source/FilteringFunctions/arm_conv_partial_q31.c ****       k = count % 0x4U;
 544:./Libraries/CMSIS/DSP/Source/FilteringFunctions/arm_conv_partial_q31.c **** 
 545:./Libraries/CMSIS/DSP/Source/FilteringFunctions/arm_conv_partial_q31.c **** #else
 546:./Libraries/CMSIS/DSP/Source/FilteringFunctions/arm_conv_partial_q31.c **** 
 547:./Libraries/CMSIS/DSP/Source/FilteringFunctions/arm_conv_partial_q31.c ****       /* Initialize blkCnt with number of samples */
 548:./Libraries/CMSIS/DSP/Source/FilteringFunctions/arm_conv_partial_q31.c ****       k = count;
 585              		.loc 1 548 9
 586 036a BB6B     		ldr	r3, [r7, #56]
 587 036c FB63     		str	r3, [r7, #60]
ARM GAS  /tmp/ccX2G2eJ.s 			page 21


 549:./Libraries/CMSIS/DSP/Source/FilteringFunctions/arm_conv_partial_q31.c **** 
 550:./Libraries/CMSIS/DSP/Source/FilteringFunctions/arm_conv_partial_q31.c **** #endif /* #if defined (ARM_MATH_LOOPUNROLL) */
 551:./Libraries/CMSIS/DSP/Source/FilteringFunctions/arm_conv_partial_q31.c **** 
 552:./Libraries/CMSIS/DSP/Source/FilteringFunctions/arm_conv_partial_q31.c ****       while (k > 0U)
 588              		.loc 1 552 13
 589 036e 20E0     		b	.L31
 590              	.L32:
 553:./Libraries/CMSIS/DSP/Source/FilteringFunctions/arm_conv_partial_q31.c ****       {
 554:./Libraries/CMSIS/DSP/Source/FilteringFunctions/arm_conv_partial_q31.c ****         /* Perform the multiply-accumulate */
 555:./Libraries/CMSIS/DSP/Source/FilteringFunctions/arm_conv_partial_q31.c ****         /* sum +=  x[srcALen-1] * y[srcBLen-1] */
 556:./Libraries/CMSIS/DSP/Source/FilteringFunctions/arm_conv_partial_q31.c ****         sum += (q63_t) *px++ * *py--;
 591              		.loc 1 556 27
 592 0370 BB6D     		ldr	r3, [r7, #88]
 593 0372 1A1D     		adds	r2, r3, #4
 594 0374 BA65     		str	r2, [r7, #88]
 595              		.loc 1 556 24
 596 0376 1B68     		ldr	r3, [r3]
 597              		.loc 1 556 16
 598 0378 1846     		mov	r0, r3
 599 037a 4FEAE071 		asr	r1, r0, #31
 600              		.loc 1 556 35
 601 037e 7B6D     		ldr	r3, [r7, #84]
 602 0380 1A1F     		subs	r2, r3, #4
 603 0382 7A65     		str	r2, [r7, #84]
 604              		.loc 1 556 32
 605 0384 1B68     		ldr	r3, [r3]
 606 0386 1A46     		mov	r2, r3
 607 0388 4FEAE273 		asr	r3, r2, #31
 608              		.loc 1 556 30
 609 038c 02FB01FC 		mul	ip, r2, r1
 610 0390 00FB03F6 		mul	r6, r0, r3
 611 0394 6644     		add	r6, r6, ip
 612 0396 A0FB0223 		umull	r2, r3, r0, r2
 613 039a F118     		adds	r1, r6, r3
 614 039c 0B46     		mov	r3, r1
 615              		.loc 1 556 13
 616 039e D7E91001 		ldrd	r0, [r7, #64]
 617 03a2 8418     		adds	r4, r0, r2
 618 03a4 41EB0305 		adc	r5, r1, r3
 619 03a8 C7E91045 		strd	r4, [r7, #64]
 557:./Libraries/CMSIS/DSP/Source/FilteringFunctions/arm_conv_partial_q31.c **** 
 558:./Libraries/CMSIS/DSP/Source/FilteringFunctions/arm_conv_partial_q31.c ****         /* Decrement loop counter */
 559:./Libraries/CMSIS/DSP/Source/FilteringFunctions/arm_conv_partial_q31.c ****         k--;
 620              		.loc 1 559 10
 621 03ac FB6B     		ldr	r3, [r7, #60]
 622 03ae 013B     		subs	r3, r3, #1
 623 03b0 FB63     		str	r3, [r7, #60]
 624              	.L31:
 552:./Libraries/CMSIS/DSP/Source/FilteringFunctions/arm_conv_partial_q31.c ****       {
 625              		.loc 1 552 13
 626 03b2 FB6B     		ldr	r3, [r7, #60]
 627 03b4 002B     		cmp	r3, #0
 628 03b6 DBD1     		bne	.L32
 560:./Libraries/CMSIS/DSP/Source/FilteringFunctions/arm_conv_partial_q31.c ****       }
 561:./Libraries/CMSIS/DSP/Source/FilteringFunctions/arm_conv_partial_q31.c **** 
 562:./Libraries/CMSIS/DSP/Source/FilteringFunctions/arm_conv_partial_q31.c ****       /* Store the result in the accumulator in the destination buffer. */
 563:./Libraries/CMSIS/DSP/Source/FilteringFunctions/arm_conv_partial_q31.c ****       *pOut++ = (q31_t) (sum >> 31);
ARM GAS  /tmp/ccX2G2eJ.s 			page 22


 629              		.loc 1 563 30
 630 03b8 D7E91001 		ldrd	r0, [r7, #64]
 631 03bc 4FF00002 		mov	r2, #0
 632 03c0 4FF00003 		mov	r3, #0
 633 03c4 C20F     		lsrs	r2, r0, #31
 634 03c6 42EA4102 		orr	r2, r2, r1, lsl #1
 635 03ca CB17     		asrs	r3, r1, #31
 636              		.loc 1 563 12
 637 03cc F96D     		ldr	r1, [r7, #92]
 638 03ce 081D     		adds	r0, r1, #4
 639 03d0 F865     		str	r0, [r7, #92]
 640              		.loc 1 563 17
 641 03d2 1346     		mov	r3, r2
 642              		.loc 1 563 15
 643 03d4 0B60     		str	r3, [r1]
 564:./Libraries/CMSIS/DSP/Source/FilteringFunctions/arm_conv_partial_q31.c **** 
 565:./Libraries/CMSIS/DSP/Source/FilteringFunctions/arm_conv_partial_q31.c ****       /* Update the inputA and inputB pointers for next MAC calculation */
 566:./Libraries/CMSIS/DSP/Source/FilteringFunctions/arm_conv_partial_q31.c ****       px = ++pSrc1;
 644              		.loc 1 566 10
 645 03d6 3B6D     		ldr	r3, [r7, #80]
 646 03d8 0433     		adds	r3, r3, #4
 647 03da 3B65     		str	r3, [r7, #80]
 648 03dc 3B6D     		ldr	r3, [r7, #80]
 649 03de BB65     		str	r3, [r7, #88]
 567:./Libraries/CMSIS/DSP/Source/FilteringFunctions/arm_conv_partial_q31.c ****       py = pSrc2;
 650              		.loc 1 567 10
 651 03e0 FB6C     		ldr	r3, [r7, #76]
 652 03e2 7B65     		str	r3, [r7, #84]
 568:./Libraries/CMSIS/DSP/Source/FilteringFunctions/arm_conv_partial_q31.c **** 
 569:./Libraries/CMSIS/DSP/Source/FilteringFunctions/arm_conv_partial_q31.c ****       /* Decrement MAC count */
 570:./Libraries/CMSIS/DSP/Source/FilteringFunctions/arm_conv_partial_q31.c ****       count--;
 653              		.loc 1 570 12
 654 03e4 BB6B     		ldr	r3, [r7, #56]
 655 03e6 013B     		subs	r3, r3, #1
 656 03e8 BB63     		str	r3, [r7, #56]
 571:./Libraries/CMSIS/DSP/Source/FilteringFunctions/arm_conv_partial_q31.c **** 
 572:./Libraries/CMSIS/DSP/Source/FilteringFunctions/arm_conv_partial_q31.c ****       /* Decrement the loop counter */
 573:./Libraries/CMSIS/DSP/Source/FilteringFunctions/arm_conv_partial_q31.c ****       blockSize3--;
 657              		.loc 1 573 17
 658 03ea FB6A     		ldr	r3, [r7, #44]
 659 03ec 013B     		subs	r3, r3, #1
 660 03ee FB62     		str	r3, [r7, #44]
 661              	.L30:
 514:./Libraries/CMSIS/DSP/Source/FilteringFunctions/arm_conv_partial_q31.c ****     {
 662              		.loc 1 514 11
 663 03f0 FB6A     		ldr	r3, [r7, #44]
 664 03f2 002B     		cmp	r3, #0
 665 03f4 B3D1     		bne	.L33
 574:./Libraries/CMSIS/DSP/Source/FilteringFunctions/arm_conv_partial_q31.c ****     }
 575:./Libraries/CMSIS/DSP/Source/FilteringFunctions/arm_conv_partial_q31.c **** 
 576:./Libraries/CMSIS/DSP/Source/FilteringFunctions/arm_conv_partial_q31.c ****     /* Set status as ARM_MATH_SUCCESS */
 577:./Libraries/CMSIS/DSP/Source/FilteringFunctions/arm_conv_partial_q31.c ****     status = ARM_MATH_SUCCESS;
 666              		.loc 1 577 12
 667 03f6 0023     		movs	r3, #0
 668 03f8 87F82B30 		strb	r3, [r7, #43]
 669              	.L3:
 578:./Libraries/CMSIS/DSP/Source/FilteringFunctions/arm_conv_partial_q31.c ****   }
ARM GAS  /tmp/ccX2G2eJ.s 			page 23


 579:./Libraries/CMSIS/DSP/Source/FilteringFunctions/arm_conv_partial_q31.c **** 
 580:./Libraries/CMSIS/DSP/Source/FilteringFunctions/arm_conv_partial_q31.c ****   /* Return to application */
 581:./Libraries/CMSIS/DSP/Source/FilteringFunctions/arm_conv_partial_q31.c ****   return (status);
 670              		.loc 1 581 10
 671 03fc 97F92B30 		ldrsb	r3, [r7, #43]
 582:./Libraries/CMSIS/DSP/Source/FilteringFunctions/arm_conv_partial_q31.c **** 
 583:./Libraries/CMSIS/DSP/Source/FilteringFunctions/arm_conv_partial_q31.c **** #else
 584:./Libraries/CMSIS/DSP/Source/FilteringFunctions/arm_conv_partial_q31.c **** /* alternate version for CM0_FAMILY */
 585:./Libraries/CMSIS/DSP/Source/FilteringFunctions/arm_conv_partial_q31.c **** 
 586:./Libraries/CMSIS/DSP/Source/FilteringFunctions/arm_conv_partial_q31.c ****   const q31_t *pIn1 = pSrcA;                           /* InputA pointer */
 587:./Libraries/CMSIS/DSP/Source/FilteringFunctions/arm_conv_partial_q31.c ****   const q31_t *pIn2 = pSrcB;                           /* InputB pointer */
 588:./Libraries/CMSIS/DSP/Source/FilteringFunctions/arm_conv_partial_q31.c ****         q63_t sum;                                     /* Accumulator */
 589:./Libraries/CMSIS/DSP/Source/FilteringFunctions/arm_conv_partial_q31.c ****         uint32_t i, j;                                 /* Loop counters */
 590:./Libraries/CMSIS/DSP/Source/FilteringFunctions/arm_conv_partial_q31.c ****         arm_status status;                             /* Status of Partial convolution */
 591:./Libraries/CMSIS/DSP/Source/FilteringFunctions/arm_conv_partial_q31.c **** 
 592:./Libraries/CMSIS/DSP/Source/FilteringFunctions/arm_conv_partial_q31.c ****   /* Check for range of output samples to be calculated */
 593:./Libraries/CMSIS/DSP/Source/FilteringFunctions/arm_conv_partial_q31.c ****   if ((firstIndex + numPoints) > ((srcALen + (srcBLen - 1U))))
 594:./Libraries/CMSIS/DSP/Source/FilteringFunctions/arm_conv_partial_q31.c ****   {
 595:./Libraries/CMSIS/DSP/Source/FilteringFunctions/arm_conv_partial_q31.c ****     /* Set status as ARM_MATH_ARGUMENT_ERROR */
 596:./Libraries/CMSIS/DSP/Source/FilteringFunctions/arm_conv_partial_q31.c ****     status = ARM_MATH_ARGUMENT_ERROR;
 597:./Libraries/CMSIS/DSP/Source/FilteringFunctions/arm_conv_partial_q31.c ****   }
 598:./Libraries/CMSIS/DSP/Source/FilteringFunctions/arm_conv_partial_q31.c ****   else
 599:./Libraries/CMSIS/DSP/Source/FilteringFunctions/arm_conv_partial_q31.c ****   {
 600:./Libraries/CMSIS/DSP/Source/FilteringFunctions/arm_conv_partial_q31.c ****     /* Loop to calculate convolution for output length number of values */
 601:./Libraries/CMSIS/DSP/Source/FilteringFunctions/arm_conv_partial_q31.c ****     for (i = firstIndex; i <= (firstIndex + numPoints - 1); i++)
 602:./Libraries/CMSIS/DSP/Source/FilteringFunctions/arm_conv_partial_q31.c ****     {
 603:./Libraries/CMSIS/DSP/Source/FilteringFunctions/arm_conv_partial_q31.c ****       /* Initialize sum with zero to carry on MAC operations */
 604:./Libraries/CMSIS/DSP/Source/FilteringFunctions/arm_conv_partial_q31.c ****       sum = 0;
 605:./Libraries/CMSIS/DSP/Source/FilteringFunctions/arm_conv_partial_q31.c **** 
 606:./Libraries/CMSIS/DSP/Source/FilteringFunctions/arm_conv_partial_q31.c ****       /* Loop to perform MAC operations according to convolution equation */
 607:./Libraries/CMSIS/DSP/Source/FilteringFunctions/arm_conv_partial_q31.c ****       for (j = 0U; j <= i; j++)
 608:./Libraries/CMSIS/DSP/Source/FilteringFunctions/arm_conv_partial_q31.c ****       {
 609:./Libraries/CMSIS/DSP/Source/FilteringFunctions/arm_conv_partial_q31.c ****         /* Check the array limitations */
 610:./Libraries/CMSIS/DSP/Source/FilteringFunctions/arm_conv_partial_q31.c ****         if (((i - j) < srcBLen) && (j < srcALen))
 611:./Libraries/CMSIS/DSP/Source/FilteringFunctions/arm_conv_partial_q31.c ****         {
 612:./Libraries/CMSIS/DSP/Source/FilteringFunctions/arm_conv_partial_q31.c ****           /* z[i] += x[i-j] * y[j] */
 613:./Libraries/CMSIS/DSP/Source/FilteringFunctions/arm_conv_partial_q31.c ****           sum += ((q63_t) pIn1[j] * pIn2[i - j]);
 614:./Libraries/CMSIS/DSP/Source/FilteringFunctions/arm_conv_partial_q31.c ****         }
 615:./Libraries/CMSIS/DSP/Source/FilteringFunctions/arm_conv_partial_q31.c ****       }
 616:./Libraries/CMSIS/DSP/Source/FilteringFunctions/arm_conv_partial_q31.c **** 
 617:./Libraries/CMSIS/DSP/Source/FilteringFunctions/arm_conv_partial_q31.c ****       /* Store the output in the destination buffer */
 618:./Libraries/CMSIS/DSP/Source/FilteringFunctions/arm_conv_partial_q31.c ****       pDst[i] = (q31_t) (sum >> 31U);
 619:./Libraries/CMSIS/DSP/Source/FilteringFunctions/arm_conv_partial_q31.c ****     }
 620:./Libraries/CMSIS/DSP/Source/FilteringFunctions/arm_conv_partial_q31.c **** 
 621:./Libraries/CMSIS/DSP/Source/FilteringFunctions/arm_conv_partial_q31.c ****     /* Set status as ARM_MATH_SUCCESS */
 622:./Libraries/CMSIS/DSP/Source/FilteringFunctions/arm_conv_partial_q31.c ****     status = ARM_MATH_SUCCESS;
 623:./Libraries/CMSIS/DSP/Source/FilteringFunctions/arm_conv_partial_q31.c ****   }
 624:./Libraries/CMSIS/DSP/Source/FilteringFunctions/arm_conv_partial_q31.c **** 
 625:./Libraries/CMSIS/DSP/Source/FilteringFunctions/arm_conv_partial_q31.c ****   /* Return to application */
 626:./Libraries/CMSIS/DSP/Source/FilteringFunctions/arm_conv_partial_q31.c ****   return (status);
 627:./Libraries/CMSIS/DSP/Source/FilteringFunctions/arm_conv_partial_q31.c **** 
 628:./Libraries/CMSIS/DSP/Source/FilteringFunctions/arm_conv_partial_q31.c **** #endif /* #if !defined(ARM_MATH_CM0_FAMILY) */
 629:./Libraries/CMSIS/DSP/Source/FilteringFunctions/arm_conv_partial_q31.c **** 
 630:./Libraries/CMSIS/DSP/Source/FilteringFunctions/arm_conv_partial_q31.c **** }
 672              		.loc 1 630 1
 673 0400 1846     		mov	r0, r3
 674 0402 6837     		adds	r7, r7, #104
ARM GAS  /tmp/ccX2G2eJ.s 			page 24


 675              	.LCFI3:
 676              		.cfi_def_cfa_offset 32
 677 0404 BD46     		mov	sp, r7
 678              	.LCFI4:
 679              		.cfi_def_cfa_register 13
 680              		@ sp needed
 681 0406 BDE8F00F 		pop	{r4, r5, r6, r7, r8, r9, r10, fp}
 682              	.LCFI5:
 683              		.cfi_restore 11
 684              		.cfi_restore 10
 685              		.cfi_restore 9
 686              		.cfi_restore 8
 687              		.cfi_restore 7
 688              		.cfi_restore 6
 689              		.cfi_restore 5
 690              		.cfi_restore 4
 691              		.cfi_def_cfa_offset 0
 692 040a 7047     		bx	lr
 693              		.cfi_endproc
 694              	.LFE145:
 696              		.text
 697              	.Letext0:
 698              		.file 2 "/usr/lib/gcc/arm-none-eabi/9.2.1/include/stdint.h"
 699              		.file 3 "/usr/lib/gcc/arm-none-eabi/9.2.1/include/stddef.h"
 700              		.file 4 "/usr/include/newlib/sys/_types.h"
 701              		.file 5 "/usr/include/newlib/sys/reent.h"
 702              		.file 6 "/usr/include/newlib/sys/lock.h"
 703              		.file 7 "/usr/include/newlib/math.h"
 704              		.file 8 "./Libraries/CMSIS/DSP/Include/arm_math.h"
ARM GAS  /tmp/ccX2G2eJ.s 			page 25

