ARM GAS  /tmp/ccGTOt9N.s 			page 1


   1              		.cpu cortex-m7
   2              		.eabi_attribute 28, 1
   3              		.eabi_attribute 20, 1
   4              		.eabi_attribute 21, 1
   5              		.eabi_attribute 23, 3
   6              		.eabi_attribute 24, 1
   7              		.eabi_attribute 25, 1
   8              		.eabi_attribute 26, 1
   9              		.eabi_attribute 30, 6
  10              		.eabi_attribute 34, 1
  11              		.eabi_attribute 18, 4
  12              		.file	"arm_cos_q15.c"
  13              		.text
  14              	.Ltext0:
  15              		.cfi_sections	.debug_frame
  16              		.section	.text.arm_cos_q15,"ax",%progbits
  17              		.align	1
  18              		.global	arm_cos_q15
  19              		.arch armv7e-m
  20              		.syntax unified
  21              		.thumb
  22              		.thumb_func
  23              		.fpu fpv5-d16
  25              	arm_cos_q15:
  26              	.LFB145:
  27              		.file 1 "./Libraries/CMSIS/DSP/Source/FastMathFunctions/arm_cos_q15.c"
   1:./Libraries/CMSIS/DSP/Source/FastMathFunctions/arm_cos_q15.c **** /* ----------------------------------------------------------------------
   2:./Libraries/CMSIS/DSP/Source/FastMathFunctions/arm_cos_q15.c ****  * Project:      CMSIS DSP Library
   3:./Libraries/CMSIS/DSP/Source/FastMathFunctions/arm_cos_q15.c ****  * Title:        arm_cos_q15.c
   4:./Libraries/CMSIS/DSP/Source/FastMathFunctions/arm_cos_q15.c ****  * Description:  Fast cosine calculation for Q15 values
   5:./Libraries/CMSIS/DSP/Source/FastMathFunctions/arm_cos_q15.c ****  *
   6:./Libraries/CMSIS/DSP/Source/FastMathFunctions/arm_cos_q15.c ****  * $Date:        18. March 2019
   7:./Libraries/CMSIS/DSP/Source/FastMathFunctions/arm_cos_q15.c ****  * $Revision:    V1.6.0
   8:./Libraries/CMSIS/DSP/Source/FastMathFunctions/arm_cos_q15.c ****  *
   9:./Libraries/CMSIS/DSP/Source/FastMathFunctions/arm_cos_q15.c ****  * Target Processor: Cortex-M cores
  10:./Libraries/CMSIS/DSP/Source/FastMathFunctions/arm_cos_q15.c ****  * -------------------------------------------------------------------- */
  11:./Libraries/CMSIS/DSP/Source/FastMathFunctions/arm_cos_q15.c **** /*
  12:./Libraries/CMSIS/DSP/Source/FastMathFunctions/arm_cos_q15.c ****  * Copyright (C) 2010-2019 ARM Limited or its affiliates. All rights reserved.
  13:./Libraries/CMSIS/DSP/Source/FastMathFunctions/arm_cos_q15.c ****  *
  14:./Libraries/CMSIS/DSP/Source/FastMathFunctions/arm_cos_q15.c ****  * SPDX-License-Identifier: Apache-2.0
  15:./Libraries/CMSIS/DSP/Source/FastMathFunctions/arm_cos_q15.c ****  *
  16:./Libraries/CMSIS/DSP/Source/FastMathFunctions/arm_cos_q15.c ****  * Licensed under the Apache License, Version 2.0 (the License); you may
  17:./Libraries/CMSIS/DSP/Source/FastMathFunctions/arm_cos_q15.c ****  * not use this file except in compliance with the License.
  18:./Libraries/CMSIS/DSP/Source/FastMathFunctions/arm_cos_q15.c ****  * You may obtain a copy of the License at
  19:./Libraries/CMSIS/DSP/Source/FastMathFunctions/arm_cos_q15.c ****  *
  20:./Libraries/CMSIS/DSP/Source/FastMathFunctions/arm_cos_q15.c ****  * www.apache.org/licenses/LICENSE-2.0
  21:./Libraries/CMSIS/DSP/Source/FastMathFunctions/arm_cos_q15.c ****  *
  22:./Libraries/CMSIS/DSP/Source/FastMathFunctions/arm_cos_q15.c ****  * Unless required by applicable law or agreed to in writing, software
  23:./Libraries/CMSIS/DSP/Source/FastMathFunctions/arm_cos_q15.c ****  * distributed under the License is distributed on an AS IS BASIS, WITHOUT
  24:./Libraries/CMSIS/DSP/Source/FastMathFunctions/arm_cos_q15.c ****  * WARRANTIES OR CONDITIONS OF ANY KIND, either express or implied.
  25:./Libraries/CMSIS/DSP/Source/FastMathFunctions/arm_cos_q15.c ****  * See the License for the specific language governing permissions and
  26:./Libraries/CMSIS/DSP/Source/FastMathFunctions/arm_cos_q15.c ****  * limitations under the License.
  27:./Libraries/CMSIS/DSP/Source/FastMathFunctions/arm_cos_q15.c ****  */
  28:./Libraries/CMSIS/DSP/Source/FastMathFunctions/arm_cos_q15.c **** 
  29:./Libraries/CMSIS/DSP/Source/FastMathFunctions/arm_cos_q15.c **** #include "arm_math.h"
  30:./Libraries/CMSIS/DSP/Source/FastMathFunctions/arm_cos_q15.c **** #include "arm_common_tables.h"
  31:./Libraries/CMSIS/DSP/Source/FastMathFunctions/arm_cos_q15.c **** 
ARM GAS  /tmp/ccGTOt9N.s 			page 2


  32:./Libraries/CMSIS/DSP/Source/FastMathFunctions/arm_cos_q15.c **** /**
  33:./Libraries/CMSIS/DSP/Source/FastMathFunctions/arm_cos_q15.c ****   @ingroup groupFastMath
  34:./Libraries/CMSIS/DSP/Source/FastMathFunctions/arm_cos_q15.c ****  */
  35:./Libraries/CMSIS/DSP/Source/FastMathFunctions/arm_cos_q15.c **** 
  36:./Libraries/CMSIS/DSP/Source/FastMathFunctions/arm_cos_q15.c **** /**
  37:./Libraries/CMSIS/DSP/Source/FastMathFunctions/arm_cos_q15.c ****   @addtogroup cos
  38:./Libraries/CMSIS/DSP/Source/FastMathFunctions/arm_cos_q15.c ****   @{
  39:./Libraries/CMSIS/DSP/Source/FastMathFunctions/arm_cos_q15.c ****  */
  40:./Libraries/CMSIS/DSP/Source/FastMathFunctions/arm_cos_q15.c **** 
  41:./Libraries/CMSIS/DSP/Source/FastMathFunctions/arm_cos_q15.c **** /**
  42:./Libraries/CMSIS/DSP/Source/FastMathFunctions/arm_cos_q15.c ****   @brief         Fast approximation to the trigonometric cosine function for Q15 data.
  43:./Libraries/CMSIS/DSP/Source/FastMathFunctions/arm_cos_q15.c ****   @param[in]     x  Scaled input value in radians
  44:./Libraries/CMSIS/DSP/Source/FastMathFunctions/arm_cos_q15.c ****   @return        cos(x)
  45:./Libraries/CMSIS/DSP/Source/FastMathFunctions/arm_cos_q15.c **** 
  46:./Libraries/CMSIS/DSP/Source/FastMathFunctions/arm_cos_q15.c ****   The Q15 input value is in the range [0 +0.9999] and is mapped to a radian value in the range [0 2
  47:./Libraries/CMSIS/DSP/Source/FastMathFunctions/arm_cos_q15.c ****  */
  48:./Libraries/CMSIS/DSP/Source/FastMathFunctions/arm_cos_q15.c **** 
  49:./Libraries/CMSIS/DSP/Source/FastMathFunctions/arm_cos_q15.c **** q15_t arm_cos_q15(
  50:./Libraries/CMSIS/DSP/Source/FastMathFunctions/arm_cos_q15.c ****   q15_t x)
  51:./Libraries/CMSIS/DSP/Source/FastMathFunctions/arm_cos_q15.c **** {
  28              		.loc 1 51 1
  29              		.cfi_startproc
  30              		@ args = 0, pretend = 0, frame = 24
  31              		@ frame_needed = 1, uses_anonymous_args = 0
  32              		@ link register save eliminated.
  33 0000 80B4     		push	{r7}
  34              	.LCFI0:
  35              		.cfi_def_cfa_offset 4
  36              		.cfi_offset 7, -4
  37 0002 87B0     		sub	sp, sp, #28
  38              	.LCFI1:
  39              		.cfi_def_cfa_offset 32
  40 0004 00AF     		add	r7, sp, #0
  41              	.LCFI2:
  42              		.cfi_def_cfa_register 7
  43 0006 0346     		mov	r3, r0
  44 0008 FB80     		strh	r3, [r7, #6]	@ movhi
  52:./Libraries/CMSIS/DSP/Source/FastMathFunctions/arm_cos_q15.c ****   q15_t cosVal;                                  /* Temporary input, output variables */
  53:./Libraries/CMSIS/DSP/Source/FastMathFunctions/arm_cos_q15.c ****   int32_t index;                                 /* Index variable */
  54:./Libraries/CMSIS/DSP/Source/FastMathFunctions/arm_cos_q15.c ****   q15_t a, b;                                    /* Two nearest output values */
  55:./Libraries/CMSIS/DSP/Source/FastMathFunctions/arm_cos_q15.c ****   q15_t fract;                                   /* Temporary values for fractional values */
  56:./Libraries/CMSIS/DSP/Source/FastMathFunctions/arm_cos_q15.c **** 
  57:./Libraries/CMSIS/DSP/Source/FastMathFunctions/arm_cos_q15.c ****   /* add 0.25 (pi/2) to read sine table */
  58:./Libraries/CMSIS/DSP/Source/FastMathFunctions/arm_cos_q15.c ****   x = (uint16_t)x + 0x2000;
  45              		.loc 1 58 7
  46 000a FB88     		ldrh	r3, [r7, #6]
  47              		.loc 1 58 19
  48 000c 03F50053 		add	r3, r3, #8192
  49 0010 9BB2     		uxth	r3, r3
  50              		.loc 1 58 5
  51 0012 FB80     		strh	r3, [r7, #6]	@ movhi
  59:./Libraries/CMSIS/DSP/Source/FastMathFunctions/arm_cos_q15.c ****   if (x < 0)
  52              		.loc 1 59 6
  53 0014 B7F90630 		ldrsh	r3, [r7, #6]
  54 0018 002B     		cmp	r3, #0
  55 001a 04DA     		bge	.L2
  60:./Libraries/CMSIS/DSP/Source/FastMathFunctions/arm_cos_q15.c ****   { /* convert negative numbers to corresponding positive ones */
ARM GAS  /tmp/ccGTOt9N.s 			page 3


  61:./Libraries/CMSIS/DSP/Source/FastMathFunctions/arm_cos_q15.c ****     x = (uint16_t)x + 0x8000;
  56              		.loc 1 61 9
  57 001c FB88     		ldrh	r3, [r7, #6]
  58              		.loc 1 61 21
  59 001e A3F50043 		sub	r3, r3, #32768
  60 0022 9BB2     		uxth	r3, r3
  61              		.loc 1 61 7
  62 0024 FB80     		strh	r3, [r7, #6]	@ movhi
  63              	.L2:
  62:./Libraries/CMSIS/DSP/Source/FastMathFunctions/arm_cos_q15.c ****   }
  63:./Libraries/CMSIS/DSP/Source/FastMathFunctions/arm_cos_q15.c **** 
  64:./Libraries/CMSIS/DSP/Source/FastMathFunctions/arm_cos_q15.c ****   /* Calculate the nearest index */
  65:./Libraries/CMSIS/DSP/Source/FastMathFunctions/arm_cos_q15.c ****   index = (uint32_t)x >> FAST_MATH_Q15_SHIFT;
  64              		.loc 1 65 11
  65 0026 B7F90630 		ldrsh	r3, [r7, #6]
  66              		.loc 1 65 23
  67 002a 9B09     		lsrs	r3, r3, #6
  68              		.loc 1 65 9
  69 002c 7B61     		str	r3, [r7, #20]
  66:./Libraries/CMSIS/DSP/Source/FastMathFunctions/arm_cos_q15.c **** 
  67:./Libraries/CMSIS/DSP/Source/FastMathFunctions/arm_cos_q15.c ****   /* Calculation of fractional value */
  68:./Libraries/CMSIS/DSP/Source/FastMathFunctions/arm_cos_q15.c ****   fract = (x - (index << FAST_MATH_Q15_SHIFT)) << 9;
  70              		.loc 1 68 14
  71 002e B7F90620 		ldrsh	r2, [r7, #6]
  72              		.loc 1 68 23
  73 0032 7B69     		ldr	r3, [r7, #20]
  74 0034 9B01     		lsls	r3, r3, #6
  75              		.loc 1 68 14
  76 0036 D31A     		subs	r3, r2, r3
  77              		.loc 1 68 48
  78 0038 5B02     		lsls	r3, r3, #9
  79              		.loc 1 68 9
  80 003a 7B82     		strh	r3, [r7, #18]	@ movhi
  69:./Libraries/CMSIS/DSP/Source/FastMathFunctions/arm_cos_q15.c **** 
  70:./Libraries/CMSIS/DSP/Source/FastMathFunctions/arm_cos_q15.c ****   /* Read two nearest values of input value from the sin table */
  71:./Libraries/CMSIS/DSP/Source/FastMathFunctions/arm_cos_q15.c ****   a = sinTable_q15[index];
  81              		.loc 1 71 5
  82 003c 154A     		ldr	r2, .L4
  83 003e 7B69     		ldr	r3, [r7, #20]
  84 0040 32F81330 		ldrh	r3, [r2, r3, lsl #1]	@ movhi
  85 0044 3B82     		strh	r3, [r7, #16]	@ movhi
  72:./Libraries/CMSIS/DSP/Source/FastMathFunctions/arm_cos_q15.c ****   b = sinTable_q15[index+1];
  86              		.loc 1 72 25
  87 0046 7B69     		ldr	r3, [r7, #20]
  88 0048 0133     		adds	r3, r3, #1
  89              		.loc 1 72 5
  90 004a 124A     		ldr	r2, .L4
  91 004c 32F81330 		ldrh	r3, [r2, r3, lsl #1]	@ movhi
  92 0050 FB81     		strh	r3, [r7, #14]	@ movhi
  73:./Libraries/CMSIS/DSP/Source/FastMathFunctions/arm_cos_q15.c **** 
  74:./Libraries/CMSIS/DSP/Source/FastMathFunctions/arm_cos_q15.c ****   /* Linear interpolation process */
  75:./Libraries/CMSIS/DSP/Source/FastMathFunctions/arm_cos_q15.c ****   cosVal = (q31_t) (0x8000 - fract) * a >> 16;
  93              		.loc 1 75 12
  94 0052 B7F91230 		ldrsh	r3, [r7, #18]
  95              		.loc 1 75 28
  96 0056 C3F50043 		rsb	r3, r3, #32768
  97              		.loc 1 75 37
ARM GAS  /tmp/ccGTOt9N.s 			page 4


  98 005a B7F91020 		ldrsh	r2, [r7, #16]
  99 005e 02FB03F3 		mul	r3, r2, r3
 100              		.loc 1 75 41
 101 0062 1B14     		asrs	r3, r3, #16
 102              		.loc 1 75 10
 103 0064 BB81     		strh	r3, [r7, #12]	@ movhi
  76:./Libraries/CMSIS/DSP/Source/FastMathFunctions/arm_cos_q15.c ****   cosVal = (q15_t) ((((q31_t) cosVal << 16) + ((q31_t) fract * b)) >> 16);
 104              		.loc 1 76 23
 105 0066 B7F90C30 		ldrsh	r3, [r7, #12]
 106              		.loc 1 76 38
 107 006a 1A04     		lsls	r2, r3, #16
 108              		.loc 1 76 48
 109 006c B7F91230 		ldrsh	r3, [r7, #18]
 110              		.loc 1 76 62
 111 0070 B7F90E10 		ldrsh	r1, [r7, #14]
 112 0074 01FB03F3 		mul	r3, r1, r3
 113              		.loc 1 76 45
 114 0078 1344     		add	r3, r3, r2
 115              		.loc 1 76 68
 116 007a 1B14     		asrs	r3, r3, #16
 117              		.loc 1 76 10
 118 007c BB81     		strh	r3, [r7, #12]	@ movhi
  77:./Libraries/CMSIS/DSP/Source/FastMathFunctions/arm_cos_q15.c **** 
  78:./Libraries/CMSIS/DSP/Source/FastMathFunctions/arm_cos_q15.c ****   /* Return output value */
  79:./Libraries/CMSIS/DSP/Source/FastMathFunctions/arm_cos_q15.c ****   return (cosVal << 1);
 119              		.loc 1 79 18
 120 007e B7F90C30 		ldrsh	r3, [r7, #12]
 121 0082 5B00     		lsls	r3, r3, #1
 122 0084 1BB2     		sxth	r3, r3
  80:./Libraries/CMSIS/DSP/Source/FastMathFunctions/arm_cos_q15.c **** }
 123              		.loc 1 80 1
 124 0086 1846     		mov	r0, r3
 125 0088 1C37     		adds	r7, r7, #28
 126              	.LCFI3:
 127              		.cfi_def_cfa_offset 4
 128 008a BD46     		mov	sp, r7
 129              	.LCFI4:
 130              		.cfi_def_cfa_register 13
 131              		@ sp needed
 132 008c 5DF8047B 		ldr	r7, [sp], #4
 133              	.LCFI5:
 134              		.cfi_restore 7
 135              		.cfi_def_cfa_offset 0
 136 0090 7047     		bx	lr
 137              	.L5:
 138 0092 00BF     		.align	2
 139              	.L4:
 140 0094 00000000 		.word	sinTable_q15
 141              		.cfi_endproc
 142              	.LFE145:
 144              		.text
 145              	.Letext0:
 146              		.file 2 "/usr/lib/gcc/arm-none-eabi/9.2.1/include/stdint.h"
 147              		.file 3 "/usr/lib/gcc/arm-none-eabi/9.2.1/include/stddef.h"
 148              		.file 4 "/usr/include/newlib/sys/_types.h"
 149              		.file 5 "/usr/include/newlib/sys/reent.h"
 150              		.file 6 "/usr/include/newlib/sys/lock.h"
ARM GAS  /tmp/ccGTOt9N.s 			page 5


 151              		.file 7 "/usr/include/newlib/math.h"
 152              		.file 8 "./Libraries/CMSIS/DSP/Include/arm_math.h"
 153              		.file 9 "./Libraries/CMSIS/DSP/Include/arm_common_tables.h"
ARM GAS  /tmp/ccGTOt9N.s 			page 6

