ARM GAS  /tmp/ccAcLGSx.s 			page 1


   1              		.cpu cortex-m7
   2              		.eabi_attribute 28, 1
   3              		.eabi_attribute 20, 1
   4              		.eabi_attribute 21, 1
   5              		.eabi_attribute 23, 3
   6              		.eabi_attribute 24, 1
   7              		.eabi_attribute 25, 1
   8              		.eabi_attribute 26, 1
   9              		.eabi_attribute 30, 6
  10              		.eabi_attribute 34, 1
  11              		.eabi_attribute 18, 4
  12              		.file	"arm_rms_q15.c"
  13              		.text
  14              	.Ltext0:
  15              		.cfi_sections	.debug_frame
  16              		.global	__aeabi_ldivmod
  17              		.section	.text.arm_rms_q15,"ax",%progbits
  18              		.align	1
  19              		.global	arm_rms_q15
  20              		.arch armv7e-m
  21              		.syntax unified
  22              		.thumb
  23              		.thumb_func
  24              		.fpu fpv5-d16
  26              	arm_rms_q15:
  27              	.LFB145:
  28              		.file 1 "./Libraries/CMSIS/DSP/Source/StatisticsFunctions/arm_rms_q15.c"
   1:./Libraries/CMSIS/DSP/Source/StatisticsFunctions/arm_rms_q15.c **** /* ----------------------------------------------------------------------
   2:./Libraries/CMSIS/DSP/Source/StatisticsFunctions/arm_rms_q15.c ****  * Project:      CMSIS DSP Library
   3:./Libraries/CMSIS/DSP/Source/StatisticsFunctions/arm_rms_q15.c ****  * Title:        arm_rms_q15.c
   4:./Libraries/CMSIS/DSP/Source/StatisticsFunctions/arm_rms_q15.c ****  * Description:  Root Mean Square of the elements of a Q15 vector
   5:./Libraries/CMSIS/DSP/Source/StatisticsFunctions/arm_rms_q15.c ****  *
   6:./Libraries/CMSIS/DSP/Source/StatisticsFunctions/arm_rms_q15.c ****  * $Date:        18. March 2019
   7:./Libraries/CMSIS/DSP/Source/StatisticsFunctions/arm_rms_q15.c ****  * $Revision:    V1.6.0
   8:./Libraries/CMSIS/DSP/Source/StatisticsFunctions/arm_rms_q15.c ****  *
   9:./Libraries/CMSIS/DSP/Source/StatisticsFunctions/arm_rms_q15.c ****  * Target Processor: Cortex-M cores
  10:./Libraries/CMSIS/DSP/Source/StatisticsFunctions/arm_rms_q15.c ****  * -------------------------------------------------------------------- */
  11:./Libraries/CMSIS/DSP/Source/StatisticsFunctions/arm_rms_q15.c **** /*
  12:./Libraries/CMSIS/DSP/Source/StatisticsFunctions/arm_rms_q15.c ****  * Copyright (C) 2010-2019 ARM Limited or its affiliates. All rights reserved.
  13:./Libraries/CMSIS/DSP/Source/StatisticsFunctions/arm_rms_q15.c ****  *
  14:./Libraries/CMSIS/DSP/Source/StatisticsFunctions/arm_rms_q15.c ****  * SPDX-License-Identifier: Apache-2.0
  15:./Libraries/CMSIS/DSP/Source/StatisticsFunctions/arm_rms_q15.c ****  *
  16:./Libraries/CMSIS/DSP/Source/StatisticsFunctions/arm_rms_q15.c ****  * Licensed under the Apache License, Version 2.0 (the License); you may
  17:./Libraries/CMSIS/DSP/Source/StatisticsFunctions/arm_rms_q15.c ****  * not use this file except in compliance with the License.
  18:./Libraries/CMSIS/DSP/Source/StatisticsFunctions/arm_rms_q15.c ****  * You may obtain a copy of the License at
  19:./Libraries/CMSIS/DSP/Source/StatisticsFunctions/arm_rms_q15.c ****  *
  20:./Libraries/CMSIS/DSP/Source/StatisticsFunctions/arm_rms_q15.c ****  * www.apache.org/licenses/LICENSE-2.0
  21:./Libraries/CMSIS/DSP/Source/StatisticsFunctions/arm_rms_q15.c ****  *
  22:./Libraries/CMSIS/DSP/Source/StatisticsFunctions/arm_rms_q15.c ****  * Unless required by applicable law or agreed to in writing, software
  23:./Libraries/CMSIS/DSP/Source/StatisticsFunctions/arm_rms_q15.c ****  * distributed under the License is distributed on an AS IS BASIS, WITHOUT
  24:./Libraries/CMSIS/DSP/Source/StatisticsFunctions/arm_rms_q15.c ****  * WARRANTIES OR CONDITIONS OF ANY KIND, either express or implied.
  25:./Libraries/CMSIS/DSP/Source/StatisticsFunctions/arm_rms_q15.c ****  * See the License for the specific language governing permissions and
  26:./Libraries/CMSIS/DSP/Source/StatisticsFunctions/arm_rms_q15.c ****  * limitations under the License.
  27:./Libraries/CMSIS/DSP/Source/StatisticsFunctions/arm_rms_q15.c ****  */
  28:./Libraries/CMSIS/DSP/Source/StatisticsFunctions/arm_rms_q15.c **** 
  29:./Libraries/CMSIS/DSP/Source/StatisticsFunctions/arm_rms_q15.c **** #include "arm_math.h"
  30:./Libraries/CMSIS/DSP/Source/StatisticsFunctions/arm_rms_q15.c **** 
ARM GAS  /tmp/ccAcLGSx.s 			page 2


  31:./Libraries/CMSIS/DSP/Source/StatisticsFunctions/arm_rms_q15.c **** /**
  32:./Libraries/CMSIS/DSP/Source/StatisticsFunctions/arm_rms_q15.c ****   @ingroup groupStats
  33:./Libraries/CMSIS/DSP/Source/StatisticsFunctions/arm_rms_q15.c ****  */
  34:./Libraries/CMSIS/DSP/Source/StatisticsFunctions/arm_rms_q15.c **** 
  35:./Libraries/CMSIS/DSP/Source/StatisticsFunctions/arm_rms_q15.c **** /**
  36:./Libraries/CMSIS/DSP/Source/StatisticsFunctions/arm_rms_q15.c ****   @addtogroup RMS
  37:./Libraries/CMSIS/DSP/Source/StatisticsFunctions/arm_rms_q15.c ****   @{
  38:./Libraries/CMSIS/DSP/Source/StatisticsFunctions/arm_rms_q15.c ****  */
  39:./Libraries/CMSIS/DSP/Source/StatisticsFunctions/arm_rms_q15.c **** 
  40:./Libraries/CMSIS/DSP/Source/StatisticsFunctions/arm_rms_q15.c **** /**
  41:./Libraries/CMSIS/DSP/Source/StatisticsFunctions/arm_rms_q15.c ****   @brief         Root Mean Square of the elements of a Q15 vector.
  42:./Libraries/CMSIS/DSP/Source/StatisticsFunctions/arm_rms_q15.c ****   @param[in]     pSrc       points to the input vector
  43:./Libraries/CMSIS/DSP/Source/StatisticsFunctions/arm_rms_q15.c ****   @param[in]     blockSize  number of samples in input vector
  44:./Libraries/CMSIS/DSP/Source/StatisticsFunctions/arm_rms_q15.c ****   @param[out]    pResult    root mean square value returned here
  45:./Libraries/CMSIS/DSP/Source/StatisticsFunctions/arm_rms_q15.c ****   @return        none
  46:./Libraries/CMSIS/DSP/Source/StatisticsFunctions/arm_rms_q15.c **** 
  47:./Libraries/CMSIS/DSP/Source/StatisticsFunctions/arm_rms_q15.c ****   @par           Scaling and Overflow Behavior
  48:./Libraries/CMSIS/DSP/Source/StatisticsFunctions/arm_rms_q15.c ****                    The function is implemented using a 64-bit internal accumulator.
  49:./Libraries/CMSIS/DSP/Source/StatisticsFunctions/arm_rms_q15.c ****                    The input is represented in 1.15 format.
  50:./Libraries/CMSIS/DSP/Source/StatisticsFunctions/arm_rms_q15.c ****                    Intermediate multiplication yields a 2.30 format, and this
  51:./Libraries/CMSIS/DSP/Source/StatisticsFunctions/arm_rms_q15.c ****                    result is added without saturation to a 64-bit accumulator in 34.30 format.
  52:./Libraries/CMSIS/DSP/Source/StatisticsFunctions/arm_rms_q15.c ****                    With 33 guard bits in the accumulator, there is no risk of overflow, and the
  53:./Libraries/CMSIS/DSP/Source/StatisticsFunctions/arm_rms_q15.c ****                    full precision of the intermediate multiplication is preserved.
  54:./Libraries/CMSIS/DSP/Source/StatisticsFunctions/arm_rms_q15.c ****                    Finally, the 34.30 result is truncated to 34.15 format by discarding the lower
  55:./Libraries/CMSIS/DSP/Source/StatisticsFunctions/arm_rms_q15.c ****                    15 bits, and then saturated to yield a result in 1.15 format.
  56:./Libraries/CMSIS/DSP/Source/StatisticsFunctions/arm_rms_q15.c ****  */
  57:./Libraries/CMSIS/DSP/Source/StatisticsFunctions/arm_rms_q15.c **** 
  58:./Libraries/CMSIS/DSP/Source/StatisticsFunctions/arm_rms_q15.c **** void arm_rms_q15(
  59:./Libraries/CMSIS/DSP/Source/StatisticsFunctions/arm_rms_q15.c ****   const q15_t * pSrc,
  60:./Libraries/CMSIS/DSP/Source/StatisticsFunctions/arm_rms_q15.c ****         uint32_t blockSize,
  61:./Libraries/CMSIS/DSP/Source/StatisticsFunctions/arm_rms_q15.c ****         q15_t * pResult)
  62:./Libraries/CMSIS/DSP/Source/StatisticsFunctions/arm_rms_q15.c **** {
  29              		.loc 1 62 1
  30              		.cfi_startproc
  31              		@ args = 0, pretend = 0, frame = 48
  32              		@ frame_needed = 1, uses_anonymous_args = 0
  33 0000 B0B5     		push	{r4, r5, r7, lr}
  34              	.LCFI0:
  35              		.cfi_def_cfa_offset 16
  36              		.cfi_offset 4, -16
  37              		.cfi_offset 5, -12
  38              		.cfi_offset 7, -8
  39              		.cfi_offset 14, -4
  40 0002 8CB0     		sub	sp, sp, #48
  41              	.LCFI1:
  42              		.cfi_def_cfa_offset 64
  43 0004 00AF     		add	r7, sp, #0
  44              	.LCFI2:
  45              		.cfi_def_cfa_register 7
  46 0006 F860     		str	r0, [r7, #12]
  47 0008 B960     		str	r1, [r7, #8]
  48 000a 7A60     		str	r2, [r7, #4]
  63:./Libraries/CMSIS/DSP/Source/StatisticsFunctions/arm_rms_q15.c ****         uint32_t blkCnt;                               /* Loop counter */
  64:./Libraries/CMSIS/DSP/Source/StatisticsFunctions/arm_rms_q15.c ****         q63_t sum = 0;                                 /* Temporary result storage */
  49              		.loc 1 64 15
  50 000c 4FF00002 		mov	r2, #0
  51 0010 4FF00003 		mov	r3, #0
ARM GAS  /tmp/ccAcLGSx.s 			page 3


  52 0014 C7E90823 		strd	r2, [r7, #32]
  65:./Libraries/CMSIS/DSP/Source/StatisticsFunctions/arm_rms_q15.c ****         q15_t in;                                      /* Temporary variable to store input value *
  66:./Libraries/CMSIS/DSP/Source/StatisticsFunctions/arm_rms_q15.c **** 
  67:./Libraries/CMSIS/DSP/Source/StatisticsFunctions/arm_rms_q15.c **** #if defined (ARM_MATH_LOOPUNROLL) && defined (ARM_MATH_DSP)
  68:./Libraries/CMSIS/DSP/Source/StatisticsFunctions/arm_rms_q15.c ****         q31_t in32;                                    /* Temporary variable to store input value *
  69:./Libraries/CMSIS/DSP/Source/StatisticsFunctions/arm_rms_q15.c **** #endif
  70:./Libraries/CMSIS/DSP/Source/StatisticsFunctions/arm_rms_q15.c **** 
  71:./Libraries/CMSIS/DSP/Source/StatisticsFunctions/arm_rms_q15.c **** #if defined (ARM_MATH_LOOPUNROLL)
  72:./Libraries/CMSIS/DSP/Source/StatisticsFunctions/arm_rms_q15.c **** 
  73:./Libraries/CMSIS/DSP/Source/StatisticsFunctions/arm_rms_q15.c ****   /* Loop unrolling: Compute 4 outputs at a time */
  74:./Libraries/CMSIS/DSP/Source/StatisticsFunctions/arm_rms_q15.c ****   blkCnt = blockSize >> 2U;
  75:./Libraries/CMSIS/DSP/Source/StatisticsFunctions/arm_rms_q15.c **** 
  76:./Libraries/CMSIS/DSP/Source/StatisticsFunctions/arm_rms_q15.c ****   while (blkCnt > 0U)
  77:./Libraries/CMSIS/DSP/Source/StatisticsFunctions/arm_rms_q15.c ****   {
  78:./Libraries/CMSIS/DSP/Source/StatisticsFunctions/arm_rms_q15.c ****     /* C = A[0] * A[0] + A[1] * A[1] + ... + A[blockSize-1] * A[blockSize-1] */
  79:./Libraries/CMSIS/DSP/Source/StatisticsFunctions/arm_rms_q15.c **** 
  80:./Libraries/CMSIS/DSP/Source/StatisticsFunctions/arm_rms_q15.c ****     /* Compute sum of squares and store result in a temporary variable. */
  81:./Libraries/CMSIS/DSP/Source/StatisticsFunctions/arm_rms_q15.c **** #if defined (ARM_MATH_DSP)
  82:./Libraries/CMSIS/DSP/Source/StatisticsFunctions/arm_rms_q15.c ****     in32 = read_q15x2_ia ((q15_t **) &pSrc);
  83:./Libraries/CMSIS/DSP/Source/StatisticsFunctions/arm_rms_q15.c ****     sum = __SMLALD(in32, in32, sum);
  84:./Libraries/CMSIS/DSP/Source/StatisticsFunctions/arm_rms_q15.c **** 
  85:./Libraries/CMSIS/DSP/Source/StatisticsFunctions/arm_rms_q15.c ****     in32 = read_q15x2_ia ((q15_t **) &pSrc);
  86:./Libraries/CMSIS/DSP/Source/StatisticsFunctions/arm_rms_q15.c ****     sum = __SMLALD(in32, in32, sum);
  87:./Libraries/CMSIS/DSP/Source/StatisticsFunctions/arm_rms_q15.c **** #else
  88:./Libraries/CMSIS/DSP/Source/StatisticsFunctions/arm_rms_q15.c ****     in = *pSrc++;
  89:./Libraries/CMSIS/DSP/Source/StatisticsFunctions/arm_rms_q15.c ****     sum += ((q31_t) in * in);
  90:./Libraries/CMSIS/DSP/Source/StatisticsFunctions/arm_rms_q15.c **** 
  91:./Libraries/CMSIS/DSP/Source/StatisticsFunctions/arm_rms_q15.c ****     in = *pSrc++;
  92:./Libraries/CMSIS/DSP/Source/StatisticsFunctions/arm_rms_q15.c ****     sum += ((q31_t) in * in);
  93:./Libraries/CMSIS/DSP/Source/StatisticsFunctions/arm_rms_q15.c **** 
  94:./Libraries/CMSIS/DSP/Source/StatisticsFunctions/arm_rms_q15.c ****     in = *pSrc++;
  95:./Libraries/CMSIS/DSP/Source/StatisticsFunctions/arm_rms_q15.c ****     sum += ((q31_t) in * in);
  96:./Libraries/CMSIS/DSP/Source/StatisticsFunctions/arm_rms_q15.c **** 
  97:./Libraries/CMSIS/DSP/Source/StatisticsFunctions/arm_rms_q15.c ****     in = *pSrc++;
  98:./Libraries/CMSIS/DSP/Source/StatisticsFunctions/arm_rms_q15.c ****     sum += ((q31_t) in * in);
  99:./Libraries/CMSIS/DSP/Source/StatisticsFunctions/arm_rms_q15.c **** #endif /* #if defined (ARM_MATH_DSP) */
 100:./Libraries/CMSIS/DSP/Source/StatisticsFunctions/arm_rms_q15.c **** 
 101:./Libraries/CMSIS/DSP/Source/StatisticsFunctions/arm_rms_q15.c ****     /* Decrement loop counter */
 102:./Libraries/CMSIS/DSP/Source/StatisticsFunctions/arm_rms_q15.c ****     blkCnt--;
 103:./Libraries/CMSIS/DSP/Source/StatisticsFunctions/arm_rms_q15.c ****   }
 104:./Libraries/CMSIS/DSP/Source/StatisticsFunctions/arm_rms_q15.c **** 
 105:./Libraries/CMSIS/DSP/Source/StatisticsFunctions/arm_rms_q15.c ****   /* Loop unrolling: Compute remaining outputs */
 106:./Libraries/CMSIS/DSP/Source/StatisticsFunctions/arm_rms_q15.c ****   blkCnt = blockSize % 0x4U;
 107:./Libraries/CMSIS/DSP/Source/StatisticsFunctions/arm_rms_q15.c **** 
 108:./Libraries/CMSIS/DSP/Source/StatisticsFunctions/arm_rms_q15.c **** #else
 109:./Libraries/CMSIS/DSP/Source/StatisticsFunctions/arm_rms_q15.c **** 
 110:./Libraries/CMSIS/DSP/Source/StatisticsFunctions/arm_rms_q15.c ****   /* Initialize blkCnt with number of samples */
 111:./Libraries/CMSIS/DSP/Source/StatisticsFunctions/arm_rms_q15.c ****   blkCnt = blockSize;
  53              		.loc 1 111 10
  54 0018 BB68     		ldr	r3, [r7, #8]
  55 001a FB62     		str	r3, [r7, #44]
 112:./Libraries/CMSIS/DSP/Source/StatisticsFunctions/arm_rms_q15.c **** 
 113:./Libraries/CMSIS/DSP/Source/StatisticsFunctions/arm_rms_q15.c **** #endif /* #if defined (ARM_MATH_LOOPUNROLL) */
 114:./Libraries/CMSIS/DSP/Source/StatisticsFunctions/arm_rms_q15.c **** 
 115:./Libraries/CMSIS/DSP/Source/StatisticsFunctions/arm_rms_q15.c ****   while (blkCnt > 0U)
  56              		.loc 1 115 9
  57 001c 17E0     		b	.L2
ARM GAS  /tmp/ccAcLGSx.s 			page 4


  58              	.L3:
 116:./Libraries/CMSIS/DSP/Source/StatisticsFunctions/arm_rms_q15.c ****   {
 117:./Libraries/CMSIS/DSP/Source/StatisticsFunctions/arm_rms_q15.c ****     /* C = A[0] * A[0] + A[1] * A[1] + ... + A[blockSize-1] * A[blockSize-1] */
 118:./Libraries/CMSIS/DSP/Source/StatisticsFunctions/arm_rms_q15.c **** 
 119:./Libraries/CMSIS/DSP/Source/StatisticsFunctions/arm_rms_q15.c ****     in = *pSrc++;
  59              		.loc 1 119 15
  60 001e FB68     		ldr	r3, [r7, #12]
  61 0020 9A1C     		adds	r2, r3, #2
  62 0022 FA60     		str	r2, [r7, #12]
  63              		.loc 1 119 8
  64 0024 1B88     		ldrh	r3, [r3]	@ movhi
  65 0026 FB82     		strh	r3, [r7, #22]	@ movhi
 120:./Libraries/CMSIS/DSP/Source/StatisticsFunctions/arm_rms_q15.c ****     /* Compute sum of squares and store result in a temporary variable. */
 121:./Libraries/CMSIS/DSP/Source/StatisticsFunctions/arm_rms_q15.c ****     sum += ((q31_t) in * in);
  66              		.loc 1 121 13
  67 0028 B7F91630 		ldrsh	r3, [r7, #22]
  68              		.loc 1 121 24
  69 002c B7F91620 		ldrsh	r2, [r7, #22]
  70 0030 02FB03F3 		mul	r3, r2, r3
  71 0034 1A46     		mov	r2, r3
  72 0036 4FEAE273 		asr	r3, r2, #31
  73              		.loc 1 121 9
  74 003a D7E90801 		ldrd	r0, [r7, #32]
  75 003e 8418     		adds	r4, r0, r2
  76 0040 41EB0305 		adc	r5, r1, r3
  77 0044 C7E90845 		strd	r4, [r7, #32]
 122:./Libraries/CMSIS/DSP/Source/StatisticsFunctions/arm_rms_q15.c **** 
 123:./Libraries/CMSIS/DSP/Source/StatisticsFunctions/arm_rms_q15.c ****     /* Decrement loop counter */
 124:./Libraries/CMSIS/DSP/Source/StatisticsFunctions/arm_rms_q15.c ****     blkCnt--;
  78              		.loc 1 124 11
  79 0048 FB6A     		ldr	r3, [r7, #44]
  80 004a 013B     		subs	r3, r3, #1
  81 004c FB62     		str	r3, [r7, #44]
  82              	.L2:
 115:./Libraries/CMSIS/DSP/Source/StatisticsFunctions/arm_rms_q15.c ****   {
  83              		.loc 1 115 9
  84 004e FB6A     		ldr	r3, [r7, #44]
  85 0050 002B     		cmp	r3, #0
  86 0052 E4D1     		bne	.L3
  87              	.LBB2:
 125:./Libraries/CMSIS/DSP/Source/StatisticsFunctions/arm_rms_q15.c ****   }
 126:./Libraries/CMSIS/DSP/Source/StatisticsFunctions/arm_rms_q15.c **** 
 127:./Libraries/CMSIS/DSP/Source/StatisticsFunctions/arm_rms_q15.c ****   /* Truncating and saturating the accumulator to 1.15 format */
 128:./Libraries/CMSIS/DSP/Source/StatisticsFunctions/arm_rms_q15.c ****   /* Store result in destination */
 129:./Libraries/CMSIS/DSP/Source/StatisticsFunctions/arm_rms_q15.c ****   arm_sqrt_q15(__SSAT((sum / (q63_t)blockSize) >> 15, 16), pResult);
  88              		.loc 1 129 16
  89 0054 BB68     		ldr	r3, [r7, #8]
  90 0056 1A46     		mov	r2, r3
  91 0058 4FF00003 		mov	r3, #0
  92 005c D7E90801 		ldrd	r0, [r7, #32]
  93 0060 FFF7FEFF 		bl	__aeabi_ldivmod
  94              	.LVL0:
  95 0064 0246     		mov	r2, r0
  96 0066 0B46     		mov	r3, r1
  97 0068 1046     		mov	r0, r2
  98 006a 1946     		mov	r1, r3
  99 006c 4FF00002 		mov	r2, #0
ARM GAS  /tmp/ccAcLGSx.s 			page 5


 100 0070 4FF00003 		mov	r3, #0
 101 0074 C20B     		lsrs	r2, r0, #15
 102 0076 42EA4142 		orr	r2, r2, r1, lsl #17
 103 007a CB13     		asrs	r3, r1, #15
 104 007c 1346     		mov	r3, r2
 105 007e FB61     		str	r3, [r7, #28]
 106 0080 FB69     		ldr	r3, [r7, #28]
 107              		.syntax unified
 108              	@ 129 "./Libraries/CMSIS/DSP/Source/StatisticsFunctions/arm_rms_q15.c" 1
 109 0082 03F30F03 		ssat r3, #16, r3
 110              	@ 0 "" 2
 111              		.thumb
 112              		.syntax unified
 113 0086 BB61     		str	r3, [r7, #24]
 114 0088 BB69     		ldr	r3, [r7, #24]
 115              	.LBE2:
 116              		.loc 1 129 3
 117 008a 1BB2     		sxth	r3, r3
 118 008c 7968     		ldr	r1, [r7, #4]
 119 008e 1846     		mov	r0, r3
 120 0090 FFF7FEFF 		bl	arm_sqrt_q15
 130:./Libraries/CMSIS/DSP/Source/StatisticsFunctions/arm_rms_q15.c **** }
 121              		.loc 1 130 1
 122 0094 00BF     		nop
 123 0096 3037     		adds	r7, r7, #48
 124              	.LCFI3:
 125              		.cfi_def_cfa_offset 16
 126 0098 BD46     		mov	sp, r7
 127              	.LCFI4:
 128              		.cfi_def_cfa_register 13
 129              		@ sp needed
 130 009a B0BD     		pop	{r4, r5, r7, pc}
 131              		.cfi_endproc
 132              	.LFE145:
 134              		.text
 135              	.Letext0:
 136              		.file 2 "/usr/lib/gcc/arm-none-eabi/9.2.1/include/stdint.h"
 137              		.file 3 "/usr/lib/gcc/arm-none-eabi/9.2.1/include/stddef.h"
 138              		.file 4 "/usr/include/newlib/sys/_types.h"
 139              		.file 5 "/usr/include/newlib/sys/reent.h"
 140              		.file 6 "/usr/include/newlib/sys/lock.h"
 141              		.file 7 "/usr/include/newlib/math.h"
 142              		.file 8 "./Libraries/CMSIS/DSP/Include/arm_math.h"
ARM GAS  /tmp/ccAcLGSx.s 			page 6

