ARM GAS  /tmp/ccNAq5kH.s 			page 1


   1              		.cpu cortex-m7
   2              		.eabi_attribute 28, 1
   3              		.eabi_attribute 20, 1
   4              		.eabi_attribute 21, 1
   5              		.eabi_attribute 23, 3
   6              		.eabi_attribute 24, 1
   7              		.eabi_attribute 25, 1
   8              		.eabi_attribute 26, 1
   9              		.eabi_attribute 30, 6
  10              		.eabi_attribute 34, 1
  11              		.eabi_attribute 18, 4
  12              		.file	"arm_pid_reset_q31.c"
  13              		.text
  14              	.Ltext0:
  15              		.cfi_sections	.debug_frame
  16              		.section	.text.arm_pid_reset_q31,"ax",%progbits
  17              		.align	1
  18              		.global	arm_pid_reset_q31
  19              		.arch armv7e-m
  20              		.syntax unified
  21              		.thumb
  22              		.thumb_func
  23              		.fpu fpv5-d16
  25              	arm_pid_reset_q31:
  26              	.LFB145:
  27              		.file 1 "./Libraries/CMSIS/DSP/Source/ControllerFunctions/arm_pid_reset_q31.c"
   1:./Libraries/CMSIS/DSP/Source/ControllerFunctions/arm_pid_reset_q31.c **** /* ----------------------------------------------------------------------
   2:./Libraries/CMSIS/DSP/Source/ControllerFunctions/arm_pid_reset_q31.c ****  * Project:      CMSIS DSP Library
   3:./Libraries/CMSIS/DSP/Source/ControllerFunctions/arm_pid_reset_q31.c ****  * Title:        arm_pid_reset_q31.c
   4:./Libraries/CMSIS/DSP/Source/ControllerFunctions/arm_pid_reset_q31.c ****  * Description:  Q31 PID Control reset function
   5:./Libraries/CMSIS/DSP/Source/ControllerFunctions/arm_pid_reset_q31.c ****  *
   6:./Libraries/CMSIS/DSP/Source/ControllerFunctions/arm_pid_reset_q31.c ****  * $Date:        18. March 2019
   7:./Libraries/CMSIS/DSP/Source/ControllerFunctions/arm_pid_reset_q31.c ****  * $Revision:    V1.6.0
   8:./Libraries/CMSIS/DSP/Source/ControllerFunctions/arm_pid_reset_q31.c ****  *
   9:./Libraries/CMSIS/DSP/Source/ControllerFunctions/arm_pid_reset_q31.c ****  * Target Processor: Cortex-M cores
  10:./Libraries/CMSIS/DSP/Source/ControllerFunctions/arm_pid_reset_q31.c ****  * -------------------------------------------------------------------- */
  11:./Libraries/CMSIS/DSP/Source/ControllerFunctions/arm_pid_reset_q31.c **** /*
  12:./Libraries/CMSIS/DSP/Source/ControllerFunctions/arm_pid_reset_q31.c ****  * Copyright (C) 2010-2019 ARM Limited or its affiliates. All rights reserved.
  13:./Libraries/CMSIS/DSP/Source/ControllerFunctions/arm_pid_reset_q31.c ****  *
  14:./Libraries/CMSIS/DSP/Source/ControllerFunctions/arm_pid_reset_q31.c ****  * SPDX-License-Identifier: Apache-2.0
  15:./Libraries/CMSIS/DSP/Source/ControllerFunctions/arm_pid_reset_q31.c ****  *
  16:./Libraries/CMSIS/DSP/Source/ControllerFunctions/arm_pid_reset_q31.c ****  * Licensed under the Apache License, Version 2.0 (the License); you may
  17:./Libraries/CMSIS/DSP/Source/ControllerFunctions/arm_pid_reset_q31.c ****  * not use this file except in compliance with the License.
  18:./Libraries/CMSIS/DSP/Source/ControllerFunctions/arm_pid_reset_q31.c ****  * You may obtain a copy of the License at
  19:./Libraries/CMSIS/DSP/Source/ControllerFunctions/arm_pid_reset_q31.c ****  *
  20:./Libraries/CMSIS/DSP/Source/ControllerFunctions/arm_pid_reset_q31.c ****  * www.apache.org/licenses/LICENSE-2.0
  21:./Libraries/CMSIS/DSP/Source/ControllerFunctions/arm_pid_reset_q31.c ****  *
  22:./Libraries/CMSIS/DSP/Source/ControllerFunctions/arm_pid_reset_q31.c ****  * Unless required by applicable law or agreed to in writing, software
  23:./Libraries/CMSIS/DSP/Source/ControllerFunctions/arm_pid_reset_q31.c ****  * distributed under the License is distributed on an AS IS BASIS, WITHOUT
  24:./Libraries/CMSIS/DSP/Source/ControllerFunctions/arm_pid_reset_q31.c ****  * WARRANTIES OR CONDITIONS OF ANY KIND, either express or implied.
  25:./Libraries/CMSIS/DSP/Source/ControllerFunctions/arm_pid_reset_q31.c ****  * See the License for the specific language governing permissions and
  26:./Libraries/CMSIS/DSP/Source/ControllerFunctions/arm_pid_reset_q31.c ****  * limitations under the License.
  27:./Libraries/CMSIS/DSP/Source/ControllerFunctions/arm_pid_reset_q31.c ****  */
  28:./Libraries/CMSIS/DSP/Source/ControllerFunctions/arm_pid_reset_q31.c **** 
  29:./Libraries/CMSIS/DSP/Source/ControllerFunctions/arm_pid_reset_q31.c **** #include "arm_math.h"
  30:./Libraries/CMSIS/DSP/Source/ControllerFunctions/arm_pid_reset_q31.c **** 
  31:./Libraries/CMSIS/DSP/Source/ControllerFunctions/arm_pid_reset_q31.c **** /**
ARM GAS  /tmp/ccNAq5kH.s 			page 2


  32:./Libraries/CMSIS/DSP/Source/ControllerFunctions/arm_pid_reset_q31.c ****   @addtogroup PID
  33:./Libraries/CMSIS/DSP/Source/ControllerFunctions/arm_pid_reset_q31.c ****   @{
  34:./Libraries/CMSIS/DSP/Source/ControllerFunctions/arm_pid_reset_q31.c ****  */
  35:./Libraries/CMSIS/DSP/Source/ControllerFunctions/arm_pid_reset_q31.c **** 
  36:./Libraries/CMSIS/DSP/Source/ControllerFunctions/arm_pid_reset_q31.c **** /**
  37:./Libraries/CMSIS/DSP/Source/ControllerFunctions/arm_pid_reset_q31.c ****   @brief         Reset function for the Q31 PID Control.
  38:./Libraries/CMSIS/DSP/Source/ControllerFunctions/arm_pid_reset_q31.c ****   @param[in,out] S  points to an instance of the Q31 PID structure
  39:./Libraries/CMSIS/DSP/Source/ControllerFunctions/arm_pid_reset_q31.c ****   @return        none
  40:./Libraries/CMSIS/DSP/Source/ControllerFunctions/arm_pid_reset_q31.c **** 
  41:./Libraries/CMSIS/DSP/Source/ControllerFunctions/arm_pid_reset_q31.c ****   @par           Details
  42:./Libraries/CMSIS/DSP/Source/ControllerFunctions/arm_pid_reset_q31.c ****                    The function resets the state buffer to zeros.
  43:./Libraries/CMSIS/DSP/Source/ControllerFunctions/arm_pid_reset_q31.c ****  */
  44:./Libraries/CMSIS/DSP/Source/ControllerFunctions/arm_pid_reset_q31.c **** 
  45:./Libraries/CMSIS/DSP/Source/ControllerFunctions/arm_pid_reset_q31.c **** void arm_pid_reset_q31(
  46:./Libraries/CMSIS/DSP/Source/ControllerFunctions/arm_pid_reset_q31.c ****   arm_pid_instance_q31 * S)
  47:./Libraries/CMSIS/DSP/Source/ControllerFunctions/arm_pid_reset_q31.c **** {
  28              		.loc 1 47 1
  29              		.cfi_startproc
  30              		@ args = 0, pretend = 0, frame = 8
  31              		@ frame_needed = 1, uses_anonymous_args = 0
  32 0000 80B5     		push	{r7, lr}
  33              	.LCFI0:
  34              		.cfi_def_cfa_offset 8
  35              		.cfi_offset 7, -8
  36              		.cfi_offset 14, -4
  37 0002 82B0     		sub	sp, sp, #8
  38              	.LCFI1:
  39              		.cfi_def_cfa_offset 16
  40 0004 00AF     		add	r7, sp, #0
  41              	.LCFI2:
  42              		.cfi_def_cfa_register 7
  43 0006 7860     		str	r0, [r7, #4]
  48:./Libraries/CMSIS/DSP/Source/ControllerFunctions/arm_pid_reset_q31.c ****   /* Reset state to zero, The size will be always 3 samples */
  49:./Libraries/CMSIS/DSP/Source/ControllerFunctions/arm_pid_reset_q31.c ****   memset(S->state, 0, 3U * sizeof(q31_t));
  44              		.loc 1 49 11
  45 0008 7B68     		ldr	r3, [r7, #4]
  46 000a 0C33     		adds	r3, r3, #12
  47              		.loc 1 49 3
  48 000c 0C22     		movs	r2, #12
  49 000e 0021     		movs	r1, #0
  50 0010 1846     		mov	r0, r3
  51 0012 FFF7FEFF 		bl	memset
  50:./Libraries/CMSIS/DSP/Source/ControllerFunctions/arm_pid_reset_q31.c **** }
  52              		.loc 1 50 1
  53 0016 00BF     		nop
  54 0018 0837     		adds	r7, r7, #8
  55              	.LCFI3:
  56              		.cfi_def_cfa_offset 8
  57 001a BD46     		mov	sp, r7
  58              	.LCFI4:
  59              		.cfi_def_cfa_register 13
  60              		@ sp needed
  61 001c 80BD     		pop	{r7, pc}
  62              		.cfi_endproc
  63              	.LFE145:
  65              		.text
  66              	.Letext0:
ARM GAS  /tmp/ccNAq5kH.s 			page 3


  67              		.file 2 "/usr/lib/gcc/arm-none-eabi/9.2.1/include/stdint.h"
  68              		.file 3 "/usr/lib/gcc/arm-none-eabi/9.2.1/include/stddef.h"
  69              		.file 4 "/usr/include/newlib/sys/_types.h"
  70              		.file 5 "/usr/include/newlib/sys/reent.h"
  71              		.file 6 "/usr/include/newlib/sys/lock.h"
  72              		.file 7 "/usr/include/newlib/math.h"
  73              		.file 8 "./Libraries/CMSIS/DSP/Include/arm_math.h"
ARM GAS  /tmp/ccNAq5kH.s 			page 4

