ARM GAS  /tmp/ccb5I0vl.s 			page 1


   1              		.cpu cortex-m7
   2              		.eabi_attribute 28, 1
   3              		.eabi_attribute 20, 1
   4              		.eabi_attribute 21, 1
   5              		.eabi_attribute 23, 3
   6              		.eabi_attribute 24, 1
   7              		.eabi_attribute 25, 1
   8              		.eabi_attribute 26, 1
   9              		.eabi_attribute 30, 6
  10              		.eabi_attribute 34, 1
  11              		.eabi_attribute 18, 4
  12              		.file	"arm_biquad_cascade_stereo_df2T_f32.c"
  13              		.text
  14              	.Ltext0:
  15              		.cfi_sections	.debug_frame
  16              		.section	.text.arm_biquad_cascade_stereo_df2T_f32,"ax",%progbits
  17              		.align	1
  18              		.global	arm_biquad_cascade_stereo_df2T_f32
  19              		.arch armv7e-m
  20              		.syntax unified
  21              		.thumb
  22              		.thumb_func
  23              		.fpu fpv5-d16
  25              	arm_biquad_cascade_stereo_df2T_f32:
  26              	.LFB145:
  27              		.file 1 "./Libraries/CMSIS/DSP/Source/FilteringFunctions/arm_biquad_cascade_stereo_df2T_f32.c"
   1:./Libraries/CMSIS/DSP/Source/FilteringFunctions/arm_biquad_cascade_stereo_df2T_f32.c **** /* ----------------------------------------------------------------------
   2:./Libraries/CMSIS/DSP/Source/FilteringFunctions/arm_biquad_cascade_stereo_df2T_f32.c ****  * Project:      CMSIS DSP Library
   3:./Libraries/CMSIS/DSP/Source/FilteringFunctions/arm_biquad_cascade_stereo_df2T_f32.c ****  * Title:        arm_biquad_cascade_stereo_df2T_f32.c
   4:./Libraries/CMSIS/DSP/Source/FilteringFunctions/arm_biquad_cascade_stereo_df2T_f32.c ****  * Description:  Processing function for floating-point transposed direct form II Biquad cascade fi
   5:./Libraries/CMSIS/DSP/Source/FilteringFunctions/arm_biquad_cascade_stereo_df2T_f32.c ****  *
   6:./Libraries/CMSIS/DSP/Source/FilteringFunctions/arm_biquad_cascade_stereo_df2T_f32.c ****  * $Date:        18. March 2019
   7:./Libraries/CMSIS/DSP/Source/FilteringFunctions/arm_biquad_cascade_stereo_df2T_f32.c ****  * $Revision:    V1.6.0
   8:./Libraries/CMSIS/DSP/Source/FilteringFunctions/arm_biquad_cascade_stereo_df2T_f32.c ****  *
   9:./Libraries/CMSIS/DSP/Source/FilteringFunctions/arm_biquad_cascade_stereo_df2T_f32.c ****  * Target Processor: Cortex-M cores
  10:./Libraries/CMSIS/DSP/Source/FilteringFunctions/arm_biquad_cascade_stereo_df2T_f32.c ****  * -------------------------------------------------------------------- */
  11:./Libraries/CMSIS/DSP/Source/FilteringFunctions/arm_biquad_cascade_stereo_df2T_f32.c **** /*
  12:./Libraries/CMSIS/DSP/Source/FilteringFunctions/arm_biquad_cascade_stereo_df2T_f32.c ****  * Copyright (C) 2010-2019 ARM Limited or its affiliates. All rights reserved.
  13:./Libraries/CMSIS/DSP/Source/FilteringFunctions/arm_biquad_cascade_stereo_df2T_f32.c ****  *
  14:./Libraries/CMSIS/DSP/Source/FilteringFunctions/arm_biquad_cascade_stereo_df2T_f32.c ****  * SPDX-License-Identifier: Apache-2.0
  15:./Libraries/CMSIS/DSP/Source/FilteringFunctions/arm_biquad_cascade_stereo_df2T_f32.c ****  *
  16:./Libraries/CMSIS/DSP/Source/FilteringFunctions/arm_biquad_cascade_stereo_df2T_f32.c ****  * Licensed under the Apache License, Version 2.0 (the License); you may
  17:./Libraries/CMSIS/DSP/Source/FilteringFunctions/arm_biquad_cascade_stereo_df2T_f32.c ****  * not use this file except in compliance with the License.
  18:./Libraries/CMSIS/DSP/Source/FilteringFunctions/arm_biquad_cascade_stereo_df2T_f32.c ****  * You may obtain a copy of the License at
  19:./Libraries/CMSIS/DSP/Source/FilteringFunctions/arm_biquad_cascade_stereo_df2T_f32.c ****  *
  20:./Libraries/CMSIS/DSP/Source/FilteringFunctions/arm_biquad_cascade_stereo_df2T_f32.c ****  * www.apache.org/licenses/LICENSE-2.0
  21:./Libraries/CMSIS/DSP/Source/FilteringFunctions/arm_biquad_cascade_stereo_df2T_f32.c ****  *
  22:./Libraries/CMSIS/DSP/Source/FilteringFunctions/arm_biquad_cascade_stereo_df2T_f32.c ****  * Unless required by applicable law or agreed to in writing, software
  23:./Libraries/CMSIS/DSP/Source/FilteringFunctions/arm_biquad_cascade_stereo_df2T_f32.c ****  * distributed under the License is distributed on an AS IS BASIS, WITHOUT
  24:./Libraries/CMSIS/DSP/Source/FilteringFunctions/arm_biquad_cascade_stereo_df2T_f32.c ****  * WARRANTIES OR CONDITIONS OF ANY KIND, either express or implied.
  25:./Libraries/CMSIS/DSP/Source/FilteringFunctions/arm_biquad_cascade_stereo_df2T_f32.c ****  * See the License for the specific language governing permissions and
  26:./Libraries/CMSIS/DSP/Source/FilteringFunctions/arm_biquad_cascade_stereo_df2T_f32.c ****  * limitations under the License.
  27:./Libraries/CMSIS/DSP/Source/FilteringFunctions/arm_biquad_cascade_stereo_df2T_f32.c ****  */
  28:./Libraries/CMSIS/DSP/Source/FilteringFunctions/arm_biquad_cascade_stereo_df2T_f32.c **** 
  29:./Libraries/CMSIS/DSP/Source/FilteringFunctions/arm_biquad_cascade_stereo_df2T_f32.c **** #include "arm_math.h"
  30:./Libraries/CMSIS/DSP/Source/FilteringFunctions/arm_biquad_cascade_stereo_df2T_f32.c **** 
  31:./Libraries/CMSIS/DSP/Source/FilteringFunctions/arm_biquad_cascade_stereo_df2T_f32.c **** /**
ARM GAS  /tmp/ccb5I0vl.s 			page 2


  32:./Libraries/CMSIS/DSP/Source/FilteringFunctions/arm_biquad_cascade_stereo_df2T_f32.c ****   @ingroup groupFilters
  33:./Libraries/CMSIS/DSP/Source/FilteringFunctions/arm_biquad_cascade_stereo_df2T_f32.c **** */
  34:./Libraries/CMSIS/DSP/Source/FilteringFunctions/arm_biquad_cascade_stereo_df2T_f32.c **** 
  35:./Libraries/CMSIS/DSP/Source/FilteringFunctions/arm_biquad_cascade_stereo_df2T_f32.c **** /**
  36:./Libraries/CMSIS/DSP/Source/FilteringFunctions/arm_biquad_cascade_stereo_df2T_f32.c ****   @addtogroup BiquadCascadeDF2T
  37:./Libraries/CMSIS/DSP/Source/FilteringFunctions/arm_biquad_cascade_stereo_df2T_f32.c ****   @{
  38:./Libraries/CMSIS/DSP/Source/FilteringFunctions/arm_biquad_cascade_stereo_df2T_f32.c ****  */
  39:./Libraries/CMSIS/DSP/Source/FilteringFunctions/arm_biquad_cascade_stereo_df2T_f32.c **** 
  40:./Libraries/CMSIS/DSP/Source/FilteringFunctions/arm_biquad_cascade_stereo_df2T_f32.c **** /**
  41:./Libraries/CMSIS/DSP/Source/FilteringFunctions/arm_biquad_cascade_stereo_df2T_f32.c ****   @brief         Processing function for the floating-point transposed direct form II Biquad cascad
  42:./Libraries/CMSIS/DSP/Source/FilteringFunctions/arm_biquad_cascade_stereo_df2T_f32.c ****   @param[in]     S         points to an instance of the filter data structure
  43:./Libraries/CMSIS/DSP/Source/FilteringFunctions/arm_biquad_cascade_stereo_df2T_f32.c ****   @param[in]     pSrc      points to the block of input data
  44:./Libraries/CMSIS/DSP/Source/FilteringFunctions/arm_biquad_cascade_stereo_df2T_f32.c ****   @param[out]    pDst      points to the block of output data
  45:./Libraries/CMSIS/DSP/Source/FilteringFunctions/arm_biquad_cascade_stereo_df2T_f32.c ****   @param[in]     blockSize number of samples to process
  46:./Libraries/CMSIS/DSP/Source/FilteringFunctions/arm_biquad_cascade_stereo_df2T_f32.c ****   @return        none
  47:./Libraries/CMSIS/DSP/Source/FilteringFunctions/arm_biquad_cascade_stereo_df2T_f32.c ****  */
  48:./Libraries/CMSIS/DSP/Source/FilteringFunctions/arm_biquad_cascade_stereo_df2T_f32.c **** 
  49:./Libraries/CMSIS/DSP/Source/FilteringFunctions/arm_biquad_cascade_stereo_df2T_f32.c **** LOW_OPTIMIZATION_ENTER
  50:./Libraries/CMSIS/DSP/Source/FilteringFunctions/arm_biquad_cascade_stereo_df2T_f32.c **** void arm_biquad_cascade_stereo_df2T_f32(
  51:./Libraries/CMSIS/DSP/Source/FilteringFunctions/arm_biquad_cascade_stereo_df2T_f32.c ****   const arm_biquad_cascade_stereo_df2T_instance_f32 * S,
  52:./Libraries/CMSIS/DSP/Source/FilteringFunctions/arm_biquad_cascade_stereo_df2T_f32.c ****   const float32_t * pSrc,
  53:./Libraries/CMSIS/DSP/Source/FilteringFunctions/arm_biquad_cascade_stereo_df2T_f32.c ****         float32_t * pDst,
  54:./Libraries/CMSIS/DSP/Source/FilteringFunctions/arm_biquad_cascade_stereo_df2T_f32.c ****         uint32_t blockSize)
  55:./Libraries/CMSIS/DSP/Source/FilteringFunctions/arm_biquad_cascade_stereo_df2T_f32.c **** {
  28              		.loc 1 55 1
  29              		.cfi_startproc
  30              		@ args = 0, pretend = 0, frame = 0
  31              		@ frame_needed = 0, uses_anonymous_args = 0
  32 0000 F0B5     		push	{r4, r5, r6, r7, lr}
  33              	.LCFI0:
  34              		.cfi_def_cfa_offset 20
  35              		.cfi_offset 4, -20
  36              		.cfi_offset 5, -16
  37              		.cfi_offset 6, -12
  38              		.cfi_offset 7, -8
  39              		.cfi_offset 14, -4
  56:./Libraries/CMSIS/DSP/Source/FilteringFunctions/arm_biquad_cascade_stereo_df2T_f32.c ****   const float32_t *pIn = pSrc;                         /* Source pointer */
  57:./Libraries/CMSIS/DSP/Source/FilteringFunctions/arm_biquad_cascade_stereo_df2T_f32.c ****         float32_t *pOut = pDst;                        /* Destination pointer */
  58:./Libraries/CMSIS/DSP/Source/FilteringFunctions/arm_biquad_cascade_stereo_df2T_f32.c ****         float32_t *pState = S->pState;                 /* State pointer */
  59:./Libraries/CMSIS/DSP/Source/FilteringFunctions/arm_biquad_cascade_stereo_df2T_f32.c ****   const float32_t *pCoeffs = S->pCoeffs;               /* Coefficient pointer */
  60:./Libraries/CMSIS/DSP/Source/FilteringFunctions/arm_biquad_cascade_stereo_df2T_f32.c ****         float32_t acc1a, acc1b;                        /* Accumulator */
  61:./Libraries/CMSIS/DSP/Source/FilteringFunctions/arm_biquad_cascade_stereo_df2T_f32.c ****         float32_t b0, b1, b2, a1, a2;                  /* Filter coefficients */
  62:./Libraries/CMSIS/DSP/Source/FilteringFunctions/arm_biquad_cascade_stereo_df2T_f32.c ****         float32_t Xn1a, Xn1b;                          /* Temporary input */
  63:./Libraries/CMSIS/DSP/Source/FilteringFunctions/arm_biquad_cascade_stereo_df2T_f32.c ****         float32_t d1a, d2a, d1b, d2b;                  /* State variables */
  64:./Libraries/CMSIS/DSP/Source/FilteringFunctions/arm_biquad_cascade_stereo_df2T_f32.c ****         uint32_t sample, stage = S->numStages;         /* Loop counters */
  40              		.loc 1 64 26
  41 0002 90F800C0 		ldrb	ip, [r0]	@ zero_extendqisi2
  42 0006 8668     		ldr	r6, [r0, #8]
  43 0008 1436     		adds	r6, r6, #20
  44 000a 4568     		ldr	r5, [r0, #4]
  45 000c 1035     		adds	r5, r5, #16
  65:./Libraries/CMSIS/DSP/Source/FilteringFunctions/arm_biquad_cascade_stereo_df2T_f32.c **** 
  66:./Libraries/CMSIS/DSP/Source/FilteringFunctions/arm_biquad_cascade_stereo_df2T_f32.c ****     do
  67:./Libraries/CMSIS/DSP/Source/FilteringFunctions/arm_biquad_cascade_stereo_df2T_f32.c ****     {
  68:./Libraries/CMSIS/DSP/Source/FilteringFunctions/arm_biquad_cascade_stereo_df2T_f32.c ****         /* Reading the coefficients */
  69:./Libraries/CMSIS/DSP/Source/FilteringFunctions/arm_biquad_cascade_stereo_df2T_f32.c ****         b0 = pCoeffs[0];
  70:./Libraries/CMSIS/DSP/Source/FilteringFunctions/arm_biquad_cascade_stereo_df2T_f32.c ****         b1 = pCoeffs[1];
ARM GAS  /tmp/ccb5I0vl.s 			page 3


  71:./Libraries/CMSIS/DSP/Source/FilteringFunctions/arm_biquad_cascade_stereo_df2T_f32.c ****         b2 = pCoeffs[2];
  72:./Libraries/CMSIS/DSP/Source/FilteringFunctions/arm_biquad_cascade_stereo_df2T_f32.c ****         a1 = pCoeffs[3];
  73:./Libraries/CMSIS/DSP/Source/FilteringFunctions/arm_biquad_cascade_stereo_df2T_f32.c ****         a2 = pCoeffs[4];
  74:./Libraries/CMSIS/DSP/Source/FilteringFunctions/arm_biquad_cascade_stereo_df2T_f32.c **** 
  75:./Libraries/CMSIS/DSP/Source/FilteringFunctions/arm_biquad_cascade_stereo_df2T_f32.c ****         /* Reading the state values */
  76:./Libraries/CMSIS/DSP/Source/FilteringFunctions/arm_biquad_cascade_stereo_df2T_f32.c ****         d1a = pState[0];
  77:./Libraries/CMSIS/DSP/Source/FilteringFunctions/arm_biquad_cascade_stereo_df2T_f32.c ****         d2a = pState[1];
  78:./Libraries/CMSIS/DSP/Source/FilteringFunctions/arm_biquad_cascade_stereo_df2T_f32.c ****         d1b = pState[2];
  79:./Libraries/CMSIS/DSP/Source/FilteringFunctions/arm_biquad_cascade_stereo_df2T_f32.c ****         d2b = pState[3];
  80:./Libraries/CMSIS/DSP/Source/FilteringFunctions/arm_biquad_cascade_stereo_df2T_f32.c **** 
  81:./Libraries/CMSIS/DSP/Source/FilteringFunctions/arm_biquad_cascade_stereo_df2T_f32.c ****         pCoeffs += 5U;
  82:./Libraries/CMSIS/DSP/Source/FilteringFunctions/arm_biquad_cascade_stereo_df2T_f32.c **** 
  83:./Libraries/CMSIS/DSP/Source/FilteringFunctions/arm_biquad_cascade_stereo_df2T_f32.c **** #if defined (ARM_MATH_LOOPUNROLL)
  84:./Libraries/CMSIS/DSP/Source/FilteringFunctions/arm_biquad_cascade_stereo_df2T_f32.c **** 
  85:./Libraries/CMSIS/DSP/Source/FilteringFunctions/arm_biquad_cascade_stereo_df2T_f32.c ****     /* Loop unrolling: Compute 8 outputs at a time */
  86:./Libraries/CMSIS/DSP/Source/FilteringFunctions/arm_biquad_cascade_stereo_df2T_f32.c ****         sample = blockSize >> 3U;
  87:./Libraries/CMSIS/DSP/Source/FilteringFunctions/arm_biquad_cascade_stereo_df2T_f32.c **** 
  88:./Libraries/CMSIS/DSP/Source/FilteringFunctions/arm_biquad_cascade_stereo_df2T_f32.c ****         while (sample > 0U) {
  89:./Libraries/CMSIS/DSP/Source/FilteringFunctions/arm_biquad_cascade_stereo_df2T_f32.c ****           /* y[n] = b0 * x[n] + d1 */
  90:./Libraries/CMSIS/DSP/Source/FilteringFunctions/arm_biquad_cascade_stereo_df2T_f32.c ****           /* d1 = b1 * x[n] + a1 * y[n] + d2 */
  91:./Libraries/CMSIS/DSP/Source/FilteringFunctions/arm_biquad_cascade_stereo_df2T_f32.c ****           /* d2 = b2 * x[n] + a2 * y[n] */
  92:./Libraries/CMSIS/DSP/Source/FilteringFunctions/arm_biquad_cascade_stereo_df2T_f32.c **** 
  93:./Libraries/CMSIS/DSP/Source/FilteringFunctions/arm_biquad_cascade_stereo_df2T_f32.c **** /*  1 */
  94:./Libraries/CMSIS/DSP/Source/FilteringFunctions/arm_biquad_cascade_stereo_df2T_f32.c ****           Xn1a = *pIn++; /* Channel a */
  95:./Libraries/CMSIS/DSP/Source/FilteringFunctions/arm_biquad_cascade_stereo_df2T_f32.c ****           Xn1b = *pIn++; /* Channel b */
  96:./Libraries/CMSIS/DSP/Source/FilteringFunctions/arm_biquad_cascade_stereo_df2T_f32.c **** 
  97:./Libraries/CMSIS/DSP/Source/FilteringFunctions/arm_biquad_cascade_stereo_df2T_f32.c ****           acc1a = (b0 * Xn1a) + d1a;
  98:./Libraries/CMSIS/DSP/Source/FilteringFunctions/arm_biquad_cascade_stereo_df2T_f32.c ****           acc1b = (b0 * Xn1b) + d1b;
  99:./Libraries/CMSIS/DSP/Source/FilteringFunctions/arm_biquad_cascade_stereo_df2T_f32.c **** 
 100:./Libraries/CMSIS/DSP/Source/FilteringFunctions/arm_biquad_cascade_stereo_df2T_f32.c ****           *pOut++ = acc1a;
 101:./Libraries/CMSIS/DSP/Source/FilteringFunctions/arm_biquad_cascade_stereo_df2T_f32.c ****           *pOut++ = acc1b;
 102:./Libraries/CMSIS/DSP/Source/FilteringFunctions/arm_biquad_cascade_stereo_df2T_f32.c **** 
 103:./Libraries/CMSIS/DSP/Source/FilteringFunctions/arm_biquad_cascade_stereo_df2T_f32.c ****           d1a = ((b1 * Xn1a) + (a1 * acc1a)) + d2a;
 104:./Libraries/CMSIS/DSP/Source/FilteringFunctions/arm_biquad_cascade_stereo_df2T_f32.c ****           d1b = ((b1 * Xn1b) + (a1 * acc1b)) + d2b;
 105:./Libraries/CMSIS/DSP/Source/FilteringFunctions/arm_biquad_cascade_stereo_df2T_f32.c **** 
 106:./Libraries/CMSIS/DSP/Source/FilteringFunctions/arm_biquad_cascade_stereo_df2T_f32.c ****           d2a = (b2 * Xn1a) + (a2 * acc1a);
 107:./Libraries/CMSIS/DSP/Source/FilteringFunctions/arm_biquad_cascade_stereo_df2T_f32.c ****           d2b = (b2 * Xn1b) + (a2 * acc1b);
 108:./Libraries/CMSIS/DSP/Source/FilteringFunctions/arm_biquad_cascade_stereo_df2T_f32.c **** 
 109:./Libraries/CMSIS/DSP/Source/FilteringFunctions/arm_biquad_cascade_stereo_df2T_f32.c **** /*  2 */
 110:./Libraries/CMSIS/DSP/Source/FilteringFunctions/arm_biquad_cascade_stereo_df2T_f32.c ****           Xn1a = *pIn++; /* Channel a */
 111:./Libraries/CMSIS/DSP/Source/FilteringFunctions/arm_biquad_cascade_stereo_df2T_f32.c ****           Xn1b = *pIn++; /* Channel b */
 112:./Libraries/CMSIS/DSP/Source/FilteringFunctions/arm_biquad_cascade_stereo_df2T_f32.c **** 
 113:./Libraries/CMSIS/DSP/Source/FilteringFunctions/arm_biquad_cascade_stereo_df2T_f32.c ****           acc1a = (b0 * Xn1a) + d1a;
 114:./Libraries/CMSIS/DSP/Source/FilteringFunctions/arm_biquad_cascade_stereo_df2T_f32.c ****           acc1b = (b0 * Xn1b) + d1b;
 115:./Libraries/CMSIS/DSP/Source/FilteringFunctions/arm_biquad_cascade_stereo_df2T_f32.c **** 
 116:./Libraries/CMSIS/DSP/Source/FilteringFunctions/arm_biquad_cascade_stereo_df2T_f32.c ****           *pOut++ = acc1a;
 117:./Libraries/CMSIS/DSP/Source/FilteringFunctions/arm_biquad_cascade_stereo_df2T_f32.c ****           *pOut++ = acc1b;
 118:./Libraries/CMSIS/DSP/Source/FilteringFunctions/arm_biquad_cascade_stereo_df2T_f32.c **** 
 119:./Libraries/CMSIS/DSP/Source/FilteringFunctions/arm_biquad_cascade_stereo_df2T_f32.c ****           d1a = ((b1 * Xn1a) + (a1 * acc1a)) + d2a;
 120:./Libraries/CMSIS/DSP/Source/FilteringFunctions/arm_biquad_cascade_stereo_df2T_f32.c ****           d1b = ((b1 * Xn1b) + (a1 * acc1b)) + d2b;
 121:./Libraries/CMSIS/DSP/Source/FilteringFunctions/arm_biquad_cascade_stereo_df2T_f32.c **** 
 122:./Libraries/CMSIS/DSP/Source/FilteringFunctions/arm_biquad_cascade_stereo_df2T_f32.c ****           d2a = (b2 * Xn1a) + (a2 * acc1a);
 123:./Libraries/CMSIS/DSP/Source/FilteringFunctions/arm_biquad_cascade_stereo_df2T_f32.c ****           d2b = (b2 * Xn1b) + (a2 * acc1b);
 124:./Libraries/CMSIS/DSP/Source/FilteringFunctions/arm_biquad_cascade_stereo_df2T_f32.c **** 
 125:./Libraries/CMSIS/DSP/Source/FilteringFunctions/arm_biquad_cascade_stereo_df2T_f32.c **** /*  3 */
 126:./Libraries/CMSIS/DSP/Source/FilteringFunctions/arm_biquad_cascade_stereo_df2T_f32.c ****           Xn1a = *pIn++; /* Channel a */
 127:./Libraries/CMSIS/DSP/Source/FilteringFunctions/arm_biquad_cascade_stereo_df2T_f32.c ****           Xn1b = *pIn++; /* Channel b */
ARM GAS  /tmp/ccb5I0vl.s 			page 4


 128:./Libraries/CMSIS/DSP/Source/FilteringFunctions/arm_biquad_cascade_stereo_df2T_f32.c **** 
 129:./Libraries/CMSIS/DSP/Source/FilteringFunctions/arm_biquad_cascade_stereo_df2T_f32.c ****           acc1a = (b0 * Xn1a) + d1a;
 130:./Libraries/CMSIS/DSP/Source/FilteringFunctions/arm_biquad_cascade_stereo_df2T_f32.c ****           acc1b = (b0 * Xn1b) + d1b;
 131:./Libraries/CMSIS/DSP/Source/FilteringFunctions/arm_biquad_cascade_stereo_df2T_f32.c **** 
 132:./Libraries/CMSIS/DSP/Source/FilteringFunctions/arm_biquad_cascade_stereo_df2T_f32.c ****           *pOut++ = acc1a;
 133:./Libraries/CMSIS/DSP/Source/FilteringFunctions/arm_biquad_cascade_stereo_df2T_f32.c ****           *pOut++ = acc1b;
 134:./Libraries/CMSIS/DSP/Source/FilteringFunctions/arm_biquad_cascade_stereo_df2T_f32.c **** 
 135:./Libraries/CMSIS/DSP/Source/FilteringFunctions/arm_biquad_cascade_stereo_df2T_f32.c ****           d1a = ((b1 * Xn1a) + (a1 * acc1a)) + d2a;
 136:./Libraries/CMSIS/DSP/Source/FilteringFunctions/arm_biquad_cascade_stereo_df2T_f32.c ****           d1b = ((b1 * Xn1b) + (a1 * acc1b)) + d2b;
 137:./Libraries/CMSIS/DSP/Source/FilteringFunctions/arm_biquad_cascade_stereo_df2T_f32.c **** 
 138:./Libraries/CMSIS/DSP/Source/FilteringFunctions/arm_biquad_cascade_stereo_df2T_f32.c ****           d2a = (b2 * Xn1a) + (a2 * acc1a);
 139:./Libraries/CMSIS/DSP/Source/FilteringFunctions/arm_biquad_cascade_stereo_df2T_f32.c ****           d2b = (b2 * Xn1b) + (a2 * acc1b);
 140:./Libraries/CMSIS/DSP/Source/FilteringFunctions/arm_biquad_cascade_stereo_df2T_f32.c **** 
 141:./Libraries/CMSIS/DSP/Source/FilteringFunctions/arm_biquad_cascade_stereo_df2T_f32.c **** /*  4 */
 142:./Libraries/CMSIS/DSP/Source/FilteringFunctions/arm_biquad_cascade_stereo_df2T_f32.c ****           Xn1a = *pIn++; /* Channel a */
 143:./Libraries/CMSIS/DSP/Source/FilteringFunctions/arm_biquad_cascade_stereo_df2T_f32.c ****           Xn1b = *pIn++; /* Channel b */
 144:./Libraries/CMSIS/DSP/Source/FilteringFunctions/arm_biquad_cascade_stereo_df2T_f32.c **** 
 145:./Libraries/CMSIS/DSP/Source/FilteringFunctions/arm_biquad_cascade_stereo_df2T_f32.c ****           acc1a = (b0 * Xn1a) + d1a;
 146:./Libraries/CMSIS/DSP/Source/FilteringFunctions/arm_biquad_cascade_stereo_df2T_f32.c ****           acc1b = (b0 * Xn1b) + d1b;
 147:./Libraries/CMSIS/DSP/Source/FilteringFunctions/arm_biquad_cascade_stereo_df2T_f32.c **** 
 148:./Libraries/CMSIS/DSP/Source/FilteringFunctions/arm_biquad_cascade_stereo_df2T_f32.c ****           *pOut++ = acc1a;
 149:./Libraries/CMSIS/DSP/Source/FilteringFunctions/arm_biquad_cascade_stereo_df2T_f32.c ****           *pOut++ = acc1b;
 150:./Libraries/CMSIS/DSP/Source/FilteringFunctions/arm_biquad_cascade_stereo_df2T_f32.c **** 
 151:./Libraries/CMSIS/DSP/Source/FilteringFunctions/arm_biquad_cascade_stereo_df2T_f32.c ****           d1a = ((b1 * Xn1a) + (a1 * acc1a)) + d2a;
 152:./Libraries/CMSIS/DSP/Source/FilteringFunctions/arm_biquad_cascade_stereo_df2T_f32.c ****           d1b = ((b1 * Xn1b) + (a1 * acc1b)) + d2b;
 153:./Libraries/CMSIS/DSP/Source/FilteringFunctions/arm_biquad_cascade_stereo_df2T_f32.c **** 
 154:./Libraries/CMSIS/DSP/Source/FilteringFunctions/arm_biquad_cascade_stereo_df2T_f32.c ****           d2a = (b2 * Xn1a) + (a2 * acc1a);
 155:./Libraries/CMSIS/DSP/Source/FilteringFunctions/arm_biquad_cascade_stereo_df2T_f32.c ****           d2b = (b2 * Xn1b) + (a2 * acc1b);
 156:./Libraries/CMSIS/DSP/Source/FilteringFunctions/arm_biquad_cascade_stereo_df2T_f32.c **** 
 157:./Libraries/CMSIS/DSP/Source/FilteringFunctions/arm_biquad_cascade_stereo_df2T_f32.c **** /*  5 */
 158:./Libraries/CMSIS/DSP/Source/FilteringFunctions/arm_biquad_cascade_stereo_df2T_f32.c ****           Xn1a = *pIn++; /* Channel a */
 159:./Libraries/CMSIS/DSP/Source/FilteringFunctions/arm_biquad_cascade_stereo_df2T_f32.c ****           Xn1b = *pIn++; /* Channel b */
 160:./Libraries/CMSIS/DSP/Source/FilteringFunctions/arm_biquad_cascade_stereo_df2T_f32.c **** 
 161:./Libraries/CMSIS/DSP/Source/FilteringFunctions/arm_biquad_cascade_stereo_df2T_f32.c ****           acc1a = (b0 * Xn1a) + d1a;
 162:./Libraries/CMSIS/DSP/Source/FilteringFunctions/arm_biquad_cascade_stereo_df2T_f32.c ****           acc1b = (b0 * Xn1b) + d1b;
 163:./Libraries/CMSIS/DSP/Source/FilteringFunctions/arm_biquad_cascade_stereo_df2T_f32.c **** 
 164:./Libraries/CMSIS/DSP/Source/FilteringFunctions/arm_biquad_cascade_stereo_df2T_f32.c ****           *pOut++ = acc1a;
 165:./Libraries/CMSIS/DSP/Source/FilteringFunctions/arm_biquad_cascade_stereo_df2T_f32.c ****           *pOut++ = acc1b;
 166:./Libraries/CMSIS/DSP/Source/FilteringFunctions/arm_biquad_cascade_stereo_df2T_f32.c **** 
 167:./Libraries/CMSIS/DSP/Source/FilteringFunctions/arm_biquad_cascade_stereo_df2T_f32.c ****           d1a = ((b1 * Xn1a) + (a1 * acc1a)) + d2a;
 168:./Libraries/CMSIS/DSP/Source/FilteringFunctions/arm_biquad_cascade_stereo_df2T_f32.c ****           d1b = ((b1 * Xn1b) + (a1 * acc1b)) + d2b;
 169:./Libraries/CMSIS/DSP/Source/FilteringFunctions/arm_biquad_cascade_stereo_df2T_f32.c **** 
 170:./Libraries/CMSIS/DSP/Source/FilteringFunctions/arm_biquad_cascade_stereo_df2T_f32.c ****           d2a = (b2 * Xn1a) + (a2 * acc1a);
 171:./Libraries/CMSIS/DSP/Source/FilteringFunctions/arm_biquad_cascade_stereo_df2T_f32.c ****           d2b = (b2 * Xn1b) + (a2 * acc1b);
 172:./Libraries/CMSIS/DSP/Source/FilteringFunctions/arm_biquad_cascade_stereo_df2T_f32.c **** 
 173:./Libraries/CMSIS/DSP/Source/FilteringFunctions/arm_biquad_cascade_stereo_df2T_f32.c **** /*  6 */
 174:./Libraries/CMSIS/DSP/Source/FilteringFunctions/arm_biquad_cascade_stereo_df2T_f32.c ****           Xn1a = *pIn++; /* Channel a */
 175:./Libraries/CMSIS/DSP/Source/FilteringFunctions/arm_biquad_cascade_stereo_df2T_f32.c ****           Xn1b = *pIn++; /* Channel b */
 176:./Libraries/CMSIS/DSP/Source/FilteringFunctions/arm_biquad_cascade_stereo_df2T_f32.c **** 
 177:./Libraries/CMSIS/DSP/Source/FilteringFunctions/arm_biquad_cascade_stereo_df2T_f32.c ****           acc1a = (b0 * Xn1a) + d1a;
 178:./Libraries/CMSIS/DSP/Source/FilteringFunctions/arm_biquad_cascade_stereo_df2T_f32.c ****           acc1b = (b0 * Xn1b) + d1b;
 179:./Libraries/CMSIS/DSP/Source/FilteringFunctions/arm_biquad_cascade_stereo_df2T_f32.c **** 
 180:./Libraries/CMSIS/DSP/Source/FilteringFunctions/arm_biquad_cascade_stereo_df2T_f32.c ****           *pOut++ = acc1a;
 181:./Libraries/CMSIS/DSP/Source/FilteringFunctions/arm_biquad_cascade_stereo_df2T_f32.c ****           *pOut++ = acc1b;
 182:./Libraries/CMSIS/DSP/Source/FilteringFunctions/arm_biquad_cascade_stereo_df2T_f32.c **** 
 183:./Libraries/CMSIS/DSP/Source/FilteringFunctions/arm_biquad_cascade_stereo_df2T_f32.c ****           d1a = ((b1 * Xn1a) + (a1 * acc1a)) + d2a;
 184:./Libraries/CMSIS/DSP/Source/FilteringFunctions/arm_biquad_cascade_stereo_df2T_f32.c ****           d1b = ((b1 * Xn1b) + (a1 * acc1b)) + d2b;
ARM GAS  /tmp/ccb5I0vl.s 			page 5


 185:./Libraries/CMSIS/DSP/Source/FilteringFunctions/arm_biquad_cascade_stereo_df2T_f32.c **** 
 186:./Libraries/CMSIS/DSP/Source/FilteringFunctions/arm_biquad_cascade_stereo_df2T_f32.c ****           d2a = (b2 * Xn1a) + (a2 * acc1a);
 187:./Libraries/CMSIS/DSP/Source/FilteringFunctions/arm_biquad_cascade_stereo_df2T_f32.c ****           d2b = (b2 * Xn1b) + (a2 * acc1b);
 188:./Libraries/CMSIS/DSP/Source/FilteringFunctions/arm_biquad_cascade_stereo_df2T_f32.c **** 
 189:./Libraries/CMSIS/DSP/Source/FilteringFunctions/arm_biquad_cascade_stereo_df2T_f32.c **** /*  7 */
 190:./Libraries/CMSIS/DSP/Source/FilteringFunctions/arm_biquad_cascade_stereo_df2T_f32.c ****           Xn1a = *pIn++; /* Channel a */
 191:./Libraries/CMSIS/DSP/Source/FilteringFunctions/arm_biquad_cascade_stereo_df2T_f32.c ****           Xn1b = *pIn++; /* Channel b */
 192:./Libraries/CMSIS/DSP/Source/FilteringFunctions/arm_biquad_cascade_stereo_df2T_f32.c **** 
 193:./Libraries/CMSIS/DSP/Source/FilteringFunctions/arm_biquad_cascade_stereo_df2T_f32.c ****           acc1a = (b0 * Xn1a) + d1a;
 194:./Libraries/CMSIS/DSP/Source/FilteringFunctions/arm_biquad_cascade_stereo_df2T_f32.c ****           acc1b = (b0 * Xn1b) + d1b;
 195:./Libraries/CMSIS/DSP/Source/FilteringFunctions/arm_biquad_cascade_stereo_df2T_f32.c **** 
 196:./Libraries/CMSIS/DSP/Source/FilteringFunctions/arm_biquad_cascade_stereo_df2T_f32.c ****           *pOut++ = acc1a;
 197:./Libraries/CMSIS/DSP/Source/FilteringFunctions/arm_biquad_cascade_stereo_df2T_f32.c ****           *pOut++ = acc1b;
 198:./Libraries/CMSIS/DSP/Source/FilteringFunctions/arm_biquad_cascade_stereo_df2T_f32.c **** 
 199:./Libraries/CMSIS/DSP/Source/FilteringFunctions/arm_biquad_cascade_stereo_df2T_f32.c ****           d1a = ((b1 * Xn1a) + (a1 * acc1a)) + d2a;
 200:./Libraries/CMSIS/DSP/Source/FilteringFunctions/arm_biquad_cascade_stereo_df2T_f32.c ****           d1b = ((b1 * Xn1b) + (a1 * acc1b)) + d2b;
 201:./Libraries/CMSIS/DSP/Source/FilteringFunctions/arm_biquad_cascade_stereo_df2T_f32.c **** 
 202:./Libraries/CMSIS/DSP/Source/FilteringFunctions/arm_biquad_cascade_stereo_df2T_f32.c ****           d2a = (b2 * Xn1a) + (a2 * acc1a);
 203:./Libraries/CMSIS/DSP/Source/FilteringFunctions/arm_biquad_cascade_stereo_df2T_f32.c ****           d2b = (b2 * Xn1b) + (a2 * acc1b);
 204:./Libraries/CMSIS/DSP/Source/FilteringFunctions/arm_biquad_cascade_stereo_df2T_f32.c **** 
 205:./Libraries/CMSIS/DSP/Source/FilteringFunctions/arm_biquad_cascade_stereo_df2T_f32.c **** /*  8 */
 206:./Libraries/CMSIS/DSP/Source/FilteringFunctions/arm_biquad_cascade_stereo_df2T_f32.c ****           Xn1a = *pIn++; /* Channel a */
 207:./Libraries/CMSIS/DSP/Source/FilteringFunctions/arm_biquad_cascade_stereo_df2T_f32.c ****           Xn1b = *pIn++; /* Channel b */
 208:./Libraries/CMSIS/DSP/Source/FilteringFunctions/arm_biquad_cascade_stereo_df2T_f32.c **** 
 209:./Libraries/CMSIS/DSP/Source/FilteringFunctions/arm_biquad_cascade_stereo_df2T_f32.c ****           acc1a = (b0 * Xn1a) + d1a;
 210:./Libraries/CMSIS/DSP/Source/FilteringFunctions/arm_biquad_cascade_stereo_df2T_f32.c ****           acc1b = (b0 * Xn1b) + d1b;
 211:./Libraries/CMSIS/DSP/Source/FilteringFunctions/arm_biquad_cascade_stereo_df2T_f32.c **** 
 212:./Libraries/CMSIS/DSP/Source/FilteringFunctions/arm_biquad_cascade_stereo_df2T_f32.c ****           *pOut++ = acc1a;
 213:./Libraries/CMSIS/DSP/Source/FilteringFunctions/arm_biquad_cascade_stereo_df2T_f32.c ****           *pOut++ = acc1b;
 214:./Libraries/CMSIS/DSP/Source/FilteringFunctions/arm_biquad_cascade_stereo_df2T_f32.c **** 
 215:./Libraries/CMSIS/DSP/Source/FilteringFunctions/arm_biquad_cascade_stereo_df2T_f32.c ****           d1a = ((b1 * Xn1a) + (a1 * acc1a)) + d2a;
 216:./Libraries/CMSIS/DSP/Source/FilteringFunctions/arm_biquad_cascade_stereo_df2T_f32.c ****           d1b = ((b1 * Xn1b) + (a1 * acc1b)) + d2b;
 217:./Libraries/CMSIS/DSP/Source/FilteringFunctions/arm_biquad_cascade_stereo_df2T_f32.c **** 
 218:./Libraries/CMSIS/DSP/Source/FilteringFunctions/arm_biquad_cascade_stereo_df2T_f32.c ****           d2a = (b2 * Xn1a) + (a2 * acc1a);
 219:./Libraries/CMSIS/DSP/Source/FilteringFunctions/arm_biquad_cascade_stereo_df2T_f32.c ****           d2b = (b2 * Xn1b) + (a2 * acc1b);
 220:./Libraries/CMSIS/DSP/Source/FilteringFunctions/arm_biquad_cascade_stereo_df2T_f32.c **** 
 221:./Libraries/CMSIS/DSP/Source/FilteringFunctions/arm_biquad_cascade_stereo_df2T_f32.c ****           /* decrement loop counter */
 222:./Libraries/CMSIS/DSP/Source/FilteringFunctions/arm_biquad_cascade_stereo_df2T_f32.c ****           sample--;
 223:./Libraries/CMSIS/DSP/Source/FilteringFunctions/arm_biquad_cascade_stereo_df2T_f32.c ****         }
 224:./Libraries/CMSIS/DSP/Source/FilteringFunctions/arm_biquad_cascade_stereo_df2T_f32.c **** 
 225:./Libraries/CMSIS/DSP/Source/FilteringFunctions/arm_biquad_cascade_stereo_df2T_f32.c ****         /* Loop unrolling: Compute remaining outputs */
 226:./Libraries/CMSIS/DSP/Source/FilteringFunctions/arm_biquad_cascade_stereo_df2T_f32.c ****         sample = blockSize & 0x7U;
 227:./Libraries/CMSIS/DSP/Source/FilteringFunctions/arm_biquad_cascade_stereo_df2T_f32.c **** 
 228:./Libraries/CMSIS/DSP/Source/FilteringFunctions/arm_biquad_cascade_stereo_df2T_f32.c **** #else
 229:./Libraries/CMSIS/DSP/Source/FilteringFunctions/arm_biquad_cascade_stereo_df2T_f32.c **** 
 230:./Libraries/CMSIS/DSP/Source/FilteringFunctions/arm_biquad_cascade_stereo_df2T_f32.c ****         /* Initialize blkCnt with number of samples */
 231:./Libraries/CMSIS/DSP/Source/FilteringFunctions/arm_biquad_cascade_stereo_df2T_f32.c ****         sample = blockSize;
 232:./Libraries/CMSIS/DSP/Source/FilteringFunctions/arm_biquad_cascade_stereo_df2T_f32.c **** 
 233:./Libraries/CMSIS/DSP/Source/FilteringFunctions/arm_biquad_cascade_stereo_df2T_f32.c **** #endif /* #if defined (ARM_MATH_LOOPUNROLL) */
 234:./Libraries/CMSIS/DSP/Source/FilteringFunctions/arm_biquad_cascade_stereo_df2T_f32.c **** 
 235:./Libraries/CMSIS/DSP/Source/FilteringFunctions/arm_biquad_cascade_stereo_df2T_f32.c ****         while (sample > 0U) {
 236:./Libraries/CMSIS/DSP/Source/FilteringFunctions/arm_biquad_cascade_stereo_df2T_f32.c ****           /* Read the input */
 237:./Libraries/CMSIS/DSP/Source/FilteringFunctions/arm_biquad_cascade_stereo_df2T_f32.c ****           Xn1a = *pIn++; /* Channel a */
 238:./Libraries/CMSIS/DSP/Source/FilteringFunctions/arm_biquad_cascade_stereo_df2T_f32.c ****           Xn1b = *pIn++; /* Channel b */
 239:./Libraries/CMSIS/DSP/Source/FilteringFunctions/arm_biquad_cascade_stereo_df2T_f32.c **** 
 240:./Libraries/CMSIS/DSP/Source/FilteringFunctions/arm_biquad_cascade_stereo_df2T_f32.c ****           /* y[n] = b0 * x[n] + d1 */
 241:./Libraries/CMSIS/DSP/Source/FilteringFunctions/arm_biquad_cascade_stereo_df2T_f32.c ****           acc1a = (b0 * Xn1a) + d1a;
ARM GAS  /tmp/ccb5I0vl.s 			page 6


 242:./Libraries/CMSIS/DSP/Source/FilteringFunctions/arm_biquad_cascade_stereo_df2T_f32.c ****           acc1b = (b0 * Xn1b) + d1b;
 243:./Libraries/CMSIS/DSP/Source/FilteringFunctions/arm_biquad_cascade_stereo_df2T_f32.c **** 
 244:./Libraries/CMSIS/DSP/Source/FilteringFunctions/arm_biquad_cascade_stereo_df2T_f32.c ****           /* Store the result in the accumulator in the destination buffer. */
 245:./Libraries/CMSIS/DSP/Source/FilteringFunctions/arm_biquad_cascade_stereo_df2T_f32.c ****           *pOut++ = acc1a;
 246:./Libraries/CMSIS/DSP/Source/FilteringFunctions/arm_biquad_cascade_stereo_df2T_f32.c ****           *pOut++ = acc1b;
 247:./Libraries/CMSIS/DSP/Source/FilteringFunctions/arm_biquad_cascade_stereo_df2T_f32.c **** 
 248:./Libraries/CMSIS/DSP/Source/FilteringFunctions/arm_biquad_cascade_stereo_df2T_f32.c ****           /* Every time after the output is computed state should be updated. */
 249:./Libraries/CMSIS/DSP/Source/FilteringFunctions/arm_biquad_cascade_stereo_df2T_f32.c ****           /* d1 = b1 * x[n] + a1 * y[n] + d2 */
 250:./Libraries/CMSIS/DSP/Source/FilteringFunctions/arm_biquad_cascade_stereo_df2T_f32.c ****           d1a = ((b1 * Xn1a) + (a1 * acc1a)) + d2a;
 251:./Libraries/CMSIS/DSP/Source/FilteringFunctions/arm_biquad_cascade_stereo_df2T_f32.c ****           d1b = ((b1 * Xn1b) + (a1 * acc1b)) + d2b;
 252:./Libraries/CMSIS/DSP/Source/FilteringFunctions/arm_biquad_cascade_stereo_df2T_f32.c **** 
 253:./Libraries/CMSIS/DSP/Source/FilteringFunctions/arm_biquad_cascade_stereo_df2T_f32.c ****           /* d2 = b2 * x[n] + a2 * y[n] */
 254:./Libraries/CMSIS/DSP/Source/FilteringFunctions/arm_biquad_cascade_stereo_df2T_f32.c ****           d2a = (b2 * Xn1a) + (a2 * acc1a);
 255:./Libraries/CMSIS/DSP/Source/FilteringFunctions/arm_biquad_cascade_stereo_df2T_f32.c ****           d2b = (b2 * Xn1b) + (a2 * acc1b);
 256:./Libraries/CMSIS/DSP/Source/FilteringFunctions/arm_biquad_cascade_stereo_df2T_f32.c **** 
 257:./Libraries/CMSIS/DSP/Source/FilteringFunctions/arm_biquad_cascade_stereo_df2T_f32.c ****           /* decrement loop counter */
 258:./Libraries/CMSIS/DSP/Source/FilteringFunctions/arm_biquad_cascade_stereo_df2T_f32.c ****           sample--;
 259:./Libraries/CMSIS/DSP/Source/FilteringFunctions/arm_biquad_cascade_stereo_df2T_f32.c ****         }
 260:./Libraries/CMSIS/DSP/Source/FilteringFunctions/arm_biquad_cascade_stereo_df2T_f32.c **** 
 261:./Libraries/CMSIS/DSP/Source/FilteringFunctions/arm_biquad_cascade_stereo_df2T_f32.c ****         /* Store the updated state variables back into the state array */
 262:./Libraries/CMSIS/DSP/Source/FilteringFunctions/arm_biquad_cascade_stereo_df2T_f32.c ****         pState[0] = d1a;
 263:./Libraries/CMSIS/DSP/Source/FilteringFunctions/arm_biquad_cascade_stereo_df2T_f32.c ****         pState[1] = d2a;
 264:./Libraries/CMSIS/DSP/Source/FilteringFunctions/arm_biquad_cascade_stereo_df2T_f32.c **** 
 265:./Libraries/CMSIS/DSP/Source/FilteringFunctions/arm_biquad_cascade_stereo_df2T_f32.c ****         pState[2] = d1b;
 266:./Libraries/CMSIS/DSP/Source/FilteringFunctions/arm_biquad_cascade_stereo_df2T_f32.c ****         pState[3] = d2b;
 267:./Libraries/CMSIS/DSP/Source/FilteringFunctions/arm_biquad_cascade_stereo_df2T_f32.c **** 
 268:./Libraries/CMSIS/DSP/Source/FilteringFunctions/arm_biquad_cascade_stereo_df2T_f32.c ****         pState += 4U;
 269:./Libraries/CMSIS/DSP/Source/FilteringFunctions/arm_biquad_cascade_stereo_df2T_f32.c **** 
 270:./Libraries/CMSIS/DSP/Source/FilteringFunctions/arm_biquad_cascade_stereo_df2T_f32.c ****         /* The current stage input is given as the output to the next stage */
 271:./Libraries/CMSIS/DSP/Source/FilteringFunctions/arm_biquad_cascade_stereo_df2T_f32.c ****         pIn = pDst;
  46              		.loc 1 271 13
  47 000e 9646     		mov	lr, r2
  48 0010 0DE0     		b	.L4
  49              	.L2:
 262:./Libraries/CMSIS/DSP/Source/FilteringFunctions/arm_biquad_cascade_stereo_df2T_f32.c ****         pState[1] = d2a;
  50              		.loc 1 262 19
  51 0012 07ED046A 		vstr.32	s12, [r7, #-16]
 263:./Libraries/CMSIS/DSP/Source/FilteringFunctions/arm_biquad_cascade_stereo_df2T_f32.c **** 
  52              		.loc 1 263 19
  53 0016 07ED034A 		vstr.32	s8, [r7, #-12]
 265:./Libraries/CMSIS/DSP/Source/FilteringFunctions/arm_biquad_cascade_stereo_df2T_f32.c ****         pState[3] = d2b;
  54              		.loc 1 265 19
  55 001a 47ED026A 		vstr.32	s13, [r7, #-8]
 266:./Libraries/CMSIS/DSP/Source/FilteringFunctions/arm_biquad_cascade_stereo_df2T_f32.c **** 
  56              		.loc 1 266 19
  57 001e 47ED014A 		vstr.32	s9, [r7, #-4]
  58 0022 1436     		adds	r6, r6, #20
  59 0024 1035     		adds	r5, r5, #16
 272:./Libraries/CMSIS/DSP/Source/FilteringFunctions/arm_biquad_cascade_stereo_df2T_f32.c **** 
 273:./Libraries/CMSIS/DSP/Source/FilteringFunctions/arm_biquad_cascade_stereo_df2T_f32.c ****         /* Reset the output working pointer */
 274:./Libraries/CMSIS/DSP/Source/FilteringFunctions/arm_biquad_cascade_stereo_df2T_f32.c ****         pOut = pDst;
 275:./Libraries/CMSIS/DSP/Source/FilteringFunctions/arm_biquad_cascade_stereo_df2T_f32.c **** 
 276:./Libraries/CMSIS/DSP/Source/FilteringFunctions/arm_biquad_cascade_stereo_df2T_f32.c ****         /* Decrement the loop counter */
 277:./Libraries/CMSIS/DSP/Source/FilteringFunctions/arm_biquad_cascade_stereo_df2T_f32.c ****         stage--;
 278:./Libraries/CMSIS/DSP/Source/FilteringFunctions/arm_biquad_cascade_stereo_df2T_f32.c **** 
 279:./Libraries/CMSIS/DSP/Source/FilteringFunctions/arm_biquad_cascade_stereo_df2T_f32.c ****     } while (stage > 0U);
  60              		.loc 1 279 5
ARM GAS  /tmp/ccb5I0vl.s 			page 7


  61 0026 BCF1010C 		subs	ip, ip, #1
  62 002a 4AD0     		beq	.L8
 271:./Libraries/CMSIS/DSP/Source/FilteringFunctions/arm_biquad_cascade_stereo_df2T_f32.c **** 
  63              		.loc 1 271 13
  64 002c 7146     		mov	r1, lr
  65              	.L4:
  69:./Libraries/CMSIS/DSP/Source/FilteringFunctions/arm_biquad_cascade_stereo_df2T_f32.c ****         b1 = pCoeffs[1];
  66              		.loc 1 69 12
  67 002e 56ED051A 		vldr.32	s3, [r6, #-20]
  70:./Libraries/CMSIS/DSP/Source/FilteringFunctions/arm_biquad_cascade_stereo_df2T_f32.c ****         b2 = pCoeffs[2];
  68              		.loc 1 70 12
  69 0032 16ED042A 		vldr.32	s4, [r6, #-16]
  71:./Libraries/CMSIS/DSP/Source/FilteringFunctions/arm_biquad_cascade_stereo_df2T_f32.c ****         a1 = pCoeffs[3];
  70              		.loc 1 71 12
  71 0036 16ED033A 		vldr.32	s6, [r6, #-12]
  72:./Libraries/CMSIS/DSP/Source/FilteringFunctions/arm_biquad_cascade_stereo_df2T_f32.c ****         a2 = pCoeffs[4];
  72              		.loc 1 72 12
  73 003a 56ED022A 		vldr.32	s5, [r6, #-8]
  73:./Libraries/CMSIS/DSP/Source/FilteringFunctions/arm_biquad_cascade_stereo_df2T_f32.c **** 
  74              		.loc 1 73 12
  75 003e 56ED013A 		vldr.32	s7, [r6, #-4]
  76 0042 2F46     		mov	r7, r5
  76:./Libraries/CMSIS/DSP/Source/FilteringFunctions/arm_biquad_cascade_stereo_df2T_f32.c ****         d2a = pState[1];
  77              		.loc 1 76 13
  78 0044 15ED046A 		vldr.32	s12, [r5, #-16]
  77:./Libraries/CMSIS/DSP/Source/FilteringFunctions/arm_biquad_cascade_stereo_df2T_f32.c ****         d1b = pState[2];
  79              		.loc 1 77 13
  80 0048 15ED034A 		vldr.32	s8, [r5, #-12]
  78:./Libraries/CMSIS/DSP/Source/FilteringFunctions/arm_biquad_cascade_stereo_df2T_f32.c ****         d2b = pState[3];
  81              		.loc 1 78 13
  82 004c 55ED026A 		vldr.32	s13, [r5, #-8]
  79:./Libraries/CMSIS/DSP/Source/FilteringFunctions/arm_biquad_cascade_stereo_df2T_f32.c **** 
  83              		.loc 1 79 13
  84 0050 55ED014A 		vldr.32	s9, [r5, #-4]
 235:./Libraries/CMSIS/DSP/Source/FilteringFunctions/arm_biquad_cascade_stereo_df2T_f32.c ****           /* Read the input */
  85              		.loc 1 235 15
  86 0054 002B     		cmp	r3, #0
  87 0056 DCD0     		beq	.L2
  88 0058 0831     		adds	r1, r1, #8
  89 005a 02F10800 		add	r0, r2, #8
 231:./Libraries/CMSIS/DSP/Source/FilteringFunctions/arm_biquad_cascade_stereo_df2T_f32.c **** 
  90              		.loc 1 231 16
  91 005e 1C46     		mov	r4, r3
  92              	.L3:
 237:./Libraries/CMSIS/DSP/Source/FilteringFunctions/arm_biquad_cascade_stereo_df2T_f32.c ****           Xn1b = *pIn++; /* Channel b */
  93              		.loc 1 237 16
  94 0060 11ED025A 		vldr.32	s10, [r1, #-8]
 238:./Libraries/CMSIS/DSP/Source/FilteringFunctions/arm_biquad_cascade_stereo_df2T_f32.c **** 
  95              		.loc 1 238 16
  96 0064 51ED015A 		vldr.32	s11, [r1, #-4]
 241:./Libraries/CMSIS/DSP/Source/FilteringFunctions/arm_biquad_cascade_stereo_df2T_f32.c ****           acc1b = (b0 * Xn1b) + d1b;
  97              		.loc 1 241 23
  98 0068 21EE857A 		vmul.f32	s14, s3, s10
 241:./Libraries/CMSIS/DSP/Source/FilteringFunctions/arm_biquad_cascade_stereo_df2T_f32.c ****           acc1b = (b0 * Xn1b) + d1b;
  99              		.loc 1 241 17
 100 006c 37EE067A 		vadd.f32	s14, s14, s12
 242:./Libraries/CMSIS/DSP/Source/FilteringFunctions/arm_biquad_cascade_stereo_df2T_f32.c **** 
ARM GAS  /tmp/ccb5I0vl.s 			page 8


 101              		.loc 1 242 23
 102 0070 61EEA57A 		vmul.f32	s15, s3, s11
 242:./Libraries/CMSIS/DSP/Source/FilteringFunctions/arm_biquad_cascade_stereo_df2T_f32.c **** 
 103              		.loc 1 242 17
 104 0074 77EEA67A 		vadd.f32	s15, s15, s13
 245:./Libraries/CMSIS/DSP/Source/FilteringFunctions/arm_biquad_cascade_stereo_df2T_f32.c ****           *pOut++ = acc1b;
 105              		.loc 1 245 19
 106 0078 00ED027A 		vstr.32	s14, [r0, #-8]
 246:./Libraries/CMSIS/DSP/Source/FilteringFunctions/arm_biquad_cascade_stereo_df2T_f32.c **** 
 107              		.loc 1 246 19
 108 007c 40ED017A 		vstr.32	s15, [r0, #-4]
 250:./Libraries/CMSIS/DSP/Source/FilteringFunctions/arm_biquad_cascade_stereo_df2T_f32.c ****           d1b = ((b1 * Xn1b) + (a1 * acc1b)) + d2b;
 109              		.loc 1 250 22
 110 0080 22EE056A 		vmul.f32	s12, s4, s10
 250:./Libraries/CMSIS/DSP/Source/FilteringFunctions/arm_biquad_cascade_stereo_df2T_f32.c ****           d1b = ((b1 * Xn1b) + (a1 * acc1b)) + d2b;
 111              		.loc 1 250 36
 112 0084 62EE876A 		vmul.f32	s13, s5, s14
 250:./Libraries/CMSIS/DSP/Source/FilteringFunctions/arm_biquad_cascade_stereo_df2T_f32.c ****           d1b = ((b1 * Xn1b) + (a1 * acc1b)) + d2b;
 113              		.loc 1 250 30
 114 0088 36EE266A 		vadd.f32	s12, s12, s13
 250:./Libraries/CMSIS/DSP/Source/FilteringFunctions/arm_biquad_cascade_stereo_df2T_f32.c ****           d1b = ((b1 * Xn1b) + (a1 * acc1b)) + d2b;
 115              		.loc 1 250 15
 116 008c 36EE046A 		vadd.f32	s12, s12, s8
 251:./Libraries/CMSIS/DSP/Source/FilteringFunctions/arm_biquad_cascade_stereo_df2T_f32.c **** 
 117              		.loc 1 251 22
 118 0090 62EE256A 		vmul.f32	s13, s4, s11
 251:./Libraries/CMSIS/DSP/Source/FilteringFunctions/arm_biquad_cascade_stereo_df2T_f32.c **** 
 119              		.loc 1 251 36
 120 0094 22EEA74A 		vmul.f32	s8, s5, s15
 251:./Libraries/CMSIS/DSP/Source/FilteringFunctions/arm_biquad_cascade_stereo_df2T_f32.c **** 
 121              		.loc 1 251 30
 122 0098 76EE846A 		vadd.f32	s13, s13, s8
 251:./Libraries/CMSIS/DSP/Source/FilteringFunctions/arm_biquad_cascade_stereo_df2T_f32.c **** 
 123              		.loc 1 251 15
 124 009c 76EEA46A 		vadd.f32	s13, s13, s9
 254:./Libraries/CMSIS/DSP/Source/FilteringFunctions/arm_biquad_cascade_stereo_df2T_f32.c ****           d2b = (b2 * Xn1b) + (a2 * acc1b);
 125              		.loc 1 254 21
 126 00a0 23EE055A 		vmul.f32	s10, s6, s10
 254:./Libraries/CMSIS/DSP/Source/FilteringFunctions/arm_biquad_cascade_stereo_df2T_f32.c ****           d2b = (b2 * Xn1b) + (a2 * acc1b);
 127              		.loc 1 254 35
 128 00a4 23EE877A 		vmul.f32	s14, s7, s14
 254:./Libraries/CMSIS/DSP/Source/FilteringFunctions/arm_biquad_cascade_stereo_df2T_f32.c ****           d2b = (b2 * Xn1b) + (a2 * acc1b);
 129              		.loc 1 254 15
 130 00a8 35EE074A 		vadd.f32	s8, s10, s14
 255:./Libraries/CMSIS/DSP/Source/FilteringFunctions/arm_biquad_cascade_stereo_df2T_f32.c **** 
 131              		.loc 1 255 21
 132 00ac 63EE255A 		vmul.f32	s11, s6, s11
 255:./Libraries/CMSIS/DSP/Source/FilteringFunctions/arm_biquad_cascade_stereo_df2T_f32.c **** 
 133              		.loc 1 255 35
 134 00b0 63EEA77A 		vmul.f32	s15, s7, s15
 255:./Libraries/CMSIS/DSP/Source/FilteringFunctions/arm_biquad_cascade_stereo_df2T_f32.c **** 
 135              		.loc 1 255 15
 136 00b4 75EEA74A 		vadd.f32	s9, s11, s15
 137 00b8 0831     		adds	r1, r1, #8
 138 00ba 0830     		adds	r0, r0, #8
 235:./Libraries/CMSIS/DSP/Source/FilteringFunctions/arm_biquad_cascade_stereo_df2T_f32.c ****           /* Read the input */
 139              		.loc 1 235 15
ARM GAS  /tmp/ccb5I0vl.s 			page 9


 140 00bc 013C     		subs	r4, r4, #1
 141 00be CFD1     		bne	.L3
 142 00c0 A7E7     		b	.L2
 143              	.L8:
 280:./Libraries/CMSIS/DSP/Source/FilteringFunctions/arm_biquad_cascade_stereo_df2T_f32.c **** 
 281:./Libraries/CMSIS/DSP/Source/FilteringFunctions/arm_biquad_cascade_stereo_df2T_f32.c **** }
 144              		.loc 1 281 1
 145 00c2 F0BD     		pop	{r4, r5, r6, r7, pc}
 146              		.cfi_endproc
 147              	.LFE145:
 149              		.text
 150              	.Letext0:
 151              		.file 2 "/usr/lib/gcc/arm-none-eabi/9.2.1/include/stdint.h"
 152              		.file 3 "/usr/lib/gcc/arm-none-eabi/9.2.1/include/stddef.h"
 153              		.file 4 "/usr/include/newlib/sys/_types.h"
 154              		.file 5 "/usr/include/newlib/sys/reent.h"
 155              		.file 6 "/usr/include/newlib/sys/lock.h"
 156              		.file 7 "/usr/include/newlib/math.h"
 157              		.file 8 "./Libraries/CMSIS/DSP/Include/arm_math.h"
ARM GAS  /tmp/ccb5I0vl.s 			page 10

