ARM GAS  /tmp/cciTXxX2.s 			page 1


   1              		.cpu cortex-m7
   2              		.eabi_attribute 28, 1
   3              		.eabi_attribute 20, 1
   4              		.eabi_attribute 21, 1
   5              		.eabi_attribute 23, 3
   6              		.eabi_attribute 24, 1
   7              		.eabi_attribute 25, 1
   8              		.eabi_attribute 26, 1
   9              		.eabi_attribute 30, 6
  10              		.eabi_attribute 34, 1
  11              		.eabi_attribute 18, 4
  12              		.file	"arm_mat_scale_q15.c"
  13              		.text
  14              	.Ltext0:
  15              		.cfi_sections	.debug_frame
  16              		.section	.text.arm_mat_scale_q15,"ax",%progbits
  17              		.align	1
  18              		.global	arm_mat_scale_q15
  19              		.arch armv7e-m
  20              		.syntax unified
  21              		.thumb
  22              		.thumb_func
  23              		.fpu fpv5-d16
  25              	arm_mat_scale_q15:
  26              	.LFB145:
  27              		.file 1 "./Libraries/CMSIS/DSP/Source/MatrixFunctions/arm_mat_scale_q15.c"
   1:./Libraries/CMSIS/DSP/Source/MatrixFunctions/arm_mat_scale_q15.c **** /* ----------------------------------------------------------------------
   2:./Libraries/CMSIS/DSP/Source/MatrixFunctions/arm_mat_scale_q15.c ****  * Project:      CMSIS DSP Library
   3:./Libraries/CMSIS/DSP/Source/MatrixFunctions/arm_mat_scale_q15.c ****  * Title:        arm_mat_scale_q15.c
   4:./Libraries/CMSIS/DSP/Source/MatrixFunctions/arm_mat_scale_q15.c ****  * Description:  Multiplies a Q15 matrix by a scalar
   5:./Libraries/CMSIS/DSP/Source/MatrixFunctions/arm_mat_scale_q15.c ****  *
   6:./Libraries/CMSIS/DSP/Source/MatrixFunctions/arm_mat_scale_q15.c ****  * $Date:        18. March 2019
   7:./Libraries/CMSIS/DSP/Source/MatrixFunctions/arm_mat_scale_q15.c ****  * $Revision:    V1.6.0
   8:./Libraries/CMSIS/DSP/Source/MatrixFunctions/arm_mat_scale_q15.c ****  *
   9:./Libraries/CMSIS/DSP/Source/MatrixFunctions/arm_mat_scale_q15.c ****  * Target Processor: Cortex-M cores
  10:./Libraries/CMSIS/DSP/Source/MatrixFunctions/arm_mat_scale_q15.c ****  * -------------------------------------------------------------------- */
  11:./Libraries/CMSIS/DSP/Source/MatrixFunctions/arm_mat_scale_q15.c **** /*
  12:./Libraries/CMSIS/DSP/Source/MatrixFunctions/arm_mat_scale_q15.c ****  * Copyright (C) 2010-2019 ARM Limited or its affiliates. All rights reserved.
  13:./Libraries/CMSIS/DSP/Source/MatrixFunctions/arm_mat_scale_q15.c ****  *
  14:./Libraries/CMSIS/DSP/Source/MatrixFunctions/arm_mat_scale_q15.c ****  * SPDX-License-Identifier: Apache-2.0
  15:./Libraries/CMSIS/DSP/Source/MatrixFunctions/arm_mat_scale_q15.c ****  *
  16:./Libraries/CMSIS/DSP/Source/MatrixFunctions/arm_mat_scale_q15.c ****  * Licensed under the Apache License, Version 2.0 (the License); you may
  17:./Libraries/CMSIS/DSP/Source/MatrixFunctions/arm_mat_scale_q15.c ****  * not use this file except in compliance with the License.
  18:./Libraries/CMSIS/DSP/Source/MatrixFunctions/arm_mat_scale_q15.c ****  * You may obtain a copy of the License at
  19:./Libraries/CMSIS/DSP/Source/MatrixFunctions/arm_mat_scale_q15.c ****  *
  20:./Libraries/CMSIS/DSP/Source/MatrixFunctions/arm_mat_scale_q15.c ****  * www.apache.org/licenses/LICENSE-2.0
  21:./Libraries/CMSIS/DSP/Source/MatrixFunctions/arm_mat_scale_q15.c ****  *
  22:./Libraries/CMSIS/DSP/Source/MatrixFunctions/arm_mat_scale_q15.c ****  * Unless required by applicable law or agreed to in writing, software
  23:./Libraries/CMSIS/DSP/Source/MatrixFunctions/arm_mat_scale_q15.c ****  * distributed under the License is distributed on an AS IS BASIS, WITHOUT
  24:./Libraries/CMSIS/DSP/Source/MatrixFunctions/arm_mat_scale_q15.c ****  * WARRANTIES OR CONDITIONS OF ANY KIND, either express or implied.
  25:./Libraries/CMSIS/DSP/Source/MatrixFunctions/arm_mat_scale_q15.c ****  * See the License for the specific language governing permissions and
  26:./Libraries/CMSIS/DSP/Source/MatrixFunctions/arm_mat_scale_q15.c ****  * limitations under the License.
  27:./Libraries/CMSIS/DSP/Source/MatrixFunctions/arm_mat_scale_q15.c ****  */
  28:./Libraries/CMSIS/DSP/Source/MatrixFunctions/arm_mat_scale_q15.c **** 
  29:./Libraries/CMSIS/DSP/Source/MatrixFunctions/arm_mat_scale_q15.c **** #include "arm_math.h"
  30:./Libraries/CMSIS/DSP/Source/MatrixFunctions/arm_mat_scale_q15.c **** 
  31:./Libraries/CMSIS/DSP/Source/MatrixFunctions/arm_mat_scale_q15.c **** /**
ARM GAS  /tmp/cciTXxX2.s 			page 2


  32:./Libraries/CMSIS/DSP/Source/MatrixFunctions/arm_mat_scale_q15.c ****   @ingroup groupMatrix
  33:./Libraries/CMSIS/DSP/Source/MatrixFunctions/arm_mat_scale_q15.c ****  */
  34:./Libraries/CMSIS/DSP/Source/MatrixFunctions/arm_mat_scale_q15.c **** 
  35:./Libraries/CMSIS/DSP/Source/MatrixFunctions/arm_mat_scale_q15.c **** /**
  36:./Libraries/CMSIS/DSP/Source/MatrixFunctions/arm_mat_scale_q15.c ****   @addtogroup MatrixScale
  37:./Libraries/CMSIS/DSP/Source/MatrixFunctions/arm_mat_scale_q15.c ****   @{
  38:./Libraries/CMSIS/DSP/Source/MatrixFunctions/arm_mat_scale_q15.c ****  */
  39:./Libraries/CMSIS/DSP/Source/MatrixFunctions/arm_mat_scale_q15.c **** 
  40:./Libraries/CMSIS/DSP/Source/MatrixFunctions/arm_mat_scale_q15.c **** /**
  41:./Libraries/CMSIS/DSP/Source/MatrixFunctions/arm_mat_scale_q15.c ****   @brief         Q15 matrix scaling.
  42:./Libraries/CMSIS/DSP/Source/MatrixFunctions/arm_mat_scale_q15.c ****   @param[in]     pSrc        points to input matrix
  43:./Libraries/CMSIS/DSP/Source/MatrixFunctions/arm_mat_scale_q15.c ****   @param[in]     scaleFract  fractional portion of the scale factor
  44:./Libraries/CMSIS/DSP/Source/MatrixFunctions/arm_mat_scale_q15.c ****   @param[in]     shift       number of bits to shift the result by
  45:./Libraries/CMSIS/DSP/Source/MatrixFunctions/arm_mat_scale_q15.c ****   @param[out]    pDst        points to output matrix structure
  46:./Libraries/CMSIS/DSP/Source/MatrixFunctions/arm_mat_scale_q15.c ****   @return        execution status
  47:./Libraries/CMSIS/DSP/Source/MatrixFunctions/arm_mat_scale_q15.c ****                    - \ref ARM_MATH_SUCCESS       : Operation successful
  48:./Libraries/CMSIS/DSP/Source/MatrixFunctions/arm_mat_scale_q15.c ****                    - \ref ARM_MATH_SIZE_MISMATCH : Matrix size check failed
  49:./Libraries/CMSIS/DSP/Source/MatrixFunctions/arm_mat_scale_q15.c **** 
  50:./Libraries/CMSIS/DSP/Source/MatrixFunctions/arm_mat_scale_q15.c ****   @par           Scaling and Overflow Behavior
  51:./Libraries/CMSIS/DSP/Source/MatrixFunctions/arm_mat_scale_q15.c ****                    The input data <code>*pSrc</code> and <code>scaleFract</code> are in 1.15 format
  52:./Libraries/CMSIS/DSP/Source/MatrixFunctions/arm_mat_scale_q15.c ****                    These are multiplied to yield a 2.30 intermediate result and this is shifted wit
  53:./Libraries/CMSIS/DSP/Source/MatrixFunctions/arm_mat_scale_q15.c ****  */
  54:./Libraries/CMSIS/DSP/Source/MatrixFunctions/arm_mat_scale_q15.c **** 
  55:./Libraries/CMSIS/DSP/Source/MatrixFunctions/arm_mat_scale_q15.c **** arm_status arm_mat_scale_q15(
  56:./Libraries/CMSIS/DSP/Source/MatrixFunctions/arm_mat_scale_q15.c ****   const arm_matrix_instance_q15 * pSrc,
  57:./Libraries/CMSIS/DSP/Source/MatrixFunctions/arm_mat_scale_q15.c ****         q15_t                     scaleFract,
  58:./Libraries/CMSIS/DSP/Source/MatrixFunctions/arm_mat_scale_q15.c ****         int32_t                   shift,
  59:./Libraries/CMSIS/DSP/Source/MatrixFunctions/arm_mat_scale_q15.c ****         arm_matrix_instance_q15 * pDst)
  60:./Libraries/CMSIS/DSP/Source/MatrixFunctions/arm_mat_scale_q15.c **** {
  28              		.loc 1 60 1
  29              		.cfi_startproc
  30              		@ args = 0, pretend = 0, frame = 48
  31              		@ frame_needed = 1, uses_anonymous_args = 0
  32              		@ link register save eliminated.
  33 0000 80B4     		push	{r7}
  34              	.LCFI0:
  35              		.cfi_def_cfa_offset 4
  36              		.cfi_offset 7, -4
  37 0002 8DB0     		sub	sp, sp, #52
  38              	.LCFI1:
  39              		.cfi_def_cfa_offset 56
  40 0004 00AF     		add	r7, sp, #0
  41              	.LCFI2:
  42              		.cfi_def_cfa_register 7
  43 0006 F860     		str	r0, [r7, #12]
  44 0008 7A60     		str	r2, [r7, #4]
  45 000a 3B60     		str	r3, [r7]
  46 000c 0B46     		mov	r3, r1	@ movhi
  47 000e 7B81     		strh	r3, [r7, #10]	@ movhi
  61:./Libraries/CMSIS/DSP/Source/MatrixFunctions/arm_mat_scale_q15.c ****         q15_t *pIn = pSrc->pData;                      /* Input data matrix pointer */
  48              		.loc 1 61 16
  49 0010 FB68     		ldr	r3, [r7, #12]
  50 0012 5B68     		ldr	r3, [r3, #4]
  51 0014 FB62     		str	r3, [r7, #44]
  62:./Libraries/CMSIS/DSP/Source/MatrixFunctions/arm_mat_scale_q15.c ****         q15_t *pOut = pDst->pData;                     /* Output data matrix pointer */
  52              		.loc 1 62 16
  53 0016 3B68     		ldr	r3, [r7]
ARM GAS  /tmp/cciTXxX2.s 			page 3


  54 0018 5B68     		ldr	r3, [r3, #4]
  55 001a BB62     		str	r3, [r7, #40]
  63:./Libraries/CMSIS/DSP/Source/MatrixFunctions/arm_mat_scale_q15.c ****         uint32_t numSamples;                           /* Total number of elements in the matrix */
  64:./Libraries/CMSIS/DSP/Source/MatrixFunctions/arm_mat_scale_q15.c ****         uint32_t blkCnt;                               /* Loop counter */
  65:./Libraries/CMSIS/DSP/Source/MatrixFunctions/arm_mat_scale_q15.c ****         arm_status status;                             /* Status of matrix scaling */
  66:./Libraries/CMSIS/DSP/Source/MatrixFunctions/arm_mat_scale_q15.c ****         int32_t kShift = 15 - shift;                   /* Total shift to apply after scaling */
  56              		.loc 1 66 17
  57 001c 7B68     		ldr	r3, [r7, #4]
  58 001e C3F10F03 		rsb	r3, r3, #15
  59 0022 3B62     		str	r3, [r7, #32]
  67:./Libraries/CMSIS/DSP/Source/MatrixFunctions/arm_mat_scale_q15.c **** 
  68:./Libraries/CMSIS/DSP/Source/MatrixFunctions/arm_mat_scale_q15.c **** #if defined (ARM_MATH_LOOPUNROLL) && defined (ARM_MATH_DSP)
  69:./Libraries/CMSIS/DSP/Source/MatrixFunctions/arm_mat_scale_q15.c ****         q31_t inA1, inA2;
  70:./Libraries/CMSIS/DSP/Source/MatrixFunctions/arm_mat_scale_q15.c ****         q31_t out1, out2, out3, out4;                  /* Temporary output variables */
  71:./Libraries/CMSIS/DSP/Source/MatrixFunctions/arm_mat_scale_q15.c ****         q15_t in1, in2, in3, in4;                      /* Temporary input variables */
  72:./Libraries/CMSIS/DSP/Source/MatrixFunctions/arm_mat_scale_q15.c **** #endif
  73:./Libraries/CMSIS/DSP/Source/MatrixFunctions/arm_mat_scale_q15.c **** 
  74:./Libraries/CMSIS/DSP/Source/MatrixFunctions/arm_mat_scale_q15.c **** #ifdef ARM_MATH_MATRIX_CHECK
  75:./Libraries/CMSIS/DSP/Source/MatrixFunctions/arm_mat_scale_q15.c **** 
  76:./Libraries/CMSIS/DSP/Source/MatrixFunctions/arm_mat_scale_q15.c ****   /* Check for matrix mismatch condition */
  77:./Libraries/CMSIS/DSP/Source/MatrixFunctions/arm_mat_scale_q15.c ****   if ((pSrc->numRows != pDst->numRows) ||
  78:./Libraries/CMSIS/DSP/Source/MatrixFunctions/arm_mat_scale_q15.c ****       (pSrc->numCols != pDst->numCols)   )
  79:./Libraries/CMSIS/DSP/Source/MatrixFunctions/arm_mat_scale_q15.c ****   {
  80:./Libraries/CMSIS/DSP/Source/MatrixFunctions/arm_mat_scale_q15.c ****     /* Set status as ARM_MATH_SIZE_MISMATCH */
  81:./Libraries/CMSIS/DSP/Source/MatrixFunctions/arm_mat_scale_q15.c ****     status = ARM_MATH_SIZE_MISMATCH;
  82:./Libraries/CMSIS/DSP/Source/MatrixFunctions/arm_mat_scale_q15.c ****   }
  83:./Libraries/CMSIS/DSP/Source/MatrixFunctions/arm_mat_scale_q15.c ****   else
  84:./Libraries/CMSIS/DSP/Source/MatrixFunctions/arm_mat_scale_q15.c **** 
  85:./Libraries/CMSIS/DSP/Source/MatrixFunctions/arm_mat_scale_q15.c **** #endif /* #ifdef ARM_MATH_MATRIX_CHECK */
  86:./Libraries/CMSIS/DSP/Source/MatrixFunctions/arm_mat_scale_q15.c **** 
  87:./Libraries/CMSIS/DSP/Source/MatrixFunctions/arm_mat_scale_q15.c ****   {
  88:./Libraries/CMSIS/DSP/Source/MatrixFunctions/arm_mat_scale_q15.c ****     /* Total number of samples in input matrix */
  89:./Libraries/CMSIS/DSP/Source/MatrixFunctions/arm_mat_scale_q15.c ****     numSamples = (uint32_t) pSrc->numRows * pSrc->numCols;
  60              		.loc 1 89 33
  61 0024 FB68     		ldr	r3, [r7, #12]
  62 0026 1B88     		ldrh	r3, [r3]
  63              		.loc 1 89 18
  64 0028 1A46     		mov	r2, r3
  65              		.loc 1 89 49
  66 002a FB68     		ldr	r3, [r7, #12]
  67 002c 5B88     		ldrh	r3, [r3, #2]
  68              		.loc 1 89 16
  69 002e 03FB02F3 		mul	r3, r3, r2
  70 0032 FB61     		str	r3, [r7, #28]
  90:./Libraries/CMSIS/DSP/Source/MatrixFunctions/arm_mat_scale_q15.c **** 
  91:./Libraries/CMSIS/DSP/Source/MatrixFunctions/arm_mat_scale_q15.c **** #if defined (ARM_MATH_LOOPUNROLL)
  92:./Libraries/CMSIS/DSP/Source/MatrixFunctions/arm_mat_scale_q15.c **** 
  93:./Libraries/CMSIS/DSP/Source/MatrixFunctions/arm_mat_scale_q15.c ****     /* Loop unrolling: Compute 4 outputs at a time */
  94:./Libraries/CMSIS/DSP/Source/MatrixFunctions/arm_mat_scale_q15.c ****     blkCnt = numSamples >> 2U;
  95:./Libraries/CMSIS/DSP/Source/MatrixFunctions/arm_mat_scale_q15.c **** 
  96:./Libraries/CMSIS/DSP/Source/MatrixFunctions/arm_mat_scale_q15.c ****     while (blkCnt > 0U)
  97:./Libraries/CMSIS/DSP/Source/MatrixFunctions/arm_mat_scale_q15.c ****     {
  98:./Libraries/CMSIS/DSP/Source/MatrixFunctions/arm_mat_scale_q15.c ****       /* C(m,n) = A(m,n) * k */
  99:./Libraries/CMSIS/DSP/Source/MatrixFunctions/arm_mat_scale_q15.c **** 
 100:./Libraries/CMSIS/DSP/Source/MatrixFunctions/arm_mat_scale_q15.c **** #if defined (ARM_MATH_DSP)
 101:./Libraries/CMSIS/DSP/Source/MatrixFunctions/arm_mat_scale_q15.c ****       /* read 2 times 2 samples at a time from source */
 102:./Libraries/CMSIS/DSP/Source/MatrixFunctions/arm_mat_scale_q15.c ****       inA1 = read_q15x2_ia ((q15_t **) &pIn);
ARM GAS  /tmp/cciTXxX2.s 			page 4


 103:./Libraries/CMSIS/DSP/Source/MatrixFunctions/arm_mat_scale_q15.c ****       inA2 = read_q15x2_ia ((q15_t **) &pIn);
 104:./Libraries/CMSIS/DSP/Source/MatrixFunctions/arm_mat_scale_q15.c **** 
 105:./Libraries/CMSIS/DSP/Source/MatrixFunctions/arm_mat_scale_q15.c ****       /* Scale inputs and store result in temporary variables
 106:./Libraries/CMSIS/DSP/Source/MatrixFunctions/arm_mat_scale_q15.c ****        * in single cycle by packing the outputs */
 107:./Libraries/CMSIS/DSP/Source/MatrixFunctions/arm_mat_scale_q15.c ****       out1 = (q31_t) ((q15_t) (inA1 >> 16) * scaleFract);
 108:./Libraries/CMSIS/DSP/Source/MatrixFunctions/arm_mat_scale_q15.c ****       out2 = (q31_t) ((q15_t) (inA1      ) * scaleFract);
 109:./Libraries/CMSIS/DSP/Source/MatrixFunctions/arm_mat_scale_q15.c ****       out3 = (q31_t) ((q15_t) (inA2 >> 16) * scaleFract);
 110:./Libraries/CMSIS/DSP/Source/MatrixFunctions/arm_mat_scale_q15.c ****       out4 = (q31_t) ((q15_t) (inA2      ) * scaleFract);
 111:./Libraries/CMSIS/DSP/Source/MatrixFunctions/arm_mat_scale_q15.c **** 
 112:./Libraries/CMSIS/DSP/Source/MatrixFunctions/arm_mat_scale_q15.c ****       /* apply shifting */
 113:./Libraries/CMSIS/DSP/Source/MatrixFunctions/arm_mat_scale_q15.c ****       out1 = out1 >> kShift;
 114:./Libraries/CMSIS/DSP/Source/MatrixFunctions/arm_mat_scale_q15.c ****       out2 = out2 >> kShift;
 115:./Libraries/CMSIS/DSP/Source/MatrixFunctions/arm_mat_scale_q15.c ****       out3 = out3 >> kShift;
 116:./Libraries/CMSIS/DSP/Source/MatrixFunctions/arm_mat_scale_q15.c ****       out4 = out4 >> kShift;
 117:./Libraries/CMSIS/DSP/Source/MatrixFunctions/arm_mat_scale_q15.c **** 
 118:./Libraries/CMSIS/DSP/Source/MatrixFunctions/arm_mat_scale_q15.c ****       /* saturate the output */
 119:./Libraries/CMSIS/DSP/Source/MatrixFunctions/arm_mat_scale_q15.c ****       in1 = (q15_t) (__SSAT(out1, 16));
 120:./Libraries/CMSIS/DSP/Source/MatrixFunctions/arm_mat_scale_q15.c ****       in2 = (q15_t) (__SSAT(out2, 16));
 121:./Libraries/CMSIS/DSP/Source/MatrixFunctions/arm_mat_scale_q15.c ****       in3 = (q15_t) (__SSAT(out3, 16));
 122:./Libraries/CMSIS/DSP/Source/MatrixFunctions/arm_mat_scale_q15.c ****       in4 = (q15_t) (__SSAT(out4, 16));
 123:./Libraries/CMSIS/DSP/Source/MatrixFunctions/arm_mat_scale_q15.c **** 
 124:./Libraries/CMSIS/DSP/Source/MatrixFunctions/arm_mat_scale_q15.c ****       /* store result to destination */
 125:./Libraries/CMSIS/DSP/Source/MatrixFunctions/arm_mat_scale_q15.c ****       write_q15x2_ia (&pOut, __PKHBT(in2, in1, 16));
 126:./Libraries/CMSIS/DSP/Source/MatrixFunctions/arm_mat_scale_q15.c ****       write_q15x2_ia (&pOut, __PKHBT(in4, in3, 16));
 127:./Libraries/CMSIS/DSP/Source/MatrixFunctions/arm_mat_scale_q15.c **** 
 128:./Libraries/CMSIS/DSP/Source/MatrixFunctions/arm_mat_scale_q15.c **** #else
 129:./Libraries/CMSIS/DSP/Source/MatrixFunctions/arm_mat_scale_q15.c ****       *pOut++ = (q15_t) (__SSAT(((q31_t) (*pIn++) * scaleFract) >> kShift, 16));
 130:./Libraries/CMSIS/DSP/Source/MatrixFunctions/arm_mat_scale_q15.c ****       *pOut++ = (q15_t) (__SSAT(((q31_t) (*pIn++) * scaleFract) >> kShift, 16));
 131:./Libraries/CMSIS/DSP/Source/MatrixFunctions/arm_mat_scale_q15.c ****       *pOut++ = (q15_t) (__SSAT(((q31_t) (*pIn++) * scaleFract) >> kShift, 16));
 132:./Libraries/CMSIS/DSP/Source/MatrixFunctions/arm_mat_scale_q15.c ****       *pOut++ = (q15_t) (__SSAT(((q31_t) (*pIn++) * scaleFract) >> kShift, 16));
 133:./Libraries/CMSIS/DSP/Source/MatrixFunctions/arm_mat_scale_q15.c **** #endif
 134:./Libraries/CMSIS/DSP/Source/MatrixFunctions/arm_mat_scale_q15.c **** 
 135:./Libraries/CMSIS/DSP/Source/MatrixFunctions/arm_mat_scale_q15.c ****       /* Decrement loop counter */
 136:./Libraries/CMSIS/DSP/Source/MatrixFunctions/arm_mat_scale_q15.c ****       blkCnt--;
 137:./Libraries/CMSIS/DSP/Source/MatrixFunctions/arm_mat_scale_q15.c ****     }
 138:./Libraries/CMSIS/DSP/Source/MatrixFunctions/arm_mat_scale_q15.c **** 
 139:./Libraries/CMSIS/DSP/Source/MatrixFunctions/arm_mat_scale_q15.c ****     /* Loop unrolling: Compute remaining outputs */
 140:./Libraries/CMSIS/DSP/Source/MatrixFunctions/arm_mat_scale_q15.c ****     blkCnt = numSamples % 0x4U;
 141:./Libraries/CMSIS/DSP/Source/MatrixFunctions/arm_mat_scale_q15.c **** 
 142:./Libraries/CMSIS/DSP/Source/MatrixFunctions/arm_mat_scale_q15.c **** #else
 143:./Libraries/CMSIS/DSP/Source/MatrixFunctions/arm_mat_scale_q15.c **** 
 144:./Libraries/CMSIS/DSP/Source/MatrixFunctions/arm_mat_scale_q15.c ****     /* Initialize blkCnt with number of samples */
 145:./Libraries/CMSIS/DSP/Source/MatrixFunctions/arm_mat_scale_q15.c ****     blkCnt = numSamples;
  71              		.loc 1 145 12
  72 0034 FB69     		ldr	r3, [r7, #28]
  73 0036 7B62     		str	r3, [r7, #36]
 146:./Libraries/CMSIS/DSP/Source/MatrixFunctions/arm_mat_scale_q15.c **** 
 147:./Libraries/CMSIS/DSP/Source/MatrixFunctions/arm_mat_scale_q15.c **** #endif /* #if defined (ARM_MATH_LOOPUNROLL) */
 148:./Libraries/CMSIS/DSP/Source/MatrixFunctions/arm_mat_scale_q15.c **** 
 149:./Libraries/CMSIS/DSP/Source/MatrixFunctions/arm_mat_scale_q15.c ****     while (blkCnt > 0U)
  74              		.loc 1 149 11
  75 0038 1AE0     		b	.L2
  76              	.L3:
  77              	.LBB2:
 150:./Libraries/CMSIS/DSP/Source/MatrixFunctions/arm_mat_scale_q15.c ****     {
 151:./Libraries/CMSIS/DSP/Source/MatrixFunctions/arm_mat_scale_q15.c ****       /* C(m,n) = A(m,n) * k */
 152:./Libraries/CMSIS/DSP/Source/MatrixFunctions/arm_mat_scale_q15.c **** 
ARM GAS  /tmp/cciTXxX2.s 			page 5


 153:./Libraries/CMSIS/DSP/Source/MatrixFunctions/arm_mat_scale_q15.c ****       /* Scale, saturate and store result in destination buffer. */
 154:./Libraries/CMSIS/DSP/Source/MatrixFunctions/arm_mat_scale_q15.c ****       *pOut++ = (q15_t) (__SSAT(((q31_t) (*pIn++) * scaleFract) >> kShift, 16));
  78              		.loc 1 154 26
  79 003a FB6A     		ldr	r3, [r7, #44]
  80 003c 9A1C     		adds	r2, r3, #2
  81 003e FA62     		str	r2, [r7, #44]
  82 0040 B3F90030 		ldrsh	r3, [r3]
  83 0044 1A46     		mov	r2, r3
  84 0046 B7F90A30 		ldrsh	r3, [r7, #10]
  85 004a 03FB02F2 		mul	r2, r3, r2
  86 004e 3B6A     		ldr	r3, [r7, #32]
  87 0050 42FA03F3 		asr	r3, r2, r3
  88 0054 7B61     		str	r3, [r7, #20]
  89 0056 7B69     		ldr	r3, [r7, #20]
  90              		.syntax unified
  91              	@ 154 "./Libraries/CMSIS/DSP/Source/MatrixFunctions/arm_mat_scale_q15.c" 1
  92 0058 03F30F03 		ssat r3, #16, r3
  93              	@ 0 "" 2
  94              		.thumb
  95              		.syntax unified
  96 005c 3B61     		str	r3, [r7, #16]
  97 005e 3969     		ldr	r1, [r7, #16]
  98              	.LBE2:
  99              		.loc 1 154 12
 100 0060 BB6A     		ldr	r3, [r7, #40]
 101 0062 9A1C     		adds	r2, r3, #2
 102 0064 BA62     		str	r2, [r7, #40]
 103              		.loc 1 154 17
 104 0066 0AB2     		sxth	r2, r1
 105              		.loc 1 154 15
 106 0068 1A80     		strh	r2, [r3]	@ movhi
 155:./Libraries/CMSIS/DSP/Source/MatrixFunctions/arm_mat_scale_q15.c **** 
 156:./Libraries/CMSIS/DSP/Source/MatrixFunctions/arm_mat_scale_q15.c ****       /* Decrement loop counter */
 157:./Libraries/CMSIS/DSP/Source/MatrixFunctions/arm_mat_scale_q15.c ****       blkCnt--;
 107              		.loc 1 157 13
 108 006a 7B6A     		ldr	r3, [r7, #36]
 109 006c 013B     		subs	r3, r3, #1
 110 006e 7B62     		str	r3, [r7, #36]
 111              	.L2:
 149:./Libraries/CMSIS/DSP/Source/MatrixFunctions/arm_mat_scale_q15.c ****     {
 112              		.loc 1 149 11
 113 0070 7B6A     		ldr	r3, [r7, #36]
 114 0072 002B     		cmp	r3, #0
 115 0074 E1D1     		bne	.L3
 158:./Libraries/CMSIS/DSP/Source/MatrixFunctions/arm_mat_scale_q15.c ****     }
 159:./Libraries/CMSIS/DSP/Source/MatrixFunctions/arm_mat_scale_q15.c **** 
 160:./Libraries/CMSIS/DSP/Source/MatrixFunctions/arm_mat_scale_q15.c ****     /* Set status as ARM_MATH_SUCCESS */
 161:./Libraries/CMSIS/DSP/Source/MatrixFunctions/arm_mat_scale_q15.c ****     status = ARM_MATH_SUCCESS;
 116              		.loc 1 161 12
 117 0076 0023     		movs	r3, #0
 118 0078 FB76     		strb	r3, [r7, #27]
 162:./Libraries/CMSIS/DSP/Source/MatrixFunctions/arm_mat_scale_q15.c ****   }
 163:./Libraries/CMSIS/DSP/Source/MatrixFunctions/arm_mat_scale_q15.c **** 
 164:./Libraries/CMSIS/DSP/Source/MatrixFunctions/arm_mat_scale_q15.c ****   /* Return to application */
 165:./Libraries/CMSIS/DSP/Source/MatrixFunctions/arm_mat_scale_q15.c ****   return (status);
 119              		.loc 1 165 10
 120 007a 97F91B30 		ldrsb	r3, [r7, #27]
ARM GAS  /tmp/cciTXxX2.s 			page 6


 166:./Libraries/CMSIS/DSP/Source/MatrixFunctions/arm_mat_scale_q15.c **** }
 121              		.loc 1 166 1
 122 007e 1846     		mov	r0, r3
 123 0080 3437     		adds	r7, r7, #52
 124              	.LCFI3:
 125              		.cfi_def_cfa_offset 4
 126 0082 BD46     		mov	sp, r7
 127              	.LCFI4:
 128              		.cfi_def_cfa_register 13
 129              		@ sp needed
 130 0084 5DF8047B 		ldr	r7, [sp], #4
 131              	.LCFI5:
 132              		.cfi_restore 7
 133              		.cfi_def_cfa_offset 0
 134 0088 7047     		bx	lr
 135              		.cfi_endproc
 136              	.LFE145:
 138              		.text
 139              	.Letext0:
 140              		.file 2 "/usr/lib/gcc/arm-none-eabi/9.2.1/include/stdint.h"
 141              		.file 3 "/usr/lib/gcc/arm-none-eabi/9.2.1/include/stddef.h"
 142              		.file 4 "/usr/include/newlib/sys/_types.h"
 143              		.file 5 "/usr/include/newlib/sys/reent.h"
 144              		.file 6 "/usr/include/newlib/sys/lock.h"
 145              		.file 7 "/usr/include/newlib/math.h"
 146              		.file 8 "./Libraries/CMSIS/DSP/Include/arm_math.h"
ARM GAS  /tmp/cciTXxX2.s 			page 7

