ARM GAS  /tmp/ccTCVnMZ.s 			page 1


   1              		.cpu cortex-m7
   2              		.eabi_attribute 28, 1
   3              		.eabi_attribute 20, 1
   4              		.eabi_attribute 21, 1
   5              		.eabi_attribute 23, 3
   6              		.eabi_attribute 24, 1
   7              		.eabi_attribute 25, 1
   8              		.eabi_attribute 26, 1
   9              		.eabi_attribute 30, 6
  10              		.eabi_attribute 34, 1
  11              		.eabi_attribute 18, 4
  12              		.file	"arm_lms_init_q15.c"
  13              		.text
  14              	.Ltext0:
  15              		.cfi_sections	.debug_frame
  16              		.section	.text.arm_lms_init_q15,"ax",%progbits
  17              		.align	1
  18              		.global	arm_lms_init_q15
  19              		.arch armv7e-m
  20              		.syntax unified
  21              		.thumb
  22              		.thumb_func
  23              		.fpu fpv5-d16
  25              	arm_lms_init_q15:
  26              	.LFB145:
  27              		.file 1 "./Libraries/CMSIS/DSP/Source/FilteringFunctions/arm_lms_init_q15.c"
   1:./Libraries/CMSIS/DSP/Source/FilteringFunctions/arm_lms_init_q15.c **** /* ----------------------------------------------------------------------
   2:./Libraries/CMSIS/DSP/Source/FilteringFunctions/arm_lms_init_q15.c ****  * Project:      CMSIS DSP Library
   3:./Libraries/CMSIS/DSP/Source/FilteringFunctions/arm_lms_init_q15.c ****  * Title:        arm_lms_init_q15.c
   4:./Libraries/CMSIS/DSP/Source/FilteringFunctions/arm_lms_init_q15.c ****  * Description:  Q15 LMS filter initialization function
   5:./Libraries/CMSIS/DSP/Source/FilteringFunctions/arm_lms_init_q15.c ****  *
   6:./Libraries/CMSIS/DSP/Source/FilteringFunctions/arm_lms_init_q15.c ****  * $Date:        18. March 2019
   7:./Libraries/CMSIS/DSP/Source/FilteringFunctions/arm_lms_init_q15.c ****  * $Revision:    V1.6.0
   8:./Libraries/CMSIS/DSP/Source/FilteringFunctions/arm_lms_init_q15.c ****  *
   9:./Libraries/CMSIS/DSP/Source/FilteringFunctions/arm_lms_init_q15.c ****  * Target Processor: Cortex-M cores
  10:./Libraries/CMSIS/DSP/Source/FilteringFunctions/arm_lms_init_q15.c ****  * -------------------------------------------------------------------- */
  11:./Libraries/CMSIS/DSP/Source/FilteringFunctions/arm_lms_init_q15.c **** /*
  12:./Libraries/CMSIS/DSP/Source/FilteringFunctions/arm_lms_init_q15.c ****  * Copyright (C) 2010-2019 ARM Limited or its affiliates. All rights reserved.
  13:./Libraries/CMSIS/DSP/Source/FilteringFunctions/arm_lms_init_q15.c ****  *
  14:./Libraries/CMSIS/DSP/Source/FilteringFunctions/arm_lms_init_q15.c ****  * SPDX-License-Identifier: Apache-2.0
  15:./Libraries/CMSIS/DSP/Source/FilteringFunctions/arm_lms_init_q15.c ****  *
  16:./Libraries/CMSIS/DSP/Source/FilteringFunctions/arm_lms_init_q15.c ****  * Licensed under the Apache License, Version 2.0 (the License); you may
  17:./Libraries/CMSIS/DSP/Source/FilteringFunctions/arm_lms_init_q15.c ****  * not use this file except in compliance with the License.
  18:./Libraries/CMSIS/DSP/Source/FilteringFunctions/arm_lms_init_q15.c ****  * You may obtain a copy of the License at
  19:./Libraries/CMSIS/DSP/Source/FilteringFunctions/arm_lms_init_q15.c ****  *
  20:./Libraries/CMSIS/DSP/Source/FilteringFunctions/arm_lms_init_q15.c ****  * www.apache.org/licenses/LICENSE-2.0
  21:./Libraries/CMSIS/DSP/Source/FilteringFunctions/arm_lms_init_q15.c ****  *
  22:./Libraries/CMSIS/DSP/Source/FilteringFunctions/arm_lms_init_q15.c ****  * Unless required by applicable law or agreed to in writing, software
  23:./Libraries/CMSIS/DSP/Source/FilteringFunctions/arm_lms_init_q15.c ****  * distributed under the License is distributed on an AS IS BASIS, WITHOUT
  24:./Libraries/CMSIS/DSP/Source/FilteringFunctions/arm_lms_init_q15.c ****  * WARRANTIES OR CONDITIONS OF ANY KIND, either express or implied.
  25:./Libraries/CMSIS/DSP/Source/FilteringFunctions/arm_lms_init_q15.c ****  * See the License for the specific language governing permissions and
  26:./Libraries/CMSIS/DSP/Source/FilteringFunctions/arm_lms_init_q15.c ****  * limitations under the License.
  27:./Libraries/CMSIS/DSP/Source/FilteringFunctions/arm_lms_init_q15.c ****  */
  28:./Libraries/CMSIS/DSP/Source/FilteringFunctions/arm_lms_init_q15.c **** 
  29:./Libraries/CMSIS/DSP/Source/FilteringFunctions/arm_lms_init_q15.c **** #include "arm_math.h"
  30:./Libraries/CMSIS/DSP/Source/FilteringFunctions/arm_lms_init_q15.c **** 
  31:./Libraries/CMSIS/DSP/Source/FilteringFunctions/arm_lms_init_q15.c **** /**
ARM GAS  /tmp/ccTCVnMZ.s 			page 2


  32:./Libraries/CMSIS/DSP/Source/FilteringFunctions/arm_lms_init_q15.c ****   @ingroup groupFilters
  33:./Libraries/CMSIS/DSP/Source/FilteringFunctions/arm_lms_init_q15.c ****  */
  34:./Libraries/CMSIS/DSP/Source/FilteringFunctions/arm_lms_init_q15.c **** 
  35:./Libraries/CMSIS/DSP/Source/FilteringFunctions/arm_lms_init_q15.c **** /**
  36:./Libraries/CMSIS/DSP/Source/FilteringFunctions/arm_lms_init_q15.c ****   @addtogroup LMS
  37:./Libraries/CMSIS/DSP/Source/FilteringFunctions/arm_lms_init_q15.c ****   @{
  38:./Libraries/CMSIS/DSP/Source/FilteringFunctions/arm_lms_init_q15.c ****  */
  39:./Libraries/CMSIS/DSP/Source/FilteringFunctions/arm_lms_init_q15.c **** 
  40:./Libraries/CMSIS/DSP/Source/FilteringFunctions/arm_lms_init_q15.c **** /**
  41:./Libraries/CMSIS/DSP/Source/FilteringFunctions/arm_lms_init_q15.c ****   @brief         Initialization function for the Q15 LMS filter.
  42:./Libraries/CMSIS/DSP/Source/FilteringFunctions/arm_lms_init_q15.c ****   @param[in]     S          points to an instance of the Q15 LMS filter structure.
  43:./Libraries/CMSIS/DSP/Source/FilteringFunctions/arm_lms_init_q15.c ****   @param[in]     numTaps    number of filter coefficients.
  44:./Libraries/CMSIS/DSP/Source/FilteringFunctions/arm_lms_init_q15.c ****   @param[in]     pCoeffs    points to coefficient buffer.
  45:./Libraries/CMSIS/DSP/Source/FilteringFunctions/arm_lms_init_q15.c ****   @param[in]     pState     points to state buffer.
  46:./Libraries/CMSIS/DSP/Source/FilteringFunctions/arm_lms_init_q15.c ****   @param[in]     mu         step size that controls filter coefficient updates.
  47:./Libraries/CMSIS/DSP/Source/FilteringFunctions/arm_lms_init_q15.c ****   @param[in]     blockSize  number of samples to process.
  48:./Libraries/CMSIS/DSP/Source/FilteringFunctions/arm_lms_init_q15.c ****   @param[in]     postShift  bit shift applied to coefficients.
  49:./Libraries/CMSIS/DSP/Source/FilteringFunctions/arm_lms_init_q15.c ****   @return        none
  50:./Libraries/CMSIS/DSP/Source/FilteringFunctions/arm_lms_init_q15.c **** 
  51:./Libraries/CMSIS/DSP/Source/FilteringFunctions/arm_lms_init_q15.c ****   @par           Details
  52:./Libraries/CMSIS/DSP/Source/FilteringFunctions/arm_lms_init_q15.c ****                    <code>pCoeffs</code> points to the array of filter coefficients stored in time r
  53:./Libraries/CMSIS/DSP/Source/FilteringFunctions/arm_lms_init_q15.c ****   <pre>
  54:./Libraries/CMSIS/DSP/Source/FilteringFunctions/arm_lms_init_q15.c ****      {b[numTaps-1], b[numTaps-2], b[N-2], ..., b[1], b[0]}
  55:./Libraries/CMSIS/DSP/Source/FilteringFunctions/arm_lms_init_q15.c ****   </pre>
  56:./Libraries/CMSIS/DSP/Source/FilteringFunctions/arm_lms_init_q15.c ****                    The initial filter coefficients serve as a starting point for the adaptive filte
  57:./Libraries/CMSIS/DSP/Source/FilteringFunctions/arm_lms_init_q15.c ****                    <code>pState</code> points to the array of state variables and size of array is
  58:./Libraries/CMSIS/DSP/Source/FilteringFunctions/arm_lms_init_q15.c ****                    <code>numTaps+blockSize-1</code> samples, where <code>blockSize</code> is the nu
  59:./Libraries/CMSIS/DSP/Source/FilteringFunctions/arm_lms_init_q15.c ****                    input samples processed by each call to <code>arm_lms_q15()</code>.
  60:./Libraries/CMSIS/DSP/Source/FilteringFunctions/arm_lms_init_q15.c ****  */
  61:./Libraries/CMSIS/DSP/Source/FilteringFunctions/arm_lms_init_q15.c **** 
  62:./Libraries/CMSIS/DSP/Source/FilteringFunctions/arm_lms_init_q15.c **** void arm_lms_init_q15(
  63:./Libraries/CMSIS/DSP/Source/FilteringFunctions/arm_lms_init_q15.c ****   arm_lms_instance_q15 * S,
  64:./Libraries/CMSIS/DSP/Source/FilteringFunctions/arm_lms_init_q15.c ****   uint16_t numTaps,
  65:./Libraries/CMSIS/DSP/Source/FilteringFunctions/arm_lms_init_q15.c ****   q15_t * pCoeffs,
  66:./Libraries/CMSIS/DSP/Source/FilteringFunctions/arm_lms_init_q15.c ****   q15_t * pState,
  67:./Libraries/CMSIS/DSP/Source/FilteringFunctions/arm_lms_init_q15.c ****   q15_t mu,
  68:./Libraries/CMSIS/DSP/Source/FilteringFunctions/arm_lms_init_q15.c ****   uint32_t blockSize,
  69:./Libraries/CMSIS/DSP/Source/FilteringFunctions/arm_lms_init_q15.c ****   uint32_t postShift)
  70:./Libraries/CMSIS/DSP/Source/FilteringFunctions/arm_lms_init_q15.c **** {
  28              		.loc 1 70 1
  29              		.cfi_startproc
  30              		@ args = 12, pretend = 0, frame = 16
  31              		@ frame_needed = 1, uses_anonymous_args = 0
  32 0000 80B5     		push	{r7, lr}
  33              	.LCFI0:
  34              		.cfi_def_cfa_offset 8
  35              		.cfi_offset 7, -8
  36              		.cfi_offset 14, -4
  37 0002 84B0     		sub	sp, sp, #16
  38              	.LCFI1:
  39              		.cfi_def_cfa_offset 24
  40 0004 00AF     		add	r7, sp, #0
  41              	.LCFI2:
  42              		.cfi_def_cfa_register 7
  43 0006 F860     		str	r0, [r7, #12]
  44 0008 7A60     		str	r2, [r7, #4]
  45 000a 3B60     		str	r3, [r7]
ARM GAS  /tmp/ccTCVnMZ.s 			page 3


  46 000c 0B46     		mov	r3, r1	@ movhi
  47 000e 7B81     		strh	r3, [r7, #10]	@ movhi
  71:./Libraries/CMSIS/DSP/Source/FilteringFunctions/arm_lms_init_q15.c ****   /* Assign filter taps */
  72:./Libraries/CMSIS/DSP/Source/FilteringFunctions/arm_lms_init_q15.c ****   S->numTaps = numTaps;
  48              		.loc 1 72 14
  49 0010 FB68     		ldr	r3, [r7, #12]
  50 0012 7A89     		ldrh	r2, [r7, #10]	@ movhi
  51 0014 1A80     		strh	r2, [r3]	@ movhi
  73:./Libraries/CMSIS/DSP/Source/FilteringFunctions/arm_lms_init_q15.c **** 
  74:./Libraries/CMSIS/DSP/Source/FilteringFunctions/arm_lms_init_q15.c ****   /* Assign coefficient pointer */
  75:./Libraries/CMSIS/DSP/Source/FilteringFunctions/arm_lms_init_q15.c ****   S->pCoeffs = pCoeffs;
  52              		.loc 1 75 14
  53 0016 FB68     		ldr	r3, [r7, #12]
  54 0018 7A68     		ldr	r2, [r7, #4]
  55 001a 9A60     		str	r2, [r3, #8]
  76:./Libraries/CMSIS/DSP/Source/FilteringFunctions/arm_lms_init_q15.c **** 
  77:./Libraries/CMSIS/DSP/Source/FilteringFunctions/arm_lms_init_q15.c ****   /* Clear state buffer and size is always blockSize + numTaps - 1 */
  78:./Libraries/CMSIS/DSP/Source/FilteringFunctions/arm_lms_init_q15.c ****   memset(pState, 0, (numTaps + (blockSize - 1U)) * sizeof(q15_t));
  56              		.loc 1 78 30
  57 001c 7A89     		ldrh	r2, [r7, #10]
  58 001e FB69     		ldr	r3, [r7, #28]
  59 0020 1344     		add	r3, r3, r2
  60 0022 013B     		subs	r3, r3, #1
  61              		.loc 1 78 50
  62 0024 5B00     		lsls	r3, r3, #1
  63              		.loc 1 78 3
  64 0026 1A46     		mov	r2, r3
  65 0028 0021     		movs	r1, #0
  66 002a 3868     		ldr	r0, [r7]
  67 002c FFF7FEFF 		bl	memset
  79:./Libraries/CMSIS/DSP/Source/FilteringFunctions/arm_lms_init_q15.c **** 
  80:./Libraries/CMSIS/DSP/Source/FilteringFunctions/arm_lms_init_q15.c ****   /* Assign state pointer */
  81:./Libraries/CMSIS/DSP/Source/FilteringFunctions/arm_lms_init_q15.c ****   S->pState = pState;
  68              		.loc 1 81 13
  69 0030 FB68     		ldr	r3, [r7, #12]
  70 0032 3A68     		ldr	r2, [r7]
  71 0034 5A60     		str	r2, [r3, #4]
  82:./Libraries/CMSIS/DSP/Source/FilteringFunctions/arm_lms_init_q15.c **** 
  83:./Libraries/CMSIS/DSP/Source/FilteringFunctions/arm_lms_init_q15.c ****   /* Assign Step size value */
  84:./Libraries/CMSIS/DSP/Source/FilteringFunctions/arm_lms_init_q15.c ****   S->mu = mu;
  72              		.loc 1 84 9
  73 0036 FB68     		ldr	r3, [r7, #12]
  74 0038 3A8B     		ldrh	r2, [r7, #24]	@ movhi
  75 003a 9A81     		strh	r2, [r3, #12]	@ movhi
  85:./Libraries/CMSIS/DSP/Source/FilteringFunctions/arm_lms_init_q15.c **** 
  86:./Libraries/CMSIS/DSP/Source/FilteringFunctions/arm_lms_init_q15.c ****   /* Assign postShift value to be applied */
  87:./Libraries/CMSIS/DSP/Source/FilteringFunctions/arm_lms_init_q15.c ****   S->postShift = postShift;
  76              		.loc 1 87 16
  77 003c FB68     		ldr	r3, [r7, #12]
  78 003e 3A6A     		ldr	r2, [r7, #32]
  79 0040 1A61     		str	r2, [r3, #16]
  88:./Libraries/CMSIS/DSP/Source/FilteringFunctions/arm_lms_init_q15.c **** }
  80              		.loc 1 88 1
  81 0042 00BF     		nop
  82 0044 1037     		adds	r7, r7, #16
  83              	.LCFI3:
  84              		.cfi_def_cfa_offset 8
ARM GAS  /tmp/ccTCVnMZ.s 			page 4


  85 0046 BD46     		mov	sp, r7
  86              	.LCFI4:
  87              		.cfi_def_cfa_register 13
  88              		@ sp needed
  89 0048 80BD     		pop	{r7, pc}
  90              		.cfi_endproc
  91              	.LFE145:
  93              		.text
  94              	.Letext0:
  95              		.file 2 "/usr/lib/gcc/arm-none-eabi/9.2.1/include/stdint.h"
  96              		.file 3 "/usr/lib/gcc/arm-none-eabi/9.2.1/include/stddef.h"
  97              		.file 4 "/usr/include/newlib/sys/_types.h"
  98              		.file 5 "/usr/include/newlib/sys/reent.h"
  99              		.file 6 "/usr/include/newlib/sys/lock.h"
 100              		.file 7 "/usr/include/newlib/math.h"
 101              		.file 8 "./Libraries/CMSIS/DSP/Include/arm_math.h"
ARM GAS  /tmp/ccTCVnMZ.s 			page 5

