ARM GAS  /tmp/ccAYyziA.s 			page 1


   1              		.cpu cortex-m7
   2              		.eabi_attribute 28, 1
   3              		.eabi_attribute 20, 1
   4              		.eabi_attribute 21, 1
   5              		.eabi_attribute 23, 3
   6              		.eabi_attribute 24, 1
   7              		.eabi_attribute 25, 1
   8              		.eabi_attribute 26, 1
   9              		.eabi_attribute 30, 6
  10              		.eabi_attribute 34, 1
  11              		.eabi_attribute 18, 4
  12              		.file	"arm_cfft_radix2_f32.c"
  13              		.text
  14              	.Ltext0:
  15              		.cfi_sections	.debug_frame
  16              		.section	.text.arm_cfft_radix2_f32,"ax",%progbits
  17              		.align	1
  18              		.global	arm_cfft_radix2_f32
  19              		.arch armv7e-m
  20              		.syntax unified
  21              		.thumb
  22              		.thumb_func
  23              		.fpu fpv5-d16
  25              	arm_cfft_radix2_f32:
  26              	.LFB145:
  27              		.file 1 "./Libraries/CMSIS/DSP/Source/TransformFunctions/arm_cfft_radix2_f32.c"
   1:./Libraries/CMSIS/DSP/Source/TransformFunctions/arm_cfft_radix2_f32.c **** /* ----------------------------------------------------------------------
   2:./Libraries/CMSIS/DSP/Source/TransformFunctions/arm_cfft_radix2_f32.c ****  * Project:      CMSIS DSP Library
   3:./Libraries/CMSIS/DSP/Source/TransformFunctions/arm_cfft_radix2_f32.c ****  * Title:        arm_cfft_radix2_f32.c
   4:./Libraries/CMSIS/DSP/Source/TransformFunctions/arm_cfft_radix2_f32.c ****  * Description:  Radix-2 Decimation in Frequency CFFT & CIFFT Floating point processing function
   5:./Libraries/CMSIS/DSP/Source/TransformFunctions/arm_cfft_radix2_f32.c ****  *
   6:./Libraries/CMSIS/DSP/Source/TransformFunctions/arm_cfft_radix2_f32.c ****  * $Date:        18. March 2019
   7:./Libraries/CMSIS/DSP/Source/TransformFunctions/arm_cfft_radix2_f32.c ****  * $Revision:    V1.6.0
   8:./Libraries/CMSIS/DSP/Source/TransformFunctions/arm_cfft_radix2_f32.c ****  *
   9:./Libraries/CMSIS/DSP/Source/TransformFunctions/arm_cfft_radix2_f32.c ****  * Target Processor: Cortex-M cores
  10:./Libraries/CMSIS/DSP/Source/TransformFunctions/arm_cfft_radix2_f32.c ****  * -------------------------------------------------------------------- */
  11:./Libraries/CMSIS/DSP/Source/TransformFunctions/arm_cfft_radix2_f32.c **** /*
  12:./Libraries/CMSIS/DSP/Source/TransformFunctions/arm_cfft_radix2_f32.c ****  * Copyright (C) 2010-2019 ARM Limited or its affiliates. All rights reserved.
  13:./Libraries/CMSIS/DSP/Source/TransformFunctions/arm_cfft_radix2_f32.c ****  *
  14:./Libraries/CMSIS/DSP/Source/TransformFunctions/arm_cfft_radix2_f32.c ****  * SPDX-License-Identifier: Apache-2.0
  15:./Libraries/CMSIS/DSP/Source/TransformFunctions/arm_cfft_radix2_f32.c ****  *
  16:./Libraries/CMSIS/DSP/Source/TransformFunctions/arm_cfft_radix2_f32.c ****  * Licensed under the Apache License, Version 2.0 (the License); you may
  17:./Libraries/CMSIS/DSP/Source/TransformFunctions/arm_cfft_radix2_f32.c ****  * not use this file except in compliance with the License.
  18:./Libraries/CMSIS/DSP/Source/TransformFunctions/arm_cfft_radix2_f32.c ****  * You may obtain a copy of the License at
  19:./Libraries/CMSIS/DSP/Source/TransformFunctions/arm_cfft_radix2_f32.c ****  *
  20:./Libraries/CMSIS/DSP/Source/TransformFunctions/arm_cfft_radix2_f32.c ****  * www.apache.org/licenses/LICENSE-2.0
  21:./Libraries/CMSIS/DSP/Source/TransformFunctions/arm_cfft_radix2_f32.c ****  *
  22:./Libraries/CMSIS/DSP/Source/TransformFunctions/arm_cfft_radix2_f32.c ****  * Unless required by applicable law or agreed to in writing, software
  23:./Libraries/CMSIS/DSP/Source/TransformFunctions/arm_cfft_radix2_f32.c ****  * distributed under the License is distributed on an AS IS BASIS, WITHOUT
  24:./Libraries/CMSIS/DSP/Source/TransformFunctions/arm_cfft_radix2_f32.c ****  * WARRANTIES OR CONDITIONS OF ANY KIND, either express or implied.
  25:./Libraries/CMSIS/DSP/Source/TransformFunctions/arm_cfft_radix2_f32.c ****  * See the License for the specific language governing permissions and
  26:./Libraries/CMSIS/DSP/Source/TransformFunctions/arm_cfft_radix2_f32.c ****  * limitations under the License.
  27:./Libraries/CMSIS/DSP/Source/TransformFunctions/arm_cfft_radix2_f32.c ****  */
  28:./Libraries/CMSIS/DSP/Source/TransformFunctions/arm_cfft_radix2_f32.c **** 
  29:./Libraries/CMSIS/DSP/Source/TransformFunctions/arm_cfft_radix2_f32.c **** #include "arm_math.h"
  30:./Libraries/CMSIS/DSP/Source/TransformFunctions/arm_cfft_radix2_f32.c **** 
  31:./Libraries/CMSIS/DSP/Source/TransformFunctions/arm_cfft_radix2_f32.c **** void arm_radix2_butterfly_f32(
ARM GAS  /tmp/ccAYyziA.s 			page 2


  32:./Libraries/CMSIS/DSP/Source/TransformFunctions/arm_cfft_radix2_f32.c ****         float32_t * pSrc,
  33:./Libraries/CMSIS/DSP/Source/TransformFunctions/arm_cfft_radix2_f32.c ****         uint32_t fftLen,
  34:./Libraries/CMSIS/DSP/Source/TransformFunctions/arm_cfft_radix2_f32.c ****   const float32_t * pCoef,
  35:./Libraries/CMSIS/DSP/Source/TransformFunctions/arm_cfft_radix2_f32.c ****         uint16_t twidCoefModifier);
  36:./Libraries/CMSIS/DSP/Source/TransformFunctions/arm_cfft_radix2_f32.c **** 
  37:./Libraries/CMSIS/DSP/Source/TransformFunctions/arm_cfft_radix2_f32.c **** void arm_radix2_butterfly_inverse_f32(
  38:./Libraries/CMSIS/DSP/Source/TransformFunctions/arm_cfft_radix2_f32.c ****         float32_t * pSrc,
  39:./Libraries/CMSIS/DSP/Source/TransformFunctions/arm_cfft_radix2_f32.c ****         uint32_t fftLen,
  40:./Libraries/CMSIS/DSP/Source/TransformFunctions/arm_cfft_radix2_f32.c ****   const float32_t * pCoef,
  41:./Libraries/CMSIS/DSP/Source/TransformFunctions/arm_cfft_radix2_f32.c ****         uint16_t twidCoefModifier,
  42:./Libraries/CMSIS/DSP/Source/TransformFunctions/arm_cfft_radix2_f32.c ****         float32_t onebyfftLen);
  43:./Libraries/CMSIS/DSP/Source/TransformFunctions/arm_cfft_radix2_f32.c **** 
  44:./Libraries/CMSIS/DSP/Source/TransformFunctions/arm_cfft_radix2_f32.c **** extern void arm_bitreversal_f32(
  45:./Libraries/CMSIS/DSP/Source/TransformFunctions/arm_cfft_radix2_f32.c ****         float32_t * pSrc,
  46:./Libraries/CMSIS/DSP/Source/TransformFunctions/arm_cfft_radix2_f32.c ****         uint16_t fftSize,
  47:./Libraries/CMSIS/DSP/Source/TransformFunctions/arm_cfft_radix2_f32.c ****         uint16_t bitRevFactor,
  48:./Libraries/CMSIS/DSP/Source/TransformFunctions/arm_cfft_radix2_f32.c ****   const uint16_t * pBitRevTab);
  49:./Libraries/CMSIS/DSP/Source/TransformFunctions/arm_cfft_radix2_f32.c **** 
  50:./Libraries/CMSIS/DSP/Source/TransformFunctions/arm_cfft_radix2_f32.c **** /**
  51:./Libraries/CMSIS/DSP/Source/TransformFunctions/arm_cfft_radix2_f32.c ****   @ingroup groupTransforms
  52:./Libraries/CMSIS/DSP/Source/TransformFunctions/arm_cfft_radix2_f32.c ****  */
  53:./Libraries/CMSIS/DSP/Source/TransformFunctions/arm_cfft_radix2_f32.c **** 
  54:./Libraries/CMSIS/DSP/Source/TransformFunctions/arm_cfft_radix2_f32.c **** /**
  55:./Libraries/CMSIS/DSP/Source/TransformFunctions/arm_cfft_radix2_f32.c ****   @addtogroup ComplexFFT
  56:./Libraries/CMSIS/DSP/Source/TransformFunctions/arm_cfft_radix2_f32.c ****   @{
  57:./Libraries/CMSIS/DSP/Source/TransformFunctions/arm_cfft_radix2_f32.c ****  */
  58:./Libraries/CMSIS/DSP/Source/TransformFunctions/arm_cfft_radix2_f32.c **** 
  59:./Libraries/CMSIS/DSP/Source/TransformFunctions/arm_cfft_radix2_f32.c **** /**
  60:./Libraries/CMSIS/DSP/Source/TransformFunctions/arm_cfft_radix2_f32.c ****   @brief         Radix-2 CFFT/CIFFT.
  61:./Libraries/CMSIS/DSP/Source/TransformFunctions/arm_cfft_radix2_f32.c ****   @deprecated    Do not use this function. It has been superseded by \ref arm_cfft_f32 and will be 
  62:./Libraries/CMSIS/DSP/Source/TransformFunctions/arm_cfft_radix2_f32.c ****   @param[in]     S    points to an instance of the floating-point Radix-2 CFFT/CIFFT structure
  63:./Libraries/CMSIS/DSP/Source/TransformFunctions/arm_cfft_radix2_f32.c ****   @param[in,out] pSrc points to the complex data buffer of size <code>2*fftLen</code>. Processing o
  64:./Libraries/CMSIS/DSP/Source/TransformFunctions/arm_cfft_radix2_f32.c ****   @return        none
  65:./Libraries/CMSIS/DSP/Source/TransformFunctions/arm_cfft_radix2_f32.c ****  */
  66:./Libraries/CMSIS/DSP/Source/TransformFunctions/arm_cfft_radix2_f32.c **** 
  67:./Libraries/CMSIS/DSP/Source/TransformFunctions/arm_cfft_radix2_f32.c **** void arm_cfft_radix2_f32(
  68:./Libraries/CMSIS/DSP/Source/TransformFunctions/arm_cfft_radix2_f32.c **** const arm_cfft_radix2_instance_f32 * S,
  69:./Libraries/CMSIS/DSP/Source/TransformFunctions/arm_cfft_radix2_f32.c ****       float32_t * pSrc)
  70:./Libraries/CMSIS/DSP/Source/TransformFunctions/arm_cfft_radix2_f32.c **** {
  28              		.loc 1 70 1
  29              		.cfi_startproc
  30              		@ args = 0, pretend = 0, frame = 8
  31              		@ frame_needed = 1, uses_anonymous_args = 0
  32 0000 80B5     		push	{r7, lr}
  33              	.LCFI0:
  34              		.cfi_def_cfa_offset 8
  35              		.cfi_offset 7, -8
  36              		.cfi_offset 14, -4
  37 0002 82B0     		sub	sp, sp, #8
  38              	.LCFI1:
  39              		.cfi_def_cfa_offset 16
  40 0004 00AF     		add	r7, sp, #0
  41              	.LCFI2:
  42              		.cfi_def_cfa_register 7
  43 0006 7860     		str	r0, [r7, #4]
  44 0008 3960     		str	r1, [r7]
  71:./Libraries/CMSIS/DSP/Source/TransformFunctions/arm_cfft_radix2_f32.c **** 
ARM GAS  /tmp/ccAYyziA.s 			page 3


  72:./Libraries/CMSIS/DSP/Source/TransformFunctions/arm_cfft_radix2_f32.c ****    if (S->ifftFlag == 1U)
  45              		.loc 1 72 9
  46 000a 7B68     		ldr	r3, [r7, #4]
  47 000c 9B78     		ldrb	r3, [r3, #2]	@ zero_extendqisi2
  48              		.loc 1 72 7
  49 000e 012B     		cmp	r3, #1
  50 0010 11D1     		bne	.L2
  73:./Libraries/CMSIS/DSP/Source/TransformFunctions/arm_cfft_radix2_f32.c ****    {
  74:./Libraries/CMSIS/DSP/Source/TransformFunctions/arm_cfft_radix2_f32.c ****       /* Complex IFFT radix-2 */
  75:./Libraries/CMSIS/DSP/Source/TransformFunctions/arm_cfft_radix2_f32.c ****       arm_radix2_butterfly_inverse_f32(pSrc, S->fftLen, S->pTwiddle,
  51              		.loc 1 75 47
  52 0012 7B68     		ldr	r3, [r7, #4]
  53 0014 1B88     		ldrh	r3, [r3]
  54              		.loc 1 75 7
  55 0016 1846     		mov	r0, r3
  56 0018 7B68     		ldr	r3, [r7, #4]
  57 001a 5A68     		ldr	r2, [r3, #4]
  58 001c 7B68     		ldr	r3, [r7, #4]
  59 001e 9989     		ldrh	r1, [r3, #12]
  60 0020 7B68     		ldr	r3, [r7, #4]
  61 0022 D3ED047A 		vldr.32	s15, [r3, #16]
  62 0026 B0EE670A 		vmov.f32	s0, s15
  63 002a 0B46     		mov	r3, r1
  64 002c 0146     		mov	r1, r0
  65 002e 3868     		ldr	r0, [r7]
  66 0030 FFF7FEFF 		bl	arm_radix2_butterfly_inverse_f32
  67 0034 09E0     		b	.L3
  68              	.L2:
  76:./Libraries/CMSIS/DSP/Source/TransformFunctions/arm_cfft_radix2_f32.c ****       S->twidCoefModifier, S->onebyfftLen);
  77:./Libraries/CMSIS/DSP/Source/TransformFunctions/arm_cfft_radix2_f32.c ****    }
  78:./Libraries/CMSIS/DSP/Source/TransformFunctions/arm_cfft_radix2_f32.c ****    else
  79:./Libraries/CMSIS/DSP/Source/TransformFunctions/arm_cfft_radix2_f32.c ****    {
  80:./Libraries/CMSIS/DSP/Source/TransformFunctions/arm_cfft_radix2_f32.c ****       /* Complex FFT radix-2 */
  81:./Libraries/CMSIS/DSP/Source/TransformFunctions/arm_cfft_radix2_f32.c ****       arm_radix2_butterfly_f32(pSrc, S->fftLen, S->pTwiddle,
  69              		.loc 1 81 39
  70 0036 7B68     		ldr	r3, [r7, #4]
  71 0038 1B88     		ldrh	r3, [r3]
  72              		.loc 1 81 7
  73 003a 1946     		mov	r1, r3
  74 003c 7B68     		ldr	r3, [r7, #4]
  75 003e 5A68     		ldr	r2, [r3, #4]
  76 0040 7B68     		ldr	r3, [r7, #4]
  77 0042 9B89     		ldrh	r3, [r3, #12]
  78 0044 3868     		ldr	r0, [r7]
  79 0046 FFF7FEFF 		bl	arm_radix2_butterfly_f32
  80              	.L3:
  82:./Libraries/CMSIS/DSP/Source/TransformFunctions/arm_cfft_radix2_f32.c ****       S->twidCoefModifier);
  83:./Libraries/CMSIS/DSP/Source/TransformFunctions/arm_cfft_radix2_f32.c ****    }
  84:./Libraries/CMSIS/DSP/Source/TransformFunctions/arm_cfft_radix2_f32.c **** 
  85:./Libraries/CMSIS/DSP/Source/TransformFunctions/arm_cfft_radix2_f32.c ****    if (S->bitReverseFlag == 1U)
  81              		.loc 1 85 9
  82 004a 7B68     		ldr	r3, [r7, #4]
  83 004c DB78     		ldrb	r3, [r3, #3]	@ zero_extendqisi2
  84              		.loc 1 85 7
  85 004e 012B     		cmp	r3, #1
  86 0050 08D1     		bne	.L5
  86:./Libraries/CMSIS/DSP/Source/TransformFunctions/arm_cfft_radix2_f32.c ****    {
ARM GAS  /tmp/ccAYyziA.s 			page 4


  87:./Libraries/CMSIS/DSP/Source/TransformFunctions/arm_cfft_radix2_f32.c ****       /* Bit Reversal */
  88:./Libraries/CMSIS/DSP/Source/TransformFunctions/arm_cfft_radix2_f32.c ****       arm_bitreversal_f32(pSrc, S->fftLen, S->bitRevFactor, S->pBitRevTable);
  87              		.loc 1 88 7
  88 0052 7B68     		ldr	r3, [r7, #4]
  89 0054 1988     		ldrh	r1, [r3]
  90 0056 7B68     		ldr	r3, [r7, #4]
  91 0058 DA89     		ldrh	r2, [r3, #14]
  92 005a 7B68     		ldr	r3, [r7, #4]
  93 005c 9B68     		ldr	r3, [r3, #8]
  94 005e 3868     		ldr	r0, [r7]
  95 0060 FFF7FEFF 		bl	arm_bitreversal_f32
  96              	.L5:
  89:./Libraries/CMSIS/DSP/Source/TransformFunctions/arm_cfft_radix2_f32.c ****    }
  90:./Libraries/CMSIS/DSP/Source/TransformFunctions/arm_cfft_radix2_f32.c **** 
  91:./Libraries/CMSIS/DSP/Source/TransformFunctions/arm_cfft_radix2_f32.c **** }
  97              		.loc 1 91 1
  98 0064 00BF     		nop
  99 0066 0837     		adds	r7, r7, #8
 100              	.LCFI3:
 101              		.cfi_def_cfa_offset 8
 102 0068 BD46     		mov	sp, r7
 103              	.LCFI4:
 104              		.cfi_def_cfa_register 13
 105              		@ sp needed
 106 006a 80BD     		pop	{r7, pc}
 107              		.cfi_endproc
 108              	.LFE145:
 110              		.section	.text.arm_radix2_butterfly_f32,"ax",%progbits
 111              		.align	1
 112              		.global	arm_radix2_butterfly_f32
 113              		.syntax unified
 114              		.thumb
 115              		.thumb_func
 116              		.fpu fpv5-d16
 118              	arm_radix2_butterfly_f32:
 119              	.LFB146:
  92:./Libraries/CMSIS/DSP/Source/TransformFunctions/arm_cfft_radix2_f32.c **** 
  93:./Libraries/CMSIS/DSP/Source/TransformFunctions/arm_cfft_radix2_f32.c **** 
  94:./Libraries/CMSIS/DSP/Source/TransformFunctions/arm_cfft_radix2_f32.c **** /**
  95:./Libraries/CMSIS/DSP/Source/TransformFunctions/arm_cfft_radix2_f32.c ****   @} end of ComplexFFT group
  96:./Libraries/CMSIS/DSP/Source/TransformFunctions/arm_cfft_radix2_f32.c ****  */
  97:./Libraries/CMSIS/DSP/Source/TransformFunctions/arm_cfft_radix2_f32.c **** 
  98:./Libraries/CMSIS/DSP/Source/TransformFunctions/arm_cfft_radix2_f32.c **** 
  99:./Libraries/CMSIS/DSP/Source/TransformFunctions/arm_cfft_radix2_f32.c **** 
 100:./Libraries/CMSIS/DSP/Source/TransformFunctions/arm_cfft_radix2_f32.c **** /* ----------------------------------------------------------------------
 101:./Libraries/CMSIS/DSP/Source/TransformFunctions/arm_cfft_radix2_f32.c ****  ** Internal helper function used by the FFTs
 102:./Libraries/CMSIS/DSP/Source/TransformFunctions/arm_cfft_radix2_f32.c ****  ** ------------------------------------------------------------------- */
 103:./Libraries/CMSIS/DSP/Source/TransformFunctions/arm_cfft_radix2_f32.c **** 
 104:./Libraries/CMSIS/DSP/Source/TransformFunctions/arm_cfft_radix2_f32.c **** /**
 105:./Libraries/CMSIS/DSP/Source/TransformFunctions/arm_cfft_radix2_f32.c ****   brief  Core function for the floating-point CFFT butterfly process.
 106:./Libraries/CMSIS/DSP/Source/TransformFunctions/arm_cfft_radix2_f32.c ****   param[in,out] pSrc             points to in-place buffer of floating-point data type
 107:./Libraries/CMSIS/DSP/Source/TransformFunctions/arm_cfft_radix2_f32.c ****   param[in]     fftLen           length of the FFT
 108:./Libraries/CMSIS/DSP/Source/TransformFunctions/arm_cfft_radix2_f32.c ****   param[in]     pCoef            points to twiddle coefficient buffer
 109:./Libraries/CMSIS/DSP/Source/TransformFunctions/arm_cfft_radix2_f32.c ****   param[in]     twidCoefModifier twiddle coefficient modifier that supports different size FFTs wit
 110:./Libraries/CMSIS/DSP/Source/TransformFunctions/arm_cfft_radix2_f32.c ****   return        none
 111:./Libraries/CMSIS/DSP/Source/TransformFunctions/arm_cfft_radix2_f32.c ****  */
 112:./Libraries/CMSIS/DSP/Source/TransformFunctions/arm_cfft_radix2_f32.c **** 
ARM GAS  /tmp/ccAYyziA.s 			page 5


 113:./Libraries/CMSIS/DSP/Source/TransformFunctions/arm_cfft_radix2_f32.c **** void arm_radix2_butterfly_f32(
 114:./Libraries/CMSIS/DSP/Source/TransformFunctions/arm_cfft_radix2_f32.c ****         float32_t * pSrc,
 115:./Libraries/CMSIS/DSP/Source/TransformFunctions/arm_cfft_radix2_f32.c ****         uint32_t fftLen,
 116:./Libraries/CMSIS/DSP/Source/TransformFunctions/arm_cfft_radix2_f32.c ****   const float32_t * pCoef,
 117:./Libraries/CMSIS/DSP/Source/TransformFunctions/arm_cfft_radix2_f32.c ****         uint16_t twidCoefModifier)
 118:./Libraries/CMSIS/DSP/Source/TransformFunctions/arm_cfft_radix2_f32.c **** {
 120              		.loc 1 118 1
 121              		.cfi_startproc
 122              		@ args = 0, pretend = 0, frame = 88
 123              		@ frame_needed = 1, uses_anonymous_args = 0
 124              		@ link register save eliminated.
 125 0000 80B4     		push	{r7}
 126              	.LCFI5:
 127              		.cfi_def_cfa_offset 4
 128              		.cfi_offset 7, -4
 129 0002 97B0     		sub	sp, sp, #92
 130              	.LCFI6:
 131              		.cfi_def_cfa_offset 96
 132 0004 00AF     		add	r7, sp, #0
 133              	.LCFI7:
 134              		.cfi_def_cfa_register 7
 135 0006 F860     		str	r0, [r7, #12]
 136 0008 B960     		str	r1, [r7, #8]
 137 000a 7A60     		str	r2, [r7, #4]
 138 000c 7B80     		strh	r3, [r7, #2]	@ movhi
 119:./Libraries/CMSIS/DSP/Source/TransformFunctions/arm_cfft_radix2_f32.c **** 
 120:./Libraries/CMSIS/DSP/Source/TransformFunctions/arm_cfft_radix2_f32.c ****         uint32_t i, j, k, l;
 121:./Libraries/CMSIS/DSP/Source/TransformFunctions/arm_cfft_radix2_f32.c ****         uint32_t n1, n2, ia;
 122:./Libraries/CMSIS/DSP/Source/TransformFunctions/arm_cfft_radix2_f32.c ****         float32_t xt, yt, cosVal, sinVal;
 123:./Libraries/CMSIS/DSP/Source/TransformFunctions/arm_cfft_radix2_f32.c ****         float32_t p0, p1, p2, p3;
 124:./Libraries/CMSIS/DSP/Source/TransformFunctions/arm_cfft_radix2_f32.c ****         float32_t a0, a1;
 125:./Libraries/CMSIS/DSP/Source/TransformFunctions/arm_cfft_radix2_f32.c **** 
 126:./Libraries/CMSIS/DSP/Source/TransformFunctions/arm_cfft_radix2_f32.c **** #if defined (ARM_MATH_DSP)
 127:./Libraries/CMSIS/DSP/Source/TransformFunctions/arm_cfft_radix2_f32.c **** 
 128:./Libraries/CMSIS/DSP/Source/TransformFunctions/arm_cfft_radix2_f32.c ****    /*  Initializations for the first stage */
 129:./Libraries/CMSIS/DSP/Source/TransformFunctions/arm_cfft_radix2_f32.c ****    n2 = fftLen >> 1;
 139              		.loc 1 129 7
 140 000e BB68     		ldr	r3, [r7, #8]
 141 0010 5B08     		lsrs	r3, r3, #1
 142 0012 BB64     		str	r3, [r7, #72]
 130:./Libraries/CMSIS/DSP/Source/TransformFunctions/arm_cfft_radix2_f32.c ****    ia = 0;
 143              		.loc 1 130 7
 144 0014 0023     		movs	r3, #0
 145 0016 7B64     		str	r3, [r7, #68]
 131:./Libraries/CMSIS/DSP/Source/TransformFunctions/arm_cfft_radix2_f32.c ****    i = 0;
 146              		.loc 1 131 6
 147 0018 0023     		movs	r3, #0
 148 001a 7B65     		str	r3, [r7, #84]
 132:./Libraries/CMSIS/DSP/Source/TransformFunctions/arm_cfft_radix2_f32.c **** 
 133:./Libraries/CMSIS/DSP/Source/TransformFunctions/arm_cfft_radix2_f32.c ****    // loop for groups
 134:./Libraries/CMSIS/DSP/Source/TransformFunctions/arm_cfft_radix2_f32.c ****    for (k = n2; k > 0; k--)
 149              		.loc 1 134 11
 150 001c BB6C     		ldr	r3, [r7, #72]
 151 001e FB64     		str	r3, [r7, #76]
 152              		.loc 1 134 4
 153 0020 A4E0     		b	.L7
 154              	.L8:
ARM GAS  /tmp/ccAYyziA.s 			page 6


 135:./Libraries/CMSIS/DSP/Source/TransformFunctions/arm_cfft_radix2_f32.c ****    {
 136:./Libraries/CMSIS/DSP/Source/TransformFunctions/arm_cfft_radix2_f32.c ****       cosVal = pCoef[ia * 2];
 155              		.loc 1 136 21 discriminator 3
 156 0022 7B6C     		ldr	r3, [r7, #68]
 157 0024 DB00     		lsls	r3, r3, #3
 158 0026 7A68     		ldr	r2, [r7, #4]
 159 0028 1344     		add	r3, r3, r2
 160              		.loc 1 136 14 discriminator 3
 161 002a 1B68     		ldr	r3, [r3]	@ float
 162 002c FB62     		str	r3, [r7, #44]	@ float
 137:./Libraries/CMSIS/DSP/Source/TransformFunctions/arm_cfft_radix2_f32.c ****       sinVal = pCoef[(ia * 2) + 1];
 163              		.loc 1 137 21 discriminator 3
 164 002e 7B6C     		ldr	r3, [r7, #68]
 165 0030 DB00     		lsls	r3, r3, #3
 166 0032 0433     		adds	r3, r3, #4
 167 0034 7A68     		ldr	r2, [r7, #4]
 168 0036 1344     		add	r3, r3, r2
 169              		.loc 1 137 14 discriminator 3
 170 0038 1B68     		ldr	r3, [r3]	@ float
 171 003a BB62     		str	r3, [r7, #40]	@ float
 138:./Libraries/CMSIS/DSP/Source/TransformFunctions/arm_cfft_radix2_f32.c **** 
 139:./Libraries/CMSIS/DSP/Source/TransformFunctions/arm_cfft_radix2_f32.c ****       /*  Twiddle coefficients index modifier */
 140:./Libraries/CMSIS/DSP/Source/TransformFunctions/arm_cfft_radix2_f32.c ****       ia += twidCoefModifier;
 172              		.loc 1 140 10 discriminator 3
 173 003c 7B88     		ldrh	r3, [r7, #2]
 174 003e 7A6C     		ldr	r2, [r7, #68]
 175 0040 1344     		add	r3, r3, r2
 176 0042 7B64     		str	r3, [r7, #68]
 141:./Libraries/CMSIS/DSP/Source/TransformFunctions/arm_cfft_radix2_f32.c **** 
 142:./Libraries/CMSIS/DSP/Source/TransformFunctions/arm_cfft_radix2_f32.c ****       /*  index calculation for the input as, */
 143:./Libraries/CMSIS/DSP/Source/TransformFunctions/arm_cfft_radix2_f32.c ****       /*  pSrc[i + 0], pSrc[i + fftLen/1] */
 144:./Libraries/CMSIS/DSP/Source/TransformFunctions/arm_cfft_radix2_f32.c ****       l = i + n2;
 177              		.loc 1 144 9 discriminator 3
 178 0044 7A6D     		ldr	r2, [r7, #84]
 179 0046 BB6C     		ldr	r3, [r7, #72]
 180 0048 1344     		add	r3, r3, r2
 181 004a 7B62     		str	r3, [r7, #36]
 145:./Libraries/CMSIS/DSP/Source/TransformFunctions/arm_cfft_radix2_f32.c **** 
 146:./Libraries/CMSIS/DSP/Source/TransformFunctions/arm_cfft_radix2_f32.c ****       /*  Butterfly implementation */
 147:./Libraries/CMSIS/DSP/Source/TransformFunctions/arm_cfft_radix2_f32.c ****       a0 = pSrc[2 * i] + pSrc[2 * l];
 182              		.loc 1 147 16 discriminator 3
 183 004c 7B6D     		ldr	r3, [r7, #84]
 184 004e DB00     		lsls	r3, r3, #3
 185 0050 FA68     		ldr	r2, [r7, #12]
 186 0052 1344     		add	r3, r3, r2
 187 0054 93ED007A 		vldr.32	s14, [r3]
 188              		.loc 1 147 30 discriminator 3
 189 0058 7B6A     		ldr	r3, [r7, #36]
 190 005a DB00     		lsls	r3, r3, #3
 191 005c FA68     		ldr	r2, [r7, #12]
 192 005e 1344     		add	r3, r3, r2
 193 0060 D3ED007A 		vldr.32	s15, [r3]
 194              		.loc 1 147 10 discriminator 3
 195 0064 77EE277A 		vadd.f32	s15, s14, s15
 196 0068 C7ED107A 		vstr.32	s15, [r7, #64]
 148:./Libraries/CMSIS/DSP/Source/TransformFunctions/arm_cfft_radix2_f32.c ****       xt = pSrc[2 * i] - pSrc[2 * l];
 197              		.loc 1 148 16 discriminator 3
ARM GAS  /tmp/ccAYyziA.s 			page 7


 198 006c 7B6D     		ldr	r3, [r7, #84]
 199 006e DB00     		lsls	r3, r3, #3
 200 0070 FA68     		ldr	r2, [r7, #12]
 201 0072 1344     		add	r3, r3, r2
 202 0074 93ED007A 		vldr.32	s14, [r3]
 203              		.loc 1 148 30 discriminator 3
 204 0078 7B6A     		ldr	r3, [r7, #36]
 205 007a DB00     		lsls	r3, r3, #3
 206 007c FA68     		ldr	r2, [r7, #12]
 207 007e 1344     		add	r3, r3, r2
 208 0080 D3ED007A 		vldr.32	s15, [r3]
 209              		.loc 1 148 10 discriminator 3
 210 0084 77EE677A 		vsub.f32	s15, s14, s15
 211 0088 C7ED0F7A 		vstr.32	s15, [r7, #60]
 149:./Libraries/CMSIS/DSP/Source/TransformFunctions/arm_cfft_radix2_f32.c **** 
 150:./Libraries/CMSIS/DSP/Source/TransformFunctions/arm_cfft_radix2_f32.c ****       yt = pSrc[2 * i + 1] - pSrc[2 * l + 1];
 212              		.loc 1 150 16 discriminator 3
 213 008c 7B6D     		ldr	r3, [r7, #84]
 214 008e DB00     		lsls	r3, r3, #3
 215 0090 0433     		adds	r3, r3, #4
 216 0092 FA68     		ldr	r2, [r7, #12]
 217 0094 1344     		add	r3, r3, r2
 218 0096 93ED007A 		vldr.32	s14, [r3]
 219              		.loc 1 150 34 discriminator 3
 220 009a 7B6A     		ldr	r3, [r7, #36]
 221 009c DB00     		lsls	r3, r3, #3
 222 009e 0433     		adds	r3, r3, #4
 223 00a0 FA68     		ldr	r2, [r7, #12]
 224 00a2 1344     		add	r3, r3, r2
 225 00a4 D3ED007A 		vldr.32	s15, [r3]
 226              		.loc 1 150 10 discriminator 3
 227 00a8 77EE677A 		vsub.f32	s15, s14, s15
 228 00ac C7ED0E7A 		vstr.32	s15, [r7, #56]
 151:./Libraries/CMSIS/DSP/Source/TransformFunctions/arm_cfft_radix2_f32.c ****       a1 = pSrc[2 * l + 1] + pSrc[2 * i + 1];
 229              		.loc 1 151 16 discriminator 3
 230 00b0 7B6A     		ldr	r3, [r7, #36]
 231 00b2 DB00     		lsls	r3, r3, #3
 232 00b4 0433     		adds	r3, r3, #4
 233 00b6 FA68     		ldr	r2, [r7, #12]
 234 00b8 1344     		add	r3, r3, r2
 235 00ba 93ED007A 		vldr.32	s14, [r3]
 236              		.loc 1 151 34 discriminator 3
 237 00be 7B6D     		ldr	r3, [r7, #84]
 238 00c0 DB00     		lsls	r3, r3, #3
 239 00c2 0433     		adds	r3, r3, #4
 240 00c4 FA68     		ldr	r2, [r7, #12]
 241 00c6 1344     		add	r3, r3, r2
 242 00c8 D3ED007A 		vldr.32	s15, [r3]
 243              		.loc 1 151 10 discriminator 3
 244 00cc 77EE277A 		vadd.f32	s15, s14, s15
 245 00d0 C7ED0D7A 		vstr.32	s15, [r7, #52]
 152:./Libraries/CMSIS/DSP/Source/TransformFunctions/arm_cfft_radix2_f32.c **** 
 153:./Libraries/CMSIS/DSP/Source/TransformFunctions/arm_cfft_radix2_f32.c ****       p0 = xt * cosVal;
 246              		.loc 1 153 10 discriminator 3
 247 00d4 97ED0F7A 		vldr.32	s14, [r7, #60]
 248 00d8 D7ED0B7A 		vldr.32	s15, [r7, #44]
 249 00dc 67EE277A 		vmul.f32	s15, s14, s15
ARM GAS  /tmp/ccAYyziA.s 			page 8


 250 00e0 C7ED087A 		vstr.32	s15, [r7, #32]
 154:./Libraries/CMSIS/DSP/Source/TransformFunctions/arm_cfft_radix2_f32.c ****       p1 = yt * sinVal;
 251              		.loc 1 154 10 discriminator 3
 252 00e4 97ED0E7A 		vldr.32	s14, [r7, #56]
 253 00e8 D7ED0A7A 		vldr.32	s15, [r7, #40]
 254 00ec 67EE277A 		vmul.f32	s15, s14, s15
 255 00f0 C7ED077A 		vstr.32	s15, [r7, #28]
 155:./Libraries/CMSIS/DSP/Source/TransformFunctions/arm_cfft_radix2_f32.c ****       p2 = yt * cosVal;
 256              		.loc 1 155 10 discriminator 3
 257 00f4 97ED0E7A 		vldr.32	s14, [r7, #56]
 258 00f8 D7ED0B7A 		vldr.32	s15, [r7, #44]
 259 00fc 67EE277A 		vmul.f32	s15, s14, s15
 260 0100 C7ED067A 		vstr.32	s15, [r7, #24]
 156:./Libraries/CMSIS/DSP/Source/TransformFunctions/arm_cfft_radix2_f32.c ****       p3 = xt * sinVal;
 261              		.loc 1 156 10 discriminator 3
 262 0104 97ED0F7A 		vldr.32	s14, [r7, #60]
 263 0108 D7ED0A7A 		vldr.32	s15, [r7, #40]
 264 010c 67EE277A 		vmul.f32	s15, s14, s15
 265 0110 C7ED057A 		vstr.32	s15, [r7, #20]
 157:./Libraries/CMSIS/DSP/Source/TransformFunctions/arm_cfft_radix2_f32.c **** 
 158:./Libraries/CMSIS/DSP/Source/TransformFunctions/arm_cfft_radix2_f32.c ****       pSrc[2 * i]     = a0;
 266              		.loc 1 158 11 discriminator 3
 267 0114 7B6D     		ldr	r3, [r7, #84]
 268 0116 DB00     		lsls	r3, r3, #3
 269 0118 FA68     		ldr	r2, [r7, #12]
 270 011a 1344     		add	r3, r3, r2
 271              		.loc 1 158 23 discriminator 3
 272 011c 3A6C     		ldr	r2, [r7, #64]	@ float
 273 011e 1A60     		str	r2, [r3]	@ float
 159:./Libraries/CMSIS/DSP/Source/TransformFunctions/arm_cfft_radix2_f32.c ****       pSrc[2 * i + 1] = a1;
 274              		.loc 1 159 11 discriminator 3
 275 0120 7B6D     		ldr	r3, [r7, #84]
 276 0122 DB00     		lsls	r3, r3, #3
 277 0124 0433     		adds	r3, r3, #4
 278 0126 FA68     		ldr	r2, [r7, #12]
 279 0128 1344     		add	r3, r3, r2
 280              		.loc 1 159 23 discriminator 3
 281 012a 7A6B     		ldr	r2, [r7, #52]	@ float
 282 012c 1A60     		str	r2, [r3]	@ float
 160:./Libraries/CMSIS/DSP/Source/TransformFunctions/arm_cfft_radix2_f32.c **** 
 161:./Libraries/CMSIS/DSP/Source/TransformFunctions/arm_cfft_radix2_f32.c ****       pSrc[2 * l]     = p0 + p1;
 283              		.loc 1 161 11 discriminator 3
 284 012e 7B6A     		ldr	r3, [r7, #36]
 285 0130 DB00     		lsls	r3, r3, #3
 286 0132 FA68     		ldr	r2, [r7, #12]
 287 0134 1344     		add	r3, r3, r2
 288              		.loc 1 161 28 discriminator 3
 289 0136 97ED087A 		vldr.32	s14, [r7, #32]
 290 013a D7ED077A 		vldr.32	s15, [r7, #28]
 291 013e 77EE277A 		vadd.f32	s15, s14, s15
 292              		.loc 1 161 23 discriminator 3
 293 0142 C3ED007A 		vstr.32	s15, [r3]
 162:./Libraries/CMSIS/DSP/Source/TransformFunctions/arm_cfft_radix2_f32.c ****       pSrc[2 * l + 1] = p2 - p3;
 294              		.loc 1 162 11 discriminator 3
 295 0146 7B6A     		ldr	r3, [r7, #36]
 296 0148 DB00     		lsls	r3, r3, #3
 297 014a 0433     		adds	r3, r3, #4
ARM GAS  /tmp/ccAYyziA.s 			page 9


 298 014c FA68     		ldr	r2, [r7, #12]
 299 014e 1344     		add	r3, r3, r2
 300              		.loc 1 162 28 discriminator 3
 301 0150 97ED067A 		vldr.32	s14, [r7, #24]
 302 0154 D7ED057A 		vldr.32	s15, [r7, #20]
 303 0158 77EE677A 		vsub.f32	s15, s14, s15
 304              		.loc 1 162 23 discriminator 3
 305 015c C3ED007A 		vstr.32	s15, [r3]
 163:./Libraries/CMSIS/DSP/Source/TransformFunctions/arm_cfft_radix2_f32.c **** 
 164:./Libraries/CMSIS/DSP/Source/TransformFunctions/arm_cfft_radix2_f32.c ****       i++;
 306              		.loc 1 164 8 discriminator 3
 307 0160 7B6D     		ldr	r3, [r7, #84]
 308 0162 0133     		adds	r3, r3, #1
 309 0164 7B65     		str	r3, [r7, #84]
 134:./Libraries/CMSIS/DSP/Source/TransformFunctions/arm_cfft_radix2_f32.c ****    {
 310              		.loc 1 134 25 discriminator 3
 311 0166 FB6C     		ldr	r3, [r7, #76]
 312 0168 013B     		subs	r3, r3, #1
 313 016a FB64     		str	r3, [r7, #76]
 314              	.L7:
 134:./Libraries/CMSIS/DSP/Source/TransformFunctions/arm_cfft_radix2_f32.c ****    {
 315              		.loc 1 134 4 discriminator 1
 316 016c FB6C     		ldr	r3, [r7, #76]
 317 016e 002B     		cmp	r3, #0
 318 0170 7FF457AF 		bne	.L8
 165:./Libraries/CMSIS/DSP/Source/TransformFunctions/arm_cfft_radix2_f32.c ****    }                             // groups loop end
 166:./Libraries/CMSIS/DSP/Source/TransformFunctions/arm_cfft_radix2_f32.c **** 
 167:./Libraries/CMSIS/DSP/Source/TransformFunctions/arm_cfft_radix2_f32.c ****    twidCoefModifier <<= 1U;
 319              		.loc 1 167 21
 320 0174 7B88     		ldrh	r3, [r7, #2]	@ movhi
 321 0176 5B00     		lsls	r3, r3, #1
 322 0178 7B80     		strh	r3, [r7, #2]	@ movhi
 168:./Libraries/CMSIS/DSP/Source/TransformFunctions/arm_cfft_radix2_f32.c **** 
 169:./Libraries/CMSIS/DSP/Source/TransformFunctions/arm_cfft_radix2_f32.c ****    // loop for stage
 170:./Libraries/CMSIS/DSP/Source/TransformFunctions/arm_cfft_radix2_f32.c ****    for (k = n2; k > 2; k = k >> 1)
 323              		.loc 1 170 11
 324 017a BB6C     		ldr	r3, [r7, #72]
 325 017c FB64     		str	r3, [r7, #76]
 326              		.loc 1 170 4
 327 017e C0E0     		b	.L9
 328              	.L12:
 171:./Libraries/CMSIS/DSP/Source/TransformFunctions/arm_cfft_radix2_f32.c ****    {
 172:./Libraries/CMSIS/DSP/Source/TransformFunctions/arm_cfft_radix2_f32.c ****       n1 = n2;
 329              		.loc 1 172 10
 330 0180 BB6C     		ldr	r3, [r7, #72]
 331 0182 3B63     		str	r3, [r7, #48]
 173:./Libraries/CMSIS/DSP/Source/TransformFunctions/arm_cfft_radix2_f32.c ****       n2 = n2 >> 1;
 332              		.loc 1 173 10
 333 0184 BB6C     		ldr	r3, [r7, #72]
 334 0186 5B08     		lsrs	r3, r3, #1
 335 0188 BB64     		str	r3, [r7, #72]
 174:./Libraries/CMSIS/DSP/Source/TransformFunctions/arm_cfft_radix2_f32.c ****       ia = 0;
 336              		.loc 1 174 10
 337 018a 0023     		movs	r3, #0
 338 018c 7B64     		str	r3, [r7, #68]
 175:./Libraries/CMSIS/DSP/Source/TransformFunctions/arm_cfft_radix2_f32.c **** 
 176:./Libraries/CMSIS/DSP/Source/TransformFunctions/arm_cfft_radix2_f32.c ****       // loop for groups
ARM GAS  /tmp/ccAYyziA.s 			page 10


 177:./Libraries/CMSIS/DSP/Source/TransformFunctions/arm_cfft_radix2_f32.c ****       j = 0;
 339              		.loc 1 177 9
 340 018e 0023     		movs	r3, #0
 341 0190 3B65     		str	r3, [r7, #80]
 342              	.L11:
 178:./Libraries/CMSIS/DSP/Source/TransformFunctions/arm_cfft_radix2_f32.c ****       do
 179:./Libraries/CMSIS/DSP/Source/TransformFunctions/arm_cfft_radix2_f32.c ****       {
 180:./Libraries/CMSIS/DSP/Source/TransformFunctions/arm_cfft_radix2_f32.c ****          cosVal = pCoef[ia * 2];
 343              		.loc 1 180 24
 344 0192 7B6C     		ldr	r3, [r7, #68]
 345 0194 DB00     		lsls	r3, r3, #3
 346 0196 7A68     		ldr	r2, [r7, #4]
 347 0198 1344     		add	r3, r3, r2
 348              		.loc 1 180 17
 349 019a 1B68     		ldr	r3, [r3]	@ float
 350 019c FB62     		str	r3, [r7, #44]	@ float
 181:./Libraries/CMSIS/DSP/Source/TransformFunctions/arm_cfft_radix2_f32.c ****          sinVal = pCoef[(ia * 2) + 1];
 351              		.loc 1 181 24
 352 019e 7B6C     		ldr	r3, [r7, #68]
 353 01a0 DB00     		lsls	r3, r3, #3
 354 01a2 0433     		adds	r3, r3, #4
 355 01a4 7A68     		ldr	r2, [r7, #4]
 356 01a6 1344     		add	r3, r3, r2
 357              		.loc 1 181 17
 358 01a8 1B68     		ldr	r3, [r3]	@ float
 359 01aa BB62     		str	r3, [r7, #40]	@ float
 182:./Libraries/CMSIS/DSP/Source/TransformFunctions/arm_cfft_radix2_f32.c ****          ia += twidCoefModifier;
 360              		.loc 1 182 13
 361 01ac 7B88     		ldrh	r3, [r7, #2]
 362 01ae 7A6C     		ldr	r2, [r7, #68]
 363 01b0 1344     		add	r3, r3, r2
 364 01b2 7B64     		str	r3, [r7, #68]
 183:./Libraries/CMSIS/DSP/Source/TransformFunctions/arm_cfft_radix2_f32.c **** 
 184:./Libraries/CMSIS/DSP/Source/TransformFunctions/arm_cfft_radix2_f32.c ****          // loop for butterfly
 185:./Libraries/CMSIS/DSP/Source/TransformFunctions/arm_cfft_radix2_f32.c ****          i = j;
 365              		.loc 1 185 12
 366 01b4 3B6D     		ldr	r3, [r7, #80]
 367 01b6 7B65     		str	r3, [r7, #84]
 368              	.L10:
 186:./Libraries/CMSIS/DSP/Source/TransformFunctions/arm_cfft_radix2_f32.c ****          do
 187:./Libraries/CMSIS/DSP/Source/TransformFunctions/arm_cfft_radix2_f32.c ****          {
 188:./Libraries/CMSIS/DSP/Source/TransformFunctions/arm_cfft_radix2_f32.c ****             l = i + n2;
 369              		.loc 1 188 15 discriminator 1
 370 01b8 7A6D     		ldr	r2, [r7, #84]
 371 01ba BB6C     		ldr	r3, [r7, #72]
 372 01bc 1344     		add	r3, r3, r2
 373 01be 7B62     		str	r3, [r7, #36]
 189:./Libraries/CMSIS/DSP/Source/TransformFunctions/arm_cfft_radix2_f32.c ****             a0 = pSrc[2 * i] + pSrc[2 * l];
 374              		.loc 1 189 22 discriminator 1
 375 01c0 7B6D     		ldr	r3, [r7, #84]
 376 01c2 DB00     		lsls	r3, r3, #3
 377 01c4 FA68     		ldr	r2, [r7, #12]
 378 01c6 1344     		add	r3, r3, r2
 379 01c8 93ED007A 		vldr.32	s14, [r3]
 380              		.loc 1 189 36 discriminator 1
 381 01cc 7B6A     		ldr	r3, [r7, #36]
 382 01ce DB00     		lsls	r3, r3, #3
ARM GAS  /tmp/ccAYyziA.s 			page 11


 383 01d0 FA68     		ldr	r2, [r7, #12]
 384 01d2 1344     		add	r3, r3, r2
 385 01d4 D3ED007A 		vldr.32	s15, [r3]
 386              		.loc 1 189 16 discriminator 1
 387 01d8 77EE277A 		vadd.f32	s15, s14, s15
 388 01dc C7ED107A 		vstr.32	s15, [r7, #64]
 190:./Libraries/CMSIS/DSP/Source/TransformFunctions/arm_cfft_radix2_f32.c ****             xt = pSrc[2 * i] - pSrc[2 * l];
 389              		.loc 1 190 22 discriminator 1
 390 01e0 7B6D     		ldr	r3, [r7, #84]
 391 01e2 DB00     		lsls	r3, r3, #3
 392 01e4 FA68     		ldr	r2, [r7, #12]
 393 01e6 1344     		add	r3, r3, r2
 394 01e8 93ED007A 		vldr.32	s14, [r3]
 395              		.loc 1 190 36 discriminator 1
 396 01ec 7B6A     		ldr	r3, [r7, #36]
 397 01ee DB00     		lsls	r3, r3, #3
 398 01f0 FA68     		ldr	r2, [r7, #12]
 399 01f2 1344     		add	r3, r3, r2
 400 01f4 D3ED007A 		vldr.32	s15, [r3]
 401              		.loc 1 190 16 discriminator 1
 402 01f8 77EE677A 		vsub.f32	s15, s14, s15
 403 01fc C7ED0F7A 		vstr.32	s15, [r7, #60]
 191:./Libraries/CMSIS/DSP/Source/TransformFunctions/arm_cfft_radix2_f32.c **** 
 192:./Libraries/CMSIS/DSP/Source/TransformFunctions/arm_cfft_radix2_f32.c ****             yt = pSrc[2 * i + 1] - pSrc[2 * l + 1];
 404              		.loc 1 192 22 discriminator 1
 405 0200 7B6D     		ldr	r3, [r7, #84]
 406 0202 DB00     		lsls	r3, r3, #3
 407 0204 0433     		adds	r3, r3, #4
 408 0206 FA68     		ldr	r2, [r7, #12]
 409 0208 1344     		add	r3, r3, r2
 410 020a 93ED007A 		vldr.32	s14, [r3]
 411              		.loc 1 192 40 discriminator 1
 412 020e 7B6A     		ldr	r3, [r7, #36]
 413 0210 DB00     		lsls	r3, r3, #3
 414 0212 0433     		adds	r3, r3, #4
 415 0214 FA68     		ldr	r2, [r7, #12]
 416 0216 1344     		add	r3, r3, r2
 417 0218 D3ED007A 		vldr.32	s15, [r3]
 418              		.loc 1 192 16 discriminator 1
 419 021c 77EE677A 		vsub.f32	s15, s14, s15
 420 0220 C7ED0E7A 		vstr.32	s15, [r7, #56]
 193:./Libraries/CMSIS/DSP/Source/TransformFunctions/arm_cfft_radix2_f32.c ****             a1 = pSrc[2 * l + 1] + pSrc[2 * i + 1];
 421              		.loc 1 193 22 discriminator 1
 422 0224 7B6A     		ldr	r3, [r7, #36]
 423 0226 DB00     		lsls	r3, r3, #3
 424 0228 0433     		adds	r3, r3, #4
 425 022a FA68     		ldr	r2, [r7, #12]
 426 022c 1344     		add	r3, r3, r2
 427 022e 93ED007A 		vldr.32	s14, [r3]
 428              		.loc 1 193 40 discriminator 1
 429 0232 7B6D     		ldr	r3, [r7, #84]
 430 0234 DB00     		lsls	r3, r3, #3
 431 0236 0433     		adds	r3, r3, #4
 432 0238 FA68     		ldr	r2, [r7, #12]
 433 023a 1344     		add	r3, r3, r2
 434 023c D3ED007A 		vldr.32	s15, [r3]
 435              		.loc 1 193 16 discriminator 1
ARM GAS  /tmp/ccAYyziA.s 			page 12


 436 0240 77EE277A 		vadd.f32	s15, s14, s15
 437 0244 C7ED0D7A 		vstr.32	s15, [r7, #52]
 194:./Libraries/CMSIS/DSP/Source/TransformFunctions/arm_cfft_radix2_f32.c **** 
 195:./Libraries/CMSIS/DSP/Source/TransformFunctions/arm_cfft_radix2_f32.c ****             p0 = xt * cosVal;
 438              		.loc 1 195 16 discriminator 1
 439 0248 97ED0F7A 		vldr.32	s14, [r7, #60]
 440 024c D7ED0B7A 		vldr.32	s15, [r7, #44]
 441 0250 67EE277A 		vmul.f32	s15, s14, s15
 442 0254 C7ED087A 		vstr.32	s15, [r7, #32]
 196:./Libraries/CMSIS/DSP/Source/TransformFunctions/arm_cfft_radix2_f32.c ****             p1 = yt * sinVal;
 443              		.loc 1 196 16 discriminator 1
 444 0258 97ED0E7A 		vldr.32	s14, [r7, #56]
 445 025c D7ED0A7A 		vldr.32	s15, [r7, #40]
 446 0260 67EE277A 		vmul.f32	s15, s14, s15
 447 0264 C7ED077A 		vstr.32	s15, [r7, #28]
 197:./Libraries/CMSIS/DSP/Source/TransformFunctions/arm_cfft_radix2_f32.c ****             p2 = yt * cosVal;
 448              		.loc 1 197 16 discriminator 1
 449 0268 97ED0E7A 		vldr.32	s14, [r7, #56]
 450 026c D7ED0B7A 		vldr.32	s15, [r7, #44]
 451 0270 67EE277A 		vmul.f32	s15, s14, s15
 452 0274 C7ED067A 		vstr.32	s15, [r7, #24]
 198:./Libraries/CMSIS/DSP/Source/TransformFunctions/arm_cfft_radix2_f32.c ****             p3 = xt * sinVal;
 453              		.loc 1 198 16 discriminator 1
 454 0278 97ED0F7A 		vldr.32	s14, [r7, #60]
 455 027c D7ED0A7A 		vldr.32	s15, [r7, #40]
 456 0280 67EE277A 		vmul.f32	s15, s14, s15
 457 0284 C7ED057A 		vstr.32	s15, [r7, #20]
 199:./Libraries/CMSIS/DSP/Source/TransformFunctions/arm_cfft_radix2_f32.c **** 
 200:./Libraries/CMSIS/DSP/Source/TransformFunctions/arm_cfft_radix2_f32.c ****             pSrc[2 * i] = a0;
 458              		.loc 1 200 17 discriminator 1
 459 0288 7B6D     		ldr	r3, [r7, #84]
 460 028a DB00     		lsls	r3, r3, #3
 461 028c FA68     		ldr	r2, [r7, #12]
 462 028e 1344     		add	r3, r3, r2
 463              		.loc 1 200 25 discriminator 1
 464 0290 3A6C     		ldr	r2, [r7, #64]	@ float
 465 0292 1A60     		str	r2, [r3]	@ float
 201:./Libraries/CMSIS/DSP/Source/TransformFunctions/arm_cfft_radix2_f32.c ****             pSrc[2 * i + 1] = a1;
 466              		.loc 1 201 17 discriminator 1
 467 0294 7B6D     		ldr	r3, [r7, #84]
 468 0296 DB00     		lsls	r3, r3, #3
 469 0298 0433     		adds	r3, r3, #4
 470 029a FA68     		ldr	r2, [r7, #12]
 471 029c 1344     		add	r3, r3, r2
 472              		.loc 1 201 29 discriminator 1
 473 029e 7A6B     		ldr	r2, [r7, #52]	@ float
 474 02a0 1A60     		str	r2, [r3]	@ float
 202:./Libraries/CMSIS/DSP/Source/TransformFunctions/arm_cfft_radix2_f32.c **** 
 203:./Libraries/CMSIS/DSP/Source/TransformFunctions/arm_cfft_radix2_f32.c ****             pSrc[2 * l]     = p0 + p1;
 475              		.loc 1 203 17 discriminator 1
 476 02a2 7B6A     		ldr	r3, [r7, #36]
 477 02a4 DB00     		lsls	r3, r3, #3
 478 02a6 FA68     		ldr	r2, [r7, #12]
 479 02a8 1344     		add	r3, r3, r2
 480              		.loc 1 203 34 discriminator 1
 481 02aa 97ED087A 		vldr.32	s14, [r7, #32]
 482 02ae D7ED077A 		vldr.32	s15, [r7, #28]
ARM GAS  /tmp/ccAYyziA.s 			page 13


 483 02b2 77EE277A 		vadd.f32	s15, s14, s15
 484              		.loc 1 203 29 discriminator 1
 485 02b6 C3ED007A 		vstr.32	s15, [r3]
 204:./Libraries/CMSIS/DSP/Source/TransformFunctions/arm_cfft_radix2_f32.c ****             pSrc[2 * l + 1] = p2 - p3;
 486              		.loc 1 204 17 discriminator 1
 487 02ba 7B6A     		ldr	r3, [r7, #36]
 488 02bc DB00     		lsls	r3, r3, #3
 489 02be 0433     		adds	r3, r3, #4
 490 02c0 FA68     		ldr	r2, [r7, #12]
 491 02c2 1344     		add	r3, r3, r2
 492              		.loc 1 204 34 discriminator 1
 493 02c4 97ED067A 		vldr.32	s14, [r7, #24]
 494 02c8 D7ED057A 		vldr.32	s15, [r7, #20]
 495 02cc 77EE677A 		vsub.f32	s15, s14, s15
 496              		.loc 1 204 29 discriminator 1
 497 02d0 C3ED007A 		vstr.32	s15, [r3]
 205:./Libraries/CMSIS/DSP/Source/TransformFunctions/arm_cfft_radix2_f32.c **** 
 206:./Libraries/CMSIS/DSP/Source/TransformFunctions/arm_cfft_radix2_f32.c ****             i += n1;
 498              		.loc 1 206 15 discriminator 1
 499 02d4 7A6D     		ldr	r2, [r7, #84]
 500 02d6 3B6B     		ldr	r3, [r7, #48]
 501 02d8 1344     		add	r3, r3, r2
 502 02da 7B65     		str	r3, [r7, #84]
 207:./Libraries/CMSIS/DSP/Source/TransformFunctions/arm_cfft_radix2_f32.c ****          } while ( i < fftLen );                        // butterfly loop end
 503              		.loc 1 207 10 discriminator 1
 504 02dc 7A6D     		ldr	r2, [r7, #84]
 505 02de BB68     		ldr	r3, [r7, #8]
 506 02e0 9A42     		cmp	r2, r3
 507 02e2 FFF469AF 		bcc	.L10
 208:./Libraries/CMSIS/DSP/Source/TransformFunctions/arm_cfft_radix2_f32.c ****          j++;
 508              		.loc 1 208 11
 509 02e6 3B6D     		ldr	r3, [r7, #80]
 510 02e8 0133     		adds	r3, r3, #1
 511 02ea 3B65     		str	r3, [r7, #80]
 209:./Libraries/CMSIS/DSP/Source/TransformFunctions/arm_cfft_radix2_f32.c ****       } while ( j < n2);                          // groups loop end
 512              		.loc 1 209 7
 513 02ec 3A6D     		ldr	r2, [r7, #80]
 514 02ee BB6C     		ldr	r3, [r7, #72]
 515 02f0 9A42     		cmp	r2, r3
 516 02f2 FFF44EAF 		bcc	.L11
 210:./Libraries/CMSIS/DSP/Source/TransformFunctions/arm_cfft_radix2_f32.c ****       twidCoefModifier <<= 1U;
 517              		.loc 1 210 24 discriminator 2
 518 02f6 7B88     		ldrh	r3, [r7, #2]	@ movhi
 519 02f8 5B00     		lsls	r3, r3, #1
 520 02fa 7B80     		strh	r3, [r7, #2]	@ movhi
 170:./Libraries/CMSIS/DSP/Source/TransformFunctions/arm_cfft_radix2_f32.c ****    {
 521              		.loc 1 170 26 discriminator 2
 522 02fc FB6C     		ldr	r3, [r7, #76]
 523 02fe 5B08     		lsrs	r3, r3, #1
 524 0300 FB64     		str	r3, [r7, #76]
 525              	.L9:
 170:./Libraries/CMSIS/DSP/Source/TransformFunctions/arm_cfft_radix2_f32.c ****    {
 526              		.loc 1 170 4 discriminator 1
 527 0302 FB6C     		ldr	r3, [r7, #76]
 528 0304 022B     		cmp	r3, #2
 529 0306 3FF63BAF 		bhi	.L12
 211:./Libraries/CMSIS/DSP/Source/TransformFunctions/arm_cfft_radix2_f32.c ****    }                             // stages loop end
ARM GAS  /tmp/ccAYyziA.s 			page 14


 212:./Libraries/CMSIS/DSP/Source/TransformFunctions/arm_cfft_radix2_f32.c **** 
 213:./Libraries/CMSIS/DSP/Source/TransformFunctions/arm_cfft_radix2_f32.c ****    // loop for butterfly
 214:./Libraries/CMSIS/DSP/Source/TransformFunctions/arm_cfft_radix2_f32.c ****    for (i = 0; i < fftLen; i += 2)
 530              		.loc 1 214 11
 531 030a 0023     		movs	r3, #0
 532 030c 7B65     		str	r3, [r7, #84]
 533              		.loc 1 214 4
 534 030e 63E0     		b	.L13
 535              	.L14:
 215:./Libraries/CMSIS/DSP/Source/TransformFunctions/arm_cfft_radix2_f32.c ****    {
 216:./Libraries/CMSIS/DSP/Source/TransformFunctions/arm_cfft_radix2_f32.c ****       a0 = pSrc[2 * i] + pSrc[2 * i + 2];
 536              		.loc 1 216 16 discriminator 3
 537 0310 7B6D     		ldr	r3, [r7, #84]
 538 0312 DB00     		lsls	r3, r3, #3
 539 0314 FA68     		ldr	r2, [r7, #12]
 540 0316 1344     		add	r3, r3, r2
 541 0318 93ED007A 		vldr.32	s14, [r3]
 542              		.loc 1 216 30 discriminator 3
 543 031c 7B6D     		ldr	r3, [r7, #84]
 544 031e 0133     		adds	r3, r3, #1
 545 0320 DB00     		lsls	r3, r3, #3
 546 0322 FA68     		ldr	r2, [r7, #12]
 547 0324 1344     		add	r3, r3, r2
 548 0326 D3ED007A 		vldr.32	s15, [r3]
 549              		.loc 1 216 10 discriminator 3
 550 032a 77EE277A 		vadd.f32	s15, s14, s15
 551 032e C7ED107A 		vstr.32	s15, [r7, #64]
 217:./Libraries/CMSIS/DSP/Source/TransformFunctions/arm_cfft_radix2_f32.c ****       xt = pSrc[2 * i] - pSrc[2 * i + 2];
 552              		.loc 1 217 16 discriminator 3
 553 0332 7B6D     		ldr	r3, [r7, #84]
 554 0334 DB00     		lsls	r3, r3, #3
 555 0336 FA68     		ldr	r2, [r7, #12]
 556 0338 1344     		add	r3, r3, r2
 557 033a 93ED007A 		vldr.32	s14, [r3]
 558              		.loc 1 217 30 discriminator 3
 559 033e 7B6D     		ldr	r3, [r7, #84]
 560 0340 0133     		adds	r3, r3, #1
 561 0342 DB00     		lsls	r3, r3, #3
 562 0344 FA68     		ldr	r2, [r7, #12]
 563 0346 1344     		add	r3, r3, r2
 564 0348 D3ED007A 		vldr.32	s15, [r3]
 565              		.loc 1 217 10 discriminator 3
 566 034c 77EE677A 		vsub.f32	s15, s14, s15
 567 0350 C7ED0F7A 		vstr.32	s15, [r7, #60]
 218:./Libraries/CMSIS/DSP/Source/TransformFunctions/arm_cfft_radix2_f32.c **** 
 219:./Libraries/CMSIS/DSP/Source/TransformFunctions/arm_cfft_radix2_f32.c ****       yt = pSrc[2 * i + 1] - pSrc[2 * i + 3];
 568              		.loc 1 219 16 discriminator 3
 569 0354 7B6D     		ldr	r3, [r7, #84]
 570 0356 DB00     		lsls	r3, r3, #3
 571 0358 0433     		adds	r3, r3, #4
 572 035a FA68     		ldr	r2, [r7, #12]
 573 035c 1344     		add	r3, r3, r2
 574 035e 93ED007A 		vldr.32	s14, [r3]
 575              		.loc 1 219 34 discriminator 3
 576 0362 7B6D     		ldr	r3, [r7, #84]
 577 0364 DB00     		lsls	r3, r3, #3
 578 0366 0C33     		adds	r3, r3, #12
ARM GAS  /tmp/ccAYyziA.s 			page 15


 579 0368 FA68     		ldr	r2, [r7, #12]
 580 036a 1344     		add	r3, r3, r2
 581 036c D3ED007A 		vldr.32	s15, [r3]
 582              		.loc 1 219 10 discriminator 3
 583 0370 77EE677A 		vsub.f32	s15, s14, s15
 584 0374 C7ED0E7A 		vstr.32	s15, [r7, #56]
 220:./Libraries/CMSIS/DSP/Source/TransformFunctions/arm_cfft_radix2_f32.c ****       a1 = pSrc[2 * i + 3] + pSrc[2 * i + 1];
 585              		.loc 1 220 16 discriminator 3
 586 0378 7B6D     		ldr	r3, [r7, #84]
 587 037a DB00     		lsls	r3, r3, #3
 588 037c 0C33     		adds	r3, r3, #12
 589 037e FA68     		ldr	r2, [r7, #12]
 590 0380 1344     		add	r3, r3, r2
 591 0382 93ED007A 		vldr.32	s14, [r3]
 592              		.loc 1 220 34 discriminator 3
 593 0386 7B6D     		ldr	r3, [r7, #84]
 594 0388 DB00     		lsls	r3, r3, #3
 595 038a 0433     		adds	r3, r3, #4
 596 038c FA68     		ldr	r2, [r7, #12]
 597 038e 1344     		add	r3, r3, r2
 598 0390 D3ED007A 		vldr.32	s15, [r3]
 599              		.loc 1 220 10 discriminator 3
 600 0394 77EE277A 		vadd.f32	s15, s14, s15
 601 0398 C7ED0D7A 		vstr.32	s15, [r7, #52]
 221:./Libraries/CMSIS/DSP/Source/TransformFunctions/arm_cfft_radix2_f32.c **** 
 222:./Libraries/CMSIS/DSP/Source/TransformFunctions/arm_cfft_radix2_f32.c ****       pSrc[2 * i] = a0;
 602              		.loc 1 222 11 discriminator 3
 603 039c 7B6D     		ldr	r3, [r7, #84]
 604 039e DB00     		lsls	r3, r3, #3
 605 03a0 FA68     		ldr	r2, [r7, #12]
 606 03a2 1344     		add	r3, r3, r2
 607              		.loc 1 222 19 discriminator 3
 608 03a4 3A6C     		ldr	r2, [r7, #64]	@ float
 609 03a6 1A60     		str	r2, [r3]	@ float
 223:./Libraries/CMSIS/DSP/Source/TransformFunctions/arm_cfft_radix2_f32.c ****       pSrc[2 * i + 1] = a1;
 610              		.loc 1 223 11 discriminator 3
 611 03a8 7B6D     		ldr	r3, [r7, #84]
 612 03aa DB00     		lsls	r3, r3, #3
 613 03ac 0433     		adds	r3, r3, #4
 614 03ae FA68     		ldr	r2, [r7, #12]
 615 03b0 1344     		add	r3, r3, r2
 616              		.loc 1 223 23 discriminator 3
 617 03b2 7A6B     		ldr	r2, [r7, #52]	@ float
 618 03b4 1A60     		str	r2, [r3]	@ float
 224:./Libraries/CMSIS/DSP/Source/TransformFunctions/arm_cfft_radix2_f32.c ****       pSrc[2 * i + 2] = xt;
 619              		.loc 1 224 11 discriminator 3
 620 03b6 7B6D     		ldr	r3, [r7, #84]
 621 03b8 0133     		adds	r3, r3, #1
 622 03ba DB00     		lsls	r3, r3, #3
 623 03bc FA68     		ldr	r2, [r7, #12]
 624 03be 1344     		add	r3, r3, r2
 625              		.loc 1 224 23 discriminator 3
 626 03c0 FA6B     		ldr	r2, [r7, #60]	@ float
 627 03c2 1A60     		str	r2, [r3]	@ float
 225:./Libraries/CMSIS/DSP/Source/TransformFunctions/arm_cfft_radix2_f32.c ****       pSrc[2 * i + 3] = yt;
 628              		.loc 1 225 11 discriminator 3
 629 03c4 7B6D     		ldr	r3, [r7, #84]
ARM GAS  /tmp/ccAYyziA.s 			page 16


 630 03c6 DB00     		lsls	r3, r3, #3
 631 03c8 0C33     		adds	r3, r3, #12
 632 03ca FA68     		ldr	r2, [r7, #12]
 633 03cc 1344     		add	r3, r3, r2
 634              		.loc 1 225 23 discriminator 3
 635 03ce BA6B     		ldr	r2, [r7, #56]	@ float
 636 03d0 1A60     		str	r2, [r3]	@ float
 214:./Libraries/CMSIS/DSP/Source/TransformFunctions/arm_cfft_radix2_f32.c ****    {
 637              		.loc 1 214 30 discriminator 3
 638 03d2 7B6D     		ldr	r3, [r7, #84]
 639 03d4 0233     		adds	r3, r3, #2
 640 03d6 7B65     		str	r3, [r7, #84]
 641              	.L13:
 214:./Libraries/CMSIS/DSP/Source/TransformFunctions/arm_cfft_radix2_f32.c ****    {
 642              		.loc 1 214 4 discriminator 1
 643 03d8 7A6D     		ldr	r2, [r7, #84]
 644 03da BB68     		ldr	r3, [r7, #8]
 645 03dc 9A42     		cmp	r2, r3
 646 03de 97D3     		bcc	.L14
 226:./Libraries/CMSIS/DSP/Source/TransformFunctions/arm_cfft_radix2_f32.c ****    }                             // groups loop end
 227:./Libraries/CMSIS/DSP/Source/TransformFunctions/arm_cfft_radix2_f32.c **** 
 228:./Libraries/CMSIS/DSP/Source/TransformFunctions/arm_cfft_radix2_f32.c **** #else /* #if defined (ARM_MATH_DSP) */
 229:./Libraries/CMSIS/DSP/Source/TransformFunctions/arm_cfft_radix2_f32.c **** 
 230:./Libraries/CMSIS/DSP/Source/TransformFunctions/arm_cfft_radix2_f32.c ****    n2 = fftLen;
 231:./Libraries/CMSIS/DSP/Source/TransformFunctions/arm_cfft_radix2_f32.c **** 
 232:./Libraries/CMSIS/DSP/Source/TransformFunctions/arm_cfft_radix2_f32.c ****    // loop for stage
 233:./Libraries/CMSIS/DSP/Source/TransformFunctions/arm_cfft_radix2_f32.c ****    for (k = fftLen; k > 1; k = k >> 1)
 234:./Libraries/CMSIS/DSP/Source/TransformFunctions/arm_cfft_radix2_f32.c ****    {
 235:./Libraries/CMSIS/DSP/Source/TransformFunctions/arm_cfft_radix2_f32.c ****       n1 = n2;
 236:./Libraries/CMSIS/DSP/Source/TransformFunctions/arm_cfft_radix2_f32.c ****       n2 = n2 >> 1;
 237:./Libraries/CMSIS/DSP/Source/TransformFunctions/arm_cfft_radix2_f32.c ****       ia = 0;
 238:./Libraries/CMSIS/DSP/Source/TransformFunctions/arm_cfft_radix2_f32.c **** 
 239:./Libraries/CMSIS/DSP/Source/TransformFunctions/arm_cfft_radix2_f32.c ****       // loop for groups
 240:./Libraries/CMSIS/DSP/Source/TransformFunctions/arm_cfft_radix2_f32.c ****       j = 0;
 241:./Libraries/CMSIS/DSP/Source/TransformFunctions/arm_cfft_radix2_f32.c ****       do
 242:./Libraries/CMSIS/DSP/Source/TransformFunctions/arm_cfft_radix2_f32.c ****       {
 243:./Libraries/CMSIS/DSP/Source/TransformFunctions/arm_cfft_radix2_f32.c ****          cosVal = pCoef[ia * 2];
 244:./Libraries/CMSIS/DSP/Source/TransformFunctions/arm_cfft_radix2_f32.c ****          sinVal = pCoef[(ia * 2) + 1];
 245:./Libraries/CMSIS/DSP/Source/TransformFunctions/arm_cfft_radix2_f32.c ****          ia += twidCoefModifier;
 246:./Libraries/CMSIS/DSP/Source/TransformFunctions/arm_cfft_radix2_f32.c **** 
 247:./Libraries/CMSIS/DSP/Source/TransformFunctions/arm_cfft_radix2_f32.c ****          // loop for butterfly
 248:./Libraries/CMSIS/DSP/Source/TransformFunctions/arm_cfft_radix2_f32.c ****          i = j;
 249:./Libraries/CMSIS/DSP/Source/TransformFunctions/arm_cfft_radix2_f32.c ****          do
 250:./Libraries/CMSIS/DSP/Source/TransformFunctions/arm_cfft_radix2_f32.c ****          {
 251:./Libraries/CMSIS/DSP/Source/TransformFunctions/arm_cfft_radix2_f32.c ****             l = i + n2;
 252:./Libraries/CMSIS/DSP/Source/TransformFunctions/arm_cfft_radix2_f32.c ****             a0 = pSrc[2 * i] + pSrc[2 * l];
 253:./Libraries/CMSIS/DSP/Source/TransformFunctions/arm_cfft_radix2_f32.c ****             xt = pSrc[2 * i] - pSrc[2 * l];
 254:./Libraries/CMSIS/DSP/Source/TransformFunctions/arm_cfft_radix2_f32.c **** 
 255:./Libraries/CMSIS/DSP/Source/TransformFunctions/arm_cfft_radix2_f32.c ****             yt = pSrc[2 * i + 1] - pSrc[2 * l + 1];
 256:./Libraries/CMSIS/DSP/Source/TransformFunctions/arm_cfft_radix2_f32.c ****             a1 = pSrc[2 * l + 1] + pSrc[2 * i + 1];
 257:./Libraries/CMSIS/DSP/Source/TransformFunctions/arm_cfft_radix2_f32.c **** 
 258:./Libraries/CMSIS/DSP/Source/TransformFunctions/arm_cfft_radix2_f32.c ****             p0 = xt * cosVal;
 259:./Libraries/CMSIS/DSP/Source/TransformFunctions/arm_cfft_radix2_f32.c ****             p1 = yt * sinVal;
 260:./Libraries/CMSIS/DSP/Source/TransformFunctions/arm_cfft_radix2_f32.c ****             p2 = yt * cosVal;
 261:./Libraries/CMSIS/DSP/Source/TransformFunctions/arm_cfft_radix2_f32.c ****             p3 = xt * sinVal;
 262:./Libraries/CMSIS/DSP/Source/TransformFunctions/arm_cfft_radix2_f32.c **** 
 263:./Libraries/CMSIS/DSP/Source/TransformFunctions/arm_cfft_radix2_f32.c ****             pSrc[2 * i] = a0;
ARM GAS  /tmp/ccAYyziA.s 			page 17


 264:./Libraries/CMSIS/DSP/Source/TransformFunctions/arm_cfft_radix2_f32.c ****             pSrc[2 * i + 1] = a1;
 265:./Libraries/CMSIS/DSP/Source/TransformFunctions/arm_cfft_radix2_f32.c **** 
 266:./Libraries/CMSIS/DSP/Source/TransformFunctions/arm_cfft_radix2_f32.c ****             pSrc[2 * l]     = p0 + p1;
 267:./Libraries/CMSIS/DSP/Source/TransformFunctions/arm_cfft_radix2_f32.c ****             pSrc[2 * l + 1] = p2 - p3;
 268:./Libraries/CMSIS/DSP/Source/TransformFunctions/arm_cfft_radix2_f32.c **** 
 269:./Libraries/CMSIS/DSP/Source/TransformFunctions/arm_cfft_radix2_f32.c ****             i += n1;
 270:./Libraries/CMSIS/DSP/Source/TransformFunctions/arm_cfft_radix2_f32.c ****          } while (i < fftLen);
 271:./Libraries/CMSIS/DSP/Source/TransformFunctions/arm_cfft_radix2_f32.c ****          j++;
 272:./Libraries/CMSIS/DSP/Source/TransformFunctions/arm_cfft_radix2_f32.c ****       } while (j < n2);
 273:./Libraries/CMSIS/DSP/Source/TransformFunctions/arm_cfft_radix2_f32.c ****       twidCoefModifier <<= 1U;
 274:./Libraries/CMSIS/DSP/Source/TransformFunctions/arm_cfft_radix2_f32.c ****    }
 275:./Libraries/CMSIS/DSP/Source/TransformFunctions/arm_cfft_radix2_f32.c **** 
 276:./Libraries/CMSIS/DSP/Source/TransformFunctions/arm_cfft_radix2_f32.c **** #endif /* #if defined (ARM_MATH_DSP) */
 277:./Libraries/CMSIS/DSP/Source/TransformFunctions/arm_cfft_radix2_f32.c **** 
 278:./Libraries/CMSIS/DSP/Source/TransformFunctions/arm_cfft_radix2_f32.c **** }
 647              		.loc 1 278 1
 648 03e0 00BF     		nop
 649 03e2 00BF     		nop
 650 03e4 5C37     		adds	r7, r7, #92
 651              	.LCFI8:
 652              		.cfi_def_cfa_offset 4
 653 03e6 BD46     		mov	sp, r7
 654              	.LCFI9:
 655              		.cfi_def_cfa_register 13
 656              		@ sp needed
 657 03e8 5DF8047B 		ldr	r7, [sp], #4
 658              	.LCFI10:
 659              		.cfi_restore 7
 660              		.cfi_def_cfa_offset 0
 661 03ec 7047     		bx	lr
 662              		.cfi_endproc
 663              	.LFE146:
 665              		.section	.text.arm_radix2_butterfly_inverse_f32,"ax",%progbits
 666              		.align	1
 667              		.global	arm_radix2_butterfly_inverse_f32
 668              		.syntax unified
 669              		.thumb
 670              		.thumb_func
 671              		.fpu fpv5-d16
 673              	arm_radix2_butterfly_inverse_f32:
 674              	.LFB147:
 279:./Libraries/CMSIS/DSP/Source/TransformFunctions/arm_cfft_radix2_f32.c **** 
 280:./Libraries/CMSIS/DSP/Source/TransformFunctions/arm_cfft_radix2_f32.c **** 
 281:./Libraries/CMSIS/DSP/Source/TransformFunctions/arm_cfft_radix2_f32.c **** void arm_radix2_butterfly_inverse_f32(
 282:./Libraries/CMSIS/DSP/Source/TransformFunctions/arm_cfft_radix2_f32.c ****         float32_t * pSrc,
 283:./Libraries/CMSIS/DSP/Source/TransformFunctions/arm_cfft_radix2_f32.c ****         uint32_t fftLen,
 284:./Libraries/CMSIS/DSP/Source/TransformFunctions/arm_cfft_radix2_f32.c ****   const float32_t * pCoef,
 285:./Libraries/CMSIS/DSP/Source/TransformFunctions/arm_cfft_radix2_f32.c ****         uint16_t twidCoefModifier,
 286:./Libraries/CMSIS/DSP/Source/TransformFunctions/arm_cfft_radix2_f32.c ****         float32_t onebyfftLen)
 287:./Libraries/CMSIS/DSP/Source/TransformFunctions/arm_cfft_radix2_f32.c **** {
 675              		.loc 1 287 1
 676              		.cfi_startproc
 677              		@ args = 0, pretend = 0, frame = 96
 678              		@ frame_needed = 1, uses_anonymous_args = 0
 679              		@ link register save eliminated.
 680 0000 80B4     		push	{r7}
 681              	.LCFI11:
ARM GAS  /tmp/ccAYyziA.s 			page 18


 682              		.cfi_def_cfa_offset 4
 683              		.cfi_offset 7, -4
 684 0002 99B0     		sub	sp, sp, #100
 685              	.LCFI12:
 686              		.cfi_def_cfa_offset 104
 687 0004 00AF     		add	r7, sp, #0
 688              	.LCFI13:
 689              		.cfi_def_cfa_register 7
 690 0006 7861     		str	r0, [r7, #20]
 691 0008 3961     		str	r1, [r7, #16]
 692 000a FA60     		str	r2, [r7, #12]
 693 000c 87ED010A 		vstr.32	s0, [r7, #4]
 694 0010 7B81     		strh	r3, [r7, #10]	@ movhi
 288:./Libraries/CMSIS/DSP/Source/TransformFunctions/arm_cfft_radix2_f32.c **** 
 289:./Libraries/CMSIS/DSP/Source/TransformFunctions/arm_cfft_radix2_f32.c ****         uint32_t i, j, k, l;
 290:./Libraries/CMSIS/DSP/Source/TransformFunctions/arm_cfft_radix2_f32.c ****         uint32_t n1, n2, ia;
 291:./Libraries/CMSIS/DSP/Source/TransformFunctions/arm_cfft_radix2_f32.c ****         float32_t xt, yt, cosVal, sinVal;
 292:./Libraries/CMSIS/DSP/Source/TransformFunctions/arm_cfft_radix2_f32.c ****         float32_t p0, p1, p2, p3;
 293:./Libraries/CMSIS/DSP/Source/TransformFunctions/arm_cfft_radix2_f32.c ****         float32_t a0, a1;
 294:./Libraries/CMSIS/DSP/Source/TransformFunctions/arm_cfft_radix2_f32.c **** 
 295:./Libraries/CMSIS/DSP/Source/TransformFunctions/arm_cfft_radix2_f32.c **** #if defined (ARM_MATH_DSP)
 296:./Libraries/CMSIS/DSP/Source/TransformFunctions/arm_cfft_radix2_f32.c **** 
 297:./Libraries/CMSIS/DSP/Source/TransformFunctions/arm_cfft_radix2_f32.c ****    n2 = fftLen >> 1;
 695              		.loc 1 297 7
 696 0012 3B69     		ldr	r3, [r7, #16]
 697 0014 5B08     		lsrs	r3, r3, #1
 698 0016 3B65     		str	r3, [r7, #80]
 298:./Libraries/CMSIS/DSP/Source/TransformFunctions/arm_cfft_radix2_f32.c ****    ia = 0;
 699              		.loc 1 298 7
 700 0018 0023     		movs	r3, #0
 701 001a FB64     		str	r3, [r7, #76]
 299:./Libraries/CMSIS/DSP/Source/TransformFunctions/arm_cfft_radix2_f32.c **** 
 300:./Libraries/CMSIS/DSP/Source/TransformFunctions/arm_cfft_radix2_f32.c ****    // loop for groups
 301:./Libraries/CMSIS/DSP/Source/TransformFunctions/arm_cfft_radix2_f32.c ****    for (i = 0; i < n2; i++)
 702              		.loc 1 301 11
 703 001c 0023     		movs	r3, #0
 704 001e FB65     		str	r3, [r7, #92]
 705              		.loc 1 301 4
 706 0020 A1E0     		b	.L16
 707              	.L17:
 302:./Libraries/CMSIS/DSP/Source/TransformFunctions/arm_cfft_radix2_f32.c ****    {
 303:./Libraries/CMSIS/DSP/Source/TransformFunctions/arm_cfft_radix2_f32.c ****       cosVal = pCoef[ia * 2];
 708              		.loc 1 303 21 discriminator 3
 709 0022 FB6C     		ldr	r3, [r7, #76]
 710 0024 DB00     		lsls	r3, r3, #3
 711 0026 FA68     		ldr	r2, [r7, #12]
 712 0028 1344     		add	r3, r3, r2
 713              		.loc 1 303 14 discriminator 3
 714 002a 1B68     		ldr	r3, [r3]	@ float
 715 002c 7B62     		str	r3, [r7, #36]	@ float
 304:./Libraries/CMSIS/DSP/Source/TransformFunctions/arm_cfft_radix2_f32.c ****       sinVal = pCoef[(ia * 2) + 1];
 716              		.loc 1 304 21 discriminator 3
 717 002e FB6C     		ldr	r3, [r7, #76]
 718 0030 DB00     		lsls	r3, r3, #3
 719 0032 0433     		adds	r3, r3, #4
 720 0034 FA68     		ldr	r2, [r7, #12]
 721 0036 1344     		add	r3, r3, r2
ARM GAS  /tmp/ccAYyziA.s 			page 19


 722              		.loc 1 304 14 discriminator 3
 723 0038 1B68     		ldr	r3, [r3]	@ float
 724 003a 3B62     		str	r3, [r7, #32]	@ float
 305:./Libraries/CMSIS/DSP/Source/TransformFunctions/arm_cfft_radix2_f32.c ****       ia += twidCoefModifier;
 725              		.loc 1 305 10 discriminator 3
 726 003c 7B89     		ldrh	r3, [r7, #10]
 727 003e FA6C     		ldr	r2, [r7, #76]
 728 0040 1344     		add	r3, r3, r2
 729 0042 FB64     		str	r3, [r7, #76]
 306:./Libraries/CMSIS/DSP/Source/TransformFunctions/arm_cfft_radix2_f32.c **** 
 307:./Libraries/CMSIS/DSP/Source/TransformFunctions/arm_cfft_radix2_f32.c ****       l = i + n2;
 730              		.loc 1 307 9 discriminator 3
 731 0044 FA6D     		ldr	r2, [r7, #92]
 732 0046 3B6D     		ldr	r3, [r7, #80]
 733 0048 1344     		add	r3, r3, r2
 734 004a FB61     		str	r3, [r7, #28]
 308:./Libraries/CMSIS/DSP/Source/TransformFunctions/arm_cfft_radix2_f32.c ****       a0 = pSrc[2 * i] + pSrc[2 * l];
 735              		.loc 1 308 16 discriminator 3
 736 004c FB6D     		ldr	r3, [r7, #92]
 737 004e DB00     		lsls	r3, r3, #3
 738 0050 7A69     		ldr	r2, [r7, #20]
 739 0052 1344     		add	r3, r3, r2
 740 0054 93ED007A 		vldr.32	s14, [r3]
 741              		.loc 1 308 30 discriminator 3
 742 0058 FB69     		ldr	r3, [r7, #28]
 743 005a DB00     		lsls	r3, r3, #3
 744 005c 7A69     		ldr	r2, [r7, #20]
 745 005e 1344     		add	r3, r3, r2
 746 0060 D3ED007A 		vldr.32	s15, [r3]
 747              		.loc 1 308 10 discriminator 3
 748 0064 77EE277A 		vadd.f32	s15, s14, s15
 749 0068 C7ED127A 		vstr.32	s15, [r7, #72]
 309:./Libraries/CMSIS/DSP/Source/TransformFunctions/arm_cfft_radix2_f32.c ****       xt = pSrc[2 * i] - pSrc[2 * l];
 750              		.loc 1 309 16 discriminator 3
 751 006c FB6D     		ldr	r3, [r7, #92]
 752 006e DB00     		lsls	r3, r3, #3
 753 0070 7A69     		ldr	r2, [r7, #20]
 754 0072 1344     		add	r3, r3, r2
 755 0074 93ED007A 		vldr.32	s14, [r3]
 756              		.loc 1 309 30 discriminator 3
 757 0078 FB69     		ldr	r3, [r7, #28]
 758 007a DB00     		lsls	r3, r3, #3
 759 007c 7A69     		ldr	r2, [r7, #20]
 760 007e 1344     		add	r3, r3, r2
 761 0080 D3ED007A 		vldr.32	s15, [r3]
 762              		.loc 1 309 10 discriminator 3
 763 0084 77EE677A 		vsub.f32	s15, s14, s15
 764 0088 C7ED117A 		vstr.32	s15, [r7, #68]
 310:./Libraries/CMSIS/DSP/Source/TransformFunctions/arm_cfft_radix2_f32.c **** 
 311:./Libraries/CMSIS/DSP/Source/TransformFunctions/arm_cfft_radix2_f32.c ****       yt = pSrc[2 * i + 1] - pSrc[2 * l + 1];
 765              		.loc 1 311 16 discriminator 3
 766 008c FB6D     		ldr	r3, [r7, #92]
 767 008e DB00     		lsls	r3, r3, #3
 768 0090 0433     		adds	r3, r3, #4
 769 0092 7A69     		ldr	r2, [r7, #20]
 770 0094 1344     		add	r3, r3, r2
 771 0096 93ED007A 		vldr.32	s14, [r3]
ARM GAS  /tmp/ccAYyziA.s 			page 20


 772              		.loc 1 311 34 discriminator 3
 773 009a FB69     		ldr	r3, [r7, #28]
 774 009c DB00     		lsls	r3, r3, #3
 775 009e 0433     		adds	r3, r3, #4
 776 00a0 7A69     		ldr	r2, [r7, #20]
 777 00a2 1344     		add	r3, r3, r2
 778 00a4 D3ED007A 		vldr.32	s15, [r3]
 779              		.loc 1 311 10 discriminator 3
 780 00a8 77EE677A 		vsub.f32	s15, s14, s15
 781 00ac C7ED0F7A 		vstr.32	s15, [r7, #60]
 312:./Libraries/CMSIS/DSP/Source/TransformFunctions/arm_cfft_radix2_f32.c ****       a1 = pSrc[2 * l + 1] + pSrc[2 * i + 1];
 782              		.loc 1 312 16 discriminator 3
 783 00b0 FB69     		ldr	r3, [r7, #28]
 784 00b2 DB00     		lsls	r3, r3, #3
 785 00b4 0433     		adds	r3, r3, #4
 786 00b6 7A69     		ldr	r2, [r7, #20]
 787 00b8 1344     		add	r3, r3, r2
 788 00ba 93ED007A 		vldr.32	s14, [r3]
 789              		.loc 1 312 34 discriminator 3
 790 00be FB6D     		ldr	r3, [r7, #92]
 791 00c0 DB00     		lsls	r3, r3, #3
 792 00c2 0433     		adds	r3, r3, #4
 793 00c4 7A69     		ldr	r2, [r7, #20]
 794 00c6 1344     		add	r3, r3, r2
 795 00c8 D3ED007A 		vldr.32	s15, [r3]
 796              		.loc 1 312 10 discriminator 3
 797 00cc 77EE277A 		vadd.f32	s15, s14, s15
 798 00d0 C7ED107A 		vstr.32	s15, [r7, #64]
 313:./Libraries/CMSIS/DSP/Source/TransformFunctions/arm_cfft_radix2_f32.c **** 
 314:./Libraries/CMSIS/DSP/Source/TransformFunctions/arm_cfft_radix2_f32.c ****       p0 = xt * cosVal;
 799              		.loc 1 314 10 discriminator 3
 800 00d4 97ED117A 		vldr.32	s14, [r7, #68]
 801 00d8 D7ED097A 		vldr.32	s15, [r7, #36]
 802 00dc 67EE277A 		vmul.f32	s15, s14, s15
 803 00e0 C7ED0E7A 		vstr.32	s15, [r7, #56]
 315:./Libraries/CMSIS/DSP/Source/TransformFunctions/arm_cfft_radix2_f32.c ****       p1 = yt * sinVal;
 804              		.loc 1 315 10 discriminator 3
 805 00e4 97ED0F7A 		vldr.32	s14, [r7, #60]
 806 00e8 D7ED087A 		vldr.32	s15, [r7, #32]
 807 00ec 67EE277A 		vmul.f32	s15, s14, s15
 808 00f0 C7ED0C7A 		vstr.32	s15, [r7, #48]
 316:./Libraries/CMSIS/DSP/Source/TransformFunctions/arm_cfft_radix2_f32.c ****       p2 = yt * cosVal;
 809              		.loc 1 316 10 discriminator 3
 810 00f4 97ED0F7A 		vldr.32	s14, [r7, #60]
 811 00f8 D7ED097A 		vldr.32	s15, [r7, #36]
 812 00fc 67EE277A 		vmul.f32	s15, s14, s15
 813 0100 C7ED0D7A 		vstr.32	s15, [r7, #52]
 317:./Libraries/CMSIS/DSP/Source/TransformFunctions/arm_cfft_radix2_f32.c ****       p3 = xt * sinVal;
 814              		.loc 1 317 10 discriminator 3
 815 0104 97ED117A 		vldr.32	s14, [r7, #68]
 816 0108 D7ED087A 		vldr.32	s15, [r7, #32]
 817 010c 67EE277A 		vmul.f32	s15, s14, s15
 818 0110 C7ED0B7A 		vstr.32	s15, [r7, #44]
 318:./Libraries/CMSIS/DSP/Source/TransformFunctions/arm_cfft_radix2_f32.c **** 
 319:./Libraries/CMSIS/DSP/Source/TransformFunctions/arm_cfft_radix2_f32.c ****       pSrc[2 * i] = a0;
 819              		.loc 1 319 11 discriminator 3
 820 0114 FB6D     		ldr	r3, [r7, #92]
ARM GAS  /tmp/ccAYyziA.s 			page 21


 821 0116 DB00     		lsls	r3, r3, #3
 822 0118 7A69     		ldr	r2, [r7, #20]
 823 011a 1344     		add	r3, r3, r2
 824              		.loc 1 319 19 discriminator 3
 825 011c BA6C     		ldr	r2, [r7, #72]	@ float
 826 011e 1A60     		str	r2, [r3]	@ float
 320:./Libraries/CMSIS/DSP/Source/TransformFunctions/arm_cfft_radix2_f32.c ****       pSrc[2 * i + 1] = a1;
 827              		.loc 1 320 11 discriminator 3
 828 0120 FB6D     		ldr	r3, [r7, #92]
 829 0122 DB00     		lsls	r3, r3, #3
 830 0124 0433     		adds	r3, r3, #4
 831 0126 7A69     		ldr	r2, [r7, #20]
 832 0128 1344     		add	r3, r3, r2
 833              		.loc 1 320 23 discriminator 3
 834 012a 3A6C     		ldr	r2, [r7, #64]	@ float
 835 012c 1A60     		str	r2, [r3]	@ float
 321:./Libraries/CMSIS/DSP/Source/TransformFunctions/arm_cfft_radix2_f32.c **** 
 322:./Libraries/CMSIS/DSP/Source/TransformFunctions/arm_cfft_radix2_f32.c ****       pSrc[2 * l]     = p0 - p1;
 836              		.loc 1 322 11 discriminator 3
 837 012e FB69     		ldr	r3, [r7, #28]
 838 0130 DB00     		lsls	r3, r3, #3
 839 0132 7A69     		ldr	r2, [r7, #20]
 840 0134 1344     		add	r3, r3, r2
 841              		.loc 1 322 28 discriminator 3
 842 0136 97ED0E7A 		vldr.32	s14, [r7, #56]
 843 013a D7ED0C7A 		vldr.32	s15, [r7, #48]
 844 013e 77EE677A 		vsub.f32	s15, s14, s15
 845              		.loc 1 322 23 discriminator 3
 846 0142 C3ED007A 		vstr.32	s15, [r3]
 323:./Libraries/CMSIS/DSP/Source/TransformFunctions/arm_cfft_radix2_f32.c ****       pSrc[2 * l + 1] = p2 + p3;
 847              		.loc 1 323 11 discriminator 3
 848 0146 FB69     		ldr	r3, [r7, #28]
 849 0148 DB00     		lsls	r3, r3, #3
 850 014a 0433     		adds	r3, r3, #4
 851 014c 7A69     		ldr	r2, [r7, #20]
 852 014e 1344     		add	r3, r3, r2
 853              		.loc 1 323 28 discriminator 3
 854 0150 97ED0D7A 		vldr.32	s14, [r7, #52]
 855 0154 D7ED0B7A 		vldr.32	s15, [r7, #44]
 856 0158 77EE277A 		vadd.f32	s15, s14, s15
 857              		.loc 1 323 23 discriminator 3
 858 015c C3ED007A 		vstr.32	s15, [r3]
 301:./Libraries/CMSIS/DSP/Source/TransformFunctions/arm_cfft_radix2_f32.c ****    {
 859              		.loc 1 301 25 discriminator 3
 860 0160 FB6D     		ldr	r3, [r7, #92]
 861 0162 0133     		adds	r3, r3, #1
 862 0164 FB65     		str	r3, [r7, #92]
 863              	.L16:
 301:./Libraries/CMSIS/DSP/Source/TransformFunctions/arm_cfft_radix2_f32.c ****    {
 864              		.loc 1 301 4 discriminator 1
 865 0166 FA6D     		ldr	r2, [r7, #92]
 866 0168 3B6D     		ldr	r3, [r7, #80]
 867 016a 9A42     		cmp	r2, r3
 868 016c FFF459AF 		bcc	.L17
 324:./Libraries/CMSIS/DSP/Source/TransformFunctions/arm_cfft_radix2_f32.c ****    }                             // groups loop end
 325:./Libraries/CMSIS/DSP/Source/TransformFunctions/arm_cfft_radix2_f32.c **** 
 326:./Libraries/CMSIS/DSP/Source/TransformFunctions/arm_cfft_radix2_f32.c ****    twidCoefModifier <<= 1U;
ARM GAS  /tmp/ccAYyziA.s 			page 22


 869              		.loc 1 326 21
 870 0170 7B89     		ldrh	r3, [r7, #10]	@ movhi
 871 0172 5B00     		lsls	r3, r3, #1
 872 0174 7B81     		strh	r3, [r7, #10]	@ movhi
 327:./Libraries/CMSIS/DSP/Source/TransformFunctions/arm_cfft_radix2_f32.c **** 
 328:./Libraries/CMSIS/DSP/Source/TransformFunctions/arm_cfft_radix2_f32.c ****    // loop for stage
 329:./Libraries/CMSIS/DSP/Source/TransformFunctions/arm_cfft_radix2_f32.c ****    for (k = fftLen / 2; k > 2; k = k >> 1)
 873              		.loc 1 329 11
 874 0176 3B69     		ldr	r3, [r7, #16]
 875 0178 5B08     		lsrs	r3, r3, #1
 876 017a 7B65     		str	r3, [r7, #84]
 877              		.loc 1 329 4
 878 017c C0E0     		b	.L18
 879              	.L21:
 330:./Libraries/CMSIS/DSP/Source/TransformFunctions/arm_cfft_radix2_f32.c ****    {
 331:./Libraries/CMSIS/DSP/Source/TransformFunctions/arm_cfft_radix2_f32.c ****       n1 = n2;
 880              		.loc 1 331 10
 881 017e 3B6D     		ldr	r3, [r7, #80]
 882 0180 BB62     		str	r3, [r7, #40]
 332:./Libraries/CMSIS/DSP/Source/TransformFunctions/arm_cfft_radix2_f32.c ****       n2 = n2 >> 1;
 883              		.loc 1 332 10
 884 0182 3B6D     		ldr	r3, [r7, #80]
 885 0184 5B08     		lsrs	r3, r3, #1
 886 0186 3B65     		str	r3, [r7, #80]
 333:./Libraries/CMSIS/DSP/Source/TransformFunctions/arm_cfft_radix2_f32.c ****       ia = 0;
 887              		.loc 1 333 10
 888 0188 0023     		movs	r3, #0
 889 018a FB64     		str	r3, [r7, #76]
 334:./Libraries/CMSIS/DSP/Source/TransformFunctions/arm_cfft_radix2_f32.c **** 
 335:./Libraries/CMSIS/DSP/Source/TransformFunctions/arm_cfft_radix2_f32.c ****       // loop for groups
 336:./Libraries/CMSIS/DSP/Source/TransformFunctions/arm_cfft_radix2_f32.c ****       j = 0;
 890              		.loc 1 336 9
 891 018c 0023     		movs	r3, #0
 892 018e BB65     		str	r3, [r7, #88]
 893              	.L20:
 337:./Libraries/CMSIS/DSP/Source/TransformFunctions/arm_cfft_radix2_f32.c ****       do
 338:./Libraries/CMSIS/DSP/Source/TransformFunctions/arm_cfft_radix2_f32.c ****       {
 339:./Libraries/CMSIS/DSP/Source/TransformFunctions/arm_cfft_radix2_f32.c ****          cosVal = pCoef[ia * 2];
 894              		.loc 1 339 24
 895 0190 FB6C     		ldr	r3, [r7, #76]
 896 0192 DB00     		lsls	r3, r3, #3
 897 0194 FA68     		ldr	r2, [r7, #12]
 898 0196 1344     		add	r3, r3, r2
 899              		.loc 1 339 17
 900 0198 1B68     		ldr	r3, [r3]	@ float
 901 019a 7B62     		str	r3, [r7, #36]	@ float
 340:./Libraries/CMSIS/DSP/Source/TransformFunctions/arm_cfft_radix2_f32.c ****          sinVal = pCoef[(ia * 2) + 1];
 902              		.loc 1 340 24
 903 019c FB6C     		ldr	r3, [r7, #76]
 904 019e DB00     		lsls	r3, r3, #3
 905 01a0 0433     		adds	r3, r3, #4
 906 01a2 FA68     		ldr	r2, [r7, #12]
 907 01a4 1344     		add	r3, r3, r2
 908              		.loc 1 340 17
 909 01a6 1B68     		ldr	r3, [r3]	@ float
 910 01a8 3B62     		str	r3, [r7, #32]	@ float
 341:./Libraries/CMSIS/DSP/Source/TransformFunctions/arm_cfft_radix2_f32.c ****          ia += twidCoefModifier;
ARM GAS  /tmp/ccAYyziA.s 			page 23


 911              		.loc 1 341 13
 912 01aa 7B89     		ldrh	r3, [r7, #10]
 913 01ac FA6C     		ldr	r2, [r7, #76]
 914 01ae 1344     		add	r3, r3, r2
 915 01b0 FB64     		str	r3, [r7, #76]
 342:./Libraries/CMSIS/DSP/Source/TransformFunctions/arm_cfft_radix2_f32.c **** 
 343:./Libraries/CMSIS/DSP/Source/TransformFunctions/arm_cfft_radix2_f32.c ****          // loop for butterfly
 344:./Libraries/CMSIS/DSP/Source/TransformFunctions/arm_cfft_radix2_f32.c ****          i = j;
 916              		.loc 1 344 12
 917 01b2 BB6D     		ldr	r3, [r7, #88]
 918 01b4 FB65     		str	r3, [r7, #92]
 919              	.L19:
 345:./Libraries/CMSIS/DSP/Source/TransformFunctions/arm_cfft_radix2_f32.c ****          do
 346:./Libraries/CMSIS/DSP/Source/TransformFunctions/arm_cfft_radix2_f32.c ****          {
 347:./Libraries/CMSIS/DSP/Source/TransformFunctions/arm_cfft_radix2_f32.c ****             l = i + n2;
 920              		.loc 1 347 15 discriminator 1
 921 01b6 FA6D     		ldr	r2, [r7, #92]
 922 01b8 3B6D     		ldr	r3, [r7, #80]
 923 01ba 1344     		add	r3, r3, r2
 924 01bc FB61     		str	r3, [r7, #28]
 348:./Libraries/CMSIS/DSP/Source/TransformFunctions/arm_cfft_radix2_f32.c ****             a0 = pSrc[2 * i] + pSrc[2 * l];
 925              		.loc 1 348 22 discriminator 1
 926 01be FB6D     		ldr	r3, [r7, #92]
 927 01c0 DB00     		lsls	r3, r3, #3
 928 01c2 7A69     		ldr	r2, [r7, #20]
 929 01c4 1344     		add	r3, r3, r2
 930 01c6 93ED007A 		vldr.32	s14, [r3]
 931              		.loc 1 348 36 discriminator 1
 932 01ca FB69     		ldr	r3, [r7, #28]
 933 01cc DB00     		lsls	r3, r3, #3
 934 01ce 7A69     		ldr	r2, [r7, #20]
 935 01d0 1344     		add	r3, r3, r2
 936 01d2 D3ED007A 		vldr.32	s15, [r3]
 937              		.loc 1 348 16 discriminator 1
 938 01d6 77EE277A 		vadd.f32	s15, s14, s15
 939 01da C7ED127A 		vstr.32	s15, [r7, #72]
 349:./Libraries/CMSIS/DSP/Source/TransformFunctions/arm_cfft_radix2_f32.c ****             xt = pSrc[2 * i] - pSrc[2 * l];
 940              		.loc 1 349 22 discriminator 1
 941 01de FB6D     		ldr	r3, [r7, #92]
 942 01e0 DB00     		lsls	r3, r3, #3
 943 01e2 7A69     		ldr	r2, [r7, #20]
 944 01e4 1344     		add	r3, r3, r2
 945 01e6 93ED007A 		vldr.32	s14, [r3]
 946              		.loc 1 349 36 discriminator 1
 947 01ea FB69     		ldr	r3, [r7, #28]
 948 01ec DB00     		lsls	r3, r3, #3
 949 01ee 7A69     		ldr	r2, [r7, #20]
 950 01f0 1344     		add	r3, r3, r2
 951 01f2 D3ED007A 		vldr.32	s15, [r3]
 952              		.loc 1 349 16 discriminator 1
 953 01f6 77EE677A 		vsub.f32	s15, s14, s15
 954 01fa C7ED117A 		vstr.32	s15, [r7, #68]
 350:./Libraries/CMSIS/DSP/Source/TransformFunctions/arm_cfft_radix2_f32.c **** 
 351:./Libraries/CMSIS/DSP/Source/TransformFunctions/arm_cfft_radix2_f32.c ****             yt = pSrc[2 * i + 1] - pSrc[2 * l + 1];
 955              		.loc 1 351 22 discriminator 1
 956 01fe FB6D     		ldr	r3, [r7, #92]
 957 0200 DB00     		lsls	r3, r3, #3
ARM GAS  /tmp/ccAYyziA.s 			page 24


 958 0202 0433     		adds	r3, r3, #4
 959 0204 7A69     		ldr	r2, [r7, #20]
 960 0206 1344     		add	r3, r3, r2
 961 0208 93ED007A 		vldr.32	s14, [r3]
 962              		.loc 1 351 40 discriminator 1
 963 020c FB69     		ldr	r3, [r7, #28]
 964 020e DB00     		lsls	r3, r3, #3
 965 0210 0433     		adds	r3, r3, #4
 966 0212 7A69     		ldr	r2, [r7, #20]
 967 0214 1344     		add	r3, r3, r2
 968 0216 D3ED007A 		vldr.32	s15, [r3]
 969              		.loc 1 351 16 discriminator 1
 970 021a 77EE677A 		vsub.f32	s15, s14, s15
 971 021e C7ED0F7A 		vstr.32	s15, [r7, #60]
 352:./Libraries/CMSIS/DSP/Source/TransformFunctions/arm_cfft_radix2_f32.c ****             a1 = pSrc[2 * l + 1] + pSrc[2 * i + 1];
 972              		.loc 1 352 22 discriminator 1
 973 0222 FB69     		ldr	r3, [r7, #28]
 974 0224 DB00     		lsls	r3, r3, #3
 975 0226 0433     		adds	r3, r3, #4
 976 0228 7A69     		ldr	r2, [r7, #20]
 977 022a 1344     		add	r3, r3, r2
 978 022c 93ED007A 		vldr.32	s14, [r3]
 979              		.loc 1 352 40 discriminator 1
 980 0230 FB6D     		ldr	r3, [r7, #92]
 981 0232 DB00     		lsls	r3, r3, #3
 982 0234 0433     		adds	r3, r3, #4
 983 0236 7A69     		ldr	r2, [r7, #20]
 984 0238 1344     		add	r3, r3, r2
 985 023a D3ED007A 		vldr.32	s15, [r3]
 986              		.loc 1 352 16 discriminator 1
 987 023e 77EE277A 		vadd.f32	s15, s14, s15
 988 0242 C7ED107A 		vstr.32	s15, [r7, #64]
 353:./Libraries/CMSIS/DSP/Source/TransformFunctions/arm_cfft_radix2_f32.c **** 
 354:./Libraries/CMSIS/DSP/Source/TransformFunctions/arm_cfft_radix2_f32.c ****             p0 = xt * cosVal;
 989              		.loc 1 354 16 discriminator 1
 990 0246 97ED117A 		vldr.32	s14, [r7, #68]
 991 024a D7ED097A 		vldr.32	s15, [r7, #36]
 992 024e 67EE277A 		vmul.f32	s15, s14, s15
 993 0252 C7ED0E7A 		vstr.32	s15, [r7, #56]
 355:./Libraries/CMSIS/DSP/Source/TransformFunctions/arm_cfft_radix2_f32.c ****             p1 = yt * sinVal;
 994              		.loc 1 355 16 discriminator 1
 995 0256 97ED0F7A 		vldr.32	s14, [r7, #60]
 996 025a D7ED087A 		vldr.32	s15, [r7, #32]
 997 025e 67EE277A 		vmul.f32	s15, s14, s15
 998 0262 C7ED0C7A 		vstr.32	s15, [r7, #48]
 356:./Libraries/CMSIS/DSP/Source/TransformFunctions/arm_cfft_radix2_f32.c ****             p2 = yt * cosVal;
 999              		.loc 1 356 16 discriminator 1
 1000 0266 97ED0F7A 		vldr.32	s14, [r7, #60]
 1001 026a D7ED097A 		vldr.32	s15, [r7, #36]
 1002 026e 67EE277A 		vmul.f32	s15, s14, s15
 1003 0272 C7ED0D7A 		vstr.32	s15, [r7, #52]
 357:./Libraries/CMSIS/DSP/Source/TransformFunctions/arm_cfft_radix2_f32.c ****             p3 = xt * sinVal;
 1004              		.loc 1 357 16 discriminator 1
 1005 0276 97ED117A 		vldr.32	s14, [r7, #68]
 1006 027a D7ED087A 		vldr.32	s15, [r7, #32]
 1007 027e 67EE277A 		vmul.f32	s15, s14, s15
 1008 0282 C7ED0B7A 		vstr.32	s15, [r7, #44]
ARM GAS  /tmp/ccAYyziA.s 			page 25


 358:./Libraries/CMSIS/DSP/Source/TransformFunctions/arm_cfft_radix2_f32.c **** 
 359:./Libraries/CMSIS/DSP/Source/TransformFunctions/arm_cfft_radix2_f32.c ****             pSrc[2 * i] = a0;
 1009              		.loc 1 359 17 discriminator 1
 1010 0286 FB6D     		ldr	r3, [r7, #92]
 1011 0288 DB00     		lsls	r3, r3, #3
 1012 028a 7A69     		ldr	r2, [r7, #20]
 1013 028c 1344     		add	r3, r3, r2
 1014              		.loc 1 359 25 discriminator 1
 1015 028e BA6C     		ldr	r2, [r7, #72]	@ float
 1016 0290 1A60     		str	r2, [r3]	@ float
 360:./Libraries/CMSIS/DSP/Source/TransformFunctions/arm_cfft_radix2_f32.c ****             pSrc[2 * i + 1] = a1;
 1017              		.loc 1 360 17 discriminator 1
 1018 0292 FB6D     		ldr	r3, [r7, #92]
 1019 0294 DB00     		lsls	r3, r3, #3
 1020 0296 0433     		adds	r3, r3, #4
 1021 0298 7A69     		ldr	r2, [r7, #20]
 1022 029a 1344     		add	r3, r3, r2
 1023              		.loc 1 360 29 discriminator 1
 1024 029c 3A6C     		ldr	r2, [r7, #64]	@ float
 1025 029e 1A60     		str	r2, [r3]	@ float
 361:./Libraries/CMSIS/DSP/Source/TransformFunctions/arm_cfft_radix2_f32.c **** 
 362:./Libraries/CMSIS/DSP/Source/TransformFunctions/arm_cfft_radix2_f32.c ****             pSrc[2 * l]     = p0 - p1;
 1026              		.loc 1 362 17 discriminator 1
 1027 02a0 FB69     		ldr	r3, [r7, #28]
 1028 02a2 DB00     		lsls	r3, r3, #3
 1029 02a4 7A69     		ldr	r2, [r7, #20]
 1030 02a6 1344     		add	r3, r3, r2
 1031              		.loc 1 362 34 discriminator 1
 1032 02a8 97ED0E7A 		vldr.32	s14, [r7, #56]
 1033 02ac D7ED0C7A 		vldr.32	s15, [r7, #48]
 1034 02b0 77EE677A 		vsub.f32	s15, s14, s15
 1035              		.loc 1 362 29 discriminator 1
 1036 02b4 C3ED007A 		vstr.32	s15, [r3]
 363:./Libraries/CMSIS/DSP/Source/TransformFunctions/arm_cfft_radix2_f32.c ****             pSrc[2 * l + 1] = p2 + p3;
 1037              		.loc 1 363 17 discriminator 1
 1038 02b8 FB69     		ldr	r3, [r7, #28]
 1039 02ba DB00     		lsls	r3, r3, #3
 1040 02bc 0433     		adds	r3, r3, #4
 1041 02be 7A69     		ldr	r2, [r7, #20]
 1042 02c0 1344     		add	r3, r3, r2
 1043              		.loc 1 363 34 discriminator 1
 1044 02c2 97ED0D7A 		vldr.32	s14, [r7, #52]
 1045 02c6 D7ED0B7A 		vldr.32	s15, [r7, #44]
 1046 02ca 77EE277A 		vadd.f32	s15, s14, s15
 1047              		.loc 1 363 29 discriminator 1
 1048 02ce C3ED007A 		vstr.32	s15, [r3]
 364:./Libraries/CMSIS/DSP/Source/TransformFunctions/arm_cfft_radix2_f32.c **** 
 365:./Libraries/CMSIS/DSP/Source/TransformFunctions/arm_cfft_radix2_f32.c ****             i += n1;
 1049              		.loc 1 365 15 discriminator 1
 1050 02d2 FA6D     		ldr	r2, [r7, #92]
 1051 02d4 BB6A     		ldr	r3, [r7, #40]
 1052 02d6 1344     		add	r3, r3, r2
 1053 02d8 FB65     		str	r3, [r7, #92]
 366:./Libraries/CMSIS/DSP/Source/TransformFunctions/arm_cfft_radix2_f32.c ****          } while ( i < fftLen );                 // butterfly loop end
 1054              		.loc 1 366 10 discriminator 1
 1055 02da FA6D     		ldr	r2, [r7, #92]
 1056 02dc 3B69     		ldr	r3, [r7, #16]
ARM GAS  /tmp/ccAYyziA.s 			page 26


 1057 02de 9A42     		cmp	r2, r3
 1058 02e0 FFF469AF 		bcc	.L19
 367:./Libraries/CMSIS/DSP/Source/TransformFunctions/arm_cfft_radix2_f32.c ****          j++;
 1059              		.loc 1 367 11
 1060 02e4 BB6D     		ldr	r3, [r7, #88]
 1061 02e6 0133     		adds	r3, r3, #1
 1062 02e8 BB65     		str	r3, [r7, #88]
 368:./Libraries/CMSIS/DSP/Source/TransformFunctions/arm_cfft_radix2_f32.c ****       } while (j < n2);                      // groups loop end
 1063              		.loc 1 368 7
 1064 02ea BA6D     		ldr	r2, [r7, #88]
 1065 02ec 3B6D     		ldr	r3, [r7, #80]
 1066 02ee 9A42     		cmp	r2, r3
 1067 02f0 FFF44EAF 		bcc	.L20
 369:./Libraries/CMSIS/DSP/Source/TransformFunctions/arm_cfft_radix2_f32.c **** 
 370:./Libraries/CMSIS/DSP/Source/TransformFunctions/arm_cfft_radix2_f32.c ****       twidCoefModifier <<= 1U;
 1068              		.loc 1 370 24 discriminator 2
 1069 02f4 7B89     		ldrh	r3, [r7, #10]	@ movhi
 1070 02f6 5B00     		lsls	r3, r3, #1
 1071 02f8 7B81     		strh	r3, [r7, #10]	@ movhi
 329:./Libraries/CMSIS/DSP/Source/TransformFunctions/arm_cfft_radix2_f32.c ****    {
 1072              		.loc 1 329 34 discriminator 2
 1073 02fa 7B6D     		ldr	r3, [r7, #84]
 1074 02fc 5B08     		lsrs	r3, r3, #1
 1075 02fe 7B65     		str	r3, [r7, #84]
 1076              	.L18:
 329:./Libraries/CMSIS/DSP/Source/TransformFunctions/arm_cfft_radix2_f32.c ****    {
 1077              		.loc 1 329 4 discriminator 1
 1078 0300 7B6D     		ldr	r3, [r7, #84]
 1079 0302 022B     		cmp	r3, #2
 1080 0304 3FF63BAF 		bhi	.L21
 371:./Libraries/CMSIS/DSP/Source/TransformFunctions/arm_cfft_radix2_f32.c ****    }                             // stages loop end
 372:./Libraries/CMSIS/DSP/Source/TransformFunctions/arm_cfft_radix2_f32.c **** 
 373:./Libraries/CMSIS/DSP/Source/TransformFunctions/arm_cfft_radix2_f32.c ****    // loop for butterfly
 374:./Libraries/CMSIS/DSP/Source/TransformFunctions/arm_cfft_radix2_f32.c ****    for (i = 0; i < fftLen; i += 2)
 1081              		.loc 1 374 11
 1082 0308 0023     		movs	r3, #0
 1083 030a FB65     		str	r3, [r7, #92]
 1084              		.loc 1 374 4
 1085 030c 83E0     		b	.L22
 1086              	.L23:
 375:./Libraries/CMSIS/DSP/Source/TransformFunctions/arm_cfft_radix2_f32.c ****    {
 376:./Libraries/CMSIS/DSP/Source/TransformFunctions/arm_cfft_radix2_f32.c ****       a0 = pSrc[2 * i] + pSrc[2 * i + 2];
 1087              		.loc 1 376 16 discriminator 3
 1088 030e FB6D     		ldr	r3, [r7, #92]
 1089 0310 DB00     		lsls	r3, r3, #3
 1090 0312 7A69     		ldr	r2, [r7, #20]
 1091 0314 1344     		add	r3, r3, r2
 1092 0316 93ED007A 		vldr.32	s14, [r3]
 1093              		.loc 1 376 30 discriminator 3
 1094 031a FB6D     		ldr	r3, [r7, #92]
 1095 031c 0133     		adds	r3, r3, #1
 1096 031e DB00     		lsls	r3, r3, #3
 1097 0320 7A69     		ldr	r2, [r7, #20]
 1098 0322 1344     		add	r3, r3, r2
 1099 0324 D3ED007A 		vldr.32	s15, [r3]
 1100              		.loc 1 376 10 discriminator 3
 1101 0328 77EE277A 		vadd.f32	s15, s14, s15
ARM GAS  /tmp/ccAYyziA.s 			page 27


 1102 032c C7ED127A 		vstr.32	s15, [r7, #72]
 377:./Libraries/CMSIS/DSP/Source/TransformFunctions/arm_cfft_radix2_f32.c ****       xt = pSrc[2 * i] - pSrc[2 * i + 2];
 1103              		.loc 1 377 16 discriminator 3
 1104 0330 FB6D     		ldr	r3, [r7, #92]
 1105 0332 DB00     		lsls	r3, r3, #3
 1106 0334 7A69     		ldr	r2, [r7, #20]
 1107 0336 1344     		add	r3, r3, r2
 1108 0338 93ED007A 		vldr.32	s14, [r3]
 1109              		.loc 1 377 30 discriminator 3
 1110 033c FB6D     		ldr	r3, [r7, #92]
 1111 033e 0133     		adds	r3, r3, #1
 1112 0340 DB00     		lsls	r3, r3, #3
 1113 0342 7A69     		ldr	r2, [r7, #20]
 1114 0344 1344     		add	r3, r3, r2
 1115 0346 D3ED007A 		vldr.32	s15, [r3]
 1116              		.loc 1 377 10 discriminator 3
 1117 034a 77EE677A 		vsub.f32	s15, s14, s15
 1118 034e C7ED117A 		vstr.32	s15, [r7, #68]
 378:./Libraries/CMSIS/DSP/Source/TransformFunctions/arm_cfft_radix2_f32.c **** 
 379:./Libraries/CMSIS/DSP/Source/TransformFunctions/arm_cfft_radix2_f32.c ****       a1 = pSrc[2 * i + 3] + pSrc[2 * i + 1];
 1119              		.loc 1 379 16 discriminator 3
 1120 0352 FB6D     		ldr	r3, [r7, #92]
 1121 0354 DB00     		lsls	r3, r3, #3
 1122 0356 0C33     		adds	r3, r3, #12
 1123 0358 7A69     		ldr	r2, [r7, #20]
 1124 035a 1344     		add	r3, r3, r2
 1125 035c 93ED007A 		vldr.32	s14, [r3]
 1126              		.loc 1 379 34 discriminator 3
 1127 0360 FB6D     		ldr	r3, [r7, #92]
 1128 0362 DB00     		lsls	r3, r3, #3
 1129 0364 0433     		adds	r3, r3, #4
 1130 0366 7A69     		ldr	r2, [r7, #20]
 1131 0368 1344     		add	r3, r3, r2
 1132 036a D3ED007A 		vldr.32	s15, [r3]
 1133              		.loc 1 379 10 discriminator 3
 1134 036e 77EE277A 		vadd.f32	s15, s14, s15
 1135 0372 C7ED107A 		vstr.32	s15, [r7, #64]
 380:./Libraries/CMSIS/DSP/Source/TransformFunctions/arm_cfft_radix2_f32.c ****       yt = pSrc[2 * i + 1] - pSrc[2 * i + 3];
 1136              		.loc 1 380 16 discriminator 3
 1137 0376 FB6D     		ldr	r3, [r7, #92]
 1138 0378 DB00     		lsls	r3, r3, #3
 1139 037a 0433     		adds	r3, r3, #4
 1140 037c 7A69     		ldr	r2, [r7, #20]
 1141 037e 1344     		add	r3, r3, r2
 1142 0380 93ED007A 		vldr.32	s14, [r3]
 1143              		.loc 1 380 34 discriminator 3
 1144 0384 FB6D     		ldr	r3, [r7, #92]
 1145 0386 DB00     		lsls	r3, r3, #3
 1146 0388 0C33     		adds	r3, r3, #12
 1147 038a 7A69     		ldr	r2, [r7, #20]
 1148 038c 1344     		add	r3, r3, r2
 1149 038e D3ED007A 		vldr.32	s15, [r3]
 1150              		.loc 1 380 10 discriminator 3
 1151 0392 77EE677A 		vsub.f32	s15, s14, s15
 1152 0396 C7ED0F7A 		vstr.32	s15, [r7, #60]
 381:./Libraries/CMSIS/DSP/Source/TransformFunctions/arm_cfft_radix2_f32.c **** 
 382:./Libraries/CMSIS/DSP/Source/TransformFunctions/arm_cfft_radix2_f32.c ****       p0 = a0 * onebyfftLen;
ARM GAS  /tmp/ccAYyziA.s 			page 28


 1153              		.loc 1 382 10 discriminator 3
 1154 039a 97ED127A 		vldr.32	s14, [r7, #72]
 1155 039e D7ED017A 		vldr.32	s15, [r7, #4]
 1156 03a2 67EE277A 		vmul.f32	s15, s14, s15
 1157 03a6 C7ED0E7A 		vstr.32	s15, [r7, #56]
 383:./Libraries/CMSIS/DSP/Source/TransformFunctions/arm_cfft_radix2_f32.c ****       p2 = xt * onebyfftLen;
 1158              		.loc 1 383 10 discriminator 3
 1159 03aa 97ED117A 		vldr.32	s14, [r7, #68]
 1160 03ae D7ED017A 		vldr.32	s15, [r7, #4]
 1161 03b2 67EE277A 		vmul.f32	s15, s14, s15
 1162 03b6 C7ED0D7A 		vstr.32	s15, [r7, #52]
 384:./Libraries/CMSIS/DSP/Source/TransformFunctions/arm_cfft_radix2_f32.c ****       p1 = a1 * onebyfftLen;
 1163              		.loc 1 384 10 discriminator 3
 1164 03ba 97ED107A 		vldr.32	s14, [r7, #64]
 1165 03be D7ED017A 		vldr.32	s15, [r7, #4]
 1166 03c2 67EE277A 		vmul.f32	s15, s14, s15
 1167 03c6 C7ED0C7A 		vstr.32	s15, [r7, #48]
 385:./Libraries/CMSIS/DSP/Source/TransformFunctions/arm_cfft_radix2_f32.c ****       p3 = yt * onebyfftLen;
 1168              		.loc 1 385 10 discriminator 3
 1169 03ca 97ED0F7A 		vldr.32	s14, [r7, #60]
 1170 03ce D7ED017A 		vldr.32	s15, [r7, #4]
 1171 03d2 67EE277A 		vmul.f32	s15, s14, s15
 1172 03d6 C7ED0B7A 		vstr.32	s15, [r7, #44]
 386:./Libraries/CMSIS/DSP/Source/TransformFunctions/arm_cfft_radix2_f32.c **** 
 387:./Libraries/CMSIS/DSP/Source/TransformFunctions/arm_cfft_radix2_f32.c ****       pSrc[2 * i] = p0;
 1173              		.loc 1 387 11 discriminator 3
 1174 03da FB6D     		ldr	r3, [r7, #92]
 1175 03dc DB00     		lsls	r3, r3, #3
 1176 03de 7A69     		ldr	r2, [r7, #20]
 1177 03e0 1344     		add	r3, r3, r2
 1178              		.loc 1 387 19 discriminator 3
 1179 03e2 BA6B     		ldr	r2, [r7, #56]	@ float
 1180 03e4 1A60     		str	r2, [r3]	@ float
 388:./Libraries/CMSIS/DSP/Source/TransformFunctions/arm_cfft_radix2_f32.c ****       pSrc[2 * i + 1] = p1;
 1181              		.loc 1 388 11 discriminator 3
 1182 03e6 FB6D     		ldr	r3, [r7, #92]
 1183 03e8 DB00     		lsls	r3, r3, #3
 1184 03ea 0433     		adds	r3, r3, #4
 1185 03ec 7A69     		ldr	r2, [r7, #20]
 1186 03ee 1344     		add	r3, r3, r2
 1187              		.loc 1 388 23 discriminator 3
 1188 03f0 3A6B     		ldr	r2, [r7, #48]	@ float
 1189 03f2 1A60     		str	r2, [r3]	@ float
 389:./Libraries/CMSIS/DSP/Source/TransformFunctions/arm_cfft_radix2_f32.c ****       pSrc[2 * i + 2] = p2;
 1190              		.loc 1 389 11 discriminator 3
 1191 03f4 FB6D     		ldr	r3, [r7, #92]
 1192 03f6 0133     		adds	r3, r3, #1
 1193 03f8 DB00     		lsls	r3, r3, #3
 1194 03fa 7A69     		ldr	r2, [r7, #20]
 1195 03fc 1344     		add	r3, r3, r2
 1196              		.loc 1 389 23 discriminator 3
 1197 03fe 7A6B     		ldr	r2, [r7, #52]	@ float
 1198 0400 1A60     		str	r2, [r3]	@ float
 390:./Libraries/CMSIS/DSP/Source/TransformFunctions/arm_cfft_radix2_f32.c ****       pSrc[2 * i + 3] = p3;
 1199              		.loc 1 390 11 discriminator 3
 1200 0402 FB6D     		ldr	r3, [r7, #92]
 1201 0404 DB00     		lsls	r3, r3, #3
ARM GAS  /tmp/ccAYyziA.s 			page 29


 1202 0406 0C33     		adds	r3, r3, #12
 1203 0408 7A69     		ldr	r2, [r7, #20]
 1204 040a 1344     		add	r3, r3, r2
 1205              		.loc 1 390 23 discriminator 3
 1206 040c FA6A     		ldr	r2, [r7, #44]	@ float
 1207 040e 1A60     		str	r2, [r3]	@ float
 374:./Libraries/CMSIS/DSP/Source/TransformFunctions/arm_cfft_radix2_f32.c ****    {
 1208              		.loc 1 374 30 discriminator 3
 1209 0410 FB6D     		ldr	r3, [r7, #92]
 1210 0412 0233     		adds	r3, r3, #2
 1211 0414 FB65     		str	r3, [r7, #92]
 1212              	.L22:
 374:./Libraries/CMSIS/DSP/Source/TransformFunctions/arm_cfft_radix2_f32.c ****    {
 1213              		.loc 1 374 4 discriminator 1
 1214 0416 FA6D     		ldr	r2, [r7, #92]
 1215 0418 3B69     		ldr	r3, [r7, #16]
 1216 041a 9A42     		cmp	r2, r3
 1217 041c FFF477AF 		bcc	.L23
 391:./Libraries/CMSIS/DSP/Source/TransformFunctions/arm_cfft_radix2_f32.c ****    }                             // butterfly loop end
 392:./Libraries/CMSIS/DSP/Source/TransformFunctions/arm_cfft_radix2_f32.c **** 
 393:./Libraries/CMSIS/DSP/Source/TransformFunctions/arm_cfft_radix2_f32.c **** #else /* #if defined (ARM_MATH_DSP) */
 394:./Libraries/CMSIS/DSP/Source/TransformFunctions/arm_cfft_radix2_f32.c **** 
 395:./Libraries/CMSIS/DSP/Source/TransformFunctions/arm_cfft_radix2_f32.c ****    n2 = fftLen;
 396:./Libraries/CMSIS/DSP/Source/TransformFunctions/arm_cfft_radix2_f32.c **** 
 397:./Libraries/CMSIS/DSP/Source/TransformFunctions/arm_cfft_radix2_f32.c ****    // loop for stage
 398:./Libraries/CMSIS/DSP/Source/TransformFunctions/arm_cfft_radix2_f32.c ****    for (k = fftLen; k > 2; k = k >> 1)
 399:./Libraries/CMSIS/DSP/Source/TransformFunctions/arm_cfft_radix2_f32.c ****    {
 400:./Libraries/CMSIS/DSP/Source/TransformFunctions/arm_cfft_radix2_f32.c ****       n1 = n2;
 401:./Libraries/CMSIS/DSP/Source/TransformFunctions/arm_cfft_radix2_f32.c ****       n2 = n2 >> 1;
 402:./Libraries/CMSIS/DSP/Source/TransformFunctions/arm_cfft_radix2_f32.c ****       ia = 0;
 403:./Libraries/CMSIS/DSP/Source/TransformFunctions/arm_cfft_radix2_f32.c **** 
 404:./Libraries/CMSIS/DSP/Source/TransformFunctions/arm_cfft_radix2_f32.c ****       // loop for groups
 405:./Libraries/CMSIS/DSP/Source/TransformFunctions/arm_cfft_radix2_f32.c ****       j = 0;
 406:./Libraries/CMSIS/DSP/Source/TransformFunctions/arm_cfft_radix2_f32.c ****       do
 407:./Libraries/CMSIS/DSP/Source/TransformFunctions/arm_cfft_radix2_f32.c ****       {
 408:./Libraries/CMSIS/DSP/Source/TransformFunctions/arm_cfft_radix2_f32.c ****          cosVal = pCoef[ia * 2];
 409:./Libraries/CMSIS/DSP/Source/TransformFunctions/arm_cfft_radix2_f32.c ****          sinVal = pCoef[(ia * 2) + 1];
 410:./Libraries/CMSIS/DSP/Source/TransformFunctions/arm_cfft_radix2_f32.c ****          ia = ia + twidCoefModifier;
 411:./Libraries/CMSIS/DSP/Source/TransformFunctions/arm_cfft_radix2_f32.c **** 
 412:./Libraries/CMSIS/DSP/Source/TransformFunctions/arm_cfft_radix2_f32.c ****          // loop for butterfly
 413:./Libraries/CMSIS/DSP/Source/TransformFunctions/arm_cfft_radix2_f32.c ****          i = j;
 414:./Libraries/CMSIS/DSP/Source/TransformFunctions/arm_cfft_radix2_f32.c ****          do
 415:./Libraries/CMSIS/DSP/Source/TransformFunctions/arm_cfft_radix2_f32.c ****          {
 416:./Libraries/CMSIS/DSP/Source/TransformFunctions/arm_cfft_radix2_f32.c ****             l = i + n2;
 417:./Libraries/CMSIS/DSP/Source/TransformFunctions/arm_cfft_radix2_f32.c ****             a0 = pSrc[2 * i] + pSrc[2 * l];
 418:./Libraries/CMSIS/DSP/Source/TransformFunctions/arm_cfft_radix2_f32.c ****             xt = pSrc[2 * i] - pSrc[2 * l];
 419:./Libraries/CMSIS/DSP/Source/TransformFunctions/arm_cfft_radix2_f32.c **** 
 420:./Libraries/CMSIS/DSP/Source/TransformFunctions/arm_cfft_radix2_f32.c ****             yt = pSrc[2 * i + 1] - pSrc[2 * l + 1];
 421:./Libraries/CMSIS/DSP/Source/TransformFunctions/arm_cfft_radix2_f32.c ****             a1 = pSrc[2 * l + 1] + pSrc[2 * i + 1];
 422:./Libraries/CMSIS/DSP/Source/TransformFunctions/arm_cfft_radix2_f32.c **** 
 423:./Libraries/CMSIS/DSP/Source/TransformFunctions/arm_cfft_radix2_f32.c ****             p0 = xt * cosVal;
 424:./Libraries/CMSIS/DSP/Source/TransformFunctions/arm_cfft_radix2_f32.c ****             p1 = yt * sinVal;
 425:./Libraries/CMSIS/DSP/Source/TransformFunctions/arm_cfft_radix2_f32.c ****             p2 = yt * cosVal;
 426:./Libraries/CMSIS/DSP/Source/TransformFunctions/arm_cfft_radix2_f32.c ****             p3 = xt * sinVal;
 427:./Libraries/CMSIS/DSP/Source/TransformFunctions/arm_cfft_radix2_f32.c **** 
 428:./Libraries/CMSIS/DSP/Source/TransformFunctions/arm_cfft_radix2_f32.c ****             pSrc[2 * i] = a0;
 429:./Libraries/CMSIS/DSP/Source/TransformFunctions/arm_cfft_radix2_f32.c ****             pSrc[2 * i + 1] = a1;
ARM GAS  /tmp/ccAYyziA.s 			page 30


 430:./Libraries/CMSIS/DSP/Source/TransformFunctions/arm_cfft_radix2_f32.c **** 
 431:./Libraries/CMSIS/DSP/Source/TransformFunctions/arm_cfft_radix2_f32.c ****             pSrc[2 * l]     = p0 - p1;
 432:./Libraries/CMSIS/DSP/Source/TransformFunctions/arm_cfft_radix2_f32.c ****             pSrc[2 * l + 1] = p2 + p3;
 433:./Libraries/CMSIS/DSP/Source/TransformFunctions/arm_cfft_radix2_f32.c **** 
 434:./Libraries/CMSIS/DSP/Source/TransformFunctions/arm_cfft_radix2_f32.c ****             i += n1;
 435:./Libraries/CMSIS/DSP/Source/TransformFunctions/arm_cfft_radix2_f32.c ****          } while ( i < fftLen );                    // butterfly loop end
 436:./Libraries/CMSIS/DSP/Source/TransformFunctions/arm_cfft_radix2_f32.c ****          j++;
 437:./Libraries/CMSIS/DSP/Source/TransformFunctions/arm_cfft_radix2_f32.c ****       } while ( j < n2 );                      // groups loop end
 438:./Libraries/CMSIS/DSP/Source/TransformFunctions/arm_cfft_radix2_f32.c **** 
 439:./Libraries/CMSIS/DSP/Source/TransformFunctions/arm_cfft_radix2_f32.c ****       twidCoefModifier = twidCoefModifier << 1U;
 440:./Libraries/CMSIS/DSP/Source/TransformFunctions/arm_cfft_radix2_f32.c ****    }                             // stages loop end
 441:./Libraries/CMSIS/DSP/Source/TransformFunctions/arm_cfft_radix2_f32.c **** 
 442:./Libraries/CMSIS/DSP/Source/TransformFunctions/arm_cfft_radix2_f32.c ****    n1 = n2;
 443:./Libraries/CMSIS/DSP/Source/TransformFunctions/arm_cfft_radix2_f32.c ****    n2 = n2 >> 1;
 444:./Libraries/CMSIS/DSP/Source/TransformFunctions/arm_cfft_radix2_f32.c **** 
 445:./Libraries/CMSIS/DSP/Source/TransformFunctions/arm_cfft_radix2_f32.c ****    // loop for butterfly
 446:./Libraries/CMSIS/DSP/Source/TransformFunctions/arm_cfft_radix2_f32.c ****    for (i = 0; i < fftLen; i += n1)
 447:./Libraries/CMSIS/DSP/Source/TransformFunctions/arm_cfft_radix2_f32.c ****    {
 448:./Libraries/CMSIS/DSP/Source/TransformFunctions/arm_cfft_radix2_f32.c ****       l = i + n2;
 449:./Libraries/CMSIS/DSP/Source/TransformFunctions/arm_cfft_radix2_f32.c **** 
 450:./Libraries/CMSIS/DSP/Source/TransformFunctions/arm_cfft_radix2_f32.c ****       a0 = pSrc[2 * i] + pSrc[2 * l];
 451:./Libraries/CMSIS/DSP/Source/TransformFunctions/arm_cfft_radix2_f32.c ****       xt = pSrc[2 * i] - pSrc[2 * l];
 452:./Libraries/CMSIS/DSP/Source/TransformFunctions/arm_cfft_radix2_f32.c **** 
 453:./Libraries/CMSIS/DSP/Source/TransformFunctions/arm_cfft_radix2_f32.c ****       a1 = pSrc[2 * l + 1] + pSrc[2 * i + 1];
 454:./Libraries/CMSIS/DSP/Source/TransformFunctions/arm_cfft_radix2_f32.c ****       yt = pSrc[2 * i + 1] - pSrc[2 * l + 1];
 455:./Libraries/CMSIS/DSP/Source/TransformFunctions/arm_cfft_radix2_f32.c **** 
 456:./Libraries/CMSIS/DSP/Source/TransformFunctions/arm_cfft_radix2_f32.c ****       p0 = a0 * onebyfftLen;
 457:./Libraries/CMSIS/DSP/Source/TransformFunctions/arm_cfft_radix2_f32.c ****       p2 = xt * onebyfftLen;
 458:./Libraries/CMSIS/DSP/Source/TransformFunctions/arm_cfft_radix2_f32.c ****       p1 = a1 * onebyfftLen;
 459:./Libraries/CMSIS/DSP/Source/TransformFunctions/arm_cfft_radix2_f32.c ****       p3 = yt * onebyfftLen;
 460:./Libraries/CMSIS/DSP/Source/TransformFunctions/arm_cfft_radix2_f32.c **** 
 461:./Libraries/CMSIS/DSP/Source/TransformFunctions/arm_cfft_radix2_f32.c ****       pSrc[2 * i] = p0;
 462:./Libraries/CMSIS/DSP/Source/TransformFunctions/arm_cfft_radix2_f32.c ****       pSrc[2 * l] = p2;
 463:./Libraries/CMSIS/DSP/Source/TransformFunctions/arm_cfft_radix2_f32.c **** 
 464:./Libraries/CMSIS/DSP/Source/TransformFunctions/arm_cfft_radix2_f32.c ****       pSrc[2 * i + 1] = p1;
 465:./Libraries/CMSIS/DSP/Source/TransformFunctions/arm_cfft_radix2_f32.c ****       pSrc[2 * l + 1] = p3;
 466:./Libraries/CMSIS/DSP/Source/TransformFunctions/arm_cfft_radix2_f32.c ****    }                             // butterfly loop end
 467:./Libraries/CMSIS/DSP/Source/TransformFunctions/arm_cfft_radix2_f32.c **** 
 468:./Libraries/CMSIS/DSP/Source/TransformFunctions/arm_cfft_radix2_f32.c **** #endif /* #if defined (ARM_MATH_DSP) */
 469:./Libraries/CMSIS/DSP/Source/TransformFunctions/arm_cfft_radix2_f32.c **** 
 470:./Libraries/CMSIS/DSP/Source/TransformFunctions/arm_cfft_radix2_f32.c **** }
 1218              		.loc 1 470 1
 1219 0420 00BF     		nop
 1220 0422 00BF     		nop
 1221 0424 6437     		adds	r7, r7, #100
 1222              	.LCFI14:
 1223              		.cfi_def_cfa_offset 4
 1224 0426 BD46     		mov	sp, r7
 1225              	.LCFI15:
 1226              		.cfi_def_cfa_register 13
 1227              		@ sp needed
 1228 0428 5DF8047B 		ldr	r7, [sp], #4
 1229              	.LCFI16:
 1230              		.cfi_restore 7
 1231              		.cfi_def_cfa_offset 0
 1232 042c 7047     		bx	lr
 1233              		.cfi_endproc
ARM GAS  /tmp/ccAYyziA.s 			page 31


 1234              	.LFE147:
 1236              		.text
 1237              	.Letext0:
 1238              		.file 2 "/usr/lib/gcc/arm-none-eabi/9.2.1/include/stdint.h"
 1239              		.file 3 "/usr/lib/gcc/arm-none-eabi/9.2.1/include/stddef.h"
 1240              		.file 4 "/usr/include/newlib/sys/_types.h"
 1241              		.file 5 "/usr/include/newlib/sys/reent.h"
 1242              		.file 6 "/usr/include/newlib/sys/lock.h"
 1243              		.file 7 "/usr/include/newlib/math.h"
 1244              		.file 8 "./Libraries/CMSIS/DSP/Include/arm_math.h"
ARM GAS  /tmp/ccAYyziA.s 			page 32

