ARM GAS  /tmp/cc7bvgWg.s 			page 1


   1              		.cpu cortex-m7
   2              		.eabi_attribute 28, 1
   3              		.eabi_attribute 20, 1
   4              		.eabi_attribute 21, 1
   5              		.eabi_attribute 23, 3
   6              		.eabi_attribute 24, 1
   7              		.eabi_attribute 25, 1
   8              		.eabi_attribute 26, 1
   9              		.eabi_attribute 30, 6
  10              		.eabi_attribute 34, 1
  11              		.eabi_attribute 18, 4
  12              		.file	"arm_cfft_radix8_f32.c"
  13              		.text
  14              	.Ltext0:
  15              		.cfi_sections	.debug_frame
  16              		.section	.text.arm_radix8_butterfly_f32,"ax",%progbits
  17              		.align	1
  18              		.global	arm_radix8_butterfly_f32
  19              		.arch armv7e-m
  20              		.syntax unified
  21              		.thumb
  22              		.thumb_func
  23              		.fpu fpv5-d16
  25              	arm_radix8_butterfly_f32:
  26              	.LFB145:
  27              		.file 1 "./Libraries/CMSIS/DSP/Source/TransformFunctions/arm_cfft_radix8_f32.c"
   1:./Libraries/CMSIS/DSP/Source/TransformFunctions/arm_cfft_radix8_f32.c **** /* ----------------------------------------------------------------------
   2:./Libraries/CMSIS/DSP/Source/TransformFunctions/arm_cfft_radix8_f32.c ****  * Project:      CMSIS DSP Library
   3:./Libraries/CMSIS/DSP/Source/TransformFunctions/arm_cfft_radix8_f32.c ****  * Title:        arm_cfft_radix8_f32.c
   4:./Libraries/CMSIS/DSP/Source/TransformFunctions/arm_cfft_radix8_f32.c ****  * Description:  Radix-8 Decimation in Frequency CFFT & CIFFT Floating point processing function
   5:./Libraries/CMSIS/DSP/Source/TransformFunctions/arm_cfft_radix8_f32.c ****  *
   6:./Libraries/CMSIS/DSP/Source/TransformFunctions/arm_cfft_radix8_f32.c ****  * $Date:        18. March 2019
   7:./Libraries/CMSIS/DSP/Source/TransformFunctions/arm_cfft_radix8_f32.c ****  * $Revision:    V1.6.0
   8:./Libraries/CMSIS/DSP/Source/TransformFunctions/arm_cfft_radix8_f32.c ****  *
   9:./Libraries/CMSIS/DSP/Source/TransformFunctions/arm_cfft_radix8_f32.c ****  * Target Processor: Cortex-M cores
  10:./Libraries/CMSIS/DSP/Source/TransformFunctions/arm_cfft_radix8_f32.c ****  * -------------------------------------------------------------------- */
  11:./Libraries/CMSIS/DSP/Source/TransformFunctions/arm_cfft_radix8_f32.c **** /*
  12:./Libraries/CMSIS/DSP/Source/TransformFunctions/arm_cfft_radix8_f32.c ****  * Copyright (C) 2010-2019 ARM Limited or its affiliates. All rights reserved.
  13:./Libraries/CMSIS/DSP/Source/TransformFunctions/arm_cfft_radix8_f32.c ****  *
  14:./Libraries/CMSIS/DSP/Source/TransformFunctions/arm_cfft_radix8_f32.c ****  * SPDX-License-Identifier: Apache-2.0
  15:./Libraries/CMSIS/DSP/Source/TransformFunctions/arm_cfft_radix8_f32.c ****  *
  16:./Libraries/CMSIS/DSP/Source/TransformFunctions/arm_cfft_radix8_f32.c ****  * Licensed under the Apache License, Version 2.0 (the License); you may
  17:./Libraries/CMSIS/DSP/Source/TransformFunctions/arm_cfft_radix8_f32.c ****  * not use this file except in compliance with the License.
  18:./Libraries/CMSIS/DSP/Source/TransformFunctions/arm_cfft_radix8_f32.c ****  * You may obtain a copy of the License at
  19:./Libraries/CMSIS/DSP/Source/TransformFunctions/arm_cfft_radix8_f32.c ****  *
  20:./Libraries/CMSIS/DSP/Source/TransformFunctions/arm_cfft_radix8_f32.c ****  * www.apache.org/licenses/LICENSE-2.0
  21:./Libraries/CMSIS/DSP/Source/TransformFunctions/arm_cfft_radix8_f32.c ****  *
  22:./Libraries/CMSIS/DSP/Source/TransformFunctions/arm_cfft_radix8_f32.c ****  * Unless required by applicable law or agreed to in writing, software
  23:./Libraries/CMSIS/DSP/Source/TransformFunctions/arm_cfft_radix8_f32.c ****  * distributed under the License is distributed on an AS IS BASIS, WITHOUT
  24:./Libraries/CMSIS/DSP/Source/TransformFunctions/arm_cfft_radix8_f32.c ****  * WARRANTIES OR CONDITIONS OF ANY KIND, either express or implied.
  25:./Libraries/CMSIS/DSP/Source/TransformFunctions/arm_cfft_radix8_f32.c ****  * See the License for the specific language governing permissions and
  26:./Libraries/CMSIS/DSP/Source/TransformFunctions/arm_cfft_radix8_f32.c ****  * limitations under the License.
  27:./Libraries/CMSIS/DSP/Source/TransformFunctions/arm_cfft_radix8_f32.c ****  */
  28:./Libraries/CMSIS/DSP/Source/TransformFunctions/arm_cfft_radix8_f32.c **** 
  29:./Libraries/CMSIS/DSP/Source/TransformFunctions/arm_cfft_radix8_f32.c **** #include "arm_math.h"
  30:./Libraries/CMSIS/DSP/Source/TransformFunctions/arm_cfft_radix8_f32.c **** 
  31:./Libraries/CMSIS/DSP/Source/TransformFunctions/arm_cfft_radix8_f32.c **** 
ARM GAS  /tmp/cc7bvgWg.s 			page 2


  32:./Libraries/CMSIS/DSP/Source/TransformFunctions/arm_cfft_radix8_f32.c **** /* ----------------------------------------------------------------------
  33:./Libraries/CMSIS/DSP/Source/TransformFunctions/arm_cfft_radix8_f32.c ****  * Internal helper function used by the FFTs
  34:./Libraries/CMSIS/DSP/Source/TransformFunctions/arm_cfft_radix8_f32.c ****  * -------------------------------------------------------------------- */
  35:./Libraries/CMSIS/DSP/Source/TransformFunctions/arm_cfft_radix8_f32.c **** 
  36:./Libraries/CMSIS/DSP/Source/TransformFunctions/arm_cfft_radix8_f32.c **** /**
  37:./Libraries/CMSIS/DSP/Source/TransformFunctions/arm_cfft_radix8_f32.c ****   brief         Core function for the floating-point CFFT butterfly process.
  38:./Libraries/CMSIS/DSP/Source/TransformFunctions/arm_cfft_radix8_f32.c ****   param[in,out] pSrc             points to the in-place buffer of floating-point data type.
  39:./Libraries/CMSIS/DSP/Source/TransformFunctions/arm_cfft_radix8_f32.c ****   param[in]     fftLen           length of the FFT.
  40:./Libraries/CMSIS/DSP/Source/TransformFunctions/arm_cfft_radix8_f32.c ****   param[in]     pCoef            points to the twiddle coefficient buffer.
  41:./Libraries/CMSIS/DSP/Source/TransformFunctions/arm_cfft_radix8_f32.c ****   param[in]     twidCoefModifier twiddle coefficient modifier that supports different size FFTs wit
  42:./Libraries/CMSIS/DSP/Source/TransformFunctions/arm_cfft_radix8_f32.c ****   return        none
  43:./Libraries/CMSIS/DSP/Source/TransformFunctions/arm_cfft_radix8_f32.c **** */
  44:./Libraries/CMSIS/DSP/Source/TransformFunctions/arm_cfft_radix8_f32.c **** 
  45:./Libraries/CMSIS/DSP/Source/TransformFunctions/arm_cfft_radix8_f32.c **** void arm_radix8_butterfly_f32(
  46:./Libraries/CMSIS/DSP/Source/TransformFunctions/arm_cfft_radix8_f32.c ****   float32_t * pSrc,
  47:./Libraries/CMSIS/DSP/Source/TransformFunctions/arm_cfft_radix8_f32.c ****   uint16_t fftLen,
  48:./Libraries/CMSIS/DSP/Source/TransformFunctions/arm_cfft_radix8_f32.c ****   const float32_t * pCoef,
  49:./Libraries/CMSIS/DSP/Source/TransformFunctions/arm_cfft_radix8_f32.c ****   uint16_t twidCoefModifier)
  50:./Libraries/CMSIS/DSP/Source/TransformFunctions/arm_cfft_radix8_f32.c **** {
  28              		.loc 1 50 1
  29              		.cfi_startproc
  30              		@ args = 0, pretend = 0, frame = 240
  31              		@ frame_needed = 1, uses_anonymous_args = 0
  32              		@ link register save eliminated.
  33 0000 80B4     		push	{r7}
  34              	.LCFI0:
  35              		.cfi_def_cfa_offset 4
  36              		.cfi_offset 7, -4
  37 0002 BDB0     		sub	sp, sp, #244
  38              	.LCFI1:
  39              		.cfi_def_cfa_offset 248
  40 0004 00AF     		add	r7, sp, #0
  41              	.LCFI2:
  42              		.cfi_def_cfa_register 7
  43 0006 F860     		str	r0, [r7, #12]
  44 0008 7A60     		str	r2, [r7, #4]
  45 000a 1A46     		mov	r2, r3
  46 000c 0B46     		mov	r3, r1	@ movhi
  47 000e 7B81     		strh	r3, [r7, #10]	@ movhi
  48 0010 1346     		mov	r3, r2	@ movhi
  49 0012 3B81     		strh	r3, [r7, #8]	@ movhi
  51:./Libraries/CMSIS/DSP/Source/TransformFunctions/arm_cfft_radix8_f32.c ****    uint32_t ia1, ia2, ia3, ia4, ia5, ia6, ia7;
  52:./Libraries/CMSIS/DSP/Source/TransformFunctions/arm_cfft_radix8_f32.c ****    uint32_t i1, i2, i3, i4, i5, i6, i7, i8;
  53:./Libraries/CMSIS/DSP/Source/TransformFunctions/arm_cfft_radix8_f32.c ****    uint32_t id;
  54:./Libraries/CMSIS/DSP/Source/TransformFunctions/arm_cfft_radix8_f32.c ****    uint32_t n1, n2, j;
  55:./Libraries/CMSIS/DSP/Source/TransformFunctions/arm_cfft_radix8_f32.c **** 
  56:./Libraries/CMSIS/DSP/Source/TransformFunctions/arm_cfft_radix8_f32.c ****    float32_t r1, r2, r3, r4, r5, r6, r7, r8;
  57:./Libraries/CMSIS/DSP/Source/TransformFunctions/arm_cfft_radix8_f32.c ****    float32_t t1, t2;
  58:./Libraries/CMSIS/DSP/Source/TransformFunctions/arm_cfft_radix8_f32.c ****    float32_t s1, s2, s3, s4, s5, s6, s7, s8;
  59:./Libraries/CMSIS/DSP/Source/TransformFunctions/arm_cfft_radix8_f32.c ****    float32_t p1, p2, p3, p4;
  60:./Libraries/CMSIS/DSP/Source/TransformFunctions/arm_cfft_radix8_f32.c ****    float32_t co2, co3, co4, co5, co6, co7, co8;
  61:./Libraries/CMSIS/DSP/Source/TransformFunctions/arm_cfft_radix8_f32.c ****    float32_t si2, si3, si4, si5, si6, si7, si8;
  62:./Libraries/CMSIS/DSP/Source/TransformFunctions/arm_cfft_radix8_f32.c ****    const float32_t C81 = 0.70710678118f;
  50              		.loc 1 62 20
  51 0014 094B     		ldr	r3, .L10
  52 0016 C7F8DC30 		str	r3, [r7, #220]	@ float
  63:./Libraries/CMSIS/DSP/Source/TransformFunctions/arm_cfft_radix8_f32.c **** 
ARM GAS  /tmp/cc7bvgWg.s 			page 3


  64:./Libraries/CMSIS/DSP/Source/TransformFunctions/arm_cfft_radix8_f32.c ****    n2 = fftLen;
  53              		.loc 1 64 7
  54 001a 7B89     		ldrh	r3, [r7, #10]
  55 001c C7F8E430 		str	r3, [r7, #228]
  56              	.L7:
  65:./Libraries/CMSIS/DSP/Source/TransformFunctions/arm_cfft_radix8_f32.c **** 
  66:./Libraries/CMSIS/DSP/Source/TransformFunctions/arm_cfft_radix8_f32.c ****    do
  67:./Libraries/CMSIS/DSP/Source/TransformFunctions/arm_cfft_radix8_f32.c ****    {
  68:./Libraries/CMSIS/DSP/Source/TransformFunctions/arm_cfft_radix8_f32.c ****       n1 = n2;
  57              		.loc 1 68 10
  58 0020 D7F8E430 		ldr	r3, [r7, #228]
  59 0024 C7F8D830 		str	r3, [r7, #216]
  69:./Libraries/CMSIS/DSP/Source/TransformFunctions/arm_cfft_radix8_f32.c ****       n2 = n2 >> 3;
  60              		.loc 1 69 10
  61 0028 D7F8E430 		ldr	r3, [r7, #228]
  62 002c DB08     		lsrs	r3, r3, #3
  63 002e C7F8E430 		str	r3, [r7, #228]
  70:./Libraries/CMSIS/DSP/Source/TransformFunctions/arm_cfft_radix8_f32.c ****       i1 = 0;
  64              		.loc 1 70 10
  65 0032 0023     		movs	r3, #0
  66 0034 C7F8E830 		str	r3, [r7, #232]
  67 0038 02E0     		b	.L11
  68              	.L12:
  69 003a 00BF     		.align	2
  70              	.L10:
  71 003c F304353F 		.word	1060439283
  72              	.L11:
  73              	.L2:
  71:./Libraries/CMSIS/DSP/Source/TransformFunctions/arm_cfft_radix8_f32.c **** 
  72:./Libraries/CMSIS/DSP/Source/TransformFunctions/arm_cfft_radix8_f32.c ****       do
  73:./Libraries/CMSIS/DSP/Source/TransformFunctions/arm_cfft_radix8_f32.c ****       {
  74:./Libraries/CMSIS/DSP/Source/TransformFunctions/arm_cfft_radix8_f32.c ****          i2 = i1 + n2;
  74              		.loc 1 74 13 discriminator 1
  75 0040 D7F8E820 		ldr	r2, [r7, #232]
  76 0044 D7F8E430 		ldr	r3, [r7, #228]
  77 0048 1344     		add	r3, r3, r2
  78 004a C7F8D430 		str	r3, [r7, #212]
  75:./Libraries/CMSIS/DSP/Source/TransformFunctions/arm_cfft_radix8_f32.c ****          i3 = i2 + n2;
  79              		.loc 1 75 13 discriminator 1
  80 004e D7F8D420 		ldr	r2, [r7, #212]
  81 0052 D7F8E430 		ldr	r3, [r7, #228]
  82 0056 1344     		add	r3, r3, r2
  83 0058 C7F8D030 		str	r3, [r7, #208]
  76:./Libraries/CMSIS/DSP/Source/TransformFunctions/arm_cfft_radix8_f32.c ****          i4 = i3 + n2;
  84              		.loc 1 76 13 discriminator 1
  85 005c D7F8D020 		ldr	r2, [r7, #208]
  86 0060 D7F8E430 		ldr	r3, [r7, #228]
  87 0064 1344     		add	r3, r3, r2
  88 0066 C7F8CC30 		str	r3, [r7, #204]
  77:./Libraries/CMSIS/DSP/Source/TransformFunctions/arm_cfft_radix8_f32.c ****          i5 = i4 + n2;
  89              		.loc 1 77 13 discriminator 1
  90 006a D7F8CC20 		ldr	r2, [r7, #204]
  91 006e D7F8E430 		ldr	r3, [r7, #228]
  92 0072 1344     		add	r3, r3, r2
  93 0074 C7F8C830 		str	r3, [r7, #200]
  78:./Libraries/CMSIS/DSP/Source/TransformFunctions/arm_cfft_radix8_f32.c ****          i6 = i5 + n2;
  94              		.loc 1 78 13 discriminator 1
ARM GAS  /tmp/cc7bvgWg.s 			page 4


  95 0078 D7F8C820 		ldr	r2, [r7, #200]
  96 007c D7F8E430 		ldr	r3, [r7, #228]
  97 0080 1344     		add	r3, r3, r2
  98 0082 C7F8C430 		str	r3, [r7, #196]
  79:./Libraries/CMSIS/DSP/Source/TransformFunctions/arm_cfft_radix8_f32.c ****          i7 = i6 + n2;
  99              		.loc 1 79 13 discriminator 1
 100 0086 D7F8C420 		ldr	r2, [r7, #196]
 101 008a D7F8E430 		ldr	r3, [r7, #228]
 102 008e 1344     		add	r3, r3, r2
 103 0090 C7F8C030 		str	r3, [r7, #192]
  80:./Libraries/CMSIS/DSP/Source/TransformFunctions/arm_cfft_radix8_f32.c ****          i8 = i7 + n2;
 104              		.loc 1 80 13 discriminator 1
 105 0094 D7F8C020 		ldr	r2, [r7, #192]
 106 0098 D7F8E430 		ldr	r3, [r7, #228]
 107 009c 1344     		add	r3, r3, r2
 108 009e C7F8BC30 		str	r3, [r7, #188]
  81:./Libraries/CMSIS/DSP/Source/TransformFunctions/arm_cfft_radix8_f32.c ****          r1 = pSrc[2 * i1] + pSrc[2 * i5];
 109              		.loc 1 81 19 discriminator 1
 110 00a2 D7F8E830 		ldr	r3, [r7, #232]
 111 00a6 DB00     		lsls	r3, r3, #3
 112 00a8 FA68     		ldr	r2, [r7, #12]
 113 00aa 1344     		add	r3, r3, r2
 114 00ac 93ED007A 		vldr.32	s14, [r3]
 115              		.loc 1 81 34 discriminator 1
 116 00b0 D7F8C830 		ldr	r3, [r7, #200]
 117 00b4 DB00     		lsls	r3, r3, #3
 118 00b6 FA68     		ldr	r2, [r7, #12]
 119 00b8 1344     		add	r3, r3, r2
 120 00ba D3ED007A 		vldr.32	s15, [r3]
 121              		.loc 1 81 13 discriminator 1
 122 00be 77EE277A 		vadd.f32	s15, s14, s15
 123 00c2 C7ED2E7A 		vstr.32	s15, [r7, #184]
  82:./Libraries/CMSIS/DSP/Source/TransformFunctions/arm_cfft_radix8_f32.c ****          r5 = pSrc[2 * i1] - pSrc[2 * i5];
 124              		.loc 1 82 19 discriminator 1
 125 00c6 D7F8E830 		ldr	r3, [r7, #232]
 126 00ca DB00     		lsls	r3, r3, #3
 127 00cc FA68     		ldr	r2, [r7, #12]
 128 00ce 1344     		add	r3, r3, r2
 129 00d0 93ED007A 		vldr.32	s14, [r3]
 130              		.loc 1 82 34 discriminator 1
 131 00d4 D7F8C830 		ldr	r3, [r7, #200]
 132 00d8 DB00     		lsls	r3, r3, #3
 133 00da FA68     		ldr	r2, [r7, #12]
 134 00dc 1344     		add	r3, r3, r2
 135 00de D3ED007A 		vldr.32	s15, [r3]
 136              		.loc 1 82 13 discriminator 1
 137 00e2 77EE677A 		vsub.f32	s15, s14, s15
 138 00e6 C7ED2D7A 		vstr.32	s15, [r7, #180]
  83:./Libraries/CMSIS/DSP/Source/TransformFunctions/arm_cfft_radix8_f32.c ****          r2 = pSrc[2 * i2] + pSrc[2 * i6];
 139              		.loc 1 83 19 discriminator 1
 140 00ea D7F8D430 		ldr	r3, [r7, #212]
 141 00ee DB00     		lsls	r3, r3, #3
 142 00f0 FA68     		ldr	r2, [r7, #12]
 143 00f2 1344     		add	r3, r3, r2
 144 00f4 93ED007A 		vldr.32	s14, [r3]
 145              		.loc 1 83 34 discriminator 1
 146 00f8 D7F8C430 		ldr	r3, [r7, #196]
ARM GAS  /tmp/cc7bvgWg.s 			page 5


 147 00fc DB00     		lsls	r3, r3, #3
 148 00fe FA68     		ldr	r2, [r7, #12]
 149 0100 1344     		add	r3, r3, r2
 150 0102 D3ED007A 		vldr.32	s15, [r3]
 151              		.loc 1 83 13 discriminator 1
 152 0106 77EE277A 		vadd.f32	s15, s14, s15
 153 010a C7ED2C7A 		vstr.32	s15, [r7, #176]
  84:./Libraries/CMSIS/DSP/Source/TransformFunctions/arm_cfft_radix8_f32.c ****          r6 = pSrc[2 * i2] - pSrc[2 * i6];
 154              		.loc 1 84 19 discriminator 1
 155 010e D7F8D430 		ldr	r3, [r7, #212]
 156 0112 DB00     		lsls	r3, r3, #3
 157 0114 FA68     		ldr	r2, [r7, #12]
 158 0116 1344     		add	r3, r3, r2
 159 0118 93ED007A 		vldr.32	s14, [r3]
 160              		.loc 1 84 34 discriminator 1
 161 011c D7F8C430 		ldr	r3, [r7, #196]
 162 0120 DB00     		lsls	r3, r3, #3
 163 0122 FA68     		ldr	r2, [r7, #12]
 164 0124 1344     		add	r3, r3, r2
 165 0126 D3ED007A 		vldr.32	s15, [r3]
 166              		.loc 1 84 13 discriminator 1
 167 012a 77EE677A 		vsub.f32	s15, s14, s15
 168 012e C7ED2B7A 		vstr.32	s15, [r7, #172]
  85:./Libraries/CMSIS/DSP/Source/TransformFunctions/arm_cfft_radix8_f32.c ****          r3 = pSrc[2 * i3] + pSrc[2 * i7];
 169              		.loc 1 85 19 discriminator 1
 170 0132 D7F8D030 		ldr	r3, [r7, #208]
 171 0136 DB00     		lsls	r3, r3, #3
 172 0138 FA68     		ldr	r2, [r7, #12]
 173 013a 1344     		add	r3, r3, r2
 174 013c 93ED007A 		vldr.32	s14, [r3]
 175              		.loc 1 85 34 discriminator 1
 176 0140 D7F8C030 		ldr	r3, [r7, #192]
 177 0144 DB00     		lsls	r3, r3, #3
 178 0146 FA68     		ldr	r2, [r7, #12]
 179 0148 1344     		add	r3, r3, r2
 180 014a D3ED007A 		vldr.32	s15, [r3]
 181              		.loc 1 85 13 discriminator 1
 182 014e 77EE277A 		vadd.f32	s15, s14, s15
 183 0152 C7ED2A7A 		vstr.32	s15, [r7, #168]
  86:./Libraries/CMSIS/DSP/Source/TransformFunctions/arm_cfft_radix8_f32.c ****          r7 = pSrc[2 * i3] - pSrc[2 * i7];
 184              		.loc 1 86 19 discriminator 1
 185 0156 D7F8D030 		ldr	r3, [r7, #208]
 186 015a DB00     		lsls	r3, r3, #3
 187 015c FA68     		ldr	r2, [r7, #12]
 188 015e 1344     		add	r3, r3, r2
 189 0160 93ED007A 		vldr.32	s14, [r3]
 190              		.loc 1 86 34 discriminator 1
 191 0164 D7F8C030 		ldr	r3, [r7, #192]
 192 0168 DB00     		lsls	r3, r3, #3
 193 016a FA68     		ldr	r2, [r7, #12]
 194 016c 1344     		add	r3, r3, r2
 195 016e D3ED007A 		vldr.32	s15, [r3]
 196              		.loc 1 86 13 discriminator 1
 197 0172 77EE677A 		vsub.f32	s15, s14, s15
 198 0176 C7ED297A 		vstr.32	s15, [r7, #164]
  87:./Libraries/CMSIS/DSP/Source/TransformFunctions/arm_cfft_radix8_f32.c ****          r4 = pSrc[2 * i4] + pSrc[2 * i8];
 199              		.loc 1 87 19 discriminator 1
ARM GAS  /tmp/cc7bvgWg.s 			page 6


 200 017a D7F8CC30 		ldr	r3, [r7, #204]
 201 017e DB00     		lsls	r3, r3, #3
 202 0180 FA68     		ldr	r2, [r7, #12]
 203 0182 1344     		add	r3, r3, r2
 204 0184 93ED007A 		vldr.32	s14, [r3]
 205              		.loc 1 87 34 discriminator 1
 206 0188 D7F8BC30 		ldr	r3, [r7, #188]
 207 018c DB00     		lsls	r3, r3, #3
 208 018e FA68     		ldr	r2, [r7, #12]
 209 0190 1344     		add	r3, r3, r2
 210 0192 D3ED007A 		vldr.32	s15, [r3]
 211              		.loc 1 87 13 discriminator 1
 212 0196 77EE277A 		vadd.f32	s15, s14, s15
 213 019a C7ED287A 		vstr.32	s15, [r7, #160]
  88:./Libraries/CMSIS/DSP/Source/TransformFunctions/arm_cfft_radix8_f32.c ****          r8 = pSrc[2 * i4] - pSrc[2 * i8];
 214              		.loc 1 88 19 discriminator 1
 215 019e D7F8CC30 		ldr	r3, [r7, #204]
 216 01a2 DB00     		lsls	r3, r3, #3
 217 01a4 FA68     		ldr	r2, [r7, #12]
 218 01a6 1344     		add	r3, r3, r2
 219 01a8 93ED007A 		vldr.32	s14, [r3]
 220              		.loc 1 88 34 discriminator 1
 221 01ac D7F8BC30 		ldr	r3, [r7, #188]
 222 01b0 DB00     		lsls	r3, r3, #3
 223 01b2 FA68     		ldr	r2, [r7, #12]
 224 01b4 1344     		add	r3, r3, r2
 225 01b6 D3ED007A 		vldr.32	s15, [r3]
 226              		.loc 1 88 13 discriminator 1
 227 01ba 77EE677A 		vsub.f32	s15, s14, s15
 228 01be C7ED277A 		vstr.32	s15, [r7, #156]
  89:./Libraries/CMSIS/DSP/Source/TransformFunctions/arm_cfft_radix8_f32.c ****          t1 = r1 - r3;
 229              		.loc 1 89 13 discriminator 1
 230 01c2 97ED2E7A 		vldr.32	s14, [r7, #184]
 231 01c6 D7ED2A7A 		vldr.32	s15, [r7, #168]
 232 01ca 77EE677A 		vsub.f32	s15, s14, s15
 233 01ce C7ED267A 		vstr.32	s15, [r7, #152]
  90:./Libraries/CMSIS/DSP/Source/TransformFunctions/arm_cfft_radix8_f32.c ****          r1 = r1 + r3;
 234              		.loc 1 90 13 discriminator 1
 235 01d2 97ED2E7A 		vldr.32	s14, [r7, #184]
 236 01d6 D7ED2A7A 		vldr.32	s15, [r7, #168]
 237 01da 77EE277A 		vadd.f32	s15, s14, s15
 238 01de C7ED2E7A 		vstr.32	s15, [r7, #184]
  91:./Libraries/CMSIS/DSP/Source/TransformFunctions/arm_cfft_radix8_f32.c ****          r3 = r2 - r4;
 239              		.loc 1 91 13 discriminator 1
 240 01e2 97ED2C7A 		vldr.32	s14, [r7, #176]
 241 01e6 D7ED287A 		vldr.32	s15, [r7, #160]
 242 01ea 77EE677A 		vsub.f32	s15, s14, s15
 243 01ee C7ED2A7A 		vstr.32	s15, [r7, #168]
  92:./Libraries/CMSIS/DSP/Source/TransformFunctions/arm_cfft_radix8_f32.c ****          r2 = r2 + r4;
 244              		.loc 1 92 13 discriminator 1
 245 01f2 97ED2C7A 		vldr.32	s14, [r7, #176]
 246 01f6 D7ED287A 		vldr.32	s15, [r7, #160]
 247 01fa 77EE277A 		vadd.f32	s15, s14, s15
 248 01fe C7ED2C7A 		vstr.32	s15, [r7, #176]
  93:./Libraries/CMSIS/DSP/Source/TransformFunctions/arm_cfft_radix8_f32.c ****          pSrc[2 * i1] = r1 + r2;
 249              		.loc 1 93 14 discriminator 1
 250 0202 D7F8E830 		ldr	r3, [r7, #232]
ARM GAS  /tmp/cc7bvgWg.s 			page 7


 251 0206 DB00     		lsls	r3, r3, #3
 252 0208 FA68     		ldr	r2, [r7, #12]
 253 020a 1344     		add	r3, r3, r2
 254              		.loc 1 93 28 discriminator 1
 255 020c 97ED2E7A 		vldr.32	s14, [r7, #184]
 256 0210 D7ED2C7A 		vldr.32	s15, [r7, #176]
 257 0214 77EE277A 		vadd.f32	s15, s14, s15
 258              		.loc 1 93 23 discriminator 1
 259 0218 C3ED007A 		vstr.32	s15, [r3]
  94:./Libraries/CMSIS/DSP/Source/TransformFunctions/arm_cfft_radix8_f32.c ****          pSrc[2 * i5] = r1 - r2;
 260              		.loc 1 94 14 discriminator 1
 261 021c D7F8C830 		ldr	r3, [r7, #200]
 262 0220 DB00     		lsls	r3, r3, #3
 263 0222 FA68     		ldr	r2, [r7, #12]
 264 0224 1344     		add	r3, r3, r2
 265              		.loc 1 94 28 discriminator 1
 266 0226 97ED2E7A 		vldr.32	s14, [r7, #184]
 267 022a D7ED2C7A 		vldr.32	s15, [r7, #176]
 268 022e 77EE677A 		vsub.f32	s15, s14, s15
 269              		.loc 1 94 23 discriminator 1
 270 0232 C3ED007A 		vstr.32	s15, [r3]
  95:./Libraries/CMSIS/DSP/Source/TransformFunctions/arm_cfft_radix8_f32.c ****          r1 = pSrc[2 * i1 + 1] + pSrc[2 * i5 + 1];
 271              		.loc 1 95 19 discriminator 1
 272 0236 D7F8E830 		ldr	r3, [r7, #232]
 273 023a DB00     		lsls	r3, r3, #3
 274 023c 0433     		adds	r3, r3, #4
 275 023e FA68     		ldr	r2, [r7, #12]
 276 0240 1344     		add	r3, r3, r2
 277 0242 93ED007A 		vldr.32	s14, [r3]
 278              		.loc 1 95 38 discriminator 1
 279 0246 D7F8C830 		ldr	r3, [r7, #200]
 280 024a DB00     		lsls	r3, r3, #3
 281 024c 0433     		adds	r3, r3, #4
 282 024e FA68     		ldr	r2, [r7, #12]
 283 0250 1344     		add	r3, r3, r2
 284 0252 D3ED007A 		vldr.32	s15, [r3]
 285              		.loc 1 95 13 discriminator 1
 286 0256 77EE277A 		vadd.f32	s15, s14, s15
 287 025a C7ED2E7A 		vstr.32	s15, [r7, #184]
  96:./Libraries/CMSIS/DSP/Source/TransformFunctions/arm_cfft_radix8_f32.c ****          s5 = pSrc[2 * i1 + 1] - pSrc[2 * i5 + 1];
 288              		.loc 1 96 19 discriminator 1
 289 025e D7F8E830 		ldr	r3, [r7, #232]
 290 0262 DB00     		lsls	r3, r3, #3
 291 0264 0433     		adds	r3, r3, #4
 292 0266 FA68     		ldr	r2, [r7, #12]
 293 0268 1344     		add	r3, r3, r2
 294 026a 93ED007A 		vldr.32	s14, [r3]
 295              		.loc 1 96 38 discriminator 1
 296 026e D7F8C830 		ldr	r3, [r7, #200]
 297 0272 DB00     		lsls	r3, r3, #3
 298 0274 0433     		adds	r3, r3, #4
 299 0276 FA68     		ldr	r2, [r7, #12]
 300 0278 1344     		add	r3, r3, r2
 301 027a D3ED007A 		vldr.32	s15, [r3]
 302              		.loc 1 96 13 discriminator 1
 303 027e 77EE677A 		vsub.f32	s15, s14, s15
 304 0282 C7ED257A 		vstr.32	s15, [r7, #148]
ARM GAS  /tmp/cc7bvgWg.s 			page 8


  97:./Libraries/CMSIS/DSP/Source/TransformFunctions/arm_cfft_radix8_f32.c ****          r2 = pSrc[2 * i2 + 1] + pSrc[2 * i6 + 1];
 305              		.loc 1 97 19 discriminator 1
 306 0286 D7F8D430 		ldr	r3, [r7, #212]
 307 028a DB00     		lsls	r3, r3, #3
 308 028c 0433     		adds	r3, r3, #4
 309 028e FA68     		ldr	r2, [r7, #12]
 310 0290 1344     		add	r3, r3, r2
 311 0292 93ED007A 		vldr.32	s14, [r3]
 312              		.loc 1 97 38 discriminator 1
 313 0296 D7F8C430 		ldr	r3, [r7, #196]
 314 029a DB00     		lsls	r3, r3, #3
 315 029c 0433     		adds	r3, r3, #4
 316 029e FA68     		ldr	r2, [r7, #12]
 317 02a0 1344     		add	r3, r3, r2
 318 02a2 D3ED007A 		vldr.32	s15, [r3]
 319              		.loc 1 97 13 discriminator 1
 320 02a6 77EE277A 		vadd.f32	s15, s14, s15
 321 02aa C7ED2C7A 		vstr.32	s15, [r7, #176]
  98:./Libraries/CMSIS/DSP/Source/TransformFunctions/arm_cfft_radix8_f32.c ****          s6 = pSrc[2 * i2 + 1] - pSrc[2 * i6 + 1];
 322              		.loc 1 98 19 discriminator 1
 323 02ae D7F8D430 		ldr	r3, [r7, #212]
 324 02b2 DB00     		lsls	r3, r3, #3
 325 02b4 0433     		adds	r3, r3, #4
 326 02b6 FA68     		ldr	r2, [r7, #12]
 327 02b8 1344     		add	r3, r3, r2
 328 02ba 93ED007A 		vldr.32	s14, [r3]
 329              		.loc 1 98 38 discriminator 1
 330 02be D7F8C430 		ldr	r3, [r7, #196]
 331 02c2 DB00     		lsls	r3, r3, #3
 332 02c4 0433     		adds	r3, r3, #4
 333 02c6 FA68     		ldr	r2, [r7, #12]
 334 02c8 1344     		add	r3, r3, r2
 335 02ca D3ED007A 		vldr.32	s15, [r3]
 336              		.loc 1 98 13 discriminator 1
 337 02ce 77EE677A 		vsub.f32	s15, s14, s15
 338 02d2 C7ED247A 		vstr.32	s15, [r7, #144]
  99:./Libraries/CMSIS/DSP/Source/TransformFunctions/arm_cfft_radix8_f32.c ****          s3 = pSrc[2 * i3 + 1] + pSrc[2 * i7 + 1];
 339              		.loc 1 99 19 discriminator 1
 340 02d6 D7F8D030 		ldr	r3, [r7, #208]
 341 02da DB00     		lsls	r3, r3, #3
 342 02dc 0433     		adds	r3, r3, #4
 343 02de FA68     		ldr	r2, [r7, #12]
 344 02e0 1344     		add	r3, r3, r2
 345 02e2 93ED007A 		vldr.32	s14, [r3]
 346              		.loc 1 99 38 discriminator 1
 347 02e6 D7F8C030 		ldr	r3, [r7, #192]
 348 02ea DB00     		lsls	r3, r3, #3
 349 02ec 0433     		adds	r3, r3, #4
 350 02ee FA68     		ldr	r2, [r7, #12]
 351 02f0 1344     		add	r3, r3, r2
 352 02f2 D3ED007A 		vldr.32	s15, [r3]
 353              		.loc 1 99 13 discriminator 1
 354 02f6 77EE277A 		vadd.f32	s15, s14, s15
 355 02fa C7ED237A 		vstr.32	s15, [r7, #140]
 100:./Libraries/CMSIS/DSP/Source/TransformFunctions/arm_cfft_radix8_f32.c ****          s7 = pSrc[2 * i3 + 1] - pSrc[2 * i7 + 1];
 356              		.loc 1 100 19 discriminator 1
 357 02fe D7F8D030 		ldr	r3, [r7, #208]
ARM GAS  /tmp/cc7bvgWg.s 			page 9


 358 0302 DB00     		lsls	r3, r3, #3
 359 0304 0433     		adds	r3, r3, #4
 360 0306 FA68     		ldr	r2, [r7, #12]
 361 0308 1344     		add	r3, r3, r2
 362 030a 93ED007A 		vldr.32	s14, [r3]
 363              		.loc 1 100 38 discriminator 1
 364 030e D7F8C030 		ldr	r3, [r7, #192]
 365 0312 DB00     		lsls	r3, r3, #3
 366 0314 0433     		adds	r3, r3, #4
 367 0316 FA68     		ldr	r2, [r7, #12]
 368 0318 1344     		add	r3, r3, r2
 369 031a D3ED007A 		vldr.32	s15, [r3]
 370              		.loc 1 100 13 discriminator 1
 371 031e 77EE677A 		vsub.f32	s15, s14, s15
 372 0322 C7ED227A 		vstr.32	s15, [r7, #136]
 101:./Libraries/CMSIS/DSP/Source/TransformFunctions/arm_cfft_radix8_f32.c ****          r4 = pSrc[2 * i4 + 1] + pSrc[2 * i8 + 1];
 373              		.loc 1 101 19 discriminator 1
 374 0326 D7F8CC30 		ldr	r3, [r7, #204]
 375 032a DB00     		lsls	r3, r3, #3
 376 032c 0433     		adds	r3, r3, #4
 377 032e FA68     		ldr	r2, [r7, #12]
 378 0330 1344     		add	r3, r3, r2
 379 0332 93ED007A 		vldr.32	s14, [r3]
 380              		.loc 1 101 38 discriminator 1
 381 0336 D7F8BC30 		ldr	r3, [r7, #188]
 382 033a DB00     		lsls	r3, r3, #3
 383 033c 0433     		adds	r3, r3, #4
 384 033e FA68     		ldr	r2, [r7, #12]
 385 0340 1344     		add	r3, r3, r2
 386 0342 D3ED007A 		vldr.32	s15, [r3]
 387              		.loc 1 101 13 discriminator 1
 388 0346 77EE277A 		vadd.f32	s15, s14, s15
 389 034a C7ED287A 		vstr.32	s15, [r7, #160]
 102:./Libraries/CMSIS/DSP/Source/TransformFunctions/arm_cfft_radix8_f32.c ****          s8 = pSrc[2 * i4 + 1] - pSrc[2 * i8 + 1];
 390              		.loc 1 102 19 discriminator 1
 391 034e D7F8CC30 		ldr	r3, [r7, #204]
 392 0352 DB00     		lsls	r3, r3, #3
 393 0354 0433     		adds	r3, r3, #4
 394 0356 FA68     		ldr	r2, [r7, #12]
 395 0358 1344     		add	r3, r3, r2
 396 035a 93ED007A 		vldr.32	s14, [r3]
 397              		.loc 1 102 38 discriminator 1
 398 035e D7F8BC30 		ldr	r3, [r7, #188]
 399 0362 DB00     		lsls	r3, r3, #3
 400 0364 0433     		adds	r3, r3, #4
 401 0366 FA68     		ldr	r2, [r7, #12]
 402 0368 1344     		add	r3, r3, r2
 403 036a D3ED007A 		vldr.32	s15, [r3]
 404              		.loc 1 102 13 discriminator 1
 405 036e 77EE677A 		vsub.f32	s15, s14, s15
 406 0372 C7ED217A 		vstr.32	s15, [r7, #132]
 103:./Libraries/CMSIS/DSP/Source/TransformFunctions/arm_cfft_radix8_f32.c ****          t2 = r1 - s3;
 407              		.loc 1 103 13 discriminator 1
 408 0376 97ED2E7A 		vldr.32	s14, [r7, #184]
 409 037a D7ED237A 		vldr.32	s15, [r7, #140]
 410 037e 77EE677A 		vsub.f32	s15, s14, s15
 411 0382 C7ED207A 		vstr.32	s15, [r7, #128]
ARM GAS  /tmp/cc7bvgWg.s 			page 10


 104:./Libraries/CMSIS/DSP/Source/TransformFunctions/arm_cfft_radix8_f32.c ****          r1 = r1 + s3;
 412              		.loc 1 104 13 discriminator 1
 413 0386 97ED2E7A 		vldr.32	s14, [r7, #184]
 414 038a D7ED237A 		vldr.32	s15, [r7, #140]
 415 038e 77EE277A 		vadd.f32	s15, s14, s15
 416 0392 C7ED2E7A 		vstr.32	s15, [r7, #184]
 105:./Libraries/CMSIS/DSP/Source/TransformFunctions/arm_cfft_radix8_f32.c ****          s3 = r2 - r4;
 417              		.loc 1 105 13 discriminator 1
 418 0396 97ED2C7A 		vldr.32	s14, [r7, #176]
 419 039a D7ED287A 		vldr.32	s15, [r7, #160]
 420 039e 77EE677A 		vsub.f32	s15, s14, s15
 421 03a2 C7ED237A 		vstr.32	s15, [r7, #140]
 106:./Libraries/CMSIS/DSP/Source/TransformFunctions/arm_cfft_radix8_f32.c ****          r2 = r2 + r4;
 422              		.loc 1 106 13 discriminator 1
 423 03a6 97ED2C7A 		vldr.32	s14, [r7, #176]
 424 03aa D7ED287A 		vldr.32	s15, [r7, #160]
 425 03ae 77EE277A 		vadd.f32	s15, s14, s15
 426 03b2 C7ED2C7A 		vstr.32	s15, [r7, #176]
 107:./Libraries/CMSIS/DSP/Source/TransformFunctions/arm_cfft_radix8_f32.c ****          pSrc[2 * i1 + 1] = r1 + r2;
 427              		.loc 1 107 14 discriminator 1
 428 03b6 D7F8E830 		ldr	r3, [r7, #232]
 429 03ba DB00     		lsls	r3, r3, #3
 430 03bc 0433     		adds	r3, r3, #4
 431 03be FA68     		ldr	r2, [r7, #12]
 432 03c0 1344     		add	r3, r3, r2
 433              		.loc 1 107 32 discriminator 1
 434 03c2 97ED2E7A 		vldr.32	s14, [r7, #184]
 435 03c6 D7ED2C7A 		vldr.32	s15, [r7, #176]
 436 03ca 77EE277A 		vadd.f32	s15, s14, s15
 437              		.loc 1 107 27 discriminator 1
 438 03ce C3ED007A 		vstr.32	s15, [r3]
 108:./Libraries/CMSIS/DSP/Source/TransformFunctions/arm_cfft_radix8_f32.c ****          pSrc[2 * i5 + 1] = r1 - r2;
 439              		.loc 1 108 14 discriminator 1
 440 03d2 D7F8C830 		ldr	r3, [r7, #200]
 441 03d6 DB00     		lsls	r3, r3, #3
 442 03d8 0433     		adds	r3, r3, #4
 443 03da FA68     		ldr	r2, [r7, #12]
 444 03dc 1344     		add	r3, r3, r2
 445              		.loc 1 108 32 discriminator 1
 446 03de 97ED2E7A 		vldr.32	s14, [r7, #184]
 447 03e2 D7ED2C7A 		vldr.32	s15, [r7, #176]
 448 03e6 77EE677A 		vsub.f32	s15, s14, s15
 449              		.loc 1 108 27 discriminator 1
 450 03ea C3ED007A 		vstr.32	s15, [r3]
 109:./Libraries/CMSIS/DSP/Source/TransformFunctions/arm_cfft_radix8_f32.c ****          pSrc[2 * i3]     = t1 + s3;
 451              		.loc 1 109 14 discriminator 1
 452 03ee D7F8D030 		ldr	r3, [r7, #208]
 453 03f2 DB00     		lsls	r3, r3, #3
 454 03f4 FA68     		ldr	r2, [r7, #12]
 455 03f6 1344     		add	r3, r3, r2
 456              		.loc 1 109 32 discriminator 1
 457 03f8 97ED267A 		vldr.32	s14, [r7, #152]
 458 03fc D7ED237A 		vldr.32	s15, [r7, #140]
 459 0400 77EE277A 		vadd.f32	s15, s14, s15
 460              		.loc 1 109 27 discriminator 1
 461 0404 C3ED007A 		vstr.32	s15, [r3]
 110:./Libraries/CMSIS/DSP/Source/TransformFunctions/arm_cfft_radix8_f32.c ****          pSrc[2 * i7]     = t1 - s3;
ARM GAS  /tmp/cc7bvgWg.s 			page 11


 462              		.loc 1 110 14 discriminator 1
 463 0408 D7F8C030 		ldr	r3, [r7, #192]
 464 040c DB00     		lsls	r3, r3, #3
 465 040e FA68     		ldr	r2, [r7, #12]
 466 0410 1344     		add	r3, r3, r2
 467              		.loc 1 110 32 discriminator 1
 468 0412 97ED267A 		vldr.32	s14, [r7, #152]
 469 0416 D7ED237A 		vldr.32	s15, [r7, #140]
 470 041a 77EE677A 		vsub.f32	s15, s14, s15
 471              		.loc 1 110 27 discriminator 1
 472 041e C3ED007A 		vstr.32	s15, [r3]
 111:./Libraries/CMSIS/DSP/Source/TransformFunctions/arm_cfft_radix8_f32.c ****          pSrc[2 * i3 + 1] = t2 - r3;
 473              		.loc 1 111 14 discriminator 1
 474 0422 D7F8D030 		ldr	r3, [r7, #208]
 475 0426 DB00     		lsls	r3, r3, #3
 476 0428 0433     		adds	r3, r3, #4
 477 042a FA68     		ldr	r2, [r7, #12]
 478 042c 1344     		add	r3, r3, r2
 479              		.loc 1 111 32 discriminator 1
 480 042e 97ED207A 		vldr.32	s14, [r7, #128]
 481 0432 D7ED2A7A 		vldr.32	s15, [r7, #168]
 482 0436 77EE677A 		vsub.f32	s15, s14, s15
 483              		.loc 1 111 27 discriminator 1
 484 043a C3ED007A 		vstr.32	s15, [r3]
 112:./Libraries/CMSIS/DSP/Source/TransformFunctions/arm_cfft_radix8_f32.c ****          pSrc[2 * i7 + 1] = t2 + r3;
 485              		.loc 1 112 14 discriminator 1
 486 043e D7F8C030 		ldr	r3, [r7, #192]
 487 0442 DB00     		lsls	r3, r3, #3
 488 0444 0433     		adds	r3, r3, #4
 489 0446 FA68     		ldr	r2, [r7, #12]
 490 0448 1344     		add	r3, r3, r2
 491              		.loc 1 112 32 discriminator 1
 492 044a 97ED207A 		vldr.32	s14, [r7, #128]
 493 044e D7ED2A7A 		vldr.32	s15, [r7, #168]
 494 0452 77EE277A 		vadd.f32	s15, s14, s15
 495              		.loc 1 112 27 discriminator 1
 496 0456 C3ED007A 		vstr.32	s15, [r3]
 113:./Libraries/CMSIS/DSP/Source/TransformFunctions/arm_cfft_radix8_f32.c ****          r1 = (r6 - r8) * C81;
 497              		.loc 1 113 19 discriminator 1
 498 045a 97ED2B7A 		vldr.32	s14, [r7, #172]
 499 045e D7ED277A 		vldr.32	s15, [r7, #156]
 500 0462 77EE677A 		vsub.f32	s15, s14, s15
 501              		.loc 1 113 13 discriminator 1
 502 0466 97ED377A 		vldr.32	s14, [r7, #220]
 503 046a 67EE277A 		vmul.f32	s15, s14, s15
 504 046e C7ED2E7A 		vstr.32	s15, [r7, #184]
 114:./Libraries/CMSIS/DSP/Source/TransformFunctions/arm_cfft_radix8_f32.c ****          r6 = (r6 + r8) * C81;
 505              		.loc 1 114 19 discriminator 1
 506 0472 97ED2B7A 		vldr.32	s14, [r7, #172]
 507 0476 D7ED277A 		vldr.32	s15, [r7, #156]
 508 047a 77EE277A 		vadd.f32	s15, s14, s15
 509              		.loc 1 114 13 discriminator 1
 510 047e 97ED377A 		vldr.32	s14, [r7, #220]
 511 0482 67EE277A 		vmul.f32	s15, s14, s15
 512 0486 C7ED2B7A 		vstr.32	s15, [r7, #172]
 115:./Libraries/CMSIS/DSP/Source/TransformFunctions/arm_cfft_radix8_f32.c ****          r2 = (s6 - s8) * C81;
 513              		.loc 1 115 19 discriminator 1
ARM GAS  /tmp/cc7bvgWg.s 			page 12


 514 048a 97ED247A 		vldr.32	s14, [r7, #144]
 515 048e D7ED217A 		vldr.32	s15, [r7, #132]
 516 0492 77EE677A 		vsub.f32	s15, s14, s15
 517              		.loc 1 115 13 discriminator 1
 518 0496 97ED377A 		vldr.32	s14, [r7, #220]
 519 049a 67EE277A 		vmul.f32	s15, s14, s15
 520 049e C7ED2C7A 		vstr.32	s15, [r7, #176]
 116:./Libraries/CMSIS/DSP/Source/TransformFunctions/arm_cfft_radix8_f32.c ****          s6 = (s6 + s8) * C81;
 521              		.loc 1 116 19 discriminator 1
 522 04a2 97ED247A 		vldr.32	s14, [r7, #144]
 523 04a6 D7ED217A 		vldr.32	s15, [r7, #132]
 524 04aa 77EE277A 		vadd.f32	s15, s14, s15
 525              		.loc 1 116 13 discriminator 1
 526 04ae 97ED377A 		vldr.32	s14, [r7, #220]
 527 04b2 67EE277A 		vmul.f32	s15, s14, s15
 528 04b6 C7ED247A 		vstr.32	s15, [r7, #144]
 117:./Libraries/CMSIS/DSP/Source/TransformFunctions/arm_cfft_radix8_f32.c ****          t1 = r5 - r1;
 529              		.loc 1 117 13 discriminator 1
 530 04ba 97ED2D7A 		vldr.32	s14, [r7, #180]
 531 04be D7ED2E7A 		vldr.32	s15, [r7, #184]
 532 04c2 77EE677A 		vsub.f32	s15, s14, s15
 533 04c6 C7ED267A 		vstr.32	s15, [r7, #152]
 118:./Libraries/CMSIS/DSP/Source/TransformFunctions/arm_cfft_radix8_f32.c ****          r5 = r5 + r1;
 534              		.loc 1 118 13 discriminator 1
 535 04ca 97ED2D7A 		vldr.32	s14, [r7, #180]
 536 04ce D7ED2E7A 		vldr.32	s15, [r7, #184]
 537 04d2 77EE277A 		vadd.f32	s15, s14, s15
 538 04d6 C7ED2D7A 		vstr.32	s15, [r7, #180]
 119:./Libraries/CMSIS/DSP/Source/TransformFunctions/arm_cfft_radix8_f32.c ****          r8 = r7 - r6;
 539              		.loc 1 119 13 discriminator 1
 540 04da 97ED297A 		vldr.32	s14, [r7, #164]
 541 04de D7ED2B7A 		vldr.32	s15, [r7, #172]
 542 04e2 77EE677A 		vsub.f32	s15, s14, s15
 543 04e6 C7ED277A 		vstr.32	s15, [r7, #156]
 120:./Libraries/CMSIS/DSP/Source/TransformFunctions/arm_cfft_radix8_f32.c ****          r7 = r7 + r6;
 544              		.loc 1 120 13 discriminator 1
 545 04ea 97ED297A 		vldr.32	s14, [r7, #164]
 546 04ee D7ED2B7A 		vldr.32	s15, [r7, #172]
 547 04f2 77EE277A 		vadd.f32	s15, s14, s15
 548 04f6 C7ED297A 		vstr.32	s15, [r7, #164]
 121:./Libraries/CMSIS/DSP/Source/TransformFunctions/arm_cfft_radix8_f32.c ****          t2 = s5 - r2;
 549              		.loc 1 121 13 discriminator 1
 550 04fa 97ED257A 		vldr.32	s14, [r7, #148]
 551 04fe D7ED2C7A 		vldr.32	s15, [r7, #176]
 552 0502 77EE677A 		vsub.f32	s15, s14, s15
 553 0506 C7ED207A 		vstr.32	s15, [r7, #128]
 122:./Libraries/CMSIS/DSP/Source/TransformFunctions/arm_cfft_radix8_f32.c ****          s5 = s5 + r2;
 554              		.loc 1 122 13 discriminator 1
 555 050a 97ED257A 		vldr.32	s14, [r7, #148]
 556 050e D7ED2C7A 		vldr.32	s15, [r7, #176]
 557 0512 77EE277A 		vadd.f32	s15, s14, s15
 558 0516 C7ED257A 		vstr.32	s15, [r7, #148]
 123:./Libraries/CMSIS/DSP/Source/TransformFunctions/arm_cfft_radix8_f32.c ****          s8 = s7 - s6;
 559              		.loc 1 123 13 discriminator 1
 560 051a 97ED227A 		vldr.32	s14, [r7, #136]
 561 051e D7ED247A 		vldr.32	s15, [r7, #144]
 562 0522 77EE677A 		vsub.f32	s15, s14, s15
ARM GAS  /tmp/cc7bvgWg.s 			page 13


 563 0526 C7ED217A 		vstr.32	s15, [r7, #132]
 124:./Libraries/CMSIS/DSP/Source/TransformFunctions/arm_cfft_radix8_f32.c ****          s7 = s7 + s6;
 564              		.loc 1 124 13 discriminator 1
 565 052a 97ED227A 		vldr.32	s14, [r7, #136]
 566 052e D7ED247A 		vldr.32	s15, [r7, #144]
 567 0532 77EE277A 		vadd.f32	s15, s14, s15
 568 0536 C7ED227A 		vstr.32	s15, [r7, #136]
 125:./Libraries/CMSIS/DSP/Source/TransformFunctions/arm_cfft_radix8_f32.c ****          pSrc[2 * i2]     = r5 + s7;
 569              		.loc 1 125 14 discriminator 1
 570 053a D7F8D430 		ldr	r3, [r7, #212]
 571 053e DB00     		lsls	r3, r3, #3
 572 0540 FA68     		ldr	r2, [r7, #12]
 573 0542 1344     		add	r3, r3, r2
 574              		.loc 1 125 32 discriminator 1
 575 0544 97ED2D7A 		vldr.32	s14, [r7, #180]
 576 0548 D7ED227A 		vldr.32	s15, [r7, #136]
 577 054c 77EE277A 		vadd.f32	s15, s14, s15
 578              		.loc 1 125 27 discriminator 1
 579 0550 C3ED007A 		vstr.32	s15, [r3]
 126:./Libraries/CMSIS/DSP/Source/TransformFunctions/arm_cfft_radix8_f32.c ****          pSrc[2 * i8]     = r5 - s7;
 580              		.loc 1 126 14 discriminator 1
 581 0554 D7F8BC30 		ldr	r3, [r7, #188]
 582 0558 DB00     		lsls	r3, r3, #3
 583 055a FA68     		ldr	r2, [r7, #12]
 584 055c 1344     		add	r3, r3, r2
 585              		.loc 1 126 32 discriminator 1
 586 055e 97ED2D7A 		vldr.32	s14, [r7, #180]
 587 0562 D7ED227A 		vldr.32	s15, [r7, #136]
 588 0566 77EE677A 		vsub.f32	s15, s14, s15
 589              		.loc 1 126 27 discriminator 1
 590 056a C3ED007A 		vstr.32	s15, [r3]
 127:./Libraries/CMSIS/DSP/Source/TransformFunctions/arm_cfft_radix8_f32.c ****          pSrc[2 * i6]     = t1 + s8;
 591              		.loc 1 127 14 discriminator 1
 592 056e D7F8C430 		ldr	r3, [r7, #196]
 593 0572 DB00     		lsls	r3, r3, #3
 594 0574 FA68     		ldr	r2, [r7, #12]
 595 0576 1344     		add	r3, r3, r2
 596              		.loc 1 127 32 discriminator 1
 597 0578 97ED267A 		vldr.32	s14, [r7, #152]
 598 057c D7ED217A 		vldr.32	s15, [r7, #132]
 599 0580 77EE277A 		vadd.f32	s15, s14, s15
 600              		.loc 1 127 27 discriminator 1
 601 0584 C3ED007A 		vstr.32	s15, [r3]
 128:./Libraries/CMSIS/DSP/Source/TransformFunctions/arm_cfft_radix8_f32.c ****          pSrc[2 * i4]     = t1 - s8;
 602              		.loc 1 128 14 discriminator 1
 603 0588 D7F8CC30 		ldr	r3, [r7, #204]
 604 058c DB00     		lsls	r3, r3, #3
 605 058e FA68     		ldr	r2, [r7, #12]
 606 0590 1344     		add	r3, r3, r2
 607              		.loc 1 128 32 discriminator 1
 608 0592 97ED267A 		vldr.32	s14, [r7, #152]
 609 0596 D7ED217A 		vldr.32	s15, [r7, #132]
 610 059a 77EE677A 		vsub.f32	s15, s14, s15
 611              		.loc 1 128 27 discriminator 1
 612 059e C3ED007A 		vstr.32	s15, [r3]
 129:./Libraries/CMSIS/DSP/Source/TransformFunctions/arm_cfft_radix8_f32.c ****          pSrc[2 * i2 + 1] = s5 - r7;
 613              		.loc 1 129 14 discriminator 1
ARM GAS  /tmp/cc7bvgWg.s 			page 14


 614 05a2 D7F8D430 		ldr	r3, [r7, #212]
 615 05a6 DB00     		lsls	r3, r3, #3
 616 05a8 0433     		adds	r3, r3, #4
 617 05aa FA68     		ldr	r2, [r7, #12]
 618 05ac 1344     		add	r3, r3, r2
 619              		.loc 1 129 32 discriminator 1
 620 05ae 97ED257A 		vldr.32	s14, [r7, #148]
 621 05b2 D7ED297A 		vldr.32	s15, [r7, #164]
 622 05b6 77EE677A 		vsub.f32	s15, s14, s15
 623              		.loc 1 129 27 discriminator 1
 624 05ba C3ED007A 		vstr.32	s15, [r3]
 130:./Libraries/CMSIS/DSP/Source/TransformFunctions/arm_cfft_radix8_f32.c ****          pSrc[2 * i8 + 1] = s5 + r7;
 625              		.loc 1 130 14 discriminator 1
 626 05be D7F8BC30 		ldr	r3, [r7, #188]
 627 05c2 DB00     		lsls	r3, r3, #3
 628 05c4 0433     		adds	r3, r3, #4
 629 05c6 FA68     		ldr	r2, [r7, #12]
 630 05c8 1344     		add	r3, r3, r2
 631              		.loc 1 130 32 discriminator 1
 632 05ca 97ED257A 		vldr.32	s14, [r7, #148]
 633 05ce D7ED297A 		vldr.32	s15, [r7, #164]
 634 05d2 77EE277A 		vadd.f32	s15, s14, s15
 635              		.loc 1 130 27 discriminator 1
 636 05d6 C3ED007A 		vstr.32	s15, [r3]
 131:./Libraries/CMSIS/DSP/Source/TransformFunctions/arm_cfft_radix8_f32.c ****          pSrc[2 * i6 + 1] = t2 - r8;
 637              		.loc 1 131 14 discriminator 1
 638 05da D7F8C430 		ldr	r3, [r7, #196]
 639 05de DB00     		lsls	r3, r3, #3
 640 05e0 0433     		adds	r3, r3, #4
 641 05e2 FA68     		ldr	r2, [r7, #12]
 642 05e4 1344     		add	r3, r3, r2
 643              		.loc 1 131 32 discriminator 1
 644 05e6 97ED207A 		vldr.32	s14, [r7, #128]
 645 05ea D7ED277A 		vldr.32	s15, [r7, #156]
 646 05ee 77EE677A 		vsub.f32	s15, s14, s15
 647              		.loc 1 131 27 discriminator 1
 648 05f2 C3ED007A 		vstr.32	s15, [r3]
 132:./Libraries/CMSIS/DSP/Source/TransformFunctions/arm_cfft_radix8_f32.c ****          pSrc[2 * i4 + 1] = t2 + r8;
 649              		.loc 1 132 14 discriminator 1
 650 05f6 D7F8CC30 		ldr	r3, [r7, #204]
 651 05fa DB00     		lsls	r3, r3, #3
 652 05fc 0433     		adds	r3, r3, #4
 653 05fe FA68     		ldr	r2, [r7, #12]
 654 0600 1344     		add	r3, r3, r2
 655              		.loc 1 132 32 discriminator 1
 656 0602 97ED207A 		vldr.32	s14, [r7, #128]
 657 0606 D7ED277A 		vldr.32	s15, [r7, #156]
 658 060a 77EE277A 		vadd.f32	s15, s14, s15
 659              		.loc 1 132 27 discriminator 1
 660 060e C3ED007A 		vstr.32	s15, [r3]
 133:./Libraries/CMSIS/DSP/Source/TransformFunctions/arm_cfft_radix8_f32.c **** 
 134:./Libraries/CMSIS/DSP/Source/TransformFunctions/arm_cfft_radix8_f32.c ****          i1 += n1;
 661              		.loc 1 134 13 discriminator 1
 662 0612 D7F8E820 		ldr	r2, [r7, #232]
 663 0616 D7F8D830 		ldr	r3, [r7, #216]
 664 061a 1344     		add	r3, r3, r2
 665 061c C7F8E830 		str	r3, [r7, #232]
ARM GAS  /tmp/cc7bvgWg.s 			page 15


 135:./Libraries/CMSIS/DSP/Source/TransformFunctions/arm_cfft_radix8_f32.c ****       } while (i1 < fftLen);
 666              		.loc 1 135 19 discriminator 1
 667 0620 7B89     		ldrh	r3, [r7, #10]
 668              		.loc 1 135 7 discriminator 1
 669 0622 D7F8E820 		ldr	r2, [r7, #232]
 670 0626 9A42     		cmp	r2, r3
 671 0628 FFF40AAD 		bcc	.L2
 136:./Libraries/CMSIS/DSP/Source/TransformFunctions/arm_cfft_radix8_f32.c **** 
 137:./Libraries/CMSIS/DSP/Source/TransformFunctions/arm_cfft_radix8_f32.c ****       if (n2 < 8)
 672              		.loc 1 137 10
 673 062c D7F8E430 		ldr	r3, [r7, #228]
 674 0630 072B     		cmp	r3, #7
 675 0632 40F2E384 		bls	.L8
 138:./Libraries/CMSIS/DSP/Source/TransformFunctions/arm_cfft_radix8_f32.c ****          break;
 139:./Libraries/CMSIS/DSP/Source/TransformFunctions/arm_cfft_radix8_f32.c **** 
 140:./Libraries/CMSIS/DSP/Source/TransformFunctions/arm_cfft_radix8_f32.c ****       ia1 = 0;
 676              		.loc 1 140 11
 677 0636 0023     		movs	r3, #0
 678 0638 C7F8EC30 		str	r3, [r7, #236]
 141:./Libraries/CMSIS/DSP/Source/TransformFunctions/arm_cfft_radix8_f32.c ****       j = 1;
 679              		.loc 1 141 9
 680 063c 0123     		movs	r3, #1
 681 063e C7F8E030 		str	r3, [r7, #224]
 682              	.L6:
 142:./Libraries/CMSIS/DSP/Source/TransformFunctions/arm_cfft_radix8_f32.c **** 
 143:./Libraries/CMSIS/DSP/Source/TransformFunctions/arm_cfft_radix8_f32.c ****       do
 144:./Libraries/CMSIS/DSP/Source/TransformFunctions/arm_cfft_radix8_f32.c ****       {
 145:./Libraries/CMSIS/DSP/Source/TransformFunctions/arm_cfft_radix8_f32.c ****          /*  index calculation for the coefficients */
 146:./Libraries/CMSIS/DSP/Source/TransformFunctions/arm_cfft_radix8_f32.c ****          id  = ia1 + twidCoefModifier;
 683              		.loc 1 146 20
 684 0642 3B89     		ldrh	r3, [r7, #8]
 685              		.loc 1 146 14
 686 0644 D7F8EC20 		ldr	r2, [r7, #236]
 687 0648 1344     		add	r3, r3, r2
 688 064a FB67     		str	r3, [r7, #124]
 147:./Libraries/CMSIS/DSP/Source/TransformFunctions/arm_cfft_radix8_f32.c ****          ia1 = id;
 689              		.loc 1 147 14
 690 064c FB6F     		ldr	r3, [r7, #124]
 691 064e C7F8EC30 		str	r3, [r7, #236]
 148:./Libraries/CMSIS/DSP/Source/TransformFunctions/arm_cfft_radix8_f32.c ****          ia2 = ia1 + id;
 692              		.loc 1 148 14
 693 0652 D7F8EC20 		ldr	r2, [r7, #236]
 694 0656 FB6F     		ldr	r3, [r7, #124]
 695 0658 1344     		add	r3, r3, r2
 696 065a BB67     		str	r3, [r7, #120]
 149:./Libraries/CMSIS/DSP/Source/TransformFunctions/arm_cfft_radix8_f32.c ****          ia3 = ia2 + id;
 697              		.loc 1 149 14
 698 065c BA6F     		ldr	r2, [r7, #120]
 699 065e FB6F     		ldr	r3, [r7, #124]
 700 0660 1344     		add	r3, r3, r2
 701 0662 7B67     		str	r3, [r7, #116]
 150:./Libraries/CMSIS/DSP/Source/TransformFunctions/arm_cfft_radix8_f32.c ****          ia4 = ia3 + id;
 702              		.loc 1 150 14
 703 0664 7A6F     		ldr	r2, [r7, #116]
 704 0666 FB6F     		ldr	r3, [r7, #124]
 705 0668 1344     		add	r3, r3, r2
 706 066a 3B67     		str	r3, [r7, #112]
ARM GAS  /tmp/cc7bvgWg.s 			page 16


 151:./Libraries/CMSIS/DSP/Source/TransformFunctions/arm_cfft_radix8_f32.c ****          ia5 = ia4 + id;
 707              		.loc 1 151 14
 708 066c 3A6F     		ldr	r2, [r7, #112]
 709 066e FB6F     		ldr	r3, [r7, #124]
 710 0670 1344     		add	r3, r3, r2
 711 0672 FB66     		str	r3, [r7, #108]
 152:./Libraries/CMSIS/DSP/Source/TransformFunctions/arm_cfft_radix8_f32.c ****          ia6 = ia5 + id;
 712              		.loc 1 152 14
 713 0674 FA6E     		ldr	r2, [r7, #108]
 714 0676 FB6F     		ldr	r3, [r7, #124]
 715 0678 1344     		add	r3, r3, r2
 716 067a BB66     		str	r3, [r7, #104]
 153:./Libraries/CMSIS/DSP/Source/TransformFunctions/arm_cfft_radix8_f32.c ****          ia7 = ia6 + id;
 717              		.loc 1 153 14
 718 067c BA6E     		ldr	r2, [r7, #104]
 719 067e FB6F     		ldr	r3, [r7, #124]
 720 0680 1344     		add	r3, r3, r2
 721 0682 7B66     		str	r3, [r7, #100]
 154:./Libraries/CMSIS/DSP/Source/TransformFunctions/arm_cfft_radix8_f32.c **** 
 155:./Libraries/CMSIS/DSP/Source/TransformFunctions/arm_cfft_radix8_f32.c ****          co2 = pCoef[2 * ia1];
 722              		.loc 1 155 21
 723 0684 D7F8EC30 		ldr	r3, [r7, #236]
 724 0688 DB00     		lsls	r3, r3, #3
 725 068a 7A68     		ldr	r2, [r7, #4]
 726 068c 1344     		add	r3, r3, r2
 727              		.loc 1 155 14
 728 068e 1B68     		ldr	r3, [r3]	@ float
 729 0690 3B66     		str	r3, [r7, #96]	@ float
 156:./Libraries/CMSIS/DSP/Source/TransformFunctions/arm_cfft_radix8_f32.c ****          co3 = pCoef[2 * ia2];
 730              		.loc 1 156 21
 731 0692 BB6F     		ldr	r3, [r7, #120]
 732 0694 DB00     		lsls	r3, r3, #3
 733 0696 7A68     		ldr	r2, [r7, #4]
 734 0698 1344     		add	r3, r3, r2
 735              		.loc 1 156 14
 736 069a 1B68     		ldr	r3, [r3]	@ float
 737 069c FB65     		str	r3, [r7, #92]	@ float
 157:./Libraries/CMSIS/DSP/Source/TransformFunctions/arm_cfft_radix8_f32.c ****          co4 = pCoef[2 * ia3];
 738              		.loc 1 157 21
 739 069e 7B6F     		ldr	r3, [r7, #116]
 740 06a0 DB00     		lsls	r3, r3, #3
 741 06a2 7A68     		ldr	r2, [r7, #4]
 742 06a4 1344     		add	r3, r3, r2
 743              		.loc 1 157 14
 744 06a6 1B68     		ldr	r3, [r3]	@ float
 745 06a8 BB65     		str	r3, [r7, #88]	@ float
 158:./Libraries/CMSIS/DSP/Source/TransformFunctions/arm_cfft_radix8_f32.c ****          co5 = pCoef[2 * ia4];
 746              		.loc 1 158 21
 747 06aa 3B6F     		ldr	r3, [r7, #112]
 748 06ac DB00     		lsls	r3, r3, #3
 749 06ae 7A68     		ldr	r2, [r7, #4]
 750 06b0 1344     		add	r3, r3, r2
 751              		.loc 1 158 14
 752 06b2 1B68     		ldr	r3, [r3]	@ float
 753 06b4 7B65     		str	r3, [r7, #84]	@ float
 159:./Libraries/CMSIS/DSP/Source/TransformFunctions/arm_cfft_radix8_f32.c ****          co6 = pCoef[2 * ia5];
 754              		.loc 1 159 21
ARM GAS  /tmp/cc7bvgWg.s 			page 17


 755 06b6 FB6E     		ldr	r3, [r7, #108]
 756 06b8 DB00     		lsls	r3, r3, #3
 757 06ba 7A68     		ldr	r2, [r7, #4]
 758 06bc 1344     		add	r3, r3, r2
 759              		.loc 1 159 14
 760 06be 1B68     		ldr	r3, [r3]	@ float
 761 06c0 3B65     		str	r3, [r7, #80]	@ float
 160:./Libraries/CMSIS/DSP/Source/TransformFunctions/arm_cfft_radix8_f32.c ****          co7 = pCoef[2 * ia6];
 762              		.loc 1 160 21
 763 06c2 BB6E     		ldr	r3, [r7, #104]
 764 06c4 DB00     		lsls	r3, r3, #3
 765 06c6 7A68     		ldr	r2, [r7, #4]
 766 06c8 1344     		add	r3, r3, r2
 767              		.loc 1 160 14
 768 06ca 1B68     		ldr	r3, [r3]	@ float
 769 06cc FB64     		str	r3, [r7, #76]	@ float
 161:./Libraries/CMSIS/DSP/Source/TransformFunctions/arm_cfft_radix8_f32.c ****          co8 = pCoef[2 * ia7];
 770              		.loc 1 161 21
 771 06ce 7B6E     		ldr	r3, [r7, #100]
 772 06d0 DB00     		lsls	r3, r3, #3
 773 06d2 7A68     		ldr	r2, [r7, #4]
 774 06d4 1344     		add	r3, r3, r2
 775              		.loc 1 161 14
 776 06d6 1B68     		ldr	r3, [r3]	@ float
 777 06d8 BB64     		str	r3, [r7, #72]	@ float
 162:./Libraries/CMSIS/DSP/Source/TransformFunctions/arm_cfft_radix8_f32.c ****          si2 = pCoef[2 * ia1 + 1];
 778              		.loc 1 162 21
 779 06da D7F8EC30 		ldr	r3, [r7, #236]
 780 06de DB00     		lsls	r3, r3, #3
 781 06e0 0433     		adds	r3, r3, #4
 782 06e2 7A68     		ldr	r2, [r7, #4]
 783 06e4 1344     		add	r3, r3, r2
 784              		.loc 1 162 14
 785 06e6 1B68     		ldr	r3, [r3]	@ float
 786 06e8 7B64     		str	r3, [r7, #68]	@ float
 163:./Libraries/CMSIS/DSP/Source/TransformFunctions/arm_cfft_radix8_f32.c ****          si3 = pCoef[2 * ia2 + 1];
 787              		.loc 1 163 21
 788 06ea BB6F     		ldr	r3, [r7, #120]
 789 06ec DB00     		lsls	r3, r3, #3
 790 06ee 0433     		adds	r3, r3, #4
 791 06f0 7A68     		ldr	r2, [r7, #4]
 792 06f2 1344     		add	r3, r3, r2
 793              		.loc 1 163 14
 794 06f4 1B68     		ldr	r3, [r3]	@ float
 795 06f6 3B64     		str	r3, [r7, #64]	@ float
 164:./Libraries/CMSIS/DSP/Source/TransformFunctions/arm_cfft_radix8_f32.c ****          si4 = pCoef[2 * ia3 + 1];
 796              		.loc 1 164 21
 797 06f8 7B6F     		ldr	r3, [r7, #116]
 798 06fa DB00     		lsls	r3, r3, #3
 799 06fc 0433     		adds	r3, r3, #4
 800 06fe 7A68     		ldr	r2, [r7, #4]
 801 0700 1344     		add	r3, r3, r2
 802              		.loc 1 164 14
 803 0702 1B68     		ldr	r3, [r3]	@ float
 804 0704 FB63     		str	r3, [r7, #60]	@ float
 165:./Libraries/CMSIS/DSP/Source/TransformFunctions/arm_cfft_radix8_f32.c ****          si5 = pCoef[2 * ia4 + 1];
 805              		.loc 1 165 21
ARM GAS  /tmp/cc7bvgWg.s 			page 18


 806 0706 3B6F     		ldr	r3, [r7, #112]
 807 0708 DB00     		lsls	r3, r3, #3
 808 070a 0433     		adds	r3, r3, #4
 809 070c 7A68     		ldr	r2, [r7, #4]
 810 070e 1344     		add	r3, r3, r2
 811              		.loc 1 165 14
 812 0710 1B68     		ldr	r3, [r3]	@ float
 813 0712 BB63     		str	r3, [r7, #56]	@ float
 166:./Libraries/CMSIS/DSP/Source/TransformFunctions/arm_cfft_radix8_f32.c ****          si6 = pCoef[2 * ia5 + 1];
 814              		.loc 1 166 21
 815 0714 FB6E     		ldr	r3, [r7, #108]
 816 0716 DB00     		lsls	r3, r3, #3
 817 0718 0433     		adds	r3, r3, #4
 818 071a 7A68     		ldr	r2, [r7, #4]
 819 071c 1344     		add	r3, r3, r2
 820              		.loc 1 166 14
 821 071e 1B68     		ldr	r3, [r3]	@ float
 822 0720 7B63     		str	r3, [r7, #52]	@ float
 167:./Libraries/CMSIS/DSP/Source/TransformFunctions/arm_cfft_radix8_f32.c ****          si7 = pCoef[2 * ia6 + 1];
 823              		.loc 1 167 21
 824 0722 BB6E     		ldr	r3, [r7, #104]
 825 0724 DB00     		lsls	r3, r3, #3
 826 0726 0433     		adds	r3, r3, #4
 827 0728 7A68     		ldr	r2, [r7, #4]
 828 072a 1344     		add	r3, r3, r2
 829              		.loc 1 167 14
 830 072c 1B68     		ldr	r3, [r3]	@ float
 831 072e 3B63     		str	r3, [r7, #48]	@ float
 168:./Libraries/CMSIS/DSP/Source/TransformFunctions/arm_cfft_radix8_f32.c ****          si8 = pCoef[2 * ia7 + 1];
 832              		.loc 1 168 21
 833 0730 7B6E     		ldr	r3, [r7, #100]
 834 0732 DB00     		lsls	r3, r3, #3
 835 0734 0433     		adds	r3, r3, #4
 836 0736 7A68     		ldr	r2, [r7, #4]
 837 0738 1344     		add	r3, r3, r2
 838              		.loc 1 168 14
 839 073a 1B68     		ldr	r3, [r3]	@ float
 840 073c FB62     		str	r3, [r7, #44]	@ float
 169:./Libraries/CMSIS/DSP/Source/TransformFunctions/arm_cfft_radix8_f32.c **** 
 170:./Libraries/CMSIS/DSP/Source/TransformFunctions/arm_cfft_radix8_f32.c ****          i1 = j;
 841              		.loc 1 170 13
 842 073e D7F8E030 		ldr	r3, [r7, #224]
 843 0742 C7F8E830 		str	r3, [r7, #232]
 844              	.L5:
 171:./Libraries/CMSIS/DSP/Source/TransformFunctions/arm_cfft_radix8_f32.c **** 
 172:./Libraries/CMSIS/DSP/Source/TransformFunctions/arm_cfft_radix8_f32.c ****          do
 173:./Libraries/CMSIS/DSP/Source/TransformFunctions/arm_cfft_radix8_f32.c ****          {
 174:./Libraries/CMSIS/DSP/Source/TransformFunctions/arm_cfft_radix8_f32.c ****             /*  index calculation for the input */
 175:./Libraries/CMSIS/DSP/Source/TransformFunctions/arm_cfft_radix8_f32.c ****             i2 = i1 + n2;
 845              		.loc 1 175 16 discriminator 1
 846 0746 D7F8E820 		ldr	r2, [r7, #232]
 847 074a D7F8E430 		ldr	r3, [r7, #228]
 848 074e 1344     		add	r3, r3, r2
 849 0750 C7F8D430 		str	r3, [r7, #212]
 176:./Libraries/CMSIS/DSP/Source/TransformFunctions/arm_cfft_radix8_f32.c ****             i3 = i2 + n2;
 850              		.loc 1 176 16 discriminator 1
 851 0754 D7F8D420 		ldr	r2, [r7, #212]
ARM GAS  /tmp/cc7bvgWg.s 			page 19


 852 0758 D7F8E430 		ldr	r3, [r7, #228]
 853 075c 1344     		add	r3, r3, r2
 854 075e C7F8D030 		str	r3, [r7, #208]
 177:./Libraries/CMSIS/DSP/Source/TransformFunctions/arm_cfft_radix8_f32.c ****             i4 = i3 + n2;
 855              		.loc 1 177 16 discriminator 1
 856 0762 D7F8D020 		ldr	r2, [r7, #208]
 857 0766 D7F8E430 		ldr	r3, [r7, #228]
 858 076a 1344     		add	r3, r3, r2
 859 076c C7F8CC30 		str	r3, [r7, #204]
 178:./Libraries/CMSIS/DSP/Source/TransformFunctions/arm_cfft_radix8_f32.c ****             i5 = i4 + n2;
 860              		.loc 1 178 16 discriminator 1
 861 0770 D7F8CC20 		ldr	r2, [r7, #204]
 862 0774 D7F8E430 		ldr	r3, [r7, #228]
 863 0778 1344     		add	r3, r3, r2
 864 077a C7F8C830 		str	r3, [r7, #200]
 179:./Libraries/CMSIS/DSP/Source/TransformFunctions/arm_cfft_radix8_f32.c ****             i6 = i5 + n2;
 865              		.loc 1 179 16 discriminator 1
 866 077e D7F8C820 		ldr	r2, [r7, #200]
 867 0782 D7F8E430 		ldr	r3, [r7, #228]
 868 0786 1344     		add	r3, r3, r2
 869 0788 C7F8C430 		str	r3, [r7, #196]
 180:./Libraries/CMSIS/DSP/Source/TransformFunctions/arm_cfft_radix8_f32.c ****             i7 = i6 + n2;
 870              		.loc 1 180 16 discriminator 1
 871 078c D7F8C420 		ldr	r2, [r7, #196]
 872 0790 D7F8E430 		ldr	r3, [r7, #228]
 873 0794 1344     		add	r3, r3, r2
 874 0796 C7F8C030 		str	r3, [r7, #192]
 181:./Libraries/CMSIS/DSP/Source/TransformFunctions/arm_cfft_radix8_f32.c ****             i8 = i7 + n2;
 875              		.loc 1 181 16 discriminator 1
 876 079a D7F8C020 		ldr	r2, [r7, #192]
 877 079e D7F8E430 		ldr	r3, [r7, #228]
 878 07a2 1344     		add	r3, r3, r2
 879 07a4 C7F8BC30 		str	r3, [r7, #188]
 182:./Libraries/CMSIS/DSP/Source/TransformFunctions/arm_cfft_radix8_f32.c ****             r1 = pSrc[2 * i1] + pSrc[2 * i5];
 880              		.loc 1 182 22 discriminator 1
 881 07a8 D7F8E830 		ldr	r3, [r7, #232]
 882 07ac DB00     		lsls	r3, r3, #3
 883 07ae FA68     		ldr	r2, [r7, #12]
 884 07b0 1344     		add	r3, r3, r2
 885 07b2 93ED007A 		vldr.32	s14, [r3]
 886              		.loc 1 182 37 discriminator 1
 887 07b6 D7F8C830 		ldr	r3, [r7, #200]
 888 07ba DB00     		lsls	r3, r3, #3
 889 07bc FA68     		ldr	r2, [r7, #12]
 890 07be 1344     		add	r3, r3, r2
 891 07c0 D3ED007A 		vldr.32	s15, [r3]
 892              		.loc 1 182 16 discriminator 1
 893 07c4 77EE277A 		vadd.f32	s15, s14, s15
 894 07c8 C7ED2E7A 		vstr.32	s15, [r7, #184]
 183:./Libraries/CMSIS/DSP/Source/TransformFunctions/arm_cfft_radix8_f32.c ****             r5 = pSrc[2 * i1] - pSrc[2 * i5];
 895              		.loc 1 183 22 discriminator 1
 896 07cc D7F8E830 		ldr	r3, [r7, #232]
 897 07d0 DB00     		lsls	r3, r3, #3
 898 07d2 FA68     		ldr	r2, [r7, #12]
 899 07d4 1344     		add	r3, r3, r2
 900 07d6 93ED007A 		vldr.32	s14, [r3]
 901              		.loc 1 183 37 discriminator 1
ARM GAS  /tmp/cc7bvgWg.s 			page 20


 902 07da D7F8C830 		ldr	r3, [r7, #200]
 903 07de DB00     		lsls	r3, r3, #3
 904 07e0 FA68     		ldr	r2, [r7, #12]
 905 07e2 1344     		add	r3, r3, r2
 906 07e4 D3ED007A 		vldr.32	s15, [r3]
 907              		.loc 1 183 16 discriminator 1
 908 07e8 77EE677A 		vsub.f32	s15, s14, s15
 909 07ec C7ED2D7A 		vstr.32	s15, [r7, #180]
 184:./Libraries/CMSIS/DSP/Source/TransformFunctions/arm_cfft_radix8_f32.c ****             r2 = pSrc[2 * i2] + pSrc[2 * i6];
 910              		.loc 1 184 22 discriminator 1
 911 07f0 D7F8D430 		ldr	r3, [r7, #212]
 912 07f4 DB00     		lsls	r3, r3, #3
 913 07f6 FA68     		ldr	r2, [r7, #12]
 914 07f8 1344     		add	r3, r3, r2
 915 07fa 93ED007A 		vldr.32	s14, [r3]
 916              		.loc 1 184 37 discriminator 1
 917 07fe D7F8C430 		ldr	r3, [r7, #196]
 918 0802 DB00     		lsls	r3, r3, #3
 919 0804 FA68     		ldr	r2, [r7, #12]
 920 0806 1344     		add	r3, r3, r2
 921 0808 D3ED007A 		vldr.32	s15, [r3]
 922              		.loc 1 184 16 discriminator 1
 923 080c 77EE277A 		vadd.f32	s15, s14, s15
 924 0810 C7ED2C7A 		vstr.32	s15, [r7, #176]
 185:./Libraries/CMSIS/DSP/Source/TransformFunctions/arm_cfft_radix8_f32.c ****             r6 = pSrc[2 * i2] - pSrc[2 * i6];
 925              		.loc 1 185 22 discriminator 1
 926 0814 D7F8D430 		ldr	r3, [r7, #212]
 927 0818 DB00     		lsls	r3, r3, #3
 928 081a FA68     		ldr	r2, [r7, #12]
 929 081c 1344     		add	r3, r3, r2
 930 081e 93ED007A 		vldr.32	s14, [r3]
 931              		.loc 1 185 37 discriminator 1
 932 0822 D7F8C430 		ldr	r3, [r7, #196]
 933 0826 DB00     		lsls	r3, r3, #3
 934 0828 FA68     		ldr	r2, [r7, #12]
 935 082a 1344     		add	r3, r3, r2
 936 082c D3ED007A 		vldr.32	s15, [r3]
 937              		.loc 1 185 16 discriminator 1
 938 0830 77EE677A 		vsub.f32	s15, s14, s15
 939 0834 C7ED2B7A 		vstr.32	s15, [r7, #172]
 186:./Libraries/CMSIS/DSP/Source/TransformFunctions/arm_cfft_radix8_f32.c ****             r3 = pSrc[2 * i3] + pSrc[2 * i7];
 940              		.loc 1 186 22 discriminator 1
 941 0838 D7F8D030 		ldr	r3, [r7, #208]
 942 083c DB00     		lsls	r3, r3, #3
 943 083e FA68     		ldr	r2, [r7, #12]
 944 0840 1344     		add	r3, r3, r2
 945 0842 93ED007A 		vldr.32	s14, [r3]
 946              		.loc 1 186 37 discriminator 1
 947 0846 D7F8C030 		ldr	r3, [r7, #192]
 948 084a DB00     		lsls	r3, r3, #3
 949 084c FA68     		ldr	r2, [r7, #12]
 950 084e 1344     		add	r3, r3, r2
 951 0850 D3ED007A 		vldr.32	s15, [r3]
 952              		.loc 1 186 16 discriminator 1
 953 0854 77EE277A 		vadd.f32	s15, s14, s15
 954 0858 C7ED2A7A 		vstr.32	s15, [r7, #168]
 187:./Libraries/CMSIS/DSP/Source/TransformFunctions/arm_cfft_radix8_f32.c ****             r7 = pSrc[2 * i3] - pSrc[2 * i7];
ARM GAS  /tmp/cc7bvgWg.s 			page 21


 955              		.loc 1 187 22 discriminator 1
 956 085c D7F8D030 		ldr	r3, [r7, #208]
 957 0860 DB00     		lsls	r3, r3, #3
 958 0862 FA68     		ldr	r2, [r7, #12]
 959 0864 1344     		add	r3, r3, r2
 960 0866 93ED007A 		vldr.32	s14, [r3]
 961              		.loc 1 187 37 discriminator 1
 962 086a D7F8C030 		ldr	r3, [r7, #192]
 963 086e DB00     		lsls	r3, r3, #3
 964 0870 FA68     		ldr	r2, [r7, #12]
 965 0872 1344     		add	r3, r3, r2
 966 0874 D3ED007A 		vldr.32	s15, [r3]
 967              		.loc 1 187 16 discriminator 1
 968 0878 77EE677A 		vsub.f32	s15, s14, s15
 969 087c C7ED297A 		vstr.32	s15, [r7, #164]
 188:./Libraries/CMSIS/DSP/Source/TransformFunctions/arm_cfft_radix8_f32.c ****             r4 = pSrc[2 * i4] + pSrc[2 * i8];
 970              		.loc 1 188 22 discriminator 1
 971 0880 D7F8CC30 		ldr	r3, [r7, #204]
 972 0884 DB00     		lsls	r3, r3, #3
 973 0886 FA68     		ldr	r2, [r7, #12]
 974 0888 1344     		add	r3, r3, r2
 975 088a 93ED007A 		vldr.32	s14, [r3]
 976              		.loc 1 188 37 discriminator 1
 977 088e D7F8BC30 		ldr	r3, [r7, #188]
 978 0892 DB00     		lsls	r3, r3, #3
 979 0894 FA68     		ldr	r2, [r7, #12]
 980 0896 1344     		add	r3, r3, r2
 981 0898 D3ED007A 		vldr.32	s15, [r3]
 982              		.loc 1 188 16 discriminator 1
 983 089c 77EE277A 		vadd.f32	s15, s14, s15
 984 08a0 C7ED287A 		vstr.32	s15, [r7, #160]
 189:./Libraries/CMSIS/DSP/Source/TransformFunctions/arm_cfft_radix8_f32.c ****             r8 = pSrc[2 * i4] - pSrc[2 * i8];
 985              		.loc 1 189 22 discriminator 1
 986 08a4 D7F8CC30 		ldr	r3, [r7, #204]
 987 08a8 DB00     		lsls	r3, r3, #3
 988 08aa FA68     		ldr	r2, [r7, #12]
 989 08ac 1344     		add	r3, r3, r2
 990 08ae 93ED007A 		vldr.32	s14, [r3]
 991              		.loc 1 189 37 discriminator 1
 992 08b2 D7F8BC30 		ldr	r3, [r7, #188]
 993 08b6 DB00     		lsls	r3, r3, #3
 994 08b8 FA68     		ldr	r2, [r7, #12]
 995 08ba 1344     		add	r3, r3, r2
 996 08bc D3ED007A 		vldr.32	s15, [r3]
 997              		.loc 1 189 16 discriminator 1
 998 08c0 77EE677A 		vsub.f32	s15, s14, s15
 999 08c4 C7ED277A 		vstr.32	s15, [r7, #156]
 190:./Libraries/CMSIS/DSP/Source/TransformFunctions/arm_cfft_radix8_f32.c ****             t1 = r1 - r3;
 1000              		.loc 1 190 16 discriminator 1
 1001 08c8 97ED2E7A 		vldr.32	s14, [r7, #184]
 1002 08cc D7ED2A7A 		vldr.32	s15, [r7, #168]
 1003 08d0 77EE677A 		vsub.f32	s15, s14, s15
 1004 08d4 C7ED267A 		vstr.32	s15, [r7, #152]
 191:./Libraries/CMSIS/DSP/Source/TransformFunctions/arm_cfft_radix8_f32.c ****             r1 = r1 + r3;
 1005              		.loc 1 191 16 discriminator 1
 1006 08d8 97ED2E7A 		vldr.32	s14, [r7, #184]
 1007 08dc D7ED2A7A 		vldr.32	s15, [r7, #168]
ARM GAS  /tmp/cc7bvgWg.s 			page 22


 1008 08e0 77EE277A 		vadd.f32	s15, s14, s15
 1009 08e4 C7ED2E7A 		vstr.32	s15, [r7, #184]
 192:./Libraries/CMSIS/DSP/Source/TransformFunctions/arm_cfft_radix8_f32.c ****             r3 = r2 - r4;
 1010              		.loc 1 192 16 discriminator 1
 1011 08e8 97ED2C7A 		vldr.32	s14, [r7, #176]
 1012 08ec D7ED287A 		vldr.32	s15, [r7, #160]
 1013 08f0 77EE677A 		vsub.f32	s15, s14, s15
 1014 08f4 C7ED2A7A 		vstr.32	s15, [r7, #168]
 193:./Libraries/CMSIS/DSP/Source/TransformFunctions/arm_cfft_radix8_f32.c ****             r2 = r2 + r4;
 1015              		.loc 1 193 16 discriminator 1
 1016 08f8 97ED2C7A 		vldr.32	s14, [r7, #176]
 1017 08fc D7ED287A 		vldr.32	s15, [r7, #160]
 1018 0900 77EE277A 		vadd.f32	s15, s14, s15
 1019 0904 C7ED2C7A 		vstr.32	s15, [r7, #176]
 194:./Libraries/CMSIS/DSP/Source/TransformFunctions/arm_cfft_radix8_f32.c ****             pSrc[2 * i1] = r1 + r2;
 1020              		.loc 1 194 17 discriminator 1
 1021 0908 D7F8E830 		ldr	r3, [r7, #232]
 1022 090c DB00     		lsls	r3, r3, #3
 1023 090e FA68     		ldr	r2, [r7, #12]
 1024 0910 1344     		add	r3, r3, r2
 1025              		.loc 1 194 31 discriminator 1
 1026 0912 97ED2E7A 		vldr.32	s14, [r7, #184]
 1027 0916 D7ED2C7A 		vldr.32	s15, [r7, #176]
 1028 091a 77EE277A 		vadd.f32	s15, s14, s15
 1029              		.loc 1 194 26 discriminator 1
 1030 091e C3ED007A 		vstr.32	s15, [r3]
 195:./Libraries/CMSIS/DSP/Source/TransformFunctions/arm_cfft_radix8_f32.c ****             r2 = r1 - r2;
 1031              		.loc 1 195 16 discriminator 1
 1032 0922 97ED2E7A 		vldr.32	s14, [r7, #184]
 1033 0926 D7ED2C7A 		vldr.32	s15, [r7, #176]
 1034 092a 77EE677A 		vsub.f32	s15, s14, s15
 1035 092e C7ED2C7A 		vstr.32	s15, [r7, #176]
 196:./Libraries/CMSIS/DSP/Source/TransformFunctions/arm_cfft_radix8_f32.c ****             s1 = pSrc[2 * i1 + 1] + pSrc[2 * i5 + 1];
 1036              		.loc 1 196 22 discriminator 1
 1037 0932 D7F8E830 		ldr	r3, [r7, #232]
 1038 0936 DB00     		lsls	r3, r3, #3
 1039 0938 0433     		adds	r3, r3, #4
 1040 093a FA68     		ldr	r2, [r7, #12]
 1041 093c 1344     		add	r3, r3, r2
 1042 093e 93ED007A 		vldr.32	s14, [r3]
 1043              		.loc 1 196 41 discriminator 1
 1044 0942 D7F8C830 		ldr	r3, [r7, #200]
 1045 0946 DB00     		lsls	r3, r3, #3
 1046 0948 0433     		adds	r3, r3, #4
 1047 094a FA68     		ldr	r2, [r7, #12]
 1048 094c 1344     		add	r3, r3, r2
 1049 094e D3ED007A 		vldr.32	s15, [r3]
 1050              		.loc 1 196 16 discriminator 1
 1051 0952 77EE277A 		vadd.f32	s15, s14, s15
 1052 0956 C7ED0A7A 		vstr.32	s15, [r7, #40]
 197:./Libraries/CMSIS/DSP/Source/TransformFunctions/arm_cfft_radix8_f32.c ****             s5 = pSrc[2 * i1 + 1] - pSrc[2 * i5 + 1];
 1053              		.loc 1 197 22 discriminator 1
 1054 095a D7F8E830 		ldr	r3, [r7, #232]
 1055 095e DB00     		lsls	r3, r3, #3
 1056 0960 0433     		adds	r3, r3, #4
 1057 0962 FA68     		ldr	r2, [r7, #12]
 1058 0964 1344     		add	r3, r3, r2
ARM GAS  /tmp/cc7bvgWg.s 			page 23


 1059 0966 93ED007A 		vldr.32	s14, [r3]
 1060              		.loc 1 197 41 discriminator 1
 1061 096a D7F8C830 		ldr	r3, [r7, #200]
 1062 096e DB00     		lsls	r3, r3, #3
 1063 0970 0433     		adds	r3, r3, #4
 1064 0972 FA68     		ldr	r2, [r7, #12]
 1065 0974 1344     		add	r3, r3, r2
 1066 0976 D3ED007A 		vldr.32	s15, [r3]
 1067              		.loc 1 197 16 discriminator 1
 1068 097a 77EE677A 		vsub.f32	s15, s14, s15
 1069 097e C7ED257A 		vstr.32	s15, [r7, #148]
 198:./Libraries/CMSIS/DSP/Source/TransformFunctions/arm_cfft_radix8_f32.c ****             s2 = pSrc[2 * i2 + 1] + pSrc[2 * i6 + 1];
 1070              		.loc 1 198 22 discriminator 1
 1071 0982 D7F8D430 		ldr	r3, [r7, #212]
 1072 0986 DB00     		lsls	r3, r3, #3
 1073 0988 0433     		adds	r3, r3, #4
 1074 098a FA68     		ldr	r2, [r7, #12]
 1075 098c 1344     		add	r3, r3, r2
 1076 098e 93ED007A 		vldr.32	s14, [r3]
 1077              		.loc 1 198 41 discriminator 1
 1078 0992 D7F8C430 		ldr	r3, [r7, #196]
 1079 0996 DB00     		lsls	r3, r3, #3
 1080 0998 0433     		adds	r3, r3, #4
 1081 099a FA68     		ldr	r2, [r7, #12]
 1082 099c 1344     		add	r3, r3, r2
 1083 099e D3ED007A 		vldr.32	s15, [r3]
 1084              		.loc 1 198 16 discriminator 1
 1085 09a2 77EE277A 		vadd.f32	s15, s14, s15
 1086 09a6 C7ED097A 		vstr.32	s15, [r7, #36]
 199:./Libraries/CMSIS/DSP/Source/TransformFunctions/arm_cfft_radix8_f32.c ****             s6 = pSrc[2 * i2 + 1] - pSrc[2 * i6 + 1];
 1087              		.loc 1 199 22 discriminator 1
 1088 09aa D7F8D430 		ldr	r3, [r7, #212]
 1089 09ae DB00     		lsls	r3, r3, #3
 1090 09b0 0433     		adds	r3, r3, #4
 1091 09b2 FA68     		ldr	r2, [r7, #12]
 1092 09b4 1344     		add	r3, r3, r2
 1093 09b6 93ED007A 		vldr.32	s14, [r3]
 1094              		.loc 1 199 41 discriminator 1
 1095 09ba D7F8C430 		ldr	r3, [r7, #196]
 1096 09be DB00     		lsls	r3, r3, #3
 1097 09c0 0433     		adds	r3, r3, #4
 1098 09c2 FA68     		ldr	r2, [r7, #12]
 1099 09c4 1344     		add	r3, r3, r2
 1100 09c6 D3ED007A 		vldr.32	s15, [r3]
 1101              		.loc 1 199 16 discriminator 1
 1102 09ca 77EE677A 		vsub.f32	s15, s14, s15
 1103 09ce C7ED247A 		vstr.32	s15, [r7, #144]
 200:./Libraries/CMSIS/DSP/Source/TransformFunctions/arm_cfft_radix8_f32.c ****             s3 = pSrc[2 * i3 + 1] + pSrc[2 * i7 + 1];
 1104              		.loc 1 200 22 discriminator 1
 1105 09d2 D7F8D030 		ldr	r3, [r7, #208]
 1106 09d6 DB00     		lsls	r3, r3, #3
 1107 09d8 0433     		adds	r3, r3, #4
 1108 09da FA68     		ldr	r2, [r7, #12]
 1109 09dc 1344     		add	r3, r3, r2
 1110 09de 93ED007A 		vldr.32	s14, [r3]
 1111              		.loc 1 200 41 discriminator 1
 1112 09e2 D7F8C030 		ldr	r3, [r7, #192]
ARM GAS  /tmp/cc7bvgWg.s 			page 24


 1113 09e6 DB00     		lsls	r3, r3, #3
 1114 09e8 0433     		adds	r3, r3, #4
 1115 09ea FA68     		ldr	r2, [r7, #12]
 1116 09ec 1344     		add	r3, r3, r2
 1117 09ee D3ED007A 		vldr.32	s15, [r3]
 1118              		.loc 1 200 16 discriminator 1
 1119 09f2 77EE277A 		vadd.f32	s15, s14, s15
 1120 09f6 C7ED237A 		vstr.32	s15, [r7, #140]
 201:./Libraries/CMSIS/DSP/Source/TransformFunctions/arm_cfft_radix8_f32.c ****             s7 = pSrc[2 * i3 + 1] - pSrc[2 * i7 + 1];
 1121              		.loc 1 201 22 discriminator 1
 1122 09fa D7F8D030 		ldr	r3, [r7, #208]
 1123 09fe DB00     		lsls	r3, r3, #3
 1124 0a00 0433     		adds	r3, r3, #4
 1125 0a02 FA68     		ldr	r2, [r7, #12]
 1126 0a04 1344     		add	r3, r3, r2
 1127 0a06 93ED007A 		vldr.32	s14, [r3]
 1128              		.loc 1 201 41 discriminator 1
 1129 0a0a D7F8C030 		ldr	r3, [r7, #192]
 1130 0a0e DB00     		lsls	r3, r3, #3
 1131 0a10 0433     		adds	r3, r3, #4
 1132 0a12 FA68     		ldr	r2, [r7, #12]
 1133 0a14 1344     		add	r3, r3, r2
 1134 0a16 D3ED007A 		vldr.32	s15, [r3]
 1135              		.loc 1 201 16 discriminator 1
 1136 0a1a 77EE677A 		vsub.f32	s15, s14, s15
 1137 0a1e C7ED227A 		vstr.32	s15, [r7, #136]
 202:./Libraries/CMSIS/DSP/Source/TransformFunctions/arm_cfft_radix8_f32.c ****             s4 = pSrc[2 * i4 + 1] + pSrc[2 * i8 + 1];
 1138              		.loc 1 202 22 discriminator 1
 1139 0a22 D7F8CC30 		ldr	r3, [r7, #204]
 1140 0a26 DB00     		lsls	r3, r3, #3
 1141 0a28 0433     		adds	r3, r3, #4
 1142 0a2a FA68     		ldr	r2, [r7, #12]
 1143 0a2c 1344     		add	r3, r3, r2
 1144 0a2e 93ED007A 		vldr.32	s14, [r3]
 1145              		.loc 1 202 41 discriminator 1
 1146 0a32 D7F8BC30 		ldr	r3, [r7, #188]
 1147 0a36 DB00     		lsls	r3, r3, #3
 1148 0a38 0433     		adds	r3, r3, #4
 1149 0a3a FA68     		ldr	r2, [r7, #12]
 1150 0a3c 1344     		add	r3, r3, r2
 1151 0a3e D3ED007A 		vldr.32	s15, [r3]
 1152              		.loc 1 202 16 discriminator 1
 1153 0a42 77EE277A 		vadd.f32	s15, s14, s15
 1154 0a46 C7ED087A 		vstr.32	s15, [r7, #32]
 203:./Libraries/CMSIS/DSP/Source/TransformFunctions/arm_cfft_radix8_f32.c ****             s8 = pSrc[2 * i4 + 1] - pSrc[2 * i8 + 1];
 1155              		.loc 1 203 22 discriminator 1
 1156 0a4a D7F8CC30 		ldr	r3, [r7, #204]
 1157 0a4e DB00     		lsls	r3, r3, #3
 1158 0a50 0433     		adds	r3, r3, #4
 1159 0a52 FA68     		ldr	r2, [r7, #12]
 1160 0a54 1344     		add	r3, r3, r2
 1161 0a56 93ED007A 		vldr.32	s14, [r3]
 1162              		.loc 1 203 41 discriminator 1
 1163 0a5a D7F8BC30 		ldr	r3, [r7, #188]
 1164 0a5e DB00     		lsls	r3, r3, #3
 1165 0a60 0433     		adds	r3, r3, #4
 1166 0a62 FA68     		ldr	r2, [r7, #12]
ARM GAS  /tmp/cc7bvgWg.s 			page 25


 1167 0a64 1344     		add	r3, r3, r2
 1168 0a66 D3ED007A 		vldr.32	s15, [r3]
 1169              		.loc 1 203 16 discriminator 1
 1170 0a6a 77EE677A 		vsub.f32	s15, s14, s15
 1171 0a6e C7ED217A 		vstr.32	s15, [r7, #132]
 204:./Libraries/CMSIS/DSP/Source/TransformFunctions/arm_cfft_radix8_f32.c ****             t2 = s1 - s3;
 1172              		.loc 1 204 16 discriminator 1
 1173 0a72 97ED0A7A 		vldr.32	s14, [r7, #40]
 1174 0a76 D7ED237A 		vldr.32	s15, [r7, #140]
 1175 0a7a 77EE677A 		vsub.f32	s15, s14, s15
 1176 0a7e C7ED207A 		vstr.32	s15, [r7, #128]
 205:./Libraries/CMSIS/DSP/Source/TransformFunctions/arm_cfft_radix8_f32.c ****             s1 = s1 + s3;
 1177              		.loc 1 205 16 discriminator 1
 1178 0a82 97ED0A7A 		vldr.32	s14, [r7, #40]
 1179 0a86 D7ED237A 		vldr.32	s15, [r7, #140]
 1180 0a8a 77EE277A 		vadd.f32	s15, s14, s15
 1181 0a8e C7ED0A7A 		vstr.32	s15, [r7, #40]
 206:./Libraries/CMSIS/DSP/Source/TransformFunctions/arm_cfft_radix8_f32.c ****             s3 = s2 - s4;
 1182              		.loc 1 206 16 discriminator 1
 1183 0a92 97ED097A 		vldr.32	s14, [r7, #36]
 1184 0a96 D7ED087A 		vldr.32	s15, [r7, #32]
 1185 0a9a 77EE677A 		vsub.f32	s15, s14, s15
 1186 0a9e C7ED237A 		vstr.32	s15, [r7, #140]
 207:./Libraries/CMSIS/DSP/Source/TransformFunctions/arm_cfft_radix8_f32.c ****             s2 = s2 + s4;
 1187              		.loc 1 207 16 discriminator 1
 1188 0aa2 97ED097A 		vldr.32	s14, [r7, #36]
 1189 0aa6 D7ED087A 		vldr.32	s15, [r7, #32]
 1190 0aaa 77EE277A 		vadd.f32	s15, s14, s15
 1191 0aae C7ED097A 		vstr.32	s15, [r7, #36]
 208:./Libraries/CMSIS/DSP/Source/TransformFunctions/arm_cfft_radix8_f32.c ****             r1 = t1 + s3;
 1192              		.loc 1 208 16 discriminator 1
 1193 0ab2 97ED267A 		vldr.32	s14, [r7, #152]
 1194 0ab6 D7ED237A 		vldr.32	s15, [r7, #140]
 1195 0aba 77EE277A 		vadd.f32	s15, s14, s15
 1196 0abe C7ED2E7A 		vstr.32	s15, [r7, #184]
 209:./Libraries/CMSIS/DSP/Source/TransformFunctions/arm_cfft_radix8_f32.c ****             t1 = t1 - s3;
 1197              		.loc 1 209 16 discriminator 1
 1198 0ac2 97ED267A 		vldr.32	s14, [r7, #152]
 1199 0ac6 D7ED237A 		vldr.32	s15, [r7, #140]
 1200 0aca 77EE677A 		vsub.f32	s15, s14, s15
 1201 0ace C7ED267A 		vstr.32	s15, [r7, #152]
 210:./Libraries/CMSIS/DSP/Source/TransformFunctions/arm_cfft_radix8_f32.c ****             pSrc[2 * i1 + 1] = s1 + s2;
 1202              		.loc 1 210 17 discriminator 1
 1203 0ad2 D7F8E830 		ldr	r3, [r7, #232]
 1204 0ad6 DB00     		lsls	r3, r3, #3
 1205 0ad8 0433     		adds	r3, r3, #4
 1206 0ada FA68     		ldr	r2, [r7, #12]
 1207 0adc 1344     		add	r3, r3, r2
 1208              		.loc 1 210 35 discriminator 1
 1209 0ade 97ED0A7A 		vldr.32	s14, [r7, #40]
 1210 0ae2 D7ED097A 		vldr.32	s15, [r7, #36]
 1211 0ae6 77EE277A 		vadd.f32	s15, s14, s15
 1212              		.loc 1 210 30 discriminator 1
 1213 0aea C3ED007A 		vstr.32	s15, [r3]
 211:./Libraries/CMSIS/DSP/Source/TransformFunctions/arm_cfft_radix8_f32.c ****             s2 = s1 - s2;
 1214              		.loc 1 211 16 discriminator 1
 1215 0aee 97ED0A7A 		vldr.32	s14, [r7, #40]
ARM GAS  /tmp/cc7bvgWg.s 			page 26


 1216 0af2 D7ED097A 		vldr.32	s15, [r7, #36]
 1217 0af6 77EE677A 		vsub.f32	s15, s14, s15
 1218 0afa C7ED097A 		vstr.32	s15, [r7, #36]
 212:./Libraries/CMSIS/DSP/Source/TransformFunctions/arm_cfft_radix8_f32.c ****             s1 = t2 - r3;
 1219              		.loc 1 212 16 discriminator 1
 1220 0afe 97ED207A 		vldr.32	s14, [r7, #128]
 1221 0b02 D7ED2A7A 		vldr.32	s15, [r7, #168]
 1222 0b06 77EE677A 		vsub.f32	s15, s14, s15
 1223 0b0a C7ED0A7A 		vstr.32	s15, [r7, #40]
 213:./Libraries/CMSIS/DSP/Source/TransformFunctions/arm_cfft_radix8_f32.c ****             t2 = t2 + r3;
 1224              		.loc 1 213 16 discriminator 1
 1225 0b0e 97ED207A 		vldr.32	s14, [r7, #128]
 1226 0b12 D7ED2A7A 		vldr.32	s15, [r7, #168]
 1227 0b16 77EE277A 		vadd.f32	s15, s14, s15
 1228 0b1a C7ED207A 		vstr.32	s15, [r7, #128]
 214:./Libraries/CMSIS/DSP/Source/TransformFunctions/arm_cfft_radix8_f32.c ****             p1 = co5 * r2;
 1229              		.loc 1 214 16 discriminator 1
 1230 0b1e 97ED157A 		vldr.32	s14, [r7, #84]
 1231 0b22 D7ED2C7A 		vldr.32	s15, [r7, #176]
 1232 0b26 67EE277A 		vmul.f32	s15, s14, s15
 1233 0b2a C7ED077A 		vstr.32	s15, [r7, #28]
 215:./Libraries/CMSIS/DSP/Source/TransformFunctions/arm_cfft_radix8_f32.c ****             p2 = si5 * s2;
 1234              		.loc 1 215 16 discriminator 1
 1235 0b2e 97ED0E7A 		vldr.32	s14, [r7, #56]
 1236 0b32 D7ED097A 		vldr.32	s15, [r7, #36]
 1237 0b36 67EE277A 		vmul.f32	s15, s14, s15
 1238 0b3a C7ED067A 		vstr.32	s15, [r7, #24]
 216:./Libraries/CMSIS/DSP/Source/TransformFunctions/arm_cfft_radix8_f32.c ****             p3 = co5 * s2;
 1239              		.loc 1 216 16 discriminator 1
 1240 0b3e 97ED157A 		vldr.32	s14, [r7, #84]
 1241 0b42 D7ED097A 		vldr.32	s15, [r7, #36]
 1242 0b46 67EE277A 		vmul.f32	s15, s14, s15
 1243 0b4a C7ED057A 		vstr.32	s15, [r7, #20]
 217:./Libraries/CMSIS/DSP/Source/TransformFunctions/arm_cfft_radix8_f32.c ****             p4 = si5 * r2;
 1244              		.loc 1 217 16 discriminator 1
 1245 0b4e 97ED0E7A 		vldr.32	s14, [r7, #56]
 1246 0b52 D7ED2C7A 		vldr.32	s15, [r7, #176]
 1247 0b56 67EE277A 		vmul.f32	s15, s14, s15
 1248 0b5a C7ED047A 		vstr.32	s15, [r7, #16]
 218:./Libraries/CMSIS/DSP/Source/TransformFunctions/arm_cfft_radix8_f32.c ****             pSrc[2 * i5]     = p1 + p2;
 1249              		.loc 1 218 17 discriminator 1
 1250 0b5e D7F8C830 		ldr	r3, [r7, #200]
 1251 0b62 DB00     		lsls	r3, r3, #3
 1252 0b64 FA68     		ldr	r2, [r7, #12]
 1253 0b66 1344     		add	r3, r3, r2
 1254              		.loc 1 218 35 discriminator 1
 1255 0b68 97ED077A 		vldr.32	s14, [r7, #28]
 1256 0b6c D7ED067A 		vldr.32	s15, [r7, #24]
 1257 0b70 77EE277A 		vadd.f32	s15, s14, s15
 1258              		.loc 1 218 30 discriminator 1
 1259 0b74 C3ED007A 		vstr.32	s15, [r3]
 219:./Libraries/CMSIS/DSP/Source/TransformFunctions/arm_cfft_radix8_f32.c ****             pSrc[2 * i5 + 1] = p3 - p4;
 1260              		.loc 1 219 17 discriminator 1
 1261 0b78 D7F8C830 		ldr	r3, [r7, #200]
 1262 0b7c DB00     		lsls	r3, r3, #3
 1263 0b7e 0433     		adds	r3, r3, #4
 1264 0b80 FA68     		ldr	r2, [r7, #12]
ARM GAS  /tmp/cc7bvgWg.s 			page 27


 1265 0b82 1344     		add	r3, r3, r2
 1266              		.loc 1 219 35 discriminator 1
 1267 0b84 97ED057A 		vldr.32	s14, [r7, #20]
 1268 0b88 D7ED047A 		vldr.32	s15, [r7, #16]
 1269 0b8c 77EE677A 		vsub.f32	s15, s14, s15
 1270              		.loc 1 219 30 discriminator 1
 1271 0b90 C3ED007A 		vstr.32	s15, [r3]
 220:./Libraries/CMSIS/DSP/Source/TransformFunctions/arm_cfft_radix8_f32.c ****             p1 = co3 * r1;
 1272              		.loc 1 220 16 discriminator 1
 1273 0b94 97ED177A 		vldr.32	s14, [r7, #92]
 1274 0b98 D7ED2E7A 		vldr.32	s15, [r7, #184]
 1275 0b9c 67EE277A 		vmul.f32	s15, s14, s15
 1276 0ba0 C7ED077A 		vstr.32	s15, [r7, #28]
 221:./Libraries/CMSIS/DSP/Source/TransformFunctions/arm_cfft_radix8_f32.c ****             p2 = si3 * s1;
 1277              		.loc 1 221 16 discriminator 1
 1278 0ba4 97ED107A 		vldr.32	s14, [r7, #64]
 1279 0ba8 D7ED0A7A 		vldr.32	s15, [r7, #40]
 1280 0bac 67EE277A 		vmul.f32	s15, s14, s15
 1281 0bb0 C7ED067A 		vstr.32	s15, [r7, #24]
 222:./Libraries/CMSIS/DSP/Source/TransformFunctions/arm_cfft_radix8_f32.c ****             p3 = co3 * s1;
 1282              		.loc 1 222 16 discriminator 1
 1283 0bb4 97ED177A 		vldr.32	s14, [r7, #92]
 1284 0bb8 D7ED0A7A 		vldr.32	s15, [r7, #40]
 1285 0bbc 67EE277A 		vmul.f32	s15, s14, s15
 1286 0bc0 C7ED057A 		vstr.32	s15, [r7, #20]
 223:./Libraries/CMSIS/DSP/Source/TransformFunctions/arm_cfft_radix8_f32.c ****             p4 = si3 * r1;
 1287              		.loc 1 223 16 discriminator 1
 1288 0bc4 97ED107A 		vldr.32	s14, [r7, #64]
 1289 0bc8 D7ED2E7A 		vldr.32	s15, [r7, #184]
 1290 0bcc 67EE277A 		vmul.f32	s15, s14, s15
 1291 0bd0 C7ED047A 		vstr.32	s15, [r7, #16]
 224:./Libraries/CMSIS/DSP/Source/TransformFunctions/arm_cfft_radix8_f32.c ****             pSrc[2 * i3]     = p1 + p2;
 1292              		.loc 1 224 17 discriminator 1
 1293 0bd4 D7F8D030 		ldr	r3, [r7, #208]
 1294 0bd8 DB00     		lsls	r3, r3, #3
 1295 0bda FA68     		ldr	r2, [r7, #12]
 1296 0bdc 1344     		add	r3, r3, r2
 1297              		.loc 1 224 35 discriminator 1
 1298 0bde 97ED077A 		vldr.32	s14, [r7, #28]
 1299 0be2 D7ED067A 		vldr.32	s15, [r7, #24]
 1300 0be6 77EE277A 		vadd.f32	s15, s14, s15
 1301              		.loc 1 224 30 discriminator 1
 1302 0bea C3ED007A 		vstr.32	s15, [r3]
 225:./Libraries/CMSIS/DSP/Source/TransformFunctions/arm_cfft_radix8_f32.c ****             pSrc[2 * i3 + 1] = p3 - p4;
 1303              		.loc 1 225 17 discriminator 1
 1304 0bee D7F8D030 		ldr	r3, [r7, #208]
 1305 0bf2 DB00     		lsls	r3, r3, #3
 1306 0bf4 0433     		adds	r3, r3, #4
 1307 0bf6 FA68     		ldr	r2, [r7, #12]
 1308 0bf8 1344     		add	r3, r3, r2
 1309              		.loc 1 225 35 discriminator 1
 1310 0bfa 97ED057A 		vldr.32	s14, [r7, #20]
 1311 0bfe D7ED047A 		vldr.32	s15, [r7, #16]
 1312 0c02 77EE677A 		vsub.f32	s15, s14, s15
 1313              		.loc 1 225 30 discriminator 1
 1314 0c06 C3ED007A 		vstr.32	s15, [r3]
 226:./Libraries/CMSIS/DSP/Source/TransformFunctions/arm_cfft_radix8_f32.c ****             p1 = co7 * t1;
ARM GAS  /tmp/cc7bvgWg.s 			page 28


 1315              		.loc 1 226 16 discriminator 1
 1316 0c0a 97ED137A 		vldr.32	s14, [r7, #76]
 1317 0c0e D7ED267A 		vldr.32	s15, [r7, #152]
 1318 0c12 67EE277A 		vmul.f32	s15, s14, s15
 1319 0c16 C7ED077A 		vstr.32	s15, [r7, #28]
 227:./Libraries/CMSIS/DSP/Source/TransformFunctions/arm_cfft_radix8_f32.c ****             p2 = si7 * t2;
 1320              		.loc 1 227 16 discriminator 1
 1321 0c1a 97ED0C7A 		vldr.32	s14, [r7, #48]
 1322 0c1e D7ED207A 		vldr.32	s15, [r7, #128]
 1323 0c22 67EE277A 		vmul.f32	s15, s14, s15
 1324 0c26 C7ED067A 		vstr.32	s15, [r7, #24]
 228:./Libraries/CMSIS/DSP/Source/TransformFunctions/arm_cfft_radix8_f32.c ****             p3 = co7 * t2;
 1325              		.loc 1 228 16 discriminator 1
 1326 0c2a 97ED137A 		vldr.32	s14, [r7, #76]
 1327 0c2e D7ED207A 		vldr.32	s15, [r7, #128]
 1328 0c32 67EE277A 		vmul.f32	s15, s14, s15
 1329 0c36 C7ED057A 		vstr.32	s15, [r7, #20]
 229:./Libraries/CMSIS/DSP/Source/TransformFunctions/arm_cfft_radix8_f32.c ****             p4 = si7 * t1;
 1330              		.loc 1 229 16 discriminator 1
 1331 0c3a 97ED0C7A 		vldr.32	s14, [r7, #48]
 1332 0c3e D7ED267A 		vldr.32	s15, [r7, #152]
 1333 0c42 67EE277A 		vmul.f32	s15, s14, s15
 1334 0c46 C7ED047A 		vstr.32	s15, [r7, #16]
 230:./Libraries/CMSIS/DSP/Source/TransformFunctions/arm_cfft_radix8_f32.c ****             pSrc[2 * i7]     = p1 + p2;
 1335              		.loc 1 230 17 discriminator 1
 1336 0c4a D7F8C030 		ldr	r3, [r7, #192]
 1337 0c4e DB00     		lsls	r3, r3, #3
 1338 0c50 FA68     		ldr	r2, [r7, #12]
 1339 0c52 1344     		add	r3, r3, r2
 1340              		.loc 1 230 35 discriminator 1
 1341 0c54 97ED077A 		vldr.32	s14, [r7, #28]
 1342 0c58 D7ED067A 		vldr.32	s15, [r7, #24]
 1343 0c5c 77EE277A 		vadd.f32	s15, s14, s15
 1344              		.loc 1 230 30 discriminator 1
 1345 0c60 C3ED007A 		vstr.32	s15, [r3]
 231:./Libraries/CMSIS/DSP/Source/TransformFunctions/arm_cfft_radix8_f32.c ****             pSrc[2 * i7 + 1] = p3 - p4;
 1346              		.loc 1 231 17 discriminator 1
 1347 0c64 D7F8C030 		ldr	r3, [r7, #192]
 1348 0c68 DB00     		lsls	r3, r3, #3
 1349 0c6a 0433     		adds	r3, r3, #4
 1350 0c6c FA68     		ldr	r2, [r7, #12]
 1351 0c6e 1344     		add	r3, r3, r2
 1352              		.loc 1 231 35 discriminator 1
 1353 0c70 97ED057A 		vldr.32	s14, [r7, #20]
 1354 0c74 D7ED047A 		vldr.32	s15, [r7, #16]
 1355 0c78 77EE677A 		vsub.f32	s15, s14, s15
 1356              		.loc 1 231 30 discriminator 1
 1357 0c7c C3ED007A 		vstr.32	s15, [r3]
 232:./Libraries/CMSIS/DSP/Source/TransformFunctions/arm_cfft_radix8_f32.c ****             r1 = (r6 - r8) * C81;
 1358              		.loc 1 232 22 discriminator 1
 1359 0c80 97ED2B7A 		vldr.32	s14, [r7, #172]
 1360 0c84 D7ED277A 		vldr.32	s15, [r7, #156]
 1361 0c88 77EE677A 		vsub.f32	s15, s14, s15
 1362              		.loc 1 232 16 discriminator 1
 1363 0c8c 97ED377A 		vldr.32	s14, [r7, #220]
 1364 0c90 67EE277A 		vmul.f32	s15, s14, s15
 1365 0c94 C7ED2E7A 		vstr.32	s15, [r7, #184]
ARM GAS  /tmp/cc7bvgWg.s 			page 29


 233:./Libraries/CMSIS/DSP/Source/TransformFunctions/arm_cfft_radix8_f32.c ****             r6 = (r6 + r8) * C81;
 1366              		.loc 1 233 22 discriminator 1
 1367 0c98 97ED2B7A 		vldr.32	s14, [r7, #172]
 1368 0c9c D7ED277A 		vldr.32	s15, [r7, #156]
 1369 0ca0 77EE277A 		vadd.f32	s15, s14, s15
 1370              		.loc 1 233 16 discriminator 1
 1371 0ca4 97ED377A 		vldr.32	s14, [r7, #220]
 1372 0ca8 67EE277A 		vmul.f32	s15, s14, s15
 1373 0cac C7ED2B7A 		vstr.32	s15, [r7, #172]
 234:./Libraries/CMSIS/DSP/Source/TransformFunctions/arm_cfft_radix8_f32.c ****             s1 = (s6 - s8) * C81;
 1374              		.loc 1 234 22 discriminator 1
 1375 0cb0 97ED247A 		vldr.32	s14, [r7, #144]
 1376 0cb4 D7ED217A 		vldr.32	s15, [r7, #132]
 1377 0cb8 77EE677A 		vsub.f32	s15, s14, s15
 1378              		.loc 1 234 16 discriminator 1
 1379 0cbc 97ED377A 		vldr.32	s14, [r7, #220]
 1380 0cc0 67EE277A 		vmul.f32	s15, s14, s15
 1381 0cc4 C7ED0A7A 		vstr.32	s15, [r7, #40]
 235:./Libraries/CMSIS/DSP/Source/TransformFunctions/arm_cfft_radix8_f32.c ****             s6 = (s6 + s8) * C81;
 1382              		.loc 1 235 22 discriminator 1
 1383 0cc8 97ED247A 		vldr.32	s14, [r7, #144]
 1384 0ccc D7ED217A 		vldr.32	s15, [r7, #132]
 1385 0cd0 77EE277A 		vadd.f32	s15, s14, s15
 1386              		.loc 1 235 16 discriminator 1
 1387 0cd4 97ED377A 		vldr.32	s14, [r7, #220]
 1388 0cd8 67EE277A 		vmul.f32	s15, s14, s15
 1389 0cdc C7ED247A 		vstr.32	s15, [r7, #144]
 236:./Libraries/CMSIS/DSP/Source/TransformFunctions/arm_cfft_radix8_f32.c ****             t1 = r5 - r1;
 1390              		.loc 1 236 16 discriminator 1
 1391 0ce0 97ED2D7A 		vldr.32	s14, [r7, #180]
 1392 0ce4 D7ED2E7A 		vldr.32	s15, [r7, #184]
 1393 0ce8 77EE677A 		vsub.f32	s15, s14, s15
 1394 0cec C7ED267A 		vstr.32	s15, [r7, #152]
 237:./Libraries/CMSIS/DSP/Source/TransformFunctions/arm_cfft_radix8_f32.c ****             r5 = r5 + r1;
 1395              		.loc 1 237 16 discriminator 1
 1396 0cf0 97ED2D7A 		vldr.32	s14, [r7, #180]
 1397 0cf4 D7ED2E7A 		vldr.32	s15, [r7, #184]
 1398 0cf8 77EE277A 		vadd.f32	s15, s14, s15
 1399 0cfc C7ED2D7A 		vstr.32	s15, [r7, #180]
 238:./Libraries/CMSIS/DSP/Source/TransformFunctions/arm_cfft_radix8_f32.c ****             r8 = r7 - r6;
 1400              		.loc 1 238 16 discriminator 1
 1401 0d00 97ED297A 		vldr.32	s14, [r7, #164]
 1402 0d04 D7ED2B7A 		vldr.32	s15, [r7, #172]
 1403 0d08 77EE677A 		vsub.f32	s15, s14, s15
 1404 0d0c C7ED277A 		vstr.32	s15, [r7, #156]
 239:./Libraries/CMSIS/DSP/Source/TransformFunctions/arm_cfft_radix8_f32.c ****             r7 = r7 + r6;
 1405              		.loc 1 239 16 discriminator 1
 1406 0d10 97ED297A 		vldr.32	s14, [r7, #164]
 1407 0d14 D7ED2B7A 		vldr.32	s15, [r7, #172]
 1408 0d18 77EE277A 		vadd.f32	s15, s14, s15
 1409 0d1c C7ED297A 		vstr.32	s15, [r7, #164]
 240:./Libraries/CMSIS/DSP/Source/TransformFunctions/arm_cfft_radix8_f32.c ****             t2 = s5 - s1;
 1410              		.loc 1 240 16 discriminator 1
 1411 0d20 97ED257A 		vldr.32	s14, [r7, #148]
 1412 0d24 D7ED0A7A 		vldr.32	s15, [r7, #40]
 1413 0d28 77EE677A 		vsub.f32	s15, s14, s15
 1414 0d2c C7ED207A 		vstr.32	s15, [r7, #128]
ARM GAS  /tmp/cc7bvgWg.s 			page 30


 241:./Libraries/CMSIS/DSP/Source/TransformFunctions/arm_cfft_radix8_f32.c ****             s5 = s5 + s1;
 1415              		.loc 1 241 16 discriminator 1
 1416 0d30 97ED257A 		vldr.32	s14, [r7, #148]
 1417 0d34 D7ED0A7A 		vldr.32	s15, [r7, #40]
 1418 0d38 77EE277A 		vadd.f32	s15, s14, s15
 1419 0d3c C7ED257A 		vstr.32	s15, [r7, #148]
 242:./Libraries/CMSIS/DSP/Source/TransformFunctions/arm_cfft_radix8_f32.c ****             s8 = s7 - s6;
 1420              		.loc 1 242 16 discriminator 1
 1421 0d40 97ED227A 		vldr.32	s14, [r7, #136]
 1422 0d44 D7ED247A 		vldr.32	s15, [r7, #144]
 1423 0d48 77EE677A 		vsub.f32	s15, s14, s15
 1424 0d4c C7ED217A 		vstr.32	s15, [r7, #132]
 243:./Libraries/CMSIS/DSP/Source/TransformFunctions/arm_cfft_radix8_f32.c ****             s7 = s7 + s6;
 1425              		.loc 1 243 16 discriminator 1
 1426 0d50 97ED227A 		vldr.32	s14, [r7, #136]
 1427 0d54 D7ED247A 		vldr.32	s15, [r7, #144]
 1428 0d58 77EE277A 		vadd.f32	s15, s14, s15
 1429 0d5c C7ED227A 		vstr.32	s15, [r7, #136]
 244:./Libraries/CMSIS/DSP/Source/TransformFunctions/arm_cfft_radix8_f32.c ****             r1 = r5 + s7;
 1430              		.loc 1 244 16 discriminator 1
 1431 0d60 97ED2D7A 		vldr.32	s14, [r7, #180]
 1432 0d64 D7ED227A 		vldr.32	s15, [r7, #136]
 1433 0d68 77EE277A 		vadd.f32	s15, s14, s15
 1434 0d6c C7ED2E7A 		vstr.32	s15, [r7, #184]
 245:./Libraries/CMSIS/DSP/Source/TransformFunctions/arm_cfft_radix8_f32.c ****             r5 = r5 - s7;
 1435              		.loc 1 245 16 discriminator 1
 1436 0d70 97ED2D7A 		vldr.32	s14, [r7, #180]
 1437 0d74 D7ED227A 		vldr.32	s15, [r7, #136]
 1438 0d78 77EE677A 		vsub.f32	s15, s14, s15
 1439 0d7c C7ED2D7A 		vstr.32	s15, [r7, #180]
 246:./Libraries/CMSIS/DSP/Source/TransformFunctions/arm_cfft_radix8_f32.c ****             r6 = t1 + s8;
 1440              		.loc 1 246 16 discriminator 1
 1441 0d80 97ED267A 		vldr.32	s14, [r7, #152]
 1442 0d84 D7ED217A 		vldr.32	s15, [r7, #132]
 1443 0d88 77EE277A 		vadd.f32	s15, s14, s15
 1444 0d8c C7ED2B7A 		vstr.32	s15, [r7, #172]
 247:./Libraries/CMSIS/DSP/Source/TransformFunctions/arm_cfft_radix8_f32.c ****             t1 = t1 - s8;
 1445              		.loc 1 247 16 discriminator 1
 1446 0d90 97ED267A 		vldr.32	s14, [r7, #152]
 1447 0d94 D7ED217A 		vldr.32	s15, [r7, #132]
 1448 0d98 77EE677A 		vsub.f32	s15, s14, s15
 1449 0d9c C7ED267A 		vstr.32	s15, [r7, #152]
 248:./Libraries/CMSIS/DSP/Source/TransformFunctions/arm_cfft_radix8_f32.c ****             s1 = s5 - r7;
 1450              		.loc 1 248 16 discriminator 1
 1451 0da0 97ED257A 		vldr.32	s14, [r7, #148]
 1452 0da4 D7ED297A 		vldr.32	s15, [r7, #164]
 1453 0da8 77EE677A 		vsub.f32	s15, s14, s15
 1454 0dac C7ED0A7A 		vstr.32	s15, [r7, #40]
 249:./Libraries/CMSIS/DSP/Source/TransformFunctions/arm_cfft_radix8_f32.c ****             s5 = s5 + r7;
 1455              		.loc 1 249 16 discriminator 1
 1456 0db0 97ED257A 		vldr.32	s14, [r7, #148]
 1457 0db4 D7ED297A 		vldr.32	s15, [r7, #164]
 1458 0db8 77EE277A 		vadd.f32	s15, s14, s15
 1459 0dbc C7ED257A 		vstr.32	s15, [r7, #148]
 250:./Libraries/CMSIS/DSP/Source/TransformFunctions/arm_cfft_radix8_f32.c ****             s6 = t2 - r8;
 1460              		.loc 1 250 16 discriminator 1
 1461 0dc0 97ED207A 		vldr.32	s14, [r7, #128]
ARM GAS  /tmp/cc7bvgWg.s 			page 31


 1462 0dc4 D7ED277A 		vldr.32	s15, [r7, #156]
 1463 0dc8 77EE677A 		vsub.f32	s15, s14, s15
 1464 0dcc C7ED247A 		vstr.32	s15, [r7, #144]
 251:./Libraries/CMSIS/DSP/Source/TransformFunctions/arm_cfft_radix8_f32.c ****             t2 = t2 + r8;
 1465              		.loc 1 251 16 discriminator 1
 1466 0dd0 97ED207A 		vldr.32	s14, [r7, #128]
 1467 0dd4 D7ED277A 		vldr.32	s15, [r7, #156]
 1468 0dd8 77EE277A 		vadd.f32	s15, s14, s15
 1469 0ddc C7ED207A 		vstr.32	s15, [r7, #128]
 252:./Libraries/CMSIS/DSP/Source/TransformFunctions/arm_cfft_radix8_f32.c ****             p1 = co2 * r1;
 1470              		.loc 1 252 16 discriminator 1
 1471 0de0 97ED187A 		vldr.32	s14, [r7, #96]
 1472 0de4 D7ED2E7A 		vldr.32	s15, [r7, #184]
 1473 0de8 67EE277A 		vmul.f32	s15, s14, s15
 1474 0dec C7ED077A 		vstr.32	s15, [r7, #28]
 253:./Libraries/CMSIS/DSP/Source/TransformFunctions/arm_cfft_radix8_f32.c ****             p2 = si2 * s1;
 1475              		.loc 1 253 16 discriminator 1
 1476 0df0 97ED117A 		vldr.32	s14, [r7, #68]
 1477 0df4 D7ED0A7A 		vldr.32	s15, [r7, #40]
 1478 0df8 67EE277A 		vmul.f32	s15, s14, s15
 1479 0dfc C7ED067A 		vstr.32	s15, [r7, #24]
 254:./Libraries/CMSIS/DSP/Source/TransformFunctions/arm_cfft_radix8_f32.c ****             p3 = co2 * s1;
 1480              		.loc 1 254 16 discriminator 1
 1481 0e00 97ED187A 		vldr.32	s14, [r7, #96]
 1482 0e04 D7ED0A7A 		vldr.32	s15, [r7, #40]
 1483 0e08 67EE277A 		vmul.f32	s15, s14, s15
 1484 0e0c C7ED057A 		vstr.32	s15, [r7, #20]
 255:./Libraries/CMSIS/DSP/Source/TransformFunctions/arm_cfft_radix8_f32.c ****             p4 = si2 * r1;
 1485              		.loc 1 255 16 discriminator 1
 1486 0e10 97ED117A 		vldr.32	s14, [r7, #68]
 1487 0e14 D7ED2E7A 		vldr.32	s15, [r7, #184]
 1488 0e18 67EE277A 		vmul.f32	s15, s14, s15
 1489 0e1c C7ED047A 		vstr.32	s15, [r7, #16]
 256:./Libraries/CMSIS/DSP/Source/TransformFunctions/arm_cfft_radix8_f32.c ****             pSrc[2 * i2]     = p1 + p2;
 1490              		.loc 1 256 17 discriminator 1
 1491 0e20 D7F8D430 		ldr	r3, [r7, #212]
 1492 0e24 DB00     		lsls	r3, r3, #3
 1493 0e26 FA68     		ldr	r2, [r7, #12]
 1494 0e28 1344     		add	r3, r3, r2
 1495              		.loc 1 256 35 discriminator 1
 1496 0e2a 97ED077A 		vldr.32	s14, [r7, #28]
 1497 0e2e D7ED067A 		vldr.32	s15, [r7, #24]
 1498 0e32 77EE277A 		vadd.f32	s15, s14, s15
 1499              		.loc 1 256 30 discriminator 1
 1500 0e36 C3ED007A 		vstr.32	s15, [r3]
 257:./Libraries/CMSIS/DSP/Source/TransformFunctions/arm_cfft_radix8_f32.c ****             pSrc[2 * i2 + 1] = p3 - p4;
 1501              		.loc 1 257 17 discriminator 1
 1502 0e3a D7F8D430 		ldr	r3, [r7, #212]
 1503 0e3e DB00     		lsls	r3, r3, #3
 1504 0e40 0433     		adds	r3, r3, #4
 1505 0e42 FA68     		ldr	r2, [r7, #12]
 1506 0e44 1344     		add	r3, r3, r2
 1507              		.loc 1 257 35 discriminator 1
 1508 0e46 97ED057A 		vldr.32	s14, [r7, #20]
 1509 0e4a D7ED047A 		vldr.32	s15, [r7, #16]
 1510 0e4e 77EE677A 		vsub.f32	s15, s14, s15
 1511              		.loc 1 257 30 discriminator 1
ARM GAS  /tmp/cc7bvgWg.s 			page 32


 1512 0e52 C3ED007A 		vstr.32	s15, [r3]
 258:./Libraries/CMSIS/DSP/Source/TransformFunctions/arm_cfft_radix8_f32.c ****             p1 = co8 * r5;
 1513              		.loc 1 258 16 discriminator 1
 1514 0e56 97ED127A 		vldr.32	s14, [r7, #72]
 1515 0e5a D7ED2D7A 		vldr.32	s15, [r7, #180]
 1516 0e5e 67EE277A 		vmul.f32	s15, s14, s15
 1517 0e62 C7ED077A 		vstr.32	s15, [r7, #28]
 259:./Libraries/CMSIS/DSP/Source/TransformFunctions/arm_cfft_radix8_f32.c ****             p2 = si8 * s5;
 1518              		.loc 1 259 16 discriminator 1
 1519 0e66 97ED0B7A 		vldr.32	s14, [r7, #44]
 1520 0e6a D7ED257A 		vldr.32	s15, [r7, #148]
 1521 0e6e 67EE277A 		vmul.f32	s15, s14, s15
 1522 0e72 C7ED067A 		vstr.32	s15, [r7, #24]
 260:./Libraries/CMSIS/DSP/Source/TransformFunctions/arm_cfft_radix8_f32.c ****             p3 = co8 * s5;
 1523              		.loc 1 260 16 discriminator 1
 1524 0e76 97ED127A 		vldr.32	s14, [r7, #72]
 1525 0e7a D7ED257A 		vldr.32	s15, [r7, #148]
 1526 0e7e 67EE277A 		vmul.f32	s15, s14, s15
 1527 0e82 C7ED057A 		vstr.32	s15, [r7, #20]
 261:./Libraries/CMSIS/DSP/Source/TransformFunctions/arm_cfft_radix8_f32.c ****             p4 = si8 * r5;
 1528              		.loc 1 261 16 discriminator 1
 1529 0e86 97ED0B7A 		vldr.32	s14, [r7, #44]
 1530 0e8a D7ED2D7A 		vldr.32	s15, [r7, #180]
 1531 0e8e 67EE277A 		vmul.f32	s15, s14, s15
 1532 0e92 C7ED047A 		vstr.32	s15, [r7, #16]
 262:./Libraries/CMSIS/DSP/Source/TransformFunctions/arm_cfft_radix8_f32.c ****             pSrc[2 * i8]     = p1 + p2;
 1533              		.loc 1 262 17 discriminator 1
 1534 0e96 D7F8BC30 		ldr	r3, [r7, #188]
 1535 0e9a DB00     		lsls	r3, r3, #3
 1536 0e9c FA68     		ldr	r2, [r7, #12]
 1537 0e9e 1344     		add	r3, r3, r2
 1538              		.loc 1 262 35 discriminator 1
 1539 0ea0 97ED077A 		vldr.32	s14, [r7, #28]
 1540 0ea4 D7ED067A 		vldr.32	s15, [r7, #24]
 1541 0ea8 77EE277A 		vadd.f32	s15, s14, s15
 1542              		.loc 1 262 30 discriminator 1
 1543 0eac C3ED007A 		vstr.32	s15, [r3]
 263:./Libraries/CMSIS/DSP/Source/TransformFunctions/arm_cfft_radix8_f32.c ****             pSrc[2 * i8 + 1] = p3 - p4;
 1544              		.loc 1 263 17 discriminator 1
 1545 0eb0 D7F8BC30 		ldr	r3, [r7, #188]
 1546 0eb4 DB00     		lsls	r3, r3, #3
 1547 0eb6 0433     		adds	r3, r3, #4
 1548 0eb8 FA68     		ldr	r2, [r7, #12]
 1549 0eba 1344     		add	r3, r3, r2
 1550              		.loc 1 263 35 discriminator 1
 1551 0ebc 97ED057A 		vldr.32	s14, [r7, #20]
 1552 0ec0 D7ED047A 		vldr.32	s15, [r7, #16]
 1553 0ec4 77EE677A 		vsub.f32	s15, s14, s15
 1554              		.loc 1 263 30 discriminator 1
 1555 0ec8 C3ED007A 		vstr.32	s15, [r3]
 264:./Libraries/CMSIS/DSP/Source/TransformFunctions/arm_cfft_radix8_f32.c ****             p1 = co6 * r6;
 1556              		.loc 1 264 16 discriminator 1
 1557 0ecc 97ED147A 		vldr.32	s14, [r7, #80]
 1558 0ed0 D7ED2B7A 		vldr.32	s15, [r7, #172]
 1559 0ed4 67EE277A 		vmul.f32	s15, s14, s15
 1560 0ed8 C7ED077A 		vstr.32	s15, [r7, #28]
 265:./Libraries/CMSIS/DSP/Source/TransformFunctions/arm_cfft_radix8_f32.c ****             p2 = si6 * s6;
ARM GAS  /tmp/cc7bvgWg.s 			page 33


 1561              		.loc 1 265 16 discriminator 1
 1562 0edc 97ED0D7A 		vldr.32	s14, [r7, #52]
 1563 0ee0 D7ED247A 		vldr.32	s15, [r7, #144]
 1564 0ee4 67EE277A 		vmul.f32	s15, s14, s15
 1565 0ee8 C7ED067A 		vstr.32	s15, [r7, #24]
 266:./Libraries/CMSIS/DSP/Source/TransformFunctions/arm_cfft_radix8_f32.c ****             p3 = co6 * s6;
 1566              		.loc 1 266 16 discriminator 1
 1567 0eec 97ED147A 		vldr.32	s14, [r7, #80]
 1568 0ef0 D7ED247A 		vldr.32	s15, [r7, #144]
 1569 0ef4 67EE277A 		vmul.f32	s15, s14, s15
 1570 0ef8 C7ED057A 		vstr.32	s15, [r7, #20]
 267:./Libraries/CMSIS/DSP/Source/TransformFunctions/arm_cfft_radix8_f32.c ****             p4 = si6 * r6;
 1571              		.loc 1 267 16 discriminator 1
 1572 0efc 97ED0D7A 		vldr.32	s14, [r7, #52]
 1573 0f00 D7ED2B7A 		vldr.32	s15, [r7, #172]
 1574 0f04 67EE277A 		vmul.f32	s15, s14, s15
 1575 0f08 C7ED047A 		vstr.32	s15, [r7, #16]
 268:./Libraries/CMSIS/DSP/Source/TransformFunctions/arm_cfft_radix8_f32.c ****             pSrc[2 * i6]     = p1 + p2;
 1576              		.loc 1 268 17 discriminator 1
 1577 0f0c D7F8C430 		ldr	r3, [r7, #196]
 1578 0f10 DB00     		lsls	r3, r3, #3
 1579 0f12 FA68     		ldr	r2, [r7, #12]
 1580 0f14 1344     		add	r3, r3, r2
 1581              		.loc 1 268 35 discriminator 1
 1582 0f16 97ED077A 		vldr.32	s14, [r7, #28]
 1583 0f1a D7ED067A 		vldr.32	s15, [r7, #24]
 1584 0f1e 77EE277A 		vadd.f32	s15, s14, s15
 1585              		.loc 1 268 30 discriminator 1
 1586 0f22 C3ED007A 		vstr.32	s15, [r3]
 269:./Libraries/CMSIS/DSP/Source/TransformFunctions/arm_cfft_radix8_f32.c ****             pSrc[2 * i6 + 1] = p3 - p4;
 1587              		.loc 1 269 17 discriminator 1
 1588 0f26 D7F8C430 		ldr	r3, [r7, #196]
 1589 0f2a DB00     		lsls	r3, r3, #3
 1590 0f2c 0433     		adds	r3, r3, #4
 1591 0f2e FA68     		ldr	r2, [r7, #12]
 1592 0f30 1344     		add	r3, r3, r2
 1593              		.loc 1 269 35 discriminator 1
 1594 0f32 97ED057A 		vldr.32	s14, [r7, #20]
 1595 0f36 D7ED047A 		vldr.32	s15, [r7, #16]
 1596 0f3a 77EE677A 		vsub.f32	s15, s14, s15
 1597              		.loc 1 269 30 discriminator 1
 1598 0f3e C3ED007A 		vstr.32	s15, [r3]
 270:./Libraries/CMSIS/DSP/Source/TransformFunctions/arm_cfft_radix8_f32.c ****             p1 = co4 * t1;
 1599              		.loc 1 270 16 discriminator 1
 1600 0f42 97ED167A 		vldr.32	s14, [r7, #88]
 1601 0f46 D7ED267A 		vldr.32	s15, [r7, #152]
 1602 0f4a 67EE277A 		vmul.f32	s15, s14, s15
 1603 0f4e C7ED077A 		vstr.32	s15, [r7, #28]
 271:./Libraries/CMSIS/DSP/Source/TransformFunctions/arm_cfft_radix8_f32.c ****             p2 = si4 * t2;
 1604              		.loc 1 271 16 discriminator 1
 1605 0f52 97ED0F7A 		vldr.32	s14, [r7, #60]
 1606 0f56 D7ED207A 		vldr.32	s15, [r7, #128]
 1607 0f5a 67EE277A 		vmul.f32	s15, s14, s15
 1608 0f5e C7ED067A 		vstr.32	s15, [r7, #24]
 272:./Libraries/CMSIS/DSP/Source/TransformFunctions/arm_cfft_radix8_f32.c ****             p3 = co4 * t2;
 1609              		.loc 1 272 16 discriminator 1
 1610 0f62 97ED167A 		vldr.32	s14, [r7, #88]
ARM GAS  /tmp/cc7bvgWg.s 			page 34


 1611 0f66 D7ED207A 		vldr.32	s15, [r7, #128]
 1612 0f6a 67EE277A 		vmul.f32	s15, s14, s15
 1613 0f6e C7ED057A 		vstr.32	s15, [r7, #20]
 273:./Libraries/CMSIS/DSP/Source/TransformFunctions/arm_cfft_radix8_f32.c ****             p4 = si4 * t1;
 1614              		.loc 1 273 16 discriminator 1
 1615 0f72 97ED0F7A 		vldr.32	s14, [r7, #60]
 1616 0f76 D7ED267A 		vldr.32	s15, [r7, #152]
 1617 0f7a 67EE277A 		vmul.f32	s15, s14, s15
 1618 0f7e C7ED047A 		vstr.32	s15, [r7, #16]
 274:./Libraries/CMSIS/DSP/Source/TransformFunctions/arm_cfft_radix8_f32.c ****             pSrc[2 * i4]     = p1 + p2;
 1619              		.loc 1 274 17 discriminator 1
 1620 0f82 D7F8CC30 		ldr	r3, [r7, #204]
 1621 0f86 DB00     		lsls	r3, r3, #3
 1622 0f88 FA68     		ldr	r2, [r7, #12]
 1623 0f8a 1344     		add	r3, r3, r2
 1624              		.loc 1 274 35 discriminator 1
 1625 0f8c 97ED077A 		vldr.32	s14, [r7, #28]
 1626 0f90 D7ED067A 		vldr.32	s15, [r7, #24]
 1627 0f94 77EE277A 		vadd.f32	s15, s14, s15
 1628              		.loc 1 274 30 discriminator 1
 1629 0f98 C3ED007A 		vstr.32	s15, [r3]
 275:./Libraries/CMSIS/DSP/Source/TransformFunctions/arm_cfft_radix8_f32.c ****             pSrc[2 * i4 + 1] = p3 - p4;
 1630              		.loc 1 275 17 discriminator 1
 1631 0f9c D7F8CC30 		ldr	r3, [r7, #204]
 1632 0fa0 DB00     		lsls	r3, r3, #3
 1633 0fa2 0433     		adds	r3, r3, #4
 1634 0fa4 FA68     		ldr	r2, [r7, #12]
 1635 0fa6 1344     		add	r3, r3, r2
 1636              		.loc 1 275 35 discriminator 1
 1637 0fa8 97ED057A 		vldr.32	s14, [r7, #20]
 1638 0fac D7ED047A 		vldr.32	s15, [r7, #16]
 1639 0fb0 77EE677A 		vsub.f32	s15, s14, s15
 1640              		.loc 1 275 30 discriminator 1
 1641 0fb4 C3ED007A 		vstr.32	s15, [r3]
 276:./Libraries/CMSIS/DSP/Source/TransformFunctions/arm_cfft_radix8_f32.c **** 
 277:./Libraries/CMSIS/DSP/Source/TransformFunctions/arm_cfft_radix8_f32.c ****             i1 += n1;
 1642              		.loc 1 277 16 discriminator 1
 1643 0fb8 D7F8E820 		ldr	r2, [r7, #232]
 1644 0fbc D7F8D830 		ldr	r3, [r7, #216]
 1645 0fc0 1344     		add	r3, r3, r2
 1646 0fc2 C7F8E830 		str	r3, [r7, #232]
 278:./Libraries/CMSIS/DSP/Source/TransformFunctions/arm_cfft_radix8_f32.c ****          } while (i1 < fftLen);
 1647              		.loc 1 278 22 discriminator 1
 1648 0fc6 7B89     		ldrh	r3, [r7, #10]
 1649              		.loc 1 278 10 discriminator 1
 1650 0fc8 D7F8E820 		ldr	r2, [r7, #232]
 1651 0fcc 9A42     		cmp	r2, r3
 1652 0fce FFF4BAAB 		bcc	.L5
 279:./Libraries/CMSIS/DSP/Source/TransformFunctions/arm_cfft_radix8_f32.c **** 
 280:./Libraries/CMSIS/DSP/Source/TransformFunctions/arm_cfft_radix8_f32.c ****          j++;
 1653              		.loc 1 280 11
 1654 0fd2 D7F8E030 		ldr	r3, [r7, #224]
 1655 0fd6 0133     		adds	r3, r3, #1
 1656 0fd8 C7F8E030 		str	r3, [r7, #224]
 281:./Libraries/CMSIS/DSP/Source/TransformFunctions/arm_cfft_radix8_f32.c ****       } while (j < n2);
 1657              		.loc 1 281 7
 1658 0fdc D7F8E020 		ldr	r2, [r7, #224]
ARM GAS  /tmp/cc7bvgWg.s 			page 35


 1659 0fe0 D7F8E430 		ldr	r3, [r7, #228]
 1660 0fe4 9A42     		cmp	r2, r3
 1661 0fe6 FFF42CAB 		bcc	.L6
 282:./Libraries/CMSIS/DSP/Source/TransformFunctions/arm_cfft_radix8_f32.c **** 
 283:./Libraries/CMSIS/DSP/Source/TransformFunctions/arm_cfft_radix8_f32.c ****       twidCoefModifier <<= 3;
 1662              		.loc 1 283 24
 1663 0fea 3B89     		ldrh	r3, [r7, #8]	@ movhi
 1664 0fec DB00     		lsls	r3, r3, #3
 1665 0fee 3B81     		strh	r3, [r7, #8]	@ movhi
 284:./Libraries/CMSIS/DSP/Source/TransformFunctions/arm_cfft_radix8_f32.c ****    } while (n2 > 7);
 1666              		.loc 1 284 4
 1667 0ff0 D7F8E430 		ldr	r3, [r7, #228]
 1668 0ff4 072B     		cmp	r3, #7
 1669 0ff6 3FF613A8 		bhi	.L7
 285:./Libraries/CMSIS/DSP/Source/TransformFunctions/arm_cfft_radix8_f32.c **** }
 1670              		.loc 1 285 1
 1671 0ffa 00E0     		b	.L9
 1672              	.L8:
 138:./Libraries/CMSIS/DSP/Source/TransformFunctions/arm_cfft_radix8_f32.c **** 
 1673              		.loc 1 138 10
 1674 0ffc 00BF     		nop
 1675              	.L9:
 1676              		.loc 1 285 1
 1677 0ffe 00BF     		nop
 1678 1000 F437     		adds	r7, r7, #244
 1679              	.LCFI3:
 1680              		.cfi_def_cfa_offset 4
 1681 1002 BD46     		mov	sp, r7
 1682              	.LCFI4:
 1683              		.cfi_def_cfa_register 13
 1684              		@ sp needed
 1685 1004 5DF8047B 		ldr	r7, [sp], #4
 1686              	.LCFI5:
 1687              		.cfi_restore 7
 1688              		.cfi_def_cfa_offset 0
 1689 1008 7047     		bx	lr
 1690              		.cfi_endproc
 1691              	.LFE145:
 1693 100a 00BF     		.text
 1694              	.Letext0:
 1695              		.file 2 "/usr/lib/gcc/arm-none-eabi/9.2.1/include/stdint.h"
 1696              		.file 3 "/usr/lib/gcc/arm-none-eabi/9.2.1/include/stddef.h"
 1697              		.file 4 "/usr/include/newlib/sys/_types.h"
 1698              		.file 5 "/usr/include/newlib/sys/reent.h"
 1699              		.file 6 "/usr/include/newlib/sys/lock.h"
 1700              		.file 7 "/usr/include/newlib/math.h"
 1701              		.file 8 "./Libraries/CMSIS/DSP/Include/arm_math.h"
ARM GAS  /tmp/cc7bvgWg.s 			page 36


DEFINED SYMBOLS
                            *ABS*:0000000000000000 arm_cfft_radix8_f32.c
     /tmp/cc7bvgWg.s:17     .text.arm_radix8_butterfly_f32:0000000000000000 $t
     /tmp/cc7bvgWg.s:25     .text.arm_radix8_butterfly_f32:0000000000000000 arm_radix8_butterfly_f32
     /tmp/cc7bvgWg.s:71     .text.arm_radix8_butterfly_f32:000000000000003c $d
     /tmp/cc7bvgWg.s:75     .text.arm_radix8_butterfly_f32:0000000000000040 $t

NO UNDEFINED SYMBOLS
