ARM GAS  /tmp/ccpW4Xqc.s 			page 1


   1              		.cpu cortex-m7
   2              		.eabi_attribute 28, 1
   3              		.eabi_attribute 20, 1
   4              		.eabi_attribute 21, 1
   5              		.eabi_attribute 23, 3
   6              		.eabi_attribute 24, 1
   7              		.eabi_attribute 25, 1
   8              		.eabi_attribute 26, 1
   9              		.eabi_attribute 30, 6
  10              		.eabi_attribute 34, 1
  11              		.eabi_attribute 18, 4
  12              		.file	"arm_var_f32.c"
  13              		.text
  14              	.Ltext0:
  15              		.cfi_sections	.debug_frame
  16              		.section	.text.arm_var_f32,"ax",%progbits
  17              		.align	1
  18              		.global	arm_var_f32
  19              		.arch armv7e-m
  20              		.syntax unified
  21              		.thumb
  22              		.thumb_func
  23              		.fpu fpv5-d16
  25              	arm_var_f32:
  26              	.LFB145:
  27              		.file 1 "./Libraries/CMSIS/DSP/Source/StatisticsFunctions/arm_var_f32.c"
   1:./Libraries/CMSIS/DSP/Source/StatisticsFunctions/arm_var_f32.c **** /* ----------------------------------------------------------------------
   2:./Libraries/CMSIS/DSP/Source/StatisticsFunctions/arm_var_f32.c ****  * Project:      CMSIS DSP Library
   3:./Libraries/CMSIS/DSP/Source/StatisticsFunctions/arm_var_f32.c ****  * Title:        arm_var_f32.c
   4:./Libraries/CMSIS/DSP/Source/StatisticsFunctions/arm_var_f32.c ****  * Description:  Variance of the elements of a floating-point vector
   5:./Libraries/CMSIS/DSP/Source/StatisticsFunctions/arm_var_f32.c ****  *
   6:./Libraries/CMSIS/DSP/Source/StatisticsFunctions/arm_var_f32.c ****  * $Date:        18. March 2019
   7:./Libraries/CMSIS/DSP/Source/StatisticsFunctions/arm_var_f32.c ****  * $Revision:    V1.6.0
   8:./Libraries/CMSIS/DSP/Source/StatisticsFunctions/arm_var_f32.c ****  *
   9:./Libraries/CMSIS/DSP/Source/StatisticsFunctions/arm_var_f32.c ****  * Target Processor: Cortex-M cores
  10:./Libraries/CMSIS/DSP/Source/StatisticsFunctions/arm_var_f32.c ****  * -------------------------------------------------------------------- */
  11:./Libraries/CMSIS/DSP/Source/StatisticsFunctions/arm_var_f32.c **** /*
  12:./Libraries/CMSIS/DSP/Source/StatisticsFunctions/arm_var_f32.c ****  * Copyright (C) 2010-2019 ARM Limited or its affiliates. All rights reserved.
  13:./Libraries/CMSIS/DSP/Source/StatisticsFunctions/arm_var_f32.c ****  *
  14:./Libraries/CMSIS/DSP/Source/StatisticsFunctions/arm_var_f32.c ****  * SPDX-License-Identifier: Apache-2.0
  15:./Libraries/CMSIS/DSP/Source/StatisticsFunctions/arm_var_f32.c ****  *
  16:./Libraries/CMSIS/DSP/Source/StatisticsFunctions/arm_var_f32.c ****  * Licensed under the Apache License, Version 2.0 (the License); you may
  17:./Libraries/CMSIS/DSP/Source/StatisticsFunctions/arm_var_f32.c ****  * not use this file except in compliance with the License.
  18:./Libraries/CMSIS/DSP/Source/StatisticsFunctions/arm_var_f32.c ****  * You may obtain a copy of the License at
  19:./Libraries/CMSIS/DSP/Source/StatisticsFunctions/arm_var_f32.c ****  *
  20:./Libraries/CMSIS/DSP/Source/StatisticsFunctions/arm_var_f32.c ****  * www.apache.org/licenses/LICENSE-2.0
  21:./Libraries/CMSIS/DSP/Source/StatisticsFunctions/arm_var_f32.c ****  *
  22:./Libraries/CMSIS/DSP/Source/StatisticsFunctions/arm_var_f32.c ****  * Unless required by applicable law or agreed to in writing, software
  23:./Libraries/CMSIS/DSP/Source/StatisticsFunctions/arm_var_f32.c ****  * distributed under the License is distributed on an AS IS BASIS, WITHOUT
  24:./Libraries/CMSIS/DSP/Source/StatisticsFunctions/arm_var_f32.c ****  * WARRANTIES OR CONDITIONS OF ANY KIND, either express or implied.
  25:./Libraries/CMSIS/DSP/Source/StatisticsFunctions/arm_var_f32.c ****  * See the License for the specific language governing permissions and
  26:./Libraries/CMSIS/DSP/Source/StatisticsFunctions/arm_var_f32.c ****  * limitations under the License.
  27:./Libraries/CMSIS/DSP/Source/StatisticsFunctions/arm_var_f32.c ****  */
  28:./Libraries/CMSIS/DSP/Source/StatisticsFunctions/arm_var_f32.c **** 
  29:./Libraries/CMSIS/DSP/Source/StatisticsFunctions/arm_var_f32.c **** #include "arm_math.h"
  30:./Libraries/CMSIS/DSP/Source/StatisticsFunctions/arm_var_f32.c **** 
  31:./Libraries/CMSIS/DSP/Source/StatisticsFunctions/arm_var_f32.c **** /**
ARM GAS  /tmp/ccpW4Xqc.s 			page 2


  32:./Libraries/CMSIS/DSP/Source/StatisticsFunctions/arm_var_f32.c ****   @ingroup groupStats
  33:./Libraries/CMSIS/DSP/Source/StatisticsFunctions/arm_var_f32.c ****  */
  34:./Libraries/CMSIS/DSP/Source/StatisticsFunctions/arm_var_f32.c **** 
  35:./Libraries/CMSIS/DSP/Source/StatisticsFunctions/arm_var_f32.c **** /**
  36:./Libraries/CMSIS/DSP/Source/StatisticsFunctions/arm_var_f32.c ****   @defgroup variance  Variance
  37:./Libraries/CMSIS/DSP/Source/StatisticsFunctions/arm_var_f32.c **** 
  38:./Libraries/CMSIS/DSP/Source/StatisticsFunctions/arm_var_f32.c ****   Calculates the variance of the elements in the input vector.
  39:./Libraries/CMSIS/DSP/Source/StatisticsFunctions/arm_var_f32.c ****   The underlying algorithm used is the direct method sometimes referred to as the two-pass method:
  40:./Libraries/CMSIS/DSP/Source/StatisticsFunctions/arm_var_f32.c **** 
  41:./Libraries/CMSIS/DSP/Source/StatisticsFunctions/arm_var_f32.c ****   <pre>
  42:./Libraries/CMSIS/DSP/Source/StatisticsFunctions/arm_var_f32.c ****       Result = sum(element - meanOfElements)^2) / numElement - 1
  43:./Libraries/CMSIS/DSP/Source/StatisticsFunctions/arm_var_f32.c **** 
  44:./Libraries/CMSIS/DSP/Source/StatisticsFunctions/arm_var_f32.c ****       meanOfElements = ( pSrc[0] * pSrc[0] + pSrc[1] * pSrc[1] + ... + pSrc[blockSize-1] ) / blockS
  45:./Libraries/CMSIS/DSP/Source/StatisticsFunctions/arm_var_f32.c ****   </pre>
  46:./Libraries/CMSIS/DSP/Source/StatisticsFunctions/arm_var_f32.c **** 
  47:./Libraries/CMSIS/DSP/Source/StatisticsFunctions/arm_var_f32.c ****   There are separate functions for floating point, Q31, and Q15 data types.
  48:./Libraries/CMSIS/DSP/Source/StatisticsFunctions/arm_var_f32.c ****  */
  49:./Libraries/CMSIS/DSP/Source/StatisticsFunctions/arm_var_f32.c **** 
  50:./Libraries/CMSIS/DSP/Source/StatisticsFunctions/arm_var_f32.c **** /**
  51:./Libraries/CMSIS/DSP/Source/StatisticsFunctions/arm_var_f32.c ****   @addtogroup variance
  52:./Libraries/CMSIS/DSP/Source/StatisticsFunctions/arm_var_f32.c ****   @{
  53:./Libraries/CMSIS/DSP/Source/StatisticsFunctions/arm_var_f32.c ****  */
  54:./Libraries/CMSIS/DSP/Source/StatisticsFunctions/arm_var_f32.c **** 
  55:./Libraries/CMSIS/DSP/Source/StatisticsFunctions/arm_var_f32.c **** /**
  56:./Libraries/CMSIS/DSP/Source/StatisticsFunctions/arm_var_f32.c ****   @brief         Variance of the elements of a floating-point vector.
  57:./Libraries/CMSIS/DSP/Source/StatisticsFunctions/arm_var_f32.c ****   @param[in]     pSrc       points to the input vector
  58:./Libraries/CMSIS/DSP/Source/StatisticsFunctions/arm_var_f32.c ****   @param[in]     blockSize  number of samples in input vector
  59:./Libraries/CMSIS/DSP/Source/StatisticsFunctions/arm_var_f32.c ****   @param[out]    pResult    variance value returned here
  60:./Libraries/CMSIS/DSP/Source/StatisticsFunctions/arm_var_f32.c ****   @return        none
  61:./Libraries/CMSIS/DSP/Source/StatisticsFunctions/arm_var_f32.c ****  */
  62:./Libraries/CMSIS/DSP/Source/StatisticsFunctions/arm_var_f32.c **** #if defined(ARM_MATH_NEON_EXPERIMENTAL)
  63:./Libraries/CMSIS/DSP/Source/StatisticsFunctions/arm_var_f32.c **** void arm_var_f32(
  64:./Libraries/CMSIS/DSP/Source/StatisticsFunctions/arm_var_f32.c ****            const float32_t * pSrc,
  65:./Libraries/CMSIS/DSP/Source/StatisticsFunctions/arm_var_f32.c ****                  uint32_t blockSize,
  66:./Libraries/CMSIS/DSP/Source/StatisticsFunctions/arm_var_f32.c ****                  float32_t * pResult)
  67:./Libraries/CMSIS/DSP/Source/StatisticsFunctions/arm_var_f32.c **** {
  68:./Libraries/CMSIS/DSP/Source/StatisticsFunctions/arm_var_f32.c ****   float32_t mean;
  69:./Libraries/CMSIS/DSP/Source/StatisticsFunctions/arm_var_f32.c **** 
  70:./Libraries/CMSIS/DSP/Source/StatisticsFunctions/arm_var_f32.c ****   float32_t sum = 0.0f;                          /* accumulator */
  71:./Libraries/CMSIS/DSP/Source/StatisticsFunctions/arm_var_f32.c ****   float32_t in;                                  /* Temporary variable to store input value */
  72:./Libraries/CMSIS/DSP/Source/StatisticsFunctions/arm_var_f32.c ****   uint32_t blkCnt;                               /* loop counter */
  73:./Libraries/CMSIS/DSP/Source/StatisticsFunctions/arm_var_f32.c **** 
  74:./Libraries/CMSIS/DSP/Source/StatisticsFunctions/arm_var_f32.c ****   float32x4_t sumV = vdupq_n_f32(0.0f);                          /* Temporary result storage */
  75:./Libraries/CMSIS/DSP/Source/StatisticsFunctions/arm_var_f32.c ****   float32x2_t sumV2;
  76:./Libraries/CMSIS/DSP/Source/StatisticsFunctions/arm_var_f32.c ****   float32x4_t inV;
  77:./Libraries/CMSIS/DSP/Source/StatisticsFunctions/arm_var_f32.c ****   float32x4_t avg;
  78:./Libraries/CMSIS/DSP/Source/StatisticsFunctions/arm_var_f32.c **** 
  79:./Libraries/CMSIS/DSP/Source/StatisticsFunctions/arm_var_f32.c ****   arm_mean_f32(pSrc,blockSize,&mean);
  80:./Libraries/CMSIS/DSP/Source/StatisticsFunctions/arm_var_f32.c ****   avg = vdupq_n_f32(mean);
  81:./Libraries/CMSIS/DSP/Source/StatisticsFunctions/arm_var_f32.c **** 
  82:./Libraries/CMSIS/DSP/Source/StatisticsFunctions/arm_var_f32.c ****   blkCnt = blockSize >> 2U;
  83:./Libraries/CMSIS/DSP/Source/StatisticsFunctions/arm_var_f32.c **** 
  84:./Libraries/CMSIS/DSP/Source/StatisticsFunctions/arm_var_f32.c ****   /* Compute 4 outputs at a time.
  85:./Libraries/CMSIS/DSP/Source/StatisticsFunctions/arm_var_f32.c ****    ** a second loop below computes the remaining 1 to 3 samples. */
  86:./Libraries/CMSIS/DSP/Source/StatisticsFunctions/arm_var_f32.c ****   while (blkCnt > 0U)
  87:./Libraries/CMSIS/DSP/Source/StatisticsFunctions/arm_var_f32.c ****   {
  88:./Libraries/CMSIS/DSP/Source/StatisticsFunctions/arm_var_f32.c ****     /* C = A[0] * A[0] + A[1] * A[1] + A[2] * A[2] + ... + A[blockSize-1] * A[blockSize-1] */
ARM GAS  /tmp/ccpW4Xqc.s 			page 3


  89:./Libraries/CMSIS/DSP/Source/StatisticsFunctions/arm_var_f32.c ****     /* Compute Power and then store the result in a temporary variable, sum. */
  90:./Libraries/CMSIS/DSP/Source/StatisticsFunctions/arm_var_f32.c ****     inV = vld1q_f32(pSrc);
  91:./Libraries/CMSIS/DSP/Source/StatisticsFunctions/arm_var_f32.c ****     inV = vsubq_f32(inV, avg);
  92:./Libraries/CMSIS/DSP/Source/StatisticsFunctions/arm_var_f32.c ****     sumV = vmlaq_f32(sumV, inV, inV);
  93:./Libraries/CMSIS/DSP/Source/StatisticsFunctions/arm_var_f32.c ****     pSrc += 4;
  94:./Libraries/CMSIS/DSP/Source/StatisticsFunctions/arm_var_f32.c **** 
  95:./Libraries/CMSIS/DSP/Source/StatisticsFunctions/arm_var_f32.c ****     /* Decrement the loop counter */
  96:./Libraries/CMSIS/DSP/Source/StatisticsFunctions/arm_var_f32.c ****     blkCnt--;
  97:./Libraries/CMSIS/DSP/Source/StatisticsFunctions/arm_var_f32.c ****   }
  98:./Libraries/CMSIS/DSP/Source/StatisticsFunctions/arm_var_f32.c **** 
  99:./Libraries/CMSIS/DSP/Source/StatisticsFunctions/arm_var_f32.c ****   sumV2 = vpadd_f32(vget_low_f32(sumV),vget_high_f32(sumV));
 100:./Libraries/CMSIS/DSP/Source/StatisticsFunctions/arm_var_f32.c ****   sum = sumV2[0] + sumV2[1];
 101:./Libraries/CMSIS/DSP/Source/StatisticsFunctions/arm_var_f32.c **** 
 102:./Libraries/CMSIS/DSP/Source/StatisticsFunctions/arm_var_f32.c ****   /* If the blockSize is not a multiple of 4, compute any remaining output samples here.
 103:./Libraries/CMSIS/DSP/Source/StatisticsFunctions/arm_var_f32.c ****    ** No loop unrolling is used. */
 104:./Libraries/CMSIS/DSP/Source/StatisticsFunctions/arm_var_f32.c ****   blkCnt = blockSize % 0x4U;
 105:./Libraries/CMSIS/DSP/Source/StatisticsFunctions/arm_var_f32.c **** 
 106:./Libraries/CMSIS/DSP/Source/StatisticsFunctions/arm_var_f32.c ****   while (blkCnt > 0U)
 107:./Libraries/CMSIS/DSP/Source/StatisticsFunctions/arm_var_f32.c ****   {
 108:./Libraries/CMSIS/DSP/Source/StatisticsFunctions/arm_var_f32.c ****     /* C = A[0] * A[0] + A[1] * A[1] + A[2] * A[2] + ... + A[blockSize-1] * A[blockSize-1] */
 109:./Libraries/CMSIS/DSP/Source/StatisticsFunctions/arm_var_f32.c ****     /* compute power and then store the result in a temporary variable, sum. */
 110:./Libraries/CMSIS/DSP/Source/StatisticsFunctions/arm_var_f32.c ****     in = *pSrc++;
 111:./Libraries/CMSIS/DSP/Source/StatisticsFunctions/arm_var_f32.c ****     in = in - mean;
 112:./Libraries/CMSIS/DSP/Source/StatisticsFunctions/arm_var_f32.c ****     sum += in * in;
 113:./Libraries/CMSIS/DSP/Source/StatisticsFunctions/arm_var_f32.c **** 
 114:./Libraries/CMSIS/DSP/Source/StatisticsFunctions/arm_var_f32.c ****     /* Decrement the loop counter */
 115:./Libraries/CMSIS/DSP/Source/StatisticsFunctions/arm_var_f32.c ****     blkCnt--;
 116:./Libraries/CMSIS/DSP/Source/StatisticsFunctions/arm_var_f32.c ****   }
 117:./Libraries/CMSIS/DSP/Source/StatisticsFunctions/arm_var_f32.c **** 
 118:./Libraries/CMSIS/DSP/Source/StatisticsFunctions/arm_var_f32.c ****   /* Variance */
 119:./Libraries/CMSIS/DSP/Source/StatisticsFunctions/arm_var_f32.c ****   *pResult = sum / (float32_t)(blockSize - 1.0f);
 120:./Libraries/CMSIS/DSP/Source/StatisticsFunctions/arm_var_f32.c **** 
 121:./Libraries/CMSIS/DSP/Source/StatisticsFunctions/arm_var_f32.c **** }
 122:./Libraries/CMSIS/DSP/Source/StatisticsFunctions/arm_var_f32.c **** 
 123:./Libraries/CMSIS/DSP/Source/StatisticsFunctions/arm_var_f32.c **** #else
 124:./Libraries/CMSIS/DSP/Source/StatisticsFunctions/arm_var_f32.c **** void arm_var_f32(
 125:./Libraries/CMSIS/DSP/Source/StatisticsFunctions/arm_var_f32.c ****   const float32_t * pSrc,
 126:./Libraries/CMSIS/DSP/Source/StatisticsFunctions/arm_var_f32.c ****         uint32_t blockSize,
 127:./Libraries/CMSIS/DSP/Source/StatisticsFunctions/arm_var_f32.c ****         float32_t * pResult)
 128:./Libraries/CMSIS/DSP/Source/StatisticsFunctions/arm_var_f32.c **** {
  28              		.loc 1 128 1
  29              		.cfi_startproc
  30              		@ args = 0, pretend = 0, frame = 40
  31              		@ frame_needed = 1, uses_anonymous_args = 0
  32              		@ link register save eliminated.
  33 0000 80B4     		push	{r7}
  34              	.LCFI0:
  35              		.cfi_def_cfa_offset 4
  36              		.cfi_offset 7, -4
  37 0002 8BB0     		sub	sp, sp, #44
  38              	.LCFI1:
  39              		.cfi_def_cfa_offset 48
  40 0004 00AF     		add	r7, sp, #0
  41              	.LCFI2:
  42              		.cfi_def_cfa_register 7
  43 0006 F860     		str	r0, [r7, #12]
  44 0008 B960     		str	r1, [r7, #8]
ARM GAS  /tmp/ccpW4Xqc.s 			page 4


  45 000a 7A60     		str	r2, [r7, #4]
 129:./Libraries/CMSIS/DSP/Source/StatisticsFunctions/arm_var_f32.c ****         uint32_t blkCnt;                               /* Loop counter */
 130:./Libraries/CMSIS/DSP/Source/StatisticsFunctions/arm_var_f32.c ****         float32_t sum = 0.0f;                          /* Temporary result storage */
  46              		.loc 1 130 19
  47 000c 4FF00003 		mov	r3, #0
  48 0010 3B62     		str	r3, [r7, #32]	@ float
 131:./Libraries/CMSIS/DSP/Source/StatisticsFunctions/arm_var_f32.c ****         float32_t fSum = 0.0f;
  49              		.loc 1 131 19
  50 0012 4FF00003 		mov	r3, #0
  51 0016 FB61     		str	r3, [r7, #28]	@ float
 132:./Libraries/CMSIS/DSP/Source/StatisticsFunctions/arm_var_f32.c ****         float32_t fMean, fValue;
 133:./Libraries/CMSIS/DSP/Source/StatisticsFunctions/arm_var_f32.c ****   const float32_t * pInput = pSrc;
  52              		.loc 1 133 21
  53 0018 FB68     		ldr	r3, [r7, #12]
  54 001a BB61     		str	r3, [r7, #24]
 134:./Libraries/CMSIS/DSP/Source/StatisticsFunctions/arm_var_f32.c **** 
 135:./Libraries/CMSIS/DSP/Source/StatisticsFunctions/arm_var_f32.c ****   if (blockSize <= 1U)
  55              		.loc 1 135 6
  56 001c BB68     		ldr	r3, [r7, #8]
  57 001e 012B     		cmp	r3, #1
  58 0020 04D8     		bhi	.L2
 136:./Libraries/CMSIS/DSP/Source/StatisticsFunctions/arm_var_f32.c ****   {
 137:./Libraries/CMSIS/DSP/Source/StatisticsFunctions/arm_var_f32.c ****     *pResult = 0;
  59              		.loc 1 137 14
  60 0022 7B68     		ldr	r3, [r7, #4]
  61 0024 4FF00002 		mov	r2, #0
  62 0028 1A60     		str	r2, [r3]	@ float
 138:./Libraries/CMSIS/DSP/Source/StatisticsFunctions/arm_var_f32.c ****     return;
  63              		.loc 1 138 5
  64 002a 4EE0     		b	.L1
  65              	.L2:
 139:./Libraries/CMSIS/DSP/Source/StatisticsFunctions/arm_var_f32.c ****   }
 140:./Libraries/CMSIS/DSP/Source/StatisticsFunctions/arm_var_f32.c **** 
 141:./Libraries/CMSIS/DSP/Source/StatisticsFunctions/arm_var_f32.c **** #if defined (ARM_MATH_LOOPUNROLL)
 142:./Libraries/CMSIS/DSP/Source/StatisticsFunctions/arm_var_f32.c **** 
 143:./Libraries/CMSIS/DSP/Source/StatisticsFunctions/arm_var_f32.c ****   /* Loop unrolling: Compute 4 outputs at a time */
 144:./Libraries/CMSIS/DSP/Source/StatisticsFunctions/arm_var_f32.c ****   blkCnt = blockSize >> 2U;
 145:./Libraries/CMSIS/DSP/Source/StatisticsFunctions/arm_var_f32.c **** 
 146:./Libraries/CMSIS/DSP/Source/StatisticsFunctions/arm_var_f32.c ****   while (blkCnt > 0U)
 147:./Libraries/CMSIS/DSP/Source/StatisticsFunctions/arm_var_f32.c ****   {
 148:./Libraries/CMSIS/DSP/Source/StatisticsFunctions/arm_var_f32.c ****     /* C = (A[0] + A[1] + A[2] + ... + A[blockSize-1]) */
 149:./Libraries/CMSIS/DSP/Source/StatisticsFunctions/arm_var_f32.c **** 
 150:./Libraries/CMSIS/DSP/Source/StatisticsFunctions/arm_var_f32.c ****     sum += *pInput++;
 151:./Libraries/CMSIS/DSP/Source/StatisticsFunctions/arm_var_f32.c ****     sum += *pInput++;
 152:./Libraries/CMSIS/DSP/Source/StatisticsFunctions/arm_var_f32.c ****     sum += *pInput++;
 153:./Libraries/CMSIS/DSP/Source/StatisticsFunctions/arm_var_f32.c ****     sum += *pInput++;
 154:./Libraries/CMSIS/DSP/Source/StatisticsFunctions/arm_var_f32.c **** 
 155:./Libraries/CMSIS/DSP/Source/StatisticsFunctions/arm_var_f32.c **** 
 156:./Libraries/CMSIS/DSP/Source/StatisticsFunctions/arm_var_f32.c ****     /* Decrement loop counter */
 157:./Libraries/CMSIS/DSP/Source/StatisticsFunctions/arm_var_f32.c ****     blkCnt--;
 158:./Libraries/CMSIS/DSP/Source/StatisticsFunctions/arm_var_f32.c ****   }
 159:./Libraries/CMSIS/DSP/Source/StatisticsFunctions/arm_var_f32.c **** 
 160:./Libraries/CMSIS/DSP/Source/StatisticsFunctions/arm_var_f32.c ****   /* Loop unrolling: Compute remaining outputs */
 161:./Libraries/CMSIS/DSP/Source/StatisticsFunctions/arm_var_f32.c ****   blkCnt = blockSize % 0x4U;
 162:./Libraries/CMSIS/DSP/Source/StatisticsFunctions/arm_var_f32.c **** 
 163:./Libraries/CMSIS/DSP/Source/StatisticsFunctions/arm_var_f32.c **** #else
 164:./Libraries/CMSIS/DSP/Source/StatisticsFunctions/arm_var_f32.c **** 
ARM GAS  /tmp/ccpW4Xqc.s 			page 5


 165:./Libraries/CMSIS/DSP/Source/StatisticsFunctions/arm_var_f32.c ****   /* Initialize blkCnt with number of samples */
 166:./Libraries/CMSIS/DSP/Source/StatisticsFunctions/arm_var_f32.c ****   blkCnt = blockSize;
  66              		.loc 1 166 10
  67 002c BB68     		ldr	r3, [r7, #8]
  68 002e 7B62     		str	r3, [r7, #36]
 167:./Libraries/CMSIS/DSP/Source/StatisticsFunctions/arm_var_f32.c **** 
 168:./Libraries/CMSIS/DSP/Source/StatisticsFunctions/arm_var_f32.c **** #endif /* #if defined (ARM_MATH_LOOPUNROLL) */
 169:./Libraries/CMSIS/DSP/Source/StatisticsFunctions/arm_var_f32.c **** 
 170:./Libraries/CMSIS/DSP/Source/StatisticsFunctions/arm_var_f32.c ****   while (blkCnt > 0U)
  69              		.loc 1 170 9
  70 0030 0DE0     		b	.L4
  71              	.L5:
 171:./Libraries/CMSIS/DSP/Source/StatisticsFunctions/arm_var_f32.c ****   {
 172:./Libraries/CMSIS/DSP/Source/StatisticsFunctions/arm_var_f32.c ****     /* C = (A[0] + A[1] + A[2] + ... + A[blockSize-1]) */
 173:./Libraries/CMSIS/DSP/Source/StatisticsFunctions/arm_var_f32.c **** 
 174:./Libraries/CMSIS/DSP/Source/StatisticsFunctions/arm_var_f32.c ****     sum += *pInput++;
  72              		.loc 1 174 19
  73 0032 BB69     		ldr	r3, [r7, #24]
  74 0034 1A1D     		adds	r2, r3, #4
  75 0036 BA61     		str	r2, [r7, #24]
  76              		.loc 1 174 12
  77 0038 D3ED007A 		vldr.32	s15, [r3]
  78              		.loc 1 174 9
  79 003c 97ED087A 		vldr.32	s14, [r7, #32]
  80 0040 77EE277A 		vadd.f32	s15, s14, s15
  81 0044 C7ED087A 		vstr.32	s15, [r7, #32]
 175:./Libraries/CMSIS/DSP/Source/StatisticsFunctions/arm_var_f32.c **** 
 176:./Libraries/CMSIS/DSP/Source/StatisticsFunctions/arm_var_f32.c ****     /* Decrement loop counter */
 177:./Libraries/CMSIS/DSP/Source/StatisticsFunctions/arm_var_f32.c ****     blkCnt--;
  82              		.loc 1 177 11
  83 0048 7B6A     		ldr	r3, [r7, #36]
  84 004a 013B     		subs	r3, r3, #1
  85 004c 7B62     		str	r3, [r7, #36]
  86              	.L4:
 170:./Libraries/CMSIS/DSP/Source/StatisticsFunctions/arm_var_f32.c ****   {
  87              		.loc 1 170 9
  88 004e 7B6A     		ldr	r3, [r7, #36]
  89 0050 002B     		cmp	r3, #0
  90 0052 EED1     		bne	.L5
 178:./Libraries/CMSIS/DSP/Source/StatisticsFunctions/arm_var_f32.c ****   }
 179:./Libraries/CMSIS/DSP/Source/StatisticsFunctions/arm_var_f32.c **** 
 180:./Libraries/CMSIS/DSP/Source/StatisticsFunctions/arm_var_f32.c ****   /* C = (A[0] + A[1] + A[2] + ... + A[blockSize-1]) / blockSize  */
 181:./Libraries/CMSIS/DSP/Source/StatisticsFunctions/arm_var_f32.c ****   fMean = sum / (float32_t) blockSize;
  91              		.loc 1 181 17
  92 0054 BB68     		ldr	r3, [r7, #8]
  93 0056 07EE903A 		vmov	s15, r3	@ int
  94 005a B8EE677A 		vcvt.f32.u32	s14, s15
  95              		.loc 1 181 9
  96 005e D7ED086A 		vldr.32	s13, [r7, #32]
  97 0062 C6EE877A 		vdiv.f32	s15, s13, s14
  98 0066 C7ED057A 		vstr.32	s15, [r7, #20]
 182:./Libraries/CMSIS/DSP/Source/StatisticsFunctions/arm_var_f32.c **** 
 183:./Libraries/CMSIS/DSP/Source/StatisticsFunctions/arm_var_f32.c ****   pInput = pSrc;
  99              		.loc 1 183 10
 100 006a FB68     		ldr	r3, [r7, #12]
 101 006c BB61     		str	r3, [r7, #24]
 184:./Libraries/CMSIS/DSP/Source/StatisticsFunctions/arm_var_f32.c **** 
ARM GAS  /tmp/ccpW4Xqc.s 			page 6


 185:./Libraries/CMSIS/DSP/Source/StatisticsFunctions/arm_var_f32.c **** #if defined (ARM_MATH_LOOPUNROLL)
 186:./Libraries/CMSIS/DSP/Source/StatisticsFunctions/arm_var_f32.c **** 
 187:./Libraries/CMSIS/DSP/Source/StatisticsFunctions/arm_var_f32.c ****   /* Loop unrolling: Compute 4 outputs at a time */
 188:./Libraries/CMSIS/DSP/Source/StatisticsFunctions/arm_var_f32.c ****   blkCnt = blockSize >> 2U;
 189:./Libraries/CMSIS/DSP/Source/StatisticsFunctions/arm_var_f32.c **** 
 190:./Libraries/CMSIS/DSP/Source/StatisticsFunctions/arm_var_f32.c ****   while (blkCnt > 0U)
 191:./Libraries/CMSIS/DSP/Source/StatisticsFunctions/arm_var_f32.c ****   {
 192:./Libraries/CMSIS/DSP/Source/StatisticsFunctions/arm_var_f32.c ****     fValue = *pInput++ - fMean;
 193:./Libraries/CMSIS/DSP/Source/StatisticsFunctions/arm_var_f32.c ****     fSum += fValue * fValue;
 194:./Libraries/CMSIS/DSP/Source/StatisticsFunctions/arm_var_f32.c **** 
 195:./Libraries/CMSIS/DSP/Source/StatisticsFunctions/arm_var_f32.c ****     fValue = *pInput++ - fMean;
 196:./Libraries/CMSIS/DSP/Source/StatisticsFunctions/arm_var_f32.c ****     fSum += fValue * fValue;
 197:./Libraries/CMSIS/DSP/Source/StatisticsFunctions/arm_var_f32.c **** 
 198:./Libraries/CMSIS/DSP/Source/StatisticsFunctions/arm_var_f32.c ****     fValue = *pInput++ - fMean;
 199:./Libraries/CMSIS/DSP/Source/StatisticsFunctions/arm_var_f32.c ****     fSum += fValue * fValue;
 200:./Libraries/CMSIS/DSP/Source/StatisticsFunctions/arm_var_f32.c **** 
 201:./Libraries/CMSIS/DSP/Source/StatisticsFunctions/arm_var_f32.c ****     fValue = *pInput++ - fMean;
 202:./Libraries/CMSIS/DSP/Source/StatisticsFunctions/arm_var_f32.c ****     fSum += fValue * fValue;
 203:./Libraries/CMSIS/DSP/Source/StatisticsFunctions/arm_var_f32.c **** 
 204:./Libraries/CMSIS/DSP/Source/StatisticsFunctions/arm_var_f32.c ****     /* Decrement loop counter */
 205:./Libraries/CMSIS/DSP/Source/StatisticsFunctions/arm_var_f32.c ****     blkCnt--;
 206:./Libraries/CMSIS/DSP/Source/StatisticsFunctions/arm_var_f32.c ****   }
 207:./Libraries/CMSIS/DSP/Source/StatisticsFunctions/arm_var_f32.c **** 
 208:./Libraries/CMSIS/DSP/Source/StatisticsFunctions/arm_var_f32.c ****   /* Loop unrolling: Compute remaining outputs */
 209:./Libraries/CMSIS/DSP/Source/StatisticsFunctions/arm_var_f32.c ****   blkCnt = blockSize % 0x4U;
 210:./Libraries/CMSIS/DSP/Source/StatisticsFunctions/arm_var_f32.c **** 
 211:./Libraries/CMSIS/DSP/Source/StatisticsFunctions/arm_var_f32.c **** #else
 212:./Libraries/CMSIS/DSP/Source/StatisticsFunctions/arm_var_f32.c **** 
 213:./Libraries/CMSIS/DSP/Source/StatisticsFunctions/arm_var_f32.c ****   /* Initialize blkCnt with number of samples */
 214:./Libraries/CMSIS/DSP/Source/StatisticsFunctions/arm_var_f32.c ****   blkCnt = blockSize;
 102              		.loc 1 214 10
 103 006e BB68     		ldr	r3, [r7, #8]
 104 0070 7B62     		str	r3, [r7, #36]
 215:./Libraries/CMSIS/DSP/Source/StatisticsFunctions/arm_var_f32.c **** 
 216:./Libraries/CMSIS/DSP/Source/StatisticsFunctions/arm_var_f32.c **** #endif /* #if defined (ARM_MATH_LOOPUNROLL) */
 217:./Libraries/CMSIS/DSP/Source/StatisticsFunctions/arm_var_f32.c **** 
 218:./Libraries/CMSIS/DSP/Source/StatisticsFunctions/arm_var_f32.c ****   while (blkCnt > 0U)
 105              		.loc 1 218 9
 106 0072 17E0     		b	.L6
 107              	.L7:
 219:./Libraries/CMSIS/DSP/Source/StatisticsFunctions/arm_var_f32.c ****   {
 220:./Libraries/CMSIS/DSP/Source/StatisticsFunctions/arm_var_f32.c ****     fValue = *pInput++ - fMean;
 108              		.loc 1 220 21
 109 0074 BB69     		ldr	r3, [r7, #24]
 110 0076 1A1D     		adds	r2, r3, #4
 111 0078 BA61     		str	r2, [r7, #24]
 112              		.loc 1 220 14
 113 007a 93ED007A 		vldr.32	s14, [r3]
 114              		.loc 1 220 12
 115 007e D7ED057A 		vldr.32	s15, [r7, #20]
 116 0082 77EE677A 		vsub.f32	s15, s14, s15
 117 0086 C7ED047A 		vstr.32	s15, [r7, #16]
 221:./Libraries/CMSIS/DSP/Source/StatisticsFunctions/arm_var_f32.c ****     fSum += fValue * fValue;
 118              		.loc 1 221 20
 119 008a D7ED047A 		vldr.32	s15, [r7, #16]
 120 008e 67EEA77A 		vmul.f32	s15, s15, s15
 121              		.loc 1 221 10
ARM GAS  /tmp/ccpW4Xqc.s 			page 7


 122 0092 97ED077A 		vldr.32	s14, [r7, #28]
 123 0096 77EE277A 		vadd.f32	s15, s14, s15
 124 009a C7ED077A 		vstr.32	s15, [r7, #28]
 222:./Libraries/CMSIS/DSP/Source/StatisticsFunctions/arm_var_f32.c **** 
 223:./Libraries/CMSIS/DSP/Source/StatisticsFunctions/arm_var_f32.c ****     /* Decrement loop counter */
 224:./Libraries/CMSIS/DSP/Source/StatisticsFunctions/arm_var_f32.c ****     blkCnt--;
 125              		.loc 1 224 11
 126 009e 7B6A     		ldr	r3, [r7, #36]
 127 00a0 013B     		subs	r3, r3, #1
 128 00a2 7B62     		str	r3, [r7, #36]
 129              	.L6:
 218:./Libraries/CMSIS/DSP/Source/StatisticsFunctions/arm_var_f32.c ****   {
 130              		.loc 1 218 9
 131 00a4 7B6A     		ldr	r3, [r7, #36]
 132 00a6 002B     		cmp	r3, #0
 133 00a8 E4D1     		bne	.L7
 225:./Libraries/CMSIS/DSP/Source/StatisticsFunctions/arm_var_f32.c ****   }
 226:./Libraries/CMSIS/DSP/Source/StatisticsFunctions/arm_var_f32.c **** 
 227:./Libraries/CMSIS/DSP/Source/StatisticsFunctions/arm_var_f32.c ****   /* Variance */
 228:./Libraries/CMSIS/DSP/Source/StatisticsFunctions/arm_var_f32.c ****   *pResult = fSum / (float32_t)(blockSize - 1.0f);
 134              		.loc 1 228 21
 135 00aa BB68     		ldr	r3, [r7, #8]
 136 00ac 07EE903A 		vmov	s15, r3	@ int
 137 00b0 F8EE677A 		vcvt.f32.u32	s15, s15
 138 00b4 B7EE007A 		vmov.f32	s14, #1.0e+0
 139 00b8 37EEC77A 		vsub.f32	s14, s15, s14
 140              		.loc 1 228 19
 141 00bc D7ED076A 		vldr.32	s13, [r7, #28]
 142 00c0 C6EE877A 		vdiv.f32	s15, s13, s14
 143              		.loc 1 228 12
 144 00c4 7B68     		ldr	r3, [r7, #4]
 145 00c6 C3ED007A 		vstr.32	s15, [r3]
 146              	.L1:
 229:./Libraries/CMSIS/DSP/Source/StatisticsFunctions/arm_var_f32.c **** }
 147              		.loc 1 229 1
 148 00ca 2C37     		adds	r7, r7, #44
 149              	.LCFI3:
 150              		.cfi_def_cfa_offset 4
 151 00cc BD46     		mov	sp, r7
 152              	.LCFI4:
 153              		.cfi_def_cfa_register 13
 154              		@ sp needed
 155 00ce 5DF8047B 		ldr	r7, [sp], #4
 156              	.LCFI5:
 157              		.cfi_restore 7
 158              		.cfi_def_cfa_offset 0
 159 00d2 7047     		bx	lr
 160              		.cfi_endproc
 161              	.LFE145:
 163              		.text
 164              	.Letext0:
 165              		.file 2 "/usr/lib/gcc/arm-none-eabi/9.2.1/include/stdint.h"
 166              		.file 3 "/usr/lib/gcc/arm-none-eabi/9.2.1/include/stddef.h"
 167              		.file 4 "/usr/include/newlib/sys/_types.h"
 168              		.file 5 "/usr/include/newlib/sys/reent.h"
 169              		.file 6 "/usr/include/newlib/sys/lock.h"
 170              		.file 7 "/usr/include/newlib/math.h"
ARM GAS  /tmp/ccpW4Xqc.s 			page 8


 171              		.file 8 "./Libraries/CMSIS/DSP/Include/arm_math.h"
ARM GAS  /tmp/ccpW4Xqc.s 			page 9

