ARM GAS  /tmp/ccHAlxMU.s 			page 1


   1              		.cpu cortex-m7
   2              		.eabi_attribute 28, 1
   3              		.eabi_attribute 20, 1
   4              		.eabi_attribute 21, 1
   5              		.eabi_attribute 23, 3
   6              		.eabi_attribute 24, 1
   7              		.eabi_attribute 25, 1
   8              		.eabi_attribute 26, 1
   9              		.eabi_attribute 30, 6
  10              		.eabi_attribute 34, 1
  11              		.eabi_attribute 18, 4
  12              		.file	"arm_mat_sub_f32.c"
  13              		.text
  14              	.Ltext0:
  15              		.cfi_sections	.debug_frame
  16              		.section	.text.arm_mat_sub_f32,"ax",%progbits
  17              		.align	1
  18              		.global	arm_mat_sub_f32
  19              		.arch armv7e-m
  20              		.syntax unified
  21              		.thumb
  22              		.thumb_func
  23              		.fpu fpv5-d16
  25              	arm_mat_sub_f32:
  26              	.LFB145:
  27              		.file 1 "./Libraries/CMSIS/DSP/Source/MatrixFunctions/arm_mat_sub_f32.c"
   1:./Libraries/CMSIS/DSP/Source/MatrixFunctions/arm_mat_sub_f32.c **** /* ----------------------------------------------------------------------
   2:./Libraries/CMSIS/DSP/Source/MatrixFunctions/arm_mat_sub_f32.c ****  * Project:      CMSIS DSP Library
   3:./Libraries/CMSIS/DSP/Source/MatrixFunctions/arm_mat_sub_f32.c ****  * Title:        arm_mat_sub_f32.c
   4:./Libraries/CMSIS/DSP/Source/MatrixFunctions/arm_mat_sub_f32.c ****  * Description:  Floating-point matrix subtraction
   5:./Libraries/CMSIS/DSP/Source/MatrixFunctions/arm_mat_sub_f32.c ****  *
   6:./Libraries/CMSIS/DSP/Source/MatrixFunctions/arm_mat_sub_f32.c ****  * $Date:        18. March 2019
   7:./Libraries/CMSIS/DSP/Source/MatrixFunctions/arm_mat_sub_f32.c ****  * $Revision:    V1.6.0
   8:./Libraries/CMSIS/DSP/Source/MatrixFunctions/arm_mat_sub_f32.c ****  *
   9:./Libraries/CMSIS/DSP/Source/MatrixFunctions/arm_mat_sub_f32.c ****  * Target Processor: Cortex-M cores
  10:./Libraries/CMSIS/DSP/Source/MatrixFunctions/arm_mat_sub_f32.c ****  * -------------------------------------------------------------------- */
  11:./Libraries/CMSIS/DSP/Source/MatrixFunctions/arm_mat_sub_f32.c **** /*
  12:./Libraries/CMSIS/DSP/Source/MatrixFunctions/arm_mat_sub_f32.c ****  * Copyright (C) 2010-2019 ARM Limited or its affiliates. All rights reserved.
  13:./Libraries/CMSIS/DSP/Source/MatrixFunctions/arm_mat_sub_f32.c ****  *
  14:./Libraries/CMSIS/DSP/Source/MatrixFunctions/arm_mat_sub_f32.c ****  * SPDX-License-Identifier: Apache-2.0
  15:./Libraries/CMSIS/DSP/Source/MatrixFunctions/arm_mat_sub_f32.c ****  *
  16:./Libraries/CMSIS/DSP/Source/MatrixFunctions/arm_mat_sub_f32.c ****  * Licensed under the Apache License, Version 2.0 (the License); you may
  17:./Libraries/CMSIS/DSP/Source/MatrixFunctions/arm_mat_sub_f32.c ****  * not use this file except in compliance with the License.
  18:./Libraries/CMSIS/DSP/Source/MatrixFunctions/arm_mat_sub_f32.c ****  * You may obtain a copy of the License at
  19:./Libraries/CMSIS/DSP/Source/MatrixFunctions/arm_mat_sub_f32.c ****  *
  20:./Libraries/CMSIS/DSP/Source/MatrixFunctions/arm_mat_sub_f32.c ****  * www.apache.org/licenses/LICENSE-2.0
  21:./Libraries/CMSIS/DSP/Source/MatrixFunctions/arm_mat_sub_f32.c ****  *
  22:./Libraries/CMSIS/DSP/Source/MatrixFunctions/arm_mat_sub_f32.c ****  * Unless required by applicable law or agreed to in writing, software
  23:./Libraries/CMSIS/DSP/Source/MatrixFunctions/arm_mat_sub_f32.c ****  * distributed under the License is distributed on an AS IS BASIS, WITHOUT
  24:./Libraries/CMSIS/DSP/Source/MatrixFunctions/arm_mat_sub_f32.c ****  * WARRANTIES OR CONDITIONS OF ANY KIND, either express or implied.
  25:./Libraries/CMSIS/DSP/Source/MatrixFunctions/arm_mat_sub_f32.c ****  * See the License for the specific language governing permissions and
  26:./Libraries/CMSIS/DSP/Source/MatrixFunctions/arm_mat_sub_f32.c ****  * limitations under the License.
  27:./Libraries/CMSIS/DSP/Source/MatrixFunctions/arm_mat_sub_f32.c ****  */
  28:./Libraries/CMSIS/DSP/Source/MatrixFunctions/arm_mat_sub_f32.c **** 
  29:./Libraries/CMSIS/DSP/Source/MatrixFunctions/arm_mat_sub_f32.c **** #include "arm_math.h"
  30:./Libraries/CMSIS/DSP/Source/MatrixFunctions/arm_mat_sub_f32.c **** 
  31:./Libraries/CMSIS/DSP/Source/MatrixFunctions/arm_mat_sub_f32.c **** /**
ARM GAS  /tmp/ccHAlxMU.s 			page 2


  32:./Libraries/CMSIS/DSP/Source/MatrixFunctions/arm_mat_sub_f32.c ****   @ingroup groupMatrix
  33:./Libraries/CMSIS/DSP/Source/MatrixFunctions/arm_mat_sub_f32.c ****  */
  34:./Libraries/CMSIS/DSP/Source/MatrixFunctions/arm_mat_sub_f32.c **** 
  35:./Libraries/CMSIS/DSP/Source/MatrixFunctions/arm_mat_sub_f32.c **** /**
  36:./Libraries/CMSIS/DSP/Source/MatrixFunctions/arm_mat_sub_f32.c ****   @defgroup MatrixSub Matrix Subtraction
  37:./Libraries/CMSIS/DSP/Source/MatrixFunctions/arm_mat_sub_f32.c **** 
  38:./Libraries/CMSIS/DSP/Source/MatrixFunctions/arm_mat_sub_f32.c ****   Subtract two matrices.
  39:./Libraries/CMSIS/DSP/Source/MatrixFunctions/arm_mat_sub_f32.c ****   \image html MatrixSubtraction.gif "Subraction of two 3 x 3 matrices"
  40:./Libraries/CMSIS/DSP/Source/MatrixFunctions/arm_mat_sub_f32.c **** 
  41:./Libraries/CMSIS/DSP/Source/MatrixFunctions/arm_mat_sub_f32.c ****   The functions check to make sure that
  42:./Libraries/CMSIS/DSP/Source/MatrixFunctions/arm_mat_sub_f32.c ****   <code>pSrcA</code>, <code>pSrcB</code>, and <code>pDst</code> have the same
  43:./Libraries/CMSIS/DSP/Source/MatrixFunctions/arm_mat_sub_f32.c ****   number of rows and columns.
  44:./Libraries/CMSIS/DSP/Source/MatrixFunctions/arm_mat_sub_f32.c ****  */
  45:./Libraries/CMSIS/DSP/Source/MatrixFunctions/arm_mat_sub_f32.c **** 
  46:./Libraries/CMSIS/DSP/Source/MatrixFunctions/arm_mat_sub_f32.c **** /**
  47:./Libraries/CMSIS/DSP/Source/MatrixFunctions/arm_mat_sub_f32.c ****   @addtogroup MatrixSub
  48:./Libraries/CMSIS/DSP/Source/MatrixFunctions/arm_mat_sub_f32.c ****   @{
  49:./Libraries/CMSIS/DSP/Source/MatrixFunctions/arm_mat_sub_f32.c ****  */
  50:./Libraries/CMSIS/DSP/Source/MatrixFunctions/arm_mat_sub_f32.c **** 
  51:./Libraries/CMSIS/DSP/Source/MatrixFunctions/arm_mat_sub_f32.c **** /**
  52:./Libraries/CMSIS/DSP/Source/MatrixFunctions/arm_mat_sub_f32.c ****   @brief         Floating-point matrix subtraction.
  53:./Libraries/CMSIS/DSP/Source/MatrixFunctions/arm_mat_sub_f32.c ****   @param[in]     pSrcA      points to the first input matrix structure
  54:./Libraries/CMSIS/DSP/Source/MatrixFunctions/arm_mat_sub_f32.c ****   @param[in]     pSrcB      points to the second input matrix structure
  55:./Libraries/CMSIS/DSP/Source/MatrixFunctions/arm_mat_sub_f32.c ****   @param[out]    pDst       points to output matrix structure
  56:./Libraries/CMSIS/DSP/Source/MatrixFunctions/arm_mat_sub_f32.c ****   @return        execution status
  57:./Libraries/CMSIS/DSP/Source/MatrixFunctions/arm_mat_sub_f32.c ****                    - \ref ARM_MATH_SUCCESS       : Operation successful
  58:./Libraries/CMSIS/DSP/Source/MatrixFunctions/arm_mat_sub_f32.c ****                    - \ref ARM_MATH_SIZE_MISMATCH : Matrix size check failed
  59:./Libraries/CMSIS/DSP/Source/MatrixFunctions/arm_mat_sub_f32.c ****  */
  60:./Libraries/CMSIS/DSP/Source/MatrixFunctions/arm_mat_sub_f32.c **** 
  61:./Libraries/CMSIS/DSP/Source/MatrixFunctions/arm_mat_sub_f32.c **** #if defined(ARM_MATH_NEON)
  62:./Libraries/CMSIS/DSP/Source/MatrixFunctions/arm_mat_sub_f32.c **** arm_status arm_mat_sub_f32(
  63:./Libraries/CMSIS/DSP/Source/MatrixFunctions/arm_mat_sub_f32.c ****   const arm_matrix_instance_f32 * pSrcA,
  64:./Libraries/CMSIS/DSP/Source/MatrixFunctions/arm_mat_sub_f32.c ****   const arm_matrix_instance_f32 * pSrcB,
  65:./Libraries/CMSIS/DSP/Source/MatrixFunctions/arm_mat_sub_f32.c ****   arm_matrix_instance_f32 * pDst)
  66:./Libraries/CMSIS/DSP/Source/MatrixFunctions/arm_mat_sub_f32.c **** {
  67:./Libraries/CMSIS/DSP/Source/MatrixFunctions/arm_mat_sub_f32.c ****   float32_t *pIn1 = pSrcA->pData;                /* input data matrix pointer A */
  68:./Libraries/CMSIS/DSP/Source/MatrixFunctions/arm_mat_sub_f32.c ****   float32_t *pIn2 = pSrcB->pData;                /* input data matrix pointer B */
  69:./Libraries/CMSIS/DSP/Source/MatrixFunctions/arm_mat_sub_f32.c ****   float32_t *pOut = pDst->pData;                 /* output data matrix pointer  */
  70:./Libraries/CMSIS/DSP/Source/MatrixFunctions/arm_mat_sub_f32.c **** 
  71:./Libraries/CMSIS/DSP/Source/MatrixFunctions/arm_mat_sub_f32.c **** 
  72:./Libraries/CMSIS/DSP/Source/MatrixFunctions/arm_mat_sub_f32.c ****   float32_t inA1, inA2, inB1, inB2, out1, out2;  /* temporary variables */
  73:./Libraries/CMSIS/DSP/Source/MatrixFunctions/arm_mat_sub_f32.c **** 
  74:./Libraries/CMSIS/DSP/Source/MatrixFunctions/arm_mat_sub_f32.c **** 
  75:./Libraries/CMSIS/DSP/Source/MatrixFunctions/arm_mat_sub_f32.c ****   uint32_t numSamples;                           /* total number of elements in the matrix  */
  76:./Libraries/CMSIS/DSP/Source/MatrixFunctions/arm_mat_sub_f32.c ****   uint32_t blkCnt;                               /* loop counters */
  77:./Libraries/CMSIS/DSP/Source/MatrixFunctions/arm_mat_sub_f32.c ****   arm_status status;                             /* status of matrix subtraction */
  78:./Libraries/CMSIS/DSP/Source/MatrixFunctions/arm_mat_sub_f32.c **** 
  79:./Libraries/CMSIS/DSP/Source/MatrixFunctions/arm_mat_sub_f32.c **** #ifdef ARM_MATH_MATRIX_CHECK
  80:./Libraries/CMSIS/DSP/Source/MatrixFunctions/arm_mat_sub_f32.c ****   /* Check for matrix mismatch condition */
  81:./Libraries/CMSIS/DSP/Source/MatrixFunctions/arm_mat_sub_f32.c ****   if ((pSrcA->numRows != pSrcB->numRows) ||
  82:./Libraries/CMSIS/DSP/Source/MatrixFunctions/arm_mat_sub_f32.c ****      (pSrcA->numCols != pSrcB->numCols) ||
  83:./Libraries/CMSIS/DSP/Source/MatrixFunctions/arm_mat_sub_f32.c ****      (pSrcA->numRows != pDst->numRows) || (pSrcA->numCols != pDst->numCols))
  84:./Libraries/CMSIS/DSP/Source/MatrixFunctions/arm_mat_sub_f32.c ****   {
  85:./Libraries/CMSIS/DSP/Source/MatrixFunctions/arm_mat_sub_f32.c ****     /* Set status as ARM_MATH_SIZE_MISMATCH */
  86:./Libraries/CMSIS/DSP/Source/MatrixFunctions/arm_mat_sub_f32.c ****     status = ARM_MATH_SIZE_MISMATCH;
  87:./Libraries/CMSIS/DSP/Source/MatrixFunctions/arm_mat_sub_f32.c ****   }
  88:./Libraries/CMSIS/DSP/Source/MatrixFunctions/arm_mat_sub_f32.c ****   else
ARM GAS  /tmp/ccHAlxMU.s 			page 3


  89:./Libraries/CMSIS/DSP/Source/MatrixFunctions/arm_mat_sub_f32.c **** #endif /*    #ifdef ARM_MATH_MATRIX_CHECK    */
  90:./Libraries/CMSIS/DSP/Source/MatrixFunctions/arm_mat_sub_f32.c ****   {
  91:./Libraries/CMSIS/DSP/Source/MatrixFunctions/arm_mat_sub_f32.c ****     float32x4_t vec1;
  92:./Libraries/CMSIS/DSP/Source/MatrixFunctions/arm_mat_sub_f32.c ****     float32x4_t vec2;
  93:./Libraries/CMSIS/DSP/Source/MatrixFunctions/arm_mat_sub_f32.c ****     float32x4_t res;
  94:./Libraries/CMSIS/DSP/Source/MatrixFunctions/arm_mat_sub_f32.c **** 
  95:./Libraries/CMSIS/DSP/Source/MatrixFunctions/arm_mat_sub_f32.c ****     /* Total number of samples in the input matrix */
  96:./Libraries/CMSIS/DSP/Source/MatrixFunctions/arm_mat_sub_f32.c ****     numSamples = (uint32_t) pSrcA->numRows * pSrcA->numCols;
  97:./Libraries/CMSIS/DSP/Source/MatrixFunctions/arm_mat_sub_f32.c **** 
  98:./Libraries/CMSIS/DSP/Source/MatrixFunctions/arm_mat_sub_f32.c ****     blkCnt = numSamples >> 2U;
  99:./Libraries/CMSIS/DSP/Source/MatrixFunctions/arm_mat_sub_f32.c **** 
 100:./Libraries/CMSIS/DSP/Source/MatrixFunctions/arm_mat_sub_f32.c ****     /* Compute 4 outputs at a time.
 101:./Libraries/CMSIS/DSP/Source/MatrixFunctions/arm_mat_sub_f32.c ****      ** a second loop below computes the remaining 1 to 3 samples. */
 102:./Libraries/CMSIS/DSP/Source/MatrixFunctions/arm_mat_sub_f32.c ****     while (blkCnt > 0U)
 103:./Libraries/CMSIS/DSP/Source/MatrixFunctions/arm_mat_sub_f32.c ****     {
 104:./Libraries/CMSIS/DSP/Source/MatrixFunctions/arm_mat_sub_f32.c ****       /* C(m,n) = A(m,n) - B(m,n) */
 105:./Libraries/CMSIS/DSP/Source/MatrixFunctions/arm_mat_sub_f32.c ****       /* Subtract and then store the results in the destination buffer. */
 106:./Libraries/CMSIS/DSP/Source/MatrixFunctions/arm_mat_sub_f32.c ****       /* Read values from source A */
 107:./Libraries/CMSIS/DSP/Source/MatrixFunctions/arm_mat_sub_f32.c ****       vec1 = vld1q_f32(pIn1);
 108:./Libraries/CMSIS/DSP/Source/MatrixFunctions/arm_mat_sub_f32.c ****       vec2 = vld1q_f32(pIn2);
 109:./Libraries/CMSIS/DSP/Source/MatrixFunctions/arm_mat_sub_f32.c ****       res = vsubq_f32(vec1, vec2);
 110:./Libraries/CMSIS/DSP/Source/MatrixFunctions/arm_mat_sub_f32.c ****       vst1q_f32(pOut, res);
 111:./Libraries/CMSIS/DSP/Source/MatrixFunctions/arm_mat_sub_f32.c **** 
 112:./Libraries/CMSIS/DSP/Source/MatrixFunctions/arm_mat_sub_f32.c ****       /* Update pointers to process next samples */
 113:./Libraries/CMSIS/DSP/Source/MatrixFunctions/arm_mat_sub_f32.c ****       pIn1 += 4U;
 114:./Libraries/CMSIS/DSP/Source/MatrixFunctions/arm_mat_sub_f32.c ****       pIn2 += 4U;
 115:./Libraries/CMSIS/DSP/Source/MatrixFunctions/arm_mat_sub_f32.c ****       pOut += 4U;
 116:./Libraries/CMSIS/DSP/Source/MatrixFunctions/arm_mat_sub_f32.c **** 
 117:./Libraries/CMSIS/DSP/Source/MatrixFunctions/arm_mat_sub_f32.c ****       /* Decrement the loop counter */
 118:./Libraries/CMSIS/DSP/Source/MatrixFunctions/arm_mat_sub_f32.c ****       blkCnt--;
 119:./Libraries/CMSIS/DSP/Source/MatrixFunctions/arm_mat_sub_f32.c ****     }
 120:./Libraries/CMSIS/DSP/Source/MatrixFunctions/arm_mat_sub_f32.c **** 
 121:./Libraries/CMSIS/DSP/Source/MatrixFunctions/arm_mat_sub_f32.c ****     /* If the numSamples is not a multiple of 4, compute any remaining output samples here.
 122:./Libraries/CMSIS/DSP/Source/MatrixFunctions/arm_mat_sub_f32.c ****      ** No loop unrolling is used. */
 123:./Libraries/CMSIS/DSP/Source/MatrixFunctions/arm_mat_sub_f32.c ****     blkCnt = numSamples % 0x4U;
 124:./Libraries/CMSIS/DSP/Source/MatrixFunctions/arm_mat_sub_f32.c **** 
 125:./Libraries/CMSIS/DSP/Source/MatrixFunctions/arm_mat_sub_f32.c **** 
 126:./Libraries/CMSIS/DSP/Source/MatrixFunctions/arm_mat_sub_f32.c ****     while (blkCnt > 0U)
 127:./Libraries/CMSIS/DSP/Source/MatrixFunctions/arm_mat_sub_f32.c ****     {
 128:./Libraries/CMSIS/DSP/Source/MatrixFunctions/arm_mat_sub_f32.c ****       /* C(m,n) = A(m,n) - B(m,n) */
 129:./Libraries/CMSIS/DSP/Source/MatrixFunctions/arm_mat_sub_f32.c ****       /* Subtract and then store the results in the destination buffer. */
 130:./Libraries/CMSIS/DSP/Source/MatrixFunctions/arm_mat_sub_f32.c ****       *pOut++ = (*pIn1++) - (*pIn2++);
 131:./Libraries/CMSIS/DSP/Source/MatrixFunctions/arm_mat_sub_f32.c **** 
 132:./Libraries/CMSIS/DSP/Source/MatrixFunctions/arm_mat_sub_f32.c ****       /* Decrement the loop counter */
 133:./Libraries/CMSIS/DSP/Source/MatrixFunctions/arm_mat_sub_f32.c ****       blkCnt--;
 134:./Libraries/CMSIS/DSP/Source/MatrixFunctions/arm_mat_sub_f32.c ****     }
 135:./Libraries/CMSIS/DSP/Source/MatrixFunctions/arm_mat_sub_f32.c **** 
 136:./Libraries/CMSIS/DSP/Source/MatrixFunctions/arm_mat_sub_f32.c ****     /* Set status as ARM_MATH_SUCCESS */
 137:./Libraries/CMSIS/DSP/Source/MatrixFunctions/arm_mat_sub_f32.c ****     status = ARM_MATH_SUCCESS;
 138:./Libraries/CMSIS/DSP/Source/MatrixFunctions/arm_mat_sub_f32.c ****   }
 139:./Libraries/CMSIS/DSP/Source/MatrixFunctions/arm_mat_sub_f32.c **** 
 140:./Libraries/CMSIS/DSP/Source/MatrixFunctions/arm_mat_sub_f32.c ****   /* Return to application */
 141:./Libraries/CMSIS/DSP/Source/MatrixFunctions/arm_mat_sub_f32.c ****   return (status);
 142:./Libraries/CMSIS/DSP/Source/MatrixFunctions/arm_mat_sub_f32.c **** }
 143:./Libraries/CMSIS/DSP/Source/MatrixFunctions/arm_mat_sub_f32.c **** #else
 144:./Libraries/CMSIS/DSP/Source/MatrixFunctions/arm_mat_sub_f32.c **** arm_status arm_mat_sub_f32(
 145:./Libraries/CMSIS/DSP/Source/MatrixFunctions/arm_mat_sub_f32.c ****   const arm_matrix_instance_f32 * pSrcA,
ARM GAS  /tmp/ccHAlxMU.s 			page 4


 146:./Libraries/CMSIS/DSP/Source/MatrixFunctions/arm_mat_sub_f32.c ****   const arm_matrix_instance_f32 * pSrcB,
 147:./Libraries/CMSIS/DSP/Source/MatrixFunctions/arm_mat_sub_f32.c ****         arm_matrix_instance_f32 * pDst)
 148:./Libraries/CMSIS/DSP/Source/MatrixFunctions/arm_mat_sub_f32.c **** {
  28              		.loc 1 148 1
  29              		.cfi_startproc
  30              		@ args = 0, pretend = 0, frame = 40
  31              		@ frame_needed = 1, uses_anonymous_args = 0
  32              		@ link register save eliminated.
  33 0000 80B4     		push	{r7}
  34              	.LCFI0:
  35              		.cfi_def_cfa_offset 4
  36              		.cfi_offset 7, -4
  37 0002 8BB0     		sub	sp, sp, #44
  38              	.LCFI1:
  39              		.cfi_def_cfa_offset 48
  40 0004 00AF     		add	r7, sp, #0
  41              	.LCFI2:
  42              		.cfi_def_cfa_register 7
  43 0006 F860     		str	r0, [r7, #12]
  44 0008 B960     		str	r1, [r7, #8]
  45 000a 7A60     		str	r2, [r7, #4]
 149:./Libraries/CMSIS/DSP/Source/MatrixFunctions/arm_mat_sub_f32.c ****   float32_t *pInA = pSrcA->pData;                /* input data matrix pointer A */
  46              		.loc 1 149 14
  47 000c FB68     		ldr	r3, [r7, #12]
  48 000e 5B68     		ldr	r3, [r3, #4]
  49 0010 7B62     		str	r3, [r7, #36]
 150:./Libraries/CMSIS/DSP/Source/MatrixFunctions/arm_mat_sub_f32.c ****   float32_t *pInB = pSrcB->pData;                /* input data matrix pointer B */
  50              		.loc 1 150 14
  51 0012 BB68     		ldr	r3, [r7, #8]
  52 0014 5B68     		ldr	r3, [r3, #4]
  53 0016 3B62     		str	r3, [r7, #32]
 151:./Libraries/CMSIS/DSP/Source/MatrixFunctions/arm_mat_sub_f32.c ****   float32_t *pOut = pDst->pData;                 /* output data matrix pointer */
  54              		.loc 1 151 14
  55 0018 7B68     		ldr	r3, [r7, #4]
  56 001a 5B68     		ldr	r3, [r3, #4]
  57 001c FB61     		str	r3, [r7, #28]
 152:./Libraries/CMSIS/DSP/Source/MatrixFunctions/arm_mat_sub_f32.c **** 
 153:./Libraries/CMSIS/DSP/Source/MatrixFunctions/arm_mat_sub_f32.c ****   uint32_t numSamples;                           /* total number of elements in the matrix */
 154:./Libraries/CMSIS/DSP/Source/MatrixFunctions/arm_mat_sub_f32.c ****   uint32_t blkCnt;                               /* loop counters */
 155:./Libraries/CMSIS/DSP/Source/MatrixFunctions/arm_mat_sub_f32.c ****   arm_status status;                             /* status of matrix subtraction */
 156:./Libraries/CMSIS/DSP/Source/MatrixFunctions/arm_mat_sub_f32.c **** 
 157:./Libraries/CMSIS/DSP/Source/MatrixFunctions/arm_mat_sub_f32.c **** #ifdef ARM_MATH_MATRIX_CHECK
 158:./Libraries/CMSIS/DSP/Source/MatrixFunctions/arm_mat_sub_f32.c **** 
 159:./Libraries/CMSIS/DSP/Source/MatrixFunctions/arm_mat_sub_f32.c ****   /* Check for matrix mismatch condition */
 160:./Libraries/CMSIS/DSP/Source/MatrixFunctions/arm_mat_sub_f32.c ****   if ((pSrcA->numRows != pSrcB->numRows) ||
 161:./Libraries/CMSIS/DSP/Source/MatrixFunctions/arm_mat_sub_f32.c ****       (pSrcA->numCols != pSrcB->numCols) ||
 162:./Libraries/CMSIS/DSP/Source/MatrixFunctions/arm_mat_sub_f32.c ****       (pSrcA->numRows != pDst->numRows)  ||
 163:./Libraries/CMSIS/DSP/Source/MatrixFunctions/arm_mat_sub_f32.c ****       (pSrcA->numCols != pDst->numCols)    )
 164:./Libraries/CMSIS/DSP/Source/MatrixFunctions/arm_mat_sub_f32.c ****   {
 165:./Libraries/CMSIS/DSP/Source/MatrixFunctions/arm_mat_sub_f32.c ****     /* Set status as ARM_MATH_SIZE_MISMATCH */
 166:./Libraries/CMSIS/DSP/Source/MatrixFunctions/arm_mat_sub_f32.c ****     status = ARM_MATH_SIZE_MISMATCH;
 167:./Libraries/CMSIS/DSP/Source/MatrixFunctions/arm_mat_sub_f32.c ****   }
 168:./Libraries/CMSIS/DSP/Source/MatrixFunctions/arm_mat_sub_f32.c ****   else
 169:./Libraries/CMSIS/DSP/Source/MatrixFunctions/arm_mat_sub_f32.c **** 
 170:./Libraries/CMSIS/DSP/Source/MatrixFunctions/arm_mat_sub_f32.c **** #endif /* #ifdef ARM_MATH_MATRIX_CHECK */
 171:./Libraries/CMSIS/DSP/Source/MatrixFunctions/arm_mat_sub_f32.c **** 
 172:./Libraries/CMSIS/DSP/Source/MatrixFunctions/arm_mat_sub_f32.c ****   {
ARM GAS  /tmp/ccHAlxMU.s 			page 5


 173:./Libraries/CMSIS/DSP/Source/MatrixFunctions/arm_mat_sub_f32.c ****     /* Total number of samples in input matrix */
 174:./Libraries/CMSIS/DSP/Source/MatrixFunctions/arm_mat_sub_f32.c ****     numSamples = (uint32_t) pSrcA->numRows * pSrcA->numCols;
  58              		.loc 1 174 34
  59 001e FB68     		ldr	r3, [r7, #12]
  60 0020 1B88     		ldrh	r3, [r3]
  61              		.loc 1 174 18
  62 0022 1A46     		mov	r2, r3
  63              		.loc 1 174 51
  64 0024 FB68     		ldr	r3, [r7, #12]
  65 0026 5B88     		ldrh	r3, [r3, #2]
  66              		.loc 1 174 16
  67 0028 03FB02F3 		mul	r3, r3, r2
  68 002c 7B61     		str	r3, [r7, #20]
 175:./Libraries/CMSIS/DSP/Source/MatrixFunctions/arm_mat_sub_f32.c **** 
 176:./Libraries/CMSIS/DSP/Source/MatrixFunctions/arm_mat_sub_f32.c **** #if defined (ARM_MATH_LOOPUNROLL)
 177:./Libraries/CMSIS/DSP/Source/MatrixFunctions/arm_mat_sub_f32.c **** 
 178:./Libraries/CMSIS/DSP/Source/MatrixFunctions/arm_mat_sub_f32.c ****     /* Loop unrolling: Compute 4 outputs at a time */
 179:./Libraries/CMSIS/DSP/Source/MatrixFunctions/arm_mat_sub_f32.c ****     blkCnt = numSamples >> 2U;
 180:./Libraries/CMSIS/DSP/Source/MatrixFunctions/arm_mat_sub_f32.c **** 
 181:./Libraries/CMSIS/DSP/Source/MatrixFunctions/arm_mat_sub_f32.c ****     while (blkCnt > 0U)
 182:./Libraries/CMSIS/DSP/Source/MatrixFunctions/arm_mat_sub_f32.c ****     {
 183:./Libraries/CMSIS/DSP/Source/MatrixFunctions/arm_mat_sub_f32.c ****       /* C(m,n) = A(m,n) - B(m,n) */
 184:./Libraries/CMSIS/DSP/Source/MatrixFunctions/arm_mat_sub_f32.c **** 
 185:./Libraries/CMSIS/DSP/Source/MatrixFunctions/arm_mat_sub_f32.c ****       /* Subtract and store result in destination buffer. */
 186:./Libraries/CMSIS/DSP/Source/MatrixFunctions/arm_mat_sub_f32.c ****       *pOut++ = (*pInA++) - (*pInB++);
 187:./Libraries/CMSIS/DSP/Source/MatrixFunctions/arm_mat_sub_f32.c ****       *pOut++ = (*pInA++) - (*pInB++);
 188:./Libraries/CMSIS/DSP/Source/MatrixFunctions/arm_mat_sub_f32.c ****       *pOut++ = (*pInA++) - (*pInB++);
 189:./Libraries/CMSIS/DSP/Source/MatrixFunctions/arm_mat_sub_f32.c ****       *pOut++ = (*pInA++) - (*pInB++);
 190:./Libraries/CMSIS/DSP/Source/MatrixFunctions/arm_mat_sub_f32.c **** 
 191:./Libraries/CMSIS/DSP/Source/MatrixFunctions/arm_mat_sub_f32.c ****       /* Decrement loop counter */
 192:./Libraries/CMSIS/DSP/Source/MatrixFunctions/arm_mat_sub_f32.c ****       blkCnt--;
 193:./Libraries/CMSIS/DSP/Source/MatrixFunctions/arm_mat_sub_f32.c ****     }
 194:./Libraries/CMSIS/DSP/Source/MatrixFunctions/arm_mat_sub_f32.c **** 
 195:./Libraries/CMSIS/DSP/Source/MatrixFunctions/arm_mat_sub_f32.c ****     /* Loop unrolling: Compute remaining outputs */
 196:./Libraries/CMSIS/DSP/Source/MatrixFunctions/arm_mat_sub_f32.c ****     blkCnt = numSamples % 0x4U;
 197:./Libraries/CMSIS/DSP/Source/MatrixFunctions/arm_mat_sub_f32.c **** 
 198:./Libraries/CMSIS/DSP/Source/MatrixFunctions/arm_mat_sub_f32.c **** #else
 199:./Libraries/CMSIS/DSP/Source/MatrixFunctions/arm_mat_sub_f32.c **** 
 200:./Libraries/CMSIS/DSP/Source/MatrixFunctions/arm_mat_sub_f32.c ****     /* Initialize blkCnt with number of samples */
 201:./Libraries/CMSIS/DSP/Source/MatrixFunctions/arm_mat_sub_f32.c ****     blkCnt = numSamples;
  69              		.loc 1 201 12
  70 002e 7B69     		ldr	r3, [r7, #20]
  71 0030 BB61     		str	r3, [r7, #24]
 202:./Libraries/CMSIS/DSP/Source/MatrixFunctions/arm_mat_sub_f32.c **** 
 203:./Libraries/CMSIS/DSP/Source/MatrixFunctions/arm_mat_sub_f32.c **** #endif /* #if defined (ARM_MATH_LOOPUNROLL) */
 204:./Libraries/CMSIS/DSP/Source/MatrixFunctions/arm_mat_sub_f32.c **** 
 205:./Libraries/CMSIS/DSP/Source/MatrixFunctions/arm_mat_sub_f32.c ****     while (blkCnt > 0U)
  72              		.loc 1 205 11
  73 0032 13E0     		b	.L2
  74              	.L3:
 206:./Libraries/CMSIS/DSP/Source/MatrixFunctions/arm_mat_sub_f32.c ****     {
 207:./Libraries/CMSIS/DSP/Source/MatrixFunctions/arm_mat_sub_f32.c ****       /* C(m,n) = A(m,n) - B(m,n) */
 208:./Libraries/CMSIS/DSP/Source/MatrixFunctions/arm_mat_sub_f32.c **** 
 209:./Libraries/CMSIS/DSP/Source/MatrixFunctions/arm_mat_sub_f32.c ****       /* Subtract and store result in destination buffer. */
 210:./Libraries/CMSIS/DSP/Source/MatrixFunctions/arm_mat_sub_f32.c ****       *pOut++ = (*pInA++) - (*pInB++);
  75              		.loc 1 210 23
  76 0034 7B6A     		ldr	r3, [r7, #36]
ARM GAS  /tmp/ccHAlxMU.s 			page 6


  77 0036 1A1D     		adds	r2, r3, #4
  78 0038 7A62     		str	r2, [r7, #36]
  79              		.loc 1 210 18
  80 003a 93ED007A 		vldr.32	s14, [r3]
  81              		.loc 1 210 35
  82 003e 3B6A     		ldr	r3, [r7, #32]
  83 0040 1A1D     		adds	r2, r3, #4
  84 0042 3A62     		str	r2, [r7, #32]
  85              		.loc 1 210 30
  86 0044 D3ED007A 		vldr.32	s15, [r3]
  87              		.loc 1 210 12
  88 0048 FB69     		ldr	r3, [r7, #28]
  89 004a 1A1D     		adds	r2, r3, #4
  90 004c FA61     		str	r2, [r7, #28]
  91              		.loc 1 210 27
  92 004e 77EE677A 		vsub.f32	s15, s14, s15
  93              		.loc 1 210 15
  94 0052 C3ED007A 		vstr.32	s15, [r3]
 211:./Libraries/CMSIS/DSP/Source/MatrixFunctions/arm_mat_sub_f32.c **** 
 212:./Libraries/CMSIS/DSP/Source/MatrixFunctions/arm_mat_sub_f32.c ****       /* Decrement loop counter */
 213:./Libraries/CMSIS/DSP/Source/MatrixFunctions/arm_mat_sub_f32.c ****       blkCnt--;
  95              		.loc 1 213 13
  96 0056 BB69     		ldr	r3, [r7, #24]
  97 0058 013B     		subs	r3, r3, #1
  98 005a BB61     		str	r3, [r7, #24]
  99              	.L2:
 205:./Libraries/CMSIS/DSP/Source/MatrixFunctions/arm_mat_sub_f32.c ****     {
 100              		.loc 1 205 11
 101 005c BB69     		ldr	r3, [r7, #24]
 102 005e 002B     		cmp	r3, #0
 103 0060 E8D1     		bne	.L3
 214:./Libraries/CMSIS/DSP/Source/MatrixFunctions/arm_mat_sub_f32.c ****     }
 215:./Libraries/CMSIS/DSP/Source/MatrixFunctions/arm_mat_sub_f32.c **** 
 216:./Libraries/CMSIS/DSP/Source/MatrixFunctions/arm_mat_sub_f32.c ****     /* Set status as ARM_MATH_SUCCESS */
 217:./Libraries/CMSIS/DSP/Source/MatrixFunctions/arm_mat_sub_f32.c ****     status = ARM_MATH_SUCCESS;
 104              		.loc 1 217 12
 105 0062 0023     		movs	r3, #0
 106 0064 FB74     		strb	r3, [r7, #19]
 218:./Libraries/CMSIS/DSP/Source/MatrixFunctions/arm_mat_sub_f32.c ****   }
 219:./Libraries/CMSIS/DSP/Source/MatrixFunctions/arm_mat_sub_f32.c **** 
 220:./Libraries/CMSIS/DSP/Source/MatrixFunctions/arm_mat_sub_f32.c ****   /* Return to application */
 221:./Libraries/CMSIS/DSP/Source/MatrixFunctions/arm_mat_sub_f32.c ****   return (status);
 107              		.loc 1 221 10
 108 0066 97F91330 		ldrsb	r3, [r7, #19]
 222:./Libraries/CMSIS/DSP/Source/MatrixFunctions/arm_mat_sub_f32.c **** }
 109              		.loc 1 222 1
 110 006a 1846     		mov	r0, r3
 111 006c 2C37     		adds	r7, r7, #44
 112              	.LCFI3:
 113              		.cfi_def_cfa_offset 4
 114 006e BD46     		mov	sp, r7
 115              	.LCFI4:
 116              		.cfi_def_cfa_register 13
 117              		@ sp needed
 118 0070 5DF8047B 		ldr	r7, [sp], #4
 119              	.LCFI5:
 120              		.cfi_restore 7
ARM GAS  /tmp/ccHAlxMU.s 			page 7


 121              		.cfi_def_cfa_offset 0
 122 0074 7047     		bx	lr
 123              		.cfi_endproc
 124              	.LFE145:
 126              		.text
 127              	.Letext0:
 128              		.file 2 "/usr/lib/gcc/arm-none-eabi/9.2.1/include/stdint.h"
 129              		.file 3 "/usr/lib/gcc/arm-none-eabi/9.2.1/include/stddef.h"
 130              		.file 4 "/usr/include/newlib/sys/_types.h"
 131              		.file 5 "/usr/include/newlib/sys/reent.h"
 132              		.file 6 "/usr/include/newlib/sys/lock.h"
 133              		.file 7 "/usr/include/newlib/math.h"
 134              		.file 8 "./Libraries/CMSIS/DSP/Include/arm_math.h"
ARM GAS  /tmp/ccHAlxMU.s 			page 8

