ARM GAS  /tmp/ccWQ1xqc.s 			page 1


   1              		.cpu cortex-m7
   2              		.eabi_attribute 28, 1
   3              		.eabi_attribute 20, 1
   4              		.eabi_attribute 21, 1
   5              		.eabi_attribute 23, 3
   6              		.eabi_attribute 24, 1
   7              		.eabi_attribute 25, 1
   8              		.eabi_attribute 26, 1
   9              		.eabi_attribute 30, 6
  10              		.eabi_attribute 34, 1
  11              		.eabi_attribute 18, 4
  12              		.file	"arm_rfft_fast_init_f32.c"
  13              		.text
  14              	.Ltext0:
  15              		.cfi_sections	.debug_frame
  16              		.section	.text.arm_rfft_32_fast_init_f32,"ax",%progbits
  17              		.align	1
  18              		.global	arm_rfft_32_fast_init_f32
  19              		.arch armv7e-m
  20              		.syntax unified
  21              		.thumb
  22              		.thumb_func
  23              		.fpu fpv5-d16
  25              	arm_rfft_32_fast_init_f32:
  26              	.LFB145:
  27              		.file 1 "./Libraries/CMSIS/DSP/Source/TransformFunctions/arm_rfft_fast_init_f32.c"
   1:./Libraries/CMSIS/DSP/Source/TransformFunctions/arm_rfft_fast_init_f32.c **** /* ----------------------------------------------------------------------
   2:./Libraries/CMSIS/DSP/Source/TransformFunctions/arm_rfft_fast_init_f32.c ****  * Project:      CMSIS DSP Library
   3:./Libraries/CMSIS/DSP/Source/TransformFunctions/arm_rfft_fast_init_f32.c ****  * Title:        arm_cfft_init_f32.c
   4:./Libraries/CMSIS/DSP/Source/TransformFunctions/arm_rfft_fast_init_f32.c ****  * Description:  Split Radix Decimation in Frequency CFFT Floating point processing function
   5:./Libraries/CMSIS/DSP/Source/TransformFunctions/arm_rfft_fast_init_f32.c ****  *
   6:./Libraries/CMSIS/DSP/Source/TransformFunctions/arm_rfft_fast_init_f32.c ****  * $Date:        18. March 2019
   7:./Libraries/CMSIS/DSP/Source/TransformFunctions/arm_rfft_fast_init_f32.c ****  * $Revision:    V1.6.0
   8:./Libraries/CMSIS/DSP/Source/TransformFunctions/arm_rfft_fast_init_f32.c ****  *
   9:./Libraries/CMSIS/DSP/Source/TransformFunctions/arm_rfft_fast_init_f32.c ****  * Target Processor: Cortex-M cores
  10:./Libraries/CMSIS/DSP/Source/TransformFunctions/arm_rfft_fast_init_f32.c ****  * -------------------------------------------------------------------- */
  11:./Libraries/CMSIS/DSP/Source/TransformFunctions/arm_rfft_fast_init_f32.c **** /*
  12:./Libraries/CMSIS/DSP/Source/TransformFunctions/arm_rfft_fast_init_f32.c ****  * Copyright (C) 2010-2019 ARM Limited or its affiliates. All rights reserved.
  13:./Libraries/CMSIS/DSP/Source/TransformFunctions/arm_rfft_fast_init_f32.c ****  *
  14:./Libraries/CMSIS/DSP/Source/TransformFunctions/arm_rfft_fast_init_f32.c ****  * SPDX-License-Identifier: Apache-2.0
  15:./Libraries/CMSIS/DSP/Source/TransformFunctions/arm_rfft_fast_init_f32.c ****  *
  16:./Libraries/CMSIS/DSP/Source/TransformFunctions/arm_rfft_fast_init_f32.c ****  * Licensed under the Apache License, Version 2.0 (the License); you may
  17:./Libraries/CMSIS/DSP/Source/TransformFunctions/arm_rfft_fast_init_f32.c ****  * not use this file except in compliance with the License.
  18:./Libraries/CMSIS/DSP/Source/TransformFunctions/arm_rfft_fast_init_f32.c ****  * You may obtain a copy of the License at
  19:./Libraries/CMSIS/DSP/Source/TransformFunctions/arm_rfft_fast_init_f32.c ****  *
  20:./Libraries/CMSIS/DSP/Source/TransformFunctions/arm_rfft_fast_init_f32.c ****  * www.apache.org/licenses/LICENSE-2.0
  21:./Libraries/CMSIS/DSP/Source/TransformFunctions/arm_rfft_fast_init_f32.c ****  *
  22:./Libraries/CMSIS/DSP/Source/TransformFunctions/arm_rfft_fast_init_f32.c ****  * Unless required by applicable law or agreed to in writing, software
  23:./Libraries/CMSIS/DSP/Source/TransformFunctions/arm_rfft_fast_init_f32.c ****  * distributed under the License is distributed on an AS IS BASIS, WITHOUT
  24:./Libraries/CMSIS/DSP/Source/TransformFunctions/arm_rfft_fast_init_f32.c ****  * WARRANTIES OR CONDITIONS OF ANY KIND, either express or implied.
  25:./Libraries/CMSIS/DSP/Source/TransformFunctions/arm_rfft_fast_init_f32.c ****  * See the License for the specific language governing permissions and
  26:./Libraries/CMSIS/DSP/Source/TransformFunctions/arm_rfft_fast_init_f32.c ****  * limitations under the License.
  27:./Libraries/CMSIS/DSP/Source/TransformFunctions/arm_rfft_fast_init_f32.c ****  */
  28:./Libraries/CMSIS/DSP/Source/TransformFunctions/arm_rfft_fast_init_f32.c **** 
  29:./Libraries/CMSIS/DSP/Source/TransformFunctions/arm_rfft_fast_init_f32.c **** #include "arm_math.h"
  30:./Libraries/CMSIS/DSP/Source/TransformFunctions/arm_rfft_fast_init_f32.c **** #include "arm_common_tables.h"
  31:./Libraries/CMSIS/DSP/Source/TransformFunctions/arm_rfft_fast_init_f32.c **** 
ARM GAS  /tmp/ccWQ1xqc.s 			page 2


  32:./Libraries/CMSIS/DSP/Source/TransformFunctions/arm_rfft_fast_init_f32.c **** /**
  33:./Libraries/CMSIS/DSP/Source/TransformFunctions/arm_rfft_fast_init_f32.c ****   @ingroup groupTransforms
  34:./Libraries/CMSIS/DSP/Source/TransformFunctions/arm_rfft_fast_init_f32.c ****  */
  35:./Libraries/CMSIS/DSP/Source/TransformFunctions/arm_rfft_fast_init_f32.c **** 
  36:./Libraries/CMSIS/DSP/Source/TransformFunctions/arm_rfft_fast_init_f32.c **** /**
  37:./Libraries/CMSIS/DSP/Source/TransformFunctions/arm_rfft_fast_init_f32.c ****   @addtogroup RealFFT
  38:./Libraries/CMSIS/DSP/Source/TransformFunctions/arm_rfft_fast_init_f32.c ****   @{
  39:./Libraries/CMSIS/DSP/Source/TransformFunctions/arm_rfft_fast_init_f32.c ****  */
  40:./Libraries/CMSIS/DSP/Source/TransformFunctions/arm_rfft_fast_init_f32.c **** 
  41:./Libraries/CMSIS/DSP/Source/TransformFunctions/arm_rfft_fast_init_f32.c **** #if !defined(ARM_DSP_CONFIG_TABLES) || defined(ARM_ALL_FFT_TABLES) || (defined(ARM_TABLE_TWIDDLECOE
  42:./Libraries/CMSIS/DSP/Source/TransformFunctions/arm_rfft_fast_init_f32.c **** 
  43:./Libraries/CMSIS/DSP/Source/TransformFunctions/arm_rfft_fast_init_f32.c **** /**
  44:./Libraries/CMSIS/DSP/Source/TransformFunctions/arm_rfft_fast_init_f32.c ****   @brief         Initialization function for the 32pt floating-point real FFT.
  45:./Libraries/CMSIS/DSP/Source/TransformFunctions/arm_rfft_fast_init_f32.c ****   @param[in,out] S  points to an arm_rfft_fast_instance_f32 structure
  46:./Libraries/CMSIS/DSP/Source/TransformFunctions/arm_rfft_fast_init_f32.c ****   @return        execution status
  47:./Libraries/CMSIS/DSP/Source/TransformFunctions/arm_rfft_fast_init_f32.c ****                    - \ref ARM_MATH_SUCCESS        : Operation successful
  48:./Libraries/CMSIS/DSP/Source/TransformFunctions/arm_rfft_fast_init_f32.c ****                    - \ref ARM_MATH_ARGUMENT_ERROR : an error is detected
  49:./Libraries/CMSIS/DSP/Source/TransformFunctions/arm_rfft_fast_init_f32.c ****  */
  50:./Libraries/CMSIS/DSP/Source/TransformFunctions/arm_rfft_fast_init_f32.c **** 
  51:./Libraries/CMSIS/DSP/Source/TransformFunctions/arm_rfft_fast_init_f32.c **** arm_status arm_rfft_32_fast_init_f32( arm_rfft_fast_instance_f32 * S ) {
  28              		.loc 1 51 72
  29              		.cfi_startproc
  30              		@ args = 0, pretend = 0, frame = 16
  31              		@ frame_needed = 1, uses_anonymous_args = 0
  32              		@ link register save eliminated.
  33 0000 80B4     		push	{r7}
  34              	.LCFI0:
  35              		.cfi_def_cfa_offset 4
  36              		.cfi_offset 7, -4
  37 0002 85B0     		sub	sp, sp, #20
  38              	.LCFI1:
  39              		.cfi_def_cfa_offset 24
  40 0004 00AF     		add	r7, sp, #0
  41              	.LCFI2:
  42              		.cfi_def_cfa_register 7
  43 0006 7860     		str	r0, [r7, #4]
  52:./Libraries/CMSIS/DSP/Source/TransformFunctions/arm_rfft_fast_init_f32.c **** 
  53:./Libraries/CMSIS/DSP/Source/TransformFunctions/arm_rfft_fast_init_f32.c ****   arm_cfft_instance_f32 * Sint;
  54:./Libraries/CMSIS/DSP/Source/TransformFunctions/arm_rfft_fast_init_f32.c **** 
  55:./Libraries/CMSIS/DSP/Source/TransformFunctions/arm_rfft_fast_init_f32.c ****   if( !S ) return ARM_MATH_ARGUMENT_ERROR;
  44              		.loc 1 55 5
  45 0008 7B68     		ldr	r3, [r7, #4]
  46 000a 002B     		cmp	r3, #0
  47 000c 02D1     		bne	.L2
  48              		.loc 1 55 19 discriminator 1
  49 000e 4FF0FF33 		mov	r3, #-1
  50 0012 14E0     		b	.L3
  51              	.L2:
  56:./Libraries/CMSIS/DSP/Source/TransformFunctions/arm_rfft_fast_init_f32.c **** 
  57:./Libraries/CMSIS/DSP/Source/TransformFunctions/arm_rfft_fast_init_f32.c ****   Sint = &(S->Sint);
  52              		.loc 1 57 8
  53 0014 7B68     		ldr	r3, [r7, #4]
  54 0016 FB60     		str	r3, [r7, #12]
  58:./Libraries/CMSIS/DSP/Source/TransformFunctions/arm_rfft_fast_init_f32.c ****   Sint->fftLen = 16U;
  55              		.loc 1 58 16
  56 0018 FB68     		ldr	r3, [r7, #12]
  57 001a 1022     		movs	r2, #16
ARM GAS  /tmp/ccWQ1xqc.s 			page 3


  58 001c 1A80     		strh	r2, [r3]	@ movhi
  59:./Libraries/CMSIS/DSP/Source/TransformFunctions/arm_rfft_fast_init_f32.c ****   S->fftLenRFFT = 32U;
  59              		.loc 1 59 17
  60 001e 7B68     		ldr	r3, [r7, #4]
  61 0020 2022     		movs	r2, #32
  62 0022 1A82     		strh	r2, [r3, #16]	@ movhi
  60:./Libraries/CMSIS/DSP/Source/TransformFunctions/arm_rfft_fast_init_f32.c **** 
  61:./Libraries/CMSIS/DSP/Source/TransformFunctions/arm_rfft_fast_init_f32.c ****   Sint->bitRevLength = ARMBITREVINDEXTABLE_16_TABLE_LENGTH;
  63              		.loc 1 61 22
  64 0024 FB68     		ldr	r3, [r7, #12]
  65 0026 1422     		movs	r2, #20
  66 0028 9A81     		strh	r2, [r3, #12]	@ movhi
  62:./Libraries/CMSIS/DSP/Source/TransformFunctions/arm_rfft_fast_init_f32.c ****   Sint->pBitRevTable = (uint16_t *)armBitRevIndexTable16;
  67              		.loc 1 62 22
  68 002a FB68     		ldr	r3, [r7, #12]
  69 002c 074A     		ldr	r2, .L4
  70 002e 9A60     		str	r2, [r3, #8]
  63:./Libraries/CMSIS/DSP/Source/TransformFunctions/arm_rfft_fast_init_f32.c ****   Sint->pTwiddle     = (float32_t *) twiddleCoef_16;
  71              		.loc 1 63 22
  72 0030 FB68     		ldr	r3, [r7, #12]
  73 0032 074A     		ldr	r2, .L4+4
  74 0034 5A60     		str	r2, [r3, #4]
  64:./Libraries/CMSIS/DSP/Source/TransformFunctions/arm_rfft_fast_init_f32.c ****   S->pTwiddleRFFT    = (float32_t *) twiddleCoef_rfft_32;
  75              		.loc 1 64 22
  76 0036 7B68     		ldr	r3, [r7, #4]
  77 0038 064A     		ldr	r2, .L4+8
  78 003a 5A61     		str	r2, [r3, #20]
  65:./Libraries/CMSIS/DSP/Source/TransformFunctions/arm_rfft_fast_init_f32.c **** 
  66:./Libraries/CMSIS/DSP/Source/TransformFunctions/arm_rfft_fast_init_f32.c ****   return ARM_MATH_SUCCESS;
  79              		.loc 1 66 10
  80 003c 0023     		movs	r3, #0
  81              	.L3:
  67:./Libraries/CMSIS/DSP/Source/TransformFunctions/arm_rfft_fast_init_f32.c **** }
  82              		.loc 1 67 1
  83 003e 1846     		mov	r0, r3
  84 0040 1437     		adds	r7, r7, #20
  85              	.LCFI3:
  86              		.cfi_def_cfa_offset 4
  87 0042 BD46     		mov	sp, r7
  88              	.LCFI4:
  89              		.cfi_def_cfa_register 13
  90              		@ sp needed
  91 0044 5DF8047B 		ldr	r7, [sp], #4
  92              	.LCFI5:
  93              		.cfi_restore 7
  94              		.cfi_def_cfa_offset 0
  95 0048 7047     		bx	lr
  96              	.L5:
  97 004a 00BF     		.align	2
  98              	.L4:
  99 004c 00000000 		.word	armBitRevIndexTable16
 100 0050 00000000 		.word	twiddleCoef_16
 101 0054 00000000 		.word	twiddleCoef_rfft_32
 102              		.cfi_endproc
 103              	.LFE145:
 105              		.section	.text.arm_rfft_64_fast_init_f32,"ax",%progbits
 106              		.align	1
ARM GAS  /tmp/ccWQ1xqc.s 			page 4


 107              		.global	arm_rfft_64_fast_init_f32
 108              		.syntax unified
 109              		.thumb
 110              		.thumb_func
 111              		.fpu fpv5-d16
 113              	arm_rfft_64_fast_init_f32:
 114              	.LFB146:
  68:./Libraries/CMSIS/DSP/Source/TransformFunctions/arm_rfft_fast_init_f32.c **** #endif 
  69:./Libraries/CMSIS/DSP/Source/TransformFunctions/arm_rfft_fast_init_f32.c **** 
  70:./Libraries/CMSIS/DSP/Source/TransformFunctions/arm_rfft_fast_init_f32.c **** #if !defined(ARM_DSP_CONFIG_TABLES) || defined(ARM_ALL_FFT_TABLES) || (defined(ARM_TABLE_TWIDDLECOE
  71:./Libraries/CMSIS/DSP/Source/TransformFunctions/arm_rfft_fast_init_f32.c **** 
  72:./Libraries/CMSIS/DSP/Source/TransformFunctions/arm_rfft_fast_init_f32.c **** /**
  73:./Libraries/CMSIS/DSP/Source/TransformFunctions/arm_rfft_fast_init_f32.c ****   @brief         Initialization function for the 64pt floating-point real FFT.
  74:./Libraries/CMSIS/DSP/Source/TransformFunctions/arm_rfft_fast_init_f32.c ****   @param[in,out] S  points to an arm_rfft_fast_instance_f32 structure
  75:./Libraries/CMSIS/DSP/Source/TransformFunctions/arm_rfft_fast_init_f32.c ****   @return        execution status
  76:./Libraries/CMSIS/DSP/Source/TransformFunctions/arm_rfft_fast_init_f32.c ****                    - \ref ARM_MATH_SUCCESS        : Operation successful
  77:./Libraries/CMSIS/DSP/Source/TransformFunctions/arm_rfft_fast_init_f32.c ****                    - \ref ARM_MATH_ARGUMENT_ERROR : an error is detected
  78:./Libraries/CMSIS/DSP/Source/TransformFunctions/arm_rfft_fast_init_f32.c ****  */
  79:./Libraries/CMSIS/DSP/Source/TransformFunctions/arm_rfft_fast_init_f32.c **** 
  80:./Libraries/CMSIS/DSP/Source/TransformFunctions/arm_rfft_fast_init_f32.c **** arm_status arm_rfft_64_fast_init_f32( arm_rfft_fast_instance_f32 * S ) {
 115              		.loc 1 80 72
 116              		.cfi_startproc
 117              		@ args = 0, pretend = 0, frame = 16
 118              		@ frame_needed = 1, uses_anonymous_args = 0
 119              		@ link register save eliminated.
 120 0000 80B4     		push	{r7}
 121              	.LCFI6:
 122              		.cfi_def_cfa_offset 4
 123              		.cfi_offset 7, -4
 124 0002 85B0     		sub	sp, sp, #20
 125              	.LCFI7:
 126              		.cfi_def_cfa_offset 24
 127 0004 00AF     		add	r7, sp, #0
 128              	.LCFI8:
 129              		.cfi_def_cfa_register 7
 130 0006 7860     		str	r0, [r7, #4]
  81:./Libraries/CMSIS/DSP/Source/TransformFunctions/arm_rfft_fast_init_f32.c **** 
  82:./Libraries/CMSIS/DSP/Source/TransformFunctions/arm_rfft_fast_init_f32.c ****   arm_cfft_instance_f32 * Sint;
  83:./Libraries/CMSIS/DSP/Source/TransformFunctions/arm_rfft_fast_init_f32.c **** 
  84:./Libraries/CMSIS/DSP/Source/TransformFunctions/arm_rfft_fast_init_f32.c ****   if( !S ) return ARM_MATH_ARGUMENT_ERROR;
 131              		.loc 1 84 5
 132 0008 7B68     		ldr	r3, [r7, #4]
 133 000a 002B     		cmp	r3, #0
 134 000c 02D1     		bne	.L7
 135              		.loc 1 84 19 discriminator 1
 136 000e 4FF0FF33 		mov	r3, #-1
 137 0012 14E0     		b	.L8
 138              	.L7:
  85:./Libraries/CMSIS/DSP/Source/TransformFunctions/arm_rfft_fast_init_f32.c **** 
  86:./Libraries/CMSIS/DSP/Source/TransformFunctions/arm_rfft_fast_init_f32.c ****   Sint = &(S->Sint);
 139              		.loc 1 86 8
 140 0014 7B68     		ldr	r3, [r7, #4]
 141 0016 FB60     		str	r3, [r7, #12]
  87:./Libraries/CMSIS/DSP/Source/TransformFunctions/arm_rfft_fast_init_f32.c ****   Sint->fftLen = 32U;
 142              		.loc 1 87 16
 143 0018 FB68     		ldr	r3, [r7, #12]
 144 001a 2022     		movs	r2, #32
ARM GAS  /tmp/ccWQ1xqc.s 			page 5


 145 001c 1A80     		strh	r2, [r3]	@ movhi
  88:./Libraries/CMSIS/DSP/Source/TransformFunctions/arm_rfft_fast_init_f32.c ****   S->fftLenRFFT = 64U;
 146              		.loc 1 88 17
 147 001e 7B68     		ldr	r3, [r7, #4]
 148 0020 4022     		movs	r2, #64
 149 0022 1A82     		strh	r2, [r3, #16]	@ movhi
  89:./Libraries/CMSIS/DSP/Source/TransformFunctions/arm_rfft_fast_init_f32.c **** 
  90:./Libraries/CMSIS/DSP/Source/TransformFunctions/arm_rfft_fast_init_f32.c ****   Sint->bitRevLength = ARMBITREVINDEXTABLE_32_TABLE_LENGTH;
 150              		.loc 1 90 22
 151 0024 FB68     		ldr	r3, [r7, #12]
 152 0026 3022     		movs	r2, #48
 153 0028 9A81     		strh	r2, [r3, #12]	@ movhi
  91:./Libraries/CMSIS/DSP/Source/TransformFunctions/arm_rfft_fast_init_f32.c ****   Sint->pBitRevTable = (uint16_t *)armBitRevIndexTable32;
 154              		.loc 1 91 22
 155 002a FB68     		ldr	r3, [r7, #12]
 156 002c 074A     		ldr	r2, .L9
 157 002e 9A60     		str	r2, [r3, #8]
  92:./Libraries/CMSIS/DSP/Source/TransformFunctions/arm_rfft_fast_init_f32.c ****   Sint->pTwiddle     = (float32_t *) twiddleCoef_32;
 158              		.loc 1 92 22
 159 0030 FB68     		ldr	r3, [r7, #12]
 160 0032 074A     		ldr	r2, .L9+4
 161 0034 5A60     		str	r2, [r3, #4]
  93:./Libraries/CMSIS/DSP/Source/TransformFunctions/arm_rfft_fast_init_f32.c ****   S->pTwiddleRFFT    = (float32_t *) twiddleCoef_rfft_64;
 162              		.loc 1 93 22
 163 0036 7B68     		ldr	r3, [r7, #4]
 164 0038 064A     		ldr	r2, .L9+8
 165 003a 5A61     		str	r2, [r3, #20]
  94:./Libraries/CMSIS/DSP/Source/TransformFunctions/arm_rfft_fast_init_f32.c **** 
  95:./Libraries/CMSIS/DSP/Source/TransformFunctions/arm_rfft_fast_init_f32.c ****   return ARM_MATH_SUCCESS;
 166              		.loc 1 95 10
 167 003c 0023     		movs	r3, #0
 168              	.L8:
  96:./Libraries/CMSIS/DSP/Source/TransformFunctions/arm_rfft_fast_init_f32.c **** }
 169              		.loc 1 96 1
 170 003e 1846     		mov	r0, r3
 171 0040 1437     		adds	r7, r7, #20
 172              	.LCFI9:
 173              		.cfi_def_cfa_offset 4
 174 0042 BD46     		mov	sp, r7
 175              	.LCFI10:
 176              		.cfi_def_cfa_register 13
 177              		@ sp needed
 178 0044 5DF8047B 		ldr	r7, [sp], #4
 179              	.LCFI11:
 180              		.cfi_restore 7
 181              		.cfi_def_cfa_offset 0
 182 0048 7047     		bx	lr
 183              	.L10:
 184 004a 00BF     		.align	2
 185              	.L9:
 186 004c 00000000 		.word	armBitRevIndexTable32
 187 0050 00000000 		.word	twiddleCoef_32
 188 0054 00000000 		.word	twiddleCoef_rfft_64
 189              		.cfi_endproc
 190              	.LFE146:
 192              		.section	.text.arm_rfft_128_fast_init_f32,"ax",%progbits
 193              		.align	1
ARM GAS  /tmp/ccWQ1xqc.s 			page 6


 194              		.global	arm_rfft_128_fast_init_f32
 195              		.syntax unified
 196              		.thumb
 197              		.thumb_func
 198              		.fpu fpv5-d16
 200              	arm_rfft_128_fast_init_f32:
 201              	.LFB147:
  97:./Libraries/CMSIS/DSP/Source/TransformFunctions/arm_rfft_fast_init_f32.c **** #endif 
  98:./Libraries/CMSIS/DSP/Source/TransformFunctions/arm_rfft_fast_init_f32.c **** 
  99:./Libraries/CMSIS/DSP/Source/TransformFunctions/arm_rfft_fast_init_f32.c **** #if !defined(ARM_DSP_CONFIG_TABLES) || defined(ARM_ALL_FFT_TABLES) || (defined(ARM_TABLE_TWIDDLECOE
 100:./Libraries/CMSIS/DSP/Source/TransformFunctions/arm_rfft_fast_init_f32.c **** 
 101:./Libraries/CMSIS/DSP/Source/TransformFunctions/arm_rfft_fast_init_f32.c **** /**
 102:./Libraries/CMSIS/DSP/Source/TransformFunctions/arm_rfft_fast_init_f32.c ****   @brief         Initialization function for the 128pt floating-point real FFT.
 103:./Libraries/CMSIS/DSP/Source/TransformFunctions/arm_rfft_fast_init_f32.c ****   @param[in,out] S  points to an arm_rfft_fast_instance_f32 structure
 104:./Libraries/CMSIS/DSP/Source/TransformFunctions/arm_rfft_fast_init_f32.c ****   @return        execution status
 105:./Libraries/CMSIS/DSP/Source/TransformFunctions/arm_rfft_fast_init_f32.c ****                    - \ref ARM_MATH_SUCCESS        : Operation successful
 106:./Libraries/CMSIS/DSP/Source/TransformFunctions/arm_rfft_fast_init_f32.c ****                    - \ref ARM_MATH_ARGUMENT_ERROR : an error is detected
 107:./Libraries/CMSIS/DSP/Source/TransformFunctions/arm_rfft_fast_init_f32.c ****  */
 108:./Libraries/CMSIS/DSP/Source/TransformFunctions/arm_rfft_fast_init_f32.c **** 
 109:./Libraries/CMSIS/DSP/Source/TransformFunctions/arm_rfft_fast_init_f32.c **** arm_status arm_rfft_128_fast_init_f32( arm_rfft_fast_instance_f32 * S ) {
 202              		.loc 1 109 73
 203              		.cfi_startproc
 204              		@ args = 0, pretend = 0, frame = 16
 205              		@ frame_needed = 1, uses_anonymous_args = 0
 206              		@ link register save eliminated.
 207 0000 80B4     		push	{r7}
 208              	.LCFI12:
 209              		.cfi_def_cfa_offset 4
 210              		.cfi_offset 7, -4
 211 0002 85B0     		sub	sp, sp, #20
 212              	.LCFI13:
 213              		.cfi_def_cfa_offset 24
 214 0004 00AF     		add	r7, sp, #0
 215              	.LCFI14:
 216              		.cfi_def_cfa_register 7
 217 0006 7860     		str	r0, [r7, #4]
 110:./Libraries/CMSIS/DSP/Source/TransformFunctions/arm_rfft_fast_init_f32.c **** 
 111:./Libraries/CMSIS/DSP/Source/TransformFunctions/arm_rfft_fast_init_f32.c ****   arm_cfft_instance_f32 * Sint;
 112:./Libraries/CMSIS/DSP/Source/TransformFunctions/arm_rfft_fast_init_f32.c **** 
 113:./Libraries/CMSIS/DSP/Source/TransformFunctions/arm_rfft_fast_init_f32.c ****   if( !S ) return ARM_MATH_ARGUMENT_ERROR;
 218              		.loc 1 113 5
 219 0008 7B68     		ldr	r3, [r7, #4]
 220 000a 002B     		cmp	r3, #0
 221 000c 02D1     		bne	.L12
 222              		.loc 1 113 19 discriminator 1
 223 000e 4FF0FF33 		mov	r3, #-1
 224 0012 14E0     		b	.L13
 225              	.L12:
 114:./Libraries/CMSIS/DSP/Source/TransformFunctions/arm_rfft_fast_init_f32.c **** 
 115:./Libraries/CMSIS/DSP/Source/TransformFunctions/arm_rfft_fast_init_f32.c ****   Sint = &(S->Sint);
 226              		.loc 1 115 8
 227 0014 7B68     		ldr	r3, [r7, #4]
 228 0016 FB60     		str	r3, [r7, #12]
 116:./Libraries/CMSIS/DSP/Source/TransformFunctions/arm_rfft_fast_init_f32.c ****   Sint->fftLen = 64U;
 229              		.loc 1 116 16
 230 0018 FB68     		ldr	r3, [r7, #12]
 231 001a 4022     		movs	r2, #64
ARM GAS  /tmp/ccWQ1xqc.s 			page 7


 232 001c 1A80     		strh	r2, [r3]	@ movhi
 117:./Libraries/CMSIS/DSP/Source/TransformFunctions/arm_rfft_fast_init_f32.c ****   S->fftLenRFFT = 128U;
 233              		.loc 1 117 17
 234 001e 7B68     		ldr	r3, [r7, #4]
 235 0020 8022     		movs	r2, #128
 236 0022 1A82     		strh	r2, [r3, #16]	@ movhi
 118:./Libraries/CMSIS/DSP/Source/TransformFunctions/arm_rfft_fast_init_f32.c **** 
 119:./Libraries/CMSIS/DSP/Source/TransformFunctions/arm_rfft_fast_init_f32.c ****   Sint->bitRevLength = ARMBITREVINDEXTABLE_64_TABLE_LENGTH;
 237              		.loc 1 119 22
 238 0024 FB68     		ldr	r3, [r7, #12]
 239 0026 3822     		movs	r2, #56
 240 0028 9A81     		strh	r2, [r3, #12]	@ movhi
 120:./Libraries/CMSIS/DSP/Source/TransformFunctions/arm_rfft_fast_init_f32.c ****   Sint->pBitRevTable = (uint16_t *)armBitRevIndexTable64;
 241              		.loc 1 120 22
 242 002a FB68     		ldr	r3, [r7, #12]
 243 002c 074A     		ldr	r2, .L14
 244 002e 9A60     		str	r2, [r3, #8]
 121:./Libraries/CMSIS/DSP/Source/TransformFunctions/arm_rfft_fast_init_f32.c ****   Sint->pTwiddle     = (float32_t *) twiddleCoef_64;
 245              		.loc 1 121 22
 246 0030 FB68     		ldr	r3, [r7, #12]
 247 0032 074A     		ldr	r2, .L14+4
 248 0034 5A60     		str	r2, [r3, #4]
 122:./Libraries/CMSIS/DSP/Source/TransformFunctions/arm_rfft_fast_init_f32.c ****   S->pTwiddleRFFT    = (float32_t *) twiddleCoef_rfft_128;
 249              		.loc 1 122 22
 250 0036 7B68     		ldr	r3, [r7, #4]
 251 0038 064A     		ldr	r2, .L14+8
 252 003a 5A61     		str	r2, [r3, #20]
 123:./Libraries/CMSIS/DSP/Source/TransformFunctions/arm_rfft_fast_init_f32.c **** 
 124:./Libraries/CMSIS/DSP/Source/TransformFunctions/arm_rfft_fast_init_f32.c ****   return ARM_MATH_SUCCESS;
 253              		.loc 1 124 10
 254 003c 0023     		movs	r3, #0
 255              	.L13:
 125:./Libraries/CMSIS/DSP/Source/TransformFunctions/arm_rfft_fast_init_f32.c **** }
 256              		.loc 1 125 1
 257 003e 1846     		mov	r0, r3
 258 0040 1437     		adds	r7, r7, #20
 259              	.LCFI15:
 260              		.cfi_def_cfa_offset 4
 261 0042 BD46     		mov	sp, r7
 262              	.LCFI16:
 263              		.cfi_def_cfa_register 13
 264              		@ sp needed
 265 0044 5DF8047B 		ldr	r7, [sp], #4
 266              	.LCFI17:
 267              		.cfi_restore 7
 268              		.cfi_def_cfa_offset 0
 269 0048 7047     		bx	lr
 270              	.L15:
 271 004a 00BF     		.align	2
 272              	.L14:
 273 004c 00000000 		.word	armBitRevIndexTable64
 274 0050 00000000 		.word	twiddleCoef_64
 275 0054 00000000 		.word	twiddleCoef_rfft_128
 276              		.cfi_endproc
 277              	.LFE147:
 279              		.section	.text.arm_rfft_256_fast_init_f32,"ax",%progbits
 280              		.align	1
ARM GAS  /tmp/ccWQ1xqc.s 			page 8


 281              		.global	arm_rfft_256_fast_init_f32
 282              		.syntax unified
 283              		.thumb
 284              		.thumb_func
 285              		.fpu fpv5-d16
 287              	arm_rfft_256_fast_init_f32:
 288              	.LFB148:
 126:./Libraries/CMSIS/DSP/Source/TransformFunctions/arm_rfft_fast_init_f32.c **** #endif 
 127:./Libraries/CMSIS/DSP/Source/TransformFunctions/arm_rfft_fast_init_f32.c **** 
 128:./Libraries/CMSIS/DSP/Source/TransformFunctions/arm_rfft_fast_init_f32.c **** #if !defined(ARM_DSP_CONFIG_TABLES) || defined(ARM_ALL_FFT_TABLES) || (defined(ARM_TABLE_TWIDDLECOE
 129:./Libraries/CMSIS/DSP/Source/TransformFunctions/arm_rfft_fast_init_f32.c **** 
 130:./Libraries/CMSIS/DSP/Source/TransformFunctions/arm_rfft_fast_init_f32.c **** /**
 131:./Libraries/CMSIS/DSP/Source/TransformFunctions/arm_rfft_fast_init_f32.c ****   @brief         Initialization function for the 256pt floating-point real FFT.
 132:./Libraries/CMSIS/DSP/Source/TransformFunctions/arm_rfft_fast_init_f32.c ****   @param[in,out] S  points to an arm_rfft_fast_instance_f32 structure
 133:./Libraries/CMSIS/DSP/Source/TransformFunctions/arm_rfft_fast_init_f32.c ****   @return        execution status
 134:./Libraries/CMSIS/DSP/Source/TransformFunctions/arm_rfft_fast_init_f32.c ****                    - \ref ARM_MATH_SUCCESS        : Operation successful
 135:./Libraries/CMSIS/DSP/Source/TransformFunctions/arm_rfft_fast_init_f32.c ****                    - \ref ARM_MATH_ARGUMENT_ERROR : an error is detected
 136:./Libraries/CMSIS/DSP/Source/TransformFunctions/arm_rfft_fast_init_f32.c **** */
 137:./Libraries/CMSIS/DSP/Source/TransformFunctions/arm_rfft_fast_init_f32.c **** 
 138:./Libraries/CMSIS/DSP/Source/TransformFunctions/arm_rfft_fast_init_f32.c **** arm_status arm_rfft_256_fast_init_f32( arm_rfft_fast_instance_f32 * S ) {
 289              		.loc 1 138 73
 290              		.cfi_startproc
 291              		@ args = 0, pretend = 0, frame = 16
 292              		@ frame_needed = 1, uses_anonymous_args = 0
 293              		@ link register save eliminated.
 294 0000 80B4     		push	{r7}
 295              	.LCFI18:
 296              		.cfi_def_cfa_offset 4
 297              		.cfi_offset 7, -4
 298 0002 85B0     		sub	sp, sp, #20
 299              	.LCFI19:
 300              		.cfi_def_cfa_offset 24
 301 0004 00AF     		add	r7, sp, #0
 302              	.LCFI20:
 303              		.cfi_def_cfa_register 7
 304 0006 7860     		str	r0, [r7, #4]
 139:./Libraries/CMSIS/DSP/Source/TransformFunctions/arm_rfft_fast_init_f32.c **** 
 140:./Libraries/CMSIS/DSP/Source/TransformFunctions/arm_rfft_fast_init_f32.c ****   arm_cfft_instance_f32 * Sint;
 141:./Libraries/CMSIS/DSP/Source/TransformFunctions/arm_rfft_fast_init_f32.c **** 
 142:./Libraries/CMSIS/DSP/Source/TransformFunctions/arm_rfft_fast_init_f32.c ****   if( !S ) return ARM_MATH_ARGUMENT_ERROR;
 305              		.loc 1 142 5
 306 0008 7B68     		ldr	r3, [r7, #4]
 307 000a 002B     		cmp	r3, #0
 308 000c 02D1     		bne	.L17
 309              		.loc 1 142 19 discriminator 1
 310 000e 4FF0FF33 		mov	r3, #-1
 311 0012 15E0     		b	.L18
 312              	.L17:
 143:./Libraries/CMSIS/DSP/Source/TransformFunctions/arm_rfft_fast_init_f32.c **** 
 144:./Libraries/CMSIS/DSP/Source/TransformFunctions/arm_rfft_fast_init_f32.c ****   Sint = &(S->Sint);
 313              		.loc 1 144 8
 314 0014 7B68     		ldr	r3, [r7, #4]
 315 0016 FB60     		str	r3, [r7, #12]
 145:./Libraries/CMSIS/DSP/Source/TransformFunctions/arm_rfft_fast_init_f32.c ****   Sint->fftLen = 128U;
 316              		.loc 1 145 16
 317 0018 FB68     		ldr	r3, [r7, #12]
 318 001a 8022     		movs	r2, #128
ARM GAS  /tmp/ccWQ1xqc.s 			page 9


 319 001c 1A80     		strh	r2, [r3]	@ movhi
 146:./Libraries/CMSIS/DSP/Source/TransformFunctions/arm_rfft_fast_init_f32.c ****   S->fftLenRFFT = 256U;
 320              		.loc 1 146 17
 321 001e 7B68     		ldr	r3, [r7, #4]
 322 0020 4FF48072 		mov	r2, #256
 323 0024 1A82     		strh	r2, [r3, #16]	@ movhi
 147:./Libraries/CMSIS/DSP/Source/TransformFunctions/arm_rfft_fast_init_f32.c **** 
 148:./Libraries/CMSIS/DSP/Source/TransformFunctions/arm_rfft_fast_init_f32.c ****   Sint->bitRevLength = ARMBITREVINDEXTABLE_128_TABLE_LENGTH;
 324              		.loc 1 148 22
 325 0026 FB68     		ldr	r3, [r7, #12]
 326 0028 D022     		movs	r2, #208
 327 002a 9A81     		strh	r2, [r3, #12]	@ movhi
 149:./Libraries/CMSIS/DSP/Source/TransformFunctions/arm_rfft_fast_init_f32.c ****   Sint->pBitRevTable = (uint16_t *)armBitRevIndexTable128;
 328              		.loc 1 149 22
 329 002c FB68     		ldr	r3, [r7, #12]
 330 002e 074A     		ldr	r2, .L19
 331 0030 9A60     		str	r2, [r3, #8]
 150:./Libraries/CMSIS/DSP/Source/TransformFunctions/arm_rfft_fast_init_f32.c ****   Sint->pTwiddle     = (float32_t *) twiddleCoef_128;
 332              		.loc 1 150 22
 333 0032 FB68     		ldr	r3, [r7, #12]
 334 0034 064A     		ldr	r2, .L19+4
 335 0036 5A60     		str	r2, [r3, #4]
 151:./Libraries/CMSIS/DSP/Source/TransformFunctions/arm_rfft_fast_init_f32.c ****   S->pTwiddleRFFT    = (float32_t *) twiddleCoef_rfft_256;
 336              		.loc 1 151 22
 337 0038 7B68     		ldr	r3, [r7, #4]
 338 003a 064A     		ldr	r2, .L19+8
 339 003c 5A61     		str	r2, [r3, #20]
 152:./Libraries/CMSIS/DSP/Source/TransformFunctions/arm_rfft_fast_init_f32.c **** 
 153:./Libraries/CMSIS/DSP/Source/TransformFunctions/arm_rfft_fast_init_f32.c ****   return ARM_MATH_SUCCESS;
 340              		.loc 1 153 10
 341 003e 0023     		movs	r3, #0
 342              	.L18:
 154:./Libraries/CMSIS/DSP/Source/TransformFunctions/arm_rfft_fast_init_f32.c **** }
 343              		.loc 1 154 1
 344 0040 1846     		mov	r0, r3
 345 0042 1437     		adds	r7, r7, #20
 346              	.LCFI21:
 347              		.cfi_def_cfa_offset 4
 348 0044 BD46     		mov	sp, r7
 349              	.LCFI22:
 350              		.cfi_def_cfa_register 13
 351              		@ sp needed
 352 0046 5DF8047B 		ldr	r7, [sp], #4
 353              	.LCFI23:
 354              		.cfi_restore 7
 355              		.cfi_def_cfa_offset 0
 356 004a 7047     		bx	lr
 357              	.L20:
 358              		.align	2
 359              	.L19:
 360 004c 00000000 		.word	armBitRevIndexTable128
 361 0050 00000000 		.word	twiddleCoef_128
 362 0054 00000000 		.word	twiddleCoef_rfft_256
 363              		.cfi_endproc
 364              	.LFE148:
 366              		.section	.text.arm_rfft_512_fast_init_f32,"ax",%progbits
 367              		.align	1
ARM GAS  /tmp/ccWQ1xqc.s 			page 10


 368              		.global	arm_rfft_512_fast_init_f32
 369              		.syntax unified
 370              		.thumb
 371              		.thumb_func
 372              		.fpu fpv5-d16
 374              	arm_rfft_512_fast_init_f32:
 375              	.LFB149:
 155:./Libraries/CMSIS/DSP/Source/TransformFunctions/arm_rfft_fast_init_f32.c **** #endif 
 156:./Libraries/CMSIS/DSP/Source/TransformFunctions/arm_rfft_fast_init_f32.c **** 
 157:./Libraries/CMSIS/DSP/Source/TransformFunctions/arm_rfft_fast_init_f32.c **** #if !defined(ARM_DSP_CONFIG_TABLES) || defined(ARM_ALL_FFT_TABLES) || (defined(ARM_TABLE_TWIDDLECOE
 158:./Libraries/CMSIS/DSP/Source/TransformFunctions/arm_rfft_fast_init_f32.c **** 
 159:./Libraries/CMSIS/DSP/Source/TransformFunctions/arm_rfft_fast_init_f32.c **** /**
 160:./Libraries/CMSIS/DSP/Source/TransformFunctions/arm_rfft_fast_init_f32.c ****   @brief         Initialization function for the 512pt floating-point real FFT.
 161:./Libraries/CMSIS/DSP/Source/TransformFunctions/arm_rfft_fast_init_f32.c ****   @param[in,out] S  points to an arm_rfft_fast_instance_f32 structure
 162:./Libraries/CMSIS/DSP/Source/TransformFunctions/arm_rfft_fast_init_f32.c ****   @return        execution status
 163:./Libraries/CMSIS/DSP/Source/TransformFunctions/arm_rfft_fast_init_f32.c ****                    - \ref ARM_MATH_SUCCESS        : Operation successful
 164:./Libraries/CMSIS/DSP/Source/TransformFunctions/arm_rfft_fast_init_f32.c ****                    - \ref ARM_MATH_ARGUMENT_ERROR : an error is detected
 165:./Libraries/CMSIS/DSP/Source/TransformFunctions/arm_rfft_fast_init_f32.c ****  */
 166:./Libraries/CMSIS/DSP/Source/TransformFunctions/arm_rfft_fast_init_f32.c **** 
 167:./Libraries/CMSIS/DSP/Source/TransformFunctions/arm_rfft_fast_init_f32.c **** arm_status arm_rfft_512_fast_init_f32( arm_rfft_fast_instance_f32 * S ) {
 376              		.loc 1 167 73
 377              		.cfi_startproc
 378              		@ args = 0, pretend = 0, frame = 16
 379              		@ frame_needed = 1, uses_anonymous_args = 0
 380              		@ link register save eliminated.
 381 0000 80B4     		push	{r7}
 382              	.LCFI24:
 383              		.cfi_def_cfa_offset 4
 384              		.cfi_offset 7, -4
 385 0002 85B0     		sub	sp, sp, #20
 386              	.LCFI25:
 387              		.cfi_def_cfa_offset 24
 388 0004 00AF     		add	r7, sp, #0
 389              	.LCFI26:
 390              		.cfi_def_cfa_register 7
 391 0006 7860     		str	r0, [r7, #4]
 168:./Libraries/CMSIS/DSP/Source/TransformFunctions/arm_rfft_fast_init_f32.c **** 
 169:./Libraries/CMSIS/DSP/Source/TransformFunctions/arm_rfft_fast_init_f32.c ****   arm_cfft_instance_f32 * Sint;
 170:./Libraries/CMSIS/DSP/Source/TransformFunctions/arm_rfft_fast_init_f32.c **** 
 171:./Libraries/CMSIS/DSP/Source/TransformFunctions/arm_rfft_fast_init_f32.c ****   if( !S ) return ARM_MATH_ARGUMENT_ERROR;
 392              		.loc 1 171 5
 393 0008 7B68     		ldr	r3, [r7, #4]
 394 000a 002B     		cmp	r3, #0
 395 000c 02D1     		bne	.L22
 396              		.loc 1 171 19 discriminator 1
 397 000e 4FF0FF33 		mov	r3, #-1
 398 0012 17E0     		b	.L23
 399              	.L22:
 172:./Libraries/CMSIS/DSP/Source/TransformFunctions/arm_rfft_fast_init_f32.c **** 
 173:./Libraries/CMSIS/DSP/Source/TransformFunctions/arm_rfft_fast_init_f32.c ****   Sint = &(S->Sint);
 400              		.loc 1 173 8
 401 0014 7B68     		ldr	r3, [r7, #4]
 402 0016 FB60     		str	r3, [r7, #12]
 174:./Libraries/CMSIS/DSP/Source/TransformFunctions/arm_rfft_fast_init_f32.c ****   Sint->fftLen = 256U;
 403              		.loc 1 174 16
 404 0018 FB68     		ldr	r3, [r7, #12]
 405 001a 4FF48072 		mov	r2, #256
ARM GAS  /tmp/ccWQ1xqc.s 			page 11


 406 001e 1A80     		strh	r2, [r3]	@ movhi
 175:./Libraries/CMSIS/DSP/Source/TransformFunctions/arm_rfft_fast_init_f32.c ****   S->fftLenRFFT = 512U;
 407              		.loc 1 175 17
 408 0020 7B68     		ldr	r3, [r7, #4]
 409 0022 4FF40072 		mov	r2, #512
 410 0026 1A82     		strh	r2, [r3, #16]	@ movhi
 176:./Libraries/CMSIS/DSP/Source/TransformFunctions/arm_rfft_fast_init_f32.c **** 
 177:./Libraries/CMSIS/DSP/Source/TransformFunctions/arm_rfft_fast_init_f32.c ****   Sint->bitRevLength = ARMBITREVINDEXTABLE_256_TABLE_LENGTH;
 411              		.loc 1 177 22
 412 0028 FB68     		ldr	r3, [r7, #12]
 413 002a 4FF4DC72 		mov	r2, #440
 414 002e 9A81     		strh	r2, [r3, #12]	@ movhi
 178:./Libraries/CMSIS/DSP/Source/TransformFunctions/arm_rfft_fast_init_f32.c ****   Sint->pBitRevTable = (uint16_t *)armBitRevIndexTable256;
 415              		.loc 1 178 22
 416 0030 FB68     		ldr	r3, [r7, #12]
 417 0032 074A     		ldr	r2, .L24
 418 0034 9A60     		str	r2, [r3, #8]
 179:./Libraries/CMSIS/DSP/Source/TransformFunctions/arm_rfft_fast_init_f32.c ****   Sint->pTwiddle     = (float32_t *) twiddleCoef_256;
 419              		.loc 1 179 22
 420 0036 FB68     		ldr	r3, [r7, #12]
 421 0038 064A     		ldr	r2, .L24+4
 422 003a 5A60     		str	r2, [r3, #4]
 180:./Libraries/CMSIS/DSP/Source/TransformFunctions/arm_rfft_fast_init_f32.c ****   S->pTwiddleRFFT    = (float32_t *) twiddleCoef_rfft_512;
 423              		.loc 1 180 22
 424 003c 7B68     		ldr	r3, [r7, #4]
 425 003e 064A     		ldr	r2, .L24+8
 426 0040 5A61     		str	r2, [r3, #20]
 181:./Libraries/CMSIS/DSP/Source/TransformFunctions/arm_rfft_fast_init_f32.c **** 
 182:./Libraries/CMSIS/DSP/Source/TransformFunctions/arm_rfft_fast_init_f32.c ****   return ARM_MATH_SUCCESS;
 427              		.loc 1 182 10
 428 0042 0023     		movs	r3, #0
 429              	.L23:
 183:./Libraries/CMSIS/DSP/Source/TransformFunctions/arm_rfft_fast_init_f32.c **** }
 430              		.loc 1 183 1
 431 0044 1846     		mov	r0, r3
 432 0046 1437     		adds	r7, r7, #20
 433              	.LCFI27:
 434              		.cfi_def_cfa_offset 4
 435 0048 BD46     		mov	sp, r7
 436              	.LCFI28:
 437              		.cfi_def_cfa_register 13
 438              		@ sp needed
 439 004a 5DF8047B 		ldr	r7, [sp], #4
 440              	.LCFI29:
 441              		.cfi_restore 7
 442              		.cfi_def_cfa_offset 0
 443 004e 7047     		bx	lr
 444              	.L25:
 445              		.align	2
 446              	.L24:
 447 0050 00000000 		.word	armBitRevIndexTable256
 448 0054 00000000 		.word	twiddleCoef_256
 449 0058 00000000 		.word	twiddleCoef_rfft_512
 450              		.cfi_endproc
 451              	.LFE149:
 453              		.section	.text.arm_rfft_1024_fast_init_f32,"ax",%progbits
 454              		.align	1
ARM GAS  /tmp/ccWQ1xqc.s 			page 12


 455              		.global	arm_rfft_1024_fast_init_f32
 456              		.syntax unified
 457              		.thumb
 458              		.thumb_func
 459              		.fpu fpv5-d16
 461              	arm_rfft_1024_fast_init_f32:
 462              	.LFB150:
 184:./Libraries/CMSIS/DSP/Source/TransformFunctions/arm_rfft_fast_init_f32.c **** #endif 
 185:./Libraries/CMSIS/DSP/Source/TransformFunctions/arm_rfft_fast_init_f32.c **** 
 186:./Libraries/CMSIS/DSP/Source/TransformFunctions/arm_rfft_fast_init_f32.c **** #if !defined(ARM_DSP_CONFIG_TABLES) || defined(ARM_ALL_FFT_TABLES) || (defined(ARM_TABLE_TWIDDLECOE
 187:./Libraries/CMSIS/DSP/Source/TransformFunctions/arm_rfft_fast_init_f32.c **** /**
 188:./Libraries/CMSIS/DSP/Source/TransformFunctions/arm_rfft_fast_init_f32.c ****   @brief         Initialization function for the 1024pt floating-point real FFT.
 189:./Libraries/CMSIS/DSP/Source/TransformFunctions/arm_rfft_fast_init_f32.c ****   @param[in,out] S  points to an arm_rfft_fast_instance_f32 structure
 190:./Libraries/CMSIS/DSP/Source/TransformFunctions/arm_rfft_fast_init_f32.c ****   @return        execution status
 191:./Libraries/CMSIS/DSP/Source/TransformFunctions/arm_rfft_fast_init_f32.c ****                    - \ref ARM_MATH_SUCCESS        : Operation successful
 192:./Libraries/CMSIS/DSP/Source/TransformFunctions/arm_rfft_fast_init_f32.c ****                    - \ref ARM_MATH_ARGUMENT_ERROR : an error is detected
 193:./Libraries/CMSIS/DSP/Source/TransformFunctions/arm_rfft_fast_init_f32.c ****  */
 194:./Libraries/CMSIS/DSP/Source/TransformFunctions/arm_rfft_fast_init_f32.c **** 
 195:./Libraries/CMSIS/DSP/Source/TransformFunctions/arm_rfft_fast_init_f32.c **** arm_status arm_rfft_1024_fast_init_f32( arm_rfft_fast_instance_f32 * S ) {
 463              		.loc 1 195 74
 464              		.cfi_startproc
 465              		@ args = 0, pretend = 0, frame = 16
 466              		@ frame_needed = 1, uses_anonymous_args = 0
 467              		@ link register save eliminated.
 468 0000 80B4     		push	{r7}
 469              	.LCFI30:
 470              		.cfi_def_cfa_offset 4
 471              		.cfi_offset 7, -4
 472 0002 85B0     		sub	sp, sp, #20
 473              	.LCFI31:
 474              		.cfi_def_cfa_offset 24
 475 0004 00AF     		add	r7, sp, #0
 476              	.LCFI32:
 477              		.cfi_def_cfa_register 7
 478 0006 7860     		str	r0, [r7, #4]
 196:./Libraries/CMSIS/DSP/Source/TransformFunctions/arm_rfft_fast_init_f32.c **** 
 197:./Libraries/CMSIS/DSP/Source/TransformFunctions/arm_rfft_fast_init_f32.c ****   arm_cfft_instance_f32 * Sint;
 198:./Libraries/CMSIS/DSP/Source/TransformFunctions/arm_rfft_fast_init_f32.c **** 
 199:./Libraries/CMSIS/DSP/Source/TransformFunctions/arm_rfft_fast_init_f32.c ****   if( !S ) return ARM_MATH_ARGUMENT_ERROR;
 479              		.loc 1 199 5
 480 0008 7B68     		ldr	r3, [r7, #4]
 481 000a 002B     		cmp	r3, #0
 482 000c 02D1     		bne	.L27
 483              		.loc 1 199 19 discriminator 1
 484 000e 4FF0FF33 		mov	r3, #-1
 485 0012 17E0     		b	.L28
 486              	.L27:
 200:./Libraries/CMSIS/DSP/Source/TransformFunctions/arm_rfft_fast_init_f32.c **** 
 201:./Libraries/CMSIS/DSP/Source/TransformFunctions/arm_rfft_fast_init_f32.c ****   Sint = &(S->Sint);
 487              		.loc 1 201 8
 488 0014 7B68     		ldr	r3, [r7, #4]
 489 0016 FB60     		str	r3, [r7, #12]
 202:./Libraries/CMSIS/DSP/Source/TransformFunctions/arm_rfft_fast_init_f32.c ****   Sint->fftLen = 512U;
 490              		.loc 1 202 16
 491 0018 FB68     		ldr	r3, [r7, #12]
 492 001a 4FF40072 		mov	r2, #512
 493 001e 1A80     		strh	r2, [r3]	@ movhi
ARM GAS  /tmp/ccWQ1xqc.s 			page 13


 203:./Libraries/CMSIS/DSP/Source/TransformFunctions/arm_rfft_fast_init_f32.c ****   S->fftLenRFFT = 1024U;
 494              		.loc 1 203 17
 495 0020 7B68     		ldr	r3, [r7, #4]
 496 0022 4FF48062 		mov	r2, #1024
 497 0026 1A82     		strh	r2, [r3, #16]	@ movhi
 204:./Libraries/CMSIS/DSP/Source/TransformFunctions/arm_rfft_fast_init_f32.c **** 
 205:./Libraries/CMSIS/DSP/Source/TransformFunctions/arm_rfft_fast_init_f32.c ****   Sint->bitRevLength = ARMBITREVINDEXTABLE_512_TABLE_LENGTH;
 498              		.loc 1 205 22
 499 0028 FB68     		ldr	r3, [r7, #12]
 500 002a 4FF4E072 		mov	r2, #448
 501 002e 9A81     		strh	r2, [r3, #12]	@ movhi
 206:./Libraries/CMSIS/DSP/Source/TransformFunctions/arm_rfft_fast_init_f32.c ****   Sint->pBitRevTable = (uint16_t *)armBitRevIndexTable512;
 502              		.loc 1 206 22
 503 0030 FB68     		ldr	r3, [r7, #12]
 504 0032 074A     		ldr	r2, .L29
 505 0034 9A60     		str	r2, [r3, #8]
 207:./Libraries/CMSIS/DSP/Source/TransformFunctions/arm_rfft_fast_init_f32.c ****   Sint->pTwiddle     = (float32_t *) twiddleCoef_512;
 506              		.loc 1 207 22
 507 0036 FB68     		ldr	r3, [r7, #12]
 508 0038 064A     		ldr	r2, .L29+4
 509 003a 5A60     		str	r2, [r3, #4]
 208:./Libraries/CMSIS/DSP/Source/TransformFunctions/arm_rfft_fast_init_f32.c ****   S->pTwiddleRFFT    = (float32_t *) twiddleCoef_rfft_1024;
 510              		.loc 1 208 22
 511 003c 7B68     		ldr	r3, [r7, #4]
 512 003e 064A     		ldr	r2, .L29+8
 513 0040 5A61     		str	r2, [r3, #20]
 209:./Libraries/CMSIS/DSP/Source/TransformFunctions/arm_rfft_fast_init_f32.c **** 
 210:./Libraries/CMSIS/DSP/Source/TransformFunctions/arm_rfft_fast_init_f32.c ****   return ARM_MATH_SUCCESS;
 514              		.loc 1 210 10
 515 0042 0023     		movs	r3, #0
 516              	.L28:
 211:./Libraries/CMSIS/DSP/Source/TransformFunctions/arm_rfft_fast_init_f32.c **** }
 517              		.loc 1 211 1
 518 0044 1846     		mov	r0, r3
 519 0046 1437     		adds	r7, r7, #20
 520              	.LCFI33:
 521              		.cfi_def_cfa_offset 4
 522 0048 BD46     		mov	sp, r7
 523              	.LCFI34:
 524              		.cfi_def_cfa_register 13
 525              		@ sp needed
 526 004a 5DF8047B 		ldr	r7, [sp], #4
 527              	.LCFI35:
 528              		.cfi_restore 7
 529              		.cfi_def_cfa_offset 0
 530 004e 7047     		bx	lr
 531              	.L30:
 532              		.align	2
 533              	.L29:
 534 0050 00000000 		.word	armBitRevIndexTable512
 535 0054 00000000 		.word	twiddleCoef_512
 536 0058 00000000 		.word	twiddleCoef_rfft_1024
 537              		.cfi_endproc
 538              	.LFE150:
 540              		.section	.text.arm_rfft_2048_fast_init_f32,"ax",%progbits
 541              		.align	1
 542              		.global	arm_rfft_2048_fast_init_f32
ARM GAS  /tmp/ccWQ1xqc.s 			page 14


 543              		.syntax unified
 544              		.thumb
 545              		.thumb_func
 546              		.fpu fpv5-d16
 548              	arm_rfft_2048_fast_init_f32:
 549              	.LFB151:
 212:./Libraries/CMSIS/DSP/Source/TransformFunctions/arm_rfft_fast_init_f32.c **** #endif
 213:./Libraries/CMSIS/DSP/Source/TransformFunctions/arm_rfft_fast_init_f32.c **** 
 214:./Libraries/CMSIS/DSP/Source/TransformFunctions/arm_rfft_fast_init_f32.c **** #if !defined(ARM_DSP_CONFIG_TABLES) || defined(ARM_ALL_FFT_TABLES) || (defined(ARM_TABLE_TWIDDLECOE
 215:./Libraries/CMSIS/DSP/Source/TransformFunctions/arm_rfft_fast_init_f32.c **** /**
 216:./Libraries/CMSIS/DSP/Source/TransformFunctions/arm_rfft_fast_init_f32.c ****   @brief         Initialization function for the 2048pt floating-point real FFT.
 217:./Libraries/CMSIS/DSP/Source/TransformFunctions/arm_rfft_fast_init_f32.c ****   @param[in,out] S  points to an arm_rfft_fast_instance_f32 structure
 218:./Libraries/CMSIS/DSP/Source/TransformFunctions/arm_rfft_fast_init_f32.c ****   @return        execution status
 219:./Libraries/CMSIS/DSP/Source/TransformFunctions/arm_rfft_fast_init_f32.c ****                    - \ref ARM_MATH_SUCCESS        : Operation successful
 220:./Libraries/CMSIS/DSP/Source/TransformFunctions/arm_rfft_fast_init_f32.c ****                    - \ref ARM_MATH_ARGUMENT_ERROR : an error is detected
 221:./Libraries/CMSIS/DSP/Source/TransformFunctions/arm_rfft_fast_init_f32.c ****  */
 222:./Libraries/CMSIS/DSP/Source/TransformFunctions/arm_rfft_fast_init_f32.c **** arm_status arm_rfft_2048_fast_init_f32( arm_rfft_fast_instance_f32 * S ) {
 550              		.loc 1 222 74
 551              		.cfi_startproc
 552              		@ args = 0, pretend = 0, frame = 16
 553              		@ frame_needed = 1, uses_anonymous_args = 0
 554              		@ link register save eliminated.
 555 0000 80B4     		push	{r7}
 556              	.LCFI36:
 557              		.cfi_def_cfa_offset 4
 558              		.cfi_offset 7, -4
 559 0002 85B0     		sub	sp, sp, #20
 560              	.LCFI37:
 561              		.cfi_def_cfa_offset 24
 562 0004 00AF     		add	r7, sp, #0
 563              	.LCFI38:
 564              		.cfi_def_cfa_register 7
 565 0006 7860     		str	r0, [r7, #4]
 223:./Libraries/CMSIS/DSP/Source/TransformFunctions/arm_rfft_fast_init_f32.c **** 
 224:./Libraries/CMSIS/DSP/Source/TransformFunctions/arm_rfft_fast_init_f32.c ****   arm_cfft_instance_f32 * Sint;
 225:./Libraries/CMSIS/DSP/Source/TransformFunctions/arm_rfft_fast_init_f32.c **** 
 226:./Libraries/CMSIS/DSP/Source/TransformFunctions/arm_rfft_fast_init_f32.c ****   if( !S ) return ARM_MATH_ARGUMENT_ERROR;
 566              		.loc 1 226 5
 567 0008 7B68     		ldr	r3, [r7, #4]
 568 000a 002B     		cmp	r3, #0
 569 000c 02D1     		bne	.L32
 570              		.loc 1 226 19 discriminator 1
 571 000e 4FF0FF33 		mov	r3, #-1
 572 0012 17E0     		b	.L33
 573              	.L32:
 227:./Libraries/CMSIS/DSP/Source/TransformFunctions/arm_rfft_fast_init_f32.c **** 
 228:./Libraries/CMSIS/DSP/Source/TransformFunctions/arm_rfft_fast_init_f32.c ****   Sint = &(S->Sint);
 574              		.loc 1 228 8
 575 0014 7B68     		ldr	r3, [r7, #4]
 576 0016 FB60     		str	r3, [r7, #12]
 229:./Libraries/CMSIS/DSP/Source/TransformFunctions/arm_rfft_fast_init_f32.c ****   Sint->fftLen = 1024U;
 577              		.loc 1 229 16
 578 0018 FB68     		ldr	r3, [r7, #12]
 579 001a 4FF48062 		mov	r2, #1024
 580 001e 1A80     		strh	r2, [r3]	@ movhi
 230:./Libraries/CMSIS/DSP/Source/TransformFunctions/arm_rfft_fast_init_f32.c ****   S->fftLenRFFT = 2048U;
 581              		.loc 1 230 17
ARM GAS  /tmp/ccWQ1xqc.s 			page 15


 582 0020 7B68     		ldr	r3, [r7, #4]
 583 0022 4FF40062 		mov	r2, #2048
 584 0026 1A82     		strh	r2, [r3, #16]	@ movhi
 231:./Libraries/CMSIS/DSP/Source/TransformFunctions/arm_rfft_fast_init_f32.c **** 
 232:./Libraries/CMSIS/DSP/Source/TransformFunctions/arm_rfft_fast_init_f32.c ****   Sint->bitRevLength = ARMBITREVINDEXTABLE_1024_TABLE_LENGTH;
 585              		.loc 1 232 22
 586 0028 FB68     		ldr	r3, [r7, #12]
 587 002a 4FF4E162 		mov	r2, #1800
 588 002e 9A81     		strh	r2, [r3, #12]	@ movhi
 233:./Libraries/CMSIS/DSP/Source/TransformFunctions/arm_rfft_fast_init_f32.c ****   Sint->pBitRevTable = (uint16_t *)armBitRevIndexTable1024;
 589              		.loc 1 233 22
 590 0030 FB68     		ldr	r3, [r7, #12]
 591 0032 074A     		ldr	r2, .L34
 592 0034 9A60     		str	r2, [r3, #8]
 234:./Libraries/CMSIS/DSP/Source/TransformFunctions/arm_rfft_fast_init_f32.c ****   Sint->pTwiddle     = (float32_t *) twiddleCoef_1024;
 593              		.loc 1 234 22
 594 0036 FB68     		ldr	r3, [r7, #12]
 595 0038 064A     		ldr	r2, .L34+4
 596 003a 5A60     		str	r2, [r3, #4]
 235:./Libraries/CMSIS/DSP/Source/TransformFunctions/arm_rfft_fast_init_f32.c ****   S->pTwiddleRFFT    = (float32_t *) twiddleCoef_rfft_2048;
 597              		.loc 1 235 22
 598 003c 7B68     		ldr	r3, [r7, #4]
 599 003e 064A     		ldr	r2, .L34+8
 600 0040 5A61     		str	r2, [r3, #20]
 236:./Libraries/CMSIS/DSP/Source/TransformFunctions/arm_rfft_fast_init_f32.c **** 
 237:./Libraries/CMSIS/DSP/Source/TransformFunctions/arm_rfft_fast_init_f32.c ****   return ARM_MATH_SUCCESS;
 601              		.loc 1 237 10
 602 0042 0023     		movs	r3, #0
 603              	.L33:
 238:./Libraries/CMSIS/DSP/Source/TransformFunctions/arm_rfft_fast_init_f32.c **** }
 604              		.loc 1 238 1
 605 0044 1846     		mov	r0, r3
 606 0046 1437     		adds	r7, r7, #20
 607              	.LCFI39:
 608              		.cfi_def_cfa_offset 4
 609 0048 BD46     		mov	sp, r7
 610              	.LCFI40:
 611              		.cfi_def_cfa_register 13
 612              		@ sp needed
 613 004a 5DF8047B 		ldr	r7, [sp], #4
 614              	.LCFI41:
 615              		.cfi_restore 7
 616              		.cfi_def_cfa_offset 0
 617 004e 7047     		bx	lr
 618              	.L35:
 619              		.align	2
 620              	.L34:
 621 0050 00000000 		.word	armBitRevIndexTable1024
 622 0054 00000000 		.word	twiddleCoef_1024
 623 0058 00000000 		.word	twiddleCoef_rfft_2048
 624              		.cfi_endproc
 625              	.LFE151:
 627              		.section	.text.arm_rfft_4096_fast_init_f32,"ax",%progbits
 628              		.align	1
 629              		.global	arm_rfft_4096_fast_init_f32
 630              		.syntax unified
 631              		.thumb
ARM GAS  /tmp/ccWQ1xqc.s 			page 16


 632              		.thumb_func
 633              		.fpu fpv5-d16
 635              	arm_rfft_4096_fast_init_f32:
 636              	.LFB152:
 239:./Libraries/CMSIS/DSP/Source/TransformFunctions/arm_rfft_fast_init_f32.c **** #endif
 240:./Libraries/CMSIS/DSP/Source/TransformFunctions/arm_rfft_fast_init_f32.c **** 
 241:./Libraries/CMSIS/DSP/Source/TransformFunctions/arm_rfft_fast_init_f32.c **** #if !defined(ARM_DSP_CONFIG_TABLES) || defined(ARM_ALL_FFT_TABLES) || (defined(ARM_TABLE_TWIDDLECOE
 242:./Libraries/CMSIS/DSP/Source/TransformFunctions/arm_rfft_fast_init_f32.c **** /**
 243:./Libraries/CMSIS/DSP/Source/TransformFunctions/arm_rfft_fast_init_f32.c **** * @brief         Initialization function for the 4096pt floating-point real FFT.
 244:./Libraries/CMSIS/DSP/Source/TransformFunctions/arm_rfft_fast_init_f32.c **** * @param[in,out] S  points to an arm_rfft_fast_instance_f32 structure
 245:./Libraries/CMSIS/DSP/Source/TransformFunctions/arm_rfft_fast_init_f32.c ****   @return        execution status
 246:./Libraries/CMSIS/DSP/Source/TransformFunctions/arm_rfft_fast_init_f32.c ****                    - \ref ARM_MATH_SUCCESS        : Operation successful
 247:./Libraries/CMSIS/DSP/Source/TransformFunctions/arm_rfft_fast_init_f32.c ****                    - \ref ARM_MATH_ARGUMENT_ERROR : an error is detected
 248:./Libraries/CMSIS/DSP/Source/TransformFunctions/arm_rfft_fast_init_f32.c ****  */
 249:./Libraries/CMSIS/DSP/Source/TransformFunctions/arm_rfft_fast_init_f32.c **** 
 250:./Libraries/CMSIS/DSP/Source/TransformFunctions/arm_rfft_fast_init_f32.c **** arm_status arm_rfft_4096_fast_init_f32( arm_rfft_fast_instance_f32 * S ) {
 637              		.loc 1 250 74
 638              		.cfi_startproc
 639              		@ args = 0, pretend = 0, frame = 16
 640              		@ frame_needed = 1, uses_anonymous_args = 0
 641              		@ link register save eliminated.
 642 0000 80B4     		push	{r7}
 643              	.LCFI42:
 644              		.cfi_def_cfa_offset 4
 645              		.cfi_offset 7, -4
 646 0002 85B0     		sub	sp, sp, #20
 647              	.LCFI43:
 648              		.cfi_def_cfa_offset 24
 649 0004 00AF     		add	r7, sp, #0
 650              	.LCFI44:
 651              		.cfi_def_cfa_register 7
 652 0006 7860     		str	r0, [r7, #4]
 251:./Libraries/CMSIS/DSP/Source/TransformFunctions/arm_rfft_fast_init_f32.c **** 
 252:./Libraries/CMSIS/DSP/Source/TransformFunctions/arm_rfft_fast_init_f32.c ****   arm_cfft_instance_f32 * Sint;
 253:./Libraries/CMSIS/DSP/Source/TransformFunctions/arm_rfft_fast_init_f32.c **** 
 254:./Libraries/CMSIS/DSP/Source/TransformFunctions/arm_rfft_fast_init_f32.c ****   if( !S ) return ARM_MATH_ARGUMENT_ERROR;
 653              		.loc 1 254 5
 654 0008 7B68     		ldr	r3, [r7, #4]
 655 000a 002B     		cmp	r3, #0
 656 000c 02D1     		bne	.L37
 657              		.loc 1 254 19 discriminator 1
 658 000e 4FF0FF33 		mov	r3, #-1
 659 0012 17E0     		b	.L38
 660              	.L37:
 255:./Libraries/CMSIS/DSP/Source/TransformFunctions/arm_rfft_fast_init_f32.c **** 
 256:./Libraries/CMSIS/DSP/Source/TransformFunctions/arm_rfft_fast_init_f32.c ****   Sint = &(S->Sint);
 661              		.loc 1 256 8
 662 0014 7B68     		ldr	r3, [r7, #4]
 663 0016 FB60     		str	r3, [r7, #12]
 257:./Libraries/CMSIS/DSP/Source/TransformFunctions/arm_rfft_fast_init_f32.c ****   Sint->fftLen = 2048U;
 664              		.loc 1 257 16
 665 0018 FB68     		ldr	r3, [r7, #12]
 666 001a 4FF40062 		mov	r2, #2048
 667 001e 1A80     		strh	r2, [r3]	@ movhi
 258:./Libraries/CMSIS/DSP/Source/TransformFunctions/arm_rfft_fast_init_f32.c ****   S->fftLenRFFT = 4096U;
 668              		.loc 1 258 17
 669 0020 7B68     		ldr	r3, [r7, #4]
ARM GAS  /tmp/ccWQ1xqc.s 			page 17


 670 0022 4FF48052 		mov	r2, #4096
 671 0026 1A82     		strh	r2, [r3, #16]	@ movhi
 259:./Libraries/CMSIS/DSP/Source/TransformFunctions/arm_rfft_fast_init_f32.c **** 
 260:./Libraries/CMSIS/DSP/Source/TransformFunctions/arm_rfft_fast_init_f32.c ****   Sint->bitRevLength = ARMBITREVINDEXTABLE_2048_TABLE_LENGTH;
 672              		.loc 1 260 22
 673 0028 FB68     		ldr	r3, [r7, #12]
 674 002a 4FF46E62 		mov	r2, #3808
 675 002e 9A81     		strh	r2, [r3, #12]	@ movhi
 261:./Libraries/CMSIS/DSP/Source/TransformFunctions/arm_rfft_fast_init_f32.c ****   Sint->pBitRevTable = (uint16_t *)armBitRevIndexTable2048;
 676              		.loc 1 261 22
 677 0030 FB68     		ldr	r3, [r7, #12]
 678 0032 074A     		ldr	r2, .L39
 679 0034 9A60     		str	r2, [r3, #8]
 262:./Libraries/CMSIS/DSP/Source/TransformFunctions/arm_rfft_fast_init_f32.c ****   Sint->pTwiddle     = (float32_t *) twiddleCoef_2048;
 680              		.loc 1 262 22
 681 0036 FB68     		ldr	r3, [r7, #12]
 682 0038 064A     		ldr	r2, .L39+4
 683 003a 5A60     		str	r2, [r3, #4]
 263:./Libraries/CMSIS/DSP/Source/TransformFunctions/arm_rfft_fast_init_f32.c ****   S->pTwiddleRFFT    = (float32_t *) twiddleCoef_rfft_4096;
 684              		.loc 1 263 22
 685 003c 7B68     		ldr	r3, [r7, #4]
 686 003e 064A     		ldr	r2, .L39+8
 687 0040 5A61     		str	r2, [r3, #20]
 264:./Libraries/CMSIS/DSP/Source/TransformFunctions/arm_rfft_fast_init_f32.c **** 
 265:./Libraries/CMSIS/DSP/Source/TransformFunctions/arm_rfft_fast_init_f32.c ****   return ARM_MATH_SUCCESS;
 688              		.loc 1 265 10
 689 0042 0023     		movs	r3, #0
 690              	.L38:
 266:./Libraries/CMSIS/DSP/Source/TransformFunctions/arm_rfft_fast_init_f32.c **** }
 691              		.loc 1 266 1
 692 0044 1846     		mov	r0, r3
 693 0046 1437     		adds	r7, r7, #20
 694              	.LCFI45:
 695              		.cfi_def_cfa_offset 4
 696 0048 BD46     		mov	sp, r7
 697              	.LCFI46:
 698              		.cfi_def_cfa_register 13
 699              		@ sp needed
 700 004a 5DF8047B 		ldr	r7, [sp], #4
 701              	.LCFI47:
 702              		.cfi_restore 7
 703              		.cfi_def_cfa_offset 0
 704 004e 7047     		bx	lr
 705              	.L40:
 706              		.align	2
 707              	.L39:
 708 0050 00000000 		.word	armBitRevIndexTable2048
 709 0054 00000000 		.word	twiddleCoef_2048
 710 0058 00000000 		.word	twiddleCoef_rfft_4096
 711              		.cfi_endproc
 712              	.LFE152:
 714              		.section	.text.arm_rfft_fast_init_f32,"ax",%progbits
 715              		.align	1
 716              		.global	arm_rfft_fast_init_f32
 717              		.syntax unified
 718              		.thumb
 719              		.thumb_func
ARM GAS  /tmp/ccWQ1xqc.s 			page 18


 720              		.fpu fpv5-d16
 722              	arm_rfft_fast_init_f32:
 723              	.LFB153:
 267:./Libraries/CMSIS/DSP/Source/TransformFunctions/arm_rfft_fast_init_f32.c **** #endif 
 268:./Libraries/CMSIS/DSP/Source/TransformFunctions/arm_rfft_fast_init_f32.c **** 
 269:./Libraries/CMSIS/DSP/Source/TransformFunctions/arm_rfft_fast_init_f32.c **** /**
 270:./Libraries/CMSIS/DSP/Source/TransformFunctions/arm_rfft_fast_init_f32.c ****   @brief         Initialization function for the floating-point real FFT.
 271:./Libraries/CMSIS/DSP/Source/TransformFunctions/arm_rfft_fast_init_f32.c ****   @param[in,out] S       points to an arm_rfft_fast_instance_f32 structure
 272:./Libraries/CMSIS/DSP/Source/TransformFunctions/arm_rfft_fast_init_f32.c ****   @param[in]     fftLen  length of the Real Sequence
 273:./Libraries/CMSIS/DSP/Source/TransformFunctions/arm_rfft_fast_init_f32.c ****   @return        execution status
 274:./Libraries/CMSIS/DSP/Source/TransformFunctions/arm_rfft_fast_init_f32.c ****                    - \ref ARM_MATH_SUCCESS        : Operation successful
 275:./Libraries/CMSIS/DSP/Source/TransformFunctions/arm_rfft_fast_init_f32.c ****                    - \ref ARM_MATH_ARGUMENT_ERROR : <code>fftLen</code> is not a supported length
 276:./Libraries/CMSIS/DSP/Source/TransformFunctions/arm_rfft_fast_init_f32.c **** 
 277:./Libraries/CMSIS/DSP/Source/TransformFunctions/arm_rfft_fast_init_f32.c ****   @par           Description
 278:./Libraries/CMSIS/DSP/Source/TransformFunctions/arm_rfft_fast_init_f32.c ****                    The parameter <code>fftLen</code> specifies the length of RFFT/CIFFT process.
 279:./Libraries/CMSIS/DSP/Source/TransformFunctions/arm_rfft_fast_init_f32.c ****                    Supported FFT Lengths are 32, 64, 128, 256, 512, 1024, 2048, 4096.
 280:./Libraries/CMSIS/DSP/Source/TransformFunctions/arm_rfft_fast_init_f32.c ****   @par
 281:./Libraries/CMSIS/DSP/Source/TransformFunctions/arm_rfft_fast_init_f32.c ****                    This Function also initializes Twiddle factor table pointer and Bit reversal tab
 282:./Libraries/CMSIS/DSP/Source/TransformFunctions/arm_rfft_fast_init_f32.c ****  */
 283:./Libraries/CMSIS/DSP/Source/TransformFunctions/arm_rfft_fast_init_f32.c **** 
 284:./Libraries/CMSIS/DSP/Source/TransformFunctions/arm_rfft_fast_init_f32.c **** arm_status arm_rfft_fast_init_f32(
 285:./Libraries/CMSIS/DSP/Source/TransformFunctions/arm_rfft_fast_init_f32.c ****   arm_rfft_fast_instance_f32 * S,
 286:./Libraries/CMSIS/DSP/Source/TransformFunctions/arm_rfft_fast_init_f32.c ****   uint16_t fftLen)
 287:./Libraries/CMSIS/DSP/Source/TransformFunctions/arm_rfft_fast_init_f32.c **** {
 724              		.loc 1 287 1
 725              		.cfi_startproc
 726              		@ args = 0, pretend = 0, frame = 16
 727              		@ frame_needed = 1, uses_anonymous_args = 0
 728 0000 80B5     		push	{r7, lr}
 729              	.LCFI48:
 730              		.cfi_def_cfa_offset 8
 731              		.cfi_offset 7, -8
 732              		.cfi_offset 14, -4
 733 0002 84B0     		sub	sp, sp, #16
 734              	.LCFI49:
 735              		.cfi_def_cfa_offset 24
 736 0004 00AF     		add	r7, sp, #0
 737              	.LCFI50:
 738              		.cfi_def_cfa_register 7
 739 0006 7860     		str	r0, [r7, #4]
 740 0008 0B46     		mov	r3, r1
 741 000a 7B80     		strh	r3, [r7, #2]	@ movhi
 288:./Libraries/CMSIS/DSP/Source/TransformFunctions/arm_rfft_fast_init_f32.c ****   typedef arm_status(*fft_init_ptr)( arm_rfft_fast_instance_f32 *);
 289:./Libraries/CMSIS/DSP/Source/TransformFunctions/arm_rfft_fast_init_f32.c ****   fft_init_ptr fptr = 0x0;
 742              		.loc 1 289 16
 743 000c 0023     		movs	r3, #0
 744 000e FB60     		str	r3, [r7, #12]
 290:./Libraries/CMSIS/DSP/Source/TransformFunctions/arm_rfft_fast_init_f32.c **** 
 291:./Libraries/CMSIS/DSP/Source/TransformFunctions/arm_rfft_fast_init_f32.c ****   switch (fftLen)
 745              		.loc 1 291 3
 746 0010 7B88     		ldrh	r3, [r7, #2]
 747 0012 B3F5805F 		cmp	r3, #4096
 748 0016 1FD0     		beq	.L42
 749 0018 B3F5805F 		cmp	r3, #4096
 750 001c 31DC     		bgt	.L43
 751 001e B3F5006F 		cmp	r3, #2048
 752 0022 1CD0     		beq	.L44
ARM GAS  /tmp/ccWQ1xqc.s 			page 19


 753 0024 B3F5006F 		cmp	r3, #2048
 754 0028 2BDC     		bgt	.L43
 755 002a B3F5806F 		cmp	r3, #1024
 756 002e 19D0     		beq	.L45
 757 0030 B3F5806F 		cmp	r3, #1024
 758 0034 25DC     		bgt	.L43
 759 0036 B3F5007F 		cmp	r3, #512
 760 003a 16D0     		beq	.L46
 761 003c B3F5007F 		cmp	r3, #512
 762 0040 1FDC     		bgt	.L43
 763 0042 B3F5807F 		cmp	r3, #256
 764 0046 13D0     		beq	.L47
 765 0048 B3F5807F 		cmp	r3, #256
 766 004c 19DC     		bgt	.L43
 767 004e 202B     		cmp	r3, #32
 768 0050 14D0     		beq	.L48
 769 0052 402B     		cmp	r3, #64
 770 0054 0FD0     		beq	.L49
 771 0056 14E0     		b	.L43
 772              	.L42:
 292:./Libraries/CMSIS/DSP/Source/TransformFunctions/arm_rfft_fast_init_f32.c ****   {
 293:./Libraries/CMSIS/DSP/Source/TransformFunctions/arm_rfft_fast_init_f32.c **** #if !defined(ARM_DSP_CONFIG_TABLES) || defined(ARM_ALL_FFT_TABLES) || (defined(ARM_TABLE_TWIDDLECOE
 294:./Libraries/CMSIS/DSP/Source/TransformFunctions/arm_rfft_fast_init_f32.c ****   case 4096U:
 295:./Libraries/CMSIS/DSP/Source/TransformFunctions/arm_rfft_fast_init_f32.c ****     fptr = arm_rfft_4096_fast_init_f32;
 773              		.loc 1 295 10
 774 0058 124B     		ldr	r3, .L53
 775 005a FB60     		str	r3, [r7, #12]
 296:./Libraries/CMSIS/DSP/Source/TransformFunctions/arm_rfft_fast_init_f32.c ****     break;
 776              		.loc 1 296 5
 777 005c 14E0     		b	.L50
 778              	.L44:
 297:./Libraries/CMSIS/DSP/Source/TransformFunctions/arm_rfft_fast_init_f32.c **** #endif
 298:./Libraries/CMSIS/DSP/Source/TransformFunctions/arm_rfft_fast_init_f32.c **** #if !defined(ARM_DSP_CONFIG_TABLES) || defined(ARM_ALL_FFT_TABLES) || (defined(ARM_TABLE_TWIDDLECOE
 299:./Libraries/CMSIS/DSP/Source/TransformFunctions/arm_rfft_fast_init_f32.c ****   case 2048U:
 300:./Libraries/CMSIS/DSP/Source/TransformFunctions/arm_rfft_fast_init_f32.c ****     fptr = arm_rfft_2048_fast_init_f32;
 779              		.loc 1 300 10
 780 005e 124B     		ldr	r3, .L53+4
 781 0060 FB60     		str	r3, [r7, #12]
 301:./Libraries/CMSIS/DSP/Source/TransformFunctions/arm_rfft_fast_init_f32.c ****     break;
 782              		.loc 1 301 5
 783 0062 11E0     		b	.L50
 784              	.L45:
 302:./Libraries/CMSIS/DSP/Source/TransformFunctions/arm_rfft_fast_init_f32.c **** #endif
 303:./Libraries/CMSIS/DSP/Source/TransformFunctions/arm_rfft_fast_init_f32.c **** #if !defined(ARM_DSP_CONFIG_TABLES) || defined(ARM_ALL_FFT_TABLES) || (defined(ARM_TABLE_TWIDDLECOE
 304:./Libraries/CMSIS/DSP/Source/TransformFunctions/arm_rfft_fast_init_f32.c ****   case 1024U:
 305:./Libraries/CMSIS/DSP/Source/TransformFunctions/arm_rfft_fast_init_f32.c ****     fptr = arm_rfft_1024_fast_init_f32;
 785              		.loc 1 305 10
 786 0064 114B     		ldr	r3, .L53+8
 787 0066 FB60     		str	r3, [r7, #12]
 306:./Libraries/CMSIS/DSP/Source/TransformFunctions/arm_rfft_fast_init_f32.c ****     break;
 788              		.loc 1 306 5
 789 0068 0EE0     		b	.L50
 790              	.L46:
 307:./Libraries/CMSIS/DSP/Source/TransformFunctions/arm_rfft_fast_init_f32.c **** #endif
 308:./Libraries/CMSIS/DSP/Source/TransformFunctions/arm_rfft_fast_init_f32.c **** #if !defined(ARM_DSP_CONFIG_TABLES) || defined(ARM_ALL_FFT_TABLES) || (defined(ARM_TABLE_TWIDDLECOE
 309:./Libraries/CMSIS/DSP/Source/TransformFunctions/arm_rfft_fast_init_f32.c ****   case 512U:
 310:./Libraries/CMSIS/DSP/Source/TransformFunctions/arm_rfft_fast_init_f32.c ****     fptr = arm_rfft_512_fast_init_f32;
ARM GAS  /tmp/ccWQ1xqc.s 			page 20


 791              		.loc 1 310 10
 792 006a 114B     		ldr	r3, .L53+12
 793 006c FB60     		str	r3, [r7, #12]
 311:./Libraries/CMSIS/DSP/Source/TransformFunctions/arm_rfft_fast_init_f32.c ****     break;
 794              		.loc 1 311 5
 795 006e 0BE0     		b	.L50
 796              	.L47:
 312:./Libraries/CMSIS/DSP/Source/TransformFunctions/arm_rfft_fast_init_f32.c **** #endif
 313:./Libraries/CMSIS/DSP/Source/TransformFunctions/arm_rfft_fast_init_f32.c **** #if !defined(ARM_DSP_CONFIG_TABLES) || defined(ARM_ALL_FFT_TABLES) || (defined(ARM_TABLE_TWIDDLECOE
 314:./Libraries/CMSIS/DSP/Source/TransformFunctions/arm_rfft_fast_init_f32.c ****   case 256U:
 315:./Libraries/CMSIS/DSP/Source/TransformFunctions/arm_rfft_fast_init_f32.c ****     fptr = arm_rfft_256_fast_init_f32;
 797              		.loc 1 315 10
 798 0070 104B     		ldr	r3, .L53+16
 799 0072 FB60     		str	r3, [r7, #12]
 316:./Libraries/CMSIS/DSP/Source/TransformFunctions/arm_rfft_fast_init_f32.c ****     break;
 800              		.loc 1 316 5
 801 0074 08E0     		b	.L50
 802              	.L49:
 317:./Libraries/CMSIS/DSP/Source/TransformFunctions/arm_rfft_fast_init_f32.c **** #endif
 318:./Libraries/CMSIS/DSP/Source/TransformFunctions/arm_rfft_fast_init_f32.c **** #if (defined(ARM_TABLE_TWIDDLECOEF_F32_64) && defined(ARM_TABLE_BITREVIDX_FLT_64) && defined(ARM_TA
 319:./Libraries/CMSIS/DSP/Source/TransformFunctions/arm_rfft_fast_init_f32.c ****   case 128U:
 320:./Libraries/CMSIS/DSP/Source/TransformFunctions/arm_rfft_fast_init_f32.c ****     fptr = arm_rfft_128_fast_init_f32;
 321:./Libraries/CMSIS/DSP/Source/TransformFunctions/arm_rfft_fast_init_f32.c ****     break;
 322:./Libraries/CMSIS/DSP/Source/TransformFunctions/arm_rfft_fast_init_f32.c **** #endif
 323:./Libraries/CMSIS/DSP/Source/TransformFunctions/arm_rfft_fast_init_f32.c **** #if !defined(ARM_DSP_CONFIG_TABLES) || defined(ARM_ALL_FFT_TABLES) || (defined(ARM_TABLE_TWIDDLECOE
 324:./Libraries/CMSIS/DSP/Source/TransformFunctions/arm_rfft_fast_init_f32.c ****   case 64U:
 325:./Libraries/CMSIS/DSP/Source/TransformFunctions/arm_rfft_fast_init_f32.c ****     fptr = arm_rfft_64_fast_init_f32;
 803              		.loc 1 325 10
 804 0076 104B     		ldr	r3, .L53+20
 805 0078 FB60     		str	r3, [r7, #12]
 326:./Libraries/CMSIS/DSP/Source/TransformFunctions/arm_rfft_fast_init_f32.c ****     break;
 806              		.loc 1 326 5
 807 007a 05E0     		b	.L50
 808              	.L48:
 327:./Libraries/CMSIS/DSP/Source/TransformFunctions/arm_rfft_fast_init_f32.c **** #endif
 328:./Libraries/CMSIS/DSP/Source/TransformFunctions/arm_rfft_fast_init_f32.c **** #if !defined(ARM_DSP_CONFIG_TABLES) || defined(ARM_ALL_FFT_TABLES) || (defined(ARM_TABLE_TWIDDLECOE
 329:./Libraries/CMSIS/DSP/Source/TransformFunctions/arm_rfft_fast_init_f32.c ****   case 32U:
 330:./Libraries/CMSIS/DSP/Source/TransformFunctions/arm_rfft_fast_init_f32.c ****     fptr = arm_rfft_32_fast_init_f32;
 809              		.loc 1 330 10
 810 007c 0F4B     		ldr	r3, .L53+24
 811 007e FB60     		str	r3, [r7, #12]
 331:./Libraries/CMSIS/DSP/Source/TransformFunctions/arm_rfft_fast_init_f32.c ****     break;
 812              		.loc 1 331 5
 813 0080 02E0     		b	.L50
 814              	.L43:
 332:./Libraries/CMSIS/DSP/Source/TransformFunctions/arm_rfft_fast_init_f32.c **** #endif
 333:./Libraries/CMSIS/DSP/Source/TransformFunctions/arm_rfft_fast_init_f32.c ****   default:
 334:./Libraries/CMSIS/DSP/Source/TransformFunctions/arm_rfft_fast_init_f32.c ****     return ARM_MATH_ARGUMENT_ERROR;
 815              		.loc 1 334 12
 816 0082 4FF0FF33 		mov	r3, #-1
 817 0086 09E0     		b	.L51
 818              	.L50:
 335:./Libraries/CMSIS/DSP/Source/TransformFunctions/arm_rfft_fast_init_f32.c ****   }
 336:./Libraries/CMSIS/DSP/Source/TransformFunctions/arm_rfft_fast_init_f32.c **** 
 337:./Libraries/CMSIS/DSP/Source/TransformFunctions/arm_rfft_fast_init_f32.c ****   if( ! fptr ) return ARM_MATH_ARGUMENT_ERROR;
 819              		.loc 1 337 5
 820 0088 FB68     		ldr	r3, [r7, #12]
ARM GAS  /tmp/ccWQ1xqc.s 			page 21


 821 008a 002B     		cmp	r3, #0
 822 008c 02D1     		bne	.L52
 823              		.loc 1 337 23 discriminator 1
 824 008e 4FF0FF33 		mov	r3, #-1
 825 0092 03E0     		b	.L51
 826              	.L52:
 338:./Libraries/CMSIS/DSP/Source/TransformFunctions/arm_rfft_fast_init_f32.c ****   return fptr( S );
 827              		.loc 1 338 10
 828 0094 FB68     		ldr	r3, [r7, #12]
 829 0096 7868     		ldr	r0, [r7, #4]
 830 0098 9847     		blx	r3
 831              	.LVL0:
 832 009a 0346     		mov	r3, r0
 833              	.L51:
 339:./Libraries/CMSIS/DSP/Source/TransformFunctions/arm_rfft_fast_init_f32.c **** 
 340:./Libraries/CMSIS/DSP/Source/TransformFunctions/arm_rfft_fast_init_f32.c **** }
 834              		.loc 1 340 1
 835 009c 1846     		mov	r0, r3
 836 009e 1037     		adds	r7, r7, #16
 837              	.LCFI51:
 838              		.cfi_def_cfa_offset 8
 839 00a0 BD46     		mov	sp, r7
 840              	.LCFI52:
 841              		.cfi_def_cfa_register 13
 842              		@ sp needed
 843 00a2 80BD     		pop	{r7, pc}
 844              	.L54:
 845              		.align	2
 846              	.L53:
 847 00a4 00000000 		.word	arm_rfft_4096_fast_init_f32
 848 00a8 00000000 		.word	arm_rfft_2048_fast_init_f32
 849 00ac 00000000 		.word	arm_rfft_1024_fast_init_f32
 850 00b0 00000000 		.word	arm_rfft_512_fast_init_f32
 851 00b4 00000000 		.word	arm_rfft_256_fast_init_f32
 852 00b8 00000000 		.word	arm_rfft_64_fast_init_f32
 853 00bc 00000000 		.word	arm_rfft_32_fast_init_f32
 854              		.cfi_endproc
 855              	.LFE153:
 857              		.text
 858              	.Letext0:
 859              		.file 2 "/usr/lib/gcc/arm-none-eabi/9.2.1/include/stdint.h"
 860              		.file 3 "/usr/lib/gcc/arm-none-eabi/9.2.1/include/stddef.h"
 861              		.file 4 "/usr/include/newlib/sys/_types.h"
 862              		.file 5 "/usr/include/newlib/sys/reent.h"
 863              		.file 6 "/usr/include/newlib/sys/lock.h"
 864              		.file 7 "/usr/include/newlib/math.h"
 865              		.file 8 "./Libraries/CMSIS/DSP/Include/arm_math.h"
 866              		.file 9 "./Libraries/CMSIS/DSP/Include/arm_common_tables.h"
ARM GAS  /tmp/ccWQ1xqc.s 			page 22

