ARM GAS  /tmp/ccLLOD7t.s 			page 1


   1              		.cpu cortex-m7
   2              		.eabi_attribute 28, 1
   3              		.eabi_attribute 20, 1
   4              		.eabi_attribute 21, 1
   5              		.eabi_attribute 23, 3
   6              		.eabi_attribute 24, 1
   7              		.eabi_attribute 25, 1
   8              		.eabi_attribute 26, 1
   9              		.eabi_attribute 30, 6
  10              		.eabi_attribute 34, 1
  11              		.eabi_attribute 18, 4
  12              		.file	"arm_std_q15.c"
  13              		.text
  14              	.Ltext0:
  15              		.cfi_sections	.debug_frame
  16              		.global	__aeabi_ldivmod
  17              		.section	.text.arm_std_q15,"ax",%progbits
  18              		.align	1
  19              		.global	arm_std_q15
  20              		.arch armv7e-m
  21              		.syntax unified
  22              		.thumb
  23              		.thumb_func
  24              		.fpu fpv5-d16
  26              	arm_std_q15:
  27              	.LFB145:
  28              		.file 1 "./Libraries/CMSIS/DSP/Source/StatisticsFunctions/arm_std_q15.c"
   1:./Libraries/CMSIS/DSP/Source/StatisticsFunctions/arm_std_q15.c **** /* ----------------------------------------------------------------------
   2:./Libraries/CMSIS/DSP/Source/StatisticsFunctions/arm_std_q15.c ****  * Project:      CMSIS DSP Library
   3:./Libraries/CMSIS/DSP/Source/StatisticsFunctions/arm_std_q15.c ****  * Title:        arm_std_q15.c
   4:./Libraries/CMSIS/DSP/Source/StatisticsFunctions/arm_std_q15.c ****  * Description:  Standard deviation of an array of Q15 vector
   5:./Libraries/CMSIS/DSP/Source/StatisticsFunctions/arm_std_q15.c ****  *
   6:./Libraries/CMSIS/DSP/Source/StatisticsFunctions/arm_std_q15.c ****  * $Date:        18. March 2019
   7:./Libraries/CMSIS/DSP/Source/StatisticsFunctions/arm_std_q15.c ****  * $Revision:    V1.6.0
   8:./Libraries/CMSIS/DSP/Source/StatisticsFunctions/arm_std_q15.c ****  *
   9:./Libraries/CMSIS/DSP/Source/StatisticsFunctions/arm_std_q15.c ****  * Target Processor: Cortex-M cores
  10:./Libraries/CMSIS/DSP/Source/StatisticsFunctions/arm_std_q15.c ****  * -------------------------------------------------------------------- */
  11:./Libraries/CMSIS/DSP/Source/StatisticsFunctions/arm_std_q15.c **** /*
  12:./Libraries/CMSIS/DSP/Source/StatisticsFunctions/arm_std_q15.c ****  * Copyright (C) 2010-2019 ARM Limited or its affiliates. All rights reserved.
  13:./Libraries/CMSIS/DSP/Source/StatisticsFunctions/arm_std_q15.c ****  *
  14:./Libraries/CMSIS/DSP/Source/StatisticsFunctions/arm_std_q15.c ****  * SPDX-License-Identifier: Apache-2.0
  15:./Libraries/CMSIS/DSP/Source/StatisticsFunctions/arm_std_q15.c ****  *
  16:./Libraries/CMSIS/DSP/Source/StatisticsFunctions/arm_std_q15.c ****  * Licensed under the Apache License, Version 2.0 (the License); you may
  17:./Libraries/CMSIS/DSP/Source/StatisticsFunctions/arm_std_q15.c ****  * not use this file except in compliance with the License.
  18:./Libraries/CMSIS/DSP/Source/StatisticsFunctions/arm_std_q15.c ****  * You may obtain a copy of the License at
  19:./Libraries/CMSIS/DSP/Source/StatisticsFunctions/arm_std_q15.c ****  *
  20:./Libraries/CMSIS/DSP/Source/StatisticsFunctions/arm_std_q15.c ****  * www.apache.org/licenses/LICENSE-2.0
  21:./Libraries/CMSIS/DSP/Source/StatisticsFunctions/arm_std_q15.c ****  *
  22:./Libraries/CMSIS/DSP/Source/StatisticsFunctions/arm_std_q15.c ****  * Unless required by applicable law or agreed to in writing, software
  23:./Libraries/CMSIS/DSP/Source/StatisticsFunctions/arm_std_q15.c ****  * distributed under the License is distributed on an AS IS BASIS, WITHOUT
  24:./Libraries/CMSIS/DSP/Source/StatisticsFunctions/arm_std_q15.c ****  * WARRANTIES OR CONDITIONS OF ANY KIND, either express or implied.
  25:./Libraries/CMSIS/DSP/Source/StatisticsFunctions/arm_std_q15.c ****  * See the License for the specific language governing permissions and
  26:./Libraries/CMSIS/DSP/Source/StatisticsFunctions/arm_std_q15.c ****  * limitations under the License.
  27:./Libraries/CMSIS/DSP/Source/StatisticsFunctions/arm_std_q15.c ****  */
  28:./Libraries/CMSIS/DSP/Source/StatisticsFunctions/arm_std_q15.c **** 
  29:./Libraries/CMSIS/DSP/Source/StatisticsFunctions/arm_std_q15.c **** #include "arm_math.h"
  30:./Libraries/CMSIS/DSP/Source/StatisticsFunctions/arm_std_q15.c **** 
ARM GAS  /tmp/ccLLOD7t.s 			page 2


  31:./Libraries/CMSIS/DSP/Source/StatisticsFunctions/arm_std_q15.c **** /**
  32:./Libraries/CMSIS/DSP/Source/StatisticsFunctions/arm_std_q15.c ****   @ingroup groupStats
  33:./Libraries/CMSIS/DSP/Source/StatisticsFunctions/arm_std_q15.c ****  */
  34:./Libraries/CMSIS/DSP/Source/StatisticsFunctions/arm_std_q15.c **** 
  35:./Libraries/CMSIS/DSP/Source/StatisticsFunctions/arm_std_q15.c **** /**
  36:./Libraries/CMSIS/DSP/Source/StatisticsFunctions/arm_std_q15.c ****   @addtogroup STD
  37:./Libraries/CMSIS/DSP/Source/StatisticsFunctions/arm_std_q15.c ****   @{
  38:./Libraries/CMSIS/DSP/Source/StatisticsFunctions/arm_std_q15.c ****  */
  39:./Libraries/CMSIS/DSP/Source/StatisticsFunctions/arm_std_q15.c **** 
  40:./Libraries/CMSIS/DSP/Source/StatisticsFunctions/arm_std_q15.c **** /**
  41:./Libraries/CMSIS/DSP/Source/StatisticsFunctions/arm_std_q15.c ****   @brief         Standard deviation of the elements of a Q15 vector.
  42:./Libraries/CMSIS/DSP/Source/StatisticsFunctions/arm_std_q15.c ****   @param[in]     pSrc       points to the input vector
  43:./Libraries/CMSIS/DSP/Source/StatisticsFunctions/arm_std_q15.c ****   @param[in]     blockSize  number of samples in input vector
  44:./Libraries/CMSIS/DSP/Source/StatisticsFunctions/arm_std_q15.c ****   @param[out]    pResult    standard deviation value returned here
  45:./Libraries/CMSIS/DSP/Source/StatisticsFunctions/arm_std_q15.c ****   @return        none
  46:./Libraries/CMSIS/DSP/Source/StatisticsFunctions/arm_std_q15.c **** 
  47:./Libraries/CMSIS/DSP/Source/StatisticsFunctions/arm_std_q15.c ****   @par           Scaling and Overflow Behavior
  48:./Libraries/CMSIS/DSP/Source/StatisticsFunctions/arm_std_q15.c ****                    The function is implemented using a 64-bit internal accumulator.
  49:./Libraries/CMSIS/DSP/Source/StatisticsFunctions/arm_std_q15.c ****                    The input is represented in 1.15 format.
  50:./Libraries/CMSIS/DSP/Source/StatisticsFunctions/arm_std_q15.c ****                    Intermediate multiplication yields a 2.30 format, and this
  51:./Libraries/CMSIS/DSP/Source/StatisticsFunctions/arm_std_q15.c ****                    result is added without saturation to a 64-bit accumulator in 34.30 format.
  52:./Libraries/CMSIS/DSP/Source/StatisticsFunctions/arm_std_q15.c ****                    With 33 guard bits in the accumulator, there is no risk of overflow, and the
  53:./Libraries/CMSIS/DSP/Source/StatisticsFunctions/arm_std_q15.c ****                    full precision of the intermediate multiplication is preserved.
  54:./Libraries/CMSIS/DSP/Source/StatisticsFunctions/arm_std_q15.c ****                    Finally, the 34.30 result is truncated to 34.15 format by discarding the lower
  55:./Libraries/CMSIS/DSP/Source/StatisticsFunctions/arm_std_q15.c ****                    15 bits, and then saturated to yield a result in 1.15 format.
  56:./Libraries/CMSIS/DSP/Source/StatisticsFunctions/arm_std_q15.c ****  */
  57:./Libraries/CMSIS/DSP/Source/StatisticsFunctions/arm_std_q15.c **** 
  58:./Libraries/CMSIS/DSP/Source/StatisticsFunctions/arm_std_q15.c **** void arm_std_q15(
  59:./Libraries/CMSIS/DSP/Source/StatisticsFunctions/arm_std_q15.c ****   const q15_t * pSrc,
  60:./Libraries/CMSIS/DSP/Source/StatisticsFunctions/arm_std_q15.c ****         uint32_t blockSize,
  61:./Libraries/CMSIS/DSP/Source/StatisticsFunctions/arm_std_q15.c ****         q15_t * pResult)
  62:./Libraries/CMSIS/DSP/Source/StatisticsFunctions/arm_std_q15.c **** {
  29              		.loc 1 62 1
  30              		.cfi_startproc
  31              		@ args = 0, pretend = 0, frame = 56
  32              		@ frame_needed = 1, uses_anonymous_args = 0
  33 0000 B0B5     		push	{r4, r5, r7, lr}
  34              	.LCFI0:
  35              		.cfi_def_cfa_offset 16
  36              		.cfi_offset 4, -16
  37              		.cfi_offset 5, -12
  38              		.cfi_offset 7, -8
  39              		.cfi_offset 14, -4
  40 0002 8EB0     		sub	sp, sp, #56
  41              	.LCFI1:
  42              		.cfi_def_cfa_offset 72
  43 0004 00AF     		add	r7, sp, #0
  44              	.LCFI2:
  45              		.cfi_def_cfa_register 7
  46 0006 F860     		str	r0, [r7, #12]
  47 0008 B960     		str	r1, [r7, #8]
  48 000a 7A60     		str	r2, [r7, #4]
  63:./Libraries/CMSIS/DSP/Source/StatisticsFunctions/arm_std_q15.c ****         uint32_t blkCnt;                               /* Loop counter */
  64:./Libraries/CMSIS/DSP/Source/StatisticsFunctions/arm_std_q15.c ****         q31_t sum = 0;                                 /* Accumulator */
  49              		.loc 1 64 15
  50 000c 0023     		movs	r3, #0
  51 000e 3B63     		str	r3, [r7, #48]
ARM GAS  /tmp/ccLLOD7t.s 			page 3


  65:./Libraries/CMSIS/DSP/Source/StatisticsFunctions/arm_std_q15.c ****         q31_t meanOfSquares, squareOfMean;             /* Square of mean and mean of square */
  66:./Libraries/CMSIS/DSP/Source/StatisticsFunctions/arm_std_q15.c ****         q63_t sumOfSquares = 0;                        /* Sum of squares */
  52              		.loc 1 66 15
  53 0010 4FF00002 		mov	r2, #0
  54 0014 4FF00003 		mov	r3, #0
  55 0018 C7E90A23 		strd	r2, [r7, #40]
  67:./Libraries/CMSIS/DSP/Source/StatisticsFunctions/arm_std_q15.c ****         q15_t in;                                      /* Temporary variable to store input value *
  68:./Libraries/CMSIS/DSP/Source/StatisticsFunctions/arm_std_q15.c **** 
  69:./Libraries/CMSIS/DSP/Source/StatisticsFunctions/arm_std_q15.c **** #if defined (ARM_MATH_LOOPUNROLL) && defined (ARM_MATH_DSP)
  70:./Libraries/CMSIS/DSP/Source/StatisticsFunctions/arm_std_q15.c ****   q31_t in32;                                    /* Temporary variable to store input value */
  71:./Libraries/CMSIS/DSP/Source/StatisticsFunctions/arm_std_q15.c **** #endif
  72:./Libraries/CMSIS/DSP/Source/StatisticsFunctions/arm_std_q15.c **** 
  73:./Libraries/CMSIS/DSP/Source/StatisticsFunctions/arm_std_q15.c ****   if (blockSize <= 1U)
  56              		.loc 1 73 6
  57 001c BB68     		ldr	r3, [r7, #8]
  58 001e 012B     		cmp	r3, #1
  59 0020 03D8     		bhi	.L2
  74:./Libraries/CMSIS/DSP/Source/StatisticsFunctions/arm_std_q15.c ****   {
  75:./Libraries/CMSIS/DSP/Source/StatisticsFunctions/arm_std_q15.c ****     *pResult = 0;
  60              		.loc 1 75 14
  61 0022 7B68     		ldr	r3, [r7, #4]
  62 0024 0022     		movs	r2, #0
  63 0026 1A80     		strh	r2, [r3]	@ movhi
  76:./Libraries/CMSIS/DSP/Source/StatisticsFunctions/arm_std_q15.c ****     return;
  64              		.loc 1 76 5
  65 0028 5DE0     		b	.L1
  66              	.L2:
  77:./Libraries/CMSIS/DSP/Source/StatisticsFunctions/arm_std_q15.c ****   }
  78:./Libraries/CMSIS/DSP/Source/StatisticsFunctions/arm_std_q15.c **** 
  79:./Libraries/CMSIS/DSP/Source/StatisticsFunctions/arm_std_q15.c **** #if defined (ARM_MATH_LOOPUNROLL)
  80:./Libraries/CMSIS/DSP/Source/StatisticsFunctions/arm_std_q15.c **** 
  81:./Libraries/CMSIS/DSP/Source/StatisticsFunctions/arm_std_q15.c ****   /* Loop unrolling: Compute 4 outputs at a time */
  82:./Libraries/CMSIS/DSP/Source/StatisticsFunctions/arm_std_q15.c ****   blkCnt = blockSize >> 2U;
  83:./Libraries/CMSIS/DSP/Source/StatisticsFunctions/arm_std_q15.c **** 
  84:./Libraries/CMSIS/DSP/Source/StatisticsFunctions/arm_std_q15.c ****   while (blkCnt > 0U)
  85:./Libraries/CMSIS/DSP/Source/StatisticsFunctions/arm_std_q15.c ****   {
  86:./Libraries/CMSIS/DSP/Source/StatisticsFunctions/arm_std_q15.c ****     /* C = A[0] * A[0] + A[1] * A[1] + ... + A[blockSize-1] * A[blockSize-1] */
  87:./Libraries/CMSIS/DSP/Source/StatisticsFunctions/arm_std_q15.c ****     /* C = A[0] + A[1] + ... + A[blockSize-1] */
  88:./Libraries/CMSIS/DSP/Source/StatisticsFunctions/arm_std_q15.c **** 
  89:./Libraries/CMSIS/DSP/Source/StatisticsFunctions/arm_std_q15.c ****     /* Compute sum of squares and store result in a temporary variable, sumOfSquares. */
  90:./Libraries/CMSIS/DSP/Source/StatisticsFunctions/arm_std_q15.c ****     /* Compute sum and store result in a temporary variable, sum. */
  91:./Libraries/CMSIS/DSP/Source/StatisticsFunctions/arm_std_q15.c **** #if defined (ARM_MATH_DSP)
  92:./Libraries/CMSIS/DSP/Source/StatisticsFunctions/arm_std_q15.c ****     in32 = read_q15x2_ia ((q15_t **) &pSrc);
  93:./Libraries/CMSIS/DSP/Source/StatisticsFunctions/arm_std_q15.c ****     sumOfSquares = __SMLALD(in32, in32, sumOfSquares);
  94:./Libraries/CMSIS/DSP/Source/StatisticsFunctions/arm_std_q15.c ****     sum += ((in32 << 16U) >> 16U);
  95:./Libraries/CMSIS/DSP/Source/StatisticsFunctions/arm_std_q15.c ****     sum +=  (in32 >> 16U);
  96:./Libraries/CMSIS/DSP/Source/StatisticsFunctions/arm_std_q15.c **** 
  97:./Libraries/CMSIS/DSP/Source/StatisticsFunctions/arm_std_q15.c ****     in32 = read_q15x2_ia ((q15_t **) &pSrc);
  98:./Libraries/CMSIS/DSP/Source/StatisticsFunctions/arm_std_q15.c ****     sumOfSquares = __SMLALD(in32, in32, sumOfSquares);
  99:./Libraries/CMSIS/DSP/Source/StatisticsFunctions/arm_std_q15.c ****     sum += ((in32 << 16U) >> 16U);
 100:./Libraries/CMSIS/DSP/Source/StatisticsFunctions/arm_std_q15.c ****     sum +=  (in32 >> 16U);
 101:./Libraries/CMSIS/DSP/Source/StatisticsFunctions/arm_std_q15.c **** #else
 102:./Libraries/CMSIS/DSP/Source/StatisticsFunctions/arm_std_q15.c ****     in = *pSrc++;
 103:./Libraries/CMSIS/DSP/Source/StatisticsFunctions/arm_std_q15.c ****     sumOfSquares += (in * in);
 104:./Libraries/CMSIS/DSP/Source/StatisticsFunctions/arm_std_q15.c ****     sum += in;
 105:./Libraries/CMSIS/DSP/Source/StatisticsFunctions/arm_std_q15.c **** 
 106:./Libraries/CMSIS/DSP/Source/StatisticsFunctions/arm_std_q15.c ****     in = *pSrc++;
ARM GAS  /tmp/ccLLOD7t.s 			page 4


 107:./Libraries/CMSIS/DSP/Source/StatisticsFunctions/arm_std_q15.c ****     sumOfSquares += (in * in);
 108:./Libraries/CMSIS/DSP/Source/StatisticsFunctions/arm_std_q15.c ****     sum += in;
 109:./Libraries/CMSIS/DSP/Source/StatisticsFunctions/arm_std_q15.c **** 
 110:./Libraries/CMSIS/DSP/Source/StatisticsFunctions/arm_std_q15.c ****     in = *pSrc++;
 111:./Libraries/CMSIS/DSP/Source/StatisticsFunctions/arm_std_q15.c ****     sumOfSquares += (in * in);
 112:./Libraries/CMSIS/DSP/Source/StatisticsFunctions/arm_std_q15.c ****     sum += in;
 113:./Libraries/CMSIS/DSP/Source/StatisticsFunctions/arm_std_q15.c **** 
 114:./Libraries/CMSIS/DSP/Source/StatisticsFunctions/arm_std_q15.c ****     in = *pSrc++;
 115:./Libraries/CMSIS/DSP/Source/StatisticsFunctions/arm_std_q15.c ****     sumOfSquares += (in * in);
 116:./Libraries/CMSIS/DSP/Source/StatisticsFunctions/arm_std_q15.c ****     sum += in;
 117:./Libraries/CMSIS/DSP/Source/StatisticsFunctions/arm_std_q15.c **** #endif /* #if defined (ARM_MATH_DSP) */
 118:./Libraries/CMSIS/DSP/Source/StatisticsFunctions/arm_std_q15.c **** 
 119:./Libraries/CMSIS/DSP/Source/StatisticsFunctions/arm_std_q15.c ****     /* Decrement loop counter */
 120:./Libraries/CMSIS/DSP/Source/StatisticsFunctions/arm_std_q15.c ****     blkCnt--;
 121:./Libraries/CMSIS/DSP/Source/StatisticsFunctions/arm_std_q15.c ****   }
 122:./Libraries/CMSIS/DSP/Source/StatisticsFunctions/arm_std_q15.c **** 
 123:./Libraries/CMSIS/DSP/Source/StatisticsFunctions/arm_std_q15.c ****   /* Loop unrolling: Compute remaining outputs */
 124:./Libraries/CMSIS/DSP/Source/StatisticsFunctions/arm_std_q15.c ****   blkCnt = blockSize % 0x4U;
 125:./Libraries/CMSIS/DSP/Source/StatisticsFunctions/arm_std_q15.c **** 
 126:./Libraries/CMSIS/DSP/Source/StatisticsFunctions/arm_std_q15.c **** #else
 127:./Libraries/CMSIS/DSP/Source/StatisticsFunctions/arm_std_q15.c **** 
 128:./Libraries/CMSIS/DSP/Source/StatisticsFunctions/arm_std_q15.c ****   /* Initialize blkCnt with number of samples */
 129:./Libraries/CMSIS/DSP/Source/StatisticsFunctions/arm_std_q15.c ****   blkCnt = blockSize;
  67              		.loc 1 129 10
  68 002a BB68     		ldr	r3, [r7, #8]
  69 002c 7B63     		str	r3, [r7, #52]
 130:./Libraries/CMSIS/DSP/Source/StatisticsFunctions/arm_std_q15.c **** 
 131:./Libraries/CMSIS/DSP/Source/StatisticsFunctions/arm_std_q15.c **** #endif /* #if defined (ARM_MATH_LOOPUNROLL) */
 132:./Libraries/CMSIS/DSP/Source/StatisticsFunctions/arm_std_q15.c **** 
 133:./Libraries/CMSIS/DSP/Source/StatisticsFunctions/arm_std_q15.c ****   while (blkCnt > 0U)
  70              		.loc 1 133 9
  71 002e 1CE0     		b	.L4
  72              	.L5:
 134:./Libraries/CMSIS/DSP/Source/StatisticsFunctions/arm_std_q15.c ****   {
 135:./Libraries/CMSIS/DSP/Source/StatisticsFunctions/arm_std_q15.c ****     /* C = A[0] * A[0] + A[1] * A[1] + ... + A[blockSize-1] * A[blockSize-1] */
 136:./Libraries/CMSIS/DSP/Source/StatisticsFunctions/arm_std_q15.c ****     /* C = A[0] + A[1] + ... + A[blockSize-1] */
 137:./Libraries/CMSIS/DSP/Source/StatisticsFunctions/arm_std_q15.c **** 
 138:./Libraries/CMSIS/DSP/Source/StatisticsFunctions/arm_std_q15.c ****     in = *pSrc++;
  73              		.loc 1 138 15
  74 0030 FB68     		ldr	r3, [r7, #12]
  75 0032 9A1C     		adds	r2, r3, #2
  76 0034 FA60     		str	r2, [r7, #12]
  77              		.loc 1 138 8
  78 0036 1B88     		ldrh	r3, [r3]	@ movhi
  79 0038 FB82     		strh	r3, [r7, #22]	@ movhi
 139:./Libraries/CMSIS/DSP/Source/StatisticsFunctions/arm_std_q15.c ****     /* Compute sum of squares and store result in a temporary variable, sumOfSquares. */
 140:./Libraries/CMSIS/DSP/Source/StatisticsFunctions/arm_std_q15.c ****     sumOfSquares += (in * in);
  80              		.loc 1 140 25
  81 003a B7F91630 		ldrsh	r3, [r7, #22]
  82 003e B7F91620 		ldrsh	r2, [r7, #22]
  83 0042 02FB03F3 		mul	r3, r2, r3
  84 0046 1A46     		mov	r2, r3
  85 0048 4FEAE273 		asr	r3, r2, #31
  86              		.loc 1 140 18
  87 004c D7E90A01 		ldrd	r0, [r7, #40]
  88 0050 8418     		adds	r4, r0, r2
  89 0052 41EB0305 		adc	r5, r1, r3
ARM GAS  /tmp/ccLLOD7t.s 			page 5


  90 0056 C7E90A45 		strd	r4, [r7, #40]
 141:./Libraries/CMSIS/DSP/Source/StatisticsFunctions/arm_std_q15.c ****     /* Compute sum and store result in a temporary variable, sum. */
 142:./Libraries/CMSIS/DSP/Source/StatisticsFunctions/arm_std_q15.c ****     sum += in;
  91              		.loc 1 142 9
  92 005a B7F91630 		ldrsh	r3, [r7, #22]
  93 005e 3A6B     		ldr	r2, [r7, #48]
  94 0060 1344     		add	r3, r3, r2
  95 0062 3B63     		str	r3, [r7, #48]
 143:./Libraries/CMSIS/DSP/Source/StatisticsFunctions/arm_std_q15.c **** 
 144:./Libraries/CMSIS/DSP/Source/StatisticsFunctions/arm_std_q15.c ****     /* Decrement loop counter */
 145:./Libraries/CMSIS/DSP/Source/StatisticsFunctions/arm_std_q15.c ****     blkCnt--;
  96              		.loc 1 145 11
  97 0064 7B6B     		ldr	r3, [r7, #52]
  98 0066 013B     		subs	r3, r3, #1
  99 0068 7B63     		str	r3, [r7, #52]
 100              	.L4:
 133:./Libraries/CMSIS/DSP/Source/StatisticsFunctions/arm_std_q15.c ****   {
 101              		.loc 1 133 9
 102 006a 7B6B     		ldr	r3, [r7, #52]
 103 006c 002B     		cmp	r3, #0
 104 006e DFD1     		bne	.L5
 146:./Libraries/CMSIS/DSP/Source/StatisticsFunctions/arm_std_q15.c ****   }
 147:./Libraries/CMSIS/DSP/Source/StatisticsFunctions/arm_std_q15.c **** 
 148:./Libraries/CMSIS/DSP/Source/StatisticsFunctions/arm_std_q15.c ****   /* Compute Mean of squares and store result in a temporary variable, meanOfSquares. */
 149:./Libraries/CMSIS/DSP/Source/StatisticsFunctions/arm_std_q15.c ****   meanOfSquares = (q31_t) (sumOfSquares / (q63_t)(blockSize - 1U));
 105              		.loc 1 149 61
 106 0070 BB68     		ldr	r3, [r7, #8]
 107 0072 013B     		subs	r3, r3, #1
 108              		.loc 1 149 43
 109 0074 1A46     		mov	r2, r3
 110 0076 4FF00003 		mov	r3, #0
 111              		.loc 1 149 41
 112 007a D7E90A01 		ldrd	r0, [r7, #40]
 113 007e FFF7FEFF 		bl	__aeabi_ldivmod
 114              	.LVL0:
 115 0082 0246     		mov	r2, r0
 116 0084 0B46     		mov	r3, r1
 117              		.loc 1 149 17
 118 0086 1346     		mov	r3, r2
 119 0088 7B62     		str	r3, [r7, #36]
 150:./Libraries/CMSIS/DSP/Source/StatisticsFunctions/arm_std_q15.c **** 
 151:./Libraries/CMSIS/DSP/Source/StatisticsFunctions/arm_std_q15.c ****   /* Compute square of mean */
 152:./Libraries/CMSIS/DSP/Source/StatisticsFunctions/arm_std_q15.c ****   squareOfMean = (q31_t) ((q63_t) sum * sum / (q63_t)(blockSize * (blockSize - 1U)));
 120              		.loc 1 152 27
 121 008a 3B6B     		ldr	r3, [r7, #48]
 122 008c 1846     		mov	r0, r3
 123 008e 4FEAE071 		asr	r1, r0, #31
 124              		.loc 1 152 39
 125 0092 3B6B     		ldr	r3, [r7, #48]
 126 0094 1A46     		mov	r2, r3
 127 0096 4FEAE273 		asr	r3, r2, #31
 128 009a 02FB01F5 		mul	r5, r2, r1
 129 009e 00FB03F4 		mul	r4, r0, r3
 130 00a2 2C44     		add	r4, r4, r5
 131 00a4 A0FB0201 		umull	r0, r1, r0, r2
 132 00a8 6318     		adds	r3, r4, r1
 133 00aa 1946     		mov	r1, r3
ARM GAS  /tmp/ccLLOD7t.s 			page 6


 134              		.loc 1 152 78
 135 00ac BB68     		ldr	r3, [r7, #8]
 136 00ae 013B     		subs	r3, r3, #1
 137              		.loc 1 152 65
 138 00b0 BA68     		ldr	r2, [r7, #8]
 139 00b2 02FB03F3 		mul	r3, r2, r3
 140              		.loc 1 152 47
 141 00b6 1A46     		mov	r2, r3
 142 00b8 4FF00003 		mov	r3, #0
 143              		.loc 1 152 45
 144 00bc FFF7FEFF 		bl	__aeabi_ldivmod
 145              	.LVL1:
 146 00c0 0246     		mov	r2, r0
 147 00c2 0B46     		mov	r3, r1
 148              		.loc 1 152 16
 149 00c4 1346     		mov	r3, r2
 150 00c6 3B62     		str	r3, [r7, #32]
 151              	.LBB2:
 153:./Libraries/CMSIS/DSP/Source/StatisticsFunctions/arm_std_q15.c **** 
 154:./Libraries/CMSIS/DSP/Source/StatisticsFunctions/arm_std_q15.c ****   /* mean of squares minus the square of mean. */
 155:./Libraries/CMSIS/DSP/Source/StatisticsFunctions/arm_std_q15.c ****   /* Compute standard deviation and store result in destination */
 156:./Libraries/CMSIS/DSP/Source/StatisticsFunctions/arm_std_q15.c ****   arm_sqrt_q15(__SSAT((meanOfSquares - squareOfMean) >> 15U, 16U), pResult);
 152              		.loc 1 156 16
 153 00c8 7A6A     		ldr	r2, [r7, #36]
 154 00ca 3B6A     		ldr	r3, [r7, #32]
 155 00cc D31A     		subs	r3, r2, r3
 156 00ce DB13     		asrs	r3, r3, #15
 157 00d0 FB61     		str	r3, [r7, #28]
 158 00d2 FB69     		ldr	r3, [r7, #28]
 159              		.syntax unified
 160              	@ 156 "./Libraries/CMSIS/DSP/Source/StatisticsFunctions/arm_std_q15.c" 1
 161 00d4 03F30F03 		ssat r3, #16, r3
 162              	@ 0 "" 2
 163              		.thumb
 164              		.syntax unified
 165 00d8 BB61     		str	r3, [r7, #24]
 166 00da BB69     		ldr	r3, [r7, #24]
 167              	.LBE2:
 168              		.loc 1 156 3
 169 00dc 1BB2     		sxth	r3, r3
 170 00de 7968     		ldr	r1, [r7, #4]
 171 00e0 1846     		mov	r0, r3
 172 00e2 FFF7FEFF 		bl	arm_sqrt_q15
 173              	.L1:
 157:./Libraries/CMSIS/DSP/Source/StatisticsFunctions/arm_std_q15.c **** }
 174              		.loc 1 157 1
 175 00e6 3837     		adds	r7, r7, #56
 176              	.LCFI3:
 177              		.cfi_def_cfa_offset 16
 178 00e8 BD46     		mov	sp, r7
 179              	.LCFI4:
 180              		.cfi_def_cfa_register 13
 181              		@ sp needed
 182 00ea B0BD     		pop	{r4, r5, r7, pc}
 183              		.cfi_endproc
 184              	.LFE145:
 186              		.text
ARM GAS  /tmp/ccLLOD7t.s 			page 7


 187              	.Letext0:
 188              		.file 2 "/usr/lib/gcc/arm-none-eabi/9.2.1/include/stdint.h"
 189              		.file 3 "/usr/lib/gcc/arm-none-eabi/9.2.1/include/stddef.h"
 190              		.file 4 "/usr/include/newlib/sys/_types.h"
 191              		.file 5 "/usr/include/newlib/sys/reent.h"
 192              		.file 6 "/usr/include/newlib/sys/lock.h"
 193              		.file 7 "/usr/include/newlib/math.h"
 194              		.file 8 "./Libraries/CMSIS/DSP/Include/arm_math.h"
ARM GAS  /tmp/ccLLOD7t.s 			page 8

