ARM GAS  /tmp/cciERsGJ.s 			page 1


   1              		.cpu cortex-m7
   2              		.eabi_attribute 28, 1
   3              		.eabi_attribute 20, 1
   4              		.eabi_attribute 21, 1
   5              		.eabi_attribute 23, 3
   6              		.eabi_attribute 24, 1
   7              		.eabi_attribute 25, 1
   8              		.eabi_attribute 26, 1
   9              		.eabi_attribute 30, 6
  10              		.eabi_attribute 34, 1
  11              		.eabi_attribute 18, 4
  12              		.file	"arm_power_q31.c"
  13              		.text
  14              	.Ltext0:
  15              		.cfi_sections	.debug_frame
  16              		.section	.text.arm_power_q31,"ax",%progbits
  17              		.align	1
  18              		.global	arm_power_q31
  19              		.arch armv7e-m
  20              		.syntax unified
  21              		.thumb
  22              		.thumb_func
  23              		.fpu fpv5-d16
  25              	arm_power_q31:
  26              	.LFB145:
  27              		.file 1 "./Libraries/CMSIS/DSP/Source/StatisticsFunctions/arm_power_q31.c"
   1:./Libraries/CMSIS/DSP/Source/StatisticsFunctions/arm_power_q31.c **** /* ----------------------------------------------------------------------
   2:./Libraries/CMSIS/DSP/Source/StatisticsFunctions/arm_power_q31.c ****  * Project:      CMSIS DSP Library
   3:./Libraries/CMSIS/DSP/Source/StatisticsFunctions/arm_power_q31.c ****  * Title:        arm_power_q31.c
   4:./Libraries/CMSIS/DSP/Source/StatisticsFunctions/arm_power_q31.c ****  * Description:  Sum of the squares of the elements of a Q31 vector
   5:./Libraries/CMSIS/DSP/Source/StatisticsFunctions/arm_power_q31.c ****  *
   6:./Libraries/CMSIS/DSP/Source/StatisticsFunctions/arm_power_q31.c ****  * $Date:        18. March 2019
   7:./Libraries/CMSIS/DSP/Source/StatisticsFunctions/arm_power_q31.c ****  * $Revision:    V1.6.0
   8:./Libraries/CMSIS/DSP/Source/StatisticsFunctions/arm_power_q31.c ****  *
   9:./Libraries/CMSIS/DSP/Source/StatisticsFunctions/arm_power_q31.c ****  * Target Processor: Cortex-M cores
  10:./Libraries/CMSIS/DSP/Source/StatisticsFunctions/arm_power_q31.c ****  * -------------------------------------------------------------------- */
  11:./Libraries/CMSIS/DSP/Source/StatisticsFunctions/arm_power_q31.c **** /*
  12:./Libraries/CMSIS/DSP/Source/StatisticsFunctions/arm_power_q31.c ****  * Copyright (C) 2010-2019 ARM Limited or its affiliates. All rights reserved.
  13:./Libraries/CMSIS/DSP/Source/StatisticsFunctions/arm_power_q31.c ****  *
  14:./Libraries/CMSIS/DSP/Source/StatisticsFunctions/arm_power_q31.c ****  * SPDX-License-Identifier: Apache-2.0
  15:./Libraries/CMSIS/DSP/Source/StatisticsFunctions/arm_power_q31.c ****  *
  16:./Libraries/CMSIS/DSP/Source/StatisticsFunctions/arm_power_q31.c ****  * Licensed under the Apache License, Version 2.0 (the License); you may
  17:./Libraries/CMSIS/DSP/Source/StatisticsFunctions/arm_power_q31.c ****  * not use this file except in compliance with the License.
  18:./Libraries/CMSIS/DSP/Source/StatisticsFunctions/arm_power_q31.c ****  * You may obtain a copy of the License at
  19:./Libraries/CMSIS/DSP/Source/StatisticsFunctions/arm_power_q31.c ****  *
  20:./Libraries/CMSIS/DSP/Source/StatisticsFunctions/arm_power_q31.c ****  * www.apache.org/licenses/LICENSE-2.0
  21:./Libraries/CMSIS/DSP/Source/StatisticsFunctions/arm_power_q31.c ****  *
  22:./Libraries/CMSIS/DSP/Source/StatisticsFunctions/arm_power_q31.c ****  * Unless required by applicable law or agreed to in writing, software
  23:./Libraries/CMSIS/DSP/Source/StatisticsFunctions/arm_power_q31.c ****  * distributed under the License is distributed on an AS IS BASIS, WITHOUT
  24:./Libraries/CMSIS/DSP/Source/StatisticsFunctions/arm_power_q31.c ****  * WARRANTIES OR CONDITIONS OF ANY KIND, either express or implied.
  25:./Libraries/CMSIS/DSP/Source/StatisticsFunctions/arm_power_q31.c ****  * See the License for the specific language governing permissions and
  26:./Libraries/CMSIS/DSP/Source/StatisticsFunctions/arm_power_q31.c ****  * limitations under the License.
  27:./Libraries/CMSIS/DSP/Source/StatisticsFunctions/arm_power_q31.c ****  */
  28:./Libraries/CMSIS/DSP/Source/StatisticsFunctions/arm_power_q31.c **** 
  29:./Libraries/CMSIS/DSP/Source/StatisticsFunctions/arm_power_q31.c **** #include "arm_math.h"
  30:./Libraries/CMSIS/DSP/Source/StatisticsFunctions/arm_power_q31.c **** 
  31:./Libraries/CMSIS/DSP/Source/StatisticsFunctions/arm_power_q31.c **** /**
ARM GAS  /tmp/cciERsGJ.s 			page 2


  32:./Libraries/CMSIS/DSP/Source/StatisticsFunctions/arm_power_q31.c ****   @ingroup groupStats
  33:./Libraries/CMSIS/DSP/Source/StatisticsFunctions/arm_power_q31.c ****  */
  34:./Libraries/CMSIS/DSP/Source/StatisticsFunctions/arm_power_q31.c **** 
  35:./Libraries/CMSIS/DSP/Source/StatisticsFunctions/arm_power_q31.c **** /**
  36:./Libraries/CMSIS/DSP/Source/StatisticsFunctions/arm_power_q31.c ****   @addtogroup power
  37:./Libraries/CMSIS/DSP/Source/StatisticsFunctions/arm_power_q31.c ****   @{
  38:./Libraries/CMSIS/DSP/Source/StatisticsFunctions/arm_power_q31.c ****  */
  39:./Libraries/CMSIS/DSP/Source/StatisticsFunctions/arm_power_q31.c **** 
  40:./Libraries/CMSIS/DSP/Source/StatisticsFunctions/arm_power_q31.c **** /**
  41:./Libraries/CMSIS/DSP/Source/StatisticsFunctions/arm_power_q31.c ****   @brief         Sum of the squares of the elements of a Q31 vector.
  42:./Libraries/CMSIS/DSP/Source/StatisticsFunctions/arm_power_q31.c ****   @param[in]     pSrc       points to the input vector
  43:./Libraries/CMSIS/DSP/Source/StatisticsFunctions/arm_power_q31.c ****   @param[in]     blockSize  number of samples in input vector
  44:./Libraries/CMSIS/DSP/Source/StatisticsFunctions/arm_power_q31.c ****   @param[out]    pResult    sum of the squares value returned here
  45:./Libraries/CMSIS/DSP/Source/StatisticsFunctions/arm_power_q31.c ****   @return        none
  46:./Libraries/CMSIS/DSP/Source/StatisticsFunctions/arm_power_q31.c **** 
  47:./Libraries/CMSIS/DSP/Source/StatisticsFunctions/arm_power_q31.c ****   @par           Scaling and Overflow Behavior
  48:./Libraries/CMSIS/DSP/Source/StatisticsFunctions/arm_power_q31.c ****                    The function is implemented using a 64-bit internal accumulator.
  49:./Libraries/CMSIS/DSP/Source/StatisticsFunctions/arm_power_q31.c ****                    The input is represented in 1.31 format.
  50:./Libraries/CMSIS/DSP/Source/StatisticsFunctions/arm_power_q31.c ****                    Intermediate multiplication yields a 2.62 format, and this
  51:./Libraries/CMSIS/DSP/Source/StatisticsFunctions/arm_power_q31.c ****                    result is truncated to 2.48 format by discarding the lower 14 bits.
  52:./Libraries/CMSIS/DSP/Source/StatisticsFunctions/arm_power_q31.c ****                    The 2.48 result is then added without saturation to a 64-bit accumulator in 16.4
  53:./Libraries/CMSIS/DSP/Source/StatisticsFunctions/arm_power_q31.c ****                    With 15 guard bits in the accumulator, there is no risk of overflow, and the
  54:./Libraries/CMSIS/DSP/Source/StatisticsFunctions/arm_power_q31.c ****                    full precision of the intermediate multiplication is preserved.
  55:./Libraries/CMSIS/DSP/Source/StatisticsFunctions/arm_power_q31.c ****                    Finally, the return result is in 16.48 format.
  56:./Libraries/CMSIS/DSP/Source/StatisticsFunctions/arm_power_q31.c ****  */
  57:./Libraries/CMSIS/DSP/Source/StatisticsFunctions/arm_power_q31.c **** 
  58:./Libraries/CMSIS/DSP/Source/StatisticsFunctions/arm_power_q31.c **** void arm_power_q31(
  59:./Libraries/CMSIS/DSP/Source/StatisticsFunctions/arm_power_q31.c ****   const q31_t * pSrc,
  60:./Libraries/CMSIS/DSP/Source/StatisticsFunctions/arm_power_q31.c ****         uint32_t blockSize,
  61:./Libraries/CMSIS/DSP/Source/StatisticsFunctions/arm_power_q31.c ****         q63_t * pResult)
  62:./Libraries/CMSIS/DSP/Source/StatisticsFunctions/arm_power_q31.c **** {
  28              		.loc 1 62 1
  29              		.cfi_startproc
  30              		@ args = 0, pretend = 0, frame = 40
  31              		@ frame_needed = 1, uses_anonymous_args = 0
  32              		@ link register save eliminated.
  33 0000 F0B4     		push	{r4, r5, r6, r7}
  34              	.LCFI0:
  35              		.cfi_def_cfa_offset 16
  36              		.cfi_offset 4, -16
  37              		.cfi_offset 5, -12
  38              		.cfi_offset 6, -8
  39              		.cfi_offset 7, -4
  40 0002 8AB0     		sub	sp, sp, #40
  41              	.LCFI1:
  42              		.cfi_def_cfa_offset 56
  43 0004 00AF     		add	r7, sp, #0
  44              	.LCFI2:
  45              		.cfi_def_cfa_register 7
  46 0006 F860     		str	r0, [r7, #12]
  47 0008 B960     		str	r1, [r7, #8]
  48 000a 7A60     		str	r2, [r7, #4]
  63:./Libraries/CMSIS/DSP/Source/StatisticsFunctions/arm_power_q31.c ****         uint32_t blkCnt;                               /* Loop counter */
  64:./Libraries/CMSIS/DSP/Source/StatisticsFunctions/arm_power_q31.c ****         q63_t sum = 0;                                 /* Temporary result storage */
  49              		.loc 1 64 15
  50 000c 4FF00002 		mov	r2, #0
  51 0010 4FF00003 		mov	r3, #0
ARM GAS  /tmp/cciERsGJ.s 			page 3


  52 0014 C7E90623 		strd	r2, [r7, #24]
  65:./Libraries/CMSIS/DSP/Source/StatisticsFunctions/arm_power_q31.c ****         q31_t in;                                      /* Temporary variable to store input value *
  66:./Libraries/CMSIS/DSP/Source/StatisticsFunctions/arm_power_q31.c **** 
  67:./Libraries/CMSIS/DSP/Source/StatisticsFunctions/arm_power_q31.c **** #if defined (ARM_MATH_LOOPUNROLL)
  68:./Libraries/CMSIS/DSP/Source/StatisticsFunctions/arm_power_q31.c **** 
  69:./Libraries/CMSIS/DSP/Source/StatisticsFunctions/arm_power_q31.c ****   /* Loop unrolling: Compute 4 outputs at a time */
  70:./Libraries/CMSIS/DSP/Source/StatisticsFunctions/arm_power_q31.c ****   blkCnt = blockSize >> 2U;
  71:./Libraries/CMSIS/DSP/Source/StatisticsFunctions/arm_power_q31.c **** 
  72:./Libraries/CMSIS/DSP/Source/StatisticsFunctions/arm_power_q31.c ****   while (blkCnt > 0U)
  73:./Libraries/CMSIS/DSP/Source/StatisticsFunctions/arm_power_q31.c ****   {
  74:./Libraries/CMSIS/DSP/Source/StatisticsFunctions/arm_power_q31.c ****     /* C = A[0] * A[0] + A[1] * A[1] + ... + A[blockSize-1] * A[blockSize-1] */
  75:./Libraries/CMSIS/DSP/Source/StatisticsFunctions/arm_power_q31.c **** 
  76:./Libraries/CMSIS/DSP/Source/StatisticsFunctions/arm_power_q31.c ****     /* Compute Power then shift intermediate results by 14 bits to maintain 16.48 format and store 
  77:./Libraries/CMSIS/DSP/Source/StatisticsFunctions/arm_power_q31.c ****     in = *pSrc++;
  78:./Libraries/CMSIS/DSP/Source/StatisticsFunctions/arm_power_q31.c ****     sum += ((q63_t) in * in) >> 14U;
  79:./Libraries/CMSIS/DSP/Source/StatisticsFunctions/arm_power_q31.c **** 
  80:./Libraries/CMSIS/DSP/Source/StatisticsFunctions/arm_power_q31.c ****     in = *pSrc++;
  81:./Libraries/CMSIS/DSP/Source/StatisticsFunctions/arm_power_q31.c ****     sum += ((q63_t) in * in) >> 14U;
  82:./Libraries/CMSIS/DSP/Source/StatisticsFunctions/arm_power_q31.c **** 
  83:./Libraries/CMSIS/DSP/Source/StatisticsFunctions/arm_power_q31.c ****     in = *pSrc++;
  84:./Libraries/CMSIS/DSP/Source/StatisticsFunctions/arm_power_q31.c ****     sum += ((q63_t) in * in) >> 14U;
  85:./Libraries/CMSIS/DSP/Source/StatisticsFunctions/arm_power_q31.c **** 
  86:./Libraries/CMSIS/DSP/Source/StatisticsFunctions/arm_power_q31.c ****     in = *pSrc++;
  87:./Libraries/CMSIS/DSP/Source/StatisticsFunctions/arm_power_q31.c ****     sum += ((q63_t) in * in) >> 14U;
  88:./Libraries/CMSIS/DSP/Source/StatisticsFunctions/arm_power_q31.c **** 
  89:./Libraries/CMSIS/DSP/Source/StatisticsFunctions/arm_power_q31.c ****     /* Decrement loop counter */
  90:./Libraries/CMSIS/DSP/Source/StatisticsFunctions/arm_power_q31.c ****     blkCnt--;
  91:./Libraries/CMSIS/DSP/Source/StatisticsFunctions/arm_power_q31.c ****   }
  92:./Libraries/CMSIS/DSP/Source/StatisticsFunctions/arm_power_q31.c **** 
  93:./Libraries/CMSIS/DSP/Source/StatisticsFunctions/arm_power_q31.c ****   /* Loop unrolling: Compute remaining outputs */
  94:./Libraries/CMSIS/DSP/Source/StatisticsFunctions/arm_power_q31.c ****   blkCnt = blockSize % 0x4U;
  95:./Libraries/CMSIS/DSP/Source/StatisticsFunctions/arm_power_q31.c **** 
  96:./Libraries/CMSIS/DSP/Source/StatisticsFunctions/arm_power_q31.c **** #else
  97:./Libraries/CMSIS/DSP/Source/StatisticsFunctions/arm_power_q31.c **** 
  98:./Libraries/CMSIS/DSP/Source/StatisticsFunctions/arm_power_q31.c ****   /* Initialize blkCnt with number of samples */
  99:./Libraries/CMSIS/DSP/Source/StatisticsFunctions/arm_power_q31.c ****   blkCnt = blockSize;
  53              		.loc 1 99 10
  54 0018 BB68     		ldr	r3, [r7, #8]
  55 001a 7B62     		str	r3, [r7, #36]
 100:./Libraries/CMSIS/DSP/Source/StatisticsFunctions/arm_power_q31.c **** 
 101:./Libraries/CMSIS/DSP/Source/StatisticsFunctions/arm_power_q31.c **** #endif /* #if defined (ARM_MATH_LOOPUNROLL) */
 102:./Libraries/CMSIS/DSP/Source/StatisticsFunctions/arm_power_q31.c **** 
 103:./Libraries/CMSIS/DSP/Source/StatisticsFunctions/arm_power_q31.c ****   while (blkCnt > 0U)
  56              		.loc 1 103 9
  57 001c 27E0     		b	.L2
  58              	.L3:
 104:./Libraries/CMSIS/DSP/Source/StatisticsFunctions/arm_power_q31.c ****   {
 105:./Libraries/CMSIS/DSP/Source/StatisticsFunctions/arm_power_q31.c ****     /* C = A[0] * A[0] + A[1] * A[1] + ... + A[blockSize-1] * A[blockSize-1] */
 106:./Libraries/CMSIS/DSP/Source/StatisticsFunctions/arm_power_q31.c **** 
 107:./Libraries/CMSIS/DSP/Source/StatisticsFunctions/arm_power_q31.c ****     /* Compute Power and store result in a temporary variable, sum. */
 108:./Libraries/CMSIS/DSP/Source/StatisticsFunctions/arm_power_q31.c ****     in = *pSrc++;
  59              		.loc 1 108 15
  60 001e FB68     		ldr	r3, [r7, #12]
  61 0020 1A1D     		adds	r2, r3, #4
  62 0022 FA60     		str	r2, [r7, #12]
  63              		.loc 1 108 8
  64 0024 1B68     		ldr	r3, [r3]
ARM GAS  /tmp/cciERsGJ.s 			page 4


  65 0026 7B61     		str	r3, [r7, #20]
 109:./Libraries/CMSIS/DSP/Source/StatisticsFunctions/arm_power_q31.c ****     sum += ((q63_t) in * in) >> 14U;
  66              		.loc 1 109 13
  67 0028 7B69     		ldr	r3, [r7, #20]
  68 002a 1846     		mov	r0, r3
  69 002c 4FEAE071 		asr	r1, r0, #31
  70              		.loc 1 109 24
  71 0030 7B69     		ldr	r3, [r7, #20]
  72 0032 1A46     		mov	r2, r3
  73 0034 4FEAE273 		asr	r3, r2, #31
  74 0038 02FB01FC 		mul	ip, r2, r1
  75 003c 00FB03F6 		mul	r6, r0, r3
  76 0040 6644     		add	r6, r6, ip
  77 0042 A0FB0201 		umull	r0, r1, r0, r2
  78 0046 7318     		adds	r3, r6, r1
  79 0048 1946     		mov	r1, r3
  80              		.loc 1 109 30
  81 004a 4FF00002 		mov	r2, #0
  82 004e 4FF00003 		mov	r3, #0
  83 0052 820B     		lsrs	r2, r0, #14
  84 0054 42EA8142 		orr	r2, r2, r1, lsl #18
  85 0058 8B13     		asrs	r3, r1, #14
  86              		.loc 1 109 9
  87 005a D7E90601 		ldrd	r0, [r7, #24]
  88 005e 8418     		adds	r4, r0, r2
  89 0060 41EB0305 		adc	r5, r1, r3
  90 0064 C7E90645 		strd	r4, [r7, #24]
 110:./Libraries/CMSIS/DSP/Source/StatisticsFunctions/arm_power_q31.c **** 
 111:./Libraries/CMSIS/DSP/Source/StatisticsFunctions/arm_power_q31.c ****     /* Decrement loop counter */
 112:./Libraries/CMSIS/DSP/Source/StatisticsFunctions/arm_power_q31.c ****     blkCnt--;
  91              		.loc 1 112 11
  92 0068 7B6A     		ldr	r3, [r7, #36]
  93 006a 013B     		subs	r3, r3, #1
  94 006c 7B62     		str	r3, [r7, #36]
  95              	.L2:
 103:./Libraries/CMSIS/DSP/Source/StatisticsFunctions/arm_power_q31.c ****   {
  96              		.loc 1 103 9
  97 006e 7B6A     		ldr	r3, [r7, #36]
  98 0070 002B     		cmp	r3, #0
  99 0072 D4D1     		bne	.L3
 113:./Libraries/CMSIS/DSP/Source/StatisticsFunctions/arm_power_q31.c ****   }
 114:./Libraries/CMSIS/DSP/Source/StatisticsFunctions/arm_power_q31.c **** 
 115:./Libraries/CMSIS/DSP/Source/StatisticsFunctions/arm_power_q31.c ****   /* Store results in 16.48 format */
 116:./Libraries/CMSIS/DSP/Source/StatisticsFunctions/arm_power_q31.c ****   *pResult = sum;
 100              		.loc 1 116 12
 101 0074 7968     		ldr	r1, [r7, #4]
 102 0076 D7E90623 		ldrd	r2, [r7, #24]
 103 007a C1E90023 		strd	r2, [r1]
 117:./Libraries/CMSIS/DSP/Source/StatisticsFunctions/arm_power_q31.c **** }
 104              		.loc 1 117 1
 105 007e 00BF     		nop
 106 0080 2837     		adds	r7, r7, #40
 107              	.LCFI3:
 108              		.cfi_def_cfa_offset 16
 109 0082 BD46     		mov	sp, r7
 110              	.LCFI4:
 111              		.cfi_def_cfa_register 13
ARM GAS  /tmp/cciERsGJ.s 			page 5


 112              		@ sp needed
 113 0084 F0BC     		pop	{r4, r5, r6, r7}
 114              	.LCFI5:
 115              		.cfi_restore 7
 116              		.cfi_restore 6
 117              		.cfi_restore 5
 118              		.cfi_restore 4
 119              		.cfi_def_cfa_offset 0
 120 0086 7047     		bx	lr
 121              		.cfi_endproc
 122              	.LFE145:
 124              		.text
 125              	.Letext0:
 126              		.file 2 "/usr/lib/gcc/arm-none-eabi/9.2.1/include/stdint.h"
 127              		.file 3 "/usr/lib/gcc/arm-none-eabi/9.2.1/include/stddef.h"
 128              		.file 4 "/usr/include/newlib/sys/_types.h"
 129              		.file 5 "/usr/include/newlib/sys/reent.h"
 130              		.file 6 "/usr/include/newlib/sys/lock.h"
 131              		.file 7 "/usr/include/newlib/math.h"
 132              		.file 8 "./Libraries/CMSIS/DSP/Include/arm_math.h"
ARM GAS  /tmp/cciERsGJ.s 			page 6

