ARM GAS  /tmp/ccArubV8.s 			page 1


   1              		.cpu cortex-m7
   2              		.eabi_attribute 28, 1
   3              		.eabi_attribute 20, 1
   4              		.eabi_attribute 21, 1
   5              		.eabi_attribute 23, 3
   6              		.eabi_attribute 24, 1
   7              		.eabi_attribute 25, 1
   8              		.eabi_attribute 26, 1
   9              		.eabi_attribute 30, 6
  10              		.eabi_attribute 34, 1
  11              		.eabi_attribute 18, 4
  12              		.file	"arm_fir_q15.c"
  13              		.text
  14              	.Ltext0:
  15              		.cfi_sections	.debug_frame
  16              		.section	.text.arm_fir_q15,"ax",%progbits
  17              		.align	1
  18              		.global	arm_fir_q15
  19              		.arch armv7e-m
  20              		.syntax unified
  21              		.thumb
  22              		.thumb_func
  23              		.fpu fpv5-d16
  25              	arm_fir_q15:
  26              	.LFB145:
  27              		.file 1 "./Libraries/CMSIS/DSP/Source/FilteringFunctions/arm_fir_q15.c"
   1:./Libraries/CMSIS/DSP/Source/FilteringFunctions/arm_fir_q15.c **** /* ----------------------------------------------------------------------
   2:./Libraries/CMSIS/DSP/Source/FilteringFunctions/arm_fir_q15.c ****  * Project:      CMSIS DSP Library
   3:./Libraries/CMSIS/DSP/Source/FilteringFunctions/arm_fir_q15.c ****  * Title:        arm_fir_q15.c
   4:./Libraries/CMSIS/DSP/Source/FilteringFunctions/arm_fir_q15.c ****  * Description:  Q15 FIR filter processing function
   5:./Libraries/CMSIS/DSP/Source/FilteringFunctions/arm_fir_q15.c ****  *
   6:./Libraries/CMSIS/DSP/Source/FilteringFunctions/arm_fir_q15.c ****  * $Date:        18. March 2019
   7:./Libraries/CMSIS/DSP/Source/FilteringFunctions/arm_fir_q15.c ****  * $Revision:    V1.6.0
   8:./Libraries/CMSIS/DSP/Source/FilteringFunctions/arm_fir_q15.c ****  *
   9:./Libraries/CMSIS/DSP/Source/FilteringFunctions/arm_fir_q15.c ****  * Target Processor: Cortex-M cores
  10:./Libraries/CMSIS/DSP/Source/FilteringFunctions/arm_fir_q15.c ****  * -------------------------------------------------------------------- */
  11:./Libraries/CMSIS/DSP/Source/FilteringFunctions/arm_fir_q15.c **** /*
  12:./Libraries/CMSIS/DSP/Source/FilteringFunctions/arm_fir_q15.c ****  * Copyright (C) 2010-2019 ARM Limited or its affiliates. All rights reserved.
  13:./Libraries/CMSIS/DSP/Source/FilteringFunctions/arm_fir_q15.c ****  *
  14:./Libraries/CMSIS/DSP/Source/FilteringFunctions/arm_fir_q15.c ****  * SPDX-License-Identifier: Apache-2.0
  15:./Libraries/CMSIS/DSP/Source/FilteringFunctions/arm_fir_q15.c ****  *
  16:./Libraries/CMSIS/DSP/Source/FilteringFunctions/arm_fir_q15.c ****  * Licensed under the Apache License, Version 2.0 (the License); you may
  17:./Libraries/CMSIS/DSP/Source/FilteringFunctions/arm_fir_q15.c ****  * not use this file except in compliance with the License.
  18:./Libraries/CMSIS/DSP/Source/FilteringFunctions/arm_fir_q15.c ****  * You may obtain a copy of the License at
  19:./Libraries/CMSIS/DSP/Source/FilteringFunctions/arm_fir_q15.c ****  *
  20:./Libraries/CMSIS/DSP/Source/FilteringFunctions/arm_fir_q15.c ****  * www.apache.org/licenses/LICENSE-2.0
  21:./Libraries/CMSIS/DSP/Source/FilteringFunctions/arm_fir_q15.c ****  *
  22:./Libraries/CMSIS/DSP/Source/FilteringFunctions/arm_fir_q15.c ****  * Unless required by applicable law or agreed to in writing, software
  23:./Libraries/CMSIS/DSP/Source/FilteringFunctions/arm_fir_q15.c ****  * distributed under the License is distributed on an AS IS BASIS, WITHOUT
  24:./Libraries/CMSIS/DSP/Source/FilteringFunctions/arm_fir_q15.c ****  * WARRANTIES OR CONDITIONS OF ANY KIND, either express or implied.
  25:./Libraries/CMSIS/DSP/Source/FilteringFunctions/arm_fir_q15.c ****  * See the License for the specific language governing permissions and
  26:./Libraries/CMSIS/DSP/Source/FilteringFunctions/arm_fir_q15.c ****  * limitations under the License.
  27:./Libraries/CMSIS/DSP/Source/FilteringFunctions/arm_fir_q15.c ****  */
  28:./Libraries/CMSIS/DSP/Source/FilteringFunctions/arm_fir_q15.c **** 
  29:./Libraries/CMSIS/DSP/Source/FilteringFunctions/arm_fir_q15.c **** #include "arm_math.h"
  30:./Libraries/CMSIS/DSP/Source/FilteringFunctions/arm_fir_q15.c **** 
  31:./Libraries/CMSIS/DSP/Source/FilteringFunctions/arm_fir_q15.c **** /**
ARM GAS  /tmp/ccArubV8.s 			page 2


  32:./Libraries/CMSIS/DSP/Source/FilteringFunctions/arm_fir_q15.c ****   @ingroup groupFilters
  33:./Libraries/CMSIS/DSP/Source/FilteringFunctions/arm_fir_q15.c ****  */
  34:./Libraries/CMSIS/DSP/Source/FilteringFunctions/arm_fir_q15.c **** 
  35:./Libraries/CMSIS/DSP/Source/FilteringFunctions/arm_fir_q15.c **** /**
  36:./Libraries/CMSIS/DSP/Source/FilteringFunctions/arm_fir_q15.c ****   @addtogroup FIR
  37:./Libraries/CMSIS/DSP/Source/FilteringFunctions/arm_fir_q15.c ****   @{
  38:./Libraries/CMSIS/DSP/Source/FilteringFunctions/arm_fir_q15.c ****  */
  39:./Libraries/CMSIS/DSP/Source/FilteringFunctions/arm_fir_q15.c **** 
  40:./Libraries/CMSIS/DSP/Source/FilteringFunctions/arm_fir_q15.c **** /**
  41:./Libraries/CMSIS/DSP/Source/FilteringFunctions/arm_fir_q15.c ****   @brief         Processing function for the Q15 FIR filter.
  42:./Libraries/CMSIS/DSP/Source/FilteringFunctions/arm_fir_q15.c ****   @param[in]     S          points to an instance of the Q15 FIR filter structure
  43:./Libraries/CMSIS/DSP/Source/FilteringFunctions/arm_fir_q15.c ****   @param[in]     pSrc       points to the block of input data
  44:./Libraries/CMSIS/DSP/Source/FilteringFunctions/arm_fir_q15.c ****   @param[out]    pDst       points to the block of output data
  45:./Libraries/CMSIS/DSP/Source/FilteringFunctions/arm_fir_q15.c ****   @param[in]     blockSize  number of samples to process
  46:./Libraries/CMSIS/DSP/Source/FilteringFunctions/arm_fir_q15.c ****   @return        none
  47:./Libraries/CMSIS/DSP/Source/FilteringFunctions/arm_fir_q15.c **** 
  48:./Libraries/CMSIS/DSP/Source/FilteringFunctions/arm_fir_q15.c ****   @par           Scaling and Overflow Behavior
  49:./Libraries/CMSIS/DSP/Source/FilteringFunctions/arm_fir_q15.c ****                    The function is implemented using a 64-bit internal accumulator.
  50:./Libraries/CMSIS/DSP/Source/FilteringFunctions/arm_fir_q15.c ****                    Both coefficients and state variables are represented in 1.15 format and multipl
  51:./Libraries/CMSIS/DSP/Source/FilteringFunctions/arm_fir_q15.c ****                    The 2.30 intermediate results are accumulated in a 64-bit accumulator in 34.30 f
  52:./Libraries/CMSIS/DSP/Source/FilteringFunctions/arm_fir_q15.c ****                    There is no risk of internal overflow with this approach and the full precision 
  53:./Libraries/CMSIS/DSP/Source/FilteringFunctions/arm_fir_q15.c ****                    After all additions have been performed, the accumulator is truncated to 34.15 f
  54:./Libraries/CMSIS/DSP/Source/FilteringFunctions/arm_fir_q15.c ****                    Lastly, the accumulator is saturated to yield a result in 1.15 format.
  55:./Libraries/CMSIS/DSP/Source/FilteringFunctions/arm_fir_q15.c **** 
  56:./Libraries/CMSIS/DSP/Source/FilteringFunctions/arm_fir_q15.c ****   @remark
  57:./Libraries/CMSIS/DSP/Source/FilteringFunctions/arm_fir_q15.c ****                    Refer to \ref arm_fir_fast_q15() for a faster but less precise implementation of
  58:./Libraries/CMSIS/DSP/Source/FilteringFunctions/arm_fir_q15.c ****  */
  59:./Libraries/CMSIS/DSP/Source/FilteringFunctions/arm_fir_q15.c **** 
  60:./Libraries/CMSIS/DSP/Source/FilteringFunctions/arm_fir_q15.c **** void arm_fir_q15(
  61:./Libraries/CMSIS/DSP/Source/FilteringFunctions/arm_fir_q15.c ****   const arm_fir_instance_q15 * S,
  62:./Libraries/CMSIS/DSP/Source/FilteringFunctions/arm_fir_q15.c ****   const q15_t * pSrc,
  63:./Libraries/CMSIS/DSP/Source/FilteringFunctions/arm_fir_q15.c ****         q15_t * pDst,
  64:./Libraries/CMSIS/DSP/Source/FilteringFunctions/arm_fir_q15.c ****         uint32_t blockSize)
  65:./Libraries/CMSIS/DSP/Source/FilteringFunctions/arm_fir_q15.c **** {
  28              		.loc 1 65 1
  29              		.cfi_startproc
  30              		@ args = 0, pretend = 0, frame = 64
  31              		@ frame_needed = 1, uses_anonymous_args = 0
  32              		@ link register save eliminated.
  33 0000 2DE9B003 		push	{r4, r5, r7, r8, r9}
  34              	.LCFI0:
  35              		.cfi_def_cfa_offset 20
  36              		.cfi_offset 4, -20
  37              		.cfi_offset 5, -16
  38              		.cfi_offset 7, -12
  39              		.cfi_offset 8, -8
  40              		.cfi_offset 9, -4
  41 0004 91B0     		sub	sp, sp, #68
  42              	.LCFI1:
  43              		.cfi_def_cfa_offset 88
  44 0006 00AF     		add	r7, sp, #0
  45              	.LCFI2:
  46              		.cfi_def_cfa_register 7
  47 0008 F860     		str	r0, [r7, #12]
  48 000a B960     		str	r1, [r7, #8]
  49 000c 7A60     		str	r2, [r7, #4]
  50 000e 3B60     		str	r3, [r7]
ARM GAS  /tmp/ccArubV8.s 			page 3


  66:./Libraries/CMSIS/DSP/Source/FilteringFunctions/arm_fir_q15.c ****         q15_t *pState = S->pState;                     /* State pointer */
  51              		.loc 1 66 16
  52 0010 FB68     		ldr	r3, [r7, #12]
  53 0012 5B68     		ldr	r3, [r3, #4]
  54 0014 FB63     		str	r3, [r7, #60]
  67:./Libraries/CMSIS/DSP/Source/FilteringFunctions/arm_fir_q15.c ****   const q15_t *pCoeffs = S->pCoeffs;                   /* Coefficient pointer */
  55              		.loc 1 67 16
  56 0016 FB68     		ldr	r3, [r7, #12]
  57 0018 9B68     		ldr	r3, [r3, #8]
  58 001a FB61     		str	r3, [r7, #28]
  68:./Libraries/CMSIS/DSP/Source/FilteringFunctions/arm_fir_q15.c ****         q15_t *pStateCurnt;                            /* Points to the current sample of the state
  69:./Libraries/CMSIS/DSP/Source/FilteringFunctions/arm_fir_q15.c ****         q15_t *px;                                     /* Temporary pointer for state buffer */
  70:./Libraries/CMSIS/DSP/Source/FilteringFunctions/arm_fir_q15.c ****   const q15_t *pb;                                     /* Temporary pointer for coefficient buffer 
  71:./Libraries/CMSIS/DSP/Source/FilteringFunctions/arm_fir_q15.c ****         q63_t acc0;                                    /* Accumulators */
  72:./Libraries/CMSIS/DSP/Source/FilteringFunctions/arm_fir_q15.c ****         uint32_t numTaps = S->numTaps;                 /* Number of filter coefficients in the filt
  59              		.loc 1 72 29
  60 001c FB68     		ldr	r3, [r7, #12]
  61 001e 1B88     		ldrh	r3, [r3]
  62              		.loc 1 72 18
  63 0020 BB61     		str	r3, [r7, #24]
  73:./Libraries/CMSIS/DSP/Source/FilteringFunctions/arm_fir_q15.c ****         uint32_t tapCnt, blkCnt;                       /* Loop counters */
  74:./Libraries/CMSIS/DSP/Source/FilteringFunctions/arm_fir_q15.c **** 
  75:./Libraries/CMSIS/DSP/Source/FilteringFunctions/arm_fir_q15.c **** #if defined (ARM_MATH_LOOPUNROLL)
  76:./Libraries/CMSIS/DSP/Source/FilteringFunctions/arm_fir_q15.c ****         q63_t acc1, acc2, acc3;                        /* Accumulators */
  77:./Libraries/CMSIS/DSP/Source/FilteringFunctions/arm_fir_q15.c ****         q31_t x0, x1, x2, c0;                          /* Temporary variables to hold state and coe
  78:./Libraries/CMSIS/DSP/Source/FilteringFunctions/arm_fir_q15.c **** #endif
  79:./Libraries/CMSIS/DSP/Source/FilteringFunctions/arm_fir_q15.c **** 
  80:./Libraries/CMSIS/DSP/Source/FilteringFunctions/arm_fir_q15.c ****   /* S->pState points to state array which contains previous frame (numTaps - 1) samples */
  81:./Libraries/CMSIS/DSP/Source/FilteringFunctions/arm_fir_q15.c ****   /* pStateCurnt points to the location where the new input data should be written */
  82:./Libraries/CMSIS/DSP/Source/FilteringFunctions/arm_fir_q15.c ****   pStateCurnt = &(S->pState[(numTaps - 1U)]);
  64              		.loc 1 82 20
  65 0022 FB68     		ldr	r3, [r7, #12]
  66 0024 5A68     		ldr	r2, [r3, #4]
  67              		.loc 1 82 28
  68 0026 B969     		ldr	r1, [r7, #24]
  69 0028 6FF00043 		mvn	r3, #-2147483648
  70 002c 0B44     		add	r3, r3, r1
  71 002e 5B00     		lsls	r3, r3, #1
  72              		.loc 1 82 15
  73 0030 1344     		add	r3, r3, r2
  74 0032 BB63     		str	r3, [r7, #56]
  83:./Libraries/CMSIS/DSP/Source/FilteringFunctions/arm_fir_q15.c **** 
  84:./Libraries/CMSIS/DSP/Source/FilteringFunctions/arm_fir_q15.c **** #if defined (ARM_MATH_LOOPUNROLL)
  85:./Libraries/CMSIS/DSP/Source/FilteringFunctions/arm_fir_q15.c **** 
  86:./Libraries/CMSIS/DSP/Source/FilteringFunctions/arm_fir_q15.c ****   /* Loop unrolling: Compute 4 output values simultaneously.
  87:./Libraries/CMSIS/DSP/Source/FilteringFunctions/arm_fir_q15.c ****    * The variables acc0 ... acc3 hold output values that are being computed:
  88:./Libraries/CMSIS/DSP/Source/FilteringFunctions/arm_fir_q15.c ****    *
  89:./Libraries/CMSIS/DSP/Source/FilteringFunctions/arm_fir_q15.c ****    *    acc0 =  b[numTaps-1] * x[n-numTaps-1] + b[numTaps-2] * x[n-numTaps-2] + b[numTaps-3] * x[n-
  90:./Libraries/CMSIS/DSP/Source/FilteringFunctions/arm_fir_q15.c ****    *    acc1 =  b[numTaps-1] * x[n-numTaps]   + b[numTaps-2] * x[n-numTaps-1] + b[numTaps-3] * x[n-
  91:./Libraries/CMSIS/DSP/Source/FilteringFunctions/arm_fir_q15.c ****    *    acc2 =  b[numTaps-1] * x[n-numTaps+1] + b[numTaps-2] * x[n-numTaps]   + b[numTaps-3] * x[n-
  92:./Libraries/CMSIS/DSP/Source/FilteringFunctions/arm_fir_q15.c ****    *    acc3 =  b[numTaps-1] * x[n-numTaps+2] + b[numTaps-2] * x[n-numTaps+1] + b[numTaps-3] * x[n-
  93:./Libraries/CMSIS/DSP/Source/FilteringFunctions/arm_fir_q15.c ****    */
  94:./Libraries/CMSIS/DSP/Source/FilteringFunctions/arm_fir_q15.c ****   blkCnt = blockSize >> 2U;
  95:./Libraries/CMSIS/DSP/Source/FilteringFunctions/arm_fir_q15.c **** 
  96:./Libraries/CMSIS/DSP/Source/FilteringFunctions/arm_fir_q15.c ****   while (blkCnt > 0U)
  97:./Libraries/CMSIS/DSP/Source/FilteringFunctions/arm_fir_q15.c ****   {
  98:./Libraries/CMSIS/DSP/Source/FilteringFunctions/arm_fir_q15.c ****     /* Copy 4 new input samples into the state buffer. */
ARM GAS  /tmp/ccArubV8.s 			page 4


  99:./Libraries/CMSIS/DSP/Source/FilteringFunctions/arm_fir_q15.c ****     *pStateCurnt++ = *pSrc++;
 100:./Libraries/CMSIS/DSP/Source/FilteringFunctions/arm_fir_q15.c ****     *pStateCurnt++ = *pSrc++;
 101:./Libraries/CMSIS/DSP/Source/FilteringFunctions/arm_fir_q15.c ****     *pStateCurnt++ = *pSrc++;
 102:./Libraries/CMSIS/DSP/Source/FilteringFunctions/arm_fir_q15.c ****     *pStateCurnt++ = *pSrc++;
 103:./Libraries/CMSIS/DSP/Source/FilteringFunctions/arm_fir_q15.c **** 
 104:./Libraries/CMSIS/DSP/Source/FilteringFunctions/arm_fir_q15.c ****     /* Set all accumulators to zero */
 105:./Libraries/CMSIS/DSP/Source/FilteringFunctions/arm_fir_q15.c ****     acc0 = 0;
 106:./Libraries/CMSIS/DSP/Source/FilteringFunctions/arm_fir_q15.c ****     acc1 = 0;
 107:./Libraries/CMSIS/DSP/Source/FilteringFunctions/arm_fir_q15.c ****     acc2 = 0;
 108:./Libraries/CMSIS/DSP/Source/FilteringFunctions/arm_fir_q15.c ****     acc3 = 0;
 109:./Libraries/CMSIS/DSP/Source/FilteringFunctions/arm_fir_q15.c **** 
 110:./Libraries/CMSIS/DSP/Source/FilteringFunctions/arm_fir_q15.c ****     /* Typecast q15_t pointer to q31_t pointer for state reading in q31_t */
 111:./Libraries/CMSIS/DSP/Source/FilteringFunctions/arm_fir_q15.c ****     px = pState;
 112:./Libraries/CMSIS/DSP/Source/FilteringFunctions/arm_fir_q15.c **** 
 113:./Libraries/CMSIS/DSP/Source/FilteringFunctions/arm_fir_q15.c ****     /* Typecast q15_t pointer to q31_t pointer for coefficient reading in q31_t */
 114:./Libraries/CMSIS/DSP/Source/FilteringFunctions/arm_fir_q15.c ****     pb = pCoeffs;
 115:./Libraries/CMSIS/DSP/Source/FilteringFunctions/arm_fir_q15.c **** 
 116:./Libraries/CMSIS/DSP/Source/FilteringFunctions/arm_fir_q15.c ****     /* Read the first two samples from the state buffer:  x[n-N], x[n-N-1] */
 117:./Libraries/CMSIS/DSP/Source/FilteringFunctions/arm_fir_q15.c ****     x0 = read_q15x2_ia (&px);
 118:./Libraries/CMSIS/DSP/Source/FilteringFunctions/arm_fir_q15.c **** 
 119:./Libraries/CMSIS/DSP/Source/FilteringFunctions/arm_fir_q15.c ****     /* Read the third and forth samples from the state buffer: x[n-N-2], x[n-N-3] */
 120:./Libraries/CMSIS/DSP/Source/FilteringFunctions/arm_fir_q15.c ****     x2 = read_q15x2_ia (&px);
 121:./Libraries/CMSIS/DSP/Source/FilteringFunctions/arm_fir_q15.c **** 
 122:./Libraries/CMSIS/DSP/Source/FilteringFunctions/arm_fir_q15.c ****     /* Loop over the number of taps.  Unroll by a factor of 4.
 123:./Libraries/CMSIS/DSP/Source/FilteringFunctions/arm_fir_q15.c ****        Repeat until we've computed numTaps-(numTaps%4) coefficients. */
 124:./Libraries/CMSIS/DSP/Source/FilteringFunctions/arm_fir_q15.c ****     tapCnt = numTaps >> 2U;
 125:./Libraries/CMSIS/DSP/Source/FilteringFunctions/arm_fir_q15.c **** 
 126:./Libraries/CMSIS/DSP/Source/FilteringFunctions/arm_fir_q15.c ****     while (tapCnt > 0U)
 127:./Libraries/CMSIS/DSP/Source/FilteringFunctions/arm_fir_q15.c ****     {
 128:./Libraries/CMSIS/DSP/Source/FilteringFunctions/arm_fir_q15.c ****       /* Read the first two coefficients using SIMD:  b[N] and b[N-1] coefficients */
 129:./Libraries/CMSIS/DSP/Source/FilteringFunctions/arm_fir_q15.c ****       c0 = read_q15x2_ia ((q15_t **) &pb);
 130:./Libraries/CMSIS/DSP/Source/FilteringFunctions/arm_fir_q15.c **** 
 131:./Libraries/CMSIS/DSP/Source/FilteringFunctions/arm_fir_q15.c ****       /* acc0 +=  b[N] * x[n-N] + b[N-1] * x[n-N-1] */
 132:./Libraries/CMSIS/DSP/Source/FilteringFunctions/arm_fir_q15.c ****       acc0 = __SMLALD(x0, c0, acc0);
 133:./Libraries/CMSIS/DSP/Source/FilteringFunctions/arm_fir_q15.c **** 
 134:./Libraries/CMSIS/DSP/Source/FilteringFunctions/arm_fir_q15.c ****       /* acc2 +=  b[N] * x[n-N-2] + b[N-1] * x[n-N-3] */
 135:./Libraries/CMSIS/DSP/Source/FilteringFunctions/arm_fir_q15.c ****       acc2 = __SMLALD(x2, c0, acc2);
 136:./Libraries/CMSIS/DSP/Source/FilteringFunctions/arm_fir_q15.c **** 
 137:./Libraries/CMSIS/DSP/Source/FilteringFunctions/arm_fir_q15.c ****       /* pack  x[n-N-1] and x[n-N-2] */
 138:./Libraries/CMSIS/DSP/Source/FilteringFunctions/arm_fir_q15.c **** #ifndef ARM_MATH_BIG_ENDIAN
 139:./Libraries/CMSIS/DSP/Source/FilteringFunctions/arm_fir_q15.c ****       x1 = __PKHBT(x2, x0, 0);
 140:./Libraries/CMSIS/DSP/Source/FilteringFunctions/arm_fir_q15.c **** #else
 141:./Libraries/CMSIS/DSP/Source/FilteringFunctions/arm_fir_q15.c ****       x1 = __PKHBT(x0, x2, 0);
 142:./Libraries/CMSIS/DSP/Source/FilteringFunctions/arm_fir_q15.c **** #endif
 143:./Libraries/CMSIS/DSP/Source/FilteringFunctions/arm_fir_q15.c **** 
 144:./Libraries/CMSIS/DSP/Source/FilteringFunctions/arm_fir_q15.c ****       /* Read state x[n-N-4], x[n-N-5] */
 145:./Libraries/CMSIS/DSP/Source/FilteringFunctions/arm_fir_q15.c ****       x0 = read_q15x2_ia (&px);
 146:./Libraries/CMSIS/DSP/Source/FilteringFunctions/arm_fir_q15.c **** 
 147:./Libraries/CMSIS/DSP/Source/FilteringFunctions/arm_fir_q15.c ****       /* acc1 +=  b[N] * x[n-N-1] + b[N-1] * x[n-N-2] */
 148:./Libraries/CMSIS/DSP/Source/FilteringFunctions/arm_fir_q15.c ****       acc1 = __SMLALDX(x1, c0, acc1);
 149:./Libraries/CMSIS/DSP/Source/FilteringFunctions/arm_fir_q15.c **** 
 150:./Libraries/CMSIS/DSP/Source/FilteringFunctions/arm_fir_q15.c ****       /* pack  x[n-N-3] and x[n-N-4] */
 151:./Libraries/CMSIS/DSP/Source/FilteringFunctions/arm_fir_q15.c **** #ifndef ARM_MATH_BIG_ENDIAN
 152:./Libraries/CMSIS/DSP/Source/FilteringFunctions/arm_fir_q15.c ****       x1 = __PKHBT(x0, x2, 0);
 153:./Libraries/CMSIS/DSP/Source/FilteringFunctions/arm_fir_q15.c **** #else
 154:./Libraries/CMSIS/DSP/Source/FilteringFunctions/arm_fir_q15.c ****       x1 = __PKHBT(x2, x0, 0);
 155:./Libraries/CMSIS/DSP/Source/FilteringFunctions/arm_fir_q15.c **** #endif
ARM GAS  /tmp/ccArubV8.s 			page 5


 156:./Libraries/CMSIS/DSP/Source/FilteringFunctions/arm_fir_q15.c **** 
 157:./Libraries/CMSIS/DSP/Source/FilteringFunctions/arm_fir_q15.c ****       /* acc3 +=  b[N] * x[n-N-3] + b[N-1] * x[n-N-4] */
 158:./Libraries/CMSIS/DSP/Source/FilteringFunctions/arm_fir_q15.c ****       acc3 = __SMLALDX(x1, c0, acc3);
 159:./Libraries/CMSIS/DSP/Source/FilteringFunctions/arm_fir_q15.c **** 
 160:./Libraries/CMSIS/DSP/Source/FilteringFunctions/arm_fir_q15.c ****       /* Read coefficients b[N-2], b[N-3] */
 161:./Libraries/CMSIS/DSP/Source/FilteringFunctions/arm_fir_q15.c ****       c0 = read_q15x2_ia ((q15_t **) &pb);
 162:./Libraries/CMSIS/DSP/Source/FilteringFunctions/arm_fir_q15.c **** 
 163:./Libraries/CMSIS/DSP/Source/FilteringFunctions/arm_fir_q15.c ****       /* acc0 +=  b[N-2] * x[n-N-2] + b[N-3] * x[n-N-3] */
 164:./Libraries/CMSIS/DSP/Source/FilteringFunctions/arm_fir_q15.c ****       acc0 = __SMLALD(x2, c0, acc0);
 165:./Libraries/CMSIS/DSP/Source/FilteringFunctions/arm_fir_q15.c **** 
 166:./Libraries/CMSIS/DSP/Source/FilteringFunctions/arm_fir_q15.c ****       /* Read state x[n-N-6], x[n-N-7] with offset */
 167:./Libraries/CMSIS/DSP/Source/FilteringFunctions/arm_fir_q15.c ****       x2 = read_q15x2_ia (&px);
 168:./Libraries/CMSIS/DSP/Source/FilteringFunctions/arm_fir_q15.c **** 
 169:./Libraries/CMSIS/DSP/Source/FilteringFunctions/arm_fir_q15.c ****       /* acc2 +=  b[N-2] * x[n-N-4] + b[N-3] * x[n-N-5] */
 170:./Libraries/CMSIS/DSP/Source/FilteringFunctions/arm_fir_q15.c ****       acc2 = __SMLALD(x0, c0, acc2);
 171:./Libraries/CMSIS/DSP/Source/FilteringFunctions/arm_fir_q15.c **** 
 172:./Libraries/CMSIS/DSP/Source/FilteringFunctions/arm_fir_q15.c ****       /* acc1 +=  b[N-2] * x[n-N-3] + b[N-3] * x[n-N-4] */
 173:./Libraries/CMSIS/DSP/Source/FilteringFunctions/arm_fir_q15.c ****       acc1 = __SMLALDX(x1, c0, acc1);
 174:./Libraries/CMSIS/DSP/Source/FilteringFunctions/arm_fir_q15.c **** 
 175:./Libraries/CMSIS/DSP/Source/FilteringFunctions/arm_fir_q15.c ****       /* pack  x[n-N-5] and x[n-N-6] */
 176:./Libraries/CMSIS/DSP/Source/FilteringFunctions/arm_fir_q15.c **** #ifndef ARM_MATH_BIG_ENDIAN
 177:./Libraries/CMSIS/DSP/Source/FilteringFunctions/arm_fir_q15.c ****       x1 = __PKHBT(x2, x0, 0);
 178:./Libraries/CMSIS/DSP/Source/FilteringFunctions/arm_fir_q15.c **** #else
 179:./Libraries/CMSIS/DSP/Source/FilteringFunctions/arm_fir_q15.c ****       x1 = __PKHBT(x0, x2, 0);
 180:./Libraries/CMSIS/DSP/Source/FilteringFunctions/arm_fir_q15.c **** #endif
 181:./Libraries/CMSIS/DSP/Source/FilteringFunctions/arm_fir_q15.c **** 
 182:./Libraries/CMSIS/DSP/Source/FilteringFunctions/arm_fir_q15.c ****       /* acc3 +=  b[N-2] * x[n-N-5] + b[N-3] * x[n-N-6] */
 183:./Libraries/CMSIS/DSP/Source/FilteringFunctions/arm_fir_q15.c ****       acc3 = __SMLALDX(x1, c0, acc3);
 184:./Libraries/CMSIS/DSP/Source/FilteringFunctions/arm_fir_q15.c **** 
 185:./Libraries/CMSIS/DSP/Source/FilteringFunctions/arm_fir_q15.c ****       /* Decrement tap count */
 186:./Libraries/CMSIS/DSP/Source/FilteringFunctions/arm_fir_q15.c ****       tapCnt--;
 187:./Libraries/CMSIS/DSP/Source/FilteringFunctions/arm_fir_q15.c ****     }
 188:./Libraries/CMSIS/DSP/Source/FilteringFunctions/arm_fir_q15.c **** 
 189:./Libraries/CMSIS/DSP/Source/FilteringFunctions/arm_fir_q15.c ****     /* If the filter length is not a multiple of 4, compute the remaining filter taps.
 190:./Libraries/CMSIS/DSP/Source/FilteringFunctions/arm_fir_q15.c ****        This is always be 2 taps since the filter length is even. */
 191:./Libraries/CMSIS/DSP/Source/FilteringFunctions/arm_fir_q15.c ****     if ((numTaps & 0x3U) != 0U)
 192:./Libraries/CMSIS/DSP/Source/FilteringFunctions/arm_fir_q15.c ****     {
 193:./Libraries/CMSIS/DSP/Source/FilteringFunctions/arm_fir_q15.c ****       /* Read last two coefficients */
 194:./Libraries/CMSIS/DSP/Source/FilteringFunctions/arm_fir_q15.c ****       c0 = read_q15x2_ia ((q15_t **) &pb);
 195:./Libraries/CMSIS/DSP/Source/FilteringFunctions/arm_fir_q15.c **** 
 196:./Libraries/CMSIS/DSP/Source/FilteringFunctions/arm_fir_q15.c ****       /* Perform the multiply-accumulates */
 197:./Libraries/CMSIS/DSP/Source/FilteringFunctions/arm_fir_q15.c ****       acc0 = __SMLALD(x0, c0, acc0);
 198:./Libraries/CMSIS/DSP/Source/FilteringFunctions/arm_fir_q15.c ****       acc2 = __SMLALD(x2, c0, acc2);
 199:./Libraries/CMSIS/DSP/Source/FilteringFunctions/arm_fir_q15.c **** 
 200:./Libraries/CMSIS/DSP/Source/FilteringFunctions/arm_fir_q15.c ****       /* pack state variables */
 201:./Libraries/CMSIS/DSP/Source/FilteringFunctions/arm_fir_q15.c **** #ifndef ARM_MATH_BIG_ENDIAN
 202:./Libraries/CMSIS/DSP/Source/FilteringFunctions/arm_fir_q15.c ****       x1 = __PKHBT(x2, x0, 0);
 203:./Libraries/CMSIS/DSP/Source/FilteringFunctions/arm_fir_q15.c **** #else
 204:./Libraries/CMSIS/DSP/Source/FilteringFunctions/arm_fir_q15.c ****       x1 = __PKHBT(x0, x2, 0);
 205:./Libraries/CMSIS/DSP/Source/FilteringFunctions/arm_fir_q15.c **** #endif
 206:./Libraries/CMSIS/DSP/Source/FilteringFunctions/arm_fir_q15.c **** 
 207:./Libraries/CMSIS/DSP/Source/FilteringFunctions/arm_fir_q15.c ****       /* Read last state variables */
 208:./Libraries/CMSIS/DSP/Source/FilteringFunctions/arm_fir_q15.c ****       x0 = read_q15x2 (px);
 209:./Libraries/CMSIS/DSP/Source/FilteringFunctions/arm_fir_q15.c **** 
 210:./Libraries/CMSIS/DSP/Source/FilteringFunctions/arm_fir_q15.c ****       /* Perform the multiply-accumulates */
 211:./Libraries/CMSIS/DSP/Source/FilteringFunctions/arm_fir_q15.c ****       acc1 = __SMLALDX(x1, c0, acc1);
 212:./Libraries/CMSIS/DSP/Source/FilteringFunctions/arm_fir_q15.c **** 
ARM GAS  /tmp/ccArubV8.s 			page 6


 213:./Libraries/CMSIS/DSP/Source/FilteringFunctions/arm_fir_q15.c ****       /* pack state variables */
 214:./Libraries/CMSIS/DSP/Source/FilteringFunctions/arm_fir_q15.c **** #ifndef ARM_MATH_BIG_ENDIAN
 215:./Libraries/CMSIS/DSP/Source/FilteringFunctions/arm_fir_q15.c ****       x1 = __PKHBT(x0, x2, 0);
 216:./Libraries/CMSIS/DSP/Source/FilteringFunctions/arm_fir_q15.c **** #else
 217:./Libraries/CMSIS/DSP/Source/FilteringFunctions/arm_fir_q15.c ****       x1 = __PKHBT(x2, x0, 0);
 218:./Libraries/CMSIS/DSP/Source/FilteringFunctions/arm_fir_q15.c **** #endif
 219:./Libraries/CMSIS/DSP/Source/FilteringFunctions/arm_fir_q15.c **** 
 220:./Libraries/CMSIS/DSP/Source/FilteringFunctions/arm_fir_q15.c ****       /* Perform the multiply-accumulates */
 221:./Libraries/CMSIS/DSP/Source/FilteringFunctions/arm_fir_q15.c ****       acc3 = __SMLALDX(x1, c0, acc3);
 222:./Libraries/CMSIS/DSP/Source/FilteringFunctions/arm_fir_q15.c ****     }
 223:./Libraries/CMSIS/DSP/Source/FilteringFunctions/arm_fir_q15.c **** 
 224:./Libraries/CMSIS/DSP/Source/FilteringFunctions/arm_fir_q15.c ****     /* The results in the 4 accumulators are in 2.30 format. Convert to 1.15 with saturation.
 225:./Libraries/CMSIS/DSP/Source/FilteringFunctions/arm_fir_q15.c ****        Then store the 4 outputs in the destination buffer. */
 226:./Libraries/CMSIS/DSP/Source/FilteringFunctions/arm_fir_q15.c **** #ifndef ARM_MATH_BIG_ENDIAN
 227:./Libraries/CMSIS/DSP/Source/FilteringFunctions/arm_fir_q15.c ****     write_q15x2_ia (&pDst, __PKHBT(__SSAT((acc0 >> 15), 16), __SSAT((acc1 >> 15), 16), 16));
 228:./Libraries/CMSIS/DSP/Source/FilteringFunctions/arm_fir_q15.c ****     write_q15x2_ia (&pDst, __PKHBT(__SSAT((acc2 >> 15), 16), __SSAT((acc3 >> 15), 16), 16));
 229:./Libraries/CMSIS/DSP/Source/FilteringFunctions/arm_fir_q15.c **** #else
 230:./Libraries/CMSIS/DSP/Source/FilteringFunctions/arm_fir_q15.c ****     write_q15x2_ia (&pDst, __PKHBT(__SSAT((acc1 >> 15), 16), __SSAT((acc0 >> 15), 16), 16));
 231:./Libraries/CMSIS/DSP/Source/FilteringFunctions/arm_fir_q15.c ****     write_q15x2_ia (&pDst, __PKHBT(__SSAT((acc3 >> 15), 16), __SSAT((acc2 >> 15), 16), 16));
 232:./Libraries/CMSIS/DSP/Source/FilteringFunctions/arm_fir_q15.c **** #endif /* #ifndef ARM_MATH_BIG_ENDIAN */
 233:./Libraries/CMSIS/DSP/Source/FilteringFunctions/arm_fir_q15.c **** 
 234:./Libraries/CMSIS/DSP/Source/FilteringFunctions/arm_fir_q15.c ****     /* Advance the state pointer by 4 to process the next group of 4 samples */
 235:./Libraries/CMSIS/DSP/Source/FilteringFunctions/arm_fir_q15.c ****     pState = pState + 4U;
 236:./Libraries/CMSIS/DSP/Source/FilteringFunctions/arm_fir_q15.c **** 
 237:./Libraries/CMSIS/DSP/Source/FilteringFunctions/arm_fir_q15.c ****     /* Decrement loop counter */
 238:./Libraries/CMSIS/DSP/Source/FilteringFunctions/arm_fir_q15.c ****     blkCnt--;
 239:./Libraries/CMSIS/DSP/Source/FilteringFunctions/arm_fir_q15.c ****   }
 240:./Libraries/CMSIS/DSP/Source/FilteringFunctions/arm_fir_q15.c **** 
 241:./Libraries/CMSIS/DSP/Source/FilteringFunctions/arm_fir_q15.c ****   /* Loop unrolling: Compute remaining output samples */
 242:./Libraries/CMSIS/DSP/Source/FilteringFunctions/arm_fir_q15.c ****   blkCnt = blockSize % 0x4U;
 243:./Libraries/CMSIS/DSP/Source/FilteringFunctions/arm_fir_q15.c **** 
 244:./Libraries/CMSIS/DSP/Source/FilteringFunctions/arm_fir_q15.c **** #else
 245:./Libraries/CMSIS/DSP/Source/FilteringFunctions/arm_fir_q15.c **** 
 246:./Libraries/CMSIS/DSP/Source/FilteringFunctions/arm_fir_q15.c ****   /* Initialize blkCnt with number of taps */
 247:./Libraries/CMSIS/DSP/Source/FilteringFunctions/arm_fir_q15.c ****   blkCnt = blockSize;
  75              		.loc 1 247 10
  76 0034 3B68     		ldr	r3, [r7]
  77 0036 3B62     		str	r3, [r7, #32]
 248:./Libraries/CMSIS/DSP/Source/FilteringFunctions/arm_fir_q15.c **** 
 249:./Libraries/CMSIS/DSP/Source/FilteringFunctions/arm_fir_q15.c **** #endif /* #if defined (ARM_MATH_LOOPUNROLL) */
 250:./Libraries/CMSIS/DSP/Source/FilteringFunctions/arm_fir_q15.c **** 
 251:./Libraries/CMSIS/DSP/Source/FilteringFunctions/arm_fir_q15.c ****   while (blkCnt > 0U)
  78              		.loc 1 251 9
  79 0038 66E0     		b	.L2
  80              	.L4:
 252:./Libraries/CMSIS/DSP/Source/FilteringFunctions/arm_fir_q15.c ****   {
 253:./Libraries/CMSIS/DSP/Source/FilteringFunctions/arm_fir_q15.c ****     /* Copy two samples into state buffer */
 254:./Libraries/CMSIS/DSP/Source/FilteringFunctions/arm_fir_q15.c ****     *pStateCurnt++ = *pSrc++;
  81              		.loc 1 254 27
  82 003a BA68     		ldr	r2, [r7, #8]
  83 003c 931C     		adds	r3, r2, #2
  84 003e BB60     		str	r3, [r7, #8]
  85              		.loc 1 254 17
  86 0040 BB6B     		ldr	r3, [r7, #56]
  87 0042 991C     		adds	r1, r3, #2
  88 0044 B963     		str	r1, [r7, #56]
  89              		.loc 1 254 22
ARM GAS  /tmp/ccArubV8.s 			page 7


  90 0046 B2F90020 		ldrsh	r2, [r2]
  91              		.loc 1 254 20
  92 004a 1A80     		strh	r2, [r3]	@ movhi
 255:./Libraries/CMSIS/DSP/Source/FilteringFunctions/arm_fir_q15.c **** 
 256:./Libraries/CMSIS/DSP/Source/FilteringFunctions/arm_fir_q15.c ****     /* Set the accumulator to zero */
 257:./Libraries/CMSIS/DSP/Source/FilteringFunctions/arm_fir_q15.c ****     acc0 = 0;
  93              		.loc 1 257 10
  94 004c 4FF00002 		mov	r2, #0
  95 0050 4FF00003 		mov	r3, #0
  96 0054 C7E90A23 		strd	r2, [r7, #40]
 258:./Libraries/CMSIS/DSP/Source/FilteringFunctions/arm_fir_q15.c **** 
 259:./Libraries/CMSIS/DSP/Source/FilteringFunctions/arm_fir_q15.c ****     /* Use SIMD to hold states and coefficients */
 260:./Libraries/CMSIS/DSP/Source/FilteringFunctions/arm_fir_q15.c ****     px = pState;
  97              		.loc 1 260 8
  98 0058 FB6B     		ldr	r3, [r7, #60]
  99 005a 7B63     		str	r3, [r7, #52]
 261:./Libraries/CMSIS/DSP/Source/FilteringFunctions/arm_fir_q15.c ****     pb = pCoeffs;
 100              		.loc 1 261 8
 101 005c FB69     		ldr	r3, [r7, #28]
 102 005e 3B63     		str	r3, [r7, #48]
 262:./Libraries/CMSIS/DSP/Source/FilteringFunctions/arm_fir_q15.c **** 
 263:./Libraries/CMSIS/DSP/Source/FilteringFunctions/arm_fir_q15.c ****     tapCnt = numTaps >> 1U;
 103              		.loc 1 263 12
 104 0060 BB69     		ldr	r3, [r7, #24]
 105 0062 5B08     		lsrs	r3, r3, #1
 106 0064 7B62     		str	r3, [r7, #36]
 107              	.L3:
 264:./Libraries/CMSIS/DSP/Source/FilteringFunctions/arm_fir_q15.c **** 
 265:./Libraries/CMSIS/DSP/Source/FilteringFunctions/arm_fir_q15.c ****     do
 266:./Libraries/CMSIS/DSP/Source/FilteringFunctions/arm_fir_q15.c ****     {
 267:./Libraries/CMSIS/DSP/Source/FilteringFunctions/arm_fir_q15.c ****       acc0 += (q31_t) *px++ * *pb++;
 108              		.loc 1 267 26 discriminator 1
 109 0066 7B6B     		ldr	r3, [r7, #52]
 110 0068 9A1C     		adds	r2, r3, #2
 111 006a 7A63     		str	r2, [r7, #52]
 112              		.loc 1 267 23 discriminator 1
 113 006c B3F90030 		ldrsh	r3, [r3]
 114              		.loc 1 267 15 discriminator 1
 115 0070 1946     		mov	r1, r3
 116              		.loc 1 267 34 discriminator 1
 117 0072 3B6B     		ldr	r3, [r7, #48]
 118 0074 9A1C     		adds	r2, r3, #2
 119 0076 3A63     		str	r2, [r7, #48]
 120              		.loc 1 267 31 discriminator 1
 121 0078 B3F90030 		ldrsh	r3, [r3]
 122              		.loc 1 267 29 discriminator 1
 123 007c 03FB01F3 		mul	r3, r3, r1
 124 0080 1A46     		mov	r2, r3
 125 0082 4FEAE273 		asr	r3, r2, #31
 126              		.loc 1 267 12 discriminator 1
 127 0086 D7E90A01 		ldrd	r0, [r7, #40]
 128 008a 8418     		adds	r4, r0, r2
 129 008c 41EB0305 		adc	r5, r1, r3
 130 0090 C7E90A45 		strd	r4, [r7, #40]
 268:./Libraries/CMSIS/DSP/Source/FilteringFunctions/arm_fir_q15.c **** 	  acc0 += (q31_t) *px++ * *pb++;
 131              		.loc 1 268 23 discriminator 1
 132 0094 7B6B     		ldr	r3, [r7, #52]
ARM GAS  /tmp/ccArubV8.s 			page 8


 133 0096 9A1C     		adds	r2, r3, #2
 134 0098 7A63     		str	r2, [r7, #52]
 135              		.loc 1 268 20 discriminator 1
 136 009a B3F90030 		ldrsh	r3, [r3]
 137              		.loc 1 268 12 discriminator 1
 138 009e 1946     		mov	r1, r3
 139              		.loc 1 268 31 discriminator 1
 140 00a0 3B6B     		ldr	r3, [r7, #48]
 141 00a2 9A1C     		adds	r2, r3, #2
 142 00a4 3A63     		str	r2, [r7, #48]
 143              		.loc 1 268 28 discriminator 1
 144 00a6 B3F90030 		ldrsh	r3, [r3]
 145              		.loc 1 268 26 discriminator 1
 146 00aa 03FB01F3 		mul	r3, r3, r1
 147 00ae 1A46     		mov	r2, r3
 148 00b0 4FEAE273 		asr	r3, r2, #31
 149              		.loc 1 268 9 discriminator 1
 150 00b4 D7E90A01 		ldrd	r0, [r7, #40]
 151 00b8 10EB0208 		adds	r8, r0, r2
 152 00bc 41EB0309 		adc	r9, r1, r3
 153 00c0 C7E90A89 		strd	r8, [r7, #40]
 269:./Libraries/CMSIS/DSP/Source/FilteringFunctions/arm_fir_q15.c **** 
 270:./Libraries/CMSIS/DSP/Source/FilteringFunctions/arm_fir_q15.c ****       tapCnt--;
 154              		.loc 1 270 13 discriminator 1
 155 00c4 7B6A     		ldr	r3, [r7, #36]
 156 00c6 013B     		subs	r3, r3, #1
 157 00c8 7B62     		str	r3, [r7, #36]
 271:./Libraries/CMSIS/DSP/Source/FilteringFunctions/arm_fir_q15.c ****     }
 272:./Libraries/CMSIS/DSP/Source/FilteringFunctions/arm_fir_q15.c ****     while (tapCnt > 0U);
 158              		.loc 1 272 5 discriminator 1
 159 00ca 7B6A     		ldr	r3, [r7, #36]
 160 00cc 002B     		cmp	r3, #0
 161 00ce CAD1     		bne	.L3
 162              	.LBB2:
 273:./Libraries/CMSIS/DSP/Source/FilteringFunctions/arm_fir_q15.c **** 
 274:./Libraries/CMSIS/DSP/Source/FilteringFunctions/arm_fir_q15.c ****     /* The result is in 2.30 format. Convert to 1.15 with saturation.
 275:./Libraries/CMSIS/DSP/Source/FilteringFunctions/arm_fir_q15.c ****        Then store the output in the destination buffer. */
 276:./Libraries/CMSIS/DSP/Source/FilteringFunctions/arm_fir_q15.c ****     *pDst++ = (q15_t) (__SSAT((acc0 >> 15), 16));
 163              		.loc 1 276 24
 164 00d0 D7E90A01 		ldrd	r0, [r7, #40]
 165 00d4 4FF00002 		mov	r2, #0
 166 00d8 4FF00003 		mov	r3, #0
 167 00dc C20B     		lsrs	r2, r0, #15
 168 00de 42EA4142 		orr	r2, r2, r1, lsl #17
 169 00e2 CB13     		asrs	r3, r1, #15
 170 00e4 1346     		mov	r3, r2
 171 00e6 7B61     		str	r3, [r7, #20]
 172 00e8 7B69     		ldr	r3, [r7, #20]
 173              		.syntax unified
 174              	@ 276 "./Libraries/CMSIS/DSP/Source/FilteringFunctions/arm_fir_q15.c" 1
 175 00ea 03F30F03 		ssat r3, #16, r3
 176              	@ 0 "" 2
 177              		.thumb
 178              		.syntax unified
 179 00ee 3B61     		str	r3, [r7, #16]
 180 00f0 3969     		ldr	r1, [r7, #16]
 181              	.LBE2:
ARM GAS  /tmp/ccArubV8.s 			page 9


 182              		.loc 1 276 10
 183 00f2 7B68     		ldr	r3, [r7, #4]
 184 00f4 9A1C     		adds	r2, r3, #2
 185 00f6 7A60     		str	r2, [r7, #4]
 186              		.loc 1 276 15
 187 00f8 0AB2     		sxth	r2, r1
 188              		.loc 1 276 13
 189 00fa 1A80     		strh	r2, [r3]	@ movhi
 277:./Libraries/CMSIS/DSP/Source/FilteringFunctions/arm_fir_q15.c **** 
 278:./Libraries/CMSIS/DSP/Source/FilteringFunctions/arm_fir_q15.c ****     /* Advance state pointer by 1 for the next sample */
 279:./Libraries/CMSIS/DSP/Source/FilteringFunctions/arm_fir_q15.c ****     pState = pState + 1U;
 190              		.loc 1 279 12
 191 00fc FB6B     		ldr	r3, [r7, #60]
 192 00fe 0233     		adds	r3, r3, #2
 193 0100 FB63     		str	r3, [r7, #60]
 280:./Libraries/CMSIS/DSP/Source/FilteringFunctions/arm_fir_q15.c **** 
 281:./Libraries/CMSIS/DSP/Source/FilteringFunctions/arm_fir_q15.c ****     /* Decrement loop counter */
 282:./Libraries/CMSIS/DSP/Source/FilteringFunctions/arm_fir_q15.c ****     blkCnt--;
 194              		.loc 1 282 11
 195 0102 3B6A     		ldr	r3, [r7, #32]
 196 0104 013B     		subs	r3, r3, #1
 197 0106 3B62     		str	r3, [r7, #32]
 198              	.L2:
 251:./Libraries/CMSIS/DSP/Source/FilteringFunctions/arm_fir_q15.c ****   {
 199              		.loc 1 251 9
 200 0108 3B6A     		ldr	r3, [r7, #32]
 201 010a 002B     		cmp	r3, #0
 202 010c 95D1     		bne	.L4
 283:./Libraries/CMSIS/DSP/Source/FilteringFunctions/arm_fir_q15.c ****   }
 284:./Libraries/CMSIS/DSP/Source/FilteringFunctions/arm_fir_q15.c **** 
 285:./Libraries/CMSIS/DSP/Source/FilteringFunctions/arm_fir_q15.c ****   /* Processing is complete.
 286:./Libraries/CMSIS/DSP/Source/FilteringFunctions/arm_fir_q15.c ****      Now copy the last numTaps - 1 samples to the start of the state buffer.
 287:./Libraries/CMSIS/DSP/Source/FilteringFunctions/arm_fir_q15.c ****      This prepares the state buffer for the next function call. */
 288:./Libraries/CMSIS/DSP/Source/FilteringFunctions/arm_fir_q15.c **** 
 289:./Libraries/CMSIS/DSP/Source/FilteringFunctions/arm_fir_q15.c ****   /* Points to the start of the state buffer */
 290:./Libraries/CMSIS/DSP/Source/FilteringFunctions/arm_fir_q15.c ****   pStateCurnt = S->pState;
 203              		.loc 1 290 15
 204 010e FB68     		ldr	r3, [r7, #12]
 205 0110 5B68     		ldr	r3, [r3, #4]
 206 0112 BB63     		str	r3, [r7, #56]
 291:./Libraries/CMSIS/DSP/Source/FilteringFunctions/arm_fir_q15.c **** 
 292:./Libraries/CMSIS/DSP/Source/FilteringFunctions/arm_fir_q15.c **** #if defined (ARM_MATH_LOOPUNROLL)
 293:./Libraries/CMSIS/DSP/Source/FilteringFunctions/arm_fir_q15.c **** 
 294:./Libraries/CMSIS/DSP/Source/FilteringFunctions/arm_fir_q15.c ****   /* Loop unrolling: Compute 4 taps at a time */
 295:./Libraries/CMSIS/DSP/Source/FilteringFunctions/arm_fir_q15.c ****   tapCnt = (numTaps - 1U) >> 2U;
 296:./Libraries/CMSIS/DSP/Source/FilteringFunctions/arm_fir_q15.c **** 
 297:./Libraries/CMSIS/DSP/Source/FilteringFunctions/arm_fir_q15.c ****   /* Copy data */
 298:./Libraries/CMSIS/DSP/Source/FilteringFunctions/arm_fir_q15.c ****   while (tapCnt > 0U)
 299:./Libraries/CMSIS/DSP/Source/FilteringFunctions/arm_fir_q15.c ****   {
 300:./Libraries/CMSIS/DSP/Source/FilteringFunctions/arm_fir_q15.c ****     *pStateCurnt++ = *pState++;
 301:./Libraries/CMSIS/DSP/Source/FilteringFunctions/arm_fir_q15.c ****     *pStateCurnt++ = *pState++;
 302:./Libraries/CMSIS/DSP/Source/FilteringFunctions/arm_fir_q15.c ****     *pStateCurnt++ = *pState++;
 303:./Libraries/CMSIS/DSP/Source/FilteringFunctions/arm_fir_q15.c ****     *pStateCurnt++ = *pState++;
 304:./Libraries/CMSIS/DSP/Source/FilteringFunctions/arm_fir_q15.c **** 
 305:./Libraries/CMSIS/DSP/Source/FilteringFunctions/arm_fir_q15.c ****     /* Decrement loop counter */
 306:./Libraries/CMSIS/DSP/Source/FilteringFunctions/arm_fir_q15.c ****     tapCnt--;
 307:./Libraries/CMSIS/DSP/Source/FilteringFunctions/arm_fir_q15.c ****   }
ARM GAS  /tmp/ccArubV8.s 			page 10


 308:./Libraries/CMSIS/DSP/Source/FilteringFunctions/arm_fir_q15.c **** 
 309:./Libraries/CMSIS/DSP/Source/FilteringFunctions/arm_fir_q15.c ****   /* Calculate remaining number of copies */
 310:./Libraries/CMSIS/DSP/Source/FilteringFunctions/arm_fir_q15.c ****   tapCnt = (numTaps - 1U) % 0x4U;
 311:./Libraries/CMSIS/DSP/Source/FilteringFunctions/arm_fir_q15.c **** 
 312:./Libraries/CMSIS/DSP/Source/FilteringFunctions/arm_fir_q15.c **** #else
 313:./Libraries/CMSIS/DSP/Source/FilteringFunctions/arm_fir_q15.c **** 
 314:./Libraries/CMSIS/DSP/Source/FilteringFunctions/arm_fir_q15.c ****   /* Initialize tapCnt with number of taps */
 315:./Libraries/CMSIS/DSP/Source/FilteringFunctions/arm_fir_q15.c ****   tapCnt = (numTaps - 1U);
 207              		.loc 1 315 10
 208 0114 BB69     		ldr	r3, [r7, #24]
 209 0116 013B     		subs	r3, r3, #1
 210 0118 7B62     		str	r3, [r7, #36]
 316:./Libraries/CMSIS/DSP/Source/FilteringFunctions/arm_fir_q15.c **** 
 317:./Libraries/CMSIS/DSP/Source/FilteringFunctions/arm_fir_q15.c **** #endif /* #if defined (ARM_MATH_LOOPUNROLL) */
 318:./Libraries/CMSIS/DSP/Source/FilteringFunctions/arm_fir_q15.c **** 
 319:./Libraries/CMSIS/DSP/Source/FilteringFunctions/arm_fir_q15.c ****   /* Copy remaining data */
 320:./Libraries/CMSIS/DSP/Source/FilteringFunctions/arm_fir_q15.c ****   while (tapCnt > 0U)
 211              		.loc 1 320 9
 212 011a 0BE0     		b	.L5
 213              	.L6:
 321:./Libraries/CMSIS/DSP/Source/FilteringFunctions/arm_fir_q15.c ****   {
 322:./Libraries/CMSIS/DSP/Source/FilteringFunctions/arm_fir_q15.c ****     *pStateCurnt++ = *pState++;
 214              		.loc 1 322 29
 215 011c FA6B     		ldr	r2, [r7, #60]
 216 011e 931C     		adds	r3, r2, #2
 217 0120 FB63     		str	r3, [r7, #60]
 218              		.loc 1 322 17
 219 0122 BB6B     		ldr	r3, [r7, #56]
 220 0124 991C     		adds	r1, r3, #2
 221 0126 B963     		str	r1, [r7, #56]
 222              		.loc 1 322 22
 223 0128 B2F90020 		ldrsh	r2, [r2]
 224              		.loc 1 322 20
 225 012c 1A80     		strh	r2, [r3]	@ movhi
 323:./Libraries/CMSIS/DSP/Source/FilteringFunctions/arm_fir_q15.c **** 
 324:./Libraries/CMSIS/DSP/Source/FilteringFunctions/arm_fir_q15.c ****     /* Decrement loop counter */
 325:./Libraries/CMSIS/DSP/Source/FilteringFunctions/arm_fir_q15.c ****     tapCnt--;
 226              		.loc 1 325 11
 227 012e 7B6A     		ldr	r3, [r7, #36]
 228 0130 013B     		subs	r3, r3, #1
 229 0132 7B62     		str	r3, [r7, #36]
 230              	.L5:
 320:./Libraries/CMSIS/DSP/Source/FilteringFunctions/arm_fir_q15.c ****   {
 231              		.loc 1 320 9
 232 0134 7B6A     		ldr	r3, [r7, #36]
 233 0136 002B     		cmp	r3, #0
 234 0138 F0D1     		bne	.L6
 326:./Libraries/CMSIS/DSP/Source/FilteringFunctions/arm_fir_q15.c ****   }
 327:./Libraries/CMSIS/DSP/Source/FilteringFunctions/arm_fir_q15.c **** 
 328:./Libraries/CMSIS/DSP/Source/FilteringFunctions/arm_fir_q15.c **** }
 235              		.loc 1 328 1
 236 013a 00BF     		nop
 237 013c 00BF     		nop
 238 013e 4437     		adds	r7, r7, #68
 239              	.LCFI3:
 240              		.cfi_def_cfa_offset 20
 241 0140 BD46     		mov	sp, r7
ARM GAS  /tmp/ccArubV8.s 			page 11


 242              	.LCFI4:
 243              		.cfi_def_cfa_register 13
 244              		@ sp needed
 245 0142 BDE8B003 		pop	{r4, r5, r7, r8, r9}
 246              	.LCFI5:
 247              		.cfi_restore 9
 248              		.cfi_restore 8
 249              		.cfi_restore 7
 250              		.cfi_restore 5
 251              		.cfi_restore 4
 252              		.cfi_def_cfa_offset 0
 253 0146 7047     		bx	lr
 254              		.cfi_endproc
 255              	.LFE145:
 257              		.text
 258              	.Letext0:
 259              		.file 2 "/usr/lib/gcc/arm-none-eabi/9.2.1/include/stdint.h"
 260              		.file 3 "/usr/lib/gcc/arm-none-eabi/9.2.1/include/stddef.h"
 261              		.file 4 "/usr/include/newlib/sys/_types.h"
 262              		.file 5 "/usr/include/newlib/sys/reent.h"
 263              		.file 6 "/usr/include/newlib/sys/lock.h"
 264              		.file 7 "/usr/include/newlib/math.h"
 265              		.file 8 "./Libraries/CMSIS/DSP/Include/arm_math.h"
ARM GAS  /tmp/ccArubV8.s 			page 12

