ARM GAS  /tmp/ccJVWCzl.s 			page 1


   1              		.cpu cortex-m7
   2              		.eabi_attribute 28, 1
   3              		.eabi_attribute 20, 1
   4              		.eabi_attribute 21, 1
   5              		.eabi_attribute 23, 3
   6              		.eabi_attribute 24, 1
   7              		.eabi_attribute 25, 1
   8              		.eabi_attribute 26, 1
   9              		.eabi_attribute 30, 6
  10              		.eabi_attribute 34, 1
  11              		.eabi_attribute 18, 4
  12              		.file	"arm_mean_q31.c"
  13              		.text
  14              	.Ltext0:
  15              		.cfi_sections	.debug_frame
  16              		.global	__aeabi_ldivmod
  17              		.section	.text.arm_mean_q31,"ax",%progbits
  18              		.align	1
  19              		.global	arm_mean_q31
  20              		.arch armv7e-m
  21              		.syntax unified
  22              		.thumb
  23              		.thumb_func
  24              		.fpu fpv5-d16
  26              	arm_mean_q31:
  27              	.LFB145:
  28              		.file 1 "./Libraries/CMSIS/DSP/Source/StatisticsFunctions/arm_mean_q31.c"
   1:./Libraries/CMSIS/DSP/Source/StatisticsFunctions/arm_mean_q31.c **** /* ----------------------------------------------------------------------
   2:./Libraries/CMSIS/DSP/Source/StatisticsFunctions/arm_mean_q31.c ****  * Project:      CMSIS DSP Library
   3:./Libraries/CMSIS/DSP/Source/StatisticsFunctions/arm_mean_q31.c ****  * Title:        arm_mean_q31.c
   4:./Libraries/CMSIS/DSP/Source/StatisticsFunctions/arm_mean_q31.c ****  * Description:  Mean value of a Q31 vector
   5:./Libraries/CMSIS/DSP/Source/StatisticsFunctions/arm_mean_q31.c ****  *
   6:./Libraries/CMSIS/DSP/Source/StatisticsFunctions/arm_mean_q31.c ****  * $Date:        18. March 2019
   7:./Libraries/CMSIS/DSP/Source/StatisticsFunctions/arm_mean_q31.c ****  * $Revision:    V1.6.0
   8:./Libraries/CMSIS/DSP/Source/StatisticsFunctions/arm_mean_q31.c ****  *
   9:./Libraries/CMSIS/DSP/Source/StatisticsFunctions/arm_mean_q31.c ****  * Target Processor: Cortex-M cores
  10:./Libraries/CMSIS/DSP/Source/StatisticsFunctions/arm_mean_q31.c ****  * -------------------------------------------------------------------- */
  11:./Libraries/CMSIS/DSP/Source/StatisticsFunctions/arm_mean_q31.c **** /*
  12:./Libraries/CMSIS/DSP/Source/StatisticsFunctions/arm_mean_q31.c ****  * Copyright (C) 2010-2019 ARM Limited or its affiliates. All rights reserved.
  13:./Libraries/CMSIS/DSP/Source/StatisticsFunctions/arm_mean_q31.c ****  *
  14:./Libraries/CMSIS/DSP/Source/StatisticsFunctions/arm_mean_q31.c ****  * SPDX-License-Identifier: Apache-2.0
  15:./Libraries/CMSIS/DSP/Source/StatisticsFunctions/arm_mean_q31.c ****  *
  16:./Libraries/CMSIS/DSP/Source/StatisticsFunctions/arm_mean_q31.c ****  * Licensed under the Apache License, Version 2.0 (the License); you may
  17:./Libraries/CMSIS/DSP/Source/StatisticsFunctions/arm_mean_q31.c ****  * not use this file except in compliance with the License.
  18:./Libraries/CMSIS/DSP/Source/StatisticsFunctions/arm_mean_q31.c ****  * You may obtain a copy of the License at
  19:./Libraries/CMSIS/DSP/Source/StatisticsFunctions/arm_mean_q31.c ****  *
  20:./Libraries/CMSIS/DSP/Source/StatisticsFunctions/arm_mean_q31.c ****  * www.apache.org/licenses/LICENSE-2.0
  21:./Libraries/CMSIS/DSP/Source/StatisticsFunctions/arm_mean_q31.c ****  *
  22:./Libraries/CMSIS/DSP/Source/StatisticsFunctions/arm_mean_q31.c ****  * Unless required by applicable law or agreed to in writing, software
  23:./Libraries/CMSIS/DSP/Source/StatisticsFunctions/arm_mean_q31.c ****  * distributed under the License is distributed on an AS IS BASIS, WITHOUT
  24:./Libraries/CMSIS/DSP/Source/StatisticsFunctions/arm_mean_q31.c ****  * WARRANTIES OR CONDITIONS OF ANY KIND, either express or implied.
  25:./Libraries/CMSIS/DSP/Source/StatisticsFunctions/arm_mean_q31.c ****  * See the License for the specific language governing permissions and
  26:./Libraries/CMSIS/DSP/Source/StatisticsFunctions/arm_mean_q31.c ****  * limitations under the License.
  27:./Libraries/CMSIS/DSP/Source/StatisticsFunctions/arm_mean_q31.c ****  */
  28:./Libraries/CMSIS/DSP/Source/StatisticsFunctions/arm_mean_q31.c **** 
  29:./Libraries/CMSIS/DSP/Source/StatisticsFunctions/arm_mean_q31.c **** #include "arm_math.h"
  30:./Libraries/CMSIS/DSP/Source/StatisticsFunctions/arm_mean_q31.c **** 
ARM GAS  /tmp/ccJVWCzl.s 			page 2


  31:./Libraries/CMSIS/DSP/Source/StatisticsFunctions/arm_mean_q31.c **** /**
  32:./Libraries/CMSIS/DSP/Source/StatisticsFunctions/arm_mean_q31.c ****   @ingroup groupStats
  33:./Libraries/CMSIS/DSP/Source/StatisticsFunctions/arm_mean_q31.c ****  */
  34:./Libraries/CMSIS/DSP/Source/StatisticsFunctions/arm_mean_q31.c **** 
  35:./Libraries/CMSIS/DSP/Source/StatisticsFunctions/arm_mean_q31.c **** /**
  36:./Libraries/CMSIS/DSP/Source/StatisticsFunctions/arm_mean_q31.c ****   @addtogroup mean
  37:./Libraries/CMSIS/DSP/Source/StatisticsFunctions/arm_mean_q31.c ****   @{
  38:./Libraries/CMSIS/DSP/Source/StatisticsFunctions/arm_mean_q31.c ****  */
  39:./Libraries/CMSIS/DSP/Source/StatisticsFunctions/arm_mean_q31.c **** 
  40:./Libraries/CMSIS/DSP/Source/StatisticsFunctions/arm_mean_q31.c **** /**
  41:./Libraries/CMSIS/DSP/Source/StatisticsFunctions/arm_mean_q31.c ****   @brief         Mean value of a Q31 vector.
  42:./Libraries/CMSIS/DSP/Source/StatisticsFunctions/arm_mean_q31.c ****   @param[in]     pSrc       points to the input vector
  43:./Libraries/CMSIS/DSP/Source/StatisticsFunctions/arm_mean_q31.c ****   @param[in]     blockSize  number of samples in input vector
  44:./Libraries/CMSIS/DSP/Source/StatisticsFunctions/arm_mean_q31.c ****   @param[out]    pResult    mean value returned here
  45:./Libraries/CMSIS/DSP/Source/StatisticsFunctions/arm_mean_q31.c ****   @return        none
  46:./Libraries/CMSIS/DSP/Source/StatisticsFunctions/arm_mean_q31.c **** 
  47:./Libraries/CMSIS/DSP/Source/StatisticsFunctions/arm_mean_q31.c ****   @par           Scaling and Overflow Behavior
  48:./Libraries/CMSIS/DSP/Source/StatisticsFunctions/arm_mean_q31.c ****                    The function is implemented using a 64-bit internal accumulator.
  49:./Libraries/CMSIS/DSP/Source/StatisticsFunctions/arm_mean_q31.c ****                    The input is represented in 1.31 format and is accumulated in a 64-bit
  50:./Libraries/CMSIS/DSP/Source/StatisticsFunctions/arm_mean_q31.c ****                    accumulator in 33.31 format.
  51:./Libraries/CMSIS/DSP/Source/StatisticsFunctions/arm_mean_q31.c ****                    There is no risk of internal overflow with this approach, and the
  52:./Libraries/CMSIS/DSP/Source/StatisticsFunctions/arm_mean_q31.c ****                    full precision of intermediate result is preserved.
  53:./Libraries/CMSIS/DSP/Source/StatisticsFunctions/arm_mean_q31.c ****                    Finally, the accumulator is truncated to yield a result of 1.31 format.
  54:./Libraries/CMSIS/DSP/Source/StatisticsFunctions/arm_mean_q31.c ****  */
  55:./Libraries/CMSIS/DSP/Source/StatisticsFunctions/arm_mean_q31.c **** 
  56:./Libraries/CMSIS/DSP/Source/StatisticsFunctions/arm_mean_q31.c **** void arm_mean_q31(
  57:./Libraries/CMSIS/DSP/Source/StatisticsFunctions/arm_mean_q31.c ****   const q31_t * pSrc,
  58:./Libraries/CMSIS/DSP/Source/StatisticsFunctions/arm_mean_q31.c ****         uint32_t blockSize,
  59:./Libraries/CMSIS/DSP/Source/StatisticsFunctions/arm_mean_q31.c ****         q31_t * pResult)
  60:./Libraries/CMSIS/DSP/Source/StatisticsFunctions/arm_mean_q31.c **** {
  29              		.loc 1 60 1
  30              		.cfi_startproc
  31              		@ args = 0, pretend = 0, frame = 32
  32              		@ frame_needed = 1, uses_anonymous_args = 0
  33 0000 B0B5     		push	{r4, r5, r7, lr}
  34              	.LCFI0:
  35              		.cfi_def_cfa_offset 16
  36              		.cfi_offset 4, -16
  37              		.cfi_offset 5, -12
  38              		.cfi_offset 7, -8
  39              		.cfi_offset 14, -4
  40 0002 88B0     		sub	sp, sp, #32
  41              	.LCFI1:
  42              		.cfi_def_cfa_offset 48
  43 0004 00AF     		add	r7, sp, #0
  44              	.LCFI2:
  45              		.cfi_def_cfa_register 7
  46 0006 F860     		str	r0, [r7, #12]
  47 0008 B960     		str	r1, [r7, #8]
  48 000a 7A60     		str	r2, [r7, #4]
  61:./Libraries/CMSIS/DSP/Source/StatisticsFunctions/arm_mean_q31.c ****         uint32_t blkCnt;                               /* Loop counter */
  62:./Libraries/CMSIS/DSP/Source/StatisticsFunctions/arm_mean_q31.c ****         q63_t sum = 0;                                 /* Temporary result storage */
  49              		.loc 1 62 15
  50 000c 4FF00002 		mov	r2, #0
  51 0010 4FF00003 		mov	r3, #0
  52 0014 C7E90423 		strd	r2, [r7, #16]
  63:./Libraries/CMSIS/DSP/Source/StatisticsFunctions/arm_mean_q31.c **** 
ARM GAS  /tmp/ccJVWCzl.s 			page 3


  64:./Libraries/CMSIS/DSP/Source/StatisticsFunctions/arm_mean_q31.c **** #if defined (ARM_MATH_LOOPUNROLL)
  65:./Libraries/CMSIS/DSP/Source/StatisticsFunctions/arm_mean_q31.c **** 
  66:./Libraries/CMSIS/DSP/Source/StatisticsFunctions/arm_mean_q31.c ****   /* Loop unrolling: Compute 4 outputs at a time */
  67:./Libraries/CMSIS/DSP/Source/StatisticsFunctions/arm_mean_q31.c ****   blkCnt = blockSize >> 2U;
  68:./Libraries/CMSIS/DSP/Source/StatisticsFunctions/arm_mean_q31.c **** 
  69:./Libraries/CMSIS/DSP/Source/StatisticsFunctions/arm_mean_q31.c ****   while (blkCnt > 0U)
  70:./Libraries/CMSIS/DSP/Source/StatisticsFunctions/arm_mean_q31.c ****   {
  71:./Libraries/CMSIS/DSP/Source/StatisticsFunctions/arm_mean_q31.c ****     /* C = (A[0] + A[1] + A[2] + ... + A[blockSize-1]) */
  72:./Libraries/CMSIS/DSP/Source/StatisticsFunctions/arm_mean_q31.c ****     sum += *pSrc++;
  73:./Libraries/CMSIS/DSP/Source/StatisticsFunctions/arm_mean_q31.c **** 
  74:./Libraries/CMSIS/DSP/Source/StatisticsFunctions/arm_mean_q31.c ****     sum += *pSrc++;
  75:./Libraries/CMSIS/DSP/Source/StatisticsFunctions/arm_mean_q31.c **** 
  76:./Libraries/CMSIS/DSP/Source/StatisticsFunctions/arm_mean_q31.c ****     sum += *pSrc++;
  77:./Libraries/CMSIS/DSP/Source/StatisticsFunctions/arm_mean_q31.c **** 
  78:./Libraries/CMSIS/DSP/Source/StatisticsFunctions/arm_mean_q31.c ****     sum += *pSrc++;
  79:./Libraries/CMSIS/DSP/Source/StatisticsFunctions/arm_mean_q31.c **** 
  80:./Libraries/CMSIS/DSP/Source/StatisticsFunctions/arm_mean_q31.c ****     /* Decrement the loop counter */
  81:./Libraries/CMSIS/DSP/Source/StatisticsFunctions/arm_mean_q31.c ****     blkCnt--;
  82:./Libraries/CMSIS/DSP/Source/StatisticsFunctions/arm_mean_q31.c ****   }
  83:./Libraries/CMSIS/DSP/Source/StatisticsFunctions/arm_mean_q31.c **** 
  84:./Libraries/CMSIS/DSP/Source/StatisticsFunctions/arm_mean_q31.c ****   /* Loop unrolling: Compute remaining outputs */
  85:./Libraries/CMSIS/DSP/Source/StatisticsFunctions/arm_mean_q31.c ****   blkCnt = blockSize % 0x4U;
  86:./Libraries/CMSIS/DSP/Source/StatisticsFunctions/arm_mean_q31.c **** 
  87:./Libraries/CMSIS/DSP/Source/StatisticsFunctions/arm_mean_q31.c **** #else
  88:./Libraries/CMSIS/DSP/Source/StatisticsFunctions/arm_mean_q31.c **** 
  89:./Libraries/CMSIS/DSP/Source/StatisticsFunctions/arm_mean_q31.c ****   /* Initialize blkCnt with number of samples */
  90:./Libraries/CMSIS/DSP/Source/StatisticsFunctions/arm_mean_q31.c ****   blkCnt = blockSize;
  53              		.loc 1 90 10
  54 0018 BB68     		ldr	r3, [r7, #8]
  55 001a FB61     		str	r3, [r7, #28]
  91:./Libraries/CMSIS/DSP/Source/StatisticsFunctions/arm_mean_q31.c **** 
  92:./Libraries/CMSIS/DSP/Source/StatisticsFunctions/arm_mean_q31.c **** #endif /* #if defined (ARM_MATH_LOOPUNROLL) */
  93:./Libraries/CMSIS/DSP/Source/StatisticsFunctions/arm_mean_q31.c **** 
  94:./Libraries/CMSIS/DSP/Source/StatisticsFunctions/arm_mean_q31.c ****   while (blkCnt > 0U)
  56              		.loc 1 94 9
  57 001c 10E0     		b	.L2
  58              	.L3:
  95:./Libraries/CMSIS/DSP/Source/StatisticsFunctions/arm_mean_q31.c ****   {
  96:./Libraries/CMSIS/DSP/Source/StatisticsFunctions/arm_mean_q31.c ****     /* C = (A[0] + A[1] + A[2] + ... + A[blockSize-1]) */
  97:./Libraries/CMSIS/DSP/Source/StatisticsFunctions/arm_mean_q31.c ****     sum += *pSrc++;
  59              		.loc 1 97 17
  60 001e FB68     		ldr	r3, [r7, #12]
  61 0020 1A1D     		adds	r2, r3, #4
  62 0022 FA60     		str	r2, [r7, #12]
  63              		.loc 1 97 12
  64 0024 1B68     		ldr	r3, [r3]
  65 0026 1A46     		mov	r2, r3
  66 0028 4FEAE273 		asr	r3, r2, #31
  67              		.loc 1 97 9
  68 002c D7E90401 		ldrd	r0, [r7, #16]
  69 0030 8418     		adds	r4, r0, r2
  70 0032 41EB0305 		adc	r5, r1, r3
  71 0036 C7E90445 		strd	r4, [r7, #16]
  98:./Libraries/CMSIS/DSP/Source/StatisticsFunctions/arm_mean_q31.c **** 
  99:./Libraries/CMSIS/DSP/Source/StatisticsFunctions/arm_mean_q31.c ****     /* Decrement loop counter */
 100:./Libraries/CMSIS/DSP/Source/StatisticsFunctions/arm_mean_q31.c ****     blkCnt--;
  72              		.loc 1 100 11
ARM GAS  /tmp/ccJVWCzl.s 			page 4


  73 003a FB69     		ldr	r3, [r7, #28]
  74 003c 013B     		subs	r3, r3, #1
  75 003e FB61     		str	r3, [r7, #28]
  76              	.L2:
  94:./Libraries/CMSIS/DSP/Source/StatisticsFunctions/arm_mean_q31.c ****   {
  77              		.loc 1 94 9
  78 0040 FB69     		ldr	r3, [r7, #28]
  79 0042 002B     		cmp	r3, #0
  80 0044 EBD1     		bne	.L3
 101:./Libraries/CMSIS/DSP/Source/StatisticsFunctions/arm_mean_q31.c ****   }
 102:./Libraries/CMSIS/DSP/Source/StatisticsFunctions/arm_mean_q31.c **** 
 103:./Libraries/CMSIS/DSP/Source/StatisticsFunctions/arm_mean_q31.c ****   /* C = (A[0] + A[1] + A[2] + ... + A[blockSize-1]) / blockSize  */
 104:./Libraries/CMSIS/DSP/Source/StatisticsFunctions/arm_mean_q31.c ****   /* Store result to destination */
 105:./Libraries/CMSIS/DSP/Source/StatisticsFunctions/arm_mean_q31.c ****   *pResult = (q31_t) (sum / blockSize);
  81              		.loc 1 105 27
  82 0046 BB68     		ldr	r3, [r7, #8]
  83 0048 1A46     		mov	r2, r3
  84 004a 4FF00003 		mov	r3, #0
  85 004e D7E90401 		ldrd	r0, [r7, #16]
  86 0052 FFF7FEFF 		bl	__aeabi_ldivmod
  87              	.LVL0:
  88 0056 0246     		mov	r2, r0
  89 0058 0B46     		mov	r3, r1
  90              		.loc 1 105 12
  91 005a 7B68     		ldr	r3, [r7, #4]
  92 005c 1A60     		str	r2, [r3]
 106:./Libraries/CMSIS/DSP/Source/StatisticsFunctions/arm_mean_q31.c **** }
  93              		.loc 1 106 1
  94 005e 00BF     		nop
  95 0060 2037     		adds	r7, r7, #32
  96              	.LCFI3:
  97              		.cfi_def_cfa_offset 16
  98 0062 BD46     		mov	sp, r7
  99              	.LCFI4:
 100              		.cfi_def_cfa_register 13
 101              		@ sp needed
 102 0064 B0BD     		pop	{r4, r5, r7, pc}
 103              		.cfi_endproc
 104              	.LFE145:
 106              		.text
 107              	.Letext0:
 108              		.file 2 "/usr/lib/gcc/arm-none-eabi/9.2.1/include/stdint.h"
 109              		.file 3 "/usr/lib/gcc/arm-none-eabi/9.2.1/include/stddef.h"
 110              		.file 4 "/usr/include/newlib/sys/_types.h"
 111              		.file 5 "/usr/include/newlib/sys/reent.h"
 112              		.file 6 "/usr/include/newlib/sys/lock.h"
 113              		.file 7 "/usr/include/newlib/math.h"
 114              		.file 8 "./Libraries/CMSIS/DSP/Include/arm_math.h"
ARM GAS  /tmp/ccJVWCzl.s 			page 5

