ARM GAS  /tmp/ccDO94EP.s 			page 1


   1              		.cpu cortex-m7
   2              		.eabi_attribute 28, 1
   3              		.eabi_attribute 20, 1
   4              		.eabi_attribute 21, 1
   5              		.eabi_attribute 23, 3
   6              		.eabi_attribute 24, 1
   7              		.eabi_attribute 25, 1
   8              		.eabi_attribute 26, 1
   9              		.eabi_attribute 30, 6
  10              		.eabi_attribute 34, 1
  11              		.eabi_attribute 18, 4
  12              		.file	"arm_cfft_radix2_init_f32.c"
  13              		.text
  14              	.Ltext0:
  15              		.cfi_sections	.debug_frame
  16              		.section	.text.arm_cfft_radix2_init_f32,"ax",%progbits
  17              		.align	1
  18              		.global	arm_cfft_radix2_init_f32
  19              		.arch armv7e-m
  20              		.syntax unified
  21              		.thumb
  22              		.thumb_func
  23              		.fpu fpv5-d16
  25              	arm_cfft_radix2_init_f32:
  26              	.LFB145:
  27              		.file 1 "./Libraries/CMSIS/DSP/Source/TransformFunctions/arm_cfft_radix2_init_f32.c"
   1:./Libraries/CMSIS/DSP/Source/TransformFunctions/arm_cfft_radix2_init_f32.c **** /* ----------------------------------------------------------------------
   2:./Libraries/CMSIS/DSP/Source/TransformFunctions/arm_cfft_radix2_init_f32.c ****  * Project:      CMSIS DSP Library
   3:./Libraries/CMSIS/DSP/Source/TransformFunctions/arm_cfft_radix2_init_f32.c ****  * Title:        arm_cfft_radix2_init_f32.c
   4:./Libraries/CMSIS/DSP/Source/TransformFunctions/arm_cfft_radix2_init_f32.c ****  * Description:  Radix-2 Decimation in Frequency Floating-point CFFT & CIFFT Initialization functio
   5:./Libraries/CMSIS/DSP/Source/TransformFunctions/arm_cfft_radix2_init_f32.c ****  *
   6:./Libraries/CMSIS/DSP/Source/TransformFunctions/arm_cfft_radix2_init_f32.c ****  * $Date:        18. March 2019
   7:./Libraries/CMSIS/DSP/Source/TransformFunctions/arm_cfft_radix2_init_f32.c ****  * $Revision:    V1.6.0
   8:./Libraries/CMSIS/DSP/Source/TransformFunctions/arm_cfft_radix2_init_f32.c ****  *
   9:./Libraries/CMSIS/DSP/Source/TransformFunctions/arm_cfft_radix2_init_f32.c ****  * Target Processor: Cortex-M cores
  10:./Libraries/CMSIS/DSP/Source/TransformFunctions/arm_cfft_radix2_init_f32.c ****  * -------------------------------------------------------------------- */
  11:./Libraries/CMSIS/DSP/Source/TransformFunctions/arm_cfft_radix2_init_f32.c **** /*
  12:./Libraries/CMSIS/DSP/Source/TransformFunctions/arm_cfft_radix2_init_f32.c ****  * Copyright (C) 2010-2019 ARM Limited or its affiliates. All rights reserved.
  13:./Libraries/CMSIS/DSP/Source/TransformFunctions/arm_cfft_radix2_init_f32.c ****  *
  14:./Libraries/CMSIS/DSP/Source/TransformFunctions/arm_cfft_radix2_init_f32.c ****  * SPDX-License-Identifier: Apache-2.0
  15:./Libraries/CMSIS/DSP/Source/TransformFunctions/arm_cfft_radix2_init_f32.c ****  *
  16:./Libraries/CMSIS/DSP/Source/TransformFunctions/arm_cfft_radix2_init_f32.c ****  * Licensed under the Apache License, Version 2.0 (the License); you may
  17:./Libraries/CMSIS/DSP/Source/TransformFunctions/arm_cfft_radix2_init_f32.c ****  * not use this file except in compliance with the License.
  18:./Libraries/CMSIS/DSP/Source/TransformFunctions/arm_cfft_radix2_init_f32.c ****  * You may obtain a copy of the License at
  19:./Libraries/CMSIS/DSP/Source/TransformFunctions/arm_cfft_radix2_init_f32.c ****  *
  20:./Libraries/CMSIS/DSP/Source/TransformFunctions/arm_cfft_radix2_init_f32.c ****  * www.apache.org/licenses/LICENSE-2.0
  21:./Libraries/CMSIS/DSP/Source/TransformFunctions/arm_cfft_radix2_init_f32.c ****  *
  22:./Libraries/CMSIS/DSP/Source/TransformFunctions/arm_cfft_radix2_init_f32.c ****  * Unless required by applicable law or agreed to in writing, software
  23:./Libraries/CMSIS/DSP/Source/TransformFunctions/arm_cfft_radix2_init_f32.c ****  * distributed under the License is distributed on an AS IS BASIS, WITHOUT
  24:./Libraries/CMSIS/DSP/Source/TransformFunctions/arm_cfft_radix2_init_f32.c ****  * WARRANTIES OR CONDITIONS OF ANY KIND, either express or implied.
  25:./Libraries/CMSIS/DSP/Source/TransformFunctions/arm_cfft_radix2_init_f32.c ****  * See the License for the specific language governing permissions and
  26:./Libraries/CMSIS/DSP/Source/TransformFunctions/arm_cfft_radix2_init_f32.c ****  * limitations under the License.
  27:./Libraries/CMSIS/DSP/Source/TransformFunctions/arm_cfft_radix2_init_f32.c ****  */
  28:./Libraries/CMSIS/DSP/Source/TransformFunctions/arm_cfft_radix2_init_f32.c **** 
  29:./Libraries/CMSIS/DSP/Source/TransformFunctions/arm_cfft_radix2_init_f32.c **** #include "arm_math.h"
  30:./Libraries/CMSIS/DSP/Source/TransformFunctions/arm_cfft_radix2_init_f32.c **** #include "arm_common_tables.h"
  31:./Libraries/CMSIS/DSP/Source/TransformFunctions/arm_cfft_radix2_init_f32.c **** 
ARM GAS  /tmp/ccDO94EP.s 			page 2


  32:./Libraries/CMSIS/DSP/Source/TransformFunctions/arm_cfft_radix2_init_f32.c **** /**
  33:./Libraries/CMSIS/DSP/Source/TransformFunctions/arm_cfft_radix2_init_f32.c ****   @ingroup groupTransforms
  34:./Libraries/CMSIS/DSP/Source/TransformFunctions/arm_cfft_radix2_init_f32.c ****  */
  35:./Libraries/CMSIS/DSP/Source/TransformFunctions/arm_cfft_radix2_init_f32.c **** 
  36:./Libraries/CMSIS/DSP/Source/TransformFunctions/arm_cfft_radix2_init_f32.c **** /**
  37:./Libraries/CMSIS/DSP/Source/TransformFunctions/arm_cfft_radix2_init_f32.c ****   @addtogroup ComplexFFT
  38:./Libraries/CMSIS/DSP/Source/TransformFunctions/arm_cfft_radix2_init_f32.c ****   @{
  39:./Libraries/CMSIS/DSP/Source/TransformFunctions/arm_cfft_radix2_init_f32.c ****  */
  40:./Libraries/CMSIS/DSP/Source/TransformFunctions/arm_cfft_radix2_init_f32.c **** 
  41:./Libraries/CMSIS/DSP/Source/TransformFunctions/arm_cfft_radix2_init_f32.c **** /**
  42:./Libraries/CMSIS/DSP/Source/TransformFunctions/arm_cfft_radix2_init_f32.c ****   @brief         Initialization function for the floating-point CFFT/CIFFT.
  43:./Libraries/CMSIS/DSP/Source/TransformFunctions/arm_cfft_radix2_init_f32.c ****   @deprecated    Do not use this function. It has been superseded by \ref arm_cfft_f32 and will be 
  44:./Libraries/CMSIS/DSP/Source/TransformFunctions/arm_cfft_radix2_init_f32.c ****   @param[in,out] S              points to an instance of the floating-point CFFT/CIFFT structure
  45:./Libraries/CMSIS/DSP/Source/TransformFunctions/arm_cfft_radix2_init_f32.c ****   @param[in]     fftLen         length of the FFT
  46:./Libraries/CMSIS/DSP/Source/TransformFunctions/arm_cfft_radix2_init_f32.c ****   @param[in]     ifftFlag       flag that selects transform direction
  47:./Libraries/CMSIS/DSP/Source/TransformFunctions/arm_cfft_radix2_init_f32.c ****                    - value = 0: forward transform
  48:./Libraries/CMSIS/DSP/Source/TransformFunctions/arm_cfft_radix2_init_f32.c ****                    - value = 1: inverse transform
  49:./Libraries/CMSIS/DSP/Source/TransformFunctions/arm_cfft_radix2_init_f32.c ****   @param[in]     bitReverseFlag flag that enables / disables bit reversal of output
  50:./Libraries/CMSIS/DSP/Source/TransformFunctions/arm_cfft_radix2_init_f32.c ****                    - value = 0: disables bit reversal of output
  51:./Libraries/CMSIS/DSP/Source/TransformFunctions/arm_cfft_radix2_init_f32.c ****                    - value = 1: enables bit reversal of output
  52:./Libraries/CMSIS/DSP/Source/TransformFunctions/arm_cfft_radix2_init_f32.c ****   @return        execution status
  53:./Libraries/CMSIS/DSP/Source/TransformFunctions/arm_cfft_radix2_init_f32.c ****                    - \ref ARM_MATH_SUCCESS        : Operation successful
  54:./Libraries/CMSIS/DSP/Source/TransformFunctions/arm_cfft_radix2_init_f32.c ****                    - \ref ARM_MATH_ARGUMENT_ERROR : <code>fftLen</code> is not a supported length
  55:./Libraries/CMSIS/DSP/Source/TransformFunctions/arm_cfft_radix2_init_f32.c **** 
  56:./Libraries/CMSIS/DSP/Source/TransformFunctions/arm_cfft_radix2_init_f32.c ****   @par           Details
  57:./Libraries/CMSIS/DSP/Source/TransformFunctions/arm_cfft_radix2_init_f32.c ****                    The parameter <code>ifftFlag</code> controls whether a forward or inverse transf
  58:./Libraries/CMSIS/DSP/Source/TransformFunctions/arm_cfft_radix2_init_f32.c ****                    Set(=1) ifftFlag for calculation of CIFFT otherwise  CFFT is calculated
  59:./Libraries/CMSIS/DSP/Source/TransformFunctions/arm_cfft_radix2_init_f32.c ****   @par
  60:./Libraries/CMSIS/DSP/Source/TransformFunctions/arm_cfft_radix2_init_f32.c ****                    The parameter <code>bitReverseFlag</code> controls whether output is in normal o
  61:./Libraries/CMSIS/DSP/Source/TransformFunctions/arm_cfft_radix2_init_f32.c ****                    Set(=1) bitReverseFlag for output to be in normal order otherwise output is in b
  62:./Libraries/CMSIS/DSP/Source/TransformFunctions/arm_cfft_radix2_init_f32.c ****   @par
  63:./Libraries/CMSIS/DSP/Source/TransformFunctions/arm_cfft_radix2_init_f32.c ****                    The parameter <code>fftLen</code> Specifies length of CFFT/CIFFT process. Suppor
  64:./Libraries/CMSIS/DSP/Source/TransformFunctions/arm_cfft_radix2_init_f32.c ****   @par
  65:./Libraries/CMSIS/DSP/Source/TransformFunctions/arm_cfft_radix2_init_f32.c ****                    This Function also initializes Twiddle factor table pointer and Bit reversal tab
  66:./Libraries/CMSIS/DSP/Source/TransformFunctions/arm_cfft_radix2_init_f32.c **** */
  67:./Libraries/CMSIS/DSP/Source/TransformFunctions/arm_cfft_radix2_init_f32.c **** 
  68:./Libraries/CMSIS/DSP/Source/TransformFunctions/arm_cfft_radix2_init_f32.c **** arm_status arm_cfft_radix2_init_f32(
  69:./Libraries/CMSIS/DSP/Source/TransformFunctions/arm_cfft_radix2_init_f32.c ****   arm_cfft_radix2_instance_f32 * S,
  70:./Libraries/CMSIS/DSP/Source/TransformFunctions/arm_cfft_radix2_init_f32.c ****   uint16_t fftLen,
  71:./Libraries/CMSIS/DSP/Source/TransformFunctions/arm_cfft_radix2_init_f32.c ****   uint8_t ifftFlag,
  72:./Libraries/CMSIS/DSP/Source/TransformFunctions/arm_cfft_radix2_init_f32.c ****   uint8_t bitReverseFlag)
  73:./Libraries/CMSIS/DSP/Source/TransformFunctions/arm_cfft_radix2_init_f32.c **** {
  28              		.loc 1 73 1
  29              		.cfi_startproc
  30              		@ args = 0, pretend = 0, frame = 16
  31              		@ frame_needed = 1, uses_anonymous_args = 0
  32              		@ link register save eliminated.
  33 0000 80B4     		push	{r7}
  34              	.LCFI0:
  35              		.cfi_def_cfa_offset 4
  36              		.cfi_offset 7, -4
  37 0002 85B0     		sub	sp, sp, #20
  38              	.LCFI1:
  39              		.cfi_def_cfa_offset 24
  40 0004 00AF     		add	r7, sp, #0
  41              	.LCFI2:
  42              		.cfi_def_cfa_register 7
ARM GAS  /tmp/ccDO94EP.s 			page 3


  43 0006 7860     		str	r0, [r7, #4]
  44 0008 0846     		mov	r0, r1
  45 000a 1146     		mov	r1, r2
  46 000c 1A46     		mov	r2, r3
  47 000e 0346     		mov	r3, r0	@ movhi
  48 0010 7B80     		strh	r3, [r7, #2]	@ movhi
  49 0012 0B46     		mov	r3, r1
  50 0014 7B70     		strb	r3, [r7, #1]
  51 0016 1346     		mov	r3, r2
  52 0018 3B70     		strb	r3, [r7]
  74:./Libraries/CMSIS/DSP/Source/TransformFunctions/arm_cfft_radix2_init_f32.c ****   /*  Initialise the default arm status */
  75:./Libraries/CMSIS/DSP/Source/TransformFunctions/arm_cfft_radix2_init_f32.c ****   arm_status status = ARM_MATH_SUCCESS;
  53              		.loc 1 75 14
  54 001a 0023     		movs	r3, #0
  55 001c FB73     		strb	r3, [r7, #15]
  76:./Libraries/CMSIS/DSP/Source/TransformFunctions/arm_cfft_radix2_init_f32.c **** 
  77:./Libraries/CMSIS/DSP/Source/TransformFunctions/arm_cfft_radix2_init_f32.c ****   /*  Initialise the FFT length */
  78:./Libraries/CMSIS/DSP/Source/TransformFunctions/arm_cfft_radix2_init_f32.c ****   S->fftLen = fftLen;
  56              		.loc 1 78 13
  57 001e 7B68     		ldr	r3, [r7, #4]
  58 0020 7A88     		ldrh	r2, [r7, #2]	@ movhi
  59 0022 1A80     		strh	r2, [r3]	@ movhi
  79:./Libraries/CMSIS/DSP/Source/TransformFunctions/arm_cfft_radix2_init_f32.c **** 
  80:./Libraries/CMSIS/DSP/Source/TransformFunctions/arm_cfft_radix2_init_f32.c ****   /*  Initialise the Twiddle coefficient pointer */
  81:./Libraries/CMSIS/DSP/Source/TransformFunctions/arm_cfft_radix2_init_f32.c ****   S->pTwiddle = (float32_t *) twiddleCoef;
  60              		.loc 1 81 15
  61 0024 7B68     		ldr	r3, [r7, #4]
  62 0026 634A     		ldr	r2, .L14
  63 0028 5A60     		str	r2, [r3, #4]
  82:./Libraries/CMSIS/DSP/Source/TransformFunctions/arm_cfft_radix2_init_f32.c **** 
  83:./Libraries/CMSIS/DSP/Source/TransformFunctions/arm_cfft_radix2_init_f32.c ****   /*  Initialise the Flag for selection of CFFT or CIFFT */
  84:./Libraries/CMSIS/DSP/Source/TransformFunctions/arm_cfft_radix2_init_f32.c ****   S->ifftFlag = ifftFlag;
  64              		.loc 1 84 15
  65 002a 7B68     		ldr	r3, [r7, #4]
  66 002c 7A78     		ldrb	r2, [r7, #1]
  67 002e 9A70     		strb	r2, [r3, #2]
  85:./Libraries/CMSIS/DSP/Source/TransformFunctions/arm_cfft_radix2_init_f32.c **** 
  86:./Libraries/CMSIS/DSP/Source/TransformFunctions/arm_cfft_radix2_init_f32.c ****   /*  Initialise the Flag for calculation Bit reversal or not */
  87:./Libraries/CMSIS/DSP/Source/TransformFunctions/arm_cfft_radix2_init_f32.c ****   S->bitReverseFlag = bitReverseFlag;
  68              		.loc 1 87 21
  69 0030 7B68     		ldr	r3, [r7, #4]
  70 0032 3A78     		ldrb	r2, [r7]
  71 0034 DA70     		strb	r2, [r3, #3]
  88:./Libraries/CMSIS/DSP/Source/TransformFunctions/arm_cfft_radix2_init_f32.c **** 
  89:./Libraries/CMSIS/DSP/Source/TransformFunctions/arm_cfft_radix2_init_f32.c ****   /*  Initializations of structure parameters depending on the FFT length */
  90:./Libraries/CMSIS/DSP/Source/TransformFunctions/arm_cfft_radix2_init_f32.c ****   switch (S->fftLen)
  72              		.loc 1 90 12
  73 0036 7B68     		ldr	r3, [r7, #4]
  74 0038 1B88     		ldrh	r3, [r3]
  75              		.loc 1 90 3
  76 003a B3F5805F 		cmp	r3, #4096
  77 003e 2ED0     		beq	.L2
  78 0040 B3F5805F 		cmp	r3, #4096
  79 0044 00F3AB80 		bgt	.L3
  80 0048 B3F5006F 		cmp	r3, #2048
  81 004c 35D0     		beq	.L4
  82 004e B3F5006F 		cmp	r3, #2048
ARM GAS  /tmp/ccDO94EP.s 			page 4


  83 0052 00F3A480 		bgt	.L3
  84 0056 B3F5806F 		cmp	r3, #1024
  85 005a 3CD0     		beq	.L5
  86 005c B3F5806F 		cmp	r3, #1024
  87 0060 00F39D80 		bgt	.L3
  88 0064 B3F5007F 		cmp	r3, #512
  89 0068 43D0     		beq	.L6
  90 006a B3F5007F 		cmp	r3, #512
  91 006e 00F39680 		bgt	.L3
  92 0072 B3F5807F 		cmp	r3, #256
  93 0076 4AD0     		beq	.L7
  94 0078 B3F5807F 		cmp	r3, #256
  95 007c 00F38F80 		bgt	.L3
  96 0080 802B     		cmp	r3, #128
  97 0082 52D0     		beq	.L8
  98 0084 802B     		cmp	r3, #128
  99 0086 00F38A80 		bgt	.L3
 100 008a 402B     		cmp	r3, #64
 101 008c 5BD0     		beq	.L9
 102 008e 402B     		cmp	r3, #64
 103 0090 00F38580 		bgt	.L3
 104 0094 102B     		cmp	r3, #16
 105 0096 72D0     		beq	.L10
 106 0098 202B     		cmp	r3, #32
 107 009a 62D0     		beq	.L11
 108 009c 7FE0     		b	.L3
 109              	.L2:
  91:./Libraries/CMSIS/DSP/Source/TransformFunctions/arm_cfft_radix2_init_f32.c ****   {
  92:./Libraries/CMSIS/DSP/Source/TransformFunctions/arm_cfft_radix2_init_f32.c **** 
  93:./Libraries/CMSIS/DSP/Source/TransformFunctions/arm_cfft_radix2_init_f32.c ****   case 4096U:
  94:./Libraries/CMSIS/DSP/Source/TransformFunctions/arm_cfft_radix2_init_f32.c ****     /*  Initializations of structure parameters for 4096 point FFT */
  95:./Libraries/CMSIS/DSP/Source/TransformFunctions/arm_cfft_radix2_init_f32.c **** 
  96:./Libraries/CMSIS/DSP/Source/TransformFunctions/arm_cfft_radix2_init_f32.c ****     /*  Initialise the twiddle coef modifier value */
  97:./Libraries/CMSIS/DSP/Source/TransformFunctions/arm_cfft_radix2_init_f32.c ****     S->twidCoefModifier = 1U;
 110              		.loc 1 97 25
 111 009e 7B68     		ldr	r3, [r7, #4]
 112 00a0 0122     		movs	r2, #1
 113 00a2 9A81     		strh	r2, [r3, #12]	@ movhi
  98:./Libraries/CMSIS/DSP/Source/TransformFunctions/arm_cfft_radix2_init_f32.c ****     /*  Initialise the bit reversal table modifier */
  99:./Libraries/CMSIS/DSP/Source/TransformFunctions/arm_cfft_radix2_init_f32.c ****     S->bitRevFactor = 1U;
 114              		.loc 1 99 21
 115 00a4 7B68     		ldr	r3, [r7, #4]
 116 00a6 0122     		movs	r2, #1
 117 00a8 DA81     		strh	r2, [r3, #14]	@ movhi
 100:./Libraries/CMSIS/DSP/Source/TransformFunctions/arm_cfft_radix2_init_f32.c ****     /*  Initialise the bit reversal table pointer */
 101:./Libraries/CMSIS/DSP/Source/TransformFunctions/arm_cfft_radix2_init_f32.c ****     S->pBitRevTable = (uint16_t *) armBitRevTable;
 118              		.loc 1 101 21
 119 00aa 7B68     		ldr	r3, [r7, #4]
 120 00ac 424A     		ldr	r2, .L14+4
 121 00ae 9A60     		str	r2, [r3, #8]
 102:./Libraries/CMSIS/DSP/Source/TransformFunctions/arm_cfft_radix2_init_f32.c ****     /*  Initialise the 1/fftLen Value */
 103:./Libraries/CMSIS/DSP/Source/TransformFunctions/arm_cfft_radix2_init_f32.c ****     S->onebyfftLen = 0.000244140625;
 122              		.loc 1 103 20
 123 00b0 7B68     		ldr	r3, [r7, #4]
 124 00b2 4FF06652 		mov	r2, #964689920
 125 00b6 1A61     		str	r2, [r3, #16]	@ float
 104:./Libraries/CMSIS/DSP/Source/TransformFunctions/arm_cfft_radix2_init_f32.c ****     break;
ARM GAS  /tmp/ccDO94EP.s 			page 5


 126              		.loc 1 104 5
 127 00b8 74E0     		b	.L12
 128              	.L4:
 105:./Libraries/CMSIS/DSP/Source/TransformFunctions/arm_cfft_radix2_init_f32.c **** 
 106:./Libraries/CMSIS/DSP/Source/TransformFunctions/arm_cfft_radix2_init_f32.c ****   case 2048U:
 107:./Libraries/CMSIS/DSP/Source/TransformFunctions/arm_cfft_radix2_init_f32.c ****     /*  Initializations of structure parameters for 2048 point FFT */
 108:./Libraries/CMSIS/DSP/Source/TransformFunctions/arm_cfft_radix2_init_f32.c **** 
 109:./Libraries/CMSIS/DSP/Source/TransformFunctions/arm_cfft_radix2_init_f32.c ****     /*  Initialise the twiddle coef modifier value */
 110:./Libraries/CMSIS/DSP/Source/TransformFunctions/arm_cfft_radix2_init_f32.c ****     S->twidCoefModifier = 2U;
 129              		.loc 1 110 25
 130 00ba 7B68     		ldr	r3, [r7, #4]
 131 00bc 0222     		movs	r2, #2
 132 00be 9A81     		strh	r2, [r3, #12]	@ movhi
 111:./Libraries/CMSIS/DSP/Source/TransformFunctions/arm_cfft_radix2_init_f32.c ****     /*  Initialise the bit reversal table modifier */
 112:./Libraries/CMSIS/DSP/Source/TransformFunctions/arm_cfft_radix2_init_f32.c ****     S->bitRevFactor = 2U;
 133              		.loc 1 112 21
 134 00c0 7B68     		ldr	r3, [r7, #4]
 135 00c2 0222     		movs	r2, #2
 136 00c4 DA81     		strh	r2, [r3, #14]	@ movhi
 113:./Libraries/CMSIS/DSP/Source/TransformFunctions/arm_cfft_radix2_init_f32.c ****     /*  Initialise the bit reversal table pointer */
 114:./Libraries/CMSIS/DSP/Source/TransformFunctions/arm_cfft_radix2_init_f32.c ****     S->pBitRevTable = (uint16_t *) & armBitRevTable[1];
 137              		.loc 1 114 21
 138 00c6 7B68     		ldr	r3, [r7, #4]
 139 00c8 3C4A     		ldr	r2, .L14+8
 140 00ca 9A60     		str	r2, [r3, #8]
 115:./Libraries/CMSIS/DSP/Source/TransformFunctions/arm_cfft_radix2_init_f32.c ****     /*  Initialise the 1/fftLen Value */
 116:./Libraries/CMSIS/DSP/Source/TransformFunctions/arm_cfft_radix2_init_f32.c ****     S->onebyfftLen = 0.00048828125;
 141              		.loc 1 116 20
 142 00cc 7B68     		ldr	r3, [r7, #4]
 143 00ce 4FF06852 		mov	r2, #973078528
 144 00d2 1A61     		str	r2, [r3, #16]	@ float
 117:./Libraries/CMSIS/DSP/Source/TransformFunctions/arm_cfft_radix2_init_f32.c ****     break;
 145              		.loc 1 117 5
 146 00d4 66E0     		b	.L12
 147              	.L5:
 118:./Libraries/CMSIS/DSP/Source/TransformFunctions/arm_cfft_radix2_init_f32.c **** 
 119:./Libraries/CMSIS/DSP/Source/TransformFunctions/arm_cfft_radix2_init_f32.c ****   case 1024U:
 120:./Libraries/CMSIS/DSP/Source/TransformFunctions/arm_cfft_radix2_init_f32.c ****     /*  Initializations of structure parameters for 1024 point FFT */
 121:./Libraries/CMSIS/DSP/Source/TransformFunctions/arm_cfft_radix2_init_f32.c **** 
 122:./Libraries/CMSIS/DSP/Source/TransformFunctions/arm_cfft_radix2_init_f32.c ****     /*  Initialise the twiddle coef modifier value */
 123:./Libraries/CMSIS/DSP/Source/TransformFunctions/arm_cfft_radix2_init_f32.c ****     S->twidCoefModifier = 4U;
 148              		.loc 1 123 25
 149 00d6 7B68     		ldr	r3, [r7, #4]
 150 00d8 0422     		movs	r2, #4
 151 00da 9A81     		strh	r2, [r3, #12]	@ movhi
 124:./Libraries/CMSIS/DSP/Source/TransformFunctions/arm_cfft_radix2_init_f32.c ****     /*  Initialise the bit reversal table modifier */
 125:./Libraries/CMSIS/DSP/Source/TransformFunctions/arm_cfft_radix2_init_f32.c ****     S->bitRevFactor = 4U;
 152              		.loc 1 125 21
 153 00dc 7B68     		ldr	r3, [r7, #4]
 154 00de 0422     		movs	r2, #4
 155 00e0 DA81     		strh	r2, [r3, #14]	@ movhi
 126:./Libraries/CMSIS/DSP/Source/TransformFunctions/arm_cfft_radix2_init_f32.c ****     /*  Initialise the bit reversal table pointer */
 127:./Libraries/CMSIS/DSP/Source/TransformFunctions/arm_cfft_radix2_init_f32.c ****     S->pBitRevTable = (uint16_t *) & armBitRevTable[3];
 156              		.loc 1 127 21
 157 00e2 7B68     		ldr	r3, [r7, #4]
 158 00e4 364A     		ldr	r2, .L14+12
 159 00e6 9A60     		str	r2, [r3, #8]
ARM GAS  /tmp/ccDO94EP.s 			page 6


 128:./Libraries/CMSIS/DSP/Source/TransformFunctions/arm_cfft_radix2_init_f32.c ****     /*  Initialise the 1/fftLen Value */
 129:./Libraries/CMSIS/DSP/Source/TransformFunctions/arm_cfft_radix2_init_f32.c ****     S->onebyfftLen = 0.0009765625f;
 160              		.loc 1 129 20
 161 00e8 7B68     		ldr	r3, [r7, #4]
 162 00ea 4FF06A52 		mov	r2, #981467136
 163 00ee 1A61     		str	r2, [r3, #16]	@ float
 130:./Libraries/CMSIS/DSP/Source/TransformFunctions/arm_cfft_radix2_init_f32.c ****     break;
 164              		.loc 1 130 5
 165 00f0 58E0     		b	.L12
 166              	.L6:
 131:./Libraries/CMSIS/DSP/Source/TransformFunctions/arm_cfft_radix2_init_f32.c **** 
 132:./Libraries/CMSIS/DSP/Source/TransformFunctions/arm_cfft_radix2_init_f32.c ****   case 512U:
 133:./Libraries/CMSIS/DSP/Source/TransformFunctions/arm_cfft_radix2_init_f32.c ****     /*  Initializations of structure parameters for 512 point FFT */
 134:./Libraries/CMSIS/DSP/Source/TransformFunctions/arm_cfft_radix2_init_f32.c **** 
 135:./Libraries/CMSIS/DSP/Source/TransformFunctions/arm_cfft_radix2_init_f32.c ****     /*  Initialise the twiddle coef modifier value */
 136:./Libraries/CMSIS/DSP/Source/TransformFunctions/arm_cfft_radix2_init_f32.c ****     S->twidCoefModifier = 8U;
 167              		.loc 1 136 25
 168 00f2 7B68     		ldr	r3, [r7, #4]
 169 00f4 0822     		movs	r2, #8
 170 00f6 9A81     		strh	r2, [r3, #12]	@ movhi
 137:./Libraries/CMSIS/DSP/Source/TransformFunctions/arm_cfft_radix2_init_f32.c ****     /*  Initialise the bit reversal table modifier */
 138:./Libraries/CMSIS/DSP/Source/TransformFunctions/arm_cfft_radix2_init_f32.c ****     S->bitRevFactor = 8U;
 171              		.loc 1 138 21
 172 00f8 7B68     		ldr	r3, [r7, #4]
 173 00fa 0822     		movs	r2, #8
 174 00fc DA81     		strh	r2, [r3, #14]	@ movhi
 139:./Libraries/CMSIS/DSP/Source/TransformFunctions/arm_cfft_radix2_init_f32.c ****     /*  Initialise the bit reversal table pointer */
 140:./Libraries/CMSIS/DSP/Source/TransformFunctions/arm_cfft_radix2_init_f32.c ****     S->pBitRevTable = (uint16_t *) & armBitRevTable[7];
 175              		.loc 1 140 21
 176 00fe 7B68     		ldr	r3, [r7, #4]
 177 0100 304A     		ldr	r2, .L14+16
 178 0102 9A60     		str	r2, [r3, #8]
 141:./Libraries/CMSIS/DSP/Source/TransformFunctions/arm_cfft_radix2_init_f32.c ****     /*  Initialise the 1/fftLen Value */
 142:./Libraries/CMSIS/DSP/Source/TransformFunctions/arm_cfft_radix2_init_f32.c ****     S->onebyfftLen = 0.001953125;
 179              		.loc 1 142 20
 180 0104 7B68     		ldr	r3, [r7, #4]
 181 0106 4FF06C52 		mov	r2, #989855744
 182 010a 1A61     		str	r2, [r3, #16]	@ float
 143:./Libraries/CMSIS/DSP/Source/TransformFunctions/arm_cfft_radix2_init_f32.c ****     break;
 183              		.loc 1 143 5
 184 010c 4AE0     		b	.L12
 185              	.L7:
 144:./Libraries/CMSIS/DSP/Source/TransformFunctions/arm_cfft_radix2_init_f32.c **** 
 145:./Libraries/CMSIS/DSP/Source/TransformFunctions/arm_cfft_radix2_init_f32.c ****   case 256U:
 146:./Libraries/CMSIS/DSP/Source/TransformFunctions/arm_cfft_radix2_init_f32.c ****     /*  Initializations of structure parameters for 256 point FFT */
 147:./Libraries/CMSIS/DSP/Source/TransformFunctions/arm_cfft_radix2_init_f32.c ****     S->twidCoefModifier = 16U;
 186              		.loc 1 147 25
 187 010e 7B68     		ldr	r3, [r7, #4]
 188 0110 1022     		movs	r2, #16
 189 0112 9A81     		strh	r2, [r3, #12]	@ movhi
 148:./Libraries/CMSIS/DSP/Source/TransformFunctions/arm_cfft_radix2_init_f32.c ****     S->bitRevFactor = 16U;
 190              		.loc 1 148 21
 191 0114 7B68     		ldr	r3, [r7, #4]
 192 0116 1022     		movs	r2, #16
 193 0118 DA81     		strh	r2, [r3, #14]	@ movhi
 149:./Libraries/CMSIS/DSP/Source/TransformFunctions/arm_cfft_radix2_init_f32.c ****     S->pBitRevTable = (uint16_t *) & armBitRevTable[15];
 194              		.loc 1 149 21
ARM GAS  /tmp/ccDO94EP.s 			page 7


 195 011a 7B68     		ldr	r3, [r7, #4]
 196 011c 2A4A     		ldr	r2, .L14+20
 197 011e 9A60     		str	r2, [r3, #8]
 150:./Libraries/CMSIS/DSP/Source/TransformFunctions/arm_cfft_radix2_init_f32.c ****     S->onebyfftLen = 0.00390625f;
 198              		.loc 1 150 20
 199 0120 7B68     		ldr	r3, [r7, #4]
 200 0122 4FF06E52 		mov	r2, #998244352
 201 0126 1A61     		str	r2, [r3, #16]	@ float
 151:./Libraries/CMSIS/DSP/Source/TransformFunctions/arm_cfft_radix2_init_f32.c ****     break;
 202              		.loc 1 151 5
 203 0128 3CE0     		b	.L12
 204              	.L8:
 152:./Libraries/CMSIS/DSP/Source/TransformFunctions/arm_cfft_radix2_init_f32.c **** 
 153:./Libraries/CMSIS/DSP/Source/TransformFunctions/arm_cfft_radix2_init_f32.c ****   case 128U:
 154:./Libraries/CMSIS/DSP/Source/TransformFunctions/arm_cfft_radix2_init_f32.c ****     /*  Initializations of structure parameters for 128 point FFT */
 155:./Libraries/CMSIS/DSP/Source/TransformFunctions/arm_cfft_radix2_init_f32.c ****     S->twidCoefModifier = 32U;
 205              		.loc 1 155 25
 206 012a 7B68     		ldr	r3, [r7, #4]
 207 012c 2022     		movs	r2, #32
 208 012e 9A81     		strh	r2, [r3, #12]	@ movhi
 156:./Libraries/CMSIS/DSP/Source/TransformFunctions/arm_cfft_radix2_init_f32.c ****     S->bitRevFactor = 32U;
 209              		.loc 1 156 21
 210 0130 7B68     		ldr	r3, [r7, #4]
 211 0132 2022     		movs	r2, #32
 212 0134 DA81     		strh	r2, [r3, #14]	@ movhi
 157:./Libraries/CMSIS/DSP/Source/TransformFunctions/arm_cfft_radix2_init_f32.c ****     S->pBitRevTable = (uint16_t *) & armBitRevTable[31];
 213              		.loc 1 157 21
 214 0136 7B68     		ldr	r3, [r7, #4]
 215 0138 244A     		ldr	r2, .L14+24
 216 013a 9A60     		str	r2, [r3, #8]
 158:./Libraries/CMSIS/DSP/Source/TransformFunctions/arm_cfft_radix2_init_f32.c ****     S->onebyfftLen = 0.0078125;
 217              		.loc 1 158 20
 218 013c 7B68     		ldr	r3, [r7, #4]
 219 013e 4FF07052 		mov	r2, #1006632960
 220 0142 1A61     		str	r2, [r3, #16]	@ float
 159:./Libraries/CMSIS/DSP/Source/TransformFunctions/arm_cfft_radix2_init_f32.c ****     break;
 221              		.loc 1 159 5
 222 0144 2EE0     		b	.L12
 223              	.L9:
 160:./Libraries/CMSIS/DSP/Source/TransformFunctions/arm_cfft_radix2_init_f32.c **** 
 161:./Libraries/CMSIS/DSP/Source/TransformFunctions/arm_cfft_radix2_init_f32.c ****   case 64U:
 162:./Libraries/CMSIS/DSP/Source/TransformFunctions/arm_cfft_radix2_init_f32.c ****     /*  Initializations of structure parameters for 64 point FFT */
 163:./Libraries/CMSIS/DSP/Source/TransformFunctions/arm_cfft_radix2_init_f32.c ****     S->twidCoefModifier = 64U;
 224              		.loc 1 163 25
 225 0146 7B68     		ldr	r3, [r7, #4]
 226 0148 4022     		movs	r2, #64
 227 014a 9A81     		strh	r2, [r3, #12]	@ movhi
 164:./Libraries/CMSIS/DSP/Source/TransformFunctions/arm_cfft_radix2_init_f32.c ****     S->bitRevFactor = 64U;
 228              		.loc 1 164 21
 229 014c 7B68     		ldr	r3, [r7, #4]
 230 014e 4022     		movs	r2, #64
 231 0150 DA81     		strh	r2, [r3, #14]	@ movhi
 165:./Libraries/CMSIS/DSP/Source/TransformFunctions/arm_cfft_radix2_init_f32.c ****     S->pBitRevTable = (uint16_t *) & armBitRevTable[63];
 232              		.loc 1 165 21
 233 0152 7B68     		ldr	r3, [r7, #4]
 234 0154 1E4A     		ldr	r2, .L14+28
 235 0156 9A60     		str	r2, [r3, #8]
ARM GAS  /tmp/ccDO94EP.s 			page 8


 166:./Libraries/CMSIS/DSP/Source/TransformFunctions/arm_cfft_radix2_init_f32.c ****     S->onebyfftLen = 0.015625f;
 236              		.loc 1 166 20
 237 0158 7B68     		ldr	r3, [r7, #4]
 238 015a 4FF07252 		mov	r2, #1015021568
 239 015e 1A61     		str	r2, [r3, #16]	@ float
 167:./Libraries/CMSIS/DSP/Source/TransformFunctions/arm_cfft_radix2_init_f32.c ****     break;
 240              		.loc 1 167 5
 241 0160 20E0     		b	.L12
 242              	.L11:
 168:./Libraries/CMSIS/DSP/Source/TransformFunctions/arm_cfft_radix2_init_f32.c **** 
 169:./Libraries/CMSIS/DSP/Source/TransformFunctions/arm_cfft_radix2_init_f32.c ****   case 32U:
 170:./Libraries/CMSIS/DSP/Source/TransformFunctions/arm_cfft_radix2_init_f32.c ****     /*  Initializations of structure parameters for 64 point FFT */
 171:./Libraries/CMSIS/DSP/Source/TransformFunctions/arm_cfft_radix2_init_f32.c ****     S->twidCoefModifier = 128U;
 243              		.loc 1 171 25
 244 0162 7B68     		ldr	r3, [r7, #4]
 245 0164 8022     		movs	r2, #128
 246 0166 9A81     		strh	r2, [r3, #12]	@ movhi
 172:./Libraries/CMSIS/DSP/Source/TransformFunctions/arm_cfft_radix2_init_f32.c ****     S->bitRevFactor = 128U;
 247              		.loc 1 172 21
 248 0168 7B68     		ldr	r3, [r7, #4]
 249 016a 8022     		movs	r2, #128
 250 016c DA81     		strh	r2, [r3, #14]	@ movhi
 173:./Libraries/CMSIS/DSP/Source/TransformFunctions/arm_cfft_radix2_init_f32.c ****     S->pBitRevTable = (uint16_t *) & armBitRevTable[127];
 251              		.loc 1 173 21
 252 016e 7B68     		ldr	r3, [r7, #4]
 253 0170 184A     		ldr	r2, .L14+32
 254 0172 9A60     		str	r2, [r3, #8]
 174:./Libraries/CMSIS/DSP/Source/TransformFunctions/arm_cfft_radix2_init_f32.c ****     S->onebyfftLen = 0.03125;
 255              		.loc 1 174 20
 256 0174 7B68     		ldr	r3, [r7, #4]
 257 0176 4FF07452 		mov	r2, #1023410176
 258 017a 1A61     		str	r2, [r3, #16]	@ float
 175:./Libraries/CMSIS/DSP/Source/TransformFunctions/arm_cfft_radix2_init_f32.c ****     break;
 259              		.loc 1 175 5
 260 017c 12E0     		b	.L12
 261              	.L10:
 176:./Libraries/CMSIS/DSP/Source/TransformFunctions/arm_cfft_radix2_init_f32.c **** 
 177:./Libraries/CMSIS/DSP/Source/TransformFunctions/arm_cfft_radix2_init_f32.c ****   case 16U:
 178:./Libraries/CMSIS/DSP/Source/TransformFunctions/arm_cfft_radix2_init_f32.c ****     /*  Initializations of structure parameters for 16 point FFT */
 179:./Libraries/CMSIS/DSP/Source/TransformFunctions/arm_cfft_radix2_init_f32.c ****     S->twidCoefModifier = 256U;
 262              		.loc 1 179 25
 263 017e 7B68     		ldr	r3, [r7, #4]
 264 0180 4FF48072 		mov	r2, #256
 265 0184 9A81     		strh	r2, [r3, #12]	@ movhi
 180:./Libraries/CMSIS/DSP/Source/TransformFunctions/arm_cfft_radix2_init_f32.c ****     S->bitRevFactor = 256U;
 266              		.loc 1 180 21
 267 0186 7B68     		ldr	r3, [r7, #4]
 268 0188 4FF48072 		mov	r2, #256
 269 018c DA81     		strh	r2, [r3, #14]	@ movhi
 181:./Libraries/CMSIS/DSP/Source/TransformFunctions/arm_cfft_radix2_init_f32.c ****     S->pBitRevTable = (uint16_t *) & armBitRevTable[255];
 270              		.loc 1 181 21
 271 018e 7B68     		ldr	r3, [r7, #4]
 272 0190 114A     		ldr	r2, .L14+36
 273 0192 9A60     		str	r2, [r3, #8]
 182:./Libraries/CMSIS/DSP/Source/TransformFunctions/arm_cfft_radix2_init_f32.c ****     S->onebyfftLen = 0.0625f;
 274              		.loc 1 182 20
 275 0194 7B68     		ldr	r3, [r7, #4]
ARM GAS  /tmp/ccDO94EP.s 			page 9


 276 0196 4FF07652 		mov	r2, #1031798784
 277 019a 1A61     		str	r2, [r3, #16]	@ float
 183:./Libraries/CMSIS/DSP/Source/TransformFunctions/arm_cfft_radix2_init_f32.c ****     break;
 278              		.loc 1 183 5
 279 019c 02E0     		b	.L12
 280              	.L3:
 184:./Libraries/CMSIS/DSP/Source/TransformFunctions/arm_cfft_radix2_init_f32.c **** 
 185:./Libraries/CMSIS/DSP/Source/TransformFunctions/arm_cfft_radix2_init_f32.c **** 
 186:./Libraries/CMSIS/DSP/Source/TransformFunctions/arm_cfft_radix2_init_f32.c ****   default:
 187:./Libraries/CMSIS/DSP/Source/TransformFunctions/arm_cfft_radix2_init_f32.c ****     /*  Reporting argument error if fftSize is not valid value */
 188:./Libraries/CMSIS/DSP/Source/TransformFunctions/arm_cfft_radix2_init_f32.c ****     status = ARM_MATH_ARGUMENT_ERROR;
 281              		.loc 1 188 12
 282 019e FF23     		movs	r3, #255
 283 01a0 FB73     		strb	r3, [r7, #15]
 189:./Libraries/CMSIS/DSP/Source/TransformFunctions/arm_cfft_radix2_init_f32.c ****     break;
 284              		.loc 1 189 5
 285 01a2 00BF     		nop
 286              	.L12:
 190:./Libraries/CMSIS/DSP/Source/TransformFunctions/arm_cfft_radix2_init_f32.c ****   }
 191:./Libraries/CMSIS/DSP/Source/TransformFunctions/arm_cfft_radix2_init_f32.c **** 
 192:./Libraries/CMSIS/DSP/Source/TransformFunctions/arm_cfft_radix2_init_f32.c ****   return (status);
 287              		.loc 1 192 10
 288 01a4 97F90F30 		ldrsb	r3, [r7, #15]
 193:./Libraries/CMSIS/DSP/Source/TransformFunctions/arm_cfft_radix2_init_f32.c **** }
 289              		.loc 1 193 1
 290 01a8 1846     		mov	r0, r3
 291 01aa 1437     		adds	r7, r7, #20
 292              	.LCFI3:
 293              		.cfi_def_cfa_offset 4
 294 01ac BD46     		mov	sp, r7
 295              	.LCFI4:
 296              		.cfi_def_cfa_register 13
 297              		@ sp needed
 298 01ae 5DF8047B 		ldr	r7, [sp], #4
 299              	.LCFI5:
 300              		.cfi_restore 7
 301              		.cfi_def_cfa_offset 0
 302 01b2 7047     		bx	lr
 303              	.L15:
 304              		.align	2
 305              	.L14:
 306 01b4 00000000 		.word	twiddleCoef_4096
 307 01b8 00000000 		.word	armBitRevTable
 308 01bc 02000000 		.word	armBitRevTable+2
 309 01c0 06000000 		.word	armBitRevTable+6
 310 01c4 0E000000 		.word	armBitRevTable+14
 311 01c8 1E000000 		.word	armBitRevTable+30
 312 01cc 3E000000 		.word	armBitRevTable+62
 313 01d0 7E000000 		.word	armBitRevTable+126
 314 01d4 FE000000 		.word	armBitRevTable+254
 315 01d8 FE010000 		.word	armBitRevTable+510
 316              		.cfi_endproc
 317              	.LFE145:
 319              		.text
 320              	.Letext0:
 321              		.file 2 "/usr/lib/gcc/arm-none-eabi/9.2.1/include/stdint.h"
 322              		.file 3 "/usr/lib/gcc/arm-none-eabi/9.2.1/include/stddef.h"
ARM GAS  /tmp/ccDO94EP.s 			page 10


 323              		.file 4 "/usr/include/newlib/sys/_types.h"
 324              		.file 5 "/usr/include/newlib/sys/reent.h"
 325              		.file 6 "/usr/include/newlib/sys/lock.h"
 326              		.file 7 "/usr/include/newlib/math.h"
 327              		.file 8 "./Libraries/CMSIS/DSP/Include/arm_math.h"
 328              		.file 9 "./Libraries/CMSIS/DSP/Include/arm_common_tables.h"
ARM GAS  /tmp/ccDO94EP.s 			page 11

