ARM GAS  /tmp/ccBIAWsN.s 			page 1


   1              		.cpu cortex-m7
   2              		.eabi_attribute 28, 1
   3              		.eabi_attribute 20, 1
   4              		.eabi_attribute 21, 1
   5              		.eabi_attribute 23, 3
   6              		.eabi_attribute 24, 1
   7              		.eabi_attribute 25, 1
   8              		.eabi_attribute 26, 1
   9              		.eabi_attribute 30, 6
  10              		.eabi_attribute 34, 1
  11              		.eabi_attribute 18, 4
  12              		.file	"arm_sin_cos_f32.c"
  13              		.text
  14              	.Ltext0:
  15              		.cfi_sections	.debug_frame
  16              		.section	.text.arm_sin_cos_f32,"ax",%progbits
  17              		.align	1
  18              		.global	arm_sin_cos_f32
  19              		.arch armv7e-m
  20              		.syntax unified
  21              		.thumb
  22              		.thumb_func
  23              		.fpu fpv5-d16
  25              	arm_sin_cos_f32:
  26              	.LFB145:
  27              		.file 1 "./Libraries/CMSIS/DSP/Source/ControllerFunctions/arm_sin_cos_f32.c"
   1:./Libraries/CMSIS/DSP/Source/ControllerFunctions/arm_sin_cos_f32.c **** /* ----------------------------------------------------------------------
   2:./Libraries/CMSIS/DSP/Source/ControllerFunctions/arm_sin_cos_f32.c ****  * Project:      CMSIS DSP Library
   3:./Libraries/CMSIS/DSP/Source/ControllerFunctions/arm_sin_cos_f32.c ****  * Title:        arm_sin_cos_f32.c
   4:./Libraries/CMSIS/DSP/Source/ControllerFunctions/arm_sin_cos_f32.c ****  * Description:  Sine and Cosine calculation for floating-point values
   5:./Libraries/CMSIS/DSP/Source/ControllerFunctions/arm_sin_cos_f32.c ****  *
   6:./Libraries/CMSIS/DSP/Source/ControllerFunctions/arm_sin_cos_f32.c ****  * $Date:        18. March 2019
   7:./Libraries/CMSIS/DSP/Source/ControllerFunctions/arm_sin_cos_f32.c ****  * $Revision:    V1.6.0
   8:./Libraries/CMSIS/DSP/Source/ControllerFunctions/arm_sin_cos_f32.c ****  *
   9:./Libraries/CMSIS/DSP/Source/ControllerFunctions/arm_sin_cos_f32.c ****  * Target Processor: Cortex-M cores
  10:./Libraries/CMSIS/DSP/Source/ControllerFunctions/arm_sin_cos_f32.c ****  * -------------------------------------------------------------------- */
  11:./Libraries/CMSIS/DSP/Source/ControllerFunctions/arm_sin_cos_f32.c **** /*
  12:./Libraries/CMSIS/DSP/Source/ControllerFunctions/arm_sin_cos_f32.c ****  * Copyright (C) 2010-2019 ARM Limited or its affiliates. All rights reserved.
  13:./Libraries/CMSIS/DSP/Source/ControllerFunctions/arm_sin_cos_f32.c ****  *
  14:./Libraries/CMSIS/DSP/Source/ControllerFunctions/arm_sin_cos_f32.c ****  * SPDX-License-Identifier: Apache-2.0
  15:./Libraries/CMSIS/DSP/Source/ControllerFunctions/arm_sin_cos_f32.c ****  *
  16:./Libraries/CMSIS/DSP/Source/ControllerFunctions/arm_sin_cos_f32.c ****  * Licensed under the Apache License, Version 2.0 (the License); you may
  17:./Libraries/CMSIS/DSP/Source/ControllerFunctions/arm_sin_cos_f32.c ****  * not use this file except in compliance with the License.
  18:./Libraries/CMSIS/DSP/Source/ControllerFunctions/arm_sin_cos_f32.c ****  * You may obtain a copy of the License at
  19:./Libraries/CMSIS/DSP/Source/ControllerFunctions/arm_sin_cos_f32.c ****  *
  20:./Libraries/CMSIS/DSP/Source/ControllerFunctions/arm_sin_cos_f32.c ****  * www.apache.org/licenses/LICENSE-2.0
  21:./Libraries/CMSIS/DSP/Source/ControllerFunctions/arm_sin_cos_f32.c ****  *
  22:./Libraries/CMSIS/DSP/Source/ControllerFunctions/arm_sin_cos_f32.c ****  * Unless required by applicable law or agreed to in writing, software
  23:./Libraries/CMSIS/DSP/Source/ControllerFunctions/arm_sin_cos_f32.c ****  * distributed under the License is distributed on an AS IS BASIS, WITHOUT
  24:./Libraries/CMSIS/DSP/Source/ControllerFunctions/arm_sin_cos_f32.c ****  * WARRANTIES OR CONDITIONS OF ANY KIND, either express or implied.
  25:./Libraries/CMSIS/DSP/Source/ControllerFunctions/arm_sin_cos_f32.c ****  * See the License for the specific language governing permissions and
  26:./Libraries/CMSIS/DSP/Source/ControllerFunctions/arm_sin_cos_f32.c ****  * limitations under the License.
  27:./Libraries/CMSIS/DSP/Source/ControllerFunctions/arm_sin_cos_f32.c ****  */
  28:./Libraries/CMSIS/DSP/Source/ControllerFunctions/arm_sin_cos_f32.c **** 
  29:./Libraries/CMSIS/DSP/Source/ControllerFunctions/arm_sin_cos_f32.c **** #include "arm_math.h"
  30:./Libraries/CMSIS/DSP/Source/ControllerFunctions/arm_sin_cos_f32.c **** #include "arm_common_tables.h"
  31:./Libraries/CMSIS/DSP/Source/ControllerFunctions/arm_sin_cos_f32.c **** 
ARM GAS  /tmp/ccBIAWsN.s 			page 2


  32:./Libraries/CMSIS/DSP/Source/ControllerFunctions/arm_sin_cos_f32.c **** /**
  33:./Libraries/CMSIS/DSP/Source/ControllerFunctions/arm_sin_cos_f32.c ****   @ingroup groupController
  34:./Libraries/CMSIS/DSP/Source/ControllerFunctions/arm_sin_cos_f32.c ****  */
  35:./Libraries/CMSIS/DSP/Source/ControllerFunctions/arm_sin_cos_f32.c **** 
  36:./Libraries/CMSIS/DSP/Source/ControllerFunctions/arm_sin_cos_f32.c **** /**
  37:./Libraries/CMSIS/DSP/Source/ControllerFunctions/arm_sin_cos_f32.c ****   @defgroup SinCos Sine Cosine
  38:./Libraries/CMSIS/DSP/Source/ControllerFunctions/arm_sin_cos_f32.c **** 
  39:./Libraries/CMSIS/DSP/Source/ControllerFunctions/arm_sin_cos_f32.c ****   Computes the trigonometric sine and cosine values using a combination of table lookup
  40:./Libraries/CMSIS/DSP/Source/ControllerFunctions/arm_sin_cos_f32.c ****   and linear interpolation.
  41:./Libraries/CMSIS/DSP/Source/ControllerFunctions/arm_sin_cos_f32.c ****   There are separate functions for Q31 and floating-point data types.
  42:./Libraries/CMSIS/DSP/Source/ControllerFunctions/arm_sin_cos_f32.c ****   The input to the floating-point version is in degrees while the
  43:./Libraries/CMSIS/DSP/Source/ControllerFunctions/arm_sin_cos_f32.c ****   fixed-point Q31 have a scaled input with the range
  44:./Libraries/CMSIS/DSP/Source/ControllerFunctions/arm_sin_cos_f32.c ****   [-1 0.9999] mapping to [-180 +180] degrees.
  45:./Libraries/CMSIS/DSP/Source/ControllerFunctions/arm_sin_cos_f32.c **** 
  46:./Libraries/CMSIS/DSP/Source/ControllerFunctions/arm_sin_cos_f32.c ****   The floating point function also allows values that are out of the usual range. When this happens
  47:./Libraries/CMSIS/DSP/Source/ControllerFunctions/arm_sin_cos_f32.c ****   take extra time to adjust the input value to the range of [-180 180].
  48:./Libraries/CMSIS/DSP/Source/ControllerFunctions/arm_sin_cos_f32.c **** 
  49:./Libraries/CMSIS/DSP/Source/ControllerFunctions/arm_sin_cos_f32.c ****   The result is accurate to 5 digits after the decimal point.
  50:./Libraries/CMSIS/DSP/Source/ControllerFunctions/arm_sin_cos_f32.c **** 
  51:./Libraries/CMSIS/DSP/Source/ControllerFunctions/arm_sin_cos_f32.c ****   The implementation is based on table lookup using 360 values together with linear interpolation.
  52:./Libraries/CMSIS/DSP/Source/ControllerFunctions/arm_sin_cos_f32.c ****   The steps used are:
  53:./Libraries/CMSIS/DSP/Source/ControllerFunctions/arm_sin_cos_f32.c ****    -# Calculation of the nearest integer table index.
  54:./Libraries/CMSIS/DSP/Source/ControllerFunctions/arm_sin_cos_f32.c ****    -# Compute the fractional portion (fract) of the input.
  55:./Libraries/CMSIS/DSP/Source/ControllerFunctions/arm_sin_cos_f32.c ****    -# Fetch the value corresponding to \c index from sine table to \c y0 and also value from \c ind
  56:./Libraries/CMSIS/DSP/Source/ControllerFunctions/arm_sin_cos_f32.c ****    -# Sine value is computed as <code> *psinVal = y0 + (fract * (y1 - y0))</code>.
  57:./Libraries/CMSIS/DSP/Source/ControllerFunctions/arm_sin_cos_f32.c ****    -# Fetch the value corresponding to \c index from cosine table to \c y0 and also value from \c i
  58:./Libraries/CMSIS/DSP/Source/ControllerFunctions/arm_sin_cos_f32.c ****    -# Cosine value is computed as <code> *pcosVal = y0 + (fract * (y1 - y0))</code>.
  59:./Libraries/CMSIS/DSP/Source/ControllerFunctions/arm_sin_cos_f32.c ****  */
  60:./Libraries/CMSIS/DSP/Source/ControllerFunctions/arm_sin_cos_f32.c **** 
  61:./Libraries/CMSIS/DSP/Source/ControllerFunctions/arm_sin_cos_f32.c **** /**
  62:./Libraries/CMSIS/DSP/Source/ControllerFunctions/arm_sin_cos_f32.c ****   @addtogroup SinCos
  63:./Libraries/CMSIS/DSP/Source/ControllerFunctions/arm_sin_cos_f32.c ****   @{
  64:./Libraries/CMSIS/DSP/Source/ControllerFunctions/arm_sin_cos_f32.c ****  */
  65:./Libraries/CMSIS/DSP/Source/ControllerFunctions/arm_sin_cos_f32.c **** 
  66:./Libraries/CMSIS/DSP/Source/ControllerFunctions/arm_sin_cos_f32.c **** /**
  67:./Libraries/CMSIS/DSP/Source/ControllerFunctions/arm_sin_cos_f32.c ****   @brief         Floating-point sin_cos function.
  68:./Libraries/CMSIS/DSP/Source/ControllerFunctions/arm_sin_cos_f32.c ****   @param[in]     theta    input value in degrees
  69:./Libraries/CMSIS/DSP/Source/ControllerFunctions/arm_sin_cos_f32.c ****   @param[out]    pSinVal  points to processed sine output
  70:./Libraries/CMSIS/DSP/Source/ControllerFunctions/arm_sin_cos_f32.c ****   @param[out]    pCosVal  points to processed cosine output
  71:./Libraries/CMSIS/DSP/Source/ControllerFunctions/arm_sin_cos_f32.c ****   @return        none
  72:./Libraries/CMSIS/DSP/Source/ControllerFunctions/arm_sin_cos_f32.c ****  */
  73:./Libraries/CMSIS/DSP/Source/ControllerFunctions/arm_sin_cos_f32.c **** 
  74:./Libraries/CMSIS/DSP/Source/ControllerFunctions/arm_sin_cos_f32.c **** void arm_sin_cos_f32(
  75:./Libraries/CMSIS/DSP/Source/ControllerFunctions/arm_sin_cos_f32.c ****   float32_t theta,
  76:./Libraries/CMSIS/DSP/Source/ControllerFunctions/arm_sin_cos_f32.c ****   float32_t * pSinVal,
  77:./Libraries/CMSIS/DSP/Source/ControllerFunctions/arm_sin_cos_f32.c ****   float32_t * pCosVal)
  78:./Libraries/CMSIS/DSP/Source/ControllerFunctions/arm_sin_cos_f32.c **** {
  28              		.loc 1 78 1
  29              		.cfi_startproc
  30              		@ args = 0, pretend = 0, frame = 64
  31              		@ frame_needed = 1, uses_anonymous_args = 0
  32              		@ link register save eliminated.
  33 0000 80B4     		push	{r7}
  34              	.LCFI0:
  35              		.cfi_def_cfa_offset 4
  36              		.cfi_offset 7, -4
  37 0002 91B0     		sub	sp, sp, #68
ARM GAS  /tmp/ccBIAWsN.s 			page 3


  38              	.LCFI1:
  39              		.cfi_def_cfa_offset 72
  40 0004 00AF     		add	r7, sp, #0
  41              	.LCFI2:
  42              		.cfi_def_cfa_register 7
  43 0006 87ED030A 		vstr.32	s0, [r7, #12]
  44 000a B860     		str	r0, [r7, #8]
  45 000c 7960     		str	r1, [r7, #4]
  79:./Libraries/CMSIS/DSP/Source/ControllerFunctions/arm_sin_cos_f32.c ****   float32_t fract, in;                             /* Temporary input, output variables */
  80:./Libraries/CMSIS/DSP/Source/ControllerFunctions/arm_sin_cos_f32.c ****   uint16_t indexS, indexC;                         /* Index variable */
  81:./Libraries/CMSIS/DSP/Source/ControllerFunctions/arm_sin_cos_f32.c ****   float32_t f1, f2, d1, d2;                        /* Two nearest output values */
  82:./Libraries/CMSIS/DSP/Source/ControllerFunctions/arm_sin_cos_f32.c ****   float32_t Dn, Df;
  83:./Libraries/CMSIS/DSP/Source/ControllerFunctions/arm_sin_cos_f32.c ****   float32_t temp, findex;
  84:./Libraries/CMSIS/DSP/Source/ControllerFunctions/arm_sin_cos_f32.c **** 
  85:./Libraries/CMSIS/DSP/Source/ControllerFunctions/arm_sin_cos_f32.c ****   /* input x is in degrees */
  86:./Libraries/CMSIS/DSP/Source/ControllerFunctions/arm_sin_cos_f32.c ****   /* Scale input, divide input by 360, for cosine add 0.25 (pi/2) to read sine table */
  87:./Libraries/CMSIS/DSP/Source/ControllerFunctions/arm_sin_cos_f32.c ****   in = theta * 0.00277777777778f;
  46              		.loc 1 87 6
  47 000e D7ED037A 		vldr.32	s15, [r7, #12]
  48 0012 9FEDB47A 		vldr.32	s14, .L9
  49 0016 67EE877A 		vmul.f32	s15, s15, s14
  50 001a C7ED0F7A 		vstr.32	s15, [r7, #60]
  88:./Libraries/CMSIS/DSP/Source/ControllerFunctions/arm_sin_cos_f32.c **** 
  89:./Libraries/CMSIS/DSP/Source/ControllerFunctions/arm_sin_cos_f32.c ****   if (in < 0.0f)
  51              		.loc 1 89 6
  52 001e D7ED0F7A 		vldr.32	s15, [r7, #60]
  53 0022 F5EEC07A 		vcmpe.f32	s15, #0
  54 0026 F1EE10FA 		vmrs	APSR_nzcv, FPSCR
  55 002a 05D5     		bpl	.L2
  90:./Libraries/CMSIS/DSP/Source/ControllerFunctions/arm_sin_cos_f32.c ****   {
  91:./Libraries/CMSIS/DSP/Source/ControllerFunctions/arm_sin_cos_f32.c ****     in = -in;
  56              		.loc 1 91 8
  57 002c D7ED0F7A 		vldr.32	s15, [r7, #60]
  58 0030 F1EE677A 		vneg.f32	s15, s15
  59 0034 C7ED0F7A 		vstr.32	s15, [r7, #60]
  60              	.L2:
  92:./Libraries/CMSIS/DSP/Source/ControllerFunctions/arm_sin_cos_f32.c ****   }
  93:./Libraries/CMSIS/DSP/Source/ControllerFunctions/arm_sin_cos_f32.c **** 
  94:./Libraries/CMSIS/DSP/Source/ControllerFunctions/arm_sin_cos_f32.c ****   in = in - (int32_t)in;
  61              		.loc 1 94 13
  62 0038 D7ED0F7A 		vldr.32	s15, [r7, #60]
  63 003c FDEEE77A 		vcvt.s32.f32	s15, s15
  64              		.loc 1 94 11
  65 0040 F8EEE77A 		vcvt.f32.s32	s15, s15
  66              		.loc 1 94 6
  67 0044 97ED0F7A 		vldr.32	s14, [r7, #60]
  68 0048 77EE677A 		vsub.f32	s15, s14, s15
  69 004c C7ED0F7A 		vstr.32	s15, [r7, #60]
  95:./Libraries/CMSIS/DSP/Source/ControllerFunctions/arm_sin_cos_f32.c **** 
  96:./Libraries/CMSIS/DSP/Source/ControllerFunctions/arm_sin_cos_f32.c ****   /* Calculate the nearest index */
  97:./Libraries/CMSIS/DSP/Source/ControllerFunctions/arm_sin_cos_f32.c ****   findex = (float32_t)FAST_MATH_TABLE_SIZE * in;
  70              		.loc 1 97 10
  71 0050 D7ED0F7A 		vldr.32	s15, [r7, #60]
  72 0054 9FEDA47A 		vldr.32	s14, .L9+4
  73 0058 67EE877A 		vmul.f32	s15, s15, s14
  74 005c C7ED0E7A 		vstr.32	s15, [r7, #56]
  98:./Libraries/CMSIS/DSP/Source/ControllerFunctions/arm_sin_cos_f32.c ****   indexS = ((uint16_t)findex) & 0x1ff;
ARM GAS  /tmp/ccBIAWsN.s 			page 4


  75              		.loc 1 98 13
  76 0060 D7ED0E7A 		vldr.32	s15, [r7, #56]
  77 0064 FCEEE77A 		vcvt.u32.f32	s15, s15
  78 0068 17EE903A 		vmov	r3, s15	@ int
  79 006c 9BB2     		uxth	r3, r3
  80              		.loc 1 98 10
  81 006e C3F30803 		ubfx	r3, r3, #0, #9
  82 0072 FB86     		strh	r3, [r7, #54]	@ movhi
  99:./Libraries/CMSIS/DSP/Source/ControllerFunctions/arm_sin_cos_f32.c ****   indexC = (indexS + (FAST_MATH_TABLE_SIZE / 4)) & 0x1ff;
  83              		.loc 1 99 20
  84 0074 FB8E     		ldrh	r3, [r7, #54]	@ movhi
  85 0076 8033     		adds	r3, r3, #128
  86 0078 9BB2     		uxth	r3, r3
  87              		.loc 1 99 10
  88 007a C3F30803 		ubfx	r3, r3, #0, #9
  89 007e BB86     		strh	r3, [r7, #52]	@ movhi
 100:./Libraries/CMSIS/DSP/Source/ControllerFunctions/arm_sin_cos_f32.c **** 
 101:./Libraries/CMSIS/DSP/Source/ControllerFunctions/arm_sin_cos_f32.c ****   /* Calculation of fractional value */
 102:./Libraries/CMSIS/DSP/Source/ControllerFunctions/arm_sin_cos_f32.c ****   fract = findex - (float32_t) indexS;
  90              		.loc 1 102 20
  91 0080 FB8E     		ldrh	r3, [r7, #54]
  92 0082 07EE903A 		vmov	s15, r3	@ int
  93 0086 F8EE677A 		vcvt.f32.u32	s15, s15
  94              		.loc 1 102 9
  95 008a 97ED0E7A 		vldr.32	s14, [r7, #56]
  96 008e 77EE677A 		vsub.f32	s15, s14, s15
  97 0092 C7ED0C7A 		vstr.32	s15, [r7, #48]
 103:./Libraries/CMSIS/DSP/Source/ControllerFunctions/arm_sin_cos_f32.c **** 
 104:./Libraries/CMSIS/DSP/Source/ControllerFunctions/arm_sin_cos_f32.c ****   /* Read two nearest values of input value from the cos & sin tables */
 105:./Libraries/CMSIS/DSP/Source/ControllerFunctions/arm_sin_cos_f32.c ****   f1 =  sinTable_f32[indexC  ];
  98              		.loc 1 105 21
  99 0096 BB8E     		ldrh	r3, [r7, #52]
 100              		.loc 1 105 6
 101 0098 944A     		ldr	r2, .L9+8
 102 009a 9B00     		lsls	r3, r3, #2
 103 009c 1344     		add	r3, r3, r2
 104 009e 1B68     		ldr	r3, [r3]	@ float
 105 00a0 FB62     		str	r3, [r7, #44]	@ float
 106:./Libraries/CMSIS/DSP/Source/ControllerFunctions/arm_sin_cos_f32.c ****   f2 =  sinTable_f32[indexC+1];
 106              		.loc 1 106 28
 107 00a2 BB8E     		ldrh	r3, [r7, #52]
 108 00a4 0133     		adds	r3, r3, #1
 109              		.loc 1 106 6
 110 00a6 914A     		ldr	r2, .L9+8
 111 00a8 9B00     		lsls	r3, r3, #2
 112 00aa 1344     		add	r3, r3, r2
 113 00ac 1B68     		ldr	r3, [r3]	@ float
 114 00ae BB62     		str	r3, [r7, #40]	@ float
 107:./Libraries/CMSIS/DSP/Source/ControllerFunctions/arm_sin_cos_f32.c ****   d1 = -sinTable_f32[indexS  ];
 115              		.loc 1 107 21
 116 00b0 FB8E     		ldrh	r3, [r7, #54]
 117 00b2 8E4A     		ldr	r2, .L9+8
 118 00b4 9B00     		lsls	r3, r3, #2
 119 00b6 1344     		add	r3, r3, r2
 120 00b8 D3ED007A 		vldr.32	s15, [r3]
 121              		.loc 1 107 6
 122 00bc F1EE677A 		vneg.f32	s15, s15
ARM GAS  /tmp/ccBIAWsN.s 			page 5


 123 00c0 C7ED097A 		vstr.32	s15, [r7, #36]
 108:./Libraries/CMSIS/DSP/Source/ControllerFunctions/arm_sin_cos_f32.c ****   d2 = -sinTable_f32[indexS+1];
 124              		.loc 1 108 28
 125 00c4 FB8E     		ldrh	r3, [r7, #54]
 126 00c6 0133     		adds	r3, r3, #1
 127              		.loc 1 108 21
 128 00c8 884A     		ldr	r2, .L9+8
 129 00ca 9B00     		lsls	r3, r3, #2
 130 00cc 1344     		add	r3, r3, r2
 131 00ce D3ED007A 		vldr.32	s15, [r3]
 132              		.loc 1 108 6
 133 00d2 F1EE677A 		vneg.f32	s15, s15
 134 00d6 C7ED087A 		vstr.32	s15, [r7, #32]
 109:./Libraries/CMSIS/DSP/Source/ControllerFunctions/arm_sin_cos_f32.c **** 
 110:./Libraries/CMSIS/DSP/Source/ControllerFunctions/arm_sin_cos_f32.c ****   temp = (1.0f - fract) * f1 + fract * f2;
 135              		.loc 1 110 16
 136 00da B7EE007A 		vmov.f32	s14, #1.0e+0
 137 00de D7ED0C7A 		vldr.32	s15, [r7, #48]
 138 00e2 37EE677A 		vsub.f32	s14, s14, s15
 139              		.loc 1 110 25
 140 00e6 D7ED0B7A 		vldr.32	s15, [r7, #44]
 141 00ea 27EE277A 		vmul.f32	s14, s14, s15
 142              		.loc 1 110 38
 143 00ee D7ED0C6A 		vldr.32	s13, [r7, #48]
 144 00f2 D7ED0A7A 		vldr.32	s15, [r7, #40]
 145 00f6 66EEA77A 		vmul.f32	s15, s13, s15
 146              		.loc 1 110 8
 147 00fa 77EE277A 		vadd.f32	s15, s14, s15
 148 00fe C7ED077A 		vstr.32	s15, [r7, #28]
 111:./Libraries/CMSIS/DSP/Source/ControllerFunctions/arm_sin_cos_f32.c **** 
 112:./Libraries/CMSIS/DSP/Source/ControllerFunctions/arm_sin_cos_f32.c ****   Dn = 0.0122718463030f; /* delta between the two points (fixed), in this case 2*pi/FAST_MATH_TABLE
 149              		.loc 1 112 6
 150 0102 7B4B     		ldr	r3, .L9+12
 151 0104 BB61     		str	r3, [r7, #24]	@ float
 113:./Libraries/CMSIS/DSP/Source/ControllerFunctions/arm_sin_cos_f32.c ****   Df = f2 - f1;          /* delta between the values of the functions */
 152              		.loc 1 113 6
 153 0106 97ED0A7A 		vldr.32	s14, [r7, #40]
 154 010a D7ED0B7A 		vldr.32	s15, [r7, #44]
 155 010e 77EE677A 		vsub.f32	s15, s14, s15
 156 0112 C7ED057A 		vstr.32	s15, [r7, #20]
 114:./Libraries/CMSIS/DSP/Source/ControllerFunctions/arm_sin_cos_f32.c **** 
 115:./Libraries/CMSIS/DSP/Source/ControllerFunctions/arm_sin_cos_f32.c ****   temp = Dn * (d1 + d2) - 2 * Df;
 157              		.loc 1 115 19
 158 0116 97ED097A 		vldr.32	s14, [r7, #36]
 159 011a D7ED087A 		vldr.32	s15, [r7, #32]
 160 011e 37EE277A 		vadd.f32	s14, s14, s15
 161              		.loc 1 115 13
 162 0122 D7ED067A 		vldr.32	s15, [r7, #24]
 163 0126 27EE277A 		vmul.f32	s14, s14, s15
 164              		.loc 1 115 29
 165 012a D7ED057A 		vldr.32	s15, [r7, #20]
 166 012e 77EEA77A 		vadd.f32	s15, s15, s15
 167              		.loc 1 115 8
 168 0132 77EE677A 		vsub.f32	s15, s14, s15
 169 0136 C7ED077A 		vstr.32	s15, [r7, #28]
 116:./Libraries/CMSIS/DSP/Source/ControllerFunctions/arm_sin_cos_f32.c ****   temp = fract * temp + (3 * Df - (d2 + 2 * d1) * Dn);
 170              		.loc 1 116 16
ARM GAS  /tmp/ccBIAWsN.s 			page 6


 171 013a 97ED0C7A 		vldr.32	s14, [r7, #48]
 172 013e D7ED077A 		vldr.32	s15, [r7, #28]
 173 0142 27EE277A 		vmul.f32	s14, s14, s15
 174              		.loc 1 116 28
 175 0146 D7ED057A 		vldr.32	s15, [r7, #20]
 176 014a F0EE086A 		vmov.f32	s13, #3.0e+0
 177 014e 67EEA66A 		vmul.f32	s13, s15, s13
 178              		.loc 1 116 43
 179 0152 D7ED097A 		vldr.32	s15, [r7, #36]
 180 0156 37EEA76A 		vadd.f32	s12, s15, s15
 181              		.loc 1 116 39
 182 015a D7ED087A 		vldr.32	s15, [r7, #32]
 183 015e 36EE276A 		vadd.f32	s12, s12, s15
 184              		.loc 1 116 49
 185 0162 D7ED067A 		vldr.32	s15, [r7, #24]
 186 0166 66EE277A 		vmul.f32	s15, s12, s15
 187              		.loc 1 116 33
 188 016a 76EEE77A 		vsub.f32	s15, s13, s15
 189              		.loc 1 116 8
 190 016e 77EE277A 		vadd.f32	s15, s14, s15
 191 0172 C7ED077A 		vstr.32	s15, [r7, #28]
 117:./Libraries/CMSIS/DSP/Source/ControllerFunctions/arm_sin_cos_f32.c ****   temp = fract * temp + d1 * Dn;
 192              		.loc 1 117 16
 193 0176 97ED0C7A 		vldr.32	s14, [r7, #48]
 194 017a D7ED077A 		vldr.32	s15, [r7, #28]
 195 017e 27EE277A 		vmul.f32	s14, s14, s15
 196              		.loc 1 117 28
 197 0182 D7ED096A 		vldr.32	s13, [r7, #36]
 198 0186 D7ED067A 		vldr.32	s15, [r7, #24]
 199 018a 66EEA77A 		vmul.f32	s15, s13, s15
 200              		.loc 1 117 8
 201 018e 77EE277A 		vadd.f32	s15, s14, s15
 202 0192 C7ED077A 		vstr.32	s15, [r7, #28]
 118:./Libraries/CMSIS/DSP/Source/ControllerFunctions/arm_sin_cos_f32.c **** 
 119:./Libraries/CMSIS/DSP/Source/ControllerFunctions/arm_sin_cos_f32.c ****   /* Calculation of cosine value */
 120:./Libraries/CMSIS/DSP/Source/ControllerFunctions/arm_sin_cos_f32.c ****   *pCosVal = fract * temp + f1;
 203              		.loc 1 120 20
 204 0196 97ED0C7A 		vldr.32	s14, [r7, #48]
 205 019a D7ED077A 		vldr.32	s15, [r7, #28]
 206 019e 27EE277A 		vmul.f32	s14, s14, s15
 207              		.loc 1 120 27
 208 01a2 D7ED0B7A 		vldr.32	s15, [r7, #44]
 209 01a6 77EE277A 		vadd.f32	s15, s14, s15
 210              		.loc 1 120 12
 211 01aa 7B68     		ldr	r3, [r7, #4]
 212 01ac C3ED007A 		vstr.32	s15, [r3]
 121:./Libraries/CMSIS/DSP/Source/ControllerFunctions/arm_sin_cos_f32.c **** 
 122:./Libraries/CMSIS/DSP/Source/ControllerFunctions/arm_sin_cos_f32.c ****   /* Read two nearest values of input value from the cos & sin tables */
 123:./Libraries/CMSIS/DSP/Source/ControllerFunctions/arm_sin_cos_f32.c ****   f1 = sinTable_f32[indexS  ];
 213              		.loc 1 123 20
 214 01b0 FB8E     		ldrh	r3, [r7, #54]
 215              		.loc 1 123 6
 216 01b2 4E4A     		ldr	r2, .L9+8
 217 01b4 9B00     		lsls	r3, r3, #2
 218 01b6 1344     		add	r3, r3, r2
 219 01b8 1B68     		ldr	r3, [r3]	@ float
 220 01ba FB62     		str	r3, [r7, #44]	@ float
ARM GAS  /tmp/ccBIAWsN.s 			page 7


 124:./Libraries/CMSIS/DSP/Source/ControllerFunctions/arm_sin_cos_f32.c ****   f2 = sinTable_f32[indexS+1];
 221              		.loc 1 124 27
 222 01bc FB8E     		ldrh	r3, [r7, #54]
 223 01be 0133     		adds	r3, r3, #1
 224              		.loc 1 124 6
 225 01c0 4A4A     		ldr	r2, .L9+8
 226 01c2 9B00     		lsls	r3, r3, #2
 227 01c4 1344     		add	r3, r3, r2
 228 01c6 1B68     		ldr	r3, [r3]	@ float
 229 01c8 BB62     		str	r3, [r7, #40]	@ float
 125:./Libraries/CMSIS/DSP/Source/ControllerFunctions/arm_sin_cos_f32.c ****   d1 = sinTable_f32[indexC  ];
 230              		.loc 1 125 20
 231 01ca BB8E     		ldrh	r3, [r7, #52]
 232              		.loc 1 125 6
 233 01cc 474A     		ldr	r2, .L9+8
 234 01ce 9B00     		lsls	r3, r3, #2
 235 01d0 1344     		add	r3, r3, r2
 236 01d2 1B68     		ldr	r3, [r3]	@ float
 237 01d4 7B62     		str	r3, [r7, #36]	@ float
 126:./Libraries/CMSIS/DSP/Source/ControllerFunctions/arm_sin_cos_f32.c ****   d2 = sinTable_f32[indexC+1];
 238              		.loc 1 126 27
 239 01d6 BB8E     		ldrh	r3, [r7, #52]
 240 01d8 0133     		adds	r3, r3, #1
 241              		.loc 1 126 6
 242 01da 444A     		ldr	r2, .L9+8
 243 01dc 9B00     		lsls	r3, r3, #2
 244 01de 1344     		add	r3, r3, r2
 245 01e0 1B68     		ldr	r3, [r3]	@ float
 246 01e2 3B62     		str	r3, [r7, #32]	@ float
 127:./Libraries/CMSIS/DSP/Source/ControllerFunctions/arm_sin_cos_f32.c **** 
 128:./Libraries/CMSIS/DSP/Source/ControllerFunctions/arm_sin_cos_f32.c ****   temp = (1.0f - fract) * f1 + fract * f2;
 247              		.loc 1 128 16
 248 01e4 B7EE007A 		vmov.f32	s14, #1.0e+0
 249 01e8 D7ED0C7A 		vldr.32	s15, [r7, #48]
 250 01ec 37EE677A 		vsub.f32	s14, s14, s15
 251              		.loc 1 128 25
 252 01f0 D7ED0B7A 		vldr.32	s15, [r7, #44]
 253 01f4 27EE277A 		vmul.f32	s14, s14, s15
 254              		.loc 1 128 38
 255 01f8 D7ED0C6A 		vldr.32	s13, [r7, #48]
 256 01fc D7ED0A7A 		vldr.32	s15, [r7, #40]
 257 0200 66EEA77A 		vmul.f32	s15, s13, s15
 258              		.loc 1 128 8
 259 0204 77EE277A 		vadd.f32	s15, s14, s15
 260 0208 C7ED077A 		vstr.32	s15, [r7, #28]
 129:./Libraries/CMSIS/DSP/Source/ControllerFunctions/arm_sin_cos_f32.c **** 
 130:./Libraries/CMSIS/DSP/Source/ControllerFunctions/arm_sin_cos_f32.c ****   Df = f2 - f1; // delta between the values of the functions
 261              		.loc 1 130 6
 262 020c 97ED0A7A 		vldr.32	s14, [r7, #40]
 263 0210 D7ED0B7A 		vldr.32	s15, [r7, #44]
 264 0214 77EE677A 		vsub.f32	s15, s14, s15
 265 0218 C7ED057A 		vstr.32	s15, [r7, #20]
 131:./Libraries/CMSIS/DSP/Source/ControllerFunctions/arm_sin_cos_f32.c ****   temp = Dn * (d1 + d2) - 2 * Df;
 266              		.loc 1 131 19
 267 021c 97ED097A 		vldr.32	s14, [r7, #36]
 268 0220 D7ED087A 		vldr.32	s15, [r7, #32]
 269 0224 37EE277A 		vadd.f32	s14, s14, s15
ARM GAS  /tmp/ccBIAWsN.s 			page 8


 270              		.loc 1 131 13
 271 0228 D7ED067A 		vldr.32	s15, [r7, #24]
 272 022c 27EE277A 		vmul.f32	s14, s14, s15
 273              		.loc 1 131 29
 274 0230 D7ED057A 		vldr.32	s15, [r7, #20]
 275 0234 77EEA77A 		vadd.f32	s15, s15, s15
 276              		.loc 1 131 8
 277 0238 77EE677A 		vsub.f32	s15, s14, s15
 278 023c C7ED077A 		vstr.32	s15, [r7, #28]
 132:./Libraries/CMSIS/DSP/Source/ControllerFunctions/arm_sin_cos_f32.c ****   temp = fract * temp + (3 * Df - (d2 + 2 * d1) * Dn);
 279              		.loc 1 132 16
 280 0240 97ED0C7A 		vldr.32	s14, [r7, #48]
 281 0244 D7ED077A 		vldr.32	s15, [r7, #28]
 282 0248 27EE277A 		vmul.f32	s14, s14, s15
 283              		.loc 1 132 28
 284 024c D7ED057A 		vldr.32	s15, [r7, #20]
 285 0250 F0EE086A 		vmov.f32	s13, #3.0e+0
 286 0254 67EEA66A 		vmul.f32	s13, s15, s13
 287              		.loc 1 132 43
 288 0258 D7ED097A 		vldr.32	s15, [r7, #36]
 289 025c 37EEA76A 		vadd.f32	s12, s15, s15
 290              		.loc 1 132 39
 291 0260 D7ED087A 		vldr.32	s15, [r7, #32]
 292 0264 36EE276A 		vadd.f32	s12, s12, s15
 293              		.loc 1 132 49
 294 0268 D7ED067A 		vldr.32	s15, [r7, #24]
 295 026c 66EE277A 		vmul.f32	s15, s12, s15
 296              		.loc 1 132 33
 297 0270 76EEE77A 		vsub.f32	s15, s13, s15
 298              		.loc 1 132 8
 299 0274 77EE277A 		vadd.f32	s15, s14, s15
 300 0278 C7ED077A 		vstr.32	s15, [r7, #28]
 133:./Libraries/CMSIS/DSP/Source/ControllerFunctions/arm_sin_cos_f32.c ****   temp = fract * temp + d1 * Dn;
 301              		.loc 1 133 16
 302 027c 97ED0C7A 		vldr.32	s14, [r7, #48]
 303 0280 D7ED077A 		vldr.32	s15, [r7, #28]
 304 0284 27EE277A 		vmul.f32	s14, s14, s15
 305              		.loc 1 133 28
 306 0288 D7ED096A 		vldr.32	s13, [r7, #36]
 307 028c D7ED067A 		vldr.32	s15, [r7, #24]
 308 0290 66EEA77A 		vmul.f32	s15, s13, s15
 309              		.loc 1 133 8
 310 0294 77EE277A 		vadd.f32	s15, s14, s15
 311 0298 C7ED077A 		vstr.32	s15, [r7, #28]
 134:./Libraries/CMSIS/DSP/Source/ControllerFunctions/arm_sin_cos_f32.c **** 
 135:./Libraries/CMSIS/DSP/Source/ControllerFunctions/arm_sin_cos_f32.c ****   /* Calculation of sine value */
 136:./Libraries/CMSIS/DSP/Source/ControllerFunctions/arm_sin_cos_f32.c ****   *pSinVal = fract * temp + f1;
 312              		.loc 1 136 20
 313 029c 97ED0C7A 		vldr.32	s14, [r7, #48]
 314 02a0 D7ED077A 		vldr.32	s15, [r7, #28]
 315 02a4 27EE277A 		vmul.f32	s14, s14, s15
 316              		.loc 1 136 27
 317 02a8 D7ED0B7A 		vldr.32	s15, [r7, #44]
 318 02ac 77EE277A 		vadd.f32	s15, s14, s15
 319              		.loc 1 136 12
 320 02b0 BB68     		ldr	r3, [r7, #8]
 321 02b2 C3ED007A 		vstr.32	s15, [r3]
ARM GAS  /tmp/ccBIAWsN.s 			page 9


 137:./Libraries/CMSIS/DSP/Source/ControllerFunctions/arm_sin_cos_f32.c **** 
 138:./Libraries/CMSIS/DSP/Source/ControllerFunctions/arm_sin_cos_f32.c ****   if (theta < 0.0f)
 322              		.loc 1 138 6
 323 02b6 D7ED037A 		vldr.32	s15, [r7, #12]
 324 02ba F5EEC07A 		vcmpe.f32	s15, #0
 325 02be F1EE10FA 		vmrs	APSR_nzcv, FPSCR
 326 02c2 00D4     		bmi	.L7
 139:./Libraries/CMSIS/DSP/Source/ControllerFunctions/arm_sin_cos_f32.c ****   {
 140:./Libraries/CMSIS/DSP/Source/ControllerFunctions/arm_sin_cos_f32.c ****     *pSinVal = -*pSinVal;
 141:./Libraries/CMSIS/DSP/Source/ControllerFunctions/arm_sin_cos_f32.c ****   }
 142:./Libraries/CMSIS/DSP/Source/ControllerFunctions/arm_sin_cos_f32.c **** }
 327              		.loc 1 142 1
 328 02c4 07E0     		b	.L8
 329              	.L7:
 140:./Libraries/CMSIS/DSP/Source/ControllerFunctions/arm_sin_cos_f32.c ****   }
 330              		.loc 1 140 17
 331 02c6 BB68     		ldr	r3, [r7, #8]
 332 02c8 D3ED007A 		vldr.32	s15, [r3]
 140:./Libraries/CMSIS/DSP/Source/ControllerFunctions/arm_sin_cos_f32.c ****   }
 333              		.loc 1 140 16
 334 02cc F1EE677A 		vneg.f32	s15, s15
 140:./Libraries/CMSIS/DSP/Source/ControllerFunctions/arm_sin_cos_f32.c ****   }
 335              		.loc 1 140 14
 336 02d0 BB68     		ldr	r3, [r7, #8]
 337 02d2 C3ED007A 		vstr.32	s15, [r3]
 338              	.L8:
 339              		.loc 1 142 1
 340 02d6 00BF     		nop
 341 02d8 4437     		adds	r7, r7, #68
 342              	.LCFI3:
 343              		.cfi_def_cfa_offset 4
 344 02da BD46     		mov	sp, r7
 345              	.LCFI4:
 346              		.cfi_def_cfa_register 13
 347              		@ sp needed
 348 02dc 5DF8047B 		ldr	r7, [sp], #4
 349              	.LCFI5:
 350              		.cfi_restore 7
 351              		.cfi_def_cfa_offset 0
 352 02e0 7047     		bx	lr
 353              	.L10:
 354 02e2 00BF     		.align	2
 355              	.L9:
 356 02e4 610B363B 		.word	993397601
 357 02e8 00000044 		.word	1140850688
 358 02ec 00000000 		.word	sinTable_f32
 359 02f0 DB0F493C 		.word	1011421147
 360              		.cfi_endproc
 361              	.LFE145:
 363              		.text
 364              	.Letext0:
 365              		.file 2 "/usr/lib/gcc/arm-none-eabi/9.2.1/include/stdint.h"
 366              		.file 3 "/usr/lib/gcc/arm-none-eabi/9.2.1/include/stddef.h"
 367              		.file 4 "/usr/include/newlib/sys/_types.h"
 368              		.file 5 "/usr/include/newlib/sys/reent.h"
 369              		.file 6 "/usr/include/newlib/sys/lock.h"
 370              		.file 7 "/usr/include/newlib/math.h"
ARM GAS  /tmp/ccBIAWsN.s 			page 10


 371              		.file 8 "./Libraries/CMSIS/DSP/Include/arm_math.h"
 372              		.file 9 "./Libraries/CMSIS/DSP/Include/arm_common_tables.h"
ARM GAS  /tmp/ccBIAWsN.s 			page 11

