ARM GAS  /tmp/ccl112oz.s 			page 1


   1              		.cpu cortex-m7
   2              		.eabi_attribute 28, 1
   3              		.eabi_attribute 20, 1
   4              		.eabi_attribute 21, 1
   5              		.eabi_attribute 23, 3
   6              		.eabi_attribute 24, 1
   7              		.eabi_attribute 25, 1
   8              		.eabi_attribute 26, 1
   9              		.eabi_attribute 30, 6
  10              		.eabi_attribute 34, 1
  11              		.eabi_attribute 18, 4
  12              		.file	"arm_conv_partial_fast_q31.c"
  13              		.text
  14              	.Ltext0:
  15              		.cfi_sections	.debug_frame
  16              		.section	.text.arm_conv_partial_fast_q31,"ax",%progbits
  17              		.align	1
  18              		.global	arm_conv_partial_fast_q31
  19              		.arch armv7e-m
  20              		.syntax unified
  21              		.thumb
  22              		.thumb_func
  23              		.fpu fpv5-d16
  25              	arm_conv_partial_fast_q31:
  26              	.LFB145:
  27              		.file 1 "./Libraries/CMSIS/DSP/Source/FilteringFunctions/arm_conv_partial_fast_q31.c"
   1:./Libraries/CMSIS/DSP/Source/FilteringFunctions/arm_conv_partial_fast_q31.c **** /* ----------------------------------------------------------------------
   2:./Libraries/CMSIS/DSP/Source/FilteringFunctions/arm_conv_partial_fast_q31.c ****  * Project:      CMSIS DSP Library
   3:./Libraries/CMSIS/DSP/Source/FilteringFunctions/arm_conv_partial_fast_q31.c ****  * Title:        arm_conv_partial_fast_q31.c
   4:./Libraries/CMSIS/DSP/Source/FilteringFunctions/arm_conv_partial_fast_q31.c ****  * Description:  Fast Q31 Partial convolution
   5:./Libraries/CMSIS/DSP/Source/FilteringFunctions/arm_conv_partial_fast_q31.c ****  *
   6:./Libraries/CMSIS/DSP/Source/FilteringFunctions/arm_conv_partial_fast_q31.c ****  * $Date:        18. March 2019
   7:./Libraries/CMSIS/DSP/Source/FilteringFunctions/arm_conv_partial_fast_q31.c ****  * $Revision:    V1.6.0
   8:./Libraries/CMSIS/DSP/Source/FilteringFunctions/arm_conv_partial_fast_q31.c ****  *
   9:./Libraries/CMSIS/DSP/Source/FilteringFunctions/arm_conv_partial_fast_q31.c ****  * Target Processor: Cortex-M cores
  10:./Libraries/CMSIS/DSP/Source/FilteringFunctions/arm_conv_partial_fast_q31.c ****  * -------------------------------------------------------------------- */
  11:./Libraries/CMSIS/DSP/Source/FilteringFunctions/arm_conv_partial_fast_q31.c **** /*
  12:./Libraries/CMSIS/DSP/Source/FilteringFunctions/arm_conv_partial_fast_q31.c ****  * Copyright (C) 2010-2019 ARM Limited or its affiliates. All rights reserved.
  13:./Libraries/CMSIS/DSP/Source/FilteringFunctions/arm_conv_partial_fast_q31.c ****  *
  14:./Libraries/CMSIS/DSP/Source/FilteringFunctions/arm_conv_partial_fast_q31.c ****  * SPDX-License-Identifier: Apache-2.0
  15:./Libraries/CMSIS/DSP/Source/FilteringFunctions/arm_conv_partial_fast_q31.c ****  *
  16:./Libraries/CMSIS/DSP/Source/FilteringFunctions/arm_conv_partial_fast_q31.c ****  * Licensed under the Apache License, Version 2.0 (the License); you may
  17:./Libraries/CMSIS/DSP/Source/FilteringFunctions/arm_conv_partial_fast_q31.c ****  * not use this file except in compliance with the License.
  18:./Libraries/CMSIS/DSP/Source/FilteringFunctions/arm_conv_partial_fast_q31.c ****  * You may obtain a copy of the License at
  19:./Libraries/CMSIS/DSP/Source/FilteringFunctions/arm_conv_partial_fast_q31.c ****  *
  20:./Libraries/CMSIS/DSP/Source/FilteringFunctions/arm_conv_partial_fast_q31.c ****  * www.apache.org/licenses/LICENSE-2.0
  21:./Libraries/CMSIS/DSP/Source/FilteringFunctions/arm_conv_partial_fast_q31.c ****  *
  22:./Libraries/CMSIS/DSP/Source/FilteringFunctions/arm_conv_partial_fast_q31.c ****  * Unless required by applicable law or agreed to in writing, software
  23:./Libraries/CMSIS/DSP/Source/FilteringFunctions/arm_conv_partial_fast_q31.c ****  * distributed under the License is distributed on an AS IS BASIS, WITHOUT
  24:./Libraries/CMSIS/DSP/Source/FilteringFunctions/arm_conv_partial_fast_q31.c ****  * WARRANTIES OR CONDITIONS OF ANY KIND, either express or implied.
  25:./Libraries/CMSIS/DSP/Source/FilteringFunctions/arm_conv_partial_fast_q31.c ****  * See the License for the specific language governing permissions and
  26:./Libraries/CMSIS/DSP/Source/FilteringFunctions/arm_conv_partial_fast_q31.c ****  * limitations under the License.
  27:./Libraries/CMSIS/DSP/Source/FilteringFunctions/arm_conv_partial_fast_q31.c ****  */
  28:./Libraries/CMSIS/DSP/Source/FilteringFunctions/arm_conv_partial_fast_q31.c **** 
  29:./Libraries/CMSIS/DSP/Source/FilteringFunctions/arm_conv_partial_fast_q31.c **** #include "arm_math.h"
  30:./Libraries/CMSIS/DSP/Source/FilteringFunctions/arm_conv_partial_fast_q31.c **** 
  31:./Libraries/CMSIS/DSP/Source/FilteringFunctions/arm_conv_partial_fast_q31.c **** /**
ARM GAS  /tmp/ccl112oz.s 			page 2


  32:./Libraries/CMSIS/DSP/Source/FilteringFunctions/arm_conv_partial_fast_q31.c ****   @ingroup groupFilters
  33:./Libraries/CMSIS/DSP/Source/FilteringFunctions/arm_conv_partial_fast_q31.c ****  */
  34:./Libraries/CMSIS/DSP/Source/FilteringFunctions/arm_conv_partial_fast_q31.c **** 
  35:./Libraries/CMSIS/DSP/Source/FilteringFunctions/arm_conv_partial_fast_q31.c **** /**
  36:./Libraries/CMSIS/DSP/Source/FilteringFunctions/arm_conv_partial_fast_q31.c ****   @addtogroup PartialConv
  37:./Libraries/CMSIS/DSP/Source/FilteringFunctions/arm_conv_partial_fast_q31.c ****   @{
  38:./Libraries/CMSIS/DSP/Source/FilteringFunctions/arm_conv_partial_fast_q31.c ****  */
  39:./Libraries/CMSIS/DSP/Source/FilteringFunctions/arm_conv_partial_fast_q31.c **** 
  40:./Libraries/CMSIS/DSP/Source/FilteringFunctions/arm_conv_partial_fast_q31.c **** /**
  41:./Libraries/CMSIS/DSP/Source/FilteringFunctions/arm_conv_partial_fast_q31.c ****   @brief         Partial convolution of Q31 sequences (fast version).
  42:./Libraries/CMSIS/DSP/Source/FilteringFunctions/arm_conv_partial_fast_q31.c ****   @param[in]     pSrcA      points to the first input sequence
  43:./Libraries/CMSIS/DSP/Source/FilteringFunctions/arm_conv_partial_fast_q31.c ****   @param[in]     srcALen    length of the first input sequence
  44:./Libraries/CMSIS/DSP/Source/FilteringFunctions/arm_conv_partial_fast_q31.c ****   @param[in]     pSrcB      points to the second input sequence
  45:./Libraries/CMSIS/DSP/Source/FilteringFunctions/arm_conv_partial_fast_q31.c ****   @param[in]     srcBLen    length of the second input sequence
  46:./Libraries/CMSIS/DSP/Source/FilteringFunctions/arm_conv_partial_fast_q31.c ****   @param[out]    pDst       points to the location where the output result is written
  47:./Libraries/CMSIS/DSP/Source/FilteringFunctions/arm_conv_partial_fast_q31.c ****   @param[in]     firstIndex is the first output sample to start with
  48:./Libraries/CMSIS/DSP/Source/FilteringFunctions/arm_conv_partial_fast_q31.c ****   @param[in]     numPoints  is the number of output points to be computed
  49:./Libraries/CMSIS/DSP/Source/FilteringFunctions/arm_conv_partial_fast_q31.c ****   @return        execution status
  50:./Libraries/CMSIS/DSP/Source/FilteringFunctions/arm_conv_partial_fast_q31.c ****                    - \ref ARM_MATH_SUCCESS        : Operation successful
  51:./Libraries/CMSIS/DSP/Source/FilteringFunctions/arm_conv_partial_fast_q31.c ****                    - \ref ARM_MATH_ARGUMENT_ERROR : requested subset is not in the range [0 srcALen
  52:./Libraries/CMSIS/DSP/Source/FilteringFunctions/arm_conv_partial_fast_q31.c **** 
  53:./Libraries/CMSIS/DSP/Source/FilteringFunctions/arm_conv_partial_fast_q31.c ****   @remark
  54:./Libraries/CMSIS/DSP/Source/FilteringFunctions/arm_conv_partial_fast_q31.c ****                    Refer to \ref arm_conv_partial_q31() for a slower implementation of this functio
  55:./Libraries/CMSIS/DSP/Source/FilteringFunctions/arm_conv_partial_fast_q31.c ****  */
  56:./Libraries/CMSIS/DSP/Source/FilteringFunctions/arm_conv_partial_fast_q31.c **** 
  57:./Libraries/CMSIS/DSP/Source/FilteringFunctions/arm_conv_partial_fast_q31.c **** arm_status arm_conv_partial_fast_q31(
  58:./Libraries/CMSIS/DSP/Source/FilteringFunctions/arm_conv_partial_fast_q31.c ****   const q31_t * pSrcA,
  59:./Libraries/CMSIS/DSP/Source/FilteringFunctions/arm_conv_partial_fast_q31.c ****         uint32_t srcALen,
  60:./Libraries/CMSIS/DSP/Source/FilteringFunctions/arm_conv_partial_fast_q31.c ****   const q31_t * pSrcB,
  61:./Libraries/CMSIS/DSP/Source/FilteringFunctions/arm_conv_partial_fast_q31.c ****         uint32_t srcBLen,
  62:./Libraries/CMSIS/DSP/Source/FilteringFunctions/arm_conv_partial_fast_q31.c ****         q31_t * pDst,
  63:./Libraries/CMSIS/DSP/Source/FilteringFunctions/arm_conv_partial_fast_q31.c ****         uint32_t firstIndex,
  64:./Libraries/CMSIS/DSP/Source/FilteringFunctions/arm_conv_partial_fast_q31.c ****         uint32_t numPoints)
  65:./Libraries/CMSIS/DSP/Source/FilteringFunctions/arm_conv_partial_fast_q31.c **** {
  28              		.loc 1 65 1
  29              		.cfi_startproc
  30              		@ args = 12, pretend = 0, frame = 112
  31              		@ frame_needed = 1, uses_anonymous_args = 0
  32              		@ link register save eliminated.
  33 0000 2DE9F00F 		push	{r4, r5, r6, r7, r8, r9, r10, fp}
  34              	.LCFI0:
  35              		.cfi_def_cfa_offset 32
  36              		.cfi_offset 4, -32
  37              		.cfi_offset 5, -28
  38              		.cfi_offset 6, -24
  39              		.cfi_offset 7, -20
  40              		.cfi_offset 8, -16
  41              		.cfi_offset 9, -12
  42              		.cfi_offset 10, -8
  43              		.cfi_offset 11, -4
  44 0004 9CB0     		sub	sp, sp, #112
  45              	.LCFI1:
  46              		.cfi_def_cfa_offset 144
  47 0006 00AF     		add	r7, sp, #0
  48              	.LCFI2:
  49              		.cfi_def_cfa_register 7
  50 0008 7862     		str	r0, [r7, #36]
ARM GAS  /tmp/ccl112oz.s 			page 3


  51 000a 3962     		str	r1, [r7, #32]
  52 000c FA61     		str	r2, [r7, #28]
  53 000e BB61     		str	r3, [r7, #24]
  66:./Libraries/CMSIS/DSP/Source/FilteringFunctions/arm_conv_partial_fast_q31.c ****   const q31_t *pIn1;                                   /* InputA pointer */
  67:./Libraries/CMSIS/DSP/Source/FilteringFunctions/arm_conv_partial_fast_q31.c ****   const q31_t *pIn2;                                   /* InputB pointer */
  68:./Libraries/CMSIS/DSP/Source/FilteringFunctions/arm_conv_partial_fast_q31.c ****         q31_t *pOut = pDst;                            /* Output pointer */
  54              		.loc 1 68 16
  55 0010 D7F89030 		ldr	r3, [r7, #144]
  56 0014 7B66     		str	r3, [r7, #100]
  69:./Libraries/CMSIS/DSP/Source/FilteringFunctions/arm_conv_partial_fast_q31.c ****   const q31_t *px;                                     /* Intermediate inputA pointer */
  70:./Libraries/CMSIS/DSP/Source/FilteringFunctions/arm_conv_partial_fast_q31.c ****   const q31_t *py;                                     /* Intermediate inputB pointer */
  71:./Libraries/CMSIS/DSP/Source/FilteringFunctions/arm_conv_partial_fast_q31.c ****   const q31_t *pSrc1, *pSrc2;                          /* Intermediate pointers */
  72:./Libraries/CMSIS/DSP/Source/FilteringFunctions/arm_conv_partial_fast_q31.c ****         q31_t sum;                                     /* Accumulators */
  73:./Libraries/CMSIS/DSP/Source/FilteringFunctions/arm_conv_partial_fast_q31.c ****         uint32_t j, k, count, check, blkCnt;
  74:./Libraries/CMSIS/DSP/Source/FilteringFunctions/arm_conv_partial_fast_q31.c ****         int32_t blockSize1, blockSize2, blockSize3;    /* Loop counters */
  75:./Libraries/CMSIS/DSP/Source/FilteringFunctions/arm_conv_partial_fast_q31.c ****         arm_status status;                             /* Status of Partial convolution */
  76:./Libraries/CMSIS/DSP/Source/FilteringFunctions/arm_conv_partial_fast_q31.c **** 
  77:./Libraries/CMSIS/DSP/Source/FilteringFunctions/arm_conv_partial_fast_q31.c **** #if defined (ARM_MATH_LOOPUNROLL)
  78:./Libraries/CMSIS/DSP/Source/FilteringFunctions/arm_conv_partial_fast_q31.c ****         q31_t acc0, acc1, acc2, acc3;                  /* Accumulators */
  79:./Libraries/CMSIS/DSP/Source/FilteringFunctions/arm_conv_partial_fast_q31.c ****         q31_t x0, x1, x2, x3, c0;
  80:./Libraries/CMSIS/DSP/Source/FilteringFunctions/arm_conv_partial_fast_q31.c **** #endif
  81:./Libraries/CMSIS/DSP/Source/FilteringFunctions/arm_conv_partial_fast_q31.c **** 
  82:./Libraries/CMSIS/DSP/Source/FilteringFunctions/arm_conv_partial_fast_q31.c ****   /* Check for range of output samples to be calculated */
  83:./Libraries/CMSIS/DSP/Source/FilteringFunctions/arm_conv_partial_fast_q31.c ****   if ((firstIndex + numPoints) > ((srcALen + (srcBLen - 1U))))
  57              		.loc 1 83 19
  58 0016 D7F89420 		ldr	r2, [r7, #148]
  59 001a D7F89830 		ldr	r3, [r7, #152]
  60 001e 1A44     		add	r2, r2, r3
  61              		.loc 1 83 44
  62 0020 B969     		ldr	r1, [r7, #24]
  63 0022 3B6A     		ldr	r3, [r7, #32]
  64 0024 0B44     		add	r3, r3, r1
  65 0026 013B     		subs	r3, r3, #1
  66              		.loc 1 83 6
  67 0028 9A42     		cmp	r2, r3
  68 002a 03D9     		bls	.L2
  84:./Libraries/CMSIS/DSP/Source/FilteringFunctions/arm_conv_partial_fast_q31.c ****   {
  85:./Libraries/CMSIS/DSP/Source/FilteringFunctions/arm_conv_partial_fast_q31.c ****     /* Set status as ARM_MATH_ARGUMENT_ERROR */
  86:./Libraries/CMSIS/DSP/Source/FilteringFunctions/arm_conv_partial_fast_q31.c ****     status = ARM_MATH_ARGUMENT_ERROR;
  69              		.loc 1 86 12
  70 002c FF23     		movs	r3, #255
  71 002e 87F83B30 		strb	r3, [r7, #59]
  72 0032 F9E1     		b	.L3
  73              	.L2:
  87:./Libraries/CMSIS/DSP/Source/FilteringFunctions/arm_conv_partial_fast_q31.c ****   }
  88:./Libraries/CMSIS/DSP/Source/FilteringFunctions/arm_conv_partial_fast_q31.c ****   else
  89:./Libraries/CMSIS/DSP/Source/FilteringFunctions/arm_conv_partial_fast_q31.c ****   {
  90:./Libraries/CMSIS/DSP/Source/FilteringFunctions/arm_conv_partial_fast_q31.c ****     /* The algorithm implementation is based on the lengths of the inputs. */
  91:./Libraries/CMSIS/DSP/Source/FilteringFunctions/arm_conv_partial_fast_q31.c ****     /* srcB is always made to slide across srcA. */
  92:./Libraries/CMSIS/DSP/Source/FilteringFunctions/arm_conv_partial_fast_q31.c ****     /* So srcBLen is always considered as shorter or equal to srcALen */
  93:./Libraries/CMSIS/DSP/Source/FilteringFunctions/arm_conv_partial_fast_q31.c ****     if (srcALen >= srcBLen)
  74              		.loc 1 93 8
  75 0034 3A6A     		ldr	r2, [r7, #32]
  76 0036 BB69     		ldr	r3, [r7, #24]
  77 0038 9A42     		cmp	r2, r3
  78 003a 04D3     		bcc	.L4
  94:./Libraries/CMSIS/DSP/Source/FilteringFunctions/arm_conv_partial_fast_q31.c ****     {
ARM GAS  /tmp/ccl112oz.s 			page 4


  95:./Libraries/CMSIS/DSP/Source/FilteringFunctions/arm_conv_partial_fast_q31.c ****       /* Initialization of inputA pointer */
  96:./Libraries/CMSIS/DSP/Source/FilteringFunctions/arm_conv_partial_fast_q31.c ****       pIn1 = pSrcA;
  79              		.loc 1 96 12
  80 003c 7B6A     		ldr	r3, [r7, #36]
  81 003e FB66     		str	r3, [r7, #108]
  97:./Libraries/CMSIS/DSP/Source/FilteringFunctions/arm_conv_partial_fast_q31.c **** 
  98:./Libraries/CMSIS/DSP/Source/FilteringFunctions/arm_conv_partial_fast_q31.c ****       /* Initialization of inputB pointer */
  99:./Libraries/CMSIS/DSP/Source/FilteringFunctions/arm_conv_partial_fast_q31.c ****       pIn2 = pSrcB;
  82              		.loc 1 99 12
  83 0040 FB69     		ldr	r3, [r7, #28]
  84 0042 BB66     		str	r3, [r7, #104]
  85 0044 09E0     		b	.L5
  86              	.L4:
 100:./Libraries/CMSIS/DSP/Source/FilteringFunctions/arm_conv_partial_fast_q31.c ****     }
 101:./Libraries/CMSIS/DSP/Source/FilteringFunctions/arm_conv_partial_fast_q31.c ****     else
 102:./Libraries/CMSIS/DSP/Source/FilteringFunctions/arm_conv_partial_fast_q31.c ****     {
 103:./Libraries/CMSIS/DSP/Source/FilteringFunctions/arm_conv_partial_fast_q31.c ****       /* Initialization of inputA pointer */
 104:./Libraries/CMSIS/DSP/Source/FilteringFunctions/arm_conv_partial_fast_q31.c ****       pIn1 = pSrcB;
  87              		.loc 1 104 12
  88 0046 FB69     		ldr	r3, [r7, #28]
  89 0048 FB66     		str	r3, [r7, #108]
 105:./Libraries/CMSIS/DSP/Source/FilteringFunctions/arm_conv_partial_fast_q31.c **** 
 106:./Libraries/CMSIS/DSP/Source/FilteringFunctions/arm_conv_partial_fast_q31.c ****       /* Initialization of inputB pointer */
 107:./Libraries/CMSIS/DSP/Source/FilteringFunctions/arm_conv_partial_fast_q31.c ****       pIn2 = pSrcA;
  90              		.loc 1 107 12
  91 004a 7B6A     		ldr	r3, [r7, #36]
  92 004c BB66     		str	r3, [r7, #104]
 108:./Libraries/CMSIS/DSP/Source/FilteringFunctions/arm_conv_partial_fast_q31.c **** 
 109:./Libraries/CMSIS/DSP/Source/FilteringFunctions/arm_conv_partial_fast_q31.c ****       /* srcBLen is always considered as shorter or equal to srcALen */
 110:./Libraries/CMSIS/DSP/Source/FilteringFunctions/arm_conv_partial_fast_q31.c ****       j = srcBLen;
  93              		.loc 1 110 9
  94 004e BB69     		ldr	r3, [r7, #24]
  95 0050 7B63     		str	r3, [r7, #52]
 111:./Libraries/CMSIS/DSP/Source/FilteringFunctions/arm_conv_partial_fast_q31.c ****       srcBLen = srcALen;
  96              		.loc 1 111 15
  97 0052 3B6A     		ldr	r3, [r7, #32]
  98 0054 BB61     		str	r3, [r7, #24]
 112:./Libraries/CMSIS/DSP/Source/FilteringFunctions/arm_conv_partial_fast_q31.c ****       srcALen = j;
  99              		.loc 1 112 15
 100 0056 7B6B     		ldr	r3, [r7, #52]
 101 0058 3B62     		str	r3, [r7, #32]
 102              	.L5:
 113:./Libraries/CMSIS/DSP/Source/FilteringFunctions/arm_conv_partial_fast_q31.c ****     }
 114:./Libraries/CMSIS/DSP/Source/FilteringFunctions/arm_conv_partial_fast_q31.c **** 
 115:./Libraries/CMSIS/DSP/Source/FilteringFunctions/arm_conv_partial_fast_q31.c ****     /* Conditions to check which loopCounter holds
 116:./Libraries/CMSIS/DSP/Source/FilteringFunctions/arm_conv_partial_fast_q31.c ****      * the first and last indices of the output samples to be calculated. */
 117:./Libraries/CMSIS/DSP/Source/FilteringFunctions/arm_conv_partial_fast_q31.c ****     check = firstIndex + numPoints;
 103              		.loc 1 117 11
 104 005a D7F89420 		ldr	r2, [r7, #148]
 105 005e D7F89830 		ldr	r3, [r7, #152]
 106 0062 1344     		add	r3, r3, r2
 107 0064 3B63     		str	r3, [r7, #48]
 118:./Libraries/CMSIS/DSP/Source/FilteringFunctions/arm_conv_partial_fast_q31.c ****     blockSize3 = ((int32_t)check > (int32_t)srcALen) ? (int32_t)check - (int32_t)srcALen : 0;
 108              		.loc 1 118 19
 109 0066 3A6B     		ldr	r2, [r7, #48]
 110              		.loc 1 118 36
 111 0068 3B6A     		ldr	r3, [r7, #32]
ARM GAS  /tmp/ccl112oz.s 			page 5


 112              		.loc 1 118 90
 113 006a 9A42     		cmp	r2, r3
 114 006c 03DD     		ble	.L6
 115              		.loc 1 118 56 discriminator 1
 116 006e 3A6B     		ldr	r2, [r7, #48]
 117              		.loc 1 118 73 discriminator 1
 118 0070 3B6A     		ldr	r3, [r7, #32]
 119              		.loc 1 118 90 discriminator 1
 120 0072 D31A     		subs	r3, r2, r3
 121 0074 00E0     		b	.L7
 122              	.L6:
 123              		.loc 1 118 90 is_stmt 0 discriminator 2
 124 0076 0023     		movs	r3, #0
 125              	.L7:
 126              		.loc 1 118 16 is_stmt 1 discriminator 4
 127 0078 FB63     		str	r3, [r7, #60]
 119:./Libraries/CMSIS/DSP/Source/FilteringFunctions/arm_conv_partial_fast_q31.c ****     blockSize3 = ((int32_t)firstIndex > (int32_t)srcALen - 1) ? blockSize3 - (int32_t)firstIndex + 
 128              		.loc 1 119 41 discriminator 4
 129 007a 3A6A     		ldr	r2, [r7, #32]
 130              		.loc 1 119 19 discriminator 4
 131 007c D7F89430 		ldr	r3, [r7, #148]
 132              		.loc 1 119 117 discriminator 4
 133 0080 9A42     		cmp	r2, r3
 134 0082 06DC     		bgt	.L8
 135              		.loc 1 119 78 discriminator 1
 136 0084 D7F89430 		ldr	r3, [r7, #148]
 137              		.loc 1 119 76 discriminator 1
 138 0088 FA6B     		ldr	r2, [r7, #60]
 139 008a D21A     		subs	r2, r2, r3
 140              		.loc 1 119 100 discriminator 1
 141 008c 3B6A     		ldr	r3, [r7, #32]
 142              		.loc 1 119 117 discriminator 1
 143 008e 1344     		add	r3, r3, r2
 144 0090 00E0     		b	.L9
 145              	.L8:
 146              		.loc 1 119 117 is_stmt 0 discriminator 2
 147 0092 FB6B     		ldr	r3, [r7, #60]
 148              	.L9:
 149              		.loc 1 119 16 is_stmt 1 discriminator 4
 150 0094 FB63     		str	r3, [r7, #60]
 120:./Libraries/CMSIS/DSP/Source/FilteringFunctions/arm_conv_partial_fast_q31.c ****     blockSize1 = ((int32_t) srcBLen - 1) - (int32_t) firstIndex;
 151              		.loc 1 120 42 discriminator 4
 152 0096 BA69     		ldr	r2, [r7, #24]
 153 0098 D7F89430 		ldr	r3, [r7, #148]
 154 009c D31A     		subs	r3, r2, r3
 155 009e 013B     		subs	r3, r3, #1
 156              		.loc 1 120 16 discriminator 4
 157 00a0 3B64     		str	r3, [r7, #64]
 121:./Libraries/CMSIS/DSP/Source/FilteringFunctions/arm_conv_partial_fast_q31.c ****     blockSize1 = (blockSize1 > 0) ? ((check > (srcBLen - 1U)) ? blockSize1 : (int32_t) numPoints) :
 158              		.loc 1 121 99 discriminator 4
 159 00a2 3B6C     		ldr	r3, [r7, #64]
 160 00a4 002B     		cmp	r3, #0
 161 00a6 09DD     		ble	.L10
 162              		.loc 1 121 56 discriminator 1
 163 00a8 BB69     		ldr	r3, [r7, #24]
 164 00aa 013B     		subs	r3, r3, #1
 165              		.loc 1 121 76 discriminator 1
ARM GAS  /tmp/ccl112oz.s 			page 6


 166 00ac 3A6B     		ldr	r2, [r7, #48]
 167 00ae 9A42     		cmp	r2, r3
 168 00b0 01D9     		bls	.L11
 169              		.loc 1 121 76 is_stmt 0 discriminator 3
 170 00b2 3B6C     		ldr	r3, [r7, #64]
 171 00b4 03E0     		b	.L13
 172              	.L11:
 173              		.loc 1 121 76 discriminator 4
 174 00b6 D7F89830 		ldr	r3, [r7, #152]
 175 00ba 00E0     		b	.L13
 176              	.L10:
 177              		.loc 1 121 99 is_stmt 1 discriminator 2
 178 00bc 0023     		movs	r3, #0
 179              	.L13:
 180              		.loc 1 121 16 discriminator 8
 181 00be 3B64     		str	r3, [r7, #64]
 122:./Libraries/CMSIS/DSP/Source/FilteringFunctions/arm_conv_partial_fast_q31.c ****     blockSize2 = (int32_t) check - ((blockSize3 + blockSize1) + (int32_t) firstIndex);
 182              		.loc 1 122 18 discriminator 8
 183 00c0 3A6B     		ldr	r2, [r7, #48]
 184              		.loc 1 122 49 discriminator 8
 185 00c2 F96B     		ldr	r1, [r7, #60]
 186 00c4 3B6C     		ldr	r3, [r7, #64]
 187 00c6 1944     		add	r1, r1, r3
 188              		.loc 1 122 65 discriminator 8
 189 00c8 D7F89430 		ldr	r3, [r7, #148]
 190              		.loc 1 122 63 discriminator 8
 191 00cc 0B44     		add	r3, r3, r1
 192              		.loc 1 122 16 discriminator 8
 193 00ce D31A     		subs	r3, r2, r3
 194 00d0 FB62     		str	r3, [r7, #44]
 123:./Libraries/CMSIS/DSP/Source/FilteringFunctions/arm_conv_partial_fast_q31.c ****     blockSize2 = (blockSize2 > 0) ? blockSize2 : 0;
 195              		.loc 1 123 16 discriminator 8
 196 00d2 FB6A     		ldr	r3, [r7, #44]
 197 00d4 23EAE373 		bic	r3, r3, r3, asr #31
 198 00d8 FB62     		str	r3, [r7, #44]
 124:./Libraries/CMSIS/DSP/Source/FilteringFunctions/arm_conv_partial_fast_q31.c **** 
 125:./Libraries/CMSIS/DSP/Source/FilteringFunctions/arm_conv_partial_fast_q31.c ****     /* conv(x,y) at n = x[n] * y[0] + x[n-1] * y[1] + x[n-2] * y[2] + ...+ x[n-N+1] * y[N -1] */
 126:./Libraries/CMSIS/DSP/Source/FilteringFunctions/arm_conv_partial_fast_q31.c ****     /* The function is internally
 127:./Libraries/CMSIS/DSP/Source/FilteringFunctions/arm_conv_partial_fast_q31.c ****      * divided into three stages according to the number of multiplications that has to be
 128:./Libraries/CMSIS/DSP/Source/FilteringFunctions/arm_conv_partial_fast_q31.c ****      * taken place between inputA samples and inputB samples. In the first stage of the
 129:./Libraries/CMSIS/DSP/Source/FilteringFunctions/arm_conv_partial_fast_q31.c ****      * algorithm, the multiplications increase by one for every iteration.
 130:./Libraries/CMSIS/DSP/Source/FilteringFunctions/arm_conv_partial_fast_q31.c ****      * In the second stage of the algorithm, srcBLen number of multiplications are done.
 131:./Libraries/CMSIS/DSP/Source/FilteringFunctions/arm_conv_partial_fast_q31.c ****      * In the third stage of the algorithm, the multiplications decrease by one
 132:./Libraries/CMSIS/DSP/Source/FilteringFunctions/arm_conv_partial_fast_q31.c ****      * for every iteration. */
 133:./Libraries/CMSIS/DSP/Source/FilteringFunctions/arm_conv_partial_fast_q31.c **** 
 134:./Libraries/CMSIS/DSP/Source/FilteringFunctions/arm_conv_partial_fast_q31.c ****     /* Set the output pointer to point to the firstIndex
 135:./Libraries/CMSIS/DSP/Source/FilteringFunctions/arm_conv_partial_fast_q31.c ****      * of the output sample to be calculated. */
 136:./Libraries/CMSIS/DSP/Source/FilteringFunctions/arm_conv_partial_fast_q31.c ****     pOut = pDst + firstIndex;
 199              		.loc 1 136 17 discriminator 8
 200 00da D7F89430 		ldr	r3, [r7, #148]
 201 00de 9B00     		lsls	r3, r3, #2
 202              		.loc 1 136 10 discriminator 8
 203 00e0 D7F89020 		ldr	r2, [r7, #144]
 204 00e4 1344     		add	r3, r3, r2
 205 00e6 7B66     		str	r3, [r7, #100]
 137:./Libraries/CMSIS/DSP/Source/FilteringFunctions/arm_conv_partial_fast_q31.c **** 
 138:./Libraries/CMSIS/DSP/Source/FilteringFunctions/arm_conv_partial_fast_q31.c ****     /* --------------------------
ARM GAS  /tmp/ccl112oz.s 			page 7


 139:./Libraries/CMSIS/DSP/Source/FilteringFunctions/arm_conv_partial_fast_q31.c ****      * Initializations of stage1
 140:./Libraries/CMSIS/DSP/Source/FilteringFunctions/arm_conv_partial_fast_q31.c ****      * -------------------------*/
 141:./Libraries/CMSIS/DSP/Source/FilteringFunctions/arm_conv_partial_fast_q31.c **** 
 142:./Libraries/CMSIS/DSP/Source/FilteringFunctions/arm_conv_partial_fast_q31.c ****     /* sum = x[0] * y[0]
 143:./Libraries/CMSIS/DSP/Source/FilteringFunctions/arm_conv_partial_fast_q31.c ****      * sum = x[0] * y[1] + x[1] * y[0]
 144:./Libraries/CMSIS/DSP/Source/FilteringFunctions/arm_conv_partial_fast_q31.c ****      * ....
 145:./Libraries/CMSIS/DSP/Source/FilteringFunctions/arm_conv_partial_fast_q31.c ****      * sum = x[0] * y[srcBlen - 1] + x[1] * y[srcBlen - 2] +...+ x[srcBLen - 1] * y[0]
 146:./Libraries/CMSIS/DSP/Source/FilteringFunctions/arm_conv_partial_fast_q31.c ****      */
 147:./Libraries/CMSIS/DSP/Source/FilteringFunctions/arm_conv_partial_fast_q31.c **** 
 148:./Libraries/CMSIS/DSP/Source/FilteringFunctions/arm_conv_partial_fast_q31.c ****     /* In this stage the MAC operations are increased by 1 for every iteration.
 149:./Libraries/CMSIS/DSP/Source/FilteringFunctions/arm_conv_partial_fast_q31.c ****        The count variable holds the number of MAC operations performed.
 150:./Libraries/CMSIS/DSP/Source/FilteringFunctions/arm_conv_partial_fast_q31.c ****        Since the partial convolution starts from firstIndex
 151:./Libraries/CMSIS/DSP/Source/FilteringFunctions/arm_conv_partial_fast_q31.c ****        Number of Macs to be performed is firstIndex + 1 */
 152:./Libraries/CMSIS/DSP/Source/FilteringFunctions/arm_conv_partial_fast_q31.c ****     count = 1U + firstIndex;
 206              		.loc 1 152 11 discriminator 8
 207 00e8 D7F89430 		ldr	r3, [r7, #148]
 208 00ec 0133     		adds	r3, r3, #1
 209 00ee BB64     		str	r3, [r7, #72]
 153:./Libraries/CMSIS/DSP/Source/FilteringFunctions/arm_conv_partial_fast_q31.c **** 
 154:./Libraries/CMSIS/DSP/Source/FilteringFunctions/arm_conv_partial_fast_q31.c ****     /* Working pointer of inputA */
 155:./Libraries/CMSIS/DSP/Source/FilteringFunctions/arm_conv_partial_fast_q31.c ****     px = pIn1;
 210              		.loc 1 155 8 discriminator 8
 211 00f0 FB6E     		ldr	r3, [r7, #108]
 212 00f2 3B66     		str	r3, [r7, #96]
 156:./Libraries/CMSIS/DSP/Source/FilteringFunctions/arm_conv_partial_fast_q31.c **** 
 157:./Libraries/CMSIS/DSP/Source/FilteringFunctions/arm_conv_partial_fast_q31.c ****     /* Working pointer of inputB */
 158:./Libraries/CMSIS/DSP/Source/FilteringFunctions/arm_conv_partial_fast_q31.c ****     pSrc2 = pIn2 + firstIndex;
 213              		.loc 1 158 18 discriminator 8
 214 00f4 D7F89430 		ldr	r3, [r7, #148]
 215 00f8 9B00     		lsls	r3, r3, #2
 216              		.loc 1 158 11 discriminator 8
 217 00fa BA6E     		ldr	r2, [r7, #104]
 218 00fc 1344     		add	r3, r3, r2
 219 00fe 7B65     		str	r3, [r7, #84]
 159:./Libraries/CMSIS/DSP/Source/FilteringFunctions/arm_conv_partial_fast_q31.c ****     py = pSrc2;
 220              		.loc 1 159 8 discriminator 8
 221 0100 7B6D     		ldr	r3, [r7, #84]
 222 0102 FB65     		str	r3, [r7, #92]
 160:./Libraries/CMSIS/DSP/Source/FilteringFunctions/arm_conv_partial_fast_q31.c **** 
 161:./Libraries/CMSIS/DSP/Source/FilteringFunctions/arm_conv_partial_fast_q31.c ****     /* ------------------------
 162:./Libraries/CMSIS/DSP/Source/FilteringFunctions/arm_conv_partial_fast_q31.c ****      * Stage1 process
 163:./Libraries/CMSIS/DSP/Source/FilteringFunctions/arm_conv_partial_fast_q31.c ****      * ----------------------*/
 164:./Libraries/CMSIS/DSP/Source/FilteringFunctions/arm_conv_partial_fast_q31.c **** 
 165:./Libraries/CMSIS/DSP/Source/FilteringFunctions/arm_conv_partial_fast_q31.c ****     /* The first stage starts here */
 166:./Libraries/CMSIS/DSP/Source/FilteringFunctions/arm_conv_partial_fast_q31.c ****     while (blockSize1 > 0U)
 223              		.loc 1 166 11 discriminator 8
 224 0104 57E0     		b	.L14
 225              	.L17:
 167:./Libraries/CMSIS/DSP/Source/FilteringFunctions/arm_conv_partial_fast_q31.c ****     {
 168:./Libraries/CMSIS/DSP/Source/FilteringFunctions/arm_conv_partial_fast_q31.c ****       /* Accumulator is made zero for every iteration */
 169:./Libraries/CMSIS/DSP/Source/FilteringFunctions/arm_conv_partial_fast_q31.c ****       sum = 0;
 226              		.loc 1 169 11
 227 0106 0023     		movs	r3, #0
 228 0108 3B65     		str	r3, [r7, #80]
 170:./Libraries/CMSIS/DSP/Source/FilteringFunctions/arm_conv_partial_fast_q31.c **** 
 171:./Libraries/CMSIS/DSP/Source/FilteringFunctions/arm_conv_partial_fast_q31.c **** #if defined (ARM_MATH_LOOPUNROLL)
 172:./Libraries/CMSIS/DSP/Source/FilteringFunctions/arm_conv_partial_fast_q31.c **** 
ARM GAS  /tmp/ccl112oz.s 			page 8


 173:./Libraries/CMSIS/DSP/Source/FilteringFunctions/arm_conv_partial_fast_q31.c ****       /* Loop unrolling: Compute 4 outputs at a time */
 174:./Libraries/CMSIS/DSP/Source/FilteringFunctions/arm_conv_partial_fast_q31.c ****       k = count >> 2U;
 175:./Libraries/CMSIS/DSP/Source/FilteringFunctions/arm_conv_partial_fast_q31.c **** 
 176:./Libraries/CMSIS/DSP/Source/FilteringFunctions/arm_conv_partial_fast_q31.c ****       while (k > 0U)
 177:./Libraries/CMSIS/DSP/Source/FilteringFunctions/arm_conv_partial_fast_q31.c ****       {
 178:./Libraries/CMSIS/DSP/Source/FilteringFunctions/arm_conv_partial_fast_q31.c ****         /* x[0] * y[srcBLen - 1] */
 179:./Libraries/CMSIS/DSP/Source/FilteringFunctions/arm_conv_partial_fast_q31.c ****         sum = (q31_t) ((((q63_t) sum << 32) +
 180:./Libraries/CMSIS/DSP/Source/FilteringFunctions/arm_conv_partial_fast_q31.c ****                         ((q63_t) *px++ * (*py--))) >> 32);
 181:./Libraries/CMSIS/DSP/Source/FilteringFunctions/arm_conv_partial_fast_q31.c **** 
 182:./Libraries/CMSIS/DSP/Source/FilteringFunctions/arm_conv_partial_fast_q31.c ****         /* x[1] * y[srcBLen - 2] */
 183:./Libraries/CMSIS/DSP/Source/FilteringFunctions/arm_conv_partial_fast_q31.c ****         sum = (q31_t) ((((q63_t) sum << 32) +
 184:./Libraries/CMSIS/DSP/Source/FilteringFunctions/arm_conv_partial_fast_q31.c ****                         ((q63_t) *px++ * (*py--))) >> 32);
 185:./Libraries/CMSIS/DSP/Source/FilteringFunctions/arm_conv_partial_fast_q31.c **** 
 186:./Libraries/CMSIS/DSP/Source/FilteringFunctions/arm_conv_partial_fast_q31.c ****         /* x[2] * y[srcBLen - 3] */
 187:./Libraries/CMSIS/DSP/Source/FilteringFunctions/arm_conv_partial_fast_q31.c ****         sum = (q31_t) ((((q63_t) sum << 32) +
 188:./Libraries/CMSIS/DSP/Source/FilteringFunctions/arm_conv_partial_fast_q31.c ****                         ((q63_t) *px++ * (*py--))) >> 32);
 189:./Libraries/CMSIS/DSP/Source/FilteringFunctions/arm_conv_partial_fast_q31.c **** 
 190:./Libraries/CMSIS/DSP/Source/FilteringFunctions/arm_conv_partial_fast_q31.c ****         /* x[3] * y[srcBLen - 4] */
 191:./Libraries/CMSIS/DSP/Source/FilteringFunctions/arm_conv_partial_fast_q31.c ****         sum = (q31_t) ((((q63_t) sum << 32) +
 192:./Libraries/CMSIS/DSP/Source/FilteringFunctions/arm_conv_partial_fast_q31.c ****                         ((q63_t) *px++ * (*py--))) >> 32);
 193:./Libraries/CMSIS/DSP/Source/FilteringFunctions/arm_conv_partial_fast_q31.c **** 
 194:./Libraries/CMSIS/DSP/Source/FilteringFunctions/arm_conv_partial_fast_q31.c ****         /* Decrement loop counter */
 195:./Libraries/CMSIS/DSP/Source/FilteringFunctions/arm_conv_partial_fast_q31.c ****         k--;
 196:./Libraries/CMSIS/DSP/Source/FilteringFunctions/arm_conv_partial_fast_q31.c ****       }
 197:./Libraries/CMSIS/DSP/Source/FilteringFunctions/arm_conv_partial_fast_q31.c **** 
 198:./Libraries/CMSIS/DSP/Source/FilteringFunctions/arm_conv_partial_fast_q31.c ****       /* Loop unrolling: Compute remaining outputs */
 199:./Libraries/CMSIS/DSP/Source/FilteringFunctions/arm_conv_partial_fast_q31.c ****       k = count % 0x4U;
 200:./Libraries/CMSIS/DSP/Source/FilteringFunctions/arm_conv_partial_fast_q31.c **** 
 201:./Libraries/CMSIS/DSP/Source/FilteringFunctions/arm_conv_partial_fast_q31.c **** #else
 202:./Libraries/CMSIS/DSP/Source/FilteringFunctions/arm_conv_partial_fast_q31.c **** 
 203:./Libraries/CMSIS/DSP/Source/FilteringFunctions/arm_conv_partial_fast_q31.c ****       /* Initialize k with number of samples */
 204:./Libraries/CMSIS/DSP/Source/FilteringFunctions/arm_conv_partial_fast_q31.c ****       k = count;
 229              		.loc 1 204 9
 230 010a BB6C     		ldr	r3, [r7, #72]
 231 010c FB64     		str	r3, [r7, #76]
 205:./Libraries/CMSIS/DSP/Source/FilteringFunctions/arm_conv_partial_fast_q31.c **** 
 206:./Libraries/CMSIS/DSP/Source/FilteringFunctions/arm_conv_partial_fast_q31.c **** #endif /* #if defined (ARM_MATH_LOOPUNROLL) */
 207:./Libraries/CMSIS/DSP/Source/FilteringFunctions/arm_conv_partial_fast_q31.c **** 
 208:./Libraries/CMSIS/DSP/Source/FilteringFunctions/arm_conv_partial_fast_q31.c ****       while (k > 0U)
 232              		.loc 1 208 13
 233 010e 3CE0     		b	.L15
 234              	.L16:
 209:./Libraries/CMSIS/DSP/Source/FilteringFunctions/arm_conv_partial_fast_q31.c ****       {
 210:./Libraries/CMSIS/DSP/Source/FilteringFunctions/arm_conv_partial_fast_q31.c ****         /* Perform the multiply-accumulate */
 211:./Libraries/CMSIS/DSP/Source/FilteringFunctions/arm_conv_partial_fast_q31.c ****         sum = (q31_t) ((((q63_t) sum << 32) +
 235              		.loc 1 211 26
 236 0110 3B6D     		ldr	r3, [r7, #80]
 237 0112 1A46     		mov	r2, r3
 238 0114 4FEAE273 		asr	r3, r2, #31
 239              		.loc 1 211 38
 240 0118 4FF00000 		mov	r0, #0
 241 011c 4FF00001 		mov	r1, #0
 242 0120 C7E90401 		strd	r0, [r7, #16]
 243 0124 1300     		movs	r3, r2
 244 0126 7B61     		str	r3, [r7, #20]
 245 0128 0023     		movs	r3, #0
 246 012a 3B61     		str	r3, [r7, #16]
ARM GAS  /tmp/ccl112oz.s 			page 9


 212:./Libraries/CMSIS/DSP/Source/FilteringFunctions/arm_conv_partial_fast_q31.c ****                         ((q63_t) *px++ * (*py--))) >> 32);
 247              		.loc 1 212 37
 248 012c 3B6E     		ldr	r3, [r7, #96]
 249 012e 1A1D     		adds	r2, r3, #4
 250 0130 3A66     		str	r2, [r7, #96]
 251              		.loc 1 212 34
 252 0132 1B68     		ldr	r3, [r3]
 253              		.loc 1 212 26
 254 0134 1C46     		mov	r4, r3
 255 0136 4FEAE475 		asr	r5, r4, #31
 256              		.loc 1 212 46
 257 013a FB6D     		ldr	r3, [r7, #92]
 258 013c 1A1F     		subs	r2, r3, #4
 259 013e FA65     		str	r2, [r7, #92]
 260              		.loc 1 212 43
 261 0140 1B68     		ldr	r3, [r3]
 262 0142 1A46     		mov	r2, r3
 263 0144 4FEAE273 		asr	r3, r2, #31
 264              		.loc 1 212 40
 265 0148 02FB05F0 		mul	r0, r2, r5
 266 014c 04FB03F1 		mul	r1, r4, r3
 267 0150 0144     		add	r1, r1, r0
 268 0152 A4FB0223 		umull	r2, r3, r4, r2
 269 0156 1944     		add	r1, r1, r3
 270 0158 0B46     		mov	r3, r1
 211:./Libraries/CMSIS/DSP/Source/FilteringFunctions/arm_conv_partial_fast_q31.c ****                         ((q63_t) *px++ * (*py--))) >> 32);
 271              		.loc 1 211 45
 272 015a D7E90445 		ldrd	r4, [r7, #16]
 273 015e 2146     		mov	r1, r4
 274 0160 8918     		adds	r1, r1, r2
 275 0162 B960     		str	r1, [r7, #8]
 276 0164 2946     		mov	r1, r5
 277 0166 41EB0303 		adc	r3, r1, r3
 278 016a FB60     		str	r3, [r7, #12]
 279              		.loc 1 212 52
 280 016c 4FF00002 		mov	r2, #0
 281 0170 4FF00003 		mov	r3, #0
 282 0174 D7E90245 		ldrd	r4, [r7, #8]
 283 0178 2946     		mov	r1, r5
 284 017a 0A00     		movs	r2, r1
 285 017c 2946     		mov	r1, r5
 286 017e CB17     		asrs	r3, r1, #31
 211:./Libraries/CMSIS/DSP/Source/FilteringFunctions/arm_conv_partial_fast_q31.c ****                         ((q63_t) *px++ * (*py--))) >> 32);
 287              		.loc 1 211 13
 288 0180 1346     		mov	r3, r2
 289 0182 3B65     		str	r3, [r7, #80]
 213:./Libraries/CMSIS/DSP/Source/FilteringFunctions/arm_conv_partial_fast_q31.c **** 
 214:./Libraries/CMSIS/DSP/Source/FilteringFunctions/arm_conv_partial_fast_q31.c ****         /* Decrement loop counter */
 215:./Libraries/CMSIS/DSP/Source/FilteringFunctions/arm_conv_partial_fast_q31.c ****         k--;
 290              		.loc 1 215 10
 291 0184 FB6C     		ldr	r3, [r7, #76]
 292 0186 013B     		subs	r3, r3, #1
 293 0188 FB64     		str	r3, [r7, #76]
 294              	.L15:
 208:./Libraries/CMSIS/DSP/Source/FilteringFunctions/arm_conv_partial_fast_q31.c ****       {
 295              		.loc 1 208 13
 296 018a FB6C     		ldr	r3, [r7, #76]
ARM GAS  /tmp/ccl112oz.s 			page 10


 297 018c 002B     		cmp	r3, #0
 298 018e BFD1     		bne	.L16
 216:./Libraries/CMSIS/DSP/Source/FilteringFunctions/arm_conv_partial_fast_q31.c ****       }
 217:./Libraries/CMSIS/DSP/Source/FilteringFunctions/arm_conv_partial_fast_q31.c **** 
 218:./Libraries/CMSIS/DSP/Source/FilteringFunctions/arm_conv_partial_fast_q31.c ****       /* Store the result in the accumulator in the destination buffer. */
 219:./Libraries/CMSIS/DSP/Source/FilteringFunctions/arm_conv_partial_fast_q31.c ****       *pOut++ = sum << 1;
 299              		.loc 1 219 12
 300 0190 7B6E     		ldr	r3, [r7, #100]
 301 0192 1A1D     		adds	r2, r3, #4
 302 0194 7A66     		str	r2, [r7, #100]
 303              		.loc 1 219 21
 304 0196 3A6D     		ldr	r2, [r7, #80]
 305 0198 5200     		lsls	r2, r2, #1
 306              		.loc 1 219 15
 307 019a 1A60     		str	r2, [r3]
 220:./Libraries/CMSIS/DSP/Source/FilteringFunctions/arm_conv_partial_fast_q31.c **** 
 221:./Libraries/CMSIS/DSP/Source/FilteringFunctions/arm_conv_partial_fast_q31.c ****       /* Update the inputA and inputB pointers for next MAC calculation */
 222:./Libraries/CMSIS/DSP/Source/FilteringFunctions/arm_conv_partial_fast_q31.c ****       py = ++pSrc2;
 308              		.loc 1 222 10
 309 019c 7B6D     		ldr	r3, [r7, #84]
 310 019e 0433     		adds	r3, r3, #4
 311 01a0 7B65     		str	r3, [r7, #84]
 312 01a2 7B6D     		ldr	r3, [r7, #84]
 313 01a4 FB65     		str	r3, [r7, #92]
 223:./Libraries/CMSIS/DSP/Source/FilteringFunctions/arm_conv_partial_fast_q31.c ****       px = pIn1;
 314              		.loc 1 223 10
 315 01a6 FB6E     		ldr	r3, [r7, #108]
 316 01a8 3B66     		str	r3, [r7, #96]
 224:./Libraries/CMSIS/DSP/Source/FilteringFunctions/arm_conv_partial_fast_q31.c **** 
 225:./Libraries/CMSIS/DSP/Source/FilteringFunctions/arm_conv_partial_fast_q31.c ****       /* Increment MAC count */
 226:./Libraries/CMSIS/DSP/Source/FilteringFunctions/arm_conv_partial_fast_q31.c ****       count++;
 317              		.loc 1 226 12
 318 01aa BB6C     		ldr	r3, [r7, #72]
 319 01ac 0133     		adds	r3, r3, #1
 320 01ae BB64     		str	r3, [r7, #72]
 227:./Libraries/CMSIS/DSP/Source/FilteringFunctions/arm_conv_partial_fast_q31.c **** 
 228:./Libraries/CMSIS/DSP/Source/FilteringFunctions/arm_conv_partial_fast_q31.c ****       /* Decrement loop counter */
 229:./Libraries/CMSIS/DSP/Source/FilteringFunctions/arm_conv_partial_fast_q31.c ****       blockSize1--;
 321              		.loc 1 229 17
 322 01b0 3B6C     		ldr	r3, [r7, #64]
 323 01b2 013B     		subs	r3, r3, #1
 324 01b4 3B64     		str	r3, [r7, #64]
 325              	.L14:
 166:./Libraries/CMSIS/DSP/Source/FilteringFunctions/arm_conv_partial_fast_q31.c ****     {
 326              		.loc 1 166 11
 327 01b6 3B6C     		ldr	r3, [r7, #64]
 328 01b8 002B     		cmp	r3, #0
 329 01ba A4D1     		bne	.L17
 230:./Libraries/CMSIS/DSP/Source/FilteringFunctions/arm_conv_partial_fast_q31.c ****     }
 231:./Libraries/CMSIS/DSP/Source/FilteringFunctions/arm_conv_partial_fast_q31.c **** 
 232:./Libraries/CMSIS/DSP/Source/FilteringFunctions/arm_conv_partial_fast_q31.c ****     /* --------------------------
 233:./Libraries/CMSIS/DSP/Source/FilteringFunctions/arm_conv_partial_fast_q31.c ****      * Initializations of stage2
 234:./Libraries/CMSIS/DSP/Source/FilteringFunctions/arm_conv_partial_fast_q31.c ****      * ------------------------*/
 235:./Libraries/CMSIS/DSP/Source/FilteringFunctions/arm_conv_partial_fast_q31.c **** 
 236:./Libraries/CMSIS/DSP/Source/FilteringFunctions/arm_conv_partial_fast_q31.c ****     /* sum = x[0] * y[srcBLen-1] + x[1] * y[srcBLen-2] +...+ x[srcBLen-1] * y[0]
 237:./Libraries/CMSIS/DSP/Source/FilteringFunctions/arm_conv_partial_fast_q31.c ****      * sum = x[1] * y[srcBLen-1] + x[2] * y[srcBLen-2] +...+ x[srcBLen] * y[0]
 238:./Libraries/CMSIS/DSP/Source/FilteringFunctions/arm_conv_partial_fast_q31.c ****      * ....
ARM GAS  /tmp/ccl112oz.s 			page 11


 239:./Libraries/CMSIS/DSP/Source/FilteringFunctions/arm_conv_partial_fast_q31.c ****      * sum = x[srcALen-srcBLen-2] * y[srcBLen-1] + x[srcALen] * y[srcBLen-2] +...+ x[srcALen-1] * y
 240:./Libraries/CMSIS/DSP/Source/FilteringFunctions/arm_conv_partial_fast_q31.c ****      */
 241:./Libraries/CMSIS/DSP/Source/FilteringFunctions/arm_conv_partial_fast_q31.c **** 
 242:./Libraries/CMSIS/DSP/Source/FilteringFunctions/arm_conv_partial_fast_q31.c ****     /* Working pointer of inputA */
 243:./Libraries/CMSIS/DSP/Source/FilteringFunctions/arm_conv_partial_fast_q31.c ****     if ((int32_t)firstIndex - (int32_t)srcBLen + 1 > 0)
 330              		.loc 1 243 9
 331 01bc D7F89420 		ldr	r2, [r7, #148]
 332              		.loc 1 243 31
 333 01c0 BB69     		ldr	r3, [r7, #24]
 334              		.loc 1 243 29
 335 01c2 D31A     		subs	r3, r2, r3
 336              		.loc 1 243 8
 337 01c4 002B     		cmp	r3, #0
 338 01c6 09DB     		blt	.L18
 244:./Libraries/CMSIS/DSP/Source/FilteringFunctions/arm_conv_partial_fast_q31.c ****     {
 245:./Libraries/CMSIS/DSP/Source/FilteringFunctions/arm_conv_partial_fast_q31.c ****       pSrc1 = pIn1 + firstIndex - srcBLen + 1;
 339              		.loc 1 245 33
 340 01c8 D7F89420 		ldr	r2, [r7, #148]
 341 01cc BB69     		ldr	r3, [r7, #24]
 342 01ce D31A     		subs	r3, r2, r3
 343              		.loc 1 245 43
 344 01d0 0133     		adds	r3, r3, #1
 345 01d2 9B00     		lsls	r3, r3, #2
 346              		.loc 1 245 13
 347 01d4 FA6E     		ldr	r2, [r7, #108]
 348 01d6 1344     		add	r3, r3, r2
 349 01d8 BB65     		str	r3, [r7, #88]
 350 01da 01E0     		b	.L19
 351              	.L18:
 246:./Libraries/CMSIS/DSP/Source/FilteringFunctions/arm_conv_partial_fast_q31.c ****     }
 247:./Libraries/CMSIS/DSP/Source/FilteringFunctions/arm_conv_partial_fast_q31.c ****     else
 248:./Libraries/CMSIS/DSP/Source/FilteringFunctions/arm_conv_partial_fast_q31.c ****     {
 249:./Libraries/CMSIS/DSP/Source/FilteringFunctions/arm_conv_partial_fast_q31.c ****       pSrc1 = pIn1;
 352              		.loc 1 249 13
 353 01dc FB6E     		ldr	r3, [r7, #108]
 354 01de BB65     		str	r3, [r7, #88]
 355              	.L19:
 250:./Libraries/CMSIS/DSP/Source/FilteringFunctions/arm_conv_partial_fast_q31.c ****     }
 251:./Libraries/CMSIS/DSP/Source/FilteringFunctions/arm_conv_partial_fast_q31.c ****     px = pSrc1;
 356              		.loc 1 251 8
 357 01e0 BB6D     		ldr	r3, [r7, #88]
 358 01e2 3B66     		str	r3, [r7, #96]
 252:./Libraries/CMSIS/DSP/Source/FilteringFunctions/arm_conv_partial_fast_q31.c **** 
 253:./Libraries/CMSIS/DSP/Source/FilteringFunctions/arm_conv_partial_fast_q31.c ****     /* Working pointer of inputB */
 254:./Libraries/CMSIS/DSP/Source/FilteringFunctions/arm_conv_partial_fast_q31.c ****     pSrc2 = pIn2 + (srcBLen - 1U);
 359              		.loc 1 254 18
 360 01e4 BA69     		ldr	r2, [r7, #24]
 361 01e6 6FF04043 		mvn	r3, #-1073741824
 362 01ea 1344     		add	r3, r3, r2
 363 01ec 9B00     		lsls	r3, r3, #2
 364              		.loc 1 254 11
 365 01ee BA6E     		ldr	r2, [r7, #104]
 366 01f0 1344     		add	r3, r3, r2
 367 01f2 7B65     		str	r3, [r7, #84]
 255:./Libraries/CMSIS/DSP/Source/FilteringFunctions/arm_conv_partial_fast_q31.c ****     py = pSrc2;
 368              		.loc 1 255 8
 369 01f4 7B6D     		ldr	r3, [r7, #84]
ARM GAS  /tmp/ccl112oz.s 			page 12


 370 01f6 FB65     		str	r3, [r7, #92]
 256:./Libraries/CMSIS/DSP/Source/FilteringFunctions/arm_conv_partial_fast_q31.c **** 
 257:./Libraries/CMSIS/DSP/Source/FilteringFunctions/arm_conv_partial_fast_q31.c ****     /* count is index by which the pointer pIn1 to be incremented */
 258:./Libraries/CMSIS/DSP/Source/FilteringFunctions/arm_conv_partial_fast_q31.c ****     count = 0U;
 371              		.loc 1 258 11
 372 01f8 0023     		movs	r3, #0
 373 01fa BB64     		str	r3, [r7, #72]
 259:./Libraries/CMSIS/DSP/Source/FilteringFunctions/arm_conv_partial_fast_q31.c **** 
 260:./Libraries/CMSIS/DSP/Source/FilteringFunctions/arm_conv_partial_fast_q31.c ****     /* -------------------
 261:./Libraries/CMSIS/DSP/Source/FilteringFunctions/arm_conv_partial_fast_q31.c ****      * Stage2 process
 262:./Libraries/CMSIS/DSP/Source/FilteringFunctions/arm_conv_partial_fast_q31.c ****      * ------------------*/
 263:./Libraries/CMSIS/DSP/Source/FilteringFunctions/arm_conv_partial_fast_q31.c **** 
 264:./Libraries/CMSIS/DSP/Source/FilteringFunctions/arm_conv_partial_fast_q31.c ****     /* Stage2 depends on srcBLen as in this stage srcBLen number of MACS are performed.
 265:./Libraries/CMSIS/DSP/Source/FilteringFunctions/arm_conv_partial_fast_q31.c ****      * So, to loop unroll over blockSize2,
 266:./Libraries/CMSIS/DSP/Source/FilteringFunctions/arm_conv_partial_fast_q31.c ****      * srcBLen should be greater than or equal to 4 */
 267:./Libraries/CMSIS/DSP/Source/FilteringFunctions/arm_conv_partial_fast_q31.c ****     if (srcBLen >= 4U)
 374              		.loc 1 267 8
 375 01fc BB69     		ldr	r3, [r7, #24]
 376 01fe 032B     		cmp	r3, #3
 377 0200 56D9     		bls	.L20
 268:./Libraries/CMSIS/DSP/Source/FilteringFunctions/arm_conv_partial_fast_q31.c ****     {
 269:./Libraries/CMSIS/DSP/Source/FilteringFunctions/arm_conv_partial_fast_q31.c **** #if defined (ARM_MATH_LOOPUNROLL)
 270:./Libraries/CMSIS/DSP/Source/FilteringFunctions/arm_conv_partial_fast_q31.c **** 
 271:./Libraries/CMSIS/DSP/Source/FilteringFunctions/arm_conv_partial_fast_q31.c ****     /* Loop unrolling: Compute 4 outputs at a time */
 272:./Libraries/CMSIS/DSP/Source/FilteringFunctions/arm_conv_partial_fast_q31.c ****       blkCnt = ((uint32_t) blockSize2 >> 2U);
 273:./Libraries/CMSIS/DSP/Source/FilteringFunctions/arm_conv_partial_fast_q31.c **** 
 274:./Libraries/CMSIS/DSP/Source/FilteringFunctions/arm_conv_partial_fast_q31.c ****       while (blkCnt > 0U)
 275:./Libraries/CMSIS/DSP/Source/FilteringFunctions/arm_conv_partial_fast_q31.c ****       {
 276:./Libraries/CMSIS/DSP/Source/FilteringFunctions/arm_conv_partial_fast_q31.c ****         /* Set all accumulators to zero */
 277:./Libraries/CMSIS/DSP/Source/FilteringFunctions/arm_conv_partial_fast_q31.c ****         acc0 = 0;
 278:./Libraries/CMSIS/DSP/Source/FilteringFunctions/arm_conv_partial_fast_q31.c ****         acc1 = 0;
 279:./Libraries/CMSIS/DSP/Source/FilteringFunctions/arm_conv_partial_fast_q31.c ****         acc2 = 0;
 280:./Libraries/CMSIS/DSP/Source/FilteringFunctions/arm_conv_partial_fast_q31.c ****         acc3 = 0;
 281:./Libraries/CMSIS/DSP/Source/FilteringFunctions/arm_conv_partial_fast_q31.c **** 
 282:./Libraries/CMSIS/DSP/Source/FilteringFunctions/arm_conv_partial_fast_q31.c ****         /* read x[0], x[1], x[2] samples */
 283:./Libraries/CMSIS/DSP/Source/FilteringFunctions/arm_conv_partial_fast_q31.c ****         x0 = *px++;
 284:./Libraries/CMSIS/DSP/Source/FilteringFunctions/arm_conv_partial_fast_q31.c ****         x1 = *px++;
 285:./Libraries/CMSIS/DSP/Source/FilteringFunctions/arm_conv_partial_fast_q31.c ****         x2 = *px++;
 286:./Libraries/CMSIS/DSP/Source/FilteringFunctions/arm_conv_partial_fast_q31.c **** 
 287:./Libraries/CMSIS/DSP/Source/FilteringFunctions/arm_conv_partial_fast_q31.c ****         /* Apply loop unrolling and compute 4 MACs simultaneously. */
 288:./Libraries/CMSIS/DSP/Source/FilteringFunctions/arm_conv_partial_fast_q31.c ****         k = srcBLen >> 2U;
 289:./Libraries/CMSIS/DSP/Source/FilteringFunctions/arm_conv_partial_fast_q31.c **** 
 290:./Libraries/CMSIS/DSP/Source/FilteringFunctions/arm_conv_partial_fast_q31.c ****         /* First part of the processing with loop unrolling.  Compute 4 MACs at a time.
 291:./Libraries/CMSIS/DSP/Source/FilteringFunctions/arm_conv_partial_fast_q31.c ****          ** a second loop below computes MACs for the remaining 1 to 3 samples. */
 292:./Libraries/CMSIS/DSP/Source/FilteringFunctions/arm_conv_partial_fast_q31.c ****         do
 293:./Libraries/CMSIS/DSP/Source/FilteringFunctions/arm_conv_partial_fast_q31.c ****         {
 294:./Libraries/CMSIS/DSP/Source/FilteringFunctions/arm_conv_partial_fast_q31.c ****           /* Read y[srcBLen - 1] sample */
 295:./Libraries/CMSIS/DSP/Source/FilteringFunctions/arm_conv_partial_fast_q31.c ****           c0 = *py--;
 296:./Libraries/CMSIS/DSP/Source/FilteringFunctions/arm_conv_partial_fast_q31.c ****           /* Read x[3] sample */
 297:./Libraries/CMSIS/DSP/Source/FilteringFunctions/arm_conv_partial_fast_q31.c ****           x3 = *px++;
 298:./Libraries/CMSIS/DSP/Source/FilteringFunctions/arm_conv_partial_fast_q31.c **** 
 299:./Libraries/CMSIS/DSP/Source/FilteringFunctions/arm_conv_partial_fast_q31.c ****           /* Perform the multiply-accumulate */
 300:./Libraries/CMSIS/DSP/Source/FilteringFunctions/arm_conv_partial_fast_q31.c ****           /* acc0 +=  x[0] * y[srcBLen - 1] */
 301:./Libraries/CMSIS/DSP/Source/FilteringFunctions/arm_conv_partial_fast_q31.c ****           acc0 = (q31_t) ((((q63_t) acc0 << 32) + ((q63_t) x0 * c0)) >> 32);
 302:./Libraries/CMSIS/DSP/Source/FilteringFunctions/arm_conv_partial_fast_q31.c ****           /* acc1 +=  x[1] * y[srcBLen - 1] */
 303:./Libraries/CMSIS/DSP/Source/FilteringFunctions/arm_conv_partial_fast_q31.c ****           acc1 = (q31_t) ((((q63_t) acc1 << 32) + ((q63_t) x1 * c0)) >> 32);
 304:./Libraries/CMSIS/DSP/Source/FilteringFunctions/arm_conv_partial_fast_q31.c ****           /* acc2 +=  x[2] * y[srcBLen - 1] */
ARM GAS  /tmp/ccl112oz.s 			page 13


 305:./Libraries/CMSIS/DSP/Source/FilteringFunctions/arm_conv_partial_fast_q31.c ****           acc2 = (q31_t) ((((q63_t) acc2 << 32) + ((q63_t) x2 * c0)) >> 32);
 306:./Libraries/CMSIS/DSP/Source/FilteringFunctions/arm_conv_partial_fast_q31.c ****           /* acc3 +=  x[3] * y[srcBLen - 1] */
 307:./Libraries/CMSIS/DSP/Source/FilteringFunctions/arm_conv_partial_fast_q31.c ****           acc3 = (q31_t) ((((q63_t) acc3 << 32) + ((q63_t) x3 * c0)) >> 32);
 308:./Libraries/CMSIS/DSP/Source/FilteringFunctions/arm_conv_partial_fast_q31.c **** 
 309:./Libraries/CMSIS/DSP/Source/FilteringFunctions/arm_conv_partial_fast_q31.c ****           /* Read y[srcBLen - 2] sample */
 310:./Libraries/CMSIS/DSP/Source/FilteringFunctions/arm_conv_partial_fast_q31.c ****           c0 = *py--;
 311:./Libraries/CMSIS/DSP/Source/FilteringFunctions/arm_conv_partial_fast_q31.c ****           /* Read x[4] sample */
 312:./Libraries/CMSIS/DSP/Source/FilteringFunctions/arm_conv_partial_fast_q31.c ****           x0 = *px++;
 313:./Libraries/CMSIS/DSP/Source/FilteringFunctions/arm_conv_partial_fast_q31.c **** 
 314:./Libraries/CMSIS/DSP/Source/FilteringFunctions/arm_conv_partial_fast_q31.c ****           /* Perform the multiply-accumulate */
 315:./Libraries/CMSIS/DSP/Source/FilteringFunctions/arm_conv_partial_fast_q31.c ****           /* acc0 +=  x[1] * y[srcBLen - 2] */
 316:./Libraries/CMSIS/DSP/Source/FilteringFunctions/arm_conv_partial_fast_q31.c ****           acc0 = (q31_t) ((((q63_t) acc0 << 32) + ((q63_t) x1 * c0)) >> 32);
 317:./Libraries/CMSIS/DSP/Source/FilteringFunctions/arm_conv_partial_fast_q31.c ****           /* acc1 +=  x[2] * y[srcBLen - 2] */
 318:./Libraries/CMSIS/DSP/Source/FilteringFunctions/arm_conv_partial_fast_q31.c ****           acc1 = (q31_t) ((((q63_t) acc1 << 32) + ((q63_t) x2 * c0)) >> 32);
 319:./Libraries/CMSIS/DSP/Source/FilteringFunctions/arm_conv_partial_fast_q31.c ****           /* acc2 +=  x[3] * y[srcBLen - 2] */
 320:./Libraries/CMSIS/DSP/Source/FilteringFunctions/arm_conv_partial_fast_q31.c ****           acc2 = (q31_t) ((((q63_t) acc2 << 32) + ((q63_t) x3 * c0)) >> 32);
 321:./Libraries/CMSIS/DSP/Source/FilteringFunctions/arm_conv_partial_fast_q31.c ****           /* acc3 +=  x[4] * y[srcBLen - 2] */
 322:./Libraries/CMSIS/DSP/Source/FilteringFunctions/arm_conv_partial_fast_q31.c ****           acc3 = (q31_t) ((((q63_t) acc3 << 32) + ((q63_t) x0 * c0)) >> 32);
 323:./Libraries/CMSIS/DSP/Source/FilteringFunctions/arm_conv_partial_fast_q31.c **** 
 324:./Libraries/CMSIS/DSP/Source/FilteringFunctions/arm_conv_partial_fast_q31.c ****           /* Read y[srcBLen - 3] sample */
 325:./Libraries/CMSIS/DSP/Source/FilteringFunctions/arm_conv_partial_fast_q31.c ****           c0 = *py--;
 326:./Libraries/CMSIS/DSP/Source/FilteringFunctions/arm_conv_partial_fast_q31.c ****           /* Read x[5] sample */
 327:./Libraries/CMSIS/DSP/Source/FilteringFunctions/arm_conv_partial_fast_q31.c ****           x1 = *px++;
 328:./Libraries/CMSIS/DSP/Source/FilteringFunctions/arm_conv_partial_fast_q31.c **** 
 329:./Libraries/CMSIS/DSP/Source/FilteringFunctions/arm_conv_partial_fast_q31.c ****           /* Perform the multiply-accumulates */
 330:./Libraries/CMSIS/DSP/Source/FilteringFunctions/arm_conv_partial_fast_q31.c ****           /* acc0 +=  x[2] * y[srcBLen - 3] */
 331:./Libraries/CMSIS/DSP/Source/FilteringFunctions/arm_conv_partial_fast_q31.c ****           acc0 = (q31_t) ((((q63_t) acc0 << 32) + ((q63_t) x2 * c0)) >> 32);
 332:./Libraries/CMSIS/DSP/Source/FilteringFunctions/arm_conv_partial_fast_q31.c ****           /* acc1 +=  x[3] * y[srcBLen - 2] */
 333:./Libraries/CMSIS/DSP/Source/FilteringFunctions/arm_conv_partial_fast_q31.c ****           acc1 = (q31_t) ((((q63_t) acc1 << 32) + ((q63_t) x3 * c0)) >> 32);
 334:./Libraries/CMSIS/DSP/Source/FilteringFunctions/arm_conv_partial_fast_q31.c ****           /* acc2 +=  x[4] * y[srcBLen - 2] */
 335:./Libraries/CMSIS/DSP/Source/FilteringFunctions/arm_conv_partial_fast_q31.c ****           acc2 = (q31_t) ((((q63_t) acc2 << 32) + ((q63_t) x0 * c0)) >> 32);
 336:./Libraries/CMSIS/DSP/Source/FilteringFunctions/arm_conv_partial_fast_q31.c ****           /* acc3 +=  x[5] * y[srcBLen - 2] */
 337:./Libraries/CMSIS/DSP/Source/FilteringFunctions/arm_conv_partial_fast_q31.c ****           acc3 = (q31_t) ((((q63_t) acc3 << 32) + ((q63_t) x1 * c0)) >> 32);
 338:./Libraries/CMSIS/DSP/Source/FilteringFunctions/arm_conv_partial_fast_q31.c **** 
 339:./Libraries/CMSIS/DSP/Source/FilteringFunctions/arm_conv_partial_fast_q31.c ****           /* Read y[srcBLen - 4] sample */
 340:./Libraries/CMSIS/DSP/Source/FilteringFunctions/arm_conv_partial_fast_q31.c ****           c0 = *py--;
 341:./Libraries/CMSIS/DSP/Source/FilteringFunctions/arm_conv_partial_fast_q31.c ****           /* Read x[6] sample */
 342:./Libraries/CMSIS/DSP/Source/FilteringFunctions/arm_conv_partial_fast_q31.c ****           x2 = *px++;
 343:./Libraries/CMSIS/DSP/Source/FilteringFunctions/arm_conv_partial_fast_q31.c **** 
 344:./Libraries/CMSIS/DSP/Source/FilteringFunctions/arm_conv_partial_fast_q31.c ****           /* Perform the multiply-accumulates */
 345:./Libraries/CMSIS/DSP/Source/FilteringFunctions/arm_conv_partial_fast_q31.c ****           /* acc0 +=  x[3] * y[srcBLen - 4] */
 346:./Libraries/CMSIS/DSP/Source/FilteringFunctions/arm_conv_partial_fast_q31.c ****           acc0 = (q31_t) ((((q63_t) acc0 << 32) + ((q63_t) x3 * c0)) >> 32);
 347:./Libraries/CMSIS/DSP/Source/FilteringFunctions/arm_conv_partial_fast_q31.c ****           /* acc1 +=  x[4] * y[srcBLen - 4] */
 348:./Libraries/CMSIS/DSP/Source/FilteringFunctions/arm_conv_partial_fast_q31.c ****           acc1 = (q31_t) ((((q63_t) acc1 << 32) + ((q63_t) x0 * c0)) >> 32);
 349:./Libraries/CMSIS/DSP/Source/FilteringFunctions/arm_conv_partial_fast_q31.c ****           /* acc2 +=  x[5] * y[srcBLen - 4] */
 350:./Libraries/CMSIS/DSP/Source/FilteringFunctions/arm_conv_partial_fast_q31.c ****           acc2 = (q31_t) ((((q63_t) acc2 << 32) + ((q63_t) x1 * c0)) >> 32);
 351:./Libraries/CMSIS/DSP/Source/FilteringFunctions/arm_conv_partial_fast_q31.c ****           /* acc3 +=  x[6] * y[srcBLen - 4] */
 352:./Libraries/CMSIS/DSP/Source/FilteringFunctions/arm_conv_partial_fast_q31.c ****           acc3 = (q31_t) ((((q63_t) acc3 << 32) + ((q63_t) x2 * c0)) >> 32);
 353:./Libraries/CMSIS/DSP/Source/FilteringFunctions/arm_conv_partial_fast_q31.c **** 
 354:./Libraries/CMSIS/DSP/Source/FilteringFunctions/arm_conv_partial_fast_q31.c ****         } while (--k);
 355:./Libraries/CMSIS/DSP/Source/FilteringFunctions/arm_conv_partial_fast_q31.c **** 
 356:./Libraries/CMSIS/DSP/Source/FilteringFunctions/arm_conv_partial_fast_q31.c ****         /* If the srcBLen is not a multiple of 4, compute any remaining MACs here.
 357:./Libraries/CMSIS/DSP/Source/FilteringFunctions/arm_conv_partial_fast_q31.c ****          ** No loop unrolling is used. */
 358:./Libraries/CMSIS/DSP/Source/FilteringFunctions/arm_conv_partial_fast_q31.c ****         k = srcBLen % 0x4U;
 359:./Libraries/CMSIS/DSP/Source/FilteringFunctions/arm_conv_partial_fast_q31.c **** 
 360:./Libraries/CMSIS/DSP/Source/FilteringFunctions/arm_conv_partial_fast_q31.c ****         while (k > 0U)
 361:./Libraries/CMSIS/DSP/Source/FilteringFunctions/arm_conv_partial_fast_q31.c ****         {
ARM GAS  /tmp/ccl112oz.s 			page 14


 362:./Libraries/CMSIS/DSP/Source/FilteringFunctions/arm_conv_partial_fast_q31.c ****           /* Read y[srcBLen - 5] sample */
 363:./Libraries/CMSIS/DSP/Source/FilteringFunctions/arm_conv_partial_fast_q31.c ****           c0 = *py--;
 364:./Libraries/CMSIS/DSP/Source/FilteringFunctions/arm_conv_partial_fast_q31.c ****           /* Read x[7] sample */
 365:./Libraries/CMSIS/DSP/Source/FilteringFunctions/arm_conv_partial_fast_q31.c ****           x3 = *px++;
 366:./Libraries/CMSIS/DSP/Source/FilteringFunctions/arm_conv_partial_fast_q31.c **** 
 367:./Libraries/CMSIS/DSP/Source/FilteringFunctions/arm_conv_partial_fast_q31.c ****           /* Perform the multiply-accumulates */
 368:./Libraries/CMSIS/DSP/Source/FilteringFunctions/arm_conv_partial_fast_q31.c ****           /* acc0 +=  x[4] * y[srcBLen - 5] */
 369:./Libraries/CMSIS/DSP/Source/FilteringFunctions/arm_conv_partial_fast_q31.c ****           acc0 = (q31_t) ((((q63_t) acc0 << 32) + ((q63_t) x0 * c0)) >> 32);
 370:./Libraries/CMSIS/DSP/Source/FilteringFunctions/arm_conv_partial_fast_q31.c ****           /* acc1 +=  x[5] * y[srcBLen - 5] */
 371:./Libraries/CMSIS/DSP/Source/FilteringFunctions/arm_conv_partial_fast_q31.c ****           acc1 = (q31_t) ((((q63_t) acc1 << 32) + ((q63_t) x1 * c0)) >> 32);
 372:./Libraries/CMSIS/DSP/Source/FilteringFunctions/arm_conv_partial_fast_q31.c ****           /* acc2 +=  x[6] * y[srcBLen - 5] */
 373:./Libraries/CMSIS/DSP/Source/FilteringFunctions/arm_conv_partial_fast_q31.c ****           acc2 = (q31_t) ((((q63_t) acc2 << 32) + ((q63_t) x2 * c0)) >> 32);
 374:./Libraries/CMSIS/DSP/Source/FilteringFunctions/arm_conv_partial_fast_q31.c ****           /* acc3 +=  x[7] * y[srcBLen - 5] */
 375:./Libraries/CMSIS/DSP/Source/FilteringFunctions/arm_conv_partial_fast_q31.c ****           acc3 = (q31_t) ((((q63_t) acc3 << 32) + ((q63_t) x3 * c0)) >> 32);
 376:./Libraries/CMSIS/DSP/Source/FilteringFunctions/arm_conv_partial_fast_q31.c **** 
 377:./Libraries/CMSIS/DSP/Source/FilteringFunctions/arm_conv_partial_fast_q31.c ****           /* Reuse the present samples for the next MAC */
 378:./Libraries/CMSIS/DSP/Source/FilteringFunctions/arm_conv_partial_fast_q31.c ****           x0 = x1;
 379:./Libraries/CMSIS/DSP/Source/FilteringFunctions/arm_conv_partial_fast_q31.c ****           x1 = x2;
 380:./Libraries/CMSIS/DSP/Source/FilteringFunctions/arm_conv_partial_fast_q31.c ****           x2 = x3;
 381:./Libraries/CMSIS/DSP/Source/FilteringFunctions/arm_conv_partial_fast_q31.c **** 
 382:./Libraries/CMSIS/DSP/Source/FilteringFunctions/arm_conv_partial_fast_q31.c ****           /* Decrement the loop counter */
 383:./Libraries/CMSIS/DSP/Source/FilteringFunctions/arm_conv_partial_fast_q31.c ****           k--;
 384:./Libraries/CMSIS/DSP/Source/FilteringFunctions/arm_conv_partial_fast_q31.c ****         }
 385:./Libraries/CMSIS/DSP/Source/FilteringFunctions/arm_conv_partial_fast_q31.c **** 
 386:./Libraries/CMSIS/DSP/Source/FilteringFunctions/arm_conv_partial_fast_q31.c ****         /* Store the result in the accumulator in the destination buffer. */
 387:./Libraries/CMSIS/DSP/Source/FilteringFunctions/arm_conv_partial_fast_q31.c ****         *pOut++ = (q31_t) (acc0 << 1);
 388:./Libraries/CMSIS/DSP/Source/FilteringFunctions/arm_conv_partial_fast_q31.c ****         *pOut++ = (q31_t) (acc1 << 1);
 389:./Libraries/CMSIS/DSP/Source/FilteringFunctions/arm_conv_partial_fast_q31.c ****         *pOut++ = (q31_t) (acc2 << 1);
 390:./Libraries/CMSIS/DSP/Source/FilteringFunctions/arm_conv_partial_fast_q31.c ****         *pOut++ = (q31_t) (acc3 << 1);
 391:./Libraries/CMSIS/DSP/Source/FilteringFunctions/arm_conv_partial_fast_q31.c **** 
 392:./Libraries/CMSIS/DSP/Source/FilteringFunctions/arm_conv_partial_fast_q31.c ****         /* Increment the pointer pIn1 index, count by 4 */
 393:./Libraries/CMSIS/DSP/Source/FilteringFunctions/arm_conv_partial_fast_q31.c ****         count += 4U;
 394:./Libraries/CMSIS/DSP/Source/FilteringFunctions/arm_conv_partial_fast_q31.c **** 
 395:./Libraries/CMSIS/DSP/Source/FilteringFunctions/arm_conv_partial_fast_q31.c ****         /* Update the inputA and inputB pointers for next MAC calculation */
 396:./Libraries/CMSIS/DSP/Source/FilteringFunctions/arm_conv_partial_fast_q31.c ****         px = pSrc1 + count;
 397:./Libraries/CMSIS/DSP/Source/FilteringFunctions/arm_conv_partial_fast_q31.c ****         py = pSrc2;
 398:./Libraries/CMSIS/DSP/Source/FilteringFunctions/arm_conv_partial_fast_q31.c **** 
 399:./Libraries/CMSIS/DSP/Source/FilteringFunctions/arm_conv_partial_fast_q31.c ****         /* Decrement loop counter */
 400:./Libraries/CMSIS/DSP/Source/FilteringFunctions/arm_conv_partial_fast_q31.c ****         blkCnt--;
 401:./Libraries/CMSIS/DSP/Source/FilteringFunctions/arm_conv_partial_fast_q31.c ****       }
 402:./Libraries/CMSIS/DSP/Source/FilteringFunctions/arm_conv_partial_fast_q31.c **** 
 403:./Libraries/CMSIS/DSP/Source/FilteringFunctions/arm_conv_partial_fast_q31.c ****       /* Loop unrolling: Compute remaining outputs */
 404:./Libraries/CMSIS/DSP/Source/FilteringFunctions/arm_conv_partial_fast_q31.c ****       blkCnt = (uint32_t) blockSize2 % 0x4U;
 405:./Libraries/CMSIS/DSP/Source/FilteringFunctions/arm_conv_partial_fast_q31.c **** 
 406:./Libraries/CMSIS/DSP/Source/FilteringFunctions/arm_conv_partial_fast_q31.c **** #else
 407:./Libraries/CMSIS/DSP/Source/FilteringFunctions/arm_conv_partial_fast_q31.c **** 
 408:./Libraries/CMSIS/DSP/Source/FilteringFunctions/arm_conv_partial_fast_q31.c ****       /* Initialize blkCnt with number of samples */
 409:./Libraries/CMSIS/DSP/Source/FilteringFunctions/arm_conv_partial_fast_q31.c ****       blkCnt = blockSize2;
 378              		.loc 1 409 14
 379 0202 FB6A     		ldr	r3, [r7, #44]
 380 0204 7B64     		str	r3, [r7, #68]
 410:./Libraries/CMSIS/DSP/Source/FilteringFunctions/arm_conv_partial_fast_q31.c **** 
 411:./Libraries/CMSIS/DSP/Source/FilteringFunctions/arm_conv_partial_fast_q31.c **** #endif /* #if defined (ARM_MATH_LOOPUNROLL) */
 412:./Libraries/CMSIS/DSP/Source/FilteringFunctions/arm_conv_partial_fast_q31.c **** 
 413:./Libraries/CMSIS/DSP/Source/FilteringFunctions/arm_conv_partial_fast_q31.c ****       while (blkCnt > 0U)
 381              		.loc 1 413 13
 382 0206 4FE0     		b	.L21
ARM GAS  /tmp/ccl112oz.s 			page 15


 383              	.L24:
 414:./Libraries/CMSIS/DSP/Source/FilteringFunctions/arm_conv_partial_fast_q31.c ****       {
 415:./Libraries/CMSIS/DSP/Source/FilteringFunctions/arm_conv_partial_fast_q31.c ****         /* Accumulator is made zero for every iteration */
 416:./Libraries/CMSIS/DSP/Source/FilteringFunctions/arm_conv_partial_fast_q31.c ****         sum = 0;
 384              		.loc 1 416 13
 385 0208 0023     		movs	r3, #0
 386 020a 3B65     		str	r3, [r7, #80]
 417:./Libraries/CMSIS/DSP/Source/FilteringFunctions/arm_conv_partial_fast_q31.c **** 
 418:./Libraries/CMSIS/DSP/Source/FilteringFunctions/arm_conv_partial_fast_q31.c **** #if defined (ARM_MATH_LOOPUNROLL)
 419:./Libraries/CMSIS/DSP/Source/FilteringFunctions/arm_conv_partial_fast_q31.c **** 
 420:./Libraries/CMSIS/DSP/Source/FilteringFunctions/arm_conv_partial_fast_q31.c ****         /* Loop unrolling: Compute 4 outputs at a time */
 421:./Libraries/CMSIS/DSP/Source/FilteringFunctions/arm_conv_partial_fast_q31.c ****         k = srcBLen >> 2U;
 422:./Libraries/CMSIS/DSP/Source/FilteringFunctions/arm_conv_partial_fast_q31.c **** 
 423:./Libraries/CMSIS/DSP/Source/FilteringFunctions/arm_conv_partial_fast_q31.c ****         while (k > 0U)
 424:./Libraries/CMSIS/DSP/Source/FilteringFunctions/arm_conv_partial_fast_q31.c ****         {
 425:./Libraries/CMSIS/DSP/Source/FilteringFunctions/arm_conv_partial_fast_q31.c ****           /* Perform the multiply-accumulates */
 426:./Libraries/CMSIS/DSP/Source/FilteringFunctions/arm_conv_partial_fast_q31.c ****           sum = (q31_t) ((((q63_t) sum << 32) +
 427:./Libraries/CMSIS/DSP/Source/FilteringFunctions/arm_conv_partial_fast_q31.c ****                           ((q63_t) * px++ * (*py--))) >> 32);
 428:./Libraries/CMSIS/DSP/Source/FilteringFunctions/arm_conv_partial_fast_q31.c ****           sum = (q31_t) ((((q63_t) sum << 32) +
 429:./Libraries/CMSIS/DSP/Source/FilteringFunctions/arm_conv_partial_fast_q31.c ****                           ((q63_t) * px++ * (*py--))) >> 32);
 430:./Libraries/CMSIS/DSP/Source/FilteringFunctions/arm_conv_partial_fast_q31.c ****           sum = (q31_t) ((((q63_t) sum << 32) +
 431:./Libraries/CMSIS/DSP/Source/FilteringFunctions/arm_conv_partial_fast_q31.c ****                           ((q63_t) * px++ * (*py--))) >> 32);
 432:./Libraries/CMSIS/DSP/Source/FilteringFunctions/arm_conv_partial_fast_q31.c ****           sum = (q31_t) ((((q63_t) sum << 32) +
 433:./Libraries/CMSIS/DSP/Source/FilteringFunctions/arm_conv_partial_fast_q31.c ****                           ((q63_t) * px++ * (*py--))) >> 32);
 434:./Libraries/CMSIS/DSP/Source/FilteringFunctions/arm_conv_partial_fast_q31.c **** 
 435:./Libraries/CMSIS/DSP/Source/FilteringFunctions/arm_conv_partial_fast_q31.c ****           /* Decrement loop counter */
 436:./Libraries/CMSIS/DSP/Source/FilteringFunctions/arm_conv_partial_fast_q31.c ****           k--;
 437:./Libraries/CMSIS/DSP/Source/FilteringFunctions/arm_conv_partial_fast_q31.c ****         }
 438:./Libraries/CMSIS/DSP/Source/FilteringFunctions/arm_conv_partial_fast_q31.c **** 
 439:./Libraries/CMSIS/DSP/Source/FilteringFunctions/arm_conv_partial_fast_q31.c ****         /* Loop unrolling: Compute remaining outputs */
 440:./Libraries/CMSIS/DSP/Source/FilteringFunctions/arm_conv_partial_fast_q31.c ****         k = srcBLen % 0x4U;
 441:./Libraries/CMSIS/DSP/Source/FilteringFunctions/arm_conv_partial_fast_q31.c **** 
 442:./Libraries/CMSIS/DSP/Source/FilteringFunctions/arm_conv_partial_fast_q31.c **** #else
 443:./Libraries/CMSIS/DSP/Source/FilteringFunctions/arm_conv_partial_fast_q31.c **** 
 444:./Libraries/CMSIS/DSP/Source/FilteringFunctions/arm_conv_partial_fast_q31.c ****         /* Initialize blkCnt with number of samples */
 445:./Libraries/CMSIS/DSP/Source/FilteringFunctions/arm_conv_partial_fast_q31.c ****         k = srcBLen;
 387              		.loc 1 445 11
 388 020c BB69     		ldr	r3, [r7, #24]
 389 020e FB64     		str	r3, [r7, #76]
 446:./Libraries/CMSIS/DSP/Source/FilteringFunctions/arm_conv_partial_fast_q31.c **** 
 447:./Libraries/CMSIS/DSP/Source/FilteringFunctions/arm_conv_partial_fast_q31.c **** #endif /* #if defined (ARM_MATH_LOOPUNROLL) */
 448:./Libraries/CMSIS/DSP/Source/FilteringFunctions/arm_conv_partial_fast_q31.c **** 
 449:./Libraries/CMSIS/DSP/Source/FilteringFunctions/arm_conv_partial_fast_q31.c ****         while (k > 0U)
 390              		.loc 1 449 15
 391 0210 34E0     		b	.L22
 392              	.L23:
 450:./Libraries/CMSIS/DSP/Source/FilteringFunctions/arm_conv_partial_fast_q31.c ****         {
 451:./Libraries/CMSIS/DSP/Source/FilteringFunctions/arm_conv_partial_fast_q31.c ****           /* Perform the multiply-accumulate */
 452:./Libraries/CMSIS/DSP/Source/FilteringFunctions/arm_conv_partial_fast_q31.c ****           sum = (q31_t) ((((q63_t) sum << 32) +
 393              		.loc 1 452 28
 394 0212 3B6D     		ldr	r3, [r7, #80]
 395 0214 1A46     		mov	r2, r3
 396 0216 4FEAE273 		asr	r3, r2, #31
 397              		.loc 1 452 40
 398 021a 4FF00000 		mov	r0, #0
 399 021e 4FF00001 		mov	r1, #0
 400 0222 1100     		movs	r1, r2
ARM GAS  /tmp/ccl112oz.s 			page 16


 401 0224 0020     		movs	r0, #0
 453:./Libraries/CMSIS/DSP/Source/FilteringFunctions/arm_conv_partial_fast_q31.c ****                           ((q63_t) *px++ * (*py--))) >> 32);
 402              		.loc 1 453 39
 403 0226 3B6E     		ldr	r3, [r7, #96]
 404 0228 1A1D     		adds	r2, r3, #4
 405 022a 3A66     		str	r2, [r7, #96]
 406              		.loc 1 453 36
 407 022c 1B68     		ldr	r3, [r3]
 408              		.loc 1 453 28
 409 022e 1C46     		mov	r4, r3
 410 0230 4FEAE475 		asr	r5, r4, #31
 411              		.loc 1 453 48
 412 0234 FB6D     		ldr	r3, [r7, #92]
 413 0236 1A1F     		subs	r2, r3, #4
 414 0238 FA65     		str	r2, [r7, #92]
 415              		.loc 1 453 45
 416 023a 1B68     		ldr	r3, [r3]
 417 023c 1A46     		mov	r2, r3
 418 023e 4FEAE273 		asr	r3, r2, #31
 419              		.loc 1 453 42
 420 0242 02FB05FC 		mul	ip, r2, r5
 421 0246 04FB03F6 		mul	r6, r4, r3
 422 024a 6644     		add	r6, r6, ip
 423 024c A4FB0223 		umull	r2, r3, r4, r2
 424 0250 F418     		adds	r4, r6, r3
 425 0252 2346     		mov	r3, r4
 452:./Libraries/CMSIS/DSP/Source/FilteringFunctions/arm_conv_partial_fast_q31.c ****                           ((q63_t) *px++ * (*py--))) >> 32);
 426              		.loc 1 452 47
 427 0254 8418     		adds	r4, r0, r2
 428 0256 3C60     		str	r4, [r7]
 429 0258 41EB0303 		adc	r3, r1, r3
 430 025c 7B60     		str	r3, [r7, #4]
 431              		.loc 1 453 54
 432 025e 4FF00002 		mov	r2, #0
 433 0262 4FF00003 		mov	r3, #0
 434 0266 D7E90045 		ldrd	r4, [r7]
 435 026a 2946     		mov	r1, r5
 436 026c 0A00     		movs	r2, r1
 437 026e 2946     		mov	r1, r5
 438 0270 CB17     		asrs	r3, r1, #31
 452:./Libraries/CMSIS/DSP/Source/FilteringFunctions/arm_conv_partial_fast_q31.c ****                           ((q63_t) *px++ * (*py--))) >> 32);
 439              		.loc 1 452 15
 440 0272 1346     		mov	r3, r2
 441 0274 3B65     		str	r3, [r7, #80]
 454:./Libraries/CMSIS/DSP/Source/FilteringFunctions/arm_conv_partial_fast_q31.c **** 
 455:./Libraries/CMSIS/DSP/Source/FilteringFunctions/arm_conv_partial_fast_q31.c ****           /* Decrement loop counter */
 456:./Libraries/CMSIS/DSP/Source/FilteringFunctions/arm_conv_partial_fast_q31.c ****           k--;
 442              		.loc 1 456 12
 443 0276 FB6C     		ldr	r3, [r7, #76]
 444 0278 013B     		subs	r3, r3, #1
 445 027a FB64     		str	r3, [r7, #76]
 446              	.L22:
 449:./Libraries/CMSIS/DSP/Source/FilteringFunctions/arm_conv_partial_fast_q31.c ****         {
 447              		.loc 1 449 15
 448 027c FB6C     		ldr	r3, [r7, #76]
 449 027e 002B     		cmp	r3, #0
 450 0280 C7D1     		bne	.L23
ARM GAS  /tmp/ccl112oz.s 			page 17


 457:./Libraries/CMSIS/DSP/Source/FilteringFunctions/arm_conv_partial_fast_q31.c ****         }
 458:./Libraries/CMSIS/DSP/Source/FilteringFunctions/arm_conv_partial_fast_q31.c **** 
 459:./Libraries/CMSIS/DSP/Source/FilteringFunctions/arm_conv_partial_fast_q31.c ****         /* Store the result in the accumulator in the destination buffer. */
 460:./Libraries/CMSIS/DSP/Source/FilteringFunctions/arm_conv_partial_fast_q31.c ****         *pOut++ = sum << 1;
 451              		.loc 1 460 14
 452 0282 7B6E     		ldr	r3, [r7, #100]
 453 0284 1A1D     		adds	r2, r3, #4
 454 0286 7A66     		str	r2, [r7, #100]
 455              		.loc 1 460 23
 456 0288 3A6D     		ldr	r2, [r7, #80]
 457 028a 5200     		lsls	r2, r2, #1
 458              		.loc 1 460 17
 459 028c 1A60     		str	r2, [r3]
 461:./Libraries/CMSIS/DSP/Source/FilteringFunctions/arm_conv_partial_fast_q31.c **** 
 462:./Libraries/CMSIS/DSP/Source/FilteringFunctions/arm_conv_partial_fast_q31.c ****         /* Increment MAC count */
 463:./Libraries/CMSIS/DSP/Source/FilteringFunctions/arm_conv_partial_fast_q31.c ****         count++;
 460              		.loc 1 463 14
 461 028e BB6C     		ldr	r3, [r7, #72]
 462 0290 0133     		adds	r3, r3, #1
 463 0292 BB64     		str	r3, [r7, #72]
 464:./Libraries/CMSIS/DSP/Source/FilteringFunctions/arm_conv_partial_fast_q31.c **** 
 465:./Libraries/CMSIS/DSP/Source/FilteringFunctions/arm_conv_partial_fast_q31.c ****         /* Update the inputA and inputB pointers for next MAC calculation */
 466:./Libraries/CMSIS/DSP/Source/FilteringFunctions/arm_conv_partial_fast_q31.c ****         px = pSrc1 + count;
 464              		.loc 1 466 20
 465 0294 BB6C     		ldr	r3, [r7, #72]
 466 0296 9B00     		lsls	r3, r3, #2
 467              		.loc 1 466 12
 468 0298 BA6D     		ldr	r2, [r7, #88]
 469 029a 1344     		add	r3, r3, r2
 470 029c 3B66     		str	r3, [r7, #96]
 467:./Libraries/CMSIS/DSP/Source/FilteringFunctions/arm_conv_partial_fast_q31.c ****         py = pSrc2;
 471              		.loc 1 467 12
 472 029e 7B6D     		ldr	r3, [r7, #84]
 473 02a0 FB65     		str	r3, [r7, #92]
 468:./Libraries/CMSIS/DSP/Source/FilteringFunctions/arm_conv_partial_fast_q31.c **** 
 469:./Libraries/CMSIS/DSP/Source/FilteringFunctions/arm_conv_partial_fast_q31.c ****         /* Decrement loop counter */
 470:./Libraries/CMSIS/DSP/Source/FilteringFunctions/arm_conv_partial_fast_q31.c ****         blkCnt--;
 474              		.loc 1 470 15
 475 02a2 7B6C     		ldr	r3, [r7, #68]
 476 02a4 013B     		subs	r3, r3, #1
 477 02a6 7B64     		str	r3, [r7, #68]
 478              	.L21:
 413:./Libraries/CMSIS/DSP/Source/FilteringFunctions/arm_conv_partial_fast_q31.c ****       {
 479              		.loc 1 413 13
 480 02a8 7B6C     		ldr	r3, [r7, #68]
 481 02aa 002B     		cmp	r3, #0
 482 02ac ACD1     		bne	.L24
 483 02ae 51E0     		b	.L25
 484              	.L20:
 471:./Libraries/CMSIS/DSP/Source/FilteringFunctions/arm_conv_partial_fast_q31.c ****       }
 472:./Libraries/CMSIS/DSP/Source/FilteringFunctions/arm_conv_partial_fast_q31.c ****     }
 473:./Libraries/CMSIS/DSP/Source/FilteringFunctions/arm_conv_partial_fast_q31.c ****     else
 474:./Libraries/CMSIS/DSP/Source/FilteringFunctions/arm_conv_partial_fast_q31.c ****     {
 475:./Libraries/CMSIS/DSP/Source/FilteringFunctions/arm_conv_partial_fast_q31.c ****       /* If the srcBLen is not a multiple of 4,
 476:./Libraries/CMSIS/DSP/Source/FilteringFunctions/arm_conv_partial_fast_q31.c ****        * the blockSize2 loop cannot be unrolled by 4 */
 477:./Libraries/CMSIS/DSP/Source/FilteringFunctions/arm_conv_partial_fast_q31.c ****       blkCnt = (uint32_t) blockSize2;
 485              		.loc 1 477 14
ARM GAS  /tmp/ccl112oz.s 			page 18


 486 02b0 FB6A     		ldr	r3, [r7, #44]
 487 02b2 7B64     		str	r3, [r7, #68]
 478:./Libraries/CMSIS/DSP/Source/FilteringFunctions/arm_conv_partial_fast_q31.c **** 
 479:./Libraries/CMSIS/DSP/Source/FilteringFunctions/arm_conv_partial_fast_q31.c ****       while (blkCnt > 0U)
 488              		.loc 1 479 13
 489 02b4 4BE0     		b	.L26
 490              	.L29:
 480:./Libraries/CMSIS/DSP/Source/FilteringFunctions/arm_conv_partial_fast_q31.c ****       {
 481:./Libraries/CMSIS/DSP/Source/FilteringFunctions/arm_conv_partial_fast_q31.c ****         /* Accumulator is made zero for every iteration */
 482:./Libraries/CMSIS/DSP/Source/FilteringFunctions/arm_conv_partial_fast_q31.c ****         sum = 0;
 491              		.loc 1 482 13
 492 02b6 0023     		movs	r3, #0
 493 02b8 3B65     		str	r3, [r7, #80]
 483:./Libraries/CMSIS/DSP/Source/FilteringFunctions/arm_conv_partial_fast_q31.c **** 
 484:./Libraries/CMSIS/DSP/Source/FilteringFunctions/arm_conv_partial_fast_q31.c ****         /* srcBLen number of MACS should be performed */
 485:./Libraries/CMSIS/DSP/Source/FilteringFunctions/arm_conv_partial_fast_q31.c ****         k = srcBLen;
 494              		.loc 1 485 11
 495 02ba BB69     		ldr	r3, [r7, #24]
 496 02bc FB64     		str	r3, [r7, #76]
 486:./Libraries/CMSIS/DSP/Source/FilteringFunctions/arm_conv_partial_fast_q31.c **** 
 487:./Libraries/CMSIS/DSP/Source/FilteringFunctions/arm_conv_partial_fast_q31.c ****         while (k > 0U)
 497              		.loc 1 487 15
 498 02be 30E0     		b	.L27
 499              	.L28:
 488:./Libraries/CMSIS/DSP/Source/FilteringFunctions/arm_conv_partial_fast_q31.c ****         {
 489:./Libraries/CMSIS/DSP/Source/FilteringFunctions/arm_conv_partial_fast_q31.c ****           /* Perform the multiply-accumulate */
 490:./Libraries/CMSIS/DSP/Source/FilteringFunctions/arm_conv_partial_fast_q31.c ****           sum = (q31_t) ((((q63_t) sum << 32) +
 500              		.loc 1 490 28
 501 02c0 3B6D     		ldr	r3, [r7, #80]
 502 02c2 1A46     		mov	r2, r3
 503 02c4 4FEAE273 		asr	r3, r2, #31
 504              		.loc 1 490 40
 505 02c8 4FF00000 		mov	r0, #0
 506 02cc 4FF00001 		mov	r1, #0
 507 02d0 1100     		movs	r1, r2
 508 02d2 0020     		movs	r0, #0
 491:./Libraries/CMSIS/DSP/Source/FilteringFunctions/arm_conv_partial_fast_q31.c ****                           ((q63_t) *px++ * (*py--))) >> 32);
 509              		.loc 1 491 39
 510 02d4 3B6E     		ldr	r3, [r7, #96]
 511 02d6 1A1D     		adds	r2, r3, #4
 512 02d8 3A66     		str	r2, [r7, #96]
 513              		.loc 1 491 36
 514 02da 1B68     		ldr	r3, [r3]
 515              		.loc 1 491 28
 516 02dc 1C46     		mov	r4, r3
 517 02de 4FEAE475 		asr	r5, r4, #31
 518              		.loc 1 491 48
 519 02e2 FB6D     		ldr	r3, [r7, #92]
 520 02e4 1A1F     		subs	r2, r3, #4
 521 02e6 FA65     		str	r2, [r7, #92]
 522              		.loc 1 491 45
 523 02e8 1B68     		ldr	r3, [r3]
 524 02ea 1A46     		mov	r2, r3
 525 02ec 4FEAE273 		asr	r3, r2, #31
 526              		.loc 1 491 42
 527 02f0 02FB05FC 		mul	ip, r2, r5
 528 02f4 04FB03F6 		mul	r6, r4, r3
ARM GAS  /tmp/ccl112oz.s 			page 19


 529 02f8 6644     		add	r6, r6, ip
 530 02fa A4FB0223 		umull	r2, r3, r4, r2
 531 02fe F418     		adds	r4, r6, r3
 532 0300 2346     		mov	r3, r4
 490:./Libraries/CMSIS/DSP/Source/FilteringFunctions/arm_conv_partial_fast_q31.c ****                           ((q63_t) *px++ * (*py--))) >> 32);
 533              		.loc 1 490 47
 534 0302 10EB020A 		adds	r10, r0, r2
 535 0306 41EB030B 		adc	fp, r1, r3
 536              		.loc 1 491 54
 537 030a 4FF00002 		mov	r2, #0
 538 030e 4FF00003 		mov	r3, #0
 539 0312 5A46     		mov	r2, fp
 540 0314 4FEAEB73 		asr	r3, fp, #31
 490:./Libraries/CMSIS/DSP/Source/FilteringFunctions/arm_conv_partial_fast_q31.c ****                           ((q63_t) *px++ * (*py--))) >> 32);
 541              		.loc 1 490 15
 542 0318 1346     		mov	r3, r2
 543 031a 3B65     		str	r3, [r7, #80]
 492:./Libraries/CMSIS/DSP/Source/FilteringFunctions/arm_conv_partial_fast_q31.c **** 
 493:./Libraries/CMSIS/DSP/Source/FilteringFunctions/arm_conv_partial_fast_q31.c ****           /* Decrement loop counter */
 494:./Libraries/CMSIS/DSP/Source/FilteringFunctions/arm_conv_partial_fast_q31.c ****           k--;
 544              		.loc 1 494 12
 545 031c FB6C     		ldr	r3, [r7, #76]
 546 031e 013B     		subs	r3, r3, #1
 547 0320 FB64     		str	r3, [r7, #76]
 548              	.L27:
 487:./Libraries/CMSIS/DSP/Source/FilteringFunctions/arm_conv_partial_fast_q31.c ****         {
 549              		.loc 1 487 15
 550 0322 FB6C     		ldr	r3, [r7, #76]
 551 0324 002B     		cmp	r3, #0
 552 0326 CBD1     		bne	.L28
 495:./Libraries/CMSIS/DSP/Source/FilteringFunctions/arm_conv_partial_fast_q31.c ****         }
 496:./Libraries/CMSIS/DSP/Source/FilteringFunctions/arm_conv_partial_fast_q31.c **** 
 497:./Libraries/CMSIS/DSP/Source/FilteringFunctions/arm_conv_partial_fast_q31.c ****         /* Store the result in the accumulator in the destination buffer. */
 498:./Libraries/CMSIS/DSP/Source/FilteringFunctions/arm_conv_partial_fast_q31.c ****         *pOut++ = sum << 1;
 553              		.loc 1 498 14
 554 0328 7B6E     		ldr	r3, [r7, #100]
 555 032a 1A1D     		adds	r2, r3, #4
 556 032c 7A66     		str	r2, [r7, #100]
 557              		.loc 1 498 23
 558 032e 3A6D     		ldr	r2, [r7, #80]
 559 0330 5200     		lsls	r2, r2, #1
 560              		.loc 1 498 17
 561 0332 1A60     		str	r2, [r3]
 499:./Libraries/CMSIS/DSP/Source/FilteringFunctions/arm_conv_partial_fast_q31.c **** 
 500:./Libraries/CMSIS/DSP/Source/FilteringFunctions/arm_conv_partial_fast_q31.c ****         /* Increment the MAC count */
 501:./Libraries/CMSIS/DSP/Source/FilteringFunctions/arm_conv_partial_fast_q31.c ****         count++;
 562              		.loc 1 501 14
 563 0334 BB6C     		ldr	r3, [r7, #72]
 564 0336 0133     		adds	r3, r3, #1
 565 0338 BB64     		str	r3, [r7, #72]
 502:./Libraries/CMSIS/DSP/Source/FilteringFunctions/arm_conv_partial_fast_q31.c **** 
 503:./Libraries/CMSIS/DSP/Source/FilteringFunctions/arm_conv_partial_fast_q31.c ****         /* Update the inputA and inputB pointers for next MAC calculation */
 504:./Libraries/CMSIS/DSP/Source/FilteringFunctions/arm_conv_partial_fast_q31.c ****         px = pSrc1 + count;
 566              		.loc 1 504 20
 567 033a BB6C     		ldr	r3, [r7, #72]
 568 033c 9B00     		lsls	r3, r3, #2
 569              		.loc 1 504 12
ARM GAS  /tmp/ccl112oz.s 			page 20


 570 033e BA6D     		ldr	r2, [r7, #88]
 571 0340 1344     		add	r3, r3, r2
 572 0342 3B66     		str	r3, [r7, #96]
 505:./Libraries/CMSIS/DSP/Source/FilteringFunctions/arm_conv_partial_fast_q31.c ****         py = pSrc2;
 573              		.loc 1 505 12
 574 0344 7B6D     		ldr	r3, [r7, #84]
 575 0346 FB65     		str	r3, [r7, #92]
 506:./Libraries/CMSIS/DSP/Source/FilteringFunctions/arm_conv_partial_fast_q31.c **** 
 507:./Libraries/CMSIS/DSP/Source/FilteringFunctions/arm_conv_partial_fast_q31.c ****         /* Decrement the loop counter */
 508:./Libraries/CMSIS/DSP/Source/FilteringFunctions/arm_conv_partial_fast_q31.c ****         blkCnt--;
 576              		.loc 1 508 15
 577 0348 7B6C     		ldr	r3, [r7, #68]
 578 034a 013B     		subs	r3, r3, #1
 579 034c 7B64     		str	r3, [r7, #68]
 580              	.L26:
 479:./Libraries/CMSIS/DSP/Source/FilteringFunctions/arm_conv_partial_fast_q31.c ****       {
 581              		.loc 1 479 13
 582 034e 7B6C     		ldr	r3, [r7, #68]
 583 0350 002B     		cmp	r3, #0
 584 0352 B0D1     		bne	.L29
 585              	.L25:
 509:./Libraries/CMSIS/DSP/Source/FilteringFunctions/arm_conv_partial_fast_q31.c ****       }
 510:./Libraries/CMSIS/DSP/Source/FilteringFunctions/arm_conv_partial_fast_q31.c ****     }
 511:./Libraries/CMSIS/DSP/Source/FilteringFunctions/arm_conv_partial_fast_q31.c **** 
 512:./Libraries/CMSIS/DSP/Source/FilteringFunctions/arm_conv_partial_fast_q31.c **** 
 513:./Libraries/CMSIS/DSP/Source/FilteringFunctions/arm_conv_partial_fast_q31.c ****     /* --------------------------
 514:./Libraries/CMSIS/DSP/Source/FilteringFunctions/arm_conv_partial_fast_q31.c ****      * Initializations of stage3
 515:./Libraries/CMSIS/DSP/Source/FilteringFunctions/arm_conv_partial_fast_q31.c ****      * -------------------------*/
 516:./Libraries/CMSIS/DSP/Source/FilteringFunctions/arm_conv_partial_fast_q31.c **** 
 517:./Libraries/CMSIS/DSP/Source/FilteringFunctions/arm_conv_partial_fast_q31.c ****     /* sum += x[srcALen-srcBLen+1] * y[srcBLen-1] + x[srcALen-srcBLen+2] * y[srcBLen-2] +...+ x[src
 518:./Libraries/CMSIS/DSP/Source/FilteringFunctions/arm_conv_partial_fast_q31.c ****      * sum += x[srcALen-srcBLen+2] * y[srcBLen-1] + x[srcALen-srcBLen+3] * y[srcBLen-2] +...+ x[src
 519:./Libraries/CMSIS/DSP/Source/FilteringFunctions/arm_conv_partial_fast_q31.c ****      * ....
 520:./Libraries/CMSIS/DSP/Source/FilteringFunctions/arm_conv_partial_fast_q31.c ****      * sum +=  x[srcALen-2] * y[srcBLen-1] + x[srcALen-1] * y[srcBLen-2]
 521:./Libraries/CMSIS/DSP/Source/FilteringFunctions/arm_conv_partial_fast_q31.c ****      * sum +=  x[srcALen-1] * y[srcBLen-1]
 522:./Libraries/CMSIS/DSP/Source/FilteringFunctions/arm_conv_partial_fast_q31.c ****      */
 523:./Libraries/CMSIS/DSP/Source/FilteringFunctions/arm_conv_partial_fast_q31.c **** 
 524:./Libraries/CMSIS/DSP/Source/FilteringFunctions/arm_conv_partial_fast_q31.c ****     /* In this stage the MAC operations are decreased by 1 for every iteration.
 525:./Libraries/CMSIS/DSP/Source/FilteringFunctions/arm_conv_partial_fast_q31.c ****        The count variable holds the number of MAC operations performed */
 526:./Libraries/CMSIS/DSP/Source/FilteringFunctions/arm_conv_partial_fast_q31.c ****     count = srcBLen - 1U;
 586              		.loc 1 526 11
 587 0354 BB69     		ldr	r3, [r7, #24]
 588 0356 013B     		subs	r3, r3, #1
 589 0358 BB64     		str	r3, [r7, #72]
 527:./Libraries/CMSIS/DSP/Source/FilteringFunctions/arm_conv_partial_fast_q31.c **** 
 528:./Libraries/CMSIS/DSP/Source/FilteringFunctions/arm_conv_partial_fast_q31.c ****     /* Working pointer of inputA */
 529:./Libraries/CMSIS/DSP/Source/FilteringFunctions/arm_conv_partial_fast_q31.c ****     pSrc1 = (pIn1 + srcALen) - (srcBLen - 1U);
 590              		.loc 1 529 30
 591 035a 3A6A     		ldr	r2, [r7, #32]
 592 035c BB69     		ldr	r3, [r7, #24]
 593 035e D31A     		subs	r3, r2, r3
 594 0360 0133     		adds	r3, r3, #1
 595 0362 9B00     		lsls	r3, r3, #2
 596              		.loc 1 529 11
 597 0364 FA6E     		ldr	r2, [r7, #108]
 598 0366 1344     		add	r3, r3, r2
 599 0368 BB65     		str	r3, [r7, #88]
 530:./Libraries/CMSIS/DSP/Source/FilteringFunctions/arm_conv_partial_fast_q31.c ****     px = pSrc1;
ARM GAS  /tmp/ccl112oz.s 			page 21


 600              		.loc 1 530 8
 601 036a BB6D     		ldr	r3, [r7, #88]
 602 036c 3B66     		str	r3, [r7, #96]
 531:./Libraries/CMSIS/DSP/Source/FilteringFunctions/arm_conv_partial_fast_q31.c **** 
 532:./Libraries/CMSIS/DSP/Source/FilteringFunctions/arm_conv_partial_fast_q31.c ****     /* Working pointer of inputB */
 533:./Libraries/CMSIS/DSP/Source/FilteringFunctions/arm_conv_partial_fast_q31.c ****     pSrc2 = pIn2 + (srcBLen - 1U);
 603              		.loc 1 533 18
 604 036e BA69     		ldr	r2, [r7, #24]
 605 0370 6FF04043 		mvn	r3, #-1073741824
 606 0374 1344     		add	r3, r3, r2
 607 0376 9B00     		lsls	r3, r3, #2
 608              		.loc 1 533 11
 609 0378 BA6E     		ldr	r2, [r7, #104]
 610 037a 1344     		add	r3, r3, r2
 611 037c 7B65     		str	r3, [r7, #84]
 534:./Libraries/CMSIS/DSP/Source/FilteringFunctions/arm_conv_partial_fast_q31.c ****     py = pSrc2;
 612              		.loc 1 534 8
 613 037e 7B6D     		ldr	r3, [r7, #84]
 614 0380 FB65     		str	r3, [r7, #92]
 535:./Libraries/CMSIS/DSP/Source/FilteringFunctions/arm_conv_partial_fast_q31.c **** 
 536:./Libraries/CMSIS/DSP/Source/FilteringFunctions/arm_conv_partial_fast_q31.c ****     /* -------------------
 537:./Libraries/CMSIS/DSP/Source/FilteringFunctions/arm_conv_partial_fast_q31.c ****      * Stage3 process
 538:./Libraries/CMSIS/DSP/Source/FilteringFunctions/arm_conv_partial_fast_q31.c ****      * ------------------*/
 539:./Libraries/CMSIS/DSP/Source/FilteringFunctions/arm_conv_partial_fast_q31.c **** 
 540:./Libraries/CMSIS/DSP/Source/FilteringFunctions/arm_conv_partial_fast_q31.c ****     while (blockSize3 > 0U)
 615              		.loc 1 540 11
 616 0382 4BE0     		b	.L30
 617              	.L33:
 541:./Libraries/CMSIS/DSP/Source/FilteringFunctions/arm_conv_partial_fast_q31.c ****     {
 542:./Libraries/CMSIS/DSP/Source/FilteringFunctions/arm_conv_partial_fast_q31.c ****       /* Accumulator is made zero for every iteration */
 543:./Libraries/CMSIS/DSP/Source/FilteringFunctions/arm_conv_partial_fast_q31.c ****       sum = 0;
 618              		.loc 1 543 11
 619 0384 0023     		movs	r3, #0
 620 0386 3B65     		str	r3, [r7, #80]
 544:./Libraries/CMSIS/DSP/Source/FilteringFunctions/arm_conv_partial_fast_q31.c **** 
 545:./Libraries/CMSIS/DSP/Source/FilteringFunctions/arm_conv_partial_fast_q31.c **** #if defined (ARM_MATH_LOOPUNROLL)
 546:./Libraries/CMSIS/DSP/Source/FilteringFunctions/arm_conv_partial_fast_q31.c **** 
 547:./Libraries/CMSIS/DSP/Source/FilteringFunctions/arm_conv_partial_fast_q31.c ****       /* Loop unrolling: Compute 4 outputs at a time */
 548:./Libraries/CMSIS/DSP/Source/FilteringFunctions/arm_conv_partial_fast_q31.c ****       k = count >> 2U;
 549:./Libraries/CMSIS/DSP/Source/FilteringFunctions/arm_conv_partial_fast_q31.c **** 
 550:./Libraries/CMSIS/DSP/Source/FilteringFunctions/arm_conv_partial_fast_q31.c ****       while (k > 0U)
 551:./Libraries/CMSIS/DSP/Source/FilteringFunctions/arm_conv_partial_fast_q31.c ****       {
 552:./Libraries/CMSIS/DSP/Source/FilteringFunctions/arm_conv_partial_fast_q31.c ****         /* sum += x[srcALen - srcBLen + 1] * y[srcBLen - 1] */
 553:./Libraries/CMSIS/DSP/Source/FilteringFunctions/arm_conv_partial_fast_q31.c ****         sum = (q31_t) ((((q63_t) sum << 32) +
 554:./Libraries/CMSIS/DSP/Source/FilteringFunctions/arm_conv_partial_fast_q31.c ****                         ((q63_t) *px++ * (*py--))) >> 32);
 555:./Libraries/CMSIS/DSP/Source/FilteringFunctions/arm_conv_partial_fast_q31.c **** 
 556:./Libraries/CMSIS/DSP/Source/FilteringFunctions/arm_conv_partial_fast_q31.c ****         /* sum += x[srcALen - srcBLen + 2] * y[srcBLen - 2] */
 557:./Libraries/CMSIS/DSP/Source/FilteringFunctions/arm_conv_partial_fast_q31.c ****         sum = (q31_t) ((((q63_t) sum << 32) +
 558:./Libraries/CMSIS/DSP/Source/FilteringFunctions/arm_conv_partial_fast_q31.c ****                         ((q63_t) *px++ * (*py--))) >> 32);
 559:./Libraries/CMSIS/DSP/Source/FilteringFunctions/arm_conv_partial_fast_q31.c **** 
 560:./Libraries/CMSIS/DSP/Source/FilteringFunctions/arm_conv_partial_fast_q31.c ****         /* sum += x[srcALen - srcBLen + 3] * y[srcBLen - 3] */
 561:./Libraries/CMSIS/DSP/Source/FilteringFunctions/arm_conv_partial_fast_q31.c ****         sum = (q31_t) ((((q63_t) sum << 32) +
 562:./Libraries/CMSIS/DSP/Source/FilteringFunctions/arm_conv_partial_fast_q31.c ****                         ((q63_t) *px++ * (*py--))) >> 32);
 563:./Libraries/CMSIS/DSP/Source/FilteringFunctions/arm_conv_partial_fast_q31.c **** 
 564:./Libraries/CMSIS/DSP/Source/FilteringFunctions/arm_conv_partial_fast_q31.c ****         /* sum += x[srcALen - srcBLen + 4] * y[srcBLen - 4] */
 565:./Libraries/CMSIS/DSP/Source/FilteringFunctions/arm_conv_partial_fast_q31.c ****         sum = (q31_t) ((((q63_t) sum << 32) +
 566:./Libraries/CMSIS/DSP/Source/FilteringFunctions/arm_conv_partial_fast_q31.c ****                         ((q63_t) *px++ * (*py--))) >> 32);
ARM GAS  /tmp/ccl112oz.s 			page 22


 567:./Libraries/CMSIS/DSP/Source/FilteringFunctions/arm_conv_partial_fast_q31.c **** 
 568:./Libraries/CMSIS/DSP/Source/FilteringFunctions/arm_conv_partial_fast_q31.c ****         /* Decrement loop counter */
 569:./Libraries/CMSIS/DSP/Source/FilteringFunctions/arm_conv_partial_fast_q31.c ****         k--;
 570:./Libraries/CMSIS/DSP/Source/FilteringFunctions/arm_conv_partial_fast_q31.c ****       }
 571:./Libraries/CMSIS/DSP/Source/FilteringFunctions/arm_conv_partial_fast_q31.c **** 
 572:./Libraries/CMSIS/DSP/Source/FilteringFunctions/arm_conv_partial_fast_q31.c ****       /* Loop unrolling: Compute remaining outputs */
 573:./Libraries/CMSIS/DSP/Source/FilteringFunctions/arm_conv_partial_fast_q31.c ****       k = count % 0x4U;
 574:./Libraries/CMSIS/DSP/Source/FilteringFunctions/arm_conv_partial_fast_q31.c **** 
 575:./Libraries/CMSIS/DSP/Source/FilteringFunctions/arm_conv_partial_fast_q31.c **** #else
 576:./Libraries/CMSIS/DSP/Source/FilteringFunctions/arm_conv_partial_fast_q31.c **** 
 577:./Libraries/CMSIS/DSP/Source/FilteringFunctions/arm_conv_partial_fast_q31.c ****       /* Initialize blkCnt with number of samples */
 578:./Libraries/CMSIS/DSP/Source/FilteringFunctions/arm_conv_partial_fast_q31.c ****       k = count;
 621              		.loc 1 578 9
 622 0388 BB6C     		ldr	r3, [r7, #72]
 623 038a FB64     		str	r3, [r7, #76]
 579:./Libraries/CMSIS/DSP/Source/FilteringFunctions/arm_conv_partial_fast_q31.c **** 
 580:./Libraries/CMSIS/DSP/Source/FilteringFunctions/arm_conv_partial_fast_q31.c **** #endif /* #if defined (ARM_MATH_LOOPUNROLL) */
 581:./Libraries/CMSIS/DSP/Source/FilteringFunctions/arm_conv_partial_fast_q31.c **** 
 582:./Libraries/CMSIS/DSP/Source/FilteringFunctions/arm_conv_partial_fast_q31.c ****       while (k > 0U)
 624              		.loc 1 582 13
 625 038c 30E0     		b	.L31
 626              	.L32:
 583:./Libraries/CMSIS/DSP/Source/FilteringFunctions/arm_conv_partial_fast_q31.c ****       {
 584:./Libraries/CMSIS/DSP/Source/FilteringFunctions/arm_conv_partial_fast_q31.c ****         /* Perform the multiply-accumulates */
 585:./Libraries/CMSIS/DSP/Source/FilteringFunctions/arm_conv_partial_fast_q31.c ****         /* sum +=  x[srcALen-1] * y[srcBLen-1] */
 586:./Libraries/CMSIS/DSP/Source/FilteringFunctions/arm_conv_partial_fast_q31.c ****         sum = (q31_t) ((((q63_t) sum << 32) +
 627              		.loc 1 586 26
 628 038e 3B6D     		ldr	r3, [r7, #80]
 629 0390 1A46     		mov	r2, r3
 630 0392 4FEAE273 		asr	r3, r2, #31
 631              		.loc 1 586 38
 632 0396 4FF00000 		mov	r0, #0
 633 039a 4FF00001 		mov	r1, #0
 634 039e 1100     		movs	r1, r2
 635 03a0 0020     		movs	r0, #0
 587:./Libraries/CMSIS/DSP/Source/FilteringFunctions/arm_conv_partial_fast_q31.c ****                         ((q63_t) *px++ * (*py--))) >> 32);
 636              		.loc 1 587 37
 637 03a2 3B6E     		ldr	r3, [r7, #96]
 638 03a4 1A1D     		adds	r2, r3, #4
 639 03a6 3A66     		str	r2, [r7, #96]
 640              		.loc 1 587 34
 641 03a8 1B68     		ldr	r3, [r3]
 642              		.loc 1 587 26
 643 03aa 1C46     		mov	r4, r3
 644 03ac 4FEAE475 		asr	r5, r4, #31
 645              		.loc 1 587 46
 646 03b0 FB6D     		ldr	r3, [r7, #92]
 647 03b2 1A1F     		subs	r2, r3, #4
 648 03b4 FA65     		str	r2, [r7, #92]
 649              		.loc 1 587 43
 650 03b6 1B68     		ldr	r3, [r3]
 651 03b8 1A46     		mov	r2, r3
 652 03ba 4FEAE273 		asr	r3, r2, #31
 653              		.loc 1 587 40
 654 03be 02FB05FC 		mul	ip, r2, r5
 655 03c2 04FB03F6 		mul	r6, r4, r3
 656 03c6 6644     		add	r6, r6, ip
ARM GAS  /tmp/ccl112oz.s 			page 23


 657 03c8 A4FB0223 		umull	r2, r3, r4, r2
 658 03cc F418     		adds	r4, r6, r3
 659 03ce 2346     		mov	r3, r4
 586:./Libraries/CMSIS/DSP/Source/FilteringFunctions/arm_conv_partial_fast_q31.c ****                         ((q63_t) *px++ * (*py--))) >> 32);
 660              		.loc 1 586 45
 661 03d0 10EB0208 		adds	r8, r0, r2
 662 03d4 41EB0309 		adc	r9, r1, r3
 663              		.loc 1 587 52
 664 03d8 4FF00002 		mov	r2, #0
 665 03dc 4FF00003 		mov	r3, #0
 666 03e0 4A46     		mov	r2, r9
 667 03e2 4FEAE973 		asr	r3, r9, #31
 586:./Libraries/CMSIS/DSP/Source/FilteringFunctions/arm_conv_partial_fast_q31.c ****                         ((q63_t) *px++ * (*py--))) >> 32);
 668              		.loc 1 586 13
 669 03e6 1346     		mov	r3, r2
 670 03e8 3B65     		str	r3, [r7, #80]
 588:./Libraries/CMSIS/DSP/Source/FilteringFunctions/arm_conv_partial_fast_q31.c **** 
 589:./Libraries/CMSIS/DSP/Source/FilteringFunctions/arm_conv_partial_fast_q31.c ****         /* Decrement loop counter */
 590:./Libraries/CMSIS/DSP/Source/FilteringFunctions/arm_conv_partial_fast_q31.c ****         k--;
 671              		.loc 1 590 10
 672 03ea FB6C     		ldr	r3, [r7, #76]
 673 03ec 013B     		subs	r3, r3, #1
 674 03ee FB64     		str	r3, [r7, #76]
 675              	.L31:
 582:./Libraries/CMSIS/DSP/Source/FilteringFunctions/arm_conv_partial_fast_q31.c ****       {
 676              		.loc 1 582 13
 677 03f0 FB6C     		ldr	r3, [r7, #76]
 678 03f2 002B     		cmp	r3, #0
 679 03f4 CBD1     		bne	.L32
 591:./Libraries/CMSIS/DSP/Source/FilteringFunctions/arm_conv_partial_fast_q31.c ****       }
 592:./Libraries/CMSIS/DSP/Source/FilteringFunctions/arm_conv_partial_fast_q31.c **** 
 593:./Libraries/CMSIS/DSP/Source/FilteringFunctions/arm_conv_partial_fast_q31.c ****       /* Store the result in the accumulator in the destination buffer. */
 594:./Libraries/CMSIS/DSP/Source/FilteringFunctions/arm_conv_partial_fast_q31.c ****       *pOut++ = sum << 1;
 680              		.loc 1 594 12
 681 03f6 7B6E     		ldr	r3, [r7, #100]
 682 03f8 1A1D     		adds	r2, r3, #4
 683 03fa 7A66     		str	r2, [r7, #100]
 684              		.loc 1 594 21
 685 03fc 3A6D     		ldr	r2, [r7, #80]
 686 03fe 5200     		lsls	r2, r2, #1
 687              		.loc 1 594 15
 688 0400 1A60     		str	r2, [r3]
 595:./Libraries/CMSIS/DSP/Source/FilteringFunctions/arm_conv_partial_fast_q31.c **** 
 596:./Libraries/CMSIS/DSP/Source/FilteringFunctions/arm_conv_partial_fast_q31.c ****       /* Update the inputA and inputB pointers for next MAC calculation */
 597:./Libraries/CMSIS/DSP/Source/FilteringFunctions/arm_conv_partial_fast_q31.c ****       px = ++pSrc1;
 689              		.loc 1 597 10
 690 0402 BB6D     		ldr	r3, [r7, #88]
 691 0404 0433     		adds	r3, r3, #4
 692 0406 BB65     		str	r3, [r7, #88]
 693 0408 BB6D     		ldr	r3, [r7, #88]
 694 040a 3B66     		str	r3, [r7, #96]
 598:./Libraries/CMSIS/DSP/Source/FilteringFunctions/arm_conv_partial_fast_q31.c ****       py = pSrc2;
 695              		.loc 1 598 10
 696 040c 7B6D     		ldr	r3, [r7, #84]
 697 040e FB65     		str	r3, [r7, #92]
 599:./Libraries/CMSIS/DSP/Source/FilteringFunctions/arm_conv_partial_fast_q31.c **** 
 600:./Libraries/CMSIS/DSP/Source/FilteringFunctions/arm_conv_partial_fast_q31.c ****       /* Decrement MAC count */
ARM GAS  /tmp/ccl112oz.s 			page 24


 601:./Libraries/CMSIS/DSP/Source/FilteringFunctions/arm_conv_partial_fast_q31.c ****       count--;
 698              		.loc 1 601 12
 699 0410 BB6C     		ldr	r3, [r7, #72]
 700 0412 013B     		subs	r3, r3, #1
 701 0414 BB64     		str	r3, [r7, #72]
 602:./Libraries/CMSIS/DSP/Source/FilteringFunctions/arm_conv_partial_fast_q31.c **** 
 603:./Libraries/CMSIS/DSP/Source/FilteringFunctions/arm_conv_partial_fast_q31.c ****       /* Decrement the loop counter */
 604:./Libraries/CMSIS/DSP/Source/FilteringFunctions/arm_conv_partial_fast_q31.c ****       blockSize3--;
 702              		.loc 1 604 17
 703 0416 FB6B     		ldr	r3, [r7, #60]
 704 0418 013B     		subs	r3, r3, #1
 705 041a FB63     		str	r3, [r7, #60]
 706              	.L30:
 540:./Libraries/CMSIS/DSP/Source/FilteringFunctions/arm_conv_partial_fast_q31.c ****     {
 707              		.loc 1 540 11
 708 041c FB6B     		ldr	r3, [r7, #60]
 709 041e 002B     		cmp	r3, #0
 710 0420 B0D1     		bne	.L33
 605:./Libraries/CMSIS/DSP/Source/FilteringFunctions/arm_conv_partial_fast_q31.c ****     }
 606:./Libraries/CMSIS/DSP/Source/FilteringFunctions/arm_conv_partial_fast_q31.c **** 
 607:./Libraries/CMSIS/DSP/Source/FilteringFunctions/arm_conv_partial_fast_q31.c ****     /* Set status as ARM_MATH_SUCCESS */
 608:./Libraries/CMSIS/DSP/Source/FilteringFunctions/arm_conv_partial_fast_q31.c ****     status = ARM_MATH_SUCCESS;
 711              		.loc 1 608 12
 712 0422 0023     		movs	r3, #0
 713 0424 87F83B30 		strb	r3, [r7, #59]
 714              	.L3:
 609:./Libraries/CMSIS/DSP/Source/FilteringFunctions/arm_conv_partial_fast_q31.c ****   }
 610:./Libraries/CMSIS/DSP/Source/FilteringFunctions/arm_conv_partial_fast_q31.c **** 
 611:./Libraries/CMSIS/DSP/Source/FilteringFunctions/arm_conv_partial_fast_q31.c ****   /* Return to application */
 612:./Libraries/CMSIS/DSP/Source/FilteringFunctions/arm_conv_partial_fast_q31.c ****   return (status);
 715              		.loc 1 612 10
 716 0428 97F93B30 		ldrsb	r3, [r7, #59]
 613:./Libraries/CMSIS/DSP/Source/FilteringFunctions/arm_conv_partial_fast_q31.c **** 
 614:./Libraries/CMSIS/DSP/Source/FilteringFunctions/arm_conv_partial_fast_q31.c **** }
 717              		.loc 1 614 1
 718 042c 1846     		mov	r0, r3
 719 042e 7037     		adds	r7, r7, #112
 720              	.LCFI3:
 721              		.cfi_def_cfa_offset 32
 722 0430 BD46     		mov	sp, r7
 723              	.LCFI4:
 724              		.cfi_def_cfa_register 13
 725              		@ sp needed
 726 0432 BDE8F00F 		pop	{r4, r5, r6, r7, r8, r9, r10, fp}
 727              	.LCFI5:
 728              		.cfi_restore 11
 729              		.cfi_restore 10
 730              		.cfi_restore 9
 731              		.cfi_restore 8
 732              		.cfi_restore 7
 733              		.cfi_restore 6
 734              		.cfi_restore 5
 735              		.cfi_restore 4
 736              		.cfi_def_cfa_offset 0
 737 0436 7047     		bx	lr
 738              		.cfi_endproc
 739              	.LFE145:
ARM GAS  /tmp/ccl112oz.s 			page 25


 741              		.text
 742              	.Letext0:
 743              		.file 2 "/usr/lib/gcc/arm-none-eabi/9.2.1/include/stdint.h"
 744              		.file 3 "/usr/lib/gcc/arm-none-eabi/9.2.1/include/stddef.h"
 745              		.file 4 "/usr/include/newlib/sys/_types.h"
 746              		.file 5 "/usr/include/newlib/sys/reent.h"
 747              		.file 6 "/usr/include/newlib/sys/lock.h"
 748              		.file 7 "/usr/include/newlib/math.h"
 749              		.file 8 "./Libraries/CMSIS/DSP/Include/arm_math.h"
ARM GAS  /tmp/ccl112oz.s 			page 26

