ARM GAS  /tmp/cc67zKnF.s 			page 1


   1              		.cpu cortex-m7
   2              		.eabi_attribute 28, 1
   3              		.eabi_attribute 20, 1
   4              		.eabi_attribute 21, 1
   5              		.eabi_attribute 23, 3
   6              		.eabi_attribute 24, 1
   7              		.eabi_attribute 25, 1
   8              		.eabi_attribute 26, 1
   9              		.eabi_attribute 30, 6
  10              		.eabi_attribute 34, 1
  11              		.eabi_attribute 18, 4
  12              		.file	"arm_mat_scale_q31.c"
  13              		.text
  14              	.Ltext0:
  15              		.cfi_sections	.debug_frame
  16              		.section	.text.arm_mat_scale_q31,"ax",%progbits
  17              		.align	1
  18              		.global	arm_mat_scale_q31
  19              		.arch armv7e-m
  20              		.syntax unified
  21              		.thumb
  22              		.thumb_func
  23              		.fpu fpv5-d16
  25              	arm_mat_scale_q31:
  26              	.LFB145:
  27              		.file 1 "./Libraries/CMSIS/DSP/Source/MatrixFunctions/arm_mat_scale_q31.c"
   1:./Libraries/CMSIS/DSP/Source/MatrixFunctions/arm_mat_scale_q31.c **** /* ----------------------------------------------------------------------
   2:./Libraries/CMSIS/DSP/Source/MatrixFunctions/arm_mat_scale_q31.c ****  * Project:      CMSIS DSP Library
   3:./Libraries/CMSIS/DSP/Source/MatrixFunctions/arm_mat_scale_q31.c ****  * Title:        arm_mat_scale_q31.c
   4:./Libraries/CMSIS/DSP/Source/MatrixFunctions/arm_mat_scale_q31.c ****  * Description:  Multiplies a Q31 matrix by a scalar
   5:./Libraries/CMSIS/DSP/Source/MatrixFunctions/arm_mat_scale_q31.c ****  *
   6:./Libraries/CMSIS/DSP/Source/MatrixFunctions/arm_mat_scale_q31.c ****  * $Date:        18. March 2019
   7:./Libraries/CMSIS/DSP/Source/MatrixFunctions/arm_mat_scale_q31.c ****  * $Revision:    V1.6.0
   8:./Libraries/CMSIS/DSP/Source/MatrixFunctions/arm_mat_scale_q31.c ****  *
   9:./Libraries/CMSIS/DSP/Source/MatrixFunctions/arm_mat_scale_q31.c ****  * Target Processor: Cortex-M cores
  10:./Libraries/CMSIS/DSP/Source/MatrixFunctions/arm_mat_scale_q31.c ****  * -------------------------------------------------------------------- */
  11:./Libraries/CMSIS/DSP/Source/MatrixFunctions/arm_mat_scale_q31.c **** /*
  12:./Libraries/CMSIS/DSP/Source/MatrixFunctions/arm_mat_scale_q31.c ****  * Copyright (C) 2010-2019 ARM Limited or its affiliates. All rights reserved.
  13:./Libraries/CMSIS/DSP/Source/MatrixFunctions/arm_mat_scale_q31.c ****  *
  14:./Libraries/CMSIS/DSP/Source/MatrixFunctions/arm_mat_scale_q31.c ****  * SPDX-License-Identifier: Apache-2.0
  15:./Libraries/CMSIS/DSP/Source/MatrixFunctions/arm_mat_scale_q31.c ****  *
  16:./Libraries/CMSIS/DSP/Source/MatrixFunctions/arm_mat_scale_q31.c ****  * Licensed under the Apache License, Version 2.0 (the License); you may
  17:./Libraries/CMSIS/DSP/Source/MatrixFunctions/arm_mat_scale_q31.c ****  * not use this file except in compliance with the License.
  18:./Libraries/CMSIS/DSP/Source/MatrixFunctions/arm_mat_scale_q31.c ****  * You may obtain a copy of the License at
  19:./Libraries/CMSIS/DSP/Source/MatrixFunctions/arm_mat_scale_q31.c ****  *
  20:./Libraries/CMSIS/DSP/Source/MatrixFunctions/arm_mat_scale_q31.c ****  * www.apache.org/licenses/LICENSE-2.0
  21:./Libraries/CMSIS/DSP/Source/MatrixFunctions/arm_mat_scale_q31.c ****  *
  22:./Libraries/CMSIS/DSP/Source/MatrixFunctions/arm_mat_scale_q31.c ****  * Unless required by applicable law or agreed to in writing, software
  23:./Libraries/CMSIS/DSP/Source/MatrixFunctions/arm_mat_scale_q31.c ****  * distributed under the License is distributed on an AS IS BASIS, WITHOUT
  24:./Libraries/CMSIS/DSP/Source/MatrixFunctions/arm_mat_scale_q31.c ****  * WARRANTIES OR CONDITIONS OF ANY KIND, either express or implied.
  25:./Libraries/CMSIS/DSP/Source/MatrixFunctions/arm_mat_scale_q31.c ****  * See the License for the specific language governing permissions and
  26:./Libraries/CMSIS/DSP/Source/MatrixFunctions/arm_mat_scale_q31.c ****  * limitations under the License.
  27:./Libraries/CMSIS/DSP/Source/MatrixFunctions/arm_mat_scale_q31.c ****  */
  28:./Libraries/CMSIS/DSP/Source/MatrixFunctions/arm_mat_scale_q31.c **** 
  29:./Libraries/CMSIS/DSP/Source/MatrixFunctions/arm_mat_scale_q31.c **** #include "arm_math.h"
  30:./Libraries/CMSIS/DSP/Source/MatrixFunctions/arm_mat_scale_q31.c **** 
  31:./Libraries/CMSIS/DSP/Source/MatrixFunctions/arm_mat_scale_q31.c **** /**
ARM GAS  /tmp/cc67zKnF.s 			page 2


  32:./Libraries/CMSIS/DSP/Source/MatrixFunctions/arm_mat_scale_q31.c ****   @ingroup groupMatrix
  33:./Libraries/CMSIS/DSP/Source/MatrixFunctions/arm_mat_scale_q31.c ****  */
  34:./Libraries/CMSIS/DSP/Source/MatrixFunctions/arm_mat_scale_q31.c **** 
  35:./Libraries/CMSIS/DSP/Source/MatrixFunctions/arm_mat_scale_q31.c **** /**
  36:./Libraries/CMSIS/DSP/Source/MatrixFunctions/arm_mat_scale_q31.c ****   @addtogroup MatrixScale
  37:./Libraries/CMSIS/DSP/Source/MatrixFunctions/arm_mat_scale_q31.c ****   @{
  38:./Libraries/CMSIS/DSP/Source/MatrixFunctions/arm_mat_scale_q31.c ****  */
  39:./Libraries/CMSIS/DSP/Source/MatrixFunctions/arm_mat_scale_q31.c **** 
  40:./Libraries/CMSIS/DSP/Source/MatrixFunctions/arm_mat_scale_q31.c **** /**
  41:./Libraries/CMSIS/DSP/Source/MatrixFunctions/arm_mat_scale_q31.c ****   @brief         Q31 matrix scaling.
  42:./Libraries/CMSIS/DSP/Source/MatrixFunctions/arm_mat_scale_q31.c ****   @param[in]     pSrc        points to input matrix
  43:./Libraries/CMSIS/DSP/Source/MatrixFunctions/arm_mat_scale_q31.c ****   @param[in]     scaleFract  fractional portion of the scale factor
  44:./Libraries/CMSIS/DSP/Source/MatrixFunctions/arm_mat_scale_q31.c ****   @param[in]     shift       number of bits to shift the result by
  45:./Libraries/CMSIS/DSP/Source/MatrixFunctions/arm_mat_scale_q31.c ****   @param[out]    pDst        points to output matrix structure
  46:./Libraries/CMSIS/DSP/Source/MatrixFunctions/arm_mat_scale_q31.c ****   @return        execution status
  47:./Libraries/CMSIS/DSP/Source/MatrixFunctions/arm_mat_scale_q31.c ****                    - \ref ARM_MATH_SUCCESS       : Operation successful
  48:./Libraries/CMSIS/DSP/Source/MatrixFunctions/arm_mat_scale_q31.c ****                    - \ref ARM_MATH_SIZE_MISMATCH : Matrix size check failed
  49:./Libraries/CMSIS/DSP/Source/MatrixFunctions/arm_mat_scale_q31.c **** 
  50:./Libraries/CMSIS/DSP/Source/MatrixFunctions/arm_mat_scale_q31.c ****   @par           Scaling and Overflow Behavior
  51:./Libraries/CMSIS/DSP/Source/MatrixFunctions/arm_mat_scale_q31.c ****                    The input data <code>*pSrc</code> and <code>scaleFract</code> are in 1.31 format
  52:./Libraries/CMSIS/DSP/Source/MatrixFunctions/arm_mat_scale_q31.c ****                    These are multiplied to yield a 2.62 intermediate result which is shifted with s
  53:./Libraries/CMSIS/DSP/Source/MatrixFunctions/arm_mat_scale_q31.c ****  */
  54:./Libraries/CMSIS/DSP/Source/MatrixFunctions/arm_mat_scale_q31.c **** 
  55:./Libraries/CMSIS/DSP/Source/MatrixFunctions/arm_mat_scale_q31.c **** arm_status arm_mat_scale_q31(
  56:./Libraries/CMSIS/DSP/Source/MatrixFunctions/arm_mat_scale_q31.c ****   const arm_matrix_instance_q31 * pSrc,
  57:./Libraries/CMSIS/DSP/Source/MatrixFunctions/arm_mat_scale_q31.c ****         q31_t                     scaleFract,
  58:./Libraries/CMSIS/DSP/Source/MatrixFunctions/arm_mat_scale_q31.c ****         int32_t                   shift,
  59:./Libraries/CMSIS/DSP/Source/MatrixFunctions/arm_mat_scale_q31.c ****         arm_matrix_instance_q31 * pDst)
  60:./Libraries/CMSIS/DSP/Source/MatrixFunctions/arm_mat_scale_q31.c **** {
  28              		.loc 1 60 1
  29              		.cfi_startproc
  30              		@ args = 0, pretend = 0, frame = 48
  31              		@ frame_needed = 1, uses_anonymous_args = 0
  32              		@ link register save eliminated.
  33 0000 B0B4     		push	{r4, r5, r7}
  34              	.LCFI0:
  35              		.cfi_def_cfa_offset 12
  36              		.cfi_offset 4, -12
  37              		.cfi_offset 5, -8
  38              		.cfi_offset 7, -4
  39 0002 8DB0     		sub	sp, sp, #52
  40              	.LCFI1:
  41              		.cfi_def_cfa_offset 64
  42 0004 00AF     		add	r7, sp, #0
  43              	.LCFI2:
  44              		.cfi_def_cfa_register 7
  45 0006 F860     		str	r0, [r7, #12]
  46 0008 B960     		str	r1, [r7, #8]
  47 000a 7A60     		str	r2, [r7, #4]
  48 000c 3B60     		str	r3, [r7]
  61:./Libraries/CMSIS/DSP/Source/MatrixFunctions/arm_mat_scale_q31.c ****   q31_t *pIn = pSrc->pData;                      /* Input data matrix pointer */
  49              		.loc 1 61 10
  50 000e FB68     		ldr	r3, [r7, #12]
  51 0010 5B68     		ldr	r3, [r3, #4]
  52 0012 FB62     		str	r3, [r7, #44]
  62:./Libraries/CMSIS/DSP/Source/MatrixFunctions/arm_mat_scale_q31.c ****   q31_t *pOut = pDst->pData;                     /* Output data matrix pointer */
  53              		.loc 1 62 10
ARM GAS  /tmp/cc67zKnF.s 			page 3


  54 0014 3B68     		ldr	r3, [r7]
  55 0016 5B68     		ldr	r3, [r3, #4]
  56 0018 BB62     		str	r3, [r7, #40]
  63:./Libraries/CMSIS/DSP/Source/MatrixFunctions/arm_mat_scale_q31.c ****   uint32_t numSamples;                           /* Total number of elements in the matrix */
  64:./Libraries/CMSIS/DSP/Source/MatrixFunctions/arm_mat_scale_q31.c ****   uint32_t blkCnt;                               /* Loop counter */
  65:./Libraries/CMSIS/DSP/Source/MatrixFunctions/arm_mat_scale_q31.c ****   arm_status status;                             /* Status of matrix scaling */
  66:./Libraries/CMSIS/DSP/Source/MatrixFunctions/arm_mat_scale_q31.c ****   int32_t kShift = shift + 1;                    /* Shift to apply after scaling */
  57              		.loc 1 66 11
  58 001a 7B68     		ldr	r3, [r7, #4]
  59 001c 0133     		adds	r3, r3, #1
  60 001e FB61     		str	r3, [r7, #28]
  67:./Libraries/CMSIS/DSP/Source/MatrixFunctions/arm_mat_scale_q31.c ****   q31_t in, out;                                 /* Temporary variabels */
  68:./Libraries/CMSIS/DSP/Source/MatrixFunctions/arm_mat_scale_q31.c **** 
  69:./Libraries/CMSIS/DSP/Source/MatrixFunctions/arm_mat_scale_q31.c **** #ifdef ARM_MATH_MATRIX_CHECK
  70:./Libraries/CMSIS/DSP/Source/MatrixFunctions/arm_mat_scale_q31.c **** 
  71:./Libraries/CMSIS/DSP/Source/MatrixFunctions/arm_mat_scale_q31.c ****   /* Check for matrix mismatch condition */
  72:./Libraries/CMSIS/DSP/Source/MatrixFunctions/arm_mat_scale_q31.c ****   if ((pSrc->numRows != pDst->numRows) ||
  73:./Libraries/CMSIS/DSP/Source/MatrixFunctions/arm_mat_scale_q31.c ****       (pSrc->numCols != pDst->numCols)   )
  74:./Libraries/CMSIS/DSP/Source/MatrixFunctions/arm_mat_scale_q31.c ****   {
  75:./Libraries/CMSIS/DSP/Source/MatrixFunctions/arm_mat_scale_q31.c ****     /* Set status as ARM_MATH_SIZE_MISMATCH */
  76:./Libraries/CMSIS/DSP/Source/MatrixFunctions/arm_mat_scale_q31.c ****     status = ARM_MATH_SIZE_MISMATCH;
  77:./Libraries/CMSIS/DSP/Source/MatrixFunctions/arm_mat_scale_q31.c ****   }
  78:./Libraries/CMSIS/DSP/Source/MatrixFunctions/arm_mat_scale_q31.c ****   else
  79:./Libraries/CMSIS/DSP/Source/MatrixFunctions/arm_mat_scale_q31.c **** 
  80:./Libraries/CMSIS/DSP/Source/MatrixFunctions/arm_mat_scale_q31.c **** #endif /* #ifdef ARM_MATH_MATRIX_CHECK */
  81:./Libraries/CMSIS/DSP/Source/MatrixFunctions/arm_mat_scale_q31.c **** 
  82:./Libraries/CMSIS/DSP/Source/MatrixFunctions/arm_mat_scale_q31.c ****   {
  83:./Libraries/CMSIS/DSP/Source/MatrixFunctions/arm_mat_scale_q31.c ****     /* Total number of samples in input matrix */
  84:./Libraries/CMSIS/DSP/Source/MatrixFunctions/arm_mat_scale_q31.c ****     numSamples = (uint32_t) pSrc->numRows * pSrc->numCols;
  61              		.loc 1 84 33
  62 0020 FB68     		ldr	r3, [r7, #12]
  63 0022 1B88     		ldrh	r3, [r3]
  64              		.loc 1 84 18
  65 0024 1A46     		mov	r2, r3
  66              		.loc 1 84 49
  67 0026 FB68     		ldr	r3, [r7, #12]
  68 0028 5B88     		ldrh	r3, [r3, #2]
  69              		.loc 1 84 16
  70 002a 03FB02F3 		mul	r3, r3, r2
  71 002e BB61     		str	r3, [r7, #24]
  85:./Libraries/CMSIS/DSP/Source/MatrixFunctions/arm_mat_scale_q31.c **** 
  86:./Libraries/CMSIS/DSP/Source/MatrixFunctions/arm_mat_scale_q31.c **** #if defined (ARM_MATH_LOOPUNROLL)
  87:./Libraries/CMSIS/DSP/Source/MatrixFunctions/arm_mat_scale_q31.c **** 
  88:./Libraries/CMSIS/DSP/Source/MatrixFunctions/arm_mat_scale_q31.c ****     /* Loop unrolling: Compute 4 outputs at a time */
  89:./Libraries/CMSIS/DSP/Source/MatrixFunctions/arm_mat_scale_q31.c ****     blkCnt = numSamples >> 2U;
  90:./Libraries/CMSIS/DSP/Source/MatrixFunctions/arm_mat_scale_q31.c **** 
  91:./Libraries/CMSIS/DSP/Source/MatrixFunctions/arm_mat_scale_q31.c ****     while (blkCnt > 0U)
  92:./Libraries/CMSIS/DSP/Source/MatrixFunctions/arm_mat_scale_q31.c ****     {
  93:./Libraries/CMSIS/DSP/Source/MatrixFunctions/arm_mat_scale_q31.c ****       /* C(m,n) = A(m,n) * k */
  94:./Libraries/CMSIS/DSP/Source/MatrixFunctions/arm_mat_scale_q31.c **** 
  95:./Libraries/CMSIS/DSP/Source/MatrixFunctions/arm_mat_scale_q31.c ****       /* Scale, saturate and store result in destination buffer. */
  96:./Libraries/CMSIS/DSP/Source/MatrixFunctions/arm_mat_scale_q31.c ****       in = *pIn++;                                 /* read four inputs from source */
  97:./Libraries/CMSIS/DSP/Source/MatrixFunctions/arm_mat_scale_q31.c ****       in = ((q63_t) in * scaleFract) >> 32;        /* multiply input with scaler value */
  98:./Libraries/CMSIS/DSP/Source/MatrixFunctions/arm_mat_scale_q31.c ****       out = in << kShift;                          /* apply shifting */
  99:./Libraries/CMSIS/DSP/Source/MatrixFunctions/arm_mat_scale_q31.c ****       if (in != (out >> kShift))                   /* saturate the results. */
 100:./Libraries/CMSIS/DSP/Source/MatrixFunctions/arm_mat_scale_q31.c ****         out = 0x7FFFFFFF ^ (in >> 31);
 101:./Libraries/CMSIS/DSP/Source/MatrixFunctions/arm_mat_scale_q31.c ****       *pOut++ = out;                               /* Store result destination */
ARM GAS  /tmp/cc67zKnF.s 			page 4


 102:./Libraries/CMSIS/DSP/Source/MatrixFunctions/arm_mat_scale_q31.c **** 
 103:./Libraries/CMSIS/DSP/Source/MatrixFunctions/arm_mat_scale_q31.c ****       in = *pIn++;
 104:./Libraries/CMSIS/DSP/Source/MatrixFunctions/arm_mat_scale_q31.c ****       in = ((q63_t) in * scaleFract) >> 32;
 105:./Libraries/CMSIS/DSP/Source/MatrixFunctions/arm_mat_scale_q31.c ****       out = in << kShift;
 106:./Libraries/CMSIS/DSP/Source/MatrixFunctions/arm_mat_scale_q31.c ****       if (in != (out >> kShift))
 107:./Libraries/CMSIS/DSP/Source/MatrixFunctions/arm_mat_scale_q31.c ****         out = 0x7FFFFFFF ^ (in >> 31);
 108:./Libraries/CMSIS/DSP/Source/MatrixFunctions/arm_mat_scale_q31.c ****       *pOut++ = out;
 109:./Libraries/CMSIS/DSP/Source/MatrixFunctions/arm_mat_scale_q31.c **** 
 110:./Libraries/CMSIS/DSP/Source/MatrixFunctions/arm_mat_scale_q31.c ****       in = *pIn++;
 111:./Libraries/CMSIS/DSP/Source/MatrixFunctions/arm_mat_scale_q31.c ****       in = ((q63_t) in * scaleFract) >> 32;
 112:./Libraries/CMSIS/DSP/Source/MatrixFunctions/arm_mat_scale_q31.c ****       out = in << kShift;
 113:./Libraries/CMSIS/DSP/Source/MatrixFunctions/arm_mat_scale_q31.c ****       if (in != (out >> kShift))
 114:./Libraries/CMSIS/DSP/Source/MatrixFunctions/arm_mat_scale_q31.c ****         out = 0x7FFFFFFF ^ (in >> 31);
 115:./Libraries/CMSIS/DSP/Source/MatrixFunctions/arm_mat_scale_q31.c ****       *pOut++ = out;
 116:./Libraries/CMSIS/DSP/Source/MatrixFunctions/arm_mat_scale_q31.c **** 
 117:./Libraries/CMSIS/DSP/Source/MatrixFunctions/arm_mat_scale_q31.c ****       in = *pIn++;
 118:./Libraries/CMSIS/DSP/Source/MatrixFunctions/arm_mat_scale_q31.c ****       in = ((q63_t) in * scaleFract) >> 32;
 119:./Libraries/CMSIS/DSP/Source/MatrixFunctions/arm_mat_scale_q31.c ****       out = in << kShift;
 120:./Libraries/CMSIS/DSP/Source/MatrixFunctions/arm_mat_scale_q31.c ****       if (in != (out >> kShift))
 121:./Libraries/CMSIS/DSP/Source/MatrixFunctions/arm_mat_scale_q31.c ****         out = 0x7FFFFFFF ^ (in >> 31);
 122:./Libraries/CMSIS/DSP/Source/MatrixFunctions/arm_mat_scale_q31.c ****       *pOut++ = out;
 123:./Libraries/CMSIS/DSP/Source/MatrixFunctions/arm_mat_scale_q31.c **** 
 124:./Libraries/CMSIS/DSP/Source/MatrixFunctions/arm_mat_scale_q31.c ****       /* Decrement loop counter */
 125:./Libraries/CMSIS/DSP/Source/MatrixFunctions/arm_mat_scale_q31.c ****       blkCnt--;
 126:./Libraries/CMSIS/DSP/Source/MatrixFunctions/arm_mat_scale_q31.c ****     }
 127:./Libraries/CMSIS/DSP/Source/MatrixFunctions/arm_mat_scale_q31.c **** 
 128:./Libraries/CMSIS/DSP/Source/MatrixFunctions/arm_mat_scale_q31.c ****     /* Loop unrolling: Compute remaining outputs */
 129:./Libraries/CMSIS/DSP/Source/MatrixFunctions/arm_mat_scale_q31.c ****     blkCnt = numSamples % 0x4U;
 130:./Libraries/CMSIS/DSP/Source/MatrixFunctions/arm_mat_scale_q31.c **** 
 131:./Libraries/CMSIS/DSP/Source/MatrixFunctions/arm_mat_scale_q31.c **** #else
 132:./Libraries/CMSIS/DSP/Source/MatrixFunctions/arm_mat_scale_q31.c **** 
 133:./Libraries/CMSIS/DSP/Source/MatrixFunctions/arm_mat_scale_q31.c ****     /* Initialize blkCnt with number of samples */
 134:./Libraries/CMSIS/DSP/Source/MatrixFunctions/arm_mat_scale_q31.c ****     blkCnt = numSamples;
  72              		.loc 1 134 12
  73 0030 BB69     		ldr	r3, [r7, #24]
  74 0032 7B62     		str	r3, [r7, #36]
 135:./Libraries/CMSIS/DSP/Source/MatrixFunctions/arm_mat_scale_q31.c **** 
 136:./Libraries/CMSIS/DSP/Source/MatrixFunctions/arm_mat_scale_q31.c **** #endif /* #if defined (ARM_MATH_LOOPUNROLL) */
 137:./Libraries/CMSIS/DSP/Source/MatrixFunctions/arm_mat_scale_q31.c **** 
 138:./Libraries/CMSIS/DSP/Source/MatrixFunctions/arm_mat_scale_q31.c ****     while (blkCnt > 0U)
  75              		.loc 1 138 11
  76 0034 37E0     		b	.L2
  77              	.L4:
 139:./Libraries/CMSIS/DSP/Source/MatrixFunctions/arm_mat_scale_q31.c ****     {
 140:./Libraries/CMSIS/DSP/Source/MatrixFunctions/arm_mat_scale_q31.c ****       /* C(m,n) = A(m,n) * k */
 141:./Libraries/CMSIS/DSP/Source/MatrixFunctions/arm_mat_scale_q31.c **** 
 142:./Libraries/CMSIS/DSP/Source/MatrixFunctions/arm_mat_scale_q31.c ****       /* Scale, saturate and store result in destination buffer. */
 143:./Libraries/CMSIS/DSP/Source/MatrixFunctions/arm_mat_scale_q31.c ****       in = *pIn++;
  78              		.loc 1 143 16
  79 0036 FB6A     		ldr	r3, [r7, #44]
  80 0038 1A1D     		adds	r2, r3, #4
  81 003a FA62     		str	r2, [r7, #44]
  82              		.loc 1 143 10
  83 003c 1B68     		ldr	r3, [r3]
  84 003e 3B61     		str	r3, [r7, #16]
 144:./Libraries/CMSIS/DSP/Source/MatrixFunctions/arm_mat_scale_q31.c ****       in = ((q63_t) in * scaleFract) >> 32;
  85              		.loc 1 144 13
ARM GAS  /tmp/cc67zKnF.s 			page 5


  86 0040 3B69     		ldr	r3, [r7, #16]
  87 0042 1846     		mov	r0, r3
  88 0044 4FEAE071 		asr	r1, r0, #31
  89              		.loc 1 144 24
  90 0048 BB68     		ldr	r3, [r7, #8]
  91 004a 1A46     		mov	r2, r3
  92 004c 4FEAE273 		asr	r3, r2, #31
  93 0050 02FB01F5 		mul	r5, r2, r1
  94 0054 00FB03F4 		mul	r4, r0, r3
  95 0058 2C44     		add	r4, r4, r5
  96 005a A0FB0223 		umull	r2, r3, r0, r2
  97 005e E118     		adds	r1, r4, r3
  98 0060 0B46     		mov	r3, r1
  99              		.loc 1 144 38
 100 0062 4FF00000 		mov	r0, #0
 101 0066 4FF00001 		mov	r1, #0
 102 006a 1800     		movs	r0, r3
 103 006c D917     		asrs	r1, r3, #31
 104              		.loc 1 144 10
 105 006e 0346     		mov	r3, r0
 106 0070 3B61     		str	r3, [r7, #16]
 145:./Libraries/CMSIS/DSP/Source/MatrixFunctions/arm_mat_scale_q31.c ****       out = in << kShift;
 107              		.loc 1 145 11
 108 0072 3A69     		ldr	r2, [r7, #16]
 109 0074 FB69     		ldr	r3, [r7, #28]
 110 0076 02FA03F3 		lsl	r3, r2, r3
 111 007a 3B62     		str	r3, [r7, #32]
 146:./Libraries/CMSIS/DSP/Source/MatrixFunctions/arm_mat_scale_q31.c ****       if (in != (out >> kShift))
 112              		.loc 1 146 22
 113 007c 3A6A     		ldr	r2, [r7, #32]
 114 007e FB69     		ldr	r3, [r7, #28]
 115 0080 42FA03F3 		asr	r3, r2, r3
 116              		.loc 1 146 10
 117 0084 3A69     		ldr	r2, [r7, #16]
 118 0086 9A42     		cmp	r2, r3
 119 0088 05D0     		beq	.L3
 147:./Libraries/CMSIS/DSP/Source/MatrixFunctions/arm_mat_scale_q31.c ****         out = 0x7FFFFFFF ^ (in >> 31);
 120              		.loc 1 147 32
 121 008a 3B69     		ldr	r3, [r7, #16]
 122 008c DA17     		asrs	r2, r3, #31
 123              		.loc 1 147 13
 124 008e 6FF00043 		mvn	r3, #-2147483648
 125 0092 5340     		eors	r3, r3, r2
 126 0094 3B62     		str	r3, [r7, #32]
 127              	.L3:
 148:./Libraries/CMSIS/DSP/Source/MatrixFunctions/arm_mat_scale_q31.c ****       *pOut++ = out;
 128              		.loc 1 148 12
 129 0096 BB6A     		ldr	r3, [r7, #40]
 130 0098 1A1D     		adds	r2, r3, #4
 131 009a BA62     		str	r2, [r7, #40]
 132              		.loc 1 148 15
 133 009c 3A6A     		ldr	r2, [r7, #32]
 134 009e 1A60     		str	r2, [r3]
 149:./Libraries/CMSIS/DSP/Source/MatrixFunctions/arm_mat_scale_q31.c **** 
 150:./Libraries/CMSIS/DSP/Source/MatrixFunctions/arm_mat_scale_q31.c ****       /* Decrement loop counter */
 151:./Libraries/CMSIS/DSP/Source/MatrixFunctions/arm_mat_scale_q31.c ****       blkCnt--;
 135              		.loc 1 151 13
ARM GAS  /tmp/cc67zKnF.s 			page 6


 136 00a0 7B6A     		ldr	r3, [r7, #36]
 137 00a2 013B     		subs	r3, r3, #1
 138 00a4 7B62     		str	r3, [r7, #36]
 139              	.L2:
 138:./Libraries/CMSIS/DSP/Source/MatrixFunctions/arm_mat_scale_q31.c ****     {
 140              		.loc 1 138 11
 141 00a6 7B6A     		ldr	r3, [r7, #36]
 142 00a8 002B     		cmp	r3, #0
 143 00aa C4D1     		bne	.L4
 152:./Libraries/CMSIS/DSP/Source/MatrixFunctions/arm_mat_scale_q31.c ****     }
 153:./Libraries/CMSIS/DSP/Source/MatrixFunctions/arm_mat_scale_q31.c **** 
 154:./Libraries/CMSIS/DSP/Source/MatrixFunctions/arm_mat_scale_q31.c ****     /* Set status as ARM_MATH_SUCCESS */
 155:./Libraries/CMSIS/DSP/Source/MatrixFunctions/arm_mat_scale_q31.c ****     status = ARM_MATH_SUCCESS;
 144              		.loc 1 155 12
 145 00ac 0023     		movs	r3, #0
 146 00ae FB75     		strb	r3, [r7, #23]
 156:./Libraries/CMSIS/DSP/Source/MatrixFunctions/arm_mat_scale_q31.c ****   }
 157:./Libraries/CMSIS/DSP/Source/MatrixFunctions/arm_mat_scale_q31.c **** 
 158:./Libraries/CMSIS/DSP/Source/MatrixFunctions/arm_mat_scale_q31.c ****   /* Return to application */
 159:./Libraries/CMSIS/DSP/Source/MatrixFunctions/arm_mat_scale_q31.c ****   return (status);
 147              		.loc 1 159 10
 148 00b0 97F91730 		ldrsb	r3, [r7, #23]
 160:./Libraries/CMSIS/DSP/Source/MatrixFunctions/arm_mat_scale_q31.c **** }
 149              		.loc 1 160 1
 150 00b4 1846     		mov	r0, r3
 151 00b6 3437     		adds	r7, r7, #52
 152              	.LCFI3:
 153              		.cfi_def_cfa_offset 12
 154 00b8 BD46     		mov	sp, r7
 155              	.LCFI4:
 156              		.cfi_def_cfa_register 13
 157              		@ sp needed
 158 00ba B0BC     		pop	{r4, r5, r7}
 159              	.LCFI5:
 160              		.cfi_restore 7
 161              		.cfi_restore 5
 162              		.cfi_restore 4
 163              		.cfi_def_cfa_offset 0
 164 00bc 7047     		bx	lr
 165              		.cfi_endproc
 166              	.LFE145:
 168              		.text
 169              	.Letext0:
 170              		.file 2 "/usr/lib/gcc/arm-none-eabi/9.2.1/include/stdint.h"
 171              		.file 3 "/usr/lib/gcc/arm-none-eabi/9.2.1/include/stddef.h"
 172              		.file 4 "/usr/include/newlib/sys/_types.h"
 173              		.file 5 "/usr/include/newlib/sys/reent.h"
 174              		.file 6 "/usr/include/newlib/sys/lock.h"
 175              		.file 7 "/usr/include/newlib/math.h"
 176              		.file 8 "./Libraries/CMSIS/DSP/Include/arm_math.h"
ARM GAS  /tmp/cc67zKnF.s 			page 7

