ARM GAS  /tmp/cchvqbWM.s 			page 1


   1              		.cpu cortex-m7
   2              		.eabi_attribute 28, 1
   3              		.eabi_attribute 20, 1
   4              		.eabi_attribute 21, 1
   5              		.eabi_attribute 23, 3
   6              		.eabi_attribute 24, 1
   7              		.eabi_attribute 25, 1
   8              		.eabi_attribute 26, 1
   9              		.eabi_attribute 30, 6
  10              		.eabi_attribute 34, 1
  11              		.eabi_attribute 18, 4
  12              		.file	"arm_fir_interpolate_q15.c"
  13              		.text
  14              	.Ltext0:
  15              		.cfi_sections	.debug_frame
  16              		.section	.text.arm_fir_interpolate_q15,"ax",%progbits
  17              		.align	1
  18              		.global	arm_fir_interpolate_q15
  19              		.arch armv7e-m
  20              		.syntax unified
  21              		.thumb
  22              		.thumb_func
  23              		.fpu fpv5-d16
  25              	arm_fir_interpolate_q15:
  26              	.LFB145:
  27              		.file 1 "./Libraries/CMSIS/DSP/Source/FilteringFunctions/arm_fir_interpolate_q15.c"
   1:./Libraries/CMSIS/DSP/Source/FilteringFunctions/arm_fir_interpolate_q15.c **** /* ----------------------------------------------------------------------
   2:./Libraries/CMSIS/DSP/Source/FilteringFunctions/arm_fir_interpolate_q15.c ****  * Project:      CMSIS DSP Library
   3:./Libraries/CMSIS/DSP/Source/FilteringFunctions/arm_fir_interpolate_q15.c ****  * Title:        arm_fir_interpolate_q15.c
   4:./Libraries/CMSIS/DSP/Source/FilteringFunctions/arm_fir_interpolate_q15.c ****  * Description:  Q15 FIR interpolation
   5:./Libraries/CMSIS/DSP/Source/FilteringFunctions/arm_fir_interpolate_q15.c ****  *
   6:./Libraries/CMSIS/DSP/Source/FilteringFunctions/arm_fir_interpolate_q15.c ****  * $Date:        18. March 2019
   7:./Libraries/CMSIS/DSP/Source/FilteringFunctions/arm_fir_interpolate_q15.c ****  * $Revision:    V1.6.0
   8:./Libraries/CMSIS/DSP/Source/FilteringFunctions/arm_fir_interpolate_q15.c ****  *
   9:./Libraries/CMSIS/DSP/Source/FilteringFunctions/arm_fir_interpolate_q15.c ****  * Target Processor: Cortex-M cores
  10:./Libraries/CMSIS/DSP/Source/FilteringFunctions/arm_fir_interpolate_q15.c ****  * -------------------------------------------------------------------- */
  11:./Libraries/CMSIS/DSP/Source/FilteringFunctions/arm_fir_interpolate_q15.c **** /*
  12:./Libraries/CMSIS/DSP/Source/FilteringFunctions/arm_fir_interpolate_q15.c ****  * Copyright (C) 2010-2019 ARM Limited or its affiliates. All rights reserved.
  13:./Libraries/CMSIS/DSP/Source/FilteringFunctions/arm_fir_interpolate_q15.c ****  *
  14:./Libraries/CMSIS/DSP/Source/FilteringFunctions/arm_fir_interpolate_q15.c ****  * SPDX-License-Identifier: Apache-2.0
  15:./Libraries/CMSIS/DSP/Source/FilteringFunctions/arm_fir_interpolate_q15.c ****  *
  16:./Libraries/CMSIS/DSP/Source/FilteringFunctions/arm_fir_interpolate_q15.c ****  * Licensed under the Apache License, Version 2.0 (the License); you may
  17:./Libraries/CMSIS/DSP/Source/FilteringFunctions/arm_fir_interpolate_q15.c ****  * not use this file except in compliance with the License.
  18:./Libraries/CMSIS/DSP/Source/FilteringFunctions/arm_fir_interpolate_q15.c ****  * You may obtain a copy of the License at
  19:./Libraries/CMSIS/DSP/Source/FilteringFunctions/arm_fir_interpolate_q15.c ****  *
  20:./Libraries/CMSIS/DSP/Source/FilteringFunctions/arm_fir_interpolate_q15.c ****  * www.apache.org/licenses/LICENSE-2.0
  21:./Libraries/CMSIS/DSP/Source/FilteringFunctions/arm_fir_interpolate_q15.c ****  *
  22:./Libraries/CMSIS/DSP/Source/FilteringFunctions/arm_fir_interpolate_q15.c ****  * Unless required by applicable law or agreed to in writing, software
  23:./Libraries/CMSIS/DSP/Source/FilteringFunctions/arm_fir_interpolate_q15.c ****  * distributed under the License is distributed on an AS IS BASIS, WITHOUT
  24:./Libraries/CMSIS/DSP/Source/FilteringFunctions/arm_fir_interpolate_q15.c ****  * WARRANTIES OR CONDITIONS OF ANY KIND, either express or implied.
  25:./Libraries/CMSIS/DSP/Source/FilteringFunctions/arm_fir_interpolate_q15.c ****  * See the License for the specific language governing permissions and
  26:./Libraries/CMSIS/DSP/Source/FilteringFunctions/arm_fir_interpolate_q15.c ****  * limitations under the License.
  27:./Libraries/CMSIS/DSP/Source/FilteringFunctions/arm_fir_interpolate_q15.c ****  */
  28:./Libraries/CMSIS/DSP/Source/FilteringFunctions/arm_fir_interpolate_q15.c **** 
  29:./Libraries/CMSIS/DSP/Source/FilteringFunctions/arm_fir_interpolate_q15.c **** #include "arm_math.h"
  30:./Libraries/CMSIS/DSP/Source/FilteringFunctions/arm_fir_interpolate_q15.c **** 
  31:./Libraries/CMSIS/DSP/Source/FilteringFunctions/arm_fir_interpolate_q15.c **** /**
ARM GAS  /tmp/cchvqbWM.s 			page 2


  32:./Libraries/CMSIS/DSP/Source/FilteringFunctions/arm_fir_interpolate_q15.c ****   @ingroup groupFilters
  33:./Libraries/CMSIS/DSP/Source/FilteringFunctions/arm_fir_interpolate_q15.c ****  */
  34:./Libraries/CMSIS/DSP/Source/FilteringFunctions/arm_fir_interpolate_q15.c **** 
  35:./Libraries/CMSIS/DSP/Source/FilteringFunctions/arm_fir_interpolate_q15.c **** /**
  36:./Libraries/CMSIS/DSP/Source/FilteringFunctions/arm_fir_interpolate_q15.c ****   @addtogroup FIR_Interpolate
  37:./Libraries/CMSIS/DSP/Source/FilteringFunctions/arm_fir_interpolate_q15.c ****   @{
  38:./Libraries/CMSIS/DSP/Source/FilteringFunctions/arm_fir_interpolate_q15.c ****  */
  39:./Libraries/CMSIS/DSP/Source/FilteringFunctions/arm_fir_interpolate_q15.c **** 
  40:./Libraries/CMSIS/DSP/Source/FilteringFunctions/arm_fir_interpolate_q15.c **** /**
  41:./Libraries/CMSIS/DSP/Source/FilteringFunctions/arm_fir_interpolate_q15.c ****   @brief         Processing function for the Q15 FIR interpolator.
  42:./Libraries/CMSIS/DSP/Source/FilteringFunctions/arm_fir_interpolate_q15.c ****   @param[in]     S          points to an instance of the Q15 FIR interpolator structure
  43:./Libraries/CMSIS/DSP/Source/FilteringFunctions/arm_fir_interpolate_q15.c ****   @param[in]     pSrc       points to the block of input data
  44:./Libraries/CMSIS/DSP/Source/FilteringFunctions/arm_fir_interpolate_q15.c ****   @param[out]    pDst       points to the block of output data
  45:./Libraries/CMSIS/DSP/Source/FilteringFunctions/arm_fir_interpolate_q15.c ****   @param[in]     blockSize  number of samples to process
  46:./Libraries/CMSIS/DSP/Source/FilteringFunctions/arm_fir_interpolate_q15.c ****   @return        none
  47:./Libraries/CMSIS/DSP/Source/FilteringFunctions/arm_fir_interpolate_q15.c **** 
  48:./Libraries/CMSIS/DSP/Source/FilteringFunctions/arm_fir_interpolate_q15.c ****   @par           Scaling and Overflow Behavior
  49:./Libraries/CMSIS/DSP/Source/FilteringFunctions/arm_fir_interpolate_q15.c ****                    The function is implemented using a 64-bit internal accumulator.
  50:./Libraries/CMSIS/DSP/Source/FilteringFunctions/arm_fir_interpolate_q15.c ****                    Both coefficients and state variables are represented in 1.15 format and multipl
  51:./Libraries/CMSIS/DSP/Source/FilteringFunctions/arm_fir_interpolate_q15.c ****                    The 2.30 intermediate results are accumulated in a 64-bit accumulator in 34.30 f
  52:./Libraries/CMSIS/DSP/Source/FilteringFunctions/arm_fir_interpolate_q15.c ****                    There is no risk of internal overflow with this approach and the full precision 
  53:./Libraries/CMSIS/DSP/Source/FilteringFunctions/arm_fir_interpolate_q15.c ****                    After all additions have been performed, the accumulator is truncated to 34.15 f
  54:./Libraries/CMSIS/DSP/Source/FilteringFunctions/arm_fir_interpolate_q15.c ****                    Lastly, the accumulator is saturated to yield a result in 1.15 format.
  55:./Libraries/CMSIS/DSP/Source/FilteringFunctions/arm_fir_interpolate_q15.c ****  */
  56:./Libraries/CMSIS/DSP/Source/FilteringFunctions/arm_fir_interpolate_q15.c **** 
  57:./Libraries/CMSIS/DSP/Source/FilteringFunctions/arm_fir_interpolate_q15.c **** void arm_fir_interpolate_q15(
  58:./Libraries/CMSIS/DSP/Source/FilteringFunctions/arm_fir_interpolate_q15.c ****   const arm_fir_interpolate_instance_q15 * S,
  59:./Libraries/CMSIS/DSP/Source/FilteringFunctions/arm_fir_interpolate_q15.c ****   const q15_t * pSrc,
  60:./Libraries/CMSIS/DSP/Source/FilteringFunctions/arm_fir_interpolate_q15.c ****         q15_t * pDst,
  61:./Libraries/CMSIS/DSP/Source/FilteringFunctions/arm_fir_interpolate_q15.c ****         uint32_t blockSize)
  62:./Libraries/CMSIS/DSP/Source/FilteringFunctions/arm_fir_interpolate_q15.c **** {
  28              		.loc 1 62 1
  29              		.cfi_startproc
  30              		@ args = 0, pretend = 0, frame = 72
  31              		@ frame_needed = 1, uses_anonymous_args = 0
  32              		@ link register save eliminated.
  33 0000 F0B4     		push	{r4, r5, r6, r7}
  34              	.LCFI0:
  35              		.cfi_def_cfa_offset 16
  36              		.cfi_offset 4, -16
  37              		.cfi_offset 5, -12
  38              		.cfi_offset 6, -8
  39              		.cfi_offset 7, -4
  40 0002 92B0     		sub	sp, sp, #72
  41              	.LCFI1:
  42              		.cfi_def_cfa_offset 88
  43 0004 00AF     		add	r7, sp, #0
  44              	.LCFI2:
  45              		.cfi_def_cfa_register 7
  46 0006 F860     		str	r0, [r7, #12]
  47 0008 B960     		str	r1, [r7, #8]
  48 000a 7A60     		str	r2, [r7, #4]
  49 000c 3B60     		str	r3, [r7]
  63:./Libraries/CMSIS/DSP/Source/FilteringFunctions/arm_fir_interpolate_q15.c **** #if (1)
  64:./Libraries/CMSIS/DSP/Source/FilteringFunctions/arm_fir_interpolate_q15.c **** //#if !defined(ARM_MATH_CM0_FAMILY)
  65:./Libraries/CMSIS/DSP/Source/FilteringFunctions/arm_fir_interpolate_q15.c **** 
  66:./Libraries/CMSIS/DSP/Source/FilteringFunctions/arm_fir_interpolate_q15.c ****         q15_t *pState = S->pState;                     /* State pointer */
ARM GAS  /tmp/cchvqbWM.s 			page 3


  50              		.loc 1 66 16
  51 000e FB68     		ldr	r3, [r7, #12]
  52 0010 9B68     		ldr	r3, [r3, #8]
  53 0012 7B64     		str	r3, [r7, #68]
  67:./Libraries/CMSIS/DSP/Source/FilteringFunctions/arm_fir_interpolate_q15.c ****   const q15_t *pCoeffs = S->pCoeffs;                   /* Coefficient pointer */
  54              		.loc 1 67 16
  55 0014 FB68     		ldr	r3, [r7, #12]
  56 0016 5B68     		ldr	r3, [r3, #4]
  57 0018 FB61     		str	r3, [r7, #28]
  68:./Libraries/CMSIS/DSP/Source/FilteringFunctions/arm_fir_interpolate_q15.c ****         q15_t *pStateCur;                              /* Points to the current sample of the state
  69:./Libraries/CMSIS/DSP/Source/FilteringFunctions/arm_fir_interpolate_q15.c ****         q15_t *ptr1;                                   /* Temporary pointer for state buffer */
  70:./Libraries/CMSIS/DSP/Source/FilteringFunctions/arm_fir_interpolate_q15.c ****   const q15_t *ptr2;                                   /* Temporary pointer for coefficient buffer 
  71:./Libraries/CMSIS/DSP/Source/FilteringFunctions/arm_fir_interpolate_q15.c ****         q63_t sum0;                                    /* Accumulators */
  72:./Libraries/CMSIS/DSP/Source/FilteringFunctions/arm_fir_interpolate_q15.c ****         uint32_t i, blkCnt, tapCnt;                    /* Loop counters */
  73:./Libraries/CMSIS/DSP/Source/FilteringFunctions/arm_fir_interpolate_q15.c ****         uint32_t phaseLen = S->phaseLength;            /* Length of each polyphase filter component
  58              		.loc 1 73 30
  59 001a FB68     		ldr	r3, [r7, #12]
  60 001c 5B88     		ldrh	r3, [r3, #2]
  61              		.loc 1 73 18
  62 001e BB61     		str	r3, [r7, #24]
  74:./Libraries/CMSIS/DSP/Source/FilteringFunctions/arm_fir_interpolate_q15.c ****         uint32_t j;
  75:./Libraries/CMSIS/DSP/Source/FilteringFunctions/arm_fir_interpolate_q15.c **** 
  76:./Libraries/CMSIS/DSP/Source/FilteringFunctions/arm_fir_interpolate_q15.c **** #if defined (ARM_MATH_LOOPUNROLL)
  77:./Libraries/CMSIS/DSP/Source/FilteringFunctions/arm_fir_interpolate_q15.c ****         q63_t acc0, acc1, acc2, acc3;
  78:./Libraries/CMSIS/DSP/Source/FilteringFunctions/arm_fir_interpolate_q15.c ****         q15_t x0, x1, x2, x3;
  79:./Libraries/CMSIS/DSP/Source/FilteringFunctions/arm_fir_interpolate_q15.c ****         q15_t c0, c1, c2, c3;
  80:./Libraries/CMSIS/DSP/Source/FilteringFunctions/arm_fir_interpolate_q15.c **** #endif
  81:./Libraries/CMSIS/DSP/Source/FilteringFunctions/arm_fir_interpolate_q15.c **** 
  82:./Libraries/CMSIS/DSP/Source/FilteringFunctions/arm_fir_interpolate_q15.c ****   /* S->pState buffer contains previous frame (phaseLen - 1) samples */
  83:./Libraries/CMSIS/DSP/Source/FilteringFunctions/arm_fir_interpolate_q15.c ****   /* pStateCur points to the location where the new input data should be written */
  84:./Libraries/CMSIS/DSP/Source/FilteringFunctions/arm_fir_interpolate_q15.c ****   pStateCur = S->pState + (phaseLen - 1U);
  63              		.loc 1 84 16
  64 0020 FB68     		ldr	r3, [r7, #12]
  65 0022 9A68     		ldr	r2, [r3, #8]
  66              		.loc 1 84 25
  67 0024 B969     		ldr	r1, [r7, #24]
  68 0026 6FF00043 		mvn	r3, #-2147483648
  69 002a 0B44     		add	r3, r3, r1
  70 002c 5B00     		lsls	r3, r3, #1
  71              		.loc 1 84 13
  72 002e 1344     		add	r3, r3, r2
  73 0030 3B64     		str	r3, [r7, #64]
  85:./Libraries/CMSIS/DSP/Source/FilteringFunctions/arm_fir_interpolate_q15.c **** 
  86:./Libraries/CMSIS/DSP/Source/FilteringFunctions/arm_fir_interpolate_q15.c **** #if defined (ARM_MATH_LOOPUNROLL)
  87:./Libraries/CMSIS/DSP/Source/FilteringFunctions/arm_fir_interpolate_q15.c **** 
  88:./Libraries/CMSIS/DSP/Source/FilteringFunctions/arm_fir_interpolate_q15.c ****   /* Loop unrolling: Compute 4 outputs at a time */
  89:./Libraries/CMSIS/DSP/Source/FilteringFunctions/arm_fir_interpolate_q15.c ****   blkCnt = blockSize >> 2U;
  90:./Libraries/CMSIS/DSP/Source/FilteringFunctions/arm_fir_interpolate_q15.c **** 
  91:./Libraries/CMSIS/DSP/Source/FilteringFunctions/arm_fir_interpolate_q15.c ****   while (blkCnt > 0U)
  92:./Libraries/CMSIS/DSP/Source/FilteringFunctions/arm_fir_interpolate_q15.c ****   {
  93:./Libraries/CMSIS/DSP/Source/FilteringFunctions/arm_fir_interpolate_q15.c ****     /* Copy new input sample into the state buffer */
  94:./Libraries/CMSIS/DSP/Source/FilteringFunctions/arm_fir_interpolate_q15.c ****     *pStateCur++ = *pSrc++;
  95:./Libraries/CMSIS/DSP/Source/FilteringFunctions/arm_fir_interpolate_q15.c ****     *pStateCur++ = *pSrc++;
  96:./Libraries/CMSIS/DSP/Source/FilteringFunctions/arm_fir_interpolate_q15.c ****     *pStateCur++ = *pSrc++;
  97:./Libraries/CMSIS/DSP/Source/FilteringFunctions/arm_fir_interpolate_q15.c ****     *pStateCur++ = *pSrc++;
  98:./Libraries/CMSIS/DSP/Source/FilteringFunctions/arm_fir_interpolate_q15.c **** 
  99:./Libraries/CMSIS/DSP/Source/FilteringFunctions/arm_fir_interpolate_q15.c ****     /* Address modifier index of coefficient buffer */
ARM GAS  /tmp/cchvqbWM.s 			page 4


 100:./Libraries/CMSIS/DSP/Source/FilteringFunctions/arm_fir_interpolate_q15.c ****     j = 1U;
 101:./Libraries/CMSIS/DSP/Source/FilteringFunctions/arm_fir_interpolate_q15.c **** 
 102:./Libraries/CMSIS/DSP/Source/FilteringFunctions/arm_fir_interpolate_q15.c ****     /* Loop over the Interpolation factor. */
 103:./Libraries/CMSIS/DSP/Source/FilteringFunctions/arm_fir_interpolate_q15.c ****     i = (S->L);
 104:./Libraries/CMSIS/DSP/Source/FilteringFunctions/arm_fir_interpolate_q15.c **** 
 105:./Libraries/CMSIS/DSP/Source/FilteringFunctions/arm_fir_interpolate_q15.c ****     while (i > 0U)
 106:./Libraries/CMSIS/DSP/Source/FilteringFunctions/arm_fir_interpolate_q15.c ****     {
 107:./Libraries/CMSIS/DSP/Source/FilteringFunctions/arm_fir_interpolate_q15.c ****       /* Set accumulator to zero */
 108:./Libraries/CMSIS/DSP/Source/FilteringFunctions/arm_fir_interpolate_q15.c ****       acc0 = 0;
 109:./Libraries/CMSIS/DSP/Source/FilteringFunctions/arm_fir_interpolate_q15.c ****       acc1 = 0;
 110:./Libraries/CMSIS/DSP/Source/FilteringFunctions/arm_fir_interpolate_q15.c ****       acc2 = 0;
 111:./Libraries/CMSIS/DSP/Source/FilteringFunctions/arm_fir_interpolate_q15.c ****       acc3 = 0;
 112:./Libraries/CMSIS/DSP/Source/FilteringFunctions/arm_fir_interpolate_q15.c **** 
 113:./Libraries/CMSIS/DSP/Source/FilteringFunctions/arm_fir_interpolate_q15.c ****       /* Initialize state pointer */
 114:./Libraries/CMSIS/DSP/Source/FilteringFunctions/arm_fir_interpolate_q15.c ****       ptr1 = pState;
 115:./Libraries/CMSIS/DSP/Source/FilteringFunctions/arm_fir_interpolate_q15.c **** 
 116:./Libraries/CMSIS/DSP/Source/FilteringFunctions/arm_fir_interpolate_q15.c ****       /* Initialize coefficient pointer */
 117:./Libraries/CMSIS/DSP/Source/FilteringFunctions/arm_fir_interpolate_q15.c ****       ptr2 = pCoeffs + (S->L - j);
 118:./Libraries/CMSIS/DSP/Source/FilteringFunctions/arm_fir_interpolate_q15.c **** 
 119:./Libraries/CMSIS/DSP/Source/FilteringFunctions/arm_fir_interpolate_q15.c ****       /* Loop over the polyPhase length. Unroll by a factor of 4.
 120:./Libraries/CMSIS/DSP/Source/FilteringFunctions/arm_fir_interpolate_q15.c ****          Repeat until we've computed numTaps-(4*S->L) coefficients. */
 121:./Libraries/CMSIS/DSP/Source/FilteringFunctions/arm_fir_interpolate_q15.c ****       tapCnt = phaseLen >> 2U;
 122:./Libraries/CMSIS/DSP/Source/FilteringFunctions/arm_fir_interpolate_q15.c **** 
 123:./Libraries/CMSIS/DSP/Source/FilteringFunctions/arm_fir_interpolate_q15.c ****       x0 = *(ptr1++);
 124:./Libraries/CMSIS/DSP/Source/FilteringFunctions/arm_fir_interpolate_q15.c ****       x1 = *(ptr1++);
 125:./Libraries/CMSIS/DSP/Source/FilteringFunctions/arm_fir_interpolate_q15.c ****       x2 = *(ptr1++);
 126:./Libraries/CMSIS/DSP/Source/FilteringFunctions/arm_fir_interpolate_q15.c **** 
 127:./Libraries/CMSIS/DSP/Source/FilteringFunctions/arm_fir_interpolate_q15.c ****       while (tapCnt > 0U)
 128:./Libraries/CMSIS/DSP/Source/FilteringFunctions/arm_fir_interpolate_q15.c ****       {
 129:./Libraries/CMSIS/DSP/Source/FilteringFunctions/arm_fir_interpolate_q15.c ****         /* Read the input sample */
 130:./Libraries/CMSIS/DSP/Source/FilteringFunctions/arm_fir_interpolate_q15.c ****         x3 = *(ptr1++);
 131:./Libraries/CMSIS/DSP/Source/FilteringFunctions/arm_fir_interpolate_q15.c **** 
 132:./Libraries/CMSIS/DSP/Source/FilteringFunctions/arm_fir_interpolate_q15.c ****         /* Read the coefficient */
 133:./Libraries/CMSIS/DSP/Source/FilteringFunctions/arm_fir_interpolate_q15.c ****         c0 = *(ptr2);
 134:./Libraries/CMSIS/DSP/Source/FilteringFunctions/arm_fir_interpolate_q15.c **** 
 135:./Libraries/CMSIS/DSP/Source/FilteringFunctions/arm_fir_interpolate_q15.c ****         /* Perform the multiply-accumulate */
 136:./Libraries/CMSIS/DSP/Source/FilteringFunctions/arm_fir_interpolate_q15.c ****         acc0 += (q63_t) x0 * c0;
 137:./Libraries/CMSIS/DSP/Source/FilteringFunctions/arm_fir_interpolate_q15.c ****         acc1 += (q63_t) x1 * c0;
 138:./Libraries/CMSIS/DSP/Source/FilteringFunctions/arm_fir_interpolate_q15.c ****         acc2 += (q63_t) x2 * c0;
 139:./Libraries/CMSIS/DSP/Source/FilteringFunctions/arm_fir_interpolate_q15.c ****         acc3 += (q63_t) x3 * c0;
 140:./Libraries/CMSIS/DSP/Source/FilteringFunctions/arm_fir_interpolate_q15.c **** 
 141:./Libraries/CMSIS/DSP/Source/FilteringFunctions/arm_fir_interpolate_q15.c ****         /* Read the coefficient */
 142:./Libraries/CMSIS/DSP/Source/FilteringFunctions/arm_fir_interpolate_q15.c ****         c1 = *(ptr2 + S->L);
 143:./Libraries/CMSIS/DSP/Source/FilteringFunctions/arm_fir_interpolate_q15.c **** 
 144:./Libraries/CMSIS/DSP/Source/FilteringFunctions/arm_fir_interpolate_q15.c ****         /* Read the input sample */
 145:./Libraries/CMSIS/DSP/Source/FilteringFunctions/arm_fir_interpolate_q15.c ****         x0 = *(ptr1++);
 146:./Libraries/CMSIS/DSP/Source/FilteringFunctions/arm_fir_interpolate_q15.c **** 
 147:./Libraries/CMSIS/DSP/Source/FilteringFunctions/arm_fir_interpolate_q15.c ****         /* Perform the multiply-accumulate */
 148:./Libraries/CMSIS/DSP/Source/FilteringFunctions/arm_fir_interpolate_q15.c ****         acc0 += (q63_t) x1 * c1;
 149:./Libraries/CMSIS/DSP/Source/FilteringFunctions/arm_fir_interpolate_q15.c ****         acc1 += (q63_t) x2 * c1;
 150:./Libraries/CMSIS/DSP/Source/FilteringFunctions/arm_fir_interpolate_q15.c ****         acc2 += (q63_t) x3 * c1;
 151:./Libraries/CMSIS/DSP/Source/FilteringFunctions/arm_fir_interpolate_q15.c ****         acc3 += (q63_t) x0 * c1;
 152:./Libraries/CMSIS/DSP/Source/FilteringFunctions/arm_fir_interpolate_q15.c **** 
 153:./Libraries/CMSIS/DSP/Source/FilteringFunctions/arm_fir_interpolate_q15.c ****         /* Read the coefficient */
 154:./Libraries/CMSIS/DSP/Source/FilteringFunctions/arm_fir_interpolate_q15.c ****         c2 = *(ptr2 + S->L * 2);
 155:./Libraries/CMSIS/DSP/Source/FilteringFunctions/arm_fir_interpolate_q15.c **** 
 156:./Libraries/CMSIS/DSP/Source/FilteringFunctions/arm_fir_interpolate_q15.c ****         /* Read the input sample */
ARM GAS  /tmp/cchvqbWM.s 			page 5


 157:./Libraries/CMSIS/DSP/Source/FilteringFunctions/arm_fir_interpolate_q15.c ****         x1 = *(ptr1++);
 158:./Libraries/CMSIS/DSP/Source/FilteringFunctions/arm_fir_interpolate_q15.c **** 
 159:./Libraries/CMSIS/DSP/Source/FilteringFunctions/arm_fir_interpolate_q15.c ****         /* Perform the multiply-accumulate */
 160:./Libraries/CMSIS/DSP/Source/FilteringFunctions/arm_fir_interpolate_q15.c ****         acc0 += (q63_t) x2 * c2;
 161:./Libraries/CMSIS/DSP/Source/FilteringFunctions/arm_fir_interpolate_q15.c ****         acc1 += (q63_t) x3 * c2;
 162:./Libraries/CMSIS/DSP/Source/FilteringFunctions/arm_fir_interpolate_q15.c ****         acc2 += (q63_t) x0 * c2;
 163:./Libraries/CMSIS/DSP/Source/FilteringFunctions/arm_fir_interpolate_q15.c ****         acc3 += (q63_t) x1 * c2;
 164:./Libraries/CMSIS/DSP/Source/FilteringFunctions/arm_fir_interpolate_q15.c **** 
 165:./Libraries/CMSIS/DSP/Source/FilteringFunctions/arm_fir_interpolate_q15.c ****         /* Read the coefficient */
 166:./Libraries/CMSIS/DSP/Source/FilteringFunctions/arm_fir_interpolate_q15.c ****         c3 = *(ptr2 + S->L * 3);
 167:./Libraries/CMSIS/DSP/Source/FilteringFunctions/arm_fir_interpolate_q15.c **** 
 168:./Libraries/CMSIS/DSP/Source/FilteringFunctions/arm_fir_interpolate_q15.c ****         /* Read the input sample */
 169:./Libraries/CMSIS/DSP/Source/FilteringFunctions/arm_fir_interpolate_q15.c ****         x2 = *(ptr1++);
 170:./Libraries/CMSIS/DSP/Source/FilteringFunctions/arm_fir_interpolate_q15.c **** 
 171:./Libraries/CMSIS/DSP/Source/FilteringFunctions/arm_fir_interpolate_q15.c ****         /* Perform the multiply-accumulate */
 172:./Libraries/CMSIS/DSP/Source/FilteringFunctions/arm_fir_interpolate_q15.c ****         acc0 += (q63_t) x3 * c3;
 173:./Libraries/CMSIS/DSP/Source/FilteringFunctions/arm_fir_interpolate_q15.c ****         acc1 += (q63_t) x0 * c3;
 174:./Libraries/CMSIS/DSP/Source/FilteringFunctions/arm_fir_interpolate_q15.c ****         acc2 += (q63_t) x1 * c3;
 175:./Libraries/CMSIS/DSP/Source/FilteringFunctions/arm_fir_interpolate_q15.c ****         acc3 += (q63_t) x2 * c3;
 176:./Libraries/CMSIS/DSP/Source/FilteringFunctions/arm_fir_interpolate_q15.c **** 
 177:./Libraries/CMSIS/DSP/Source/FilteringFunctions/arm_fir_interpolate_q15.c **** 
 178:./Libraries/CMSIS/DSP/Source/FilteringFunctions/arm_fir_interpolate_q15.c ****         /* Upsampling is done by stuffing L-1 zeros between each sample.
 179:./Libraries/CMSIS/DSP/Source/FilteringFunctions/arm_fir_interpolate_q15.c ****          * So instead of multiplying zeros with coefficients,
 180:./Libraries/CMSIS/DSP/Source/FilteringFunctions/arm_fir_interpolate_q15.c ****          * Increment the coefficient pointer by interpolation factor times. */
 181:./Libraries/CMSIS/DSP/Source/FilteringFunctions/arm_fir_interpolate_q15.c ****         ptr2 += 4 * S->L;
 182:./Libraries/CMSIS/DSP/Source/FilteringFunctions/arm_fir_interpolate_q15.c **** 
 183:./Libraries/CMSIS/DSP/Source/FilteringFunctions/arm_fir_interpolate_q15.c ****         /* Decrement loop counter */
 184:./Libraries/CMSIS/DSP/Source/FilteringFunctions/arm_fir_interpolate_q15.c ****         tapCnt--;
 185:./Libraries/CMSIS/DSP/Source/FilteringFunctions/arm_fir_interpolate_q15.c ****       }
 186:./Libraries/CMSIS/DSP/Source/FilteringFunctions/arm_fir_interpolate_q15.c **** 
 187:./Libraries/CMSIS/DSP/Source/FilteringFunctions/arm_fir_interpolate_q15.c ****       /* If the polyPhase length is not a multiple of 4, compute the remaining filter taps */
 188:./Libraries/CMSIS/DSP/Source/FilteringFunctions/arm_fir_interpolate_q15.c ****       tapCnt = phaseLen % 0x4U;
 189:./Libraries/CMSIS/DSP/Source/FilteringFunctions/arm_fir_interpolate_q15.c **** 
 190:./Libraries/CMSIS/DSP/Source/FilteringFunctions/arm_fir_interpolate_q15.c ****       while (tapCnt > 0U)
 191:./Libraries/CMSIS/DSP/Source/FilteringFunctions/arm_fir_interpolate_q15.c ****       {
 192:./Libraries/CMSIS/DSP/Source/FilteringFunctions/arm_fir_interpolate_q15.c ****         /* Read the input sample */
 193:./Libraries/CMSIS/DSP/Source/FilteringFunctions/arm_fir_interpolate_q15.c ****         x3 = *(ptr1++);
 194:./Libraries/CMSIS/DSP/Source/FilteringFunctions/arm_fir_interpolate_q15.c **** 
 195:./Libraries/CMSIS/DSP/Source/FilteringFunctions/arm_fir_interpolate_q15.c ****         /* Read the coefficient */
 196:./Libraries/CMSIS/DSP/Source/FilteringFunctions/arm_fir_interpolate_q15.c ****         c0 = *(ptr2);
 197:./Libraries/CMSIS/DSP/Source/FilteringFunctions/arm_fir_interpolate_q15.c **** 
 198:./Libraries/CMSIS/DSP/Source/FilteringFunctions/arm_fir_interpolate_q15.c ****         /* Perform the multiply-accumulate */
 199:./Libraries/CMSIS/DSP/Source/FilteringFunctions/arm_fir_interpolate_q15.c ****         acc0 += (q63_t) x0 * c0;
 200:./Libraries/CMSIS/DSP/Source/FilteringFunctions/arm_fir_interpolate_q15.c ****         acc1 += (q63_t) x1 * c0;
 201:./Libraries/CMSIS/DSP/Source/FilteringFunctions/arm_fir_interpolate_q15.c ****         acc2 += (q63_t) x2 * c0;
 202:./Libraries/CMSIS/DSP/Source/FilteringFunctions/arm_fir_interpolate_q15.c ****         acc3 += (q63_t) x3 * c0;
 203:./Libraries/CMSIS/DSP/Source/FilteringFunctions/arm_fir_interpolate_q15.c **** 
 204:./Libraries/CMSIS/DSP/Source/FilteringFunctions/arm_fir_interpolate_q15.c ****         /* Increment the coefficient pointer by interpolation factor times. */
 205:./Libraries/CMSIS/DSP/Source/FilteringFunctions/arm_fir_interpolate_q15.c ****         ptr2 += S->L;
 206:./Libraries/CMSIS/DSP/Source/FilteringFunctions/arm_fir_interpolate_q15.c **** 
 207:./Libraries/CMSIS/DSP/Source/FilteringFunctions/arm_fir_interpolate_q15.c ****         /* update states for next sample processing */
 208:./Libraries/CMSIS/DSP/Source/FilteringFunctions/arm_fir_interpolate_q15.c ****         x0 = x1;
 209:./Libraries/CMSIS/DSP/Source/FilteringFunctions/arm_fir_interpolate_q15.c ****         x1 = x2;
 210:./Libraries/CMSIS/DSP/Source/FilteringFunctions/arm_fir_interpolate_q15.c ****         x2 = x3;
 211:./Libraries/CMSIS/DSP/Source/FilteringFunctions/arm_fir_interpolate_q15.c **** 
 212:./Libraries/CMSIS/DSP/Source/FilteringFunctions/arm_fir_interpolate_q15.c ****         /* Decrement loop counter */
 213:./Libraries/CMSIS/DSP/Source/FilteringFunctions/arm_fir_interpolate_q15.c ****         tapCnt--;
ARM GAS  /tmp/cchvqbWM.s 			page 6


 214:./Libraries/CMSIS/DSP/Source/FilteringFunctions/arm_fir_interpolate_q15.c ****       }
 215:./Libraries/CMSIS/DSP/Source/FilteringFunctions/arm_fir_interpolate_q15.c **** 
 216:./Libraries/CMSIS/DSP/Source/FilteringFunctions/arm_fir_interpolate_q15.c ****       /* The result is in the accumulator, store in the destination buffer. */
 217:./Libraries/CMSIS/DSP/Source/FilteringFunctions/arm_fir_interpolate_q15.c ****       *(pDst           ) = (q15_t) (__SSAT((acc0 >> 15), 16));
 218:./Libraries/CMSIS/DSP/Source/FilteringFunctions/arm_fir_interpolate_q15.c ****       *(pDst +     S->L) = (q15_t) (__SSAT((acc1 >> 15), 16));
 219:./Libraries/CMSIS/DSP/Source/FilteringFunctions/arm_fir_interpolate_q15.c ****       *(pDst + 2 * S->L) = (q15_t) (__SSAT((acc2 >> 15), 16));
 220:./Libraries/CMSIS/DSP/Source/FilteringFunctions/arm_fir_interpolate_q15.c ****       *(pDst + 3 * S->L) = (q15_t) (__SSAT((acc3 >> 15), 16));
 221:./Libraries/CMSIS/DSP/Source/FilteringFunctions/arm_fir_interpolate_q15.c **** 
 222:./Libraries/CMSIS/DSP/Source/FilteringFunctions/arm_fir_interpolate_q15.c ****       pDst++;
 223:./Libraries/CMSIS/DSP/Source/FilteringFunctions/arm_fir_interpolate_q15.c **** 
 224:./Libraries/CMSIS/DSP/Source/FilteringFunctions/arm_fir_interpolate_q15.c ****       /* Increment the address modifier index of coefficient buffer */
 225:./Libraries/CMSIS/DSP/Source/FilteringFunctions/arm_fir_interpolate_q15.c ****       j++;
 226:./Libraries/CMSIS/DSP/Source/FilteringFunctions/arm_fir_interpolate_q15.c **** 
 227:./Libraries/CMSIS/DSP/Source/FilteringFunctions/arm_fir_interpolate_q15.c ****       /* Decrement loop counter */
 228:./Libraries/CMSIS/DSP/Source/FilteringFunctions/arm_fir_interpolate_q15.c ****       i--;
 229:./Libraries/CMSIS/DSP/Source/FilteringFunctions/arm_fir_interpolate_q15.c ****     }
 230:./Libraries/CMSIS/DSP/Source/FilteringFunctions/arm_fir_interpolate_q15.c **** 
 231:./Libraries/CMSIS/DSP/Source/FilteringFunctions/arm_fir_interpolate_q15.c ****     /* Advance the state pointer by 1
 232:./Libraries/CMSIS/DSP/Source/FilteringFunctions/arm_fir_interpolate_q15.c ****      * to process the next group of interpolation factor number samples */
 233:./Libraries/CMSIS/DSP/Source/FilteringFunctions/arm_fir_interpolate_q15.c ****     pState = pState + 4;
 234:./Libraries/CMSIS/DSP/Source/FilteringFunctions/arm_fir_interpolate_q15.c **** 
 235:./Libraries/CMSIS/DSP/Source/FilteringFunctions/arm_fir_interpolate_q15.c ****     pDst += S->L * 3;
 236:./Libraries/CMSIS/DSP/Source/FilteringFunctions/arm_fir_interpolate_q15.c **** 
 237:./Libraries/CMSIS/DSP/Source/FilteringFunctions/arm_fir_interpolate_q15.c ****     /* Decrement loop counter */
 238:./Libraries/CMSIS/DSP/Source/FilteringFunctions/arm_fir_interpolate_q15.c ****     blkCnt--;
 239:./Libraries/CMSIS/DSP/Source/FilteringFunctions/arm_fir_interpolate_q15.c ****   }
 240:./Libraries/CMSIS/DSP/Source/FilteringFunctions/arm_fir_interpolate_q15.c **** 
 241:./Libraries/CMSIS/DSP/Source/FilteringFunctions/arm_fir_interpolate_q15.c ****   /* Loop unrolling: Compute remaining outputs */
 242:./Libraries/CMSIS/DSP/Source/FilteringFunctions/arm_fir_interpolate_q15.c ****   blkCnt = blockSize % 0x4U;
 243:./Libraries/CMSIS/DSP/Source/FilteringFunctions/arm_fir_interpolate_q15.c **** 
 244:./Libraries/CMSIS/DSP/Source/FilteringFunctions/arm_fir_interpolate_q15.c **** #else
 245:./Libraries/CMSIS/DSP/Source/FilteringFunctions/arm_fir_interpolate_q15.c **** 
 246:./Libraries/CMSIS/DSP/Source/FilteringFunctions/arm_fir_interpolate_q15.c ****   /* Initialize blkCnt with number of samples */
 247:./Libraries/CMSIS/DSP/Source/FilteringFunctions/arm_fir_interpolate_q15.c ****   blkCnt = blockSize;
  74              		.loc 1 247 10
  75 0032 3B68     		ldr	r3, [r7]
  76 0034 BB62     		str	r3, [r7, #40]
 248:./Libraries/CMSIS/DSP/Source/FilteringFunctions/arm_fir_interpolate_q15.c **** 
 249:./Libraries/CMSIS/DSP/Source/FilteringFunctions/arm_fir_interpolate_q15.c **** #endif /* #if defined (ARM_MATH_LOOPUNROLL) */
 250:./Libraries/CMSIS/DSP/Source/FilteringFunctions/arm_fir_interpolate_q15.c **** 
 251:./Libraries/CMSIS/DSP/Source/FilteringFunctions/arm_fir_interpolate_q15.c ****   while (blkCnt > 0U)
  77              		.loc 1 251 9
  78 0036 71E0     		b	.L2
  79              	.L7:
 252:./Libraries/CMSIS/DSP/Source/FilteringFunctions/arm_fir_interpolate_q15.c ****   {
 253:./Libraries/CMSIS/DSP/Source/FilteringFunctions/arm_fir_interpolate_q15.c ****     /* Copy new input sample into the state buffer */
 254:./Libraries/CMSIS/DSP/Source/FilteringFunctions/arm_fir_interpolate_q15.c ****     *pStateCur++ = *pSrc++;
  80              		.loc 1 254 25
  81 0038 BA68     		ldr	r2, [r7, #8]
  82 003a 931C     		adds	r3, r2, #2
  83 003c BB60     		str	r3, [r7, #8]
  84              		.loc 1 254 15
  85 003e 3B6C     		ldr	r3, [r7, #64]
  86 0040 991C     		adds	r1, r3, #2
  87 0042 3964     		str	r1, [r7, #64]
  88              		.loc 1 254 20
  89 0044 B2F90020 		ldrsh	r2, [r2]
ARM GAS  /tmp/cchvqbWM.s 			page 7


  90              		.loc 1 254 18
  91 0048 1A80     		strh	r2, [r3]	@ movhi
 255:./Libraries/CMSIS/DSP/Source/FilteringFunctions/arm_fir_interpolate_q15.c **** 
 256:./Libraries/CMSIS/DSP/Source/FilteringFunctions/arm_fir_interpolate_q15.c ****     /* Address modifier index of coefficient buffer */
 257:./Libraries/CMSIS/DSP/Source/FilteringFunctions/arm_fir_interpolate_q15.c ****     j = 1U;
  92              		.loc 1 257 7
  93 004a 0123     		movs	r3, #1
  94 004c 3B62     		str	r3, [r7, #32]
 258:./Libraries/CMSIS/DSP/Source/FilteringFunctions/arm_fir_interpolate_q15.c **** 
 259:./Libraries/CMSIS/DSP/Source/FilteringFunctions/arm_fir_interpolate_q15.c ****     /* Loop over the Interpolation factor. */
 260:./Libraries/CMSIS/DSP/Source/FilteringFunctions/arm_fir_interpolate_q15.c ****     i = S->L;
  95              		.loc 1 260 10
  96 004e FB68     		ldr	r3, [r7, #12]
  97 0050 1B78     		ldrb	r3, [r3]	@ zero_extendqisi2
  98              		.loc 1 260 7
  99 0052 FB62     		str	r3, [r7, #44]
 261:./Libraries/CMSIS/DSP/Source/FilteringFunctions/arm_fir_interpolate_q15.c ****     while (i > 0U)
 100              		.loc 1 261 11
 101 0054 59E0     		b	.L3
 102              	.L6:
 262:./Libraries/CMSIS/DSP/Source/FilteringFunctions/arm_fir_interpolate_q15.c ****     {
 263:./Libraries/CMSIS/DSP/Source/FilteringFunctions/arm_fir_interpolate_q15.c ****       /* Set accumulator to zero */
 264:./Libraries/CMSIS/DSP/Source/FilteringFunctions/arm_fir_interpolate_q15.c ****       sum0 = 0;
 103              		.loc 1 264 12
 104 0056 4FF00002 		mov	r2, #0
 105 005a 4FF00003 		mov	r3, #0
 106 005e C7E90C23 		strd	r2, [r7, #48]
 265:./Libraries/CMSIS/DSP/Source/FilteringFunctions/arm_fir_interpolate_q15.c **** 
 266:./Libraries/CMSIS/DSP/Source/FilteringFunctions/arm_fir_interpolate_q15.c ****       /* Initialize state pointer */
 267:./Libraries/CMSIS/DSP/Source/FilteringFunctions/arm_fir_interpolate_q15.c ****       ptr1 = pState;
 107              		.loc 1 267 12
 108 0062 7B6C     		ldr	r3, [r7, #68]
 109 0064 FB63     		str	r3, [r7, #60]
 268:./Libraries/CMSIS/DSP/Source/FilteringFunctions/arm_fir_interpolate_q15.c **** 
 269:./Libraries/CMSIS/DSP/Source/FilteringFunctions/arm_fir_interpolate_q15.c ****       /* Initialize coefficient pointer */
 270:./Libraries/CMSIS/DSP/Source/FilteringFunctions/arm_fir_interpolate_q15.c ****       ptr2 = pCoeffs + (S->L - j);
 110              		.loc 1 270 26
 111 0066 FB68     		ldr	r3, [r7, #12]
 112 0068 1B78     		ldrb	r3, [r3]	@ zero_extendqisi2
 113 006a 1A46     		mov	r2, r3
 114              		.loc 1 270 30
 115 006c 3B6A     		ldr	r3, [r7, #32]
 116 006e D31A     		subs	r3, r2, r3
 117              		.loc 1 270 22
 118 0070 5B00     		lsls	r3, r3, #1
 119              		.loc 1 270 12
 120 0072 FA69     		ldr	r2, [r7, #28]
 121 0074 1344     		add	r3, r3, r2
 122 0076 BB63     		str	r3, [r7, #56]
 271:./Libraries/CMSIS/DSP/Source/FilteringFunctions/arm_fir_interpolate_q15.c **** 
 272:./Libraries/CMSIS/DSP/Source/FilteringFunctions/arm_fir_interpolate_q15.c ****       /* Loop over the polyPhase length.
 273:./Libraries/CMSIS/DSP/Source/FilteringFunctions/arm_fir_interpolate_q15.c ****          Repeat until we've computed numTaps-(4*S->L) coefficients. */
 274:./Libraries/CMSIS/DSP/Source/FilteringFunctions/arm_fir_interpolate_q15.c **** 
 275:./Libraries/CMSIS/DSP/Source/FilteringFunctions/arm_fir_interpolate_q15.c **** #if defined (ARM_MATH_LOOPUNROLL)
 276:./Libraries/CMSIS/DSP/Source/FilteringFunctions/arm_fir_interpolate_q15.c **** 
 277:./Libraries/CMSIS/DSP/Source/FilteringFunctions/arm_fir_interpolate_q15.c ****      /* Loop unrolling: Compute 4 outputs at a time */
 278:./Libraries/CMSIS/DSP/Source/FilteringFunctions/arm_fir_interpolate_q15.c ****       tapCnt = phaseLen >> 2U;
ARM GAS  /tmp/cchvqbWM.s 			page 8


 279:./Libraries/CMSIS/DSP/Source/FilteringFunctions/arm_fir_interpolate_q15.c **** 
 280:./Libraries/CMSIS/DSP/Source/FilteringFunctions/arm_fir_interpolate_q15.c ****       while (tapCnt > 0U)
 281:./Libraries/CMSIS/DSP/Source/FilteringFunctions/arm_fir_interpolate_q15.c ****       {
 282:./Libraries/CMSIS/DSP/Source/FilteringFunctions/arm_fir_interpolate_q15.c ****         /* Perform the multiply-accumulate */
 283:./Libraries/CMSIS/DSP/Source/FilteringFunctions/arm_fir_interpolate_q15.c ****         sum0 += (q63_t) *ptr1++ * *ptr2;
 284:./Libraries/CMSIS/DSP/Source/FilteringFunctions/arm_fir_interpolate_q15.c **** 
 285:./Libraries/CMSIS/DSP/Source/FilteringFunctions/arm_fir_interpolate_q15.c ****         /* Upsampling is done by stuffing L-1 zeros between each sample.
 286:./Libraries/CMSIS/DSP/Source/FilteringFunctions/arm_fir_interpolate_q15.c ****          * So instead of multiplying zeros with coefficients,
 287:./Libraries/CMSIS/DSP/Source/FilteringFunctions/arm_fir_interpolate_q15.c ****          * Increment the coefficient pointer by interpolation factor times. */
 288:./Libraries/CMSIS/DSP/Source/FilteringFunctions/arm_fir_interpolate_q15.c ****         ptr2 += S->L;
 289:./Libraries/CMSIS/DSP/Source/FilteringFunctions/arm_fir_interpolate_q15.c **** 
 290:./Libraries/CMSIS/DSP/Source/FilteringFunctions/arm_fir_interpolate_q15.c ****         sum0 += (q63_t) *ptr1++ * *ptr2;
 291:./Libraries/CMSIS/DSP/Source/FilteringFunctions/arm_fir_interpolate_q15.c ****         ptr2 += S->L;
 292:./Libraries/CMSIS/DSP/Source/FilteringFunctions/arm_fir_interpolate_q15.c **** 
 293:./Libraries/CMSIS/DSP/Source/FilteringFunctions/arm_fir_interpolate_q15.c ****         sum0 += (q63_t) *ptr1++ * *ptr2;
 294:./Libraries/CMSIS/DSP/Source/FilteringFunctions/arm_fir_interpolate_q15.c ****         ptr2 += S->L;
 295:./Libraries/CMSIS/DSP/Source/FilteringFunctions/arm_fir_interpolate_q15.c **** 
 296:./Libraries/CMSIS/DSP/Source/FilteringFunctions/arm_fir_interpolate_q15.c ****         sum0 += (q63_t) *ptr1++ * *ptr2;
 297:./Libraries/CMSIS/DSP/Source/FilteringFunctions/arm_fir_interpolate_q15.c ****         ptr2 += S->L;
 298:./Libraries/CMSIS/DSP/Source/FilteringFunctions/arm_fir_interpolate_q15.c **** 
 299:./Libraries/CMSIS/DSP/Source/FilteringFunctions/arm_fir_interpolate_q15.c ****         /* Decrement loop counter */
 300:./Libraries/CMSIS/DSP/Source/FilteringFunctions/arm_fir_interpolate_q15.c ****         tapCnt--;
 301:./Libraries/CMSIS/DSP/Source/FilteringFunctions/arm_fir_interpolate_q15.c ****       }
 302:./Libraries/CMSIS/DSP/Source/FilteringFunctions/arm_fir_interpolate_q15.c **** 
 303:./Libraries/CMSIS/DSP/Source/FilteringFunctions/arm_fir_interpolate_q15.c ****       /* Loop unrolling: Compute remaining outputs */
 304:./Libraries/CMSIS/DSP/Source/FilteringFunctions/arm_fir_interpolate_q15.c ****       tapCnt = phaseLen % 0x4U;
 305:./Libraries/CMSIS/DSP/Source/FilteringFunctions/arm_fir_interpolate_q15.c **** 
 306:./Libraries/CMSIS/DSP/Source/FilteringFunctions/arm_fir_interpolate_q15.c **** #else
 307:./Libraries/CMSIS/DSP/Source/FilteringFunctions/arm_fir_interpolate_q15.c **** 
 308:./Libraries/CMSIS/DSP/Source/FilteringFunctions/arm_fir_interpolate_q15.c ****       /* Initialize tapCnt with number of samples */
 309:./Libraries/CMSIS/DSP/Source/FilteringFunctions/arm_fir_interpolate_q15.c ****       tapCnt = phaseLen;
 123              		.loc 1 309 14
 124 0078 BB69     		ldr	r3, [r7, #24]
 125 007a 7B62     		str	r3, [r7, #36]
 310:./Libraries/CMSIS/DSP/Source/FilteringFunctions/arm_fir_interpolate_q15.c **** 
 311:./Libraries/CMSIS/DSP/Source/FilteringFunctions/arm_fir_interpolate_q15.c **** #endif /* #if defined (ARM_MATH_LOOPUNROLL) */
 312:./Libraries/CMSIS/DSP/Source/FilteringFunctions/arm_fir_interpolate_q15.c **** 
 313:./Libraries/CMSIS/DSP/Source/FilteringFunctions/arm_fir_interpolate_q15.c ****       while (tapCnt > 0U)
 126              		.loc 1 313 13
 127 007c 26E0     		b	.L4
 128              	.L5:
 314:./Libraries/CMSIS/DSP/Source/FilteringFunctions/arm_fir_interpolate_q15.c ****       {
 315:./Libraries/CMSIS/DSP/Source/FilteringFunctions/arm_fir_interpolate_q15.c ****         /* Perform the multiply-accumulate */
 316:./Libraries/CMSIS/DSP/Source/FilteringFunctions/arm_fir_interpolate_q15.c ****         sum0 += (q63_t) *ptr1++ * *ptr2;
 129              		.loc 1 316 30
 130 007e FB6B     		ldr	r3, [r7, #60]
 131 0080 9A1C     		adds	r2, r3, #2
 132 0082 FA63     		str	r2, [r7, #60]
 133              		.loc 1 316 25
 134 0084 B3F90030 		ldrsh	r3, [r3]
 135              		.loc 1 316 17
 136 0088 18B2     		sxth	r0, r3
 137 008a 4FEAE071 		asr	r1, r0, #31
 138              		.loc 1 316 35
 139 008e BB6B     		ldr	r3, [r7, #56]
 140 0090 B3F90030 		ldrsh	r3, [r3]
 141 0094 1AB2     		sxth	r2, r3
ARM GAS  /tmp/cchvqbWM.s 			page 9


 142 0096 4FEAE273 		asr	r3, r2, #31
 143              		.loc 1 316 33
 144 009a 02FB01FC 		mul	ip, r2, r1
 145 009e 00FB03F6 		mul	r6, r0, r3
 146 00a2 6644     		add	r6, r6, ip
 147 00a4 A0FB0223 		umull	r2, r3, r0, r2
 148 00a8 F118     		adds	r1, r6, r3
 149 00aa 0B46     		mov	r3, r1
 150              		.loc 1 316 14
 151 00ac D7E90C01 		ldrd	r0, [r7, #48]
 152 00b0 8418     		adds	r4, r0, r2
 153 00b2 41EB0305 		adc	r5, r1, r3
 154 00b6 C7E90C45 		strd	r4, [r7, #48]
 317:./Libraries/CMSIS/DSP/Source/FilteringFunctions/arm_fir_interpolate_q15.c **** 
 318:./Libraries/CMSIS/DSP/Source/FilteringFunctions/arm_fir_interpolate_q15.c ****         /* Upsampling is done by stuffing L-1 zeros between each sample.
 319:./Libraries/CMSIS/DSP/Source/FilteringFunctions/arm_fir_interpolate_q15.c ****          * So instead of multiplying zeros with coefficients,
 320:./Libraries/CMSIS/DSP/Source/FilteringFunctions/arm_fir_interpolate_q15.c ****          * Increment the coefficient pointer by interpolation factor times. */
 321:./Libraries/CMSIS/DSP/Source/FilteringFunctions/arm_fir_interpolate_q15.c ****         ptr2 += S->L;
 155              		.loc 1 321 18
 156 00ba FB68     		ldr	r3, [r7, #12]
 157 00bc 1B78     		ldrb	r3, [r3]	@ zero_extendqisi2
 158              		.loc 1 321 14
 159 00be 5B00     		lsls	r3, r3, #1
 160 00c0 BA6B     		ldr	r2, [r7, #56]
 161 00c2 1344     		add	r3, r3, r2
 162 00c4 BB63     		str	r3, [r7, #56]
 322:./Libraries/CMSIS/DSP/Source/FilteringFunctions/arm_fir_interpolate_q15.c **** 
 323:./Libraries/CMSIS/DSP/Source/FilteringFunctions/arm_fir_interpolate_q15.c ****         /* Decrement loop counter */
 324:./Libraries/CMSIS/DSP/Source/FilteringFunctions/arm_fir_interpolate_q15.c ****         tapCnt--;
 163              		.loc 1 324 15
 164 00c6 7B6A     		ldr	r3, [r7, #36]
 165 00c8 013B     		subs	r3, r3, #1
 166 00ca 7B62     		str	r3, [r7, #36]
 167              	.L4:
 313:./Libraries/CMSIS/DSP/Source/FilteringFunctions/arm_fir_interpolate_q15.c ****       {
 168              		.loc 1 313 13
 169 00cc 7B6A     		ldr	r3, [r7, #36]
 170 00ce 002B     		cmp	r3, #0
 171 00d0 D5D1     		bne	.L5
 172              	.LBB2:
 325:./Libraries/CMSIS/DSP/Source/FilteringFunctions/arm_fir_interpolate_q15.c ****       }
 326:./Libraries/CMSIS/DSP/Source/FilteringFunctions/arm_fir_interpolate_q15.c **** 
 327:./Libraries/CMSIS/DSP/Source/FilteringFunctions/arm_fir_interpolate_q15.c ****       /* The result is in the accumulator, store in the destination buffer. */
 328:./Libraries/CMSIS/DSP/Source/FilteringFunctions/arm_fir_interpolate_q15.c ****       *pDst++ = (q15_t) (__SSAT((sum0 >> 15), 16));
 173              		.loc 1 328 26
 174 00d2 D7E90C01 		ldrd	r0, [r7, #48]
 175 00d6 4FF00002 		mov	r2, #0
 176 00da 4FF00003 		mov	r3, #0
 177 00de C20B     		lsrs	r2, r0, #15
 178 00e0 42EA4142 		orr	r2, r2, r1, lsl #17
 179 00e4 CB13     		asrs	r3, r1, #15
 180 00e6 1346     		mov	r3, r2
 181 00e8 7B61     		str	r3, [r7, #20]
 182 00ea 7B69     		ldr	r3, [r7, #20]
 183              		.syntax unified
 184              	@ 328 "./Libraries/CMSIS/DSP/Source/FilteringFunctions/arm_fir_interpolate_q15.c" 1
 185 00ec 03F30F03 		ssat r3, #16, r3
ARM GAS  /tmp/cchvqbWM.s 			page 10


 186              	@ 0 "" 2
 187              		.thumb
 188              		.syntax unified
 189 00f0 3B61     		str	r3, [r7, #16]
 190 00f2 3969     		ldr	r1, [r7, #16]
 191              	.LBE2:
 192              		.loc 1 328 12
 193 00f4 7B68     		ldr	r3, [r7, #4]
 194 00f6 9A1C     		adds	r2, r3, #2
 195 00f8 7A60     		str	r2, [r7, #4]
 196              		.loc 1 328 17
 197 00fa 0AB2     		sxth	r2, r1
 198              		.loc 1 328 15
 199 00fc 1A80     		strh	r2, [r3]	@ movhi
 329:./Libraries/CMSIS/DSP/Source/FilteringFunctions/arm_fir_interpolate_q15.c **** 
 330:./Libraries/CMSIS/DSP/Source/FilteringFunctions/arm_fir_interpolate_q15.c ****       /* Increment the address modifier index of coefficient buffer */
 331:./Libraries/CMSIS/DSP/Source/FilteringFunctions/arm_fir_interpolate_q15.c ****       j++;
 200              		.loc 1 331 8
 201 00fe 3B6A     		ldr	r3, [r7, #32]
 202 0100 0133     		adds	r3, r3, #1
 203 0102 3B62     		str	r3, [r7, #32]
 332:./Libraries/CMSIS/DSP/Source/FilteringFunctions/arm_fir_interpolate_q15.c **** 
 333:./Libraries/CMSIS/DSP/Source/FilteringFunctions/arm_fir_interpolate_q15.c ****       /* Decrement the loop counter */
 334:./Libraries/CMSIS/DSP/Source/FilteringFunctions/arm_fir_interpolate_q15.c ****       i--;
 204              		.loc 1 334 8
 205 0104 FB6A     		ldr	r3, [r7, #44]
 206 0106 013B     		subs	r3, r3, #1
 207 0108 FB62     		str	r3, [r7, #44]
 208              	.L3:
 261:./Libraries/CMSIS/DSP/Source/FilteringFunctions/arm_fir_interpolate_q15.c ****     {
 209              		.loc 1 261 11
 210 010a FB6A     		ldr	r3, [r7, #44]
 211 010c 002B     		cmp	r3, #0
 212 010e A2D1     		bne	.L6
 335:./Libraries/CMSIS/DSP/Source/FilteringFunctions/arm_fir_interpolate_q15.c ****     }
 336:./Libraries/CMSIS/DSP/Source/FilteringFunctions/arm_fir_interpolate_q15.c **** 
 337:./Libraries/CMSIS/DSP/Source/FilteringFunctions/arm_fir_interpolate_q15.c ****     /* Advance the state pointer by 1
 338:./Libraries/CMSIS/DSP/Source/FilteringFunctions/arm_fir_interpolate_q15.c ****      * to process the next group of interpolation factor number samples */
 339:./Libraries/CMSIS/DSP/Source/FilteringFunctions/arm_fir_interpolate_q15.c ****     pState = pState + 1;
 213              		.loc 1 339 12
 214 0110 7B6C     		ldr	r3, [r7, #68]
 215 0112 0233     		adds	r3, r3, #2
 216 0114 7B64     		str	r3, [r7, #68]
 340:./Libraries/CMSIS/DSP/Source/FilteringFunctions/arm_fir_interpolate_q15.c **** 
 341:./Libraries/CMSIS/DSP/Source/FilteringFunctions/arm_fir_interpolate_q15.c ****     /* Decrement the loop counter */
 342:./Libraries/CMSIS/DSP/Source/FilteringFunctions/arm_fir_interpolate_q15.c ****     blkCnt--;
 217              		.loc 1 342 11
 218 0116 BB6A     		ldr	r3, [r7, #40]
 219 0118 013B     		subs	r3, r3, #1
 220 011a BB62     		str	r3, [r7, #40]
 221              	.L2:
 251:./Libraries/CMSIS/DSP/Source/FilteringFunctions/arm_fir_interpolate_q15.c ****   {
 222              		.loc 1 251 9
 223 011c BB6A     		ldr	r3, [r7, #40]
 224 011e 002B     		cmp	r3, #0
 225 0120 8AD1     		bne	.L7
 343:./Libraries/CMSIS/DSP/Source/FilteringFunctions/arm_fir_interpolate_q15.c ****   }
ARM GAS  /tmp/cchvqbWM.s 			page 11


 344:./Libraries/CMSIS/DSP/Source/FilteringFunctions/arm_fir_interpolate_q15.c **** 
 345:./Libraries/CMSIS/DSP/Source/FilteringFunctions/arm_fir_interpolate_q15.c ****   /* Processing is complete.
 346:./Libraries/CMSIS/DSP/Source/FilteringFunctions/arm_fir_interpolate_q15.c ****      Now copy the last phaseLen - 1 samples to the satrt of the state buffer.
 347:./Libraries/CMSIS/DSP/Source/FilteringFunctions/arm_fir_interpolate_q15.c ****      This prepares the state buffer for the next function call. */
 348:./Libraries/CMSIS/DSP/Source/FilteringFunctions/arm_fir_interpolate_q15.c **** 
 349:./Libraries/CMSIS/DSP/Source/FilteringFunctions/arm_fir_interpolate_q15.c ****   /* Points to the start of the state buffer */
 350:./Libraries/CMSIS/DSP/Source/FilteringFunctions/arm_fir_interpolate_q15.c ****   pStateCur = S->pState;
 226              		.loc 1 350 13
 227 0122 FB68     		ldr	r3, [r7, #12]
 228 0124 9B68     		ldr	r3, [r3, #8]
 229 0126 3B64     		str	r3, [r7, #64]
 351:./Libraries/CMSIS/DSP/Source/FilteringFunctions/arm_fir_interpolate_q15.c **** 
 352:./Libraries/CMSIS/DSP/Source/FilteringFunctions/arm_fir_interpolate_q15.c **** #if defined (ARM_MATH_LOOPUNROLL)
 353:./Libraries/CMSIS/DSP/Source/FilteringFunctions/arm_fir_interpolate_q15.c **** 
 354:./Libraries/CMSIS/DSP/Source/FilteringFunctions/arm_fir_interpolate_q15.c ****   /* Loop unrolling: Compute 4 outputs at a time */
 355:./Libraries/CMSIS/DSP/Source/FilteringFunctions/arm_fir_interpolate_q15.c ****   tapCnt = (phaseLen - 1U) >> 2U;
 356:./Libraries/CMSIS/DSP/Source/FilteringFunctions/arm_fir_interpolate_q15.c **** 
 357:./Libraries/CMSIS/DSP/Source/FilteringFunctions/arm_fir_interpolate_q15.c ****   /* copy data */
 358:./Libraries/CMSIS/DSP/Source/FilteringFunctions/arm_fir_interpolate_q15.c ****   while (tapCnt > 0U)
 359:./Libraries/CMSIS/DSP/Source/FilteringFunctions/arm_fir_interpolate_q15.c ****   {
 360:./Libraries/CMSIS/DSP/Source/FilteringFunctions/arm_fir_interpolate_q15.c ****     write_q15x2_ia (&pStateCur, read_q15x2_ia (&pState));
 361:./Libraries/CMSIS/DSP/Source/FilteringFunctions/arm_fir_interpolate_q15.c ****     write_q15x2_ia (&pStateCur, read_q15x2_ia (&pState));
 362:./Libraries/CMSIS/DSP/Source/FilteringFunctions/arm_fir_interpolate_q15.c **** 
 363:./Libraries/CMSIS/DSP/Source/FilteringFunctions/arm_fir_interpolate_q15.c ****     /* Decrement loop counter */
 364:./Libraries/CMSIS/DSP/Source/FilteringFunctions/arm_fir_interpolate_q15.c ****     tapCnt--;
 365:./Libraries/CMSIS/DSP/Source/FilteringFunctions/arm_fir_interpolate_q15.c ****   }
 366:./Libraries/CMSIS/DSP/Source/FilteringFunctions/arm_fir_interpolate_q15.c **** 
 367:./Libraries/CMSIS/DSP/Source/FilteringFunctions/arm_fir_interpolate_q15.c ****   /* Loop unrolling: Compute remaining outputs */
 368:./Libraries/CMSIS/DSP/Source/FilteringFunctions/arm_fir_interpolate_q15.c ****   tapCnt = (phaseLen - 1U) % 0x04U;
 369:./Libraries/CMSIS/DSP/Source/FilteringFunctions/arm_fir_interpolate_q15.c **** 
 370:./Libraries/CMSIS/DSP/Source/FilteringFunctions/arm_fir_interpolate_q15.c **** #else
 371:./Libraries/CMSIS/DSP/Source/FilteringFunctions/arm_fir_interpolate_q15.c **** 
 372:./Libraries/CMSIS/DSP/Source/FilteringFunctions/arm_fir_interpolate_q15.c ****     /* Initialize tapCnt with number of samples */
 373:./Libraries/CMSIS/DSP/Source/FilteringFunctions/arm_fir_interpolate_q15.c ****     tapCnt = (phaseLen - 1U);
 230              		.loc 1 373 12
 231 0128 BB69     		ldr	r3, [r7, #24]
 232 012a 013B     		subs	r3, r3, #1
 233 012c 7B62     		str	r3, [r7, #36]
 374:./Libraries/CMSIS/DSP/Source/FilteringFunctions/arm_fir_interpolate_q15.c **** 
 375:./Libraries/CMSIS/DSP/Source/FilteringFunctions/arm_fir_interpolate_q15.c **** #endif /* #if defined (ARM_MATH_LOOPUNROLL) */
 376:./Libraries/CMSIS/DSP/Source/FilteringFunctions/arm_fir_interpolate_q15.c **** 
 377:./Libraries/CMSIS/DSP/Source/FilteringFunctions/arm_fir_interpolate_q15.c ****   /* Copy data */
 378:./Libraries/CMSIS/DSP/Source/FilteringFunctions/arm_fir_interpolate_q15.c ****   while (tapCnt > 0U)
 234              		.loc 1 378 9
 235 012e 0BE0     		b	.L8
 236              	.L9:
 379:./Libraries/CMSIS/DSP/Source/FilteringFunctions/arm_fir_interpolate_q15.c ****   {
 380:./Libraries/CMSIS/DSP/Source/FilteringFunctions/arm_fir_interpolate_q15.c ****     *pStateCur++ = *pState++;
 237              		.loc 1 380 27
 238 0130 7A6C     		ldr	r2, [r7, #68]
 239 0132 931C     		adds	r3, r2, #2
 240 0134 7B64     		str	r3, [r7, #68]
 241              		.loc 1 380 15
 242 0136 3B6C     		ldr	r3, [r7, #64]
 243 0138 991C     		adds	r1, r3, #2
 244 013a 3964     		str	r1, [r7, #64]
 245              		.loc 1 380 20
ARM GAS  /tmp/cchvqbWM.s 			page 12


 246 013c B2F90020 		ldrsh	r2, [r2]
 247              		.loc 1 380 18
 248 0140 1A80     		strh	r2, [r3]	@ movhi
 381:./Libraries/CMSIS/DSP/Source/FilteringFunctions/arm_fir_interpolate_q15.c **** 
 382:./Libraries/CMSIS/DSP/Source/FilteringFunctions/arm_fir_interpolate_q15.c ****     /* Decrement loop counter */
 383:./Libraries/CMSIS/DSP/Source/FilteringFunctions/arm_fir_interpolate_q15.c ****     tapCnt--;
 249              		.loc 1 383 11
 250 0142 7B6A     		ldr	r3, [r7, #36]
 251 0144 013B     		subs	r3, r3, #1
 252 0146 7B62     		str	r3, [r7, #36]
 253              	.L8:
 378:./Libraries/CMSIS/DSP/Source/FilteringFunctions/arm_fir_interpolate_q15.c ****   {
 254              		.loc 1 378 9
 255 0148 7B6A     		ldr	r3, [r7, #36]
 256 014a 002B     		cmp	r3, #0
 257 014c F0D1     		bne	.L9
 384:./Libraries/CMSIS/DSP/Source/FilteringFunctions/arm_fir_interpolate_q15.c ****   }
 385:./Libraries/CMSIS/DSP/Source/FilteringFunctions/arm_fir_interpolate_q15.c **** 
 386:./Libraries/CMSIS/DSP/Source/FilteringFunctions/arm_fir_interpolate_q15.c **** #else
 387:./Libraries/CMSIS/DSP/Source/FilteringFunctions/arm_fir_interpolate_q15.c **** /* alternate version for CM0_FAMILY */
 388:./Libraries/CMSIS/DSP/Source/FilteringFunctions/arm_fir_interpolate_q15.c **** 
 389:./Libraries/CMSIS/DSP/Source/FilteringFunctions/arm_fir_interpolate_q15.c ****         q15_t *pState = S->pState;                     /* State pointer */
 390:./Libraries/CMSIS/DSP/Source/FilteringFunctions/arm_fir_interpolate_q15.c ****   const q15_t *pCoeffs = S->pCoeffs;                   /* Coefficient pointer */
 391:./Libraries/CMSIS/DSP/Source/FilteringFunctions/arm_fir_interpolate_q15.c ****         q15_t *pStateCur;                              /* Points to the current sample of the state
 392:./Libraries/CMSIS/DSP/Source/FilteringFunctions/arm_fir_interpolate_q15.c ****         q15_t *ptr1;                                   /* Temporary pointer for state buffer */
 393:./Libraries/CMSIS/DSP/Source/FilteringFunctions/arm_fir_interpolate_q15.c ****   const q15_t *ptr2;                                   /* Temporary pointer for coefficient buffer 
 394:./Libraries/CMSIS/DSP/Source/FilteringFunctions/arm_fir_interpolate_q15.c ****         q63_t sum0;                                    /* Accumulators */
 395:./Libraries/CMSIS/DSP/Source/FilteringFunctions/arm_fir_interpolate_q15.c ****         uint32_t i, blkCnt, tapCnt;                    /* Loop counters */
 396:./Libraries/CMSIS/DSP/Source/FilteringFunctions/arm_fir_interpolate_q15.c ****         uint32_t phaseLen = S->phaseLength;            /* Length of each polyphase filter component
 397:./Libraries/CMSIS/DSP/Source/FilteringFunctions/arm_fir_interpolate_q15.c **** 
 398:./Libraries/CMSIS/DSP/Source/FilteringFunctions/arm_fir_interpolate_q15.c ****   /* S->pState buffer contains previous frame (phaseLen - 1) samples */
 399:./Libraries/CMSIS/DSP/Source/FilteringFunctions/arm_fir_interpolate_q15.c ****   /* pStateCur points to the location where the new input data should be written */
 400:./Libraries/CMSIS/DSP/Source/FilteringFunctions/arm_fir_interpolate_q15.c ****   pStateCur = S->pState + (phaseLen - 1U);
 401:./Libraries/CMSIS/DSP/Source/FilteringFunctions/arm_fir_interpolate_q15.c **** 
 402:./Libraries/CMSIS/DSP/Source/FilteringFunctions/arm_fir_interpolate_q15.c ****   /* Total number of intput samples */
 403:./Libraries/CMSIS/DSP/Source/FilteringFunctions/arm_fir_interpolate_q15.c ****   blkCnt = blockSize;
 404:./Libraries/CMSIS/DSP/Source/FilteringFunctions/arm_fir_interpolate_q15.c **** 
 405:./Libraries/CMSIS/DSP/Source/FilteringFunctions/arm_fir_interpolate_q15.c ****   /* Loop over the blockSize. */
 406:./Libraries/CMSIS/DSP/Source/FilteringFunctions/arm_fir_interpolate_q15.c ****   while (blkCnt > 0U)
 407:./Libraries/CMSIS/DSP/Source/FilteringFunctions/arm_fir_interpolate_q15.c ****   {
 408:./Libraries/CMSIS/DSP/Source/FilteringFunctions/arm_fir_interpolate_q15.c ****     /* Copy new input sample into the state buffer */
 409:./Libraries/CMSIS/DSP/Source/FilteringFunctions/arm_fir_interpolate_q15.c ****     *pStateCur++ = *pSrc++;
 410:./Libraries/CMSIS/DSP/Source/FilteringFunctions/arm_fir_interpolate_q15.c **** 
 411:./Libraries/CMSIS/DSP/Source/FilteringFunctions/arm_fir_interpolate_q15.c ****     /* Loop over the Interpolation factor. */
 412:./Libraries/CMSIS/DSP/Source/FilteringFunctions/arm_fir_interpolate_q15.c ****     i = S->L;
 413:./Libraries/CMSIS/DSP/Source/FilteringFunctions/arm_fir_interpolate_q15.c **** 
 414:./Libraries/CMSIS/DSP/Source/FilteringFunctions/arm_fir_interpolate_q15.c ****     while (i > 0U)
 415:./Libraries/CMSIS/DSP/Source/FilteringFunctions/arm_fir_interpolate_q15.c ****     {
 416:./Libraries/CMSIS/DSP/Source/FilteringFunctions/arm_fir_interpolate_q15.c ****       /* Set accumulator to zero */
 417:./Libraries/CMSIS/DSP/Source/FilteringFunctions/arm_fir_interpolate_q15.c ****       sum0 = 0;
 418:./Libraries/CMSIS/DSP/Source/FilteringFunctions/arm_fir_interpolate_q15.c **** 
 419:./Libraries/CMSIS/DSP/Source/FilteringFunctions/arm_fir_interpolate_q15.c ****       /* Initialize state pointer */
 420:./Libraries/CMSIS/DSP/Source/FilteringFunctions/arm_fir_interpolate_q15.c ****       ptr1 = pState;
 421:./Libraries/CMSIS/DSP/Source/FilteringFunctions/arm_fir_interpolate_q15.c **** 
 422:./Libraries/CMSIS/DSP/Source/FilteringFunctions/arm_fir_interpolate_q15.c ****       /* Initialize coefficient pointer */
 423:./Libraries/CMSIS/DSP/Source/FilteringFunctions/arm_fir_interpolate_q15.c ****       ptr2 = pCoeffs + (i - 1U);
 424:./Libraries/CMSIS/DSP/Source/FilteringFunctions/arm_fir_interpolate_q15.c **** 
ARM GAS  /tmp/cchvqbWM.s 			page 13


 425:./Libraries/CMSIS/DSP/Source/FilteringFunctions/arm_fir_interpolate_q15.c ****       /* Loop over the polyPhase length */
 426:./Libraries/CMSIS/DSP/Source/FilteringFunctions/arm_fir_interpolate_q15.c ****       tapCnt = phaseLen;
 427:./Libraries/CMSIS/DSP/Source/FilteringFunctions/arm_fir_interpolate_q15.c **** 
 428:./Libraries/CMSIS/DSP/Source/FilteringFunctions/arm_fir_interpolate_q15.c ****       while (tapCnt > 0U)
 429:./Libraries/CMSIS/DSP/Source/FilteringFunctions/arm_fir_interpolate_q15.c ****       {
 430:./Libraries/CMSIS/DSP/Source/FilteringFunctions/arm_fir_interpolate_q15.c ****         /* Perform the multiply-accumulate */
 431:./Libraries/CMSIS/DSP/Source/FilteringFunctions/arm_fir_interpolate_q15.c ****         sum0 += ((q63_t) *ptr1++ * *ptr2);
 432:./Libraries/CMSIS/DSP/Source/FilteringFunctions/arm_fir_interpolate_q15.c **** 
 433:./Libraries/CMSIS/DSP/Source/FilteringFunctions/arm_fir_interpolate_q15.c ****         /* Increment the coefficient pointer by interpolation factor times. */
 434:./Libraries/CMSIS/DSP/Source/FilteringFunctions/arm_fir_interpolate_q15.c ****         ptr2 += S->L;
 435:./Libraries/CMSIS/DSP/Source/FilteringFunctions/arm_fir_interpolate_q15.c **** 
 436:./Libraries/CMSIS/DSP/Source/FilteringFunctions/arm_fir_interpolate_q15.c ****         /* Decrement the loop counter */
 437:./Libraries/CMSIS/DSP/Source/FilteringFunctions/arm_fir_interpolate_q15.c ****         tapCnt--;
 438:./Libraries/CMSIS/DSP/Source/FilteringFunctions/arm_fir_interpolate_q15.c ****       }
 439:./Libraries/CMSIS/DSP/Source/FilteringFunctions/arm_fir_interpolate_q15.c **** 
 440:./Libraries/CMSIS/DSP/Source/FilteringFunctions/arm_fir_interpolate_q15.c ****       /* Store the result after converting to 1.15 format in the destination buffer. */
 441:./Libraries/CMSIS/DSP/Source/FilteringFunctions/arm_fir_interpolate_q15.c ****       *pDst++ = (q15_t) (__SSAT((sum0 >> 15), 16));
 442:./Libraries/CMSIS/DSP/Source/FilteringFunctions/arm_fir_interpolate_q15.c **** 
 443:./Libraries/CMSIS/DSP/Source/FilteringFunctions/arm_fir_interpolate_q15.c ****       /* Decrement loop counter */
 444:./Libraries/CMSIS/DSP/Source/FilteringFunctions/arm_fir_interpolate_q15.c ****       i--;
 445:./Libraries/CMSIS/DSP/Source/FilteringFunctions/arm_fir_interpolate_q15.c ****     }
 446:./Libraries/CMSIS/DSP/Source/FilteringFunctions/arm_fir_interpolate_q15.c **** 
 447:./Libraries/CMSIS/DSP/Source/FilteringFunctions/arm_fir_interpolate_q15.c ****     /* Advance the state pointer by 1
 448:./Libraries/CMSIS/DSP/Source/FilteringFunctions/arm_fir_interpolate_q15.c ****      * to process the next group of interpolation factor number samples */
 449:./Libraries/CMSIS/DSP/Source/FilteringFunctions/arm_fir_interpolate_q15.c ****     pState = pState + 1;
 450:./Libraries/CMSIS/DSP/Source/FilteringFunctions/arm_fir_interpolate_q15.c **** 
 451:./Libraries/CMSIS/DSP/Source/FilteringFunctions/arm_fir_interpolate_q15.c ****     /* Decrement loop counter */
 452:./Libraries/CMSIS/DSP/Source/FilteringFunctions/arm_fir_interpolate_q15.c ****     blkCnt--;
 453:./Libraries/CMSIS/DSP/Source/FilteringFunctions/arm_fir_interpolate_q15.c ****   }
 454:./Libraries/CMSIS/DSP/Source/FilteringFunctions/arm_fir_interpolate_q15.c **** 
 455:./Libraries/CMSIS/DSP/Source/FilteringFunctions/arm_fir_interpolate_q15.c ****   /* Processing is complete.
 456:./Libraries/CMSIS/DSP/Source/FilteringFunctions/arm_fir_interpolate_q15.c ****    ** Now copy the last phaseLen - 1 samples to the start of the state buffer.
 457:./Libraries/CMSIS/DSP/Source/FilteringFunctions/arm_fir_interpolate_q15.c ****    ** This prepares the state buffer for the next function call. */
 458:./Libraries/CMSIS/DSP/Source/FilteringFunctions/arm_fir_interpolate_q15.c **** 
 459:./Libraries/CMSIS/DSP/Source/FilteringFunctions/arm_fir_interpolate_q15.c ****   /* Points to the start of the state buffer */
 460:./Libraries/CMSIS/DSP/Source/FilteringFunctions/arm_fir_interpolate_q15.c ****   pStateCur = S->pState;
 461:./Libraries/CMSIS/DSP/Source/FilteringFunctions/arm_fir_interpolate_q15.c **** 
 462:./Libraries/CMSIS/DSP/Source/FilteringFunctions/arm_fir_interpolate_q15.c ****   tapCnt = phaseLen - 1U;
 463:./Libraries/CMSIS/DSP/Source/FilteringFunctions/arm_fir_interpolate_q15.c **** 
 464:./Libraries/CMSIS/DSP/Source/FilteringFunctions/arm_fir_interpolate_q15.c ****   /* Copy data */
 465:./Libraries/CMSIS/DSP/Source/FilteringFunctions/arm_fir_interpolate_q15.c ****   while (tapCnt > 0U)
 466:./Libraries/CMSIS/DSP/Source/FilteringFunctions/arm_fir_interpolate_q15.c ****   {
 467:./Libraries/CMSIS/DSP/Source/FilteringFunctions/arm_fir_interpolate_q15.c ****     *pStateCur++ = *pState++;
 468:./Libraries/CMSIS/DSP/Source/FilteringFunctions/arm_fir_interpolate_q15.c **** 
 469:./Libraries/CMSIS/DSP/Source/FilteringFunctions/arm_fir_interpolate_q15.c ****     /* Decrement loop counter */
 470:./Libraries/CMSIS/DSP/Source/FilteringFunctions/arm_fir_interpolate_q15.c ****     tapCnt--;
 471:./Libraries/CMSIS/DSP/Source/FilteringFunctions/arm_fir_interpolate_q15.c ****   }
 472:./Libraries/CMSIS/DSP/Source/FilteringFunctions/arm_fir_interpolate_q15.c **** 
 473:./Libraries/CMSIS/DSP/Source/FilteringFunctions/arm_fir_interpolate_q15.c **** #endif /* #if !defined(ARM_MATH_CM0_FAMILY) */
 474:./Libraries/CMSIS/DSP/Source/FilteringFunctions/arm_fir_interpolate_q15.c **** 
 475:./Libraries/CMSIS/DSP/Source/FilteringFunctions/arm_fir_interpolate_q15.c **** }
 258              		.loc 1 475 1
 259 014e 00BF     		nop
 260 0150 00BF     		nop
 261 0152 4837     		adds	r7, r7, #72
 262              	.LCFI3:
 263              		.cfi_def_cfa_offset 16
ARM GAS  /tmp/cchvqbWM.s 			page 14


 264 0154 BD46     		mov	sp, r7
 265              	.LCFI4:
 266              		.cfi_def_cfa_register 13
 267              		@ sp needed
 268 0156 F0BC     		pop	{r4, r5, r6, r7}
 269              	.LCFI5:
 270              		.cfi_restore 7
 271              		.cfi_restore 6
 272              		.cfi_restore 5
 273              		.cfi_restore 4
 274              		.cfi_def_cfa_offset 0
 275 0158 7047     		bx	lr
 276              		.cfi_endproc
 277              	.LFE145:
 279              		.text
 280              	.Letext0:
 281              		.file 2 "/usr/lib/gcc/arm-none-eabi/9.2.1/include/stdint.h"
 282              		.file 3 "/usr/lib/gcc/arm-none-eabi/9.2.1/include/stddef.h"
 283              		.file 4 "/usr/include/newlib/sys/_types.h"
 284              		.file 5 "/usr/include/newlib/sys/reent.h"
 285              		.file 6 "/usr/include/newlib/sys/lock.h"
 286              		.file 7 "/usr/include/newlib/math.h"
 287              		.file 8 "./Libraries/CMSIS/DSP/Include/arm_math.h"
ARM GAS  /tmp/cchvqbWM.s 			page 15

