ARM GAS  /tmp/ccySWVws.s 			page 1


   1              		.cpu cortex-m7
   2              		.eabi_attribute 28, 1
   3              		.eabi_attribute 20, 1
   4              		.eabi_attribute 21, 1
   5              		.eabi_attribute 23, 3
   6              		.eabi_attribute 24, 1
   7              		.eabi_attribute 25, 1
   8              		.eabi_attribute 26, 1
   9              		.eabi_attribute 30, 6
  10              		.eabi_attribute 34, 1
  11              		.eabi_attribute 18, 4
  12              		.file	"arm_bitreversal2.c"
  13              		.text
  14              	.Ltext0:
  15              		.cfi_sections	.debug_frame
  16              		.section	.text.arm_bitreversal_32,"ax",%progbits
  17              		.align	1
  18              		.global	arm_bitreversal_32
  19              		.arch armv7e-m
  20              		.syntax unified
  21              		.thumb
  22              		.thumb_func
  23              		.fpu fpv5-d16
  25              	arm_bitreversal_32:
  26              	.LFB145:
  27              		.file 1 "./Libraries/CMSIS/DSP/Source/TransformFunctions/arm_bitreversal2.c"
   1:./Libraries/CMSIS/DSP/Source/TransformFunctions/arm_bitreversal2.c **** /* ----------------------------------------------------------------------
   2:./Libraries/CMSIS/DSP/Source/TransformFunctions/arm_bitreversal2.c ****  * Project:      CMSIS DSP Library
   3:./Libraries/CMSIS/DSP/Source/TransformFunctions/arm_bitreversal2.c ****  * Title:        arm_bitreversal2.c
   4:./Libraries/CMSIS/DSP/Source/TransformFunctions/arm_bitreversal2.c ****  * Description:  Bitreversal functions
   5:./Libraries/CMSIS/DSP/Source/TransformFunctions/arm_bitreversal2.c ****  *
   6:./Libraries/CMSIS/DSP/Source/TransformFunctions/arm_bitreversal2.c ****  * $Date:        18. March 2019
   7:./Libraries/CMSIS/DSP/Source/TransformFunctions/arm_bitreversal2.c ****  * $Revision:    V1.0.0
   8:./Libraries/CMSIS/DSP/Source/TransformFunctions/arm_bitreversal2.c ****  *
   9:./Libraries/CMSIS/DSP/Source/TransformFunctions/arm_bitreversal2.c ****  * Target Processor: Cortex-M cores
  10:./Libraries/CMSIS/DSP/Source/TransformFunctions/arm_bitreversal2.c ****  * -------------------------------------------------------------------- */
  11:./Libraries/CMSIS/DSP/Source/TransformFunctions/arm_bitreversal2.c **** /*
  12:./Libraries/CMSIS/DSP/Source/TransformFunctions/arm_bitreversal2.c ****  * Copyright (C) 2019 ARM Limited or its affiliates. All rights reserved.
  13:./Libraries/CMSIS/DSP/Source/TransformFunctions/arm_bitreversal2.c ****  *
  14:./Libraries/CMSIS/DSP/Source/TransformFunctions/arm_bitreversal2.c ****  * SPDX-License-Identifier: Apache-2.0
  15:./Libraries/CMSIS/DSP/Source/TransformFunctions/arm_bitreversal2.c ****  *
  16:./Libraries/CMSIS/DSP/Source/TransformFunctions/arm_bitreversal2.c ****  * Licensed under the Apache License, Version 2.0 (the License); you may
  17:./Libraries/CMSIS/DSP/Source/TransformFunctions/arm_bitreversal2.c ****  * not use this file except in compliance with the License.
  18:./Libraries/CMSIS/DSP/Source/TransformFunctions/arm_bitreversal2.c ****  * You may obtain a copy of the License at
  19:./Libraries/CMSIS/DSP/Source/TransformFunctions/arm_bitreversal2.c ****  *
  20:./Libraries/CMSIS/DSP/Source/TransformFunctions/arm_bitreversal2.c ****  * www.apache.org/licenses/LICENSE-2.0
  21:./Libraries/CMSIS/DSP/Source/TransformFunctions/arm_bitreversal2.c ****  *
  22:./Libraries/CMSIS/DSP/Source/TransformFunctions/arm_bitreversal2.c ****  * Unless required by applicable law or agreed to in writing, software
  23:./Libraries/CMSIS/DSP/Source/TransformFunctions/arm_bitreversal2.c ****  * distributed under the License is distributed on an AS IS BASIS, WITHOUT
  24:./Libraries/CMSIS/DSP/Source/TransformFunctions/arm_bitreversal2.c ****  * WARRANTIES OR CONDITIONS OF ANY KIND, either express or implied.
  25:./Libraries/CMSIS/DSP/Source/TransformFunctions/arm_bitreversal2.c ****  * See the License for the specific language governing permissions and
  26:./Libraries/CMSIS/DSP/Source/TransformFunctions/arm_bitreversal2.c ****  * limitations under the License.
  27:./Libraries/CMSIS/DSP/Source/TransformFunctions/arm_bitreversal2.c ****  */
  28:./Libraries/CMSIS/DSP/Source/TransformFunctions/arm_bitreversal2.c **** 
  29:./Libraries/CMSIS/DSP/Source/TransformFunctions/arm_bitreversal2.c **** #include "arm_math.h"
  30:./Libraries/CMSIS/DSP/Source/TransformFunctions/arm_bitreversal2.c **** #include "arm_common_tables.h"
  31:./Libraries/CMSIS/DSP/Source/TransformFunctions/arm_bitreversal2.c **** 
ARM GAS  /tmp/ccySWVws.s 			page 2


  32:./Libraries/CMSIS/DSP/Source/TransformFunctions/arm_bitreversal2.c **** /**
  33:./Libraries/CMSIS/DSP/Source/TransformFunctions/arm_bitreversal2.c ****   @brief         In-place 32 bit reversal function.
  34:./Libraries/CMSIS/DSP/Source/TransformFunctions/arm_bitreversal2.c ****   @param[in,out] pSrc        points to in-place buffer of unknown 32-bit data type
  35:./Libraries/CMSIS/DSP/Source/TransformFunctions/arm_bitreversal2.c ****   @param[in]     bitRevLen   bit reversal table length
  36:./Libraries/CMSIS/DSP/Source/TransformFunctions/arm_bitreversal2.c ****   @param[in]     pBitRevTab  points to bit reversal table
  37:./Libraries/CMSIS/DSP/Source/TransformFunctions/arm_bitreversal2.c ****   @return        none
  38:./Libraries/CMSIS/DSP/Source/TransformFunctions/arm_bitreversal2.c **** */
  39:./Libraries/CMSIS/DSP/Source/TransformFunctions/arm_bitreversal2.c **** 
  40:./Libraries/CMSIS/DSP/Source/TransformFunctions/arm_bitreversal2.c **** void arm_bitreversal_32(
  41:./Libraries/CMSIS/DSP/Source/TransformFunctions/arm_bitreversal2.c ****         uint32_t *pSrc, 
  42:./Libraries/CMSIS/DSP/Source/TransformFunctions/arm_bitreversal2.c ****   const uint16_t bitRevLen, 
  43:./Libraries/CMSIS/DSP/Source/TransformFunctions/arm_bitreversal2.c ****   const uint16_t *pBitRevTab)
  44:./Libraries/CMSIS/DSP/Source/TransformFunctions/arm_bitreversal2.c **** {
  28              		.loc 1 44 1
  29              		.cfi_startproc
  30              		@ args = 0, pretend = 0, frame = 32
  31              		@ frame_needed = 1, uses_anonymous_args = 0
  32              		@ link register save eliminated.
  33 0000 80B4     		push	{r7}
  34              	.LCFI0:
  35              		.cfi_def_cfa_offset 4
  36              		.cfi_offset 7, -4
  37 0002 89B0     		sub	sp, sp, #36
  38              	.LCFI1:
  39              		.cfi_def_cfa_offset 40
  40 0004 00AF     		add	r7, sp, #0
  41              	.LCFI2:
  42              		.cfi_def_cfa_register 7
  43 0006 F860     		str	r0, [r7, #12]
  44 0008 0B46     		mov	r3, r1
  45 000a 7A60     		str	r2, [r7, #4]
  46 000c 7B81     		strh	r3, [r7, #10]	@ movhi
  45:./Libraries/CMSIS/DSP/Source/TransformFunctions/arm_bitreversal2.c ****   uint32_t a, b, i, tmp;
  46:./Libraries/CMSIS/DSP/Source/TransformFunctions/arm_bitreversal2.c **** 
  47:./Libraries/CMSIS/DSP/Source/TransformFunctions/arm_bitreversal2.c ****   for (i = 0; i < bitRevLen; )
  47              		.loc 1 47 10
  48 000e 0023     		movs	r3, #0
  49 0010 FB61     		str	r3, [r7, #28]
  50              		.loc 1 47 3
  51 0012 43E0     		b	.L2
  52              	.L3:
  48:./Libraries/CMSIS/DSP/Source/TransformFunctions/arm_bitreversal2.c ****   {
  49:./Libraries/CMSIS/DSP/Source/TransformFunctions/arm_bitreversal2.c ****      a = pBitRevTab[i    ] >> 2;
  53              		.loc 1 49 20
  54 0014 FB69     		ldr	r3, [r7, #28]
  55 0016 5B00     		lsls	r3, r3, #1
  56 0018 7A68     		ldr	r2, [r7, #4]
  57 001a 1344     		add	r3, r3, r2
  58 001c 1B88     		ldrh	r3, [r3]
  59              		.loc 1 49 28
  60 001e 9B08     		lsrs	r3, r3, #2
  61 0020 9BB2     		uxth	r3, r3
  62              		.loc 1 49 8
  63 0022 BB61     		str	r3, [r7, #24]
  50:./Libraries/CMSIS/DSP/Source/TransformFunctions/arm_bitreversal2.c ****      b = pBitRevTab[i + 1] >> 2;
  64              		.loc 1 50 20
  65 0024 FB69     		ldr	r3, [r7, #28]
ARM GAS  /tmp/ccySWVws.s 			page 3


  66 0026 0133     		adds	r3, r3, #1
  67 0028 5B00     		lsls	r3, r3, #1
  68 002a 7A68     		ldr	r2, [r7, #4]
  69 002c 1344     		add	r3, r3, r2
  70 002e 1B88     		ldrh	r3, [r3]
  71              		.loc 1 50 28
  72 0030 9B08     		lsrs	r3, r3, #2
  73 0032 9BB2     		uxth	r3, r3
  74              		.loc 1 50 8
  75 0034 7B61     		str	r3, [r7, #20]
  51:./Libraries/CMSIS/DSP/Source/TransformFunctions/arm_bitreversal2.c **** 
  52:./Libraries/CMSIS/DSP/Source/TransformFunctions/arm_bitreversal2.c ****      //real
  53:./Libraries/CMSIS/DSP/Source/TransformFunctions/arm_bitreversal2.c ****      tmp = pSrc[a];
  76              		.loc 1 53 16
  77 0036 BB69     		ldr	r3, [r7, #24]
  78 0038 9B00     		lsls	r3, r3, #2
  79 003a FA68     		ldr	r2, [r7, #12]
  80 003c 1344     		add	r3, r3, r2
  81              		.loc 1 53 10
  82 003e 1B68     		ldr	r3, [r3]
  83 0040 3B61     		str	r3, [r7, #16]
  54:./Libraries/CMSIS/DSP/Source/TransformFunctions/arm_bitreversal2.c ****      pSrc[a] = pSrc[b];
  84              		.loc 1 54 20
  85 0042 7B69     		ldr	r3, [r7, #20]
  86 0044 9B00     		lsls	r3, r3, #2
  87 0046 FA68     		ldr	r2, [r7, #12]
  88 0048 1A44     		add	r2, r2, r3
  89              		.loc 1 54 10
  90 004a BB69     		ldr	r3, [r7, #24]
  91 004c 9B00     		lsls	r3, r3, #2
  92 004e F968     		ldr	r1, [r7, #12]
  93 0050 0B44     		add	r3, r3, r1
  94              		.loc 1 54 20
  95 0052 1268     		ldr	r2, [r2]
  96              		.loc 1 54 14
  97 0054 1A60     		str	r2, [r3]
  55:./Libraries/CMSIS/DSP/Source/TransformFunctions/arm_bitreversal2.c ****      pSrc[b] = tmp;
  98              		.loc 1 55 10
  99 0056 7B69     		ldr	r3, [r7, #20]
 100 0058 9B00     		lsls	r3, r3, #2
 101 005a FA68     		ldr	r2, [r7, #12]
 102 005c 1344     		add	r3, r3, r2
 103              		.loc 1 55 14
 104 005e 3A69     		ldr	r2, [r7, #16]
 105 0060 1A60     		str	r2, [r3]
  56:./Libraries/CMSIS/DSP/Source/TransformFunctions/arm_bitreversal2.c **** 
  57:./Libraries/CMSIS/DSP/Source/TransformFunctions/arm_bitreversal2.c ****      //complex
  58:./Libraries/CMSIS/DSP/Source/TransformFunctions/arm_bitreversal2.c ****      tmp = pSrc[a+1];
 106              		.loc 1 58 16
 107 0062 BB69     		ldr	r3, [r7, #24]
 108 0064 0133     		adds	r3, r3, #1
 109 0066 9B00     		lsls	r3, r3, #2
 110 0068 FA68     		ldr	r2, [r7, #12]
 111 006a 1344     		add	r3, r3, r2
 112              		.loc 1 58 10
 113 006c 1B68     		ldr	r3, [r3]
 114 006e 3B61     		str	r3, [r7, #16]
ARM GAS  /tmp/ccySWVws.s 			page 4


  59:./Libraries/CMSIS/DSP/Source/TransformFunctions/arm_bitreversal2.c ****      pSrc[a+1] = pSrc[b+1];
 115              		.loc 1 59 22
 116 0070 7B69     		ldr	r3, [r7, #20]
 117 0072 0133     		adds	r3, r3, #1
 118 0074 9B00     		lsls	r3, r3, #2
 119 0076 FA68     		ldr	r2, [r7, #12]
 120 0078 1A44     		add	r2, r2, r3
 121              		.loc 1 59 10
 122 007a BB69     		ldr	r3, [r7, #24]
 123 007c 0133     		adds	r3, r3, #1
 124 007e 9B00     		lsls	r3, r3, #2
 125 0080 F968     		ldr	r1, [r7, #12]
 126 0082 0B44     		add	r3, r3, r1
 127              		.loc 1 59 22
 128 0084 1268     		ldr	r2, [r2]
 129              		.loc 1 59 16
 130 0086 1A60     		str	r2, [r3]
  60:./Libraries/CMSIS/DSP/Source/TransformFunctions/arm_bitreversal2.c ****      pSrc[b+1] = tmp;
 131              		.loc 1 60 10
 132 0088 7B69     		ldr	r3, [r7, #20]
 133 008a 0133     		adds	r3, r3, #1
 134 008c 9B00     		lsls	r3, r3, #2
 135 008e FA68     		ldr	r2, [r7, #12]
 136 0090 1344     		add	r3, r3, r2
 137              		.loc 1 60 16
 138 0092 3A69     		ldr	r2, [r7, #16]
 139 0094 1A60     		str	r2, [r3]
  61:./Libraries/CMSIS/DSP/Source/TransformFunctions/arm_bitreversal2.c **** 
  62:./Libraries/CMSIS/DSP/Source/TransformFunctions/arm_bitreversal2.c ****     i += 2;
 140              		.loc 1 62 7
 141 0096 FB69     		ldr	r3, [r7, #28]
 142 0098 0233     		adds	r3, r3, #2
 143 009a FB61     		str	r3, [r7, #28]
 144              	.L2:
  47:./Libraries/CMSIS/DSP/Source/TransformFunctions/arm_bitreversal2.c ****   {
 145              		.loc 1 47 17 discriminator 1
 146 009c 7B89     		ldrh	r3, [r7, #10]
  47:./Libraries/CMSIS/DSP/Source/TransformFunctions/arm_bitreversal2.c ****   {
 147              		.loc 1 47 3 discriminator 1
 148 009e FA69     		ldr	r2, [r7, #28]
 149 00a0 9A42     		cmp	r2, r3
 150 00a2 B7D3     		bcc	.L3
  63:./Libraries/CMSIS/DSP/Source/TransformFunctions/arm_bitreversal2.c ****   }
  64:./Libraries/CMSIS/DSP/Source/TransformFunctions/arm_bitreversal2.c **** }
 151              		.loc 1 64 1
 152 00a4 00BF     		nop
 153 00a6 00BF     		nop
 154 00a8 2437     		adds	r7, r7, #36
 155              	.LCFI3:
 156              		.cfi_def_cfa_offset 4
 157 00aa BD46     		mov	sp, r7
 158              	.LCFI4:
 159              		.cfi_def_cfa_register 13
 160              		@ sp needed
 161 00ac 5DF8047B 		ldr	r7, [sp], #4
 162              	.LCFI5:
 163              		.cfi_restore 7
ARM GAS  /tmp/ccySWVws.s 			page 5


 164              		.cfi_def_cfa_offset 0
 165 00b0 7047     		bx	lr
 166              		.cfi_endproc
 167              	.LFE145:
 169              		.section	.text.arm_bitreversal_16,"ax",%progbits
 170              		.align	1
 171              		.global	arm_bitreversal_16
 172              		.syntax unified
 173              		.thumb
 174              		.thumb_func
 175              		.fpu fpv5-d16
 177              	arm_bitreversal_16:
 178              	.LFB146:
  65:./Libraries/CMSIS/DSP/Source/TransformFunctions/arm_bitreversal2.c **** 
  66:./Libraries/CMSIS/DSP/Source/TransformFunctions/arm_bitreversal2.c **** 
  67:./Libraries/CMSIS/DSP/Source/TransformFunctions/arm_bitreversal2.c **** /**
  68:./Libraries/CMSIS/DSP/Source/TransformFunctions/arm_bitreversal2.c ****   @brief         In-place 16 bit reversal function.
  69:./Libraries/CMSIS/DSP/Source/TransformFunctions/arm_bitreversal2.c ****   @param[in,out] pSrc        points to in-place buffer of unknown 16-bit data type
  70:./Libraries/CMSIS/DSP/Source/TransformFunctions/arm_bitreversal2.c ****   @param[in]     bitRevLen   bit reversal table length
  71:./Libraries/CMSIS/DSP/Source/TransformFunctions/arm_bitreversal2.c ****   @param[in]     pBitRevTab  points to bit reversal table
  72:./Libraries/CMSIS/DSP/Source/TransformFunctions/arm_bitreversal2.c ****   @return        none
  73:./Libraries/CMSIS/DSP/Source/TransformFunctions/arm_bitreversal2.c **** */
  74:./Libraries/CMSIS/DSP/Source/TransformFunctions/arm_bitreversal2.c **** 
  75:./Libraries/CMSIS/DSP/Source/TransformFunctions/arm_bitreversal2.c **** void arm_bitreversal_16(
  76:./Libraries/CMSIS/DSP/Source/TransformFunctions/arm_bitreversal2.c ****         uint16_t *pSrc, 
  77:./Libraries/CMSIS/DSP/Source/TransformFunctions/arm_bitreversal2.c ****   const uint16_t bitRevLen, 
  78:./Libraries/CMSIS/DSP/Source/TransformFunctions/arm_bitreversal2.c ****   const uint16_t *pBitRevTab)
  79:./Libraries/CMSIS/DSP/Source/TransformFunctions/arm_bitreversal2.c **** {
 179              		.loc 1 79 1
 180              		.cfi_startproc
 181              		@ args = 0, pretend = 0, frame = 24
 182              		@ frame_needed = 1, uses_anonymous_args = 0
 183              		@ link register save eliminated.
 184 0000 80B4     		push	{r7}
 185              	.LCFI6:
 186              		.cfi_def_cfa_offset 4
 187              		.cfi_offset 7, -4
 188 0002 87B0     		sub	sp, sp, #28
 189              	.LCFI7:
 190              		.cfi_def_cfa_offset 32
 191 0004 00AF     		add	r7, sp, #0
 192              	.LCFI8:
 193              		.cfi_def_cfa_register 7
 194 0006 F860     		str	r0, [r7, #12]
 195 0008 0B46     		mov	r3, r1
 196 000a 7A60     		str	r2, [r7, #4]
 197 000c 7B81     		strh	r3, [r7, #10]	@ movhi
  80:./Libraries/CMSIS/DSP/Source/TransformFunctions/arm_bitreversal2.c ****   uint16_t a, b, i, tmp;
  81:./Libraries/CMSIS/DSP/Source/TransformFunctions/arm_bitreversal2.c **** 
  82:./Libraries/CMSIS/DSP/Source/TransformFunctions/arm_bitreversal2.c ****   for (i = 0; i < bitRevLen; )
 198              		.loc 1 82 10
 199 000e 0023     		movs	r3, #0
 200 0010 FB82     		strh	r3, [r7, #22]	@ movhi
 201              		.loc 1 82 3
 202 0012 41E0     		b	.L5
 203              	.L6:
  83:./Libraries/CMSIS/DSP/Source/TransformFunctions/arm_bitreversal2.c ****   {
ARM GAS  /tmp/ccySWVws.s 			page 6


  84:./Libraries/CMSIS/DSP/Source/TransformFunctions/arm_bitreversal2.c ****      a = pBitRevTab[i    ] >> 2;
 204              		.loc 1 84 20
 205 0014 FB8A     		ldrh	r3, [r7, #22]
 206 0016 5B00     		lsls	r3, r3, #1
 207 0018 7A68     		ldr	r2, [r7, #4]
 208 001a 1344     		add	r3, r3, r2
 209 001c 1B88     		ldrh	r3, [r3]
 210              		.loc 1 84 8
 211 001e 9B08     		lsrs	r3, r3, #2
 212 0020 BB82     		strh	r3, [r7, #20]	@ movhi
  85:./Libraries/CMSIS/DSP/Source/TransformFunctions/arm_bitreversal2.c ****      b = pBitRevTab[i + 1] >> 2;
 213              		.loc 1 85 20
 214 0022 FB8A     		ldrh	r3, [r7, #22]
 215 0024 0133     		adds	r3, r3, #1
 216 0026 5B00     		lsls	r3, r3, #1
 217 0028 7A68     		ldr	r2, [r7, #4]
 218 002a 1344     		add	r3, r3, r2
 219 002c 1B88     		ldrh	r3, [r3]
 220              		.loc 1 85 8
 221 002e 9B08     		lsrs	r3, r3, #2
 222 0030 7B82     		strh	r3, [r7, #18]	@ movhi
  86:./Libraries/CMSIS/DSP/Source/TransformFunctions/arm_bitreversal2.c **** 
  87:./Libraries/CMSIS/DSP/Source/TransformFunctions/arm_bitreversal2.c ****      //real
  88:./Libraries/CMSIS/DSP/Source/TransformFunctions/arm_bitreversal2.c ****      tmp = pSrc[a];
 223              		.loc 1 88 16
 224 0032 BB8A     		ldrh	r3, [r7, #20]
 225 0034 5B00     		lsls	r3, r3, #1
 226 0036 FA68     		ldr	r2, [r7, #12]
 227 0038 1344     		add	r3, r3, r2
 228              		.loc 1 88 10
 229 003a 1B88     		ldrh	r3, [r3]	@ movhi
 230 003c 3B82     		strh	r3, [r7, #16]	@ movhi
  89:./Libraries/CMSIS/DSP/Source/TransformFunctions/arm_bitreversal2.c ****      pSrc[a] = pSrc[b];
 231              		.loc 1 89 20
 232 003e 7B8A     		ldrh	r3, [r7, #18]
 233 0040 5B00     		lsls	r3, r3, #1
 234 0042 FA68     		ldr	r2, [r7, #12]
 235 0044 1A44     		add	r2, r2, r3
 236              		.loc 1 89 10
 237 0046 BB8A     		ldrh	r3, [r7, #20]
 238 0048 5B00     		lsls	r3, r3, #1
 239 004a F968     		ldr	r1, [r7, #12]
 240 004c 0B44     		add	r3, r3, r1
 241              		.loc 1 89 20
 242 004e 1288     		ldrh	r2, [r2]
 243              		.loc 1 89 14
 244 0050 1A80     		strh	r2, [r3]	@ movhi
  90:./Libraries/CMSIS/DSP/Source/TransformFunctions/arm_bitreversal2.c ****      pSrc[b] = tmp;
 245              		.loc 1 90 10
 246 0052 7B8A     		ldrh	r3, [r7, #18]
 247 0054 5B00     		lsls	r3, r3, #1
 248 0056 FA68     		ldr	r2, [r7, #12]
 249 0058 1344     		add	r3, r3, r2
 250              		.loc 1 90 14
 251 005a 3A8A     		ldrh	r2, [r7, #16]	@ movhi
 252 005c 1A80     		strh	r2, [r3]	@ movhi
  91:./Libraries/CMSIS/DSP/Source/TransformFunctions/arm_bitreversal2.c **** 
ARM GAS  /tmp/ccySWVws.s 			page 7


  92:./Libraries/CMSIS/DSP/Source/TransformFunctions/arm_bitreversal2.c ****      //complex
  93:./Libraries/CMSIS/DSP/Source/TransformFunctions/arm_bitreversal2.c ****      tmp = pSrc[a+1];
 253              		.loc 1 93 16
 254 005e BB8A     		ldrh	r3, [r7, #20]
 255 0060 0133     		adds	r3, r3, #1
 256 0062 5B00     		lsls	r3, r3, #1
 257 0064 FA68     		ldr	r2, [r7, #12]
 258 0066 1344     		add	r3, r3, r2
 259              		.loc 1 93 10
 260 0068 1B88     		ldrh	r3, [r3]	@ movhi
 261 006a 3B82     		strh	r3, [r7, #16]	@ movhi
  94:./Libraries/CMSIS/DSP/Source/TransformFunctions/arm_bitreversal2.c ****      pSrc[a+1] = pSrc[b+1];
 262              		.loc 1 94 22
 263 006c 7B8A     		ldrh	r3, [r7, #18]
 264 006e 0133     		adds	r3, r3, #1
 265 0070 5B00     		lsls	r3, r3, #1
 266 0072 FA68     		ldr	r2, [r7, #12]
 267 0074 1A44     		add	r2, r2, r3
 268              		.loc 1 94 10
 269 0076 BB8A     		ldrh	r3, [r7, #20]
 270 0078 0133     		adds	r3, r3, #1
 271 007a 5B00     		lsls	r3, r3, #1
 272 007c F968     		ldr	r1, [r7, #12]
 273 007e 0B44     		add	r3, r3, r1
 274              		.loc 1 94 22
 275 0080 1288     		ldrh	r2, [r2]
 276              		.loc 1 94 16
 277 0082 1A80     		strh	r2, [r3]	@ movhi
  95:./Libraries/CMSIS/DSP/Source/TransformFunctions/arm_bitreversal2.c ****      pSrc[b+1] = tmp;
 278              		.loc 1 95 10
 279 0084 7B8A     		ldrh	r3, [r7, #18]
 280 0086 0133     		adds	r3, r3, #1
 281 0088 5B00     		lsls	r3, r3, #1
 282 008a FA68     		ldr	r2, [r7, #12]
 283 008c 1344     		add	r3, r3, r2
 284              		.loc 1 95 16
 285 008e 3A8A     		ldrh	r2, [r7, #16]	@ movhi
 286 0090 1A80     		strh	r2, [r3]	@ movhi
  96:./Libraries/CMSIS/DSP/Source/TransformFunctions/arm_bitreversal2.c **** 
  97:./Libraries/CMSIS/DSP/Source/TransformFunctions/arm_bitreversal2.c ****     i += 2;
 287              		.loc 1 97 7
 288 0092 FB8A     		ldrh	r3, [r7, #22]	@ movhi
 289 0094 0233     		adds	r3, r3, #2
 290 0096 FB82     		strh	r3, [r7, #22]	@ movhi
 291              	.L5:
  82:./Libraries/CMSIS/DSP/Source/TransformFunctions/arm_bitreversal2.c ****   {
 292              		.loc 1 82 3 discriminator 1
 293 0098 FA8A     		ldrh	r2, [r7, #22]
 294 009a 7B89     		ldrh	r3, [r7, #10]
 295 009c 9A42     		cmp	r2, r3
 296 009e B9D3     		bcc	.L6
  98:./Libraries/CMSIS/DSP/Source/TransformFunctions/arm_bitreversal2.c ****   }
  99:./Libraries/CMSIS/DSP/Source/TransformFunctions/arm_bitreversal2.c **** }
 297              		.loc 1 99 1
 298 00a0 00BF     		nop
 299 00a2 00BF     		nop
 300 00a4 1C37     		adds	r7, r7, #28
ARM GAS  /tmp/ccySWVws.s 			page 8


 301              	.LCFI9:
 302              		.cfi_def_cfa_offset 4
 303 00a6 BD46     		mov	sp, r7
 304              	.LCFI10:
 305              		.cfi_def_cfa_register 13
 306              		@ sp needed
 307 00a8 5DF8047B 		ldr	r7, [sp], #4
 308              	.LCFI11:
 309              		.cfi_restore 7
 310              		.cfi_def_cfa_offset 0
 311 00ac 7047     		bx	lr
 312              		.cfi_endproc
 313              	.LFE146:
 315              		.text
 316              	.Letext0:
 317              		.file 2 "/usr/lib/gcc/arm-none-eabi/9.2.1/include/stdint.h"
 318              		.file 3 "/usr/lib/gcc/arm-none-eabi/9.2.1/include/stddef.h"
 319              		.file 4 "/usr/include/newlib/sys/_types.h"
 320              		.file 5 "/usr/include/newlib/sys/reent.h"
 321              		.file 6 "/usr/include/newlib/sys/lock.h"
 322              		.file 7 "/usr/include/newlib/math.h"
 323              		.file 8 "./Libraries/CMSIS/DSP/Include/arm_math.h"
 324              		.file 9 "./Libraries/CMSIS/DSP/Include/arm_common_tables.h"
ARM GAS  /tmp/ccySWVws.s 			page 9


DEFINED SYMBOLS
                            *ABS*:0000000000000000 arm_bitreversal2.c
     /tmp/ccySWVws.s:17     .text.arm_bitreversal_32:0000000000000000 $t
     /tmp/ccySWVws.s:25     .text.arm_bitreversal_32:0000000000000000 arm_bitreversal_32
     /tmp/ccySWVws.s:170    .text.arm_bitreversal_16:0000000000000000 $t
     /tmp/ccySWVws.s:177    .text.arm_bitreversal_16:0000000000000000 arm_bitreversal_16

NO UNDEFINED SYMBOLS
