ARM GAS  /tmp/ccD1zRtD.s 			page 1


   1              		.cpu cortex-m7
   2              		.eabi_attribute 28, 1
   3              		.eabi_attribute 20, 1
   4              		.eabi_attribute 21, 1
   5              		.eabi_attribute 23, 3
   6              		.eabi_attribute 24, 1
   7              		.eabi_attribute 25, 1
   8              		.eabi_attribute 26, 1
   9              		.eabi_attribute 30, 6
  10              		.eabi_attribute 34, 1
  11              		.eabi_attribute 18, 4
  12              		.file	"arm_max_q7.c"
  13              		.text
  14              	.Ltext0:
  15              		.cfi_sections	.debug_frame
  16              		.section	.text.arm_max_q7,"ax",%progbits
  17              		.align	1
  18              		.global	arm_max_q7
  19              		.arch armv7e-m
  20              		.syntax unified
  21              		.thumb
  22              		.thumb_func
  23              		.fpu fpv5-d16
  25              	arm_max_q7:
  26              	.LFB145:
  27              		.file 1 "./Libraries/CMSIS/DSP/Source/StatisticsFunctions/arm_max_q7.c"
   1:./Libraries/CMSIS/DSP/Source/StatisticsFunctions/arm_max_q7.c **** /* ----------------------------------------------------------------------
   2:./Libraries/CMSIS/DSP/Source/StatisticsFunctions/arm_max_q7.c ****  * Project:      CMSIS DSP Library
   3:./Libraries/CMSIS/DSP/Source/StatisticsFunctions/arm_max_q7.c ****  * Title:        arm_max_q7.c
   4:./Libraries/CMSIS/DSP/Source/StatisticsFunctions/arm_max_q7.c ****  * Description:  Maximum value of a Q7 vector
   5:./Libraries/CMSIS/DSP/Source/StatisticsFunctions/arm_max_q7.c ****  *
   6:./Libraries/CMSIS/DSP/Source/StatisticsFunctions/arm_max_q7.c ****  * $Date:        18. March 2019
   7:./Libraries/CMSIS/DSP/Source/StatisticsFunctions/arm_max_q7.c ****  * $Revision:    V1.6.0
   8:./Libraries/CMSIS/DSP/Source/StatisticsFunctions/arm_max_q7.c ****  *
   9:./Libraries/CMSIS/DSP/Source/StatisticsFunctions/arm_max_q7.c ****  * Target Processor: Cortex-M cores
  10:./Libraries/CMSIS/DSP/Source/StatisticsFunctions/arm_max_q7.c ****  * -------------------------------------------------------------------- */
  11:./Libraries/CMSIS/DSP/Source/StatisticsFunctions/arm_max_q7.c **** /*
  12:./Libraries/CMSIS/DSP/Source/StatisticsFunctions/arm_max_q7.c ****  * Copyright (C) 2010-2019 ARM Limited or its affiliates. All rights reserved.
  13:./Libraries/CMSIS/DSP/Source/StatisticsFunctions/arm_max_q7.c ****  *
  14:./Libraries/CMSIS/DSP/Source/StatisticsFunctions/arm_max_q7.c ****  * SPDX-License-Identifier: Apache-2.0
  15:./Libraries/CMSIS/DSP/Source/StatisticsFunctions/arm_max_q7.c ****  *
  16:./Libraries/CMSIS/DSP/Source/StatisticsFunctions/arm_max_q7.c ****  * Licensed under the Apache License, Version 2.0 (the License); you may
  17:./Libraries/CMSIS/DSP/Source/StatisticsFunctions/arm_max_q7.c ****  * not use this file except in compliance with the License.
  18:./Libraries/CMSIS/DSP/Source/StatisticsFunctions/arm_max_q7.c ****  * You may obtain a copy of the License at
  19:./Libraries/CMSIS/DSP/Source/StatisticsFunctions/arm_max_q7.c ****  *
  20:./Libraries/CMSIS/DSP/Source/StatisticsFunctions/arm_max_q7.c ****  * www.apache.org/licenses/LICENSE-2.0
  21:./Libraries/CMSIS/DSP/Source/StatisticsFunctions/arm_max_q7.c ****  *
  22:./Libraries/CMSIS/DSP/Source/StatisticsFunctions/arm_max_q7.c ****  * Unless required by applicable law or agreed to in writing, software
  23:./Libraries/CMSIS/DSP/Source/StatisticsFunctions/arm_max_q7.c ****  * distributed under the License is distributed on an AS IS BASIS, WITHOUT
  24:./Libraries/CMSIS/DSP/Source/StatisticsFunctions/arm_max_q7.c ****  * WARRANTIES OR CONDITIONS OF ANY KIND, either express or implied.
  25:./Libraries/CMSIS/DSP/Source/StatisticsFunctions/arm_max_q7.c ****  * See the License for the specific language governing permissions and
  26:./Libraries/CMSIS/DSP/Source/StatisticsFunctions/arm_max_q7.c ****  * limitations under the License.
  27:./Libraries/CMSIS/DSP/Source/StatisticsFunctions/arm_max_q7.c ****  */
  28:./Libraries/CMSIS/DSP/Source/StatisticsFunctions/arm_max_q7.c **** 
  29:./Libraries/CMSIS/DSP/Source/StatisticsFunctions/arm_max_q7.c **** #include "arm_math.h"
  30:./Libraries/CMSIS/DSP/Source/StatisticsFunctions/arm_max_q7.c **** 
  31:./Libraries/CMSIS/DSP/Source/StatisticsFunctions/arm_max_q7.c **** /**
ARM GAS  /tmp/ccD1zRtD.s 			page 2


  32:./Libraries/CMSIS/DSP/Source/StatisticsFunctions/arm_max_q7.c ****   @ingroup groupStats
  33:./Libraries/CMSIS/DSP/Source/StatisticsFunctions/arm_max_q7.c ****  */
  34:./Libraries/CMSIS/DSP/Source/StatisticsFunctions/arm_max_q7.c **** 
  35:./Libraries/CMSIS/DSP/Source/StatisticsFunctions/arm_max_q7.c **** /**
  36:./Libraries/CMSIS/DSP/Source/StatisticsFunctions/arm_max_q7.c ****   @addtogroup Max
  37:./Libraries/CMSIS/DSP/Source/StatisticsFunctions/arm_max_q7.c ****   @{
  38:./Libraries/CMSIS/DSP/Source/StatisticsFunctions/arm_max_q7.c ****  */
  39:./Libraries/CMSIS/DSP/Source/StatisticsFunctions/arm_max_q7.c **** 
  40:./Libraries/CMSIS/DSP/Source/StatisticsFunctions/arm_max_q7.c **** /**
  41:./Libraries/CMSIS/DSP/Source/StatisticsFunctions/arm_max_q7.c ****   @brief         Maximum value of a Q7 vector.
  42:./Libraries/CMSIS/DSP/Source/StatisticsFunctions/arm_max_q7.c ****   @param[in]     pSrc       points to the input vector
  43:./Libraries/CMSIS/DSP/Source/StatisticsFunctions/arm_max_q7.c ****   @param[in]     blockSize  number of samples in input vector
  44:./Libraries/CMSIS/DSP/Source/StatisticsFunctions/arm_max_q7.c ****   @param[out]    pResult    maximum value returned here
  45:./Libraries/CMSIS/DSP/Source/StatisticsFunctions/arm_max_q7.c ****   @param[out]    pIndex     index of maximum value returned here
  46:./Libraries/CMSIS/DSP/Source/StatisticsFunctions/arm_max_q7.c ****   @return        none
  47:./Libraries/CMSIS/DSP/Source/StatisticsFunctions/arm_max_q7.c ****  */
  48:./Libraries/CMSIS/DSP/Source/StatisticsFunctions/arm_max_q7.c **** 
  49:./Libraries/CMSIS/DSP/Source/StatisticsFunctions/arm_max_q7.c **** void arm_max_q7(
  50:./Libraries/CMSIS/DSP/Source/StatisticsFunctions/arm_max_q7.c ****   const q7_t * pSrc,
  51:./Libraries/CMSIS/DSP/Source/StatisticsFunctions/arm_max_q7.c ****         uint32_t blockSize,
  52:./Libraries/CMSIS/DSP/Source/StatisticsFunctions/arm_max_q7.c ****         q7_t * pResult,
  53:./Libraries/CMSIS/DSP/Source/StatisticsFunctions/arm_max_q7.c ****         uint32_t * pIndex)
  54:./Libraries/CMSIS/DSP/Source/StatisticsFunctions/arm_max_q7.c **** {
  28              		.loc 1 54 1
  29              		.cfi_startproc
  30              		@ args = 0, pretend = 0, frame = 32
  31              		@ frame_needed = 1, uses_anonymous_args = 0
  32              		@ link register save eliminated.
  33 0000 80B4     		push	{r7}
  34              	.LCFI0:
  35              		.cfi_def_cfa_offset 4
  36              		.cfi_offset 7, -4
  37 0002 89B0     		sub	sp, sp, #36
  38              	.LCFI1:
  39              		.cfi_def_cfa_offset 40
  40 0004 00AF     		add	r7, sp, #0
  41              	.LCFI2:
  42              		.cfi_def_cfa_register 7
  43 0006 F860     		str	r0, [r7, #12]
  44 0008 B960     		str	r1, [r7, #8]
  45 000a 7A60     		str	r2, [r7, #4]
  46 000c 3B60     		str	r3, [r7]
  55:./Libraries/CMSIS/DSP/Source/StatisticsFunctions/arm_max_q7.c ****         q7_t maxVal, out;                              /* Temporary variables to store the output v
  56:./Libraries/CMSIS/DSP/Source/StatisticsFunctions/arm_max_q7.c ****         uint32_t blkCnt, outIndex;                     /* Loop counter */
  57:./Libraries/CMSIS/DSP/Source/StatisticsFunctions/arm_max_q7.c **** 
  58:./Libraries/CMSIS/DSP/Source/StatisticsFunctions/arm_max_q7.c **** #if defined (ARM_MATH_LOOPUNROLL)
  59:./Libraries/CMSIS/DSP/Source/StatisticsFunctions/arm_max_q7.c ****         uint32_t index;                                /* index of maximum value */
  60:./Libraries/CMSIS/DSP/Source/StatisticsFunctions/arm_max_q7.c **** #endif
  61:./Libraries/CMSIS/DSP/Source/StatisticsFunctions/arm_max_q7.c **** 
  62:./Libraries/CMSIS/DSP/Source/StatisticsFunctions/arm_max_q7.c ****   /* Initialise index value to zero. */
  63:./Libraries/CMSIS/DSP/Source/StatisticsFunctions/arm_max_q7.c ****   outIndex = 0U;
  47              		.loc 1 63 12
  48 000e 0023     		movs	r3, #0
  49 0010 7B61     		str	r3, [r7, #20]
  64:./Libraries/CMSIS/DSP/Source/StatisticsFunctions/arm_max_q7.c ****   /* Load first input value that act as reference value for comparision */
  65:./Libraries/CMSIS/DSP/Source/StatisticsFunctions/arm_max_q7.c ****   out = *pSrc++;
  50              		.loc 1 65 14
ARM GAS  /tmp/ccD1zRtD.s 			page 3


  51 0012 FB68     		ldr	r3, [r7, #12]
  52 0014 5A1C     		adds	r2, r3, #1
  53 0016 FA60     		str	r2, [r7, #12]
  54              		.loc 1 65 7
  55 0018 1B78     		ldrb	r3, [r3]
  56 001a FB77     		strb	r3, [r7, #31]
  66:./Libraries/CMSIS/DSP/Source/StatisticsFunctions/arm_max_q7.c **** 
  67:./Libraries/CMSIS/DSP/Source/StatisticsFunctions/arm_max_q7.c **** #if defined (ARM_MATH_LOOPUNROLL)
  68:./Libraries/CMSIS/DSP/Source/StatisticsFunctions/arm_max_q7.c ****   /* Initialise index of maximum value. */
  69:./Libraries/CMSIS/DSP/Source/StatisticsFunctions/arm_max_q7.c ****   index = 0U;
  70:./Libraries/CMSIS/DSP/Source/StatisticsFunctions/arm_max_q7.c **** 
  71:./Libraries/CMSIS/DSP/Source/StatisticsFunctions/arm_max_q7.c ****   /* Loop unrolling: Compute 4 outputs at a time */
  72:./Libraries/CMSIS/DSP/Source/StatisticsFunctions/arm_max_q7.c ****   blkCnt = (blockSize - 1U) >> 2U;
  73:./Libraries/CMSIS/DSP/Source/StatisticsFunctions/arm_max_q7.c **** 
  74:./Libraries/CMSIS/DSP/Source/StatisticsFunctions/arm_max_q7.c ****   while (blkCnt > 0U)
  75:./Libraries/CMSIS/DSP/Source/StatisticsFunctions/arm_max_q7.c ****   {
  76:./Libraries/CMSIS/DSP/Source/StatisticsFunctions/arm_max_q7.c ****     /* Initialize maxVal to next consecutive values one by one */
  77:./Libraries/CMSIS/DSP/Source/StatisticsFunctions/arm_max_q7.c ****     maxVal = *pSrc++;
  78:./Libraries/CMSIS/DSP/Source/StatisticsFunctions/arm_max_q7.c **** 
  79:./Libraries/CMSIS/DSP/Source/StatisticsFunctions/arm_max_q7.c ****     /* compare for the maximum value */
  80:./Libraries/CMSIS/DSP/Source/StatisticsFunctions/arm_max_q7.c ****     if (out < maxVal)
  81:./Libraries/CMSIS/DSP/Source/StatisticsFunctions/arm_max_q7.c ****     {
  82:./Libraries/CMSIS/DSP/Source/StatisticsFunctions/arm_max_q7.c ****       /* Update the maximum value and it's index */
  83:./Libraries/CMSIS/DSP/Source/StatisticsFunctions/arm_max_q7.c ****       out = maxVal;
  84:./Libraries/CMSIS/DSP/Source/StatisticsFunctions/arm_max_q7.c ****       outIndex = index + 1U;
  85:./Libraries/CMSIS/DSP/Source/StatisticsFunctions/arm_max_q7.c ****     }
  86:./Libraries/CMSIS/DSP/Source/StatisticsFunctions/arm_max_q7.c **** 
  87:./Libraries/CMSIS/DSP/Source/StatisticsFunctions/arm_max_q7.c ****     maxVal = *pSrc++;
  88:./Libraries/CMSIS/DSP/Source/StatisticsFunctions/arm_max_q7.c ****     if (out < maxVal)
  89:./Libraries/CMSIS/DSP/Source/StatisticsFunctions/arm_max_q7.c ****     {
  90:./Libraries/CMSIS/DSP/Source/StatisticsFunctions/arm_max_q7.c ****       out = maxVal;
  91:./Libraries/CMSIS/DSP/Source/StatisticsFunctions/arm_max_q7.c ****       outIndex = index + 2U;
  92:./Libraries/CMSIS/DSP/Source/StatisticsFunctions/arm_max_q7.c ****     }
  93:./Libraries/CMSIS/DSP/Source/StatisticsFunctions/arm_max_q7.c **** 
  94:./Libraries/CMSIS/DSP/Source/StatisticsFunctions/arm_max_q7.c ****     maxVal = *pSrc++;
  95:./Libraries/CMSIS/DSP/Source/StatisticsFunctions/arm_max_q7.c ****     if (out < maxVal)
  96:./Libraries/CMSIS/DSP/Source/StatisticsFunctions/arm_max_q7.c ****     {
  97:./Libraries/CMSIS/DSP/Source/StatisticsFunctions/arm_max_q7.c ****       out = maxVal;
  98:./Libraries/CMSIS/DSP/Source/StatisticsFunctions/arm_max_q7.c ****       outIndex = index + 3U;
  99:./Libraries/CMSIS/DSP/Source/StatisticsFunctions/arm_max_q7.c ****     }
 100:./Libraries/CMSIS/DSP/Source/StatisticsFunctions/arm_max_q7.c **** 
 101:./Libraries/CMSIS/DSP/Source/StatisticsFunctions/arm_max_q7.c ****     maxVal = *pSrc++;
 102:./Libraries/CMSIS/DSP/Source/StatisticsFunctions/arm_max_q7.c ****     if (out < maxVal)
 103:./Libraries/CMSIS/DSP/Source/StatisticsFunctions/arm_max_q7.c ****     {
 104:./Libraries/CMSIS/DSP/Source/StatisticsFunctions/arm_max_q7.c ****       out = maxVal;
 105:./Libraries/CMSIS/DSP/Source/StatisticsFunctions/arm_max_q7.c ****       outIndex = index + 4U;
 106:./Libraries/CMSIS/DSP/Source/StatisticsFunctions/arm_max_q7.c ****     }
 107:./Libraries/CMSIS/DSP/Source/StatisticsFunctions/arm_max_q7.c **** 
 108:./Libraries/CMSIS/DSP/Source/StatisticsFunctions/arm_max_q7.c ****     index += 4U;
 109:./Libraries/CMSIS/DSP/Source/StatisticsFunctions/arm_max_q7.c **** 
 110:./Libraries/CMSIS/DSP/Source/StatisticsFunctions/arm_max_q7.c ****     /* Decrement loop counter */
 111:./Libraries/CMSIS/DSP/Source/StatisticsFunctions/arm_max_q7.c ****     blkCnt--;
 112:./Libraries/CMSIS/DSP/Source/StatisticsFunctions/arm_max_q7.c ****   }
 113:./Libraries/CMSIS/DSP/Source/StatisticsFunctions/arm_max_q7.c **** 
 114:./Libraries/CMSIS/DSP/Source/StatisticsFunctions/arm_max_q7.c ****   /* Loop unrolling: Compute remaining outputs */
 115:./Libraries/CMSIS/DSP/Source/StatisticsFunctions/arm_max_q7.c ****   blkCnt = (blockSize - 1U) % 4U;
 116:./Libraries/CMSIS/DSP/Source/StatisticsFunctions/arm_max_q7.c **** 
ARM GAS  /tmp/ccD1zRtD.s 			page 4


 117:./Libraries/CMSIS/DSP/Source/StatisticsFunctions/arm_max_q7.c **** #else
 118:./Libraries/CMSIS/DSP/Source/StatisticsFunctions/arm_max_q7.c **** 
 119:./Libraries/CMSIS/DSP/Source/StatisticsFunctions/arm_max_q7.c ****   /* Initialize blkCnt with number of samples */
 120:./Libraries/CMSIS/DSP/Source/StatisticsFunctions/arm_max_q7.c ****   blkCnt = (blockSize - 1U);
  57              		.loc 1 120 10
  58 001c BB68     		ldr	r3, [r7, #8]
  59 001e 013B     		subs	r3, r3, #1
  60 0020 BB61     		str	r3, [r7, #24]
 121:./Libraries/CMSIS/DSP/Source/StatisticsFunctions/arm_max_q7.c **** 
 122:./Libraries/CMSIS/DSP/Source/StatisticsFunctions/arm_max_q7.c **** #endif /* #if defined (ARM_MATH_LOOPUNROLL) */
 123:./Libraries/CMSIS/DSP/Source/StatisticsFunctions/arm_max_q7.c **** 
 124:./Libraries/CMSIS/DSP/Source/StatisticsFunctions/arm_max_q7.c ****   while (blkCnt > 0U)
  61              		.loc 1 124 9
  62 0022 13E0     		b	.L2
  63              	.L4:
 125:./Libraries/CMSIS/DSP/Source/StatisticsFunctions/arm_max_q7.c ****   {
 126:./Libraries/CMSIS/DSP/Source/StatisticsFunctions/arm_max_q7.c ****     /* Initialize maxVal to the next consecutive values one by one */
 127:./Libraries/CMSIS/DSP/Source/StatisticsFunctions/arm_max_q7.c ****     maxVal = *pSrc++;
  64              		.loc 1 127 19
  65 0024 FB68     		ldr	r3, [r7, #12]
  66 0026 5A1C     		adds	r2, r3, #1
  67 0028 FA60     		str	r2, [r7, #12]
  68              		.loc 1 127 12
  69 002a 1B78     		ldrb	r3, [r3]
  70 002c FB74     		strb	r3, [r7, #19]
 128:./Libraries/CMSIS/DSP/Source/StatisticsFunctions/arm_max_q7.c **** 
 129:./Libraries/CMSIS/DSP/Source/StatisticsFunctions/arm_max_q7.c ****     /* compare for the maximum value */
 130:./Libraries/CMSIS/DSP/Source/StatisticsFunctions/arm_max_q7.c ****     if (out < maxVal)
  71              		.loc 1 130 8
  72 002e 97F91F20 		ldrsb	r2, [r7, #31]
  73 0032 97F91330 		ldrsb	r3, [r7, #19]
  74 0036 9A42     		cmp	r2, r3
  75 0038 05DA     		bge	.L3
 131:./Libraries/CMSIS/DSP/Source/StatisticsFunctions/arm_max_q7.c ****     {
 132:./Libraries/CMSIS/DSP/Source/StatisticsFunctions/arm_max_q7.c ****       /* Update the maximum value and it's index */
 133:./Libraries/CMSIS/DSP/Source/StatisticsFunctions/arm_max_q7.c ****       out = maxVal;
  76              		.loc 1 133 11
  77 003a FB7C     		ldrb	r3, [r7, #19]
  78 003c FB77     		strb	r3, [r7, #31]
 134:./Libraries/CMSIS/DSP/Source/StatisticsFunctions/arm_max_q7.c ****       outIndex = blockSize - blkCnt;
  79              		.loc 1 134 16
  80 003e BA68     		ldr	r2, [r7, #8]
  81 0040 BB69     		ldr	r3, [r7, #24]
  82 0042 D31A     		subs	r3, r2, r3
  83 0044 7B61     		str	r3, [r7, #20]
  84              	.L3:
 135:./Libraries/CMSIS/DSP/Source/StatisticsFunctions/arm_max_q7.c ****     }
 136:./Libraries/CMSIS/DSP/Source/StatisticsFunctions/arm_max_q7.c **** 
 137:./Libraries/CMSIS/DSP/Source/StatisticsFunctions/arm_max_q7.c ****     /* Decrement loop counter */
 138:./Libraries/CMSIS/DSP/Source/StatisticsFunctions/arm_max_q7.c ****     blkCnt--;
  85              		.loc 1 138 11
  86 0046 BB69     		ldr	r3, [r7, #24]
  87 0048 013B     		subs	r3, r3, #1
  88 004a BB61     		str	r3, [r7, #24]
  89              	.L2:
 124:./Libraries/CMSIS/DSP/Source/StatisticsFunctions/arm_max_q7.c ****   {
  90              		.loc 1 124 9
ARM GAS  /tmp/ccD1zRtD.s 			page 5


  91 004c BB69     		ldr	r3, [r7, #24]
  92 004e 002B     		cmp	r3, #0
  93 0050 E8D1     		bne	.L4
 139:./Libraries/CMSIS/DSP/Source/StatisticsFunctions/arm_max_q7.c ****   }
 140:./Libraries/CMSIS/DSP/Source/StatisticsFunctions/arm_max_q7.c **** 
 141:./Libraries/CMSIS/DSP/Source/StatisticsFunctions/arm_max_q7.c ****   /* Store the maximum value and it's index into destination pointers */
 142:./Libraries/CMSIS/DSP/Source/StatisticsFunctions/arm_max_q7.c ****   *pResult = out;
  94              		.loc 1 142 12
  95 0052 7B68     		ldr	r3, [r7, #4]
  96 0054 FA7F     		ldrb	r2, [r7, #31]
  97 0056 1A70     		strb	r2, [r3]
 143:./Libraries/CMSIS/DSP/Source/StatisticsFunctions/arm_max_q7.c ****   *pIndex = outIndex;
  98              		.loc 1 143 11
  99 0058 3B68     		ldr	r3, [r7]
 100 005a 7A69     		ldr	r2, [r7, #20]
 101 005c 1A60     		str	r2, [r3]
 144:./Libraries/CMSIS/DSP/Source/StatisticsFunctions/arm_max_q7.c **** }
 102              		.loc 1 144 1
 103 005e 00BF     		nop
 104 0060 2437     		adds	r7, r7, #36
 105              	.LCFI3:
 106              		.cfi_def_cfa_offset 4
 107 0062 BD46     		mov	sp, r7
 108              	.LCFI4:
 109              		.cfi_def_cfa_register 13
 110              		@ sp needed
 111 0064 5DF8047B 		ldr	r7, [sp], #4
 112              	.LCFI5:
 113              		.cfi_restore 7
 114              		.cfi_def_cfa_offset 0
 115 0068 7047     		bx	lr
 116              		.cfi_endproc
 117              	.LFE145:
 119              		.text
 120              	.Letext0:
 121              		.file 2 "/usr/lib/gcc/arm-none-eabi/9.2.1/include/stdint.h"
 122              		.file 3 "/usr/lib/gcc/arm-none-eabi/9.2.1/include/stddef.h"
 123              		.file 4 "/usr/include/newlib/sys/_types.h"
 124              		.file 5 "/usr/include/newlib/sys/reent.h"
 125              		.file 6 "/usr/include/newlib/sys/lock.h"
 126              		.file 7 "/usr/include/newlib/math.h"
 127              		.file 8 "./Libraries/CMSIS/DSP/Include/arm_math.h"
ARM GAS  /tmp/ccD1zRtD.s 			page 6

