ARM GAS  /tmp/ccVJ1TnF.s 			page 1


   1              		.cpu cortex-m7
   2              		.eabi_attribute 28, 1
   3              		.eabi_attribute 20, 1
   4              		.eabi_attribute 21, 1
   5              		.eabi_attribute 23, 3
   6              		.eabi_attribute 24, 1
   7              		.eabi_attribute 25, 1
   8              		.eabi_attribute 26, 1
   9              		.eabi_attribute 30, 6
  10              		.eabi_attribute 34, 1
  11              		.eabi_attribute 18, 4
  12              		.file	"arm_biquad_cascade_df1_q31.c"
  13              		.text
  14              	.Ltext0:
  15              		.cfi_sections	.debug_frame
  16              		.section	.text.arm_biquad_cascade_df1_q31,"ax",%progbits
  17              		.align	1
  18              		.global	arm_biquad_cascade_df1_q31
  19              		.arch armv7e-m
  20              		.syntax unified
  21              		.thumb
  22              		.thumb_func
  23              		.fpu fpv5-d16
  25              	arm_biquad_cascade_df1_q31:
  26              	.LFB145:
  27              		.file 1 "./Libraries/CMSIS/DSP/Source/FilteringFunctions/arm_biquad_cascade_df1_q31.c"
   1:./Libraries/CMSIS/DSP/Source/FilteringFunctions/arm_biquad_cascade_df1_q31.c **** /* ----------------------------------------------------------------------
   2:./Libraries/CMSIS/DSP/Source/FilteringFunctions/arm_biquad_cascade_df1_q31.c ****  * Project:      CMSIS DSP Library
   3:./Libraries/CMSIS/DSP/Source/FilteringFunctions/arm_biquad_cascade_df1_q31.c ****  * Title:        arm_biquad_cascade_df1_q31.c
   4:./Libraries/CMSIS/DSP/Source/FilteringFunctions/arm_biquad_cascade_df1_q31.c ****  * Description:  Processing function for the Q31 Biquad cascade filter
   5:./Libraries/CMSIS/DSP/Source/FilteringFunctions/arm_biquad_cascade_df1_q31.c ****  *
   6:./Libraries/CMSIS/DSP/Source/FilteringFunctions/arm_biquad_cascade_df1_q31.c ****  * $Date:        18. March 2019
   7:./Libraries/CMSIS/DSP/Source/FilteringFunctions/arm_biquad_cascade_df1_q31.c ****  * $Revision:    V1.6.0
   8:./Libraries/CMSIS/DSP/Source/FilteringFunctions/arm_biquad_cascade_df1_q31.c ****  *
   9:./Libraries/CMSIS/DSP/Source/FilteringFunctions/arm_biquad_cascade_df1_q31.c ****  * Target Processor: Cortex-M cores
  10:./Libraries/CMSIS/DSP/Source/FilteringFunctions/arm_biquad_cascade_df1_q31.c ****  * -------------------------------------------------------------------- */
  11:./Libraries/CMSIS/DSP/Source/FilteringFunctions/arm_biquad_cascade_df1_q31.c **** /*
  12:./Libraries/CMSIS/DSP/Source/FilteringFunctions/arm_biquad_cascade_df1_q31.c ****  * Copyright (C) 2010-2019 ARM Limited or its affiliates. All rights reserved.
  13:./Libraries/CMSIS/DSP/Source/FilteringFunctions/arm_biquad_cascade_df1_q31.c ****  *
  14:./Libraries/CMSIS/DSP/Source/FilteringFunctions/arm_biquad_cascade_df1_q31.c ****  * SPDX-License-Identifier: Apache-2.0
  15:./Libraries/CMSIS/DSP/Source/FilteringFunctions/arm_biquad_cascade_df1_q31.c ****  *
  16:./Libraries/CMSIS/DSP/Source/FilteringFunctions/arm_biquad_cascade_df1_q31.c ****  * Licensed under the Apache License, Version 2.0 (the License); you may
  17:./Libraries/CMSIS/DSP/Source/FilteringFunctions/arm_biquad_cascade_df1_q31.c ****  * not use this file except in compliance with the License.
  18:./Libraries/CMSIS/DSP/Source/FilteringFunctions/arm_biquad_cascade_df1_q31.c ****  * You may obtain a copy of the License at
  19:./Libraries/CMSIS/DSP/Source/FilteringFunctions/arm_biquad_cascade_df1_q31.c ****  *
  20:./Libraries/CMSIS/DSP/Source/FilteringFunctions/arm_biquad_cascade_df1_q31.c ****  * www.apache.org/licenses/LICENSE-2.0
  21:./Libraries/CMSIS/DSP/Source/FilteringFunctions/arm_biquad_cascade_df1_q31.c ****  *
  22:./Libraries/CMSIS/DSP/Source/FilteringFunctions/arm_biquad_cascade_df1_q31.c ****  * Unless required by applicable law or agreed to in writing, software
  23:./Libraries/CMSIS/DSP/Source/FilteringFunctions/arm_biquad_cascade_df1_q31.c ****  * distributed under the License is distributed on an AS IS BASIS, WITHOUT
  24:./Libraries/CMSIS/DSP/Source/FilteringFunctions/arm_biquad_cascade_df1_q31.c ****  * WARRANTIES OR CONDITIONS OF ANY KIND, either express or implied.
  25:./Libraries/CMSIS/DSP/Source/FilteringFunctions/arm_biquad_cascade_df1_q31.c ****  * See the License for the specific language governing permissions and
  26:./Libraries/CMSIS/DSP/Source/FilteringFunctions/arm_biquad_cascade_df1_q31.c ****  * limitations under the License.
  27:./Libraries/CMSIS/DSP/Source/FilteringFunctions/arm_biquad_cascade_df1_q31.c ****  */
  28:./Libraries/CMSIS/DSP/Source/FilteringFunctions/arm_biquad_cascade_df1_q31.c **** 
  29:./Libraries/CMSIS/DSP/Source/FilteringFunctions/arm_biquad_cascade_df1_q31.c **** #include "arm_math.h"
  30:./Libraries/CMSIS/DSP/Source/FilteringFunctions/arm_biquad_cascade_df1_q31.c **** 
  31:./Libraries/CMSIS/DSP/Source/FilteringFunctions/arm_biquad_cascade_df1_q31.c **** /**
ARM GAS  /tmp/ccVJ1TnF.s 			page 2


  32:./Libraries/CMSIS/DSP/Source/FilteringFunctions/arm_biquad_cascade_df1_q31.c ****   @ingroup groupFilters
  33:./Libraries/CMSIS/DSP/Source/FilteringFunctions/arm_biquad_cascade_df1_q31.c ****  */
  34:./Libraries/CMSIS/DSP/Source/FilteringFunctions/arm_biquad_cascade_df1_q31.c **** 
  35:./Libraries/CMSIS/DSP/Source/FilteringFunctions/arm_biquad_cascade_df1_q31.c **** /**
  36:./Libraries/CMSIS/DSP/Source/FilteringFunctions/arm_biquad_cascade_df1_q31.c ****   @addtogroup BiquadCascadeDF1
  37:./Libraries/CMSIS/DSP/Source/FilteringFunctions/arm_biquad_cascade_df1_q31.c ****   @{
  38:./Libraries/CMSIS/DSP/Source/FilteringFunctions/arm_biquad_cascade_df1_q31.c ****  */
  39:./Libraries/CMSIS/DSP/Source/FilteringFunctions/arm_biquad_cascade_df1_q31.c **** 
  40:./Libraries/CMSIS/DSP/Source/FilteringFunctions/arm_biquad_cascade_df1_q31.c **** /**
  41:./Libraries/CMSIS/DSP/Source/FilteringFunctions/arm_biquad_cascade_df1_q31.c ****   @brief         Processing function for the Q31 Biquad cascade filter.
  42:./Libraries/CMSIS/DSP/Source/FilteringFunctions/arm_biquad_cascade_df1_q31.c ****   @param[in]     S         points to an instance of the Q31 Biquad cascade structure
  43:./Libraries/CMSIS/DSP/Source/FilteringFunctions/arm_biquad_cascade_df1_q31.c ****   @param[in]     pSrc      points to the block of input data
  44:./Libraries/CMSIS/DSP/Source/FilteringFunctions/arm_biquad_cascade_df1_q31.c ****   @param[out]    pDst      points to the block of output data
  45:./Libraries/CMSIS/DSP/Source/FilteringFunctions/arm_biquad_cascade_df1_q31.c ****   @param[in]     blockSize  number of samples to process
  46:./Libraries/CMSIS/DSP/Source/FilteringFunctions/arm_biquad_cascade_df1_q31.c ****   @return        none
  47:./Libraries/CMSIS/DSP/Source/FilteringFunctions/arm_biquad_cascade_df1_q31.c **** 
  48:./Libraries/CMSIS/DSP/Source/FilteringFunctions/arm_biquad_cascade_df1_q31.c ****   @par           Scaling and Overflow Behavior
  49:./Libraries/CMSIS/DSP/Source/FilteringFunctions/arm_biquad_cascade_df1_q31.c ****                    The function is implemented using an internal 64-bit accumulator.
  50:./Libraries/CMSIS/DSP/Source/FilteringFunctions/arm_biquad_cascade_df1_q31.c ****                    The accumulator has a 2.62 format and maintains full precision of the intermedia
  51:./Libraries/CMSIS/DSP/Source/FilteringFunctions/arm_biquad_cascade_df1_q31.c ****                    Thus, if the accumulator result overflows it wraps around rather than clip.
  52:./Libraries/CMSIS/DSP/Source/FilteringFunctions/arm_biquad_cascade_df1_q31.c ****                    In order to avoid overflows completely the input signal must be scaled down by 2
  53:./Libraries/CMSIS/DSP/Source/FilteringFunctions/arm_biquad_cascade_df1_q31.c ****                    After all 5 multiply-accumulates are performed, the 2.62 accumulator is shifted 
  54:./Libraries/CMSIS/DSP/Source/FilteringFunctions/arm_biquad_cascade_df1_q31.c ****                    1.31 format by discarding the low 32 bits.
  55:./Libraries/CMSIS/DSP/Source/FilteringFunctions/arm_biquad_cascade_df1_q31.c ****   @remark
  56:./Libraries/CMSIS/DSP/Source/FilteringFunctions/arm_biquad_cascade_df1_q31.c ****                    Refer to \ref arm_biquad_cascade_df1_fast_q31() for a faster but less precise im
  57:./Libraries/CMSIS/DSP/Source/FilteringFunctions/arm_biquad_cascade_df1_q31.c ****  */
  58:./Libraries/CMSIS/DSP/Source/FilteringFunctions/arm_biquad_cascade_df1_q31.c **** 
  59:./Libraries/CMSIS/DSP/Source/FilteringFunctions/arm_biquad_cascade_df1_q31.c **** void arm_biquad_cascade_df1_q31(
  60:./Libraries/CMSIS/DSP/Source/FilteringFunctions/arm_biquad_cascade_df1_q31.c ****   const arm_biquad_casd_df1_inst_q31 * S,
  61:./Libraries/CMSIS/DSP/Source/FilteringFunctions/arm_biquad_cascade_df1_q31.c ****   const q31_t * pSrc,
  62:./Libraries/CMSIS/DSP/Source/FilteringFunctions/arm_biquad_cascade_df1_q31.c ****         q31_t * pDst,
  63:./Libraries/CMSIS/DSP/Source/FilteringFunctions/arm_biquad_cascade_df1_q31.c ****         uint32_t blockSize)
  64:./Libraries/CMSIS/DSP/Source/FilteringFunctions/arm_biquad_cascade_df1_q31.c **** {
  28              		.loc 1 64 1
  29              		.cfi_startproc
  30              		@ args = 0, pretend = 0, frame = 128
  31              		@ frame_needed = 1, uses_anonymous_args = 0
  32              		@ link register save eliminated.
  33 0000 2DE9B00F 		push	{r4, r5, r7, r8, r9, r10, fp}
  34              	.LCFI0:
  35              		.cfi_def_cfa_offset 28
  36              		.cfi_offset 4, -28
  37              		.cfi_offset 5, -24
  38              		.cfi_offset 7, -20
  39              		.cfi_offset 8, -16
  40              		.cfi_offset 9, -12
  41              		.cfi_offset 10, -8
  42              		.cfi_offset 11, -4
  43 0004 A1B0     		sub	sp, sp, #132
  44              	.LCFI1:
  45              		.cfi_def_cfa_offset 160
  46 0006 00AF     		add	r7, sp, #0
  47              	.LCFI2:
  48              		.cfi_def_cfa_register 7
  49 0008 F862     		str	r0, [r7, #44]
  50 000a B962     		str	r1, [r7, #40]
  51 000c 7A62     		str	r2, [r7, #36]
ARM GAS  /tmp/ccVJ1TnF.s 			page 3


  52 000e 3B62     		str	r3, [r7, #32]
  65:./Libraries/CMSIS/DSP/Source/FilteringFunctions/arm_biquad_cascade_df1_q31.c ****   const q31_t *pIn = pSrc;                             /* Source pointer */
  53              		.loc 1 65 16
  54 0010 BB6A     		ldr	r3, [r7, #40]
  55 0012 FB67     		str	r3, [r7, #124]
  66:./Libraries/CMSIS/DSP/Source/FilteringFunctions/arm_biquad_cascade_df1_q31.c ****         q31_t *pOut = pDst;                            /* Destination pointer */
  56              		.loc 1 66 16
  57 0014 7B6A     		ldr	r3, [r7, #36]
  58 0016 BB67     		str	r3, [r7, #120]
  67:./Libraries/CMSIS/DSP/Source/FilteringFunctions/arm_biquad_cascade_df1_q31.c ****         q31_t *pState = S->pState;                     /* pState pointer */
  59              		.loc 1 67 16
  60 0018 FB6A     		ldr	r3, [r7, #44]
  61 001a 5B68     		ldr	r3, [r3, #4]
  62 001c 7B67     		str	r3, [r7, #116]
  68:./Libraries/CMSIS/DSP/Source/FilteringFunctions/arm_biquad_cascade_df1_q31.c ****   const q31_t *pCoeffs = S->pCoeffs;                   /* Coefficient pointer */
  63              		.loc 1 68 16
  64 001e FB6A     		ldr	r3, [r7, #44]
  65 0020 9B68     		ldr	r3, [r3, #8]
  66 0022 3B67     		str	r3, [r7, #112]
  69:./Libraries/CMSIS/DSP/Source/FilteringFunctions/arm_biquad_cascade_df1_q31.c ****         q63_t acc;                                     /* Accumulator */
  70:./Libraries/CMSIS/DSP/Source/FilteringFunctions/arm_biquad_cascade_df1_q31.c ****         q31_t b0, b1, b2, a1, a2;                      /* Filter coefficients */
  71:./Libraries/CMSIS/DSP/Source/FilteringFunctions/arm_biquad_cascade_df1_q31.c ****         q31_t Xn1, Xn2, Yn1, Yn2;                      /* Filter pState variables */
  72:./Libraries/CMSIS/DSP/Source/FilteringFunctions/arm_biquad_cascade_df1_q31.c ****         q31_t Xn;                                      /* Temporary input */
  73:./Libraries/CMSIS/DSP/Source/FilteringFunctions/arm_biquad_cascade_df1_q31.c ****         uint32_t uShift = ((uint32_t) S->postShift + 1U);
  67              		.loc 1 73 40
  68 0024 FB6A     		ldr	r3, [r7, #44]
  69 0026 1B7B     		ldrb	r3, [r3, #12]	@ zero_extendqisi2
  70              		.loc 1 73 18
  71 0028 0133     		adds	r3, r3, #1
  72 002a 7B65     		str	r3, [r7, #84]
  74:./Libraries/CMSIS/DSP/Source/FilteringFunctions/arm_biquad_cascade_df1_q31.c ****         uint32_t lShift = 32U - uShift;                /* Shift to be applied to the output */
  73              		.loc 1 74 18
  74 002c 7B6D     		ldr	r3, [r7, #84]
  75 002e C3F12003 		rsb	r3, r3, #32
  76 0032 3B65     		str	r3, [r7, #80]
  75:./Libraries/CMSIS/DSP/Source/FilteringFunctions/arm_biquad_cascade_df1_q31.c ****         uint32_t sample, stage = S->numStages;         /* Loop counters */
  77              		.loc 1 75 26
  78 0034 FB6A     		ldr	r3, [r7, #44]
  79 0036 1B68     		ldr	r3, [r3]
  80 0038 BB65     		str	r3, [r7, #88]
  81              	.L5:
  76:./Libraries/CMSIS/DSP/Source/FilteringFunctions/arm_biquad_cascade_df1_q31.c **** 
  77:./Libraries/CMSIS/DSP/Source/FilteringFunctions/arm_biquad_cascade_df1_q31.c **** #if defined (ARM_MATH_LOOPUNROLL)
  78:./Libraries/CMSIS/DSP/Source/FilteringFunctions/arm_biquad_cascade_df1_q31.c ****         q31_t acc_l, acc_h;                            /* temporary output variables */
  79:./Libraries/CMSIS/DSP/Source/FilteringFunctions/arm_biquad_cascade_df1_q31.c **** #endif
  80:./Libraries/CMSIS/DSP/Source/FilteringFunctions/arm_biquad_cascade_df1_q31.c **** 
  81:./Libraries/CMSIS/DSP/Source/FilteringFunctions/arm_biquad_cascade_df1_q31.c ****   do
  82:./Libraries/CMSIS/DSP/Source/FilteringFunctions/arm_biquad_cascade_df1_q31.c ****   {
  83:./Libraries/CMSIS/DSP/Source/FilteringFunctions/arm_biquad_cascade_df1_q31.c ****     /* Reading the coefficients */
  84:./Libraries/CMSIS/DSP/Source/FilteringFunctions/arm_biquad_cascade_df1_q31.c ****     b0 = *pCoeffs++;
  82              		.loc 1 84 18
  83 003a 3B6F     		ldr	r3, [r7, #112]
  84 003c 1A1D     		adds	r2, r3, #4
  85 003e 3A67     		str	r2, [r7, #112]
  86              		.loc 1 84 8
  87 0040 1B68     		ldr	r3, [r3]
  88 0042 FB64     		str	r3, [r7, #76]
ARM GAS  /tmp/ccVJ1TnF.s 			page 4


  85:./Libraries/CMSIS/DSP/Source/FilteringFunctions/arm_biquad_cascade_df1_q31.c ****     b1 = *pCoeffs++;
  89              		.loc 1 85 18
  90 0044 3B6F     		ldr	r3, [r7, #112]
  91 0046 1A1D     		adds	r2, r3, #4
  92 0048 3A67     		str	r2, [r7, #112]
  93              		.loc 1 85 8
  94 004a 1B68     		ldr	r3, [r3]
  95 004c BB64     		str	r3, [r7, #72]
  86:./Libraries/CMSIS/DSP/Source/FilteringFunctions/arm_biquad_cascade_df1_q31.c ****     b2 = *pCoeffs++;
  96              		.loc 1 86 18
  97 004e 3B6F     		ldr	r3, [r7, #112]
  98 0050 1A1D     		adds	r2, r3, #4
  99 0052 3A67     		str	r2, [r7, #112]
 100              		.loc 1 86 8
 101 0054 1B68     		ldr	r3, [r3]
 102 0056 7B64     		str	r3, [r7, #68]
  87:./Libraries/CMSIS/DSP/Source/FilteringFunctions/arm_biquad_cascade_df1_q31.c ****     a1 = *pCoeffs++;
 103              		.loc 1 87 18
 104 0058 3B6F     		ldr	r3, [r7, #112]
 105 005a 1A1D     		adds	r2, r3, #4
 106 005c 3A67     		str	r2, [r7, #112]
 107              		.loc 1 87 8
 108 005e 1B68     		ldr	r3, [r3]
 109 0060 3B64     		str	r3, [r7, #64]
  88:./Libraries/CMSIS/DSP/Source/FilteringFunctions/arm_biquad_cascade_df1_q31.c ****     a2 = *pCoeffs++;
 110              		.loc 1 88 18
 111 0062 3B6F     		ldr	r3, [r7, #112]
 112 0064 1A1D     		adds	r2, r3, #4
 113 0066 3A67     		str	r2, [r7, #112]
 114              		.loc 1 88 8
 115 0068 1B68     		ldr	r3, [r3]
 116 006a FB63     		str	r3, [r7, #60]
  89:./Libraries/CMSIS/DSP/Source/FilteringFunctions/arm_biquad_cascade_df1_q31.c **** 
  90:./Libraries/CMSIS/DSP/Source/FilteringFunctions/arm_biquad_cascade_df1_q31.c ****     /* Reading the pState values */
  91:./Libraries/CMSIS/DSP/Source/FilteringFunctions/arm_biquad_cascade_df1_q31.c ****     Xn1 = pState[0];
 117              		.loc 1 91 9
 118 006c 7B6F     		ldr	r3, [r7, #116]
 119 006e 1B68     		ldr	r3, [r3]
 120 0070 FB66     		str	r3, [r7, #108]
  92:./Libraries/CMSIS/DSP/Source/FilteringFunctions/arm_biquad_cascade_df1_q31.c ****     Xn2 = pState[1];
 121              		.loc 1 92 9
 122 0072 7B6F     		ldr	r3, [r7, #116]
 123 0074 5B68     		ldr	r3, [r3, #4]
 124 0076 BB66     		str	r3, [r7, #104]
  93:./Libraries/CMSIS/DSP/Source/FilteringFunctions/arm_biquad_cascade_df1_q31.c ****     Yn1 = pState[2];
 125              		.loc 1 93 9
 126 0078 7B6F     		ldr	r3, [r7, #116]
 127 007a 9B68     		ldr	r3, [r3, #8]
 128 007c 7B66     		str	r3, [r7, #100]
  94:./Libraries/CMSIS/DSP/Source/FilteringFunctions/arm_biquad_cascade_df1_q31.c ****     Yn2 = pState[3];
 129              		.loc 1 94 9
 130 007e 7B6F     		ldr	r3, [r7, #116]
 131 0080 DB68     		ldr	r3, [r3, #12]
 132 0082 3B66     		str	r3, [r7, #96]
  95:./Libraries/CMSIS/DSP/Source/FilteringFunctions/arm_biquad_cascade_df1_q31.c **** 
  96:./Libraries/CMSIS/DSP/Source/FilteringFunctions/arm_biquad_cascade_df1_q31.c **** #if defined (ARM_MATH_LOOPUNROLL)
  97:./Libraries/CMSIS/DSP/Source/FilteringFunctions/arm_biquad_cascade_df1_q31.c **** 
ARM GAS  /tmp/ccVJ1TnF.s 			page 5


  98:./Libraries/CMSIS/DSP/Source/FilteringFunctions/arm_biquad_cascade_df1_q31.c ****     /* Apply loop unrolling and compute 4 output values simultaneously. */
  99:./Libraries/CMSIS/DSP/Source/FilteringFunctions/arm_biquad_cascade_df1_q31.c ****     /* Variable acc hold output values that are being computed:
 100:./Libraries/CMSIS/DSP/Source/FilteringFunctions/arm_biquad_cascade_df1_q31.c ****      *
 101:./Libraries/CMSIS/DSP/Source/FilteringFunctions/arm_biquad_cascade_df1_q31.c ****      * acc =  b0 * x[n] + b1 * x[n-1] + b2 * x[n-2] + a1 * y[n-1] + a2 * y[n-2]
 102:./Libraries/CMSIS/DSP/Source/FilteringFunctions/arm_biquad_cascade_df1_q31.c ****      */
 103:./Libraries/CMSIS/DSP/Source/FilteringFunctions/arm_biquad_cascade_df1_q31.c **** 
 104:./Libraries/CMSIS/DSP/Source/FilteringFunctions/arm_biquad_cascade_df1_q31.c ****     /* Loop unrolling: Compute 4 outputs at a time */
 105:./Libraries/CMSIS/DSP/Source/FilteringFunctions/arm_biquad_cascade_df1_q31.c ****     sample = blockSize >> 2U;
 106:./Libraries/CMSIS/DSP/Source/FilteringFunctions/arm_biquad_cascade_df1_q31.c **** 
 107:./Libraries/CMSIS/DSP/Source/FilteringFunctions/arm_biquad_cascade_df1_q31.c ****     while (sample > 0U)
 108:./Libraries/CMSIS/DSP/Source/FilteringFunctions/arm_biquad_cascade_df1_q31.c ****     {
 109:./Libraries/CMSIS/DSP/Source/FilteringFunctions/arm_biquad_cascade_df1_q31.c ****       /* Read the first input */
 110:./Libraries/CMSIS/DSP/Source/FilteringFunctions/arm_biquad_cascade_df1_q31.c ****       Xn = *pIn++;
 111:./Libraries/CMSIS/DSP/Source/FilteringFunctions/arm_biquad_cascade_df1_q31.c **** 
 112:./Libraries/CMSIS/DSP/Source/FilteringFunctions/arm_biquad_cascade_df1_q31.c ****       /* acc =  b0 * x[n] + b1 * x[n-1] + b2 * x[n-2] + a1 * y[n-1] + a2 * y[n-2] */
 113:./Libraries/CMSIS/DSP/Source/FilteringFunctions/arm_biquad_cascade_df1_q31.c ****       acc = ((q63_t) b0 * Xn) + ((q63_t) b1 * Xn1) + ((q63_t) b2 * Xn2) + ((q63_t) a1 * Yn1) + ((q6
 114:./Libraries/CMSIS/DSP/Source/FilteringFunctions/arm_biquad_cascade_df1_q31.c **** 
 115:./Libraries/CMSIS/DSP/Source/FilteringFunctions/arm_biquad_cascade_df1_q31.c ****       /* The result is converted to 1.31 , Yn2 variable is reused */
 116:./Libraries/CMSIS/DSP/Source/FilteringFunctions/arm_biquad_cascade_df1_q31.c ****       acc_l = (acc      ) & 0xffffffff; /* Calc lower part of acc */
 117:./Libraries/CMSIS/DSP/Source/FilteringFunctions/arm_biquad_cascade_df1_q31.c ****       acc_h = (acc >> 32) & 0xffffffff; /* Calc upper part of acc */
 118:./Libraries/CMSIS/DSP/Source/FilteringFunctions/arm_biquad_cascade_df1_q31.c **** 
 119:./Libraries/CMSIS/DSP/Source/FilteringFunctions/arm_biquad_cascade_df1_q31.c ****       /* Apply shift for lower part of acc and upper part of acc */
 120:./Libraries/CMSIS/DSP/Source/FilteringFunctions/arm_biquad_cascade_df1_q31.c ****       Yn2 = (uint32_t) acc_l >> lShift | acc_h << uShift;
 121:./Libraries/CMSIS/DSP/Source/FilteringFunctions/arm_biquad_cascade_df1_q31.c **** 
 122:./Libraries/CMSIS/DSP/Source/FilteringFunctions/arm_biquad_cascade_df1_q31.c ****       /* Store output in destination buffer. */
 123:./Libraries/CMSIS/DSP/Source/FilteringFunctions/arm_biquad_cascade_df1_q31.c ****       *pOut++ = Yn2;
 124:./Libraries/CMSIS/DSP/Source/FilteringFunctions/arm_biquad_cascade_df1_q31.c **** 
 125:./Libraries/CMSIS/DSP/Source/FilteringFunctions/arm_biquad_cascade_df1_q31.c ****       /* Read the second input */
 126:./Libraries/CMSIS/DSP/Source/FilteringFunctions/arm_biquad_cascade_df1_q31.c ****       Xn2 = *pIn++;
 127:./Libraries/CMSIS/DSP/Source/FilteringFunctions/arm_biquad_cascade_df1_q31.c **** 
 128:./Libraries/CMSIS/DSP/Source/FilteringFunctions/arm_biquad_cascade_df1_q31.c ****       /* acc =  b0 * x[n] + b1 * x[n-1] + b2 * x[n-2] + a1 * y[n-1] + a2 * y[n-2] */
 129:./Libraries/CMSIS/DSP/Source/FilteringFunctions/arm_biquad_cascade_df1_q31.c ****       acc = ((q63_t) b0 * Xn2) + ((q63_t) b1 * Xn) + ((q63_t) b2 * Xn1) + ((q63_t) a1 * Yn2) + ((q6
 130:./Libraries/CMSIS/DSP/Source/FilteringFunctions/arm_biquad_cascade_df1_q31.c **** 
 131:./Libraries/CMSIS/DSP/Source/FilteringFunctions/arm_biquad_cascade_df1_q31.c ****       /* The result is converted to 1.31, Yn1 variable is reused  */
 132:./Libraries/CMSIS/DSP/Source/FilteringFunctions/arm_biquad_cascade_df1_q31.c ****       acc_l = (acc      ) & 0xffffffff; /* Calc lower part of acc */
 133:./Libraries/CMSIS/DSP/Source/FilteringFunctions/arm_biquad_cascade_df1_q31.c ****       acc_h = (acc >> 32) & 0xffffffff; /* Calc upper part of acc */
 134:./Libraries/CMSIS/DSP/Source/FilteringFunctions/arm_biquad_cascade_df1_q31.c **** 
 135:./Libraries/CMSIS/DSP/Source/FilteringFunctions/arm_biquad_cascade_df1_q31.c ****       /* Apply shift for lower part of acc and upper part of acc */
 136:./Libraries/CMSIS/DSP/Source/FilteringFunctions/arm_biquad_cascade_df1_q31.c ****       Yn1 = (uint32_t) acc_l >> lShift | acc_h << uShift;
 137:./Libraries/CMSIS/DSP/Source/FilteringFunctions/arm_biquad_cascade_df1_q31.c **** 
 138:./Libraries/CMSIS/DSP/Source/FilteringFunctions/arm_biquad_cascade_df1_q31.c ****       /* Store output in destination buffer. */
 139:./Libraries/CMSIS/DSP/Source/FilteringFunctions/arm_biquad_cascade_df1_q31.c ****       *pOut++ = Yn1;
 140:./Libraries/CMSIS/DSP/Source/FilteringFunctions/arm_biquad_cascade_df1_q31.c **** 
 141:./Libraries/CMSIS/DSP/Source/FilteringFunctions/arm_biquad_cascade_df1_q31.c ****       /* Read the third input */
 142:./Libraries/CMSIS/DSP/Source/FilteringFunctions/arm_biquad_cascade_df1_q31.c ****       Xn1 = *pIn++;
 143:./Libraries/CMSIS/DSP/Source/FilteringFunctions/arm_biquad_cascade_df1_q31.c **** 
 144:./Libraries/CMSIS/DSP/Source/FilteringFunctions/arm_biquad_cascade_df1_q31.c ****       /* acc =  b0 * x[n] + b1 * x[n-1] + b2 * x[n-2] + a1 * y[n-1] + a2 * y[n-2] */
 145:./Libraries/CMSIS/DSP/Source/FilteringFunctions/arm_biquad_cascade_df1_q31.c ****       acc = ((q63_t) b0 * Xn1) + ((q63_t) b1 * Xn2) + ((q63_t) b2 * Xn) + ((q63_t) a1 * Yn1) + ((q6
 146:./Libraries/CMSIS/DSP/Source/FilteringFunctions/arm_biquad_cascade_df1_q31.c **** 
 147:./Libraries/CMSIS/DSP/Source/FilteringFunctions/arm_biquad_cascade_df1_q31.c ****       /* The result is converted to 1.31, Yn2 variable is reused  */
 148:./Libraries/CMSIS/DSP/Source/FilteringFunctions/arm_biquad_cascade_df1_q31.c ****       acc_l = (acc      ) & 0xffffffff; /* Calc lower part of acc */
 149:./Libraries/CMSIS/DSP/Source/FilteringFunctions/arm_biquad_cascade_df1_q31.c ****       acc_h = (acc >> 32) & 0xffffffff; /* Calc upper part of acc */
 150:./Libraries/CMSIS/DSP/Source/FilteringFunctions/arm_biquad_cascade_df1_q31.c **** 
 151:./Libraries/CMSIS/DSP/Source/FilteringFunctions/arm_biquad_cascade_df1_q31.c ****       /* Apply shift for lower part of acc and upper part of acc */
 152:./Libraries/CMSIS/DSP/Source/FilteringFunctions/arm_biquad_cascade_df1_q31.c ****       Yn2 = (uint32_t) acc_l >> lShift | acc_h << uShift;
 153:./Libraries/CMSIS/DSP/Source/FilteringFunctions/arm_biquad_cascade_df1_q31.c **** 
 154:./Libraries/CMSIS/DSP/Source/FilteringFunctions/arm_biquad_cascade_df1_q31.c ****       /* Store output in destination buffer. */
ARM GAS  /tmp/ccVJ1TnF.s 			page 6


 155:./Libraries/CMSIS/DSP/Source/FilteringFunctions/arm_biquad_cascade_df1_q31.c ****       *pOut++ = Yn2;
 156:./Libraries/CMSIS/DSP/Source/FilteringFunctions/arm_biquad_cascade_df1_q31.c **** 
 157:./Libraries/CMSIS/DSP/Source/FilteringFunctions/arm_biquad_cascade_df1_q31.c ****       /* Read the forth input */
 158:./Libraries/CMSIS/DSP/Source/FilteringFunctions/arm_biquad_cascade_df1_q31.c ****       Xn = *pIn++;
 159:./Libraries/CMSIS/DSP/Source/FilteringFunctions/arm_biquad_cascade_df1_q31.c **** 
 160:./Libraries/CMSIS/DSP/Source/FilteringFunctions/arm_biquad_cascade_df1_q31.c ****       /* acc =  b0 * x[n] + b1 * x[n-1] + b2 * x[n-2] + a1 * y[n-1] + a2 * y[n-2] */
 161:./Libraries/CMSIS/DSP/Source/FilteringFunctions/arm_biquad_cascade_df1_q31.c ****       acc = ((q63_t) b0 * Xn) + ((q63_t) b1 * Xn1) + ((q63_t) b2 * Xn2) + ((q63_t) a1 * Yn2) + ((q6
 162:./Libraries/CMSIS/DSP/Source/FilteringFunctions/arm_biquad_cascade_df1_q31.c **** 
 163:./Libraries/CMSIS/DSP/Source/FilteringFunctions/arm_biquad_cascade_df1_q31.c ****       /* The result is converted to 1.31, Yn1 variable is reused  */
 164:./Libraries/CMSIS/DSP/Source/FilteringFunctions/arm_biquad_cascade_df1_q31.c ****       acc_l = (acc      ) & 0xffffffff; /* Calc lower part of acc */
 165:./Libraries/CMSIS/DSP/Source/FilteringFunctions/arm_biquad_cascade_df1_q31.c ****       acc_h = (acc >> 32) & 0xffffffff; /* Calc upper part of acc */
 166:./Libraries/CMSIS/DSP/Source/FilteringFunctions/arm_biquad_cascade_df1_q31.c **** 
 167:./Libraries/CMSIS/DSP/Source/FilteringFunctions/arm_biquad_cascade_df1_q31.c ****       /* Apply shift for lower part of acc and upper part of acc */
 168:./Libraries/CMSIS/DSP/Source/FilteringFunctions/arm_biquad_cascade_df1_q31.c ****       Yn1 = (uint32_t) acc_l >> lShift | acc_h << uShift;
 169:./Libraries/CMSIS/DSP/Source/FilteringFunctions/arm_biquad_cascade_df1_q31.c **** 
 170:./Libraries/CMSIS/DSP/Source/FilteringFunctions/arm_biquad_cascade_df1_q31.c ****       /* Store output in destination buffer. */
 171:./Libraries/CMSIS/DSP/Source/FilteringFunctions/arm_biquad_cascade_df1_q31.c ****       *pOut++ = Yn1;
 172:./Libraries/CMSIS/DSP/Source/FilteringFunctions/arm_biquad_cascade_df1_q31.c **** 
 173:./Libraries/CMSIS/DSP/Source/FilteringFunctions/arm_biquad_cascade_df1_q31.c ****       /* Every time after the output is computed state should be updated. */
 174:./Libraries/CMSIS/DSP/Source/FilteringFunctions/arm_biquad_cascade_df1_q31.c ****       /* The states should be updated as: */
 175:./Libraries/CMSIS/DSP/Source/FilteringFunctions/arm_biquad_cascade_df1_q31.c ****       /* Xn2 = Xn1 */
 176:./Libraries/CMSIS/DSP/Source/FilteringFunctions/arm_biquad_cascade_df1_q31.c ****       /* Xn1 = Xn  */
 177:./Libraries/CMSIS/DSP/Source/FilteringFunctions/arm_biquad_cascade_df1_q31.c ****       /* Yn2 = Yn1 */
 178:./Libraries/CMSIS/DSP/Source/FilteringFunctions/arm_biquad_cascade_df1_q31.c ****       /* Yn1 = acc */
 179:./Libraries/CMSIS/DSP/Source/FilteringFunctions/arm_biquad_cascade_df1_q31.c ****       Xn2 = Xn1;
 180:./Libraries/CMSIS/DSP/Source/FilteringFunctions/arm_biquad_cascade_df1_q31.c ****       Xn1 = Xn;
 181:./Libraries/CMSIS/DSP/Source/FilteringFunctions/arm_biquad_cascade_df1_q31.c **** 
 182:./Libraries/CMSIS/DSP/Source/FilteringFunctions/arm_biquad_cascade_df1_q31.c ****       /* decrement loop counter */
 183:./Libraries/CMSIS/DSP/Source/FilteringFunctions/arm_biquad_cascade_df1_q31.c ****       sample--;
 184:./Libraries/CMSIS/DSP/Source/FilteringFunctions/arm_biquad_cascade_df1_q31.c ****     }
 185:./Libraries/CMSIS/DSP/Source/FilteringFunctions/arm_biquad_cascade_df1_q31.c **** 
 186:./Libraries/CMSIS/DSP/Source/FilteringFunctions/arm_biquad_cascade_df1_q31.c ****     /* Loop unrolling: Compute remaining outputs */
 187:./Libraries/CMSIS/DSP/Source/FilteringFunctions/arm_biquad_cascade_df1_q31.c ****     sample = blockSize & 0x3U;
 188:./Libraries/CMSIS/DSP/Source/FilteringFunctions/arm_biquad_cascade_df1_q31.c **** 
 189:./Libraries/CMSIS/DSP/Source/FilteringFunctions/arm_biquad_cascade_df1_q31.c **** #else
 190:./Libraries/CMSIS/DSP/Source/FilteringFunctions/arm_biquad_cascade_df1_q31.c **** 
 191:./Libraries/CMSIS/DSP/Source/FilteringFunctions/arm_biquad_cascade_df1_q31.c ****     /* Initialize blkCnt with number of samples */
 192:./Libraries/CMSIS/DSP/Source/FilteringFunctions/arm_biquad_cascade_df1_q31.c ****     sample = blockSize;
 133              		.loc 1 192 12
 134 0084 3B6A     		ldr	r3, [r7, #32]
 135 0086 FB65     		str	r3, [r7, #92]
 193:./Libraries/CMSIS/DSP/Source/FilteringFunctions/arm_biquad_cascade_df1_q31.c **** 
 194:./Libraries/CMSIS/DSP/Source/FilteringFunctions/arm_biquad_cascade_df1_q31.c **** #endif /* #if defined (ARM_MATH_LOOPUNROLL) */
 195:./Libraries/CMSIS/DSP/Source/FilteringFunctions/arm_biquad_cascade_df1_q31.c **** 
 196:./Libraries/CMSIS/DSP/Source/FilteringFunctions/arm_biquad_cascade_df1_q31.c ****     while (sample > 0U)
 136              		.loc 1 196 11
 137 0088 A5E0     		b	.L2
 138              	.L4:
 197:./Libraries/CMSIS/DSP/Source/FilteringFunctions/arm_biquad_cascade_df1_q31.c ****     {
 198:./Libraries/CMSIS/DSP/Source/FilteringFunctions/arm_biquad_cascade_df1_q31.c ****       /* Read the input */
 199:./Libraries/CMSIS/DSP/Source/FilteringFunctions/arm_biquad_cascade_df1_q31.c ****       Xn = *pIn++;
 139              		.loc 1 199 16
 140 008a FB6F     		ldr	r3, [r7, #124]
 141 008c 1A1D     		adds	r2, r3, #4
 142 008e FA67     		str	r2, [r7, #124]
 143              		.loc 1 199 10
 144 0090 1B68     		ldr	r3, [r3]
ARM GAS  /tmp/ccVJ1TnF.s 			page 7


 145 0092 BB63     		str	r3, [r7, #56]
 200:./Libraries/CMSIS/DSP/Source/FilteringFunctions/arm_biquad_cascade_df1_q31.c **** 
 201:./Libraries/CMSIS/DSP/Source/FilteringFunctions/arm_biquad_cascade_df1_q31.c ****       /* acc =  b0 * x[n] + b1 * x[n-1] + b2 * x[n-2] + a1 * y[n-1] + a2 * y[n-2] */
 202:./Libraries/CMSIS/DSP/Source/FilteringFunctions/arm_biquad_cascade_df1_q31.c ****       acc = ((q63_t) b0 * Xn) + ((q63_t) b1 * Xn1) + ((q63_t) b2 * Xn2) + ((q63_t) a1 * Yn1) + ((q6
 146              		.loc 1 202 14
 147 0094 FB6C     		ldr	r3, [r7, #76]
 148 0096 1A46     		mov	r2, r3
 149 0098 4FEAE273 		asr	r3, r2, #31
 150              		.loc 1 202 25
 151 009c B96B     		ldr	r1, [r7, #56]
 152 009e 0846     		mov	r0, r1
 153 00a0 4FEAE071 		asr	r1, r0, #31
 154 00a4 00FB03F5 		mul	r5, r0, r3
 155 00a8 02FB01F4 		mul	r4, r2, r1
 156 00ac 2C44     		add	r4, r4, r5
 157 00ae A2FB0089 		umull	r8, r9, r2, r0
 158 00b2 04EB0903 		add	r3, r4, r9
 159 00b6 9946     		mov	r9, r3
 160              		.loc 1 202 34
 161 00b8 BB6C     		ldr	r3, [r7, #72]
 162 00ba 1846     		mov	r0, r3
 163 00bc 4FEAE071 		asr	r1, r0, #31
 164              		.loc 1 202 45
 165 00c0 FB6E     		ldr	r3, [r7, #108]
 166 00c2 1A46     		mov	r2, r3
 167 00c4 4FEAE273 		asr	r3, r2, #31
 168 00c8 02FB01F5 		mul	r5, r2, r1
 169 00cc 00FB03F4 		mul	r4, r0, r3
 170 00d0 2C44     		add	r4, r4, r5
 171 00d2 A0FB0223 		umull	r2, r3, r0, r2
 172 00d6 E118     		adds	r1, r4, r3
 173 00d8 0B46     		mov	r3, r1
 174              		.loc 1 202 31
 175 00da 18EB0201 		adds	r1, r8, r2
 176 00de B961     		str	r1, [r7, #24]
 177 00e0 49EB0303 		adc	r3, r9, r3
 178 00e4 FB61     		str	r3, [r7, #28]
 179              		.loc 1 202 55
 180 00e6 7B6C     		ldr	r3, [r7, #68]
 181 00e8 1A46     		mov	r2, r3
 182 00ea 4FEAE273 		asr	r3, r2, #31
 183              		.loc 1 202 66
 184 00ee B96E     		ldr	r1, [r7, #104]
 185 00f0 0846     		mov	r0, r1
 186 00f2 4FEAE071 		asr	r1, r0, #31
 187 00f6 00FB03F5 		mul	r5, r0, r3
 188 00fa 02FB01F4 		mul	r4, r2, r1
 189 00fe 2C44     		add	r4, r4, r5
 190 0100 A2FB0023 		umull	r2, r3, r2, r0
 191 0104 E118     		adds	r1, r4, r3
 192 0106 0B46     		mov	r3, r1
 193              		.loc 1 202 52
 194 0108 D7E90645 		ldrd	r4, [r7, #24]
 195 010c 2146     		mov	r1, r4
 196 010e 8918     		adds	r1, r1, r2
 197 0110 3961     		str	r1, [r7, #16]
 198 0112 2946     		mov	r1, r5
ARM GAS  /tmp/ccVJ1TnF.s 			page 8


 199 0114 41EB0303 		adc	r3, r1, r3
 200 0118 7B61     		str	r3, [r7, #20]
 201              		.loc 1 202 76
 202 011a 3B6C     		ldr	r3, [r7, #64]
 203 011c 1A46     		mov	r2, r3
 204 011e 4FEAE273 		asr	r3, r2, #31
 205              		.loc 1 202 87
 206 0122 796E     		ldr	r1, [r7, #100]
 207 0124 0846     		mov	r0, r1
 208 0126 4FEAE071 		asr	r1, r0, #31
 209 012a 00FB03F5 		mul	r5, r0, r3
 210 012e 02FB01F4 		mul	r4, r2, r1
 211 0132 2C44     		add	r4, r4, r5
 212 0134 A2FB0023 		umull	r2, r3, r2, r0
 213 0138 E118     		adds	r1, r4, r3
 214 013a 0B46     		mov	r3, r1
 215              		.loc 1 202 73
 216 013c D7E90445 		ldrd	r4, [r7, #16]
 217 0140 2146     		mov	r1, r4
 218 0142 8918     		adds	r1, r1, r2
 219 0144 B960     		str	r1, [r7, #8]
 220 0146 2946     		mov	r1, r5
 221 0148 41EB0303 		adc	r3, r1, r3
 222 014c FB60     		str	r3, [r7, #12]
 223              		.loc 1 202 97
 224 014e FB6B     		ldr	r3, [r7, #60]
 225 0150 1A46     		mov	r2, r3
 226 0152 4FEAE273 		asr	r3, r2, #31
 227              		.loc 1 202 108
 228 0156 396E     		ldr	r1, [r7, #96]
 229 0158 0846     		mov	r0, r1
 230 015a 4FEAE071 		asr	r1, r0, #31
 231 015e 00FB03F5 		mul	r5, r0, r3
 232 0162 02FB01F4 		mul	r4, r2, r1
 233 0166 2C44     		add	r4, r4, r5
 234 0168 A2FB0023 		umull	r2, r3, r2, r0
 235 016c E118     		adds	r1, r4, r3
 236 016e 0B46     		mov	r3, r1
 237              		.loc 1 202 11
 238 0170 D7E90245 		ldrd	r4, [r7, #8]
 239 0174 2146     		mov	r1, r4
 240 0176 8918     		adds	r1, r1, r2
 241 0178 3960     		str	r1, [r7]
 242 017a 2946     		mov	r1, r5
 243 017c 41EB0303 		adc	r3, r1, r3
 244 0180 7B60     		str	r3, [r7, #4]
 245 0182 D7E90034 		ldrd	r3, [r7]
 246 0186 C7E90C34 		strd	r3, [r7, #48]
 203:./Libraries/CMSIS/DSP/Source/FilteringFunctions/arm_biquad_cascade_df1_q31.c **** 
 204:./Libraries/CMSIS/DSP/Source/FilteringFunctions/arm_biquad_cascade_df1_q31.c ****       /* The result is converted to 1.31  */
 205:./Libraries/CMSIS/DSP/Source/FilteringFunctions/arm_biquad_cascade_df1_q31.c ****       acc = acc >> lShift;
 247              		.loc 1 205 11
 248 018a D7E90C23 		ldrd	r2, [r7, #48]
 249 018e 386D     		ldr	r0, [r7, #80]
 250 0190 C0F12001 		rsb	r1, r0, #32
 251 0194 B0F12004 		subs	r4, r0, #32
 252 0198 22FA00FA 		lsr	r10, r2, r0
ARM GAS  /tmp/ccVJ1TnF.s 			page 9


 253 019c 03FA01F1 		lsl	r1, r3, r1
 254 01a0 4AEA010A 		orr	r10, r10, r1
 255 01a4 03D4     		bmi	.L3
 256 01a6 43FA04F4 		asr	r4, r3, r4
 257 01aa 4AEA040A 		orr	r10, r10, r4
 258              	.L3:
 259 01ae 43FA00FB 		asr	fp, r3, r0
 260 01b2 C7E90CAB 		strd	r10, [r7, #48]
 206:./Libraries/CMSIS/DSP/Source/FilteringFunctions/arm_biquad_cascade_df1_q31.c **** 
 207:./Libraries/CMSIS/DSP/Source/FilteringFunctions/arm_biquad_cascade_df1_q31.c ****       /* Store output in destination buffer. */
 208:./Libraries/CMSIS/DSP/Source/FilteringFunctions/arm_biquad_cascade_df1_q31.c ****       *pOut++ = (q31_t) acc;
 261              		.loc 1 208 12
 262 01b6 BB6F     		ldr	r3, [r7, #120]
 263 01b8 1A1D     		adds	r2, r3, #4
 264 01ba BA67     		str	r2, [r7, #120]
 265              		.loc 1 208 17
 266 01bc 3A6B     		ldr	r2, [r7, #48]
 267              		.loc 1 208 15
 268 01be 1A60     		str	r2, [r3]
 209:./Libraries/CMSIS/DSP/Source/FilteringFunctions/arm_biquad_cascade_df1_q31.c **** 
 210:./Libraries/CMSIS/DSP/Source/FilteringFunctions/arm_biquad_cascade_df1_q31.c ****       /* Every time after the output is computed state should be updated. */
 211:./Libraries/CMSIS/DSP/Source/FilteringFunctions/arm_biquad_cascade_df1_q31.c ****       /* The states should be updated as: */
 212:./Libraries/CMSIS/DSP/Source/FilteringFunctions/arm_biquad_cascade_df1_q31.c ****       /* Xn2 = Xn1 */
 213:./Libraries/CMSIS/DSP/Source/FilteringFunctions/arm_biquad_cascade_df1_q31.c ****       /* Xn1 = Xn  */
 214:./Libraries/CMSIS/DSP/Source/FilteringFunctions/arm_biquad_cascade_df1_q31.c ****       /* Yn2 = Yn1 */
 215:./Libraries/CMSIS/DSP/Source/FilteringFunctions/arm_biquad_cascade_df1_q31.c ****       /* Yn1 = acc */
 216:./Libraries/CMSIS/DSP/Source/FilteringFunctions/arm_biquad_cascade_df1_q31.c ****       Xn2 = Xn1;
 269              		.loc 1 216 11
 270 01c0 FB6E     		ldr	r3, [r7, #108]
 271 01c2 BB66     		str	r3, [r7, #104]
 217:./Libraries/CMSIS/DSP/Source/FilteringFunctions/arm_biquad_cascade_df1_q31.c ****       Xn1 = Xn;
 272              		.loc 1 217 11
 273 01c4 BB6B     		ldr	r3, [r7, #56]
 274 01c6 FB66     		str	r3, [r7, #108]
 218:./Libraries/CMSIS/DSP/Source/FilteringFunctions/arm_biquad_cascade_df1_q31.c ****       Yn2 = Yn1;
 275              		.loc 1 218 11
 276 01c8 7B6E     		ldr	r3, [r7, #100]
 277 01ca 3B66     		str	r3, [r7, #96]
 219:./Libraries/CMSIS/DSP/Source/FilteringFunctions/arm_biquad_cascade_df1_q31.c ****       Yn1 = (q31_t) acc;
 278              		.loc 1 219 11
 279 01cc 3B6B     		ldr	r3, [r7, #48]
 280 01ce 7B66     		str	r3, [r7, #100]
 220:./Libraries/CMSIS/DSP/Source/FilteringFunctions/arm_biquad_cascade_df1_q31.c **** 
 221:./Libraries/CMSIS/DSP/Source/FilteringFunctions/arm_biquad_cascade_df1_q31.c ****       /* decrement loop counter */
 222:./Libraries/CMSIS/DSP/Source/FilteringFunctions/arm_biquad_cascade_df1_q31.c ****       sample--;
 281              		.loc 1 222 13
 282 01d0 FB6D     		ldr	r3, [r7, #92]
 283 01d2 013B     		subs	r3, r3, #1
 284 01d4 FB65     		str	r3, [r7, #92]
 285              	.L2:
 196:./Libraries/CMSIS/DSP/Source/FilteringFunctions/arm_biquad_cascade_df1_q31.c ****     {
 286              		.loc 1 196 11
 287 01d6 FB6D     		ldr	r3, [r7, #92]
 288 01d8 002B     		cmp	r3, #0
 289 01da 7FF456AF 		bne	.L4
 223:./Libraries/CMSIS/DSP/Source/FilteringFunctions/arm_biquad_cascade_df1_q31.c ****     }
 224:./Libraries/CMSIS/DSP/Source/FilteringFunctions/arm_biquad_cascade_df1_q31.c **** 
ARM GAS  /tmp/ccVJ1TnF.s 			page 10


 225:./Libraries/CMSIS/DSP/Source/FilteringFunctions/arm_biquad_cascade_df1_q31.c ****     /* Store the updated state variables back into the pState array */
 226:./Libraries/CMSIS/DSP/Source/FilteringFunctions/arm_biquad_cascade_df1_q31.c ****     *pState++ = Xn1;
 290              		.loc 1 226 12
 291 01de 7B6F     		ldr	r3, [r7, #116]
 292 01e0 1A1D     		adds	r2, r3, #4
 293 01e2 7A67     		str	r2, [r7, #116]
 294              		.loc 1 226 15
 295 01e4 FA6E     		ldr	r2, [r7, #108]
 296 01e6 1A60     		str	r2, [r3]
 227:./Libraries/CMSIS/DSP/Source/FilteringFunctions/arm_biquad_cascade_df1_q31.c ****     *pState++ = Xn2;
 297              		.loc 1 227 12
 298 01e8 7B6F     		ldr	r3, [r7, #116]
 299 01ea 1A1D     		adds	r2, r3, #4
 300 01ec 7A67     		str	r2, [r7, #116]
 301              		.loc 1 227 15
 302 01ee BA6E     		ldr	r2, [r7, #104]
 303 01f0 1A60     		str	r2, [r3]
 228:./Libraries/CMSIS/DSP/Source/FilteringFunctions/arm_biquad_cascade_df1_q31.c ****     *pState++ = Yn1;
 304              		.loc 1 228 12
 305 01f2 7B6F     		ldr	r3, [r7, #116]
 306 01f4 1A1D     		adds	r2, r3, #4
 307 01f6 7A67     		str	r2, [r7, #116]
 308              		.loc 1 228 15
 309 01f8 7A6E     		ldr	r2, [r7, #100]
 310 01fa 1A60     		str	r2, [r3]
 229:./Libraries/CMSIS/DSP/Source/FilteringFunctions/arm_biquad_cascade_df1_q31.c ****     *pState++ = Yn2;
 311              		.loc 1 229 12
 312 01fc 7B6F     		ldr	r3, [r7, #116]
 313 01fe 1A1D     		adds	r2, r3, #4
 314 0200 7A67     		str	r2, [r7, #116]
 315              		.loc 1 229 15
 316 0202 3A6E     		ldr	r2, [r7, #96]
 317 0204 1A60     		str	r2, [r3]
 230:./Libraries/CMSIS/DSP/Source/FilteringFunctions/arm_biquad_cascade_df1_q31.c **** 
 231:./Libraries/CMSIS/DSP/Source/FilteringFunctions/arm_biquad_cascade_df1_q31.c ****     /* The first stage goes from the input buffer to the output buffer. */
 232:./Libraries/CMSIS/DSP/Source/FilteringFunctions/arm_biquad_cascade_df1_q31.c ****     /* Subsequent numStages occur in-place in the output buffer */
 233:./Libraries/CMSIS/DSP/Source/FilteringFunctions/arm_biquad_cascade_df1_q31.c ****     pIn = pDst;
 318              		.loc 1 233 9
 319 0206 7B6A     		ldr	r3, [r7, #36]
 320 0208 FB67     		str	r3, [r7, #124]
 234:./Libraries/CMSIS/DSP/Source/FilteringFunctions/arm_biquad_cascade_df1_q31.c **** 
 235:./Libraries/CMSIS/DSP/Source/FilteringFunctions/arm_biquad_cascade_df1_q31.c ****     /* Reset output pointer */
 236:./Libraries/CMSIS/DSP/Source/FilteringFunctions/arm_biquad_cascade_df1_q31.c ****     pOut = pDst;
 321              		.loc 1 236 10
 322 020a 7B6A     		ldr	r3, [r7, #36]
 323 020c BB67     		str	r3, [r7, #120]
 237:./Libraries/CMSIS/DSP/Source/FilteringFunctions/arm_biquad_cascade_df1_q31.c **** 
 238:./Libraries/CMSIS/DSP/Source/FilteringFunctions/arm_biquad_cascade_df1_q31.c ****     /* decrement loop counter */
 239:./Libraries/CMSIS/DSP/Source/FilteringFunctions/arm_biquad_cascade_df1_q31.c ****     stage--;
 324              		.loc 1 239 10
 325 020e BB6D     		ldr	r3, [r7, #88]
 326 0210 013B     		subs	r3, r3, #1
 327 0212 BB65     		str	r3, [r7, #88]
 240:./Libraries/CMSIS/DSP/Source/FilteringFunctions/arm_biquad_cascade_df1_q31.c **** 
 241:./Libraries/CMSIS/DSP/Source/FilteringFunctions/arm_biquad_cascade_df1_q31.c ****   } while (stage > 0U);
 328              		.loc 1 241 3
 329 0214 BB6D     		ldr	r3, [r7, #88]
ARM GAS  /tmp/ccVJ1TnF.s 			page 11


 330 0216 002B     		cmp	r3, #0
 331 0218 7FF40FAF 		bne	.L5
 242:./Libraries/CMSIS/DSP/Source/FilteringFunctions/arm_biquad_cascade_df1_q31.c **** 
 243:./Libraries/CMSIS/DSP/Source/FilteringFunctions/arm_biquad_cascade_df1_q31.c **** }
 332              		.loc 1 243 1
 333 021c 00BF     		nop
 334 021e 00BF     		nop
 335 0220 8437     		adds	r7, r7, #132
 336              	.LCFI3:
 337              		.cfi_def_cfa_offset 28
 338 0222 BD46     		mov	sp, r7
 339              	.LCFI4:
 340              		.cfi_def_cfa_register 13
 341              		@ sp needed
 342 0224 BDE8B00F 		pop	{r4, r5, r7, r8, r9, r10, fp}
 343              	.LCFI5:
 344              		.cfi_restore 11
 345              		.cfi_restore 10
 346              		.cfi_restore 9
 347              		.cfi_restore 8
 348              		.cfi_restore 7
 349              		.cfi_restore 5
 350              		.cfi_restore 4
 351              		.cfi_def_cfa_offset 0
 352 0228 7047     		bx	lr
 353              		.cfi_endproc
 354              	.LFE145:
 356              		.text
 357              	.Letext0:
 358              		.file 2 "/usr/lib/gcc/arm-none-eabi/9.2.1/include/stdint.h"
 359              		.file 3 "/usr/lib/gcc/arm-none-eabi/9.2.1/include/stddef.h"
 360              		.file 4 "/usr/include/newlib/sys/_types.h"
 361              		.file 5 "/usr/include/newlib/sys/reent.h"
 362              		.file 6 "/usr/include/newlib/sys/lock.h"
 363              		.file 7 "/usr/include/newlib/math.h"
 364              		.file 8 "./Libraries/CMSIS/DSP/Include/arm_math.h"
ARM GAS  /tmp/ccVJ1TnF.s 			page 12

