ARM GAS  /tmp/ccnmYnZs.s 			page 1


   1              		.cpu cortex-m7
   2              		.eabi_attribute 28, 1
   3              		.eabi_attribute 20, 1
   4              		.eabi_attribute 21, 1
   5              		.eabi_attribute 23, 3
   6              		.eabi_attribute 24, 1
   7              		.eabi_attribute 25, 1
   8              		.eabi_attribute 26, 1
   9              		.eabi_attribute 30, 6
  10              		.eabi_attribute 34, 1
  11              		.eabi_attribute 18, 4
  12              		.file	"arm_fir_lattice_f32.c"
  13              		.text
  14              	.Ltext0:
  15              		.cfi_sections	.debug_frame
  16              		.section	.text.arm_fir_lattice_f32,"ax",%progbits
  17              		.align	1
  18              		.global	arm_fir_lattice_f32
  19              		.arch armv7e-m
  20              		.syntax unified
  21              		.thumb
  22              		.thumb_func
  23              		.fpu fpv5-d16
  25              	arm_fir_lattice_f32:
  26              	.LFB145:
  27              		.file 1 "./Libraries/CMSIS/DSP/Source/FilteringFunctions/arm_fir_lattice_f32.c"
   1:./Libraries/CMSIS/DSP/Source/FilteringFunctions/arm_fir_lattice_f32.c **** /* ----------------------------------------------------------------------
   2:./Libraries/CMSIS/DSP/Source/FilteringFunctions/arm_fir_lattice_f32.c ****  * Project:      CMSIS DSP Library
   3:./Libraries/CMSIS/DSP/Source/FilteringFunctions/arm_fir_lattice_f32.c ****  * Title:        arm_fir_lattice_f32.c
   4:./Libraries/CMSIS/DSP/Source/FilteringFunctions/arm_fir_lattice_f32.c ****  * Description:  Processing function for floating-point FIR Lattice filter
   5:./Libraries/CMSIS/DSP/Source/FilteringFunctions/arm_fir_lattice_f32.c ****  *
   6:./Libraries/CMSIS/DSP/Source/FilteringFunctions/arm_fir_lattice_f32.c ****  * $Date:        18. March 2019
   7:./Libraries/CMSIS/DSP/Source/FilteringFunctions/arm_fir_lattice_f32.c ****  * $Revision:    V1.6.0
   8:./Libraries/CMSIS/DSP/Source/FilteringFunctions/arm_fir_lattice_f32.c ****  *
   9:./Libraries/CMSIS/DSP/Source/FilteringFunctions/arm_fir_lattice_f32.c ****  * Target Processor: Cortex-M cores
  10:./Libraries/CMSIS/DSP/Source/FilteringFunctions/arm_fir_lattice_f32.c ****  * -------------------------------------------------------------------- */
  11:./Libraries/CMSIS/DSP/Source/FilteringFunctions/arm_fir_lattice_f32.c **** /*
  12:./Libraries/CMSIS/DSP/Source/FilteringFunctions/arm_fir_lattice_f32.c ****  * Copyright (C) 2010-2019 ARM Limited or its affiliates. All rights reserved.
  13:./Libraries/CMSIS/DSP/Source/FilteringFunctions/arm_fir_lattice_f32.c ****  *
  14:./Libraries/CMSIS/DSP/Source/FilteringFunctions/arm_fir_lattice_f32.c ****  * SPDX-License-Identifier: Apache-2.0
  15:./Libraries/CMSIS/DSP/Source/FilteringFunctions/arm_fir_lattice_f32.c ****  *
  16:./Libraries/CMSIS/DSP/Source/FilteringFunctions/arm_fir_lattice_f32.c ****  * Licensed under the Apache License, Version 2.0 (the License); you may
  17:./Libraries/CMSIS/DSP/Source/FilteringFunctions/arm_fir_lattice_f32.c ****  * not use this file except in compliance with the License.
  18:./Libraries/CMSIS/DSP/Source/FilteringFunctions/arm_fir_lattice_f32.c ****  * You may obtain a copy of the License at
  19:./Libraries/CMSIS/DSP/Source/FilteringFunctions/arm_fir_lattice_f32.c ****  *
  20:./Libraries/CMSIS/DSP/Source/FilteringFunctions/arm_fir_lattice_f32.c ****  * www.apache.org/licenses/LICENSE-2.0
  21:./Libraries/CMSIS/DSP/Source/FilteringFunctions/arm_fir_lattice_f32.c ****  *
  22:./Libraries/CMSIS/DSP/Source/FilteringFunctions/arm_fir_lattice_f32.c ****  * Unless required by applicable law or agreed to in writing, software
  23:./Libraries/CMSIS/DSP/Source/FilteringFunctions/arm_fir_lattice_f32.c ****  * distributed under the License is distributed on an AS IS BASIS, WITHOUT
  24:./Libraries/CMSIS/DSP/Source/FilteringFunctions/arm_fir_lattice_f32.c ****  * WARRANTIES OR CONDITIONS OF ANY KIND, either express or implied.
  25:./Libraries/CMSIS/DSP/Source/FilteringFunctions/arm_fir_lattice_f32.c ****  * See the License for the specific language governing permissions and
  26:./Libraries/CMSIS/DSP/Source/FilteringFunctions/arm_fir_lattice_f32.c ****  * limitations under the License.
  27:./Libraries/CMSIS/DSP/Source/FilteringFunctions/arm_fir_lattice_f32.c ****  */
  28:./Libraries/CMSIS/DSP/Source/FilteringFunctions/arm_fir_lattice_f32.c **** 
  29:./Libraries/CMSIS/DSP/Source/FilteringFunctions/arm_fir_lattice_f32.c **** #include "arm_math.h"
  30:./Libraries/CMSIS/DSP/Source/FilteringFunctions/arm_fir_lattice_f32.c **** 
  31:./Libraries/CMSIS/DSP/Source/FilteringFunctions/arm_fir_lattice_f32.c **** /**
ARM GAS  /tmp/ccnmYnZs.s 			page 2


  32:./Libraries/CMSIS/DSP/Source/FilteringFunctions/arm_fir_lattice_f32.c ****   @ingroup groupFilters
  33:./Libraries/CMSIS/DSP/Source/FilteringFunctions/arm_fir_lattice_f32.c ****  */
  34:./Libraries/CMSIS/DSP/Source/FilteringFunctions/arm_fir_lattice_f32.c **** 
  35:./Libraries/CMSIS/DSP/Source/FilteringFunctions/arm_fir_lattice_f32.c **** /**
  36:./Libraries/CMSIS/DSP/Source/FilteringFunctions/arm_fir_lattice_f32.c ****   @defgroup FIR_Lattice Finite Impulse Response (FIR) Lattice Filters
  37:./Libraries/CMSIS/DSP/Source/FilteringFunctions/arm_fir_lattice_f32.c **** 
  38:./Libraries/CMSIS/DSP/Source/FilteringFunctions/arm_fir_lattice_f32.c ****   This set of functions implements Finite Impulse Response (FIR) lattice filters
  39:./Libraries/CMSIS/DSP/Source/FilteringFunctions/arm_fir_lattice_f32.c ****   for Q15, Q31 and floating-point data types.  Lattice filters are used in a
  40:./Libraries/CMSIS/DSP/Source/FilteringFunctions/arm_fir_lattice_f32.c ****   variety of adaptive filter applications. The filter structure is feedforward and
  41:./Libraries/CMSIS/DSP/Source/FilteringFunctions/arm_fir_lattice_f32.c ****   the net impulse response is finite length.
  42:./Libraries/CMSIS/DSP/Source/FilteringFunctions/arm_fir_lattice_f32.c ****   The functions operate on blocks
  43:./Libraries/CMSIS/DSP/Source/FilteringFunctions/arm_fir_lattice_f32.c ****   of input and output data and each call to the function processes
  44:./Libraries/CMSIS/DSP/Source/FilteringFunctions/arm_fir_lattice_f32.c ****   <code>blockSize</code> samples through the filter.  <code>pSrc</code> and
  45:./Libraries/CMSIS/DSP/Source/FilteringFunctions/arm_fir_lattice_f32.c ****   <code>pDst</code> point to input and output arrays containing <code>blockSize</code> values.
  46:./Libraries/CMSIS/DSP/Source/FilteringFunctions/arm_fir_lattice_f32.c **** 
  47:./Libraries/CMSIS/DSP/Source/FilteringFunctions/arm_fir_lattice_f32.c ****   @par           Algorithm
  48:./Libraries/CMSIS/DSP/Source/FilteringFunctions/arm_fir_lattice_f32.c ****                    \image html FIRLattice.gif "Finite Impulse Response Lattice filter"
  49:./Libraries/CMSIS/DSP/Source/FilteringFunctions/arm_fir_lattice_f32.c ****                    The following difference equation is implemented:
  50:./Libraries/CMSIS/DSP/Source/FilteringFunctions/arm_fir_lattice_f32.c ****   @par
  51:./Libraries/CMSIS/DSP/Source/FilteringFunctions/arm_fir_lattice_f32.c ****   <pre>
  52:./Libraries/CMSIS/DSP/Source/FilteringFunctions/arm_fir_lattice_f32.c ****       f0[n] = g0[n] = x[n]
  53:./Libraries/CMSIS/DSP/Source/FilteringFunctions/arm_fir_lattice_f32.c ****       fm[n] = fm-1[n] + km * gm-1[n-1] for m = 1, 2, ...M
  54:./Libraries/CMSIS/DSP/Source/FilteringFunctions/arm_fir_lattice_f32.c ****       gm[n] = km * fm-1[n] + gm-1[n-1] for m = 1, 2, ...M
  55:./Libraries/CMSIS/DSP/Source/FilteringFunctions/arm_fir_lattice_f32.c ****       y[n] = fM[n]
  56:./Libraries/CMSIS/DSP/Source/FilteringFunctions/arm_fir_lattice_f32.c ****   </pre>
  57:./Libraries/CMSIS/DSP/Source/FilteringFunctions/arm_fir_lattice_f32.c ****   @par
  58:./Libraries/CMSIS/DSP/Source/FilteringFunctions/arm_fir_lattice_f32.c ****                    <code>pCoeffs</code> points to tha array of reflection coefficients of size <cod
  59:./Libraries/CMSIS/DSP/Source/FilteringFunctions/arm_fir_lattice_f32.c ****                    Reflection Coefficients are stored in the following order.
  60:./Libraries/CMSIS/DSP/Source/FilteringFunctions/arm_fir_lattice_f32.c ****   @par
  61:./Libraries/CMSIS/DSP/Source/FilteringFunctions/arm_fir_lattice_f32.c ****   <pre>
  62:./Libraries/CMSIS/DSP/Source/FilteringFunctions/arm_fir_lattice_f32.c ****       {k1, k2, ..., kM}
  63:./Libraries/CMSIS/DSP/Source/FilteringFunctions/arm_fir_lattice_f32.c ****   </pre>
  64:./Libraries/CMSIS/DSP/Source/FilteringFunctions/arm_fir_lattice_f32.c ****                    where M is number of stages
  65:./Libraries/CMSIS/DSP/Source/FilteringFunctions/arm_fir_lattice_f32.c ****   @par
  66:./Libraries/CMSIS/DSP/Source/FilteringFunctions/arm_fir_lattice_f32.c ****                    <code>pState</code> points to a state array of size <code>numStages</code>.
  67:./Libraries/CMSIS/DSP/Source/FilteringFunctions/arm_fir_lattice_f32.c ****                    The state variables (g values) hold previous inputs and are stored in the follow
  68:./Libraries/CMSIS/DSP/Source/FilteringFunctions/arm_fir_lattice_f32.c ****   <pre>
  69:./Libraries/CMSIS/DSP/Source/FilteringFunctions/arm_fir_lattice_f32.c ****     {g0[n], g1[n], g2[n] ...gM-1[n]}
  70:./Libraries/CMSIS/DSP/Source/FilteringFunctions/arm_fir_lattice_f32.c ****   </pre>
  71:./Libraries/CMSIS/DSP/Source/FilteringFunctions/arm_fir_lattice_f32.c ****                    The state variables are updated after each block of data is processed; the coeff
  72:./Libraries/CMSIS/DSP/Source/FilteringFunctions/arm_fir_lattice_f32.c **** 
  73:./Libraries/CMSIS/DSP/Source/FilteringFunctions/arm_fir_lattice_f32.c ****   @par           Instance Structure
  74:./Libraries/CMSIS/DSP/Source/FilteringFunctions/arm_fir_lattice_f32.c ****                    The coefficients and state variables for a filter are stored together in an inst
  75:./Libraries/CMSIS/DSP/Source/FilteringFunctions/arm_fir_lattice_f32.c ****                    A separate instance structure must be defined for each filter.
  76:./Libraries/CMSIS/DSP/Source/FilteringFunctions/arm_fir_lattice_f32.c ****                    Coefficient arrays may be shared among several instances while state variable ar
  77:./Libraries/CMSIS/DSP/Source/FilteringFunctions/arm_fir_lattice_f32.c ****                    There are separate instance structure declarations for each of the 3 supported d
  78:./Libraries/CMSIS/DSP/Source/FilteringFunctions/arm_fir_lattice_f32.c **** 
  79:./Libraries/CMSIS/DSP/Source/FilteringFunctions/arm_fir_lattice_f32.c ****   @par           Initialization Functions
  80:./Libraries/CMSIS/DSP/Source/FilteringFunctions/arm_fir_lattice_f32.c ****                    There is also an associated initialization function for each data type.
  81:./Libraries/CMSIS/DSP/Source/FilteringFunctions/arm_fir_lattice_f32.c ****                    The initialization function performs the following operations:
  82:./Libraries/CMSIS/DSP/Source/FilteringFunctions/arm_fir_lattice_f32.c ****                    - Sets the values of the internal structure fields.
  83:./Libraries/CMSIS/DSP/Source/FilteringFunctions/arm_fir_lattice_f32.c ****                    - Zeros out the values in the state buffer.
  84:./Libraries/CMSIS/DSP/Source/FilteringFunctions/arm_fir_lattice_f32.c ****                    To do this manually without calling the init function, assign the follow subfiel
  85:./Libraries/CMSIS/DSP/Source/FilteringFunctions/arm_fir_lattice_f32.c ****                    numStages, pCoeffs, pState. Also set all of the values in pState to zero.
  86:./Libraries/CMSIS/DSP/Source/FilteringFunctions/arm_fir_lattice_f32.c ****   @par
  87:./Libraries/CMSIS/DSP/Source/FilteringFunctions/arm_fir_lattice_f32.c ****                    Use of the initialization function is optional.
  88:./Libraries/CMSIS/DSP/Source/FilteringFunctions/arm_fir_lattice_f32.c ****                    However, if the initialization function is used, then the instance structure can
ARM GAS  /tmp/ccnmYnZs.s 			page 3


  89:./Libraries/CMSIS/DSP/Source/FilteringFunctions/arm_fir_lattice_f32.c ****                    To place an instance structure into a const data section, the instance structure
  90:./Libraries/CMSIS/DSP/Source/FilteringFunctions/arm_fir_lattice_f32.c ****                    Set the values in the state buffer to zeros and then manually initialize the ins
  91:./Libraries/CMSIS/DSP/Source/FilteringFunctions/arm_fir_lattice_f32.c ****   <pre>
  92:./Libraries/CMSIS/DSP/Source/FilteringFunctions/arm_fir_lattice_f32.c ****       arm_fir_lattice_instance_f32 S = {numStages, pState, pCoeffs};
  93:./Libraries/CMSIS/DSP/Source/FilteringFunctions/arm_fir_lattice_f32.c ****       arm_fir_lattice_instance_q31 S = {numStages, pState, pCoeffs};
  94:./Libraries/CMSIS/DSP/Source/FilteringFunctions/arm_fir_lattice_f32.c ****       arm_fir_lattice_instance_q15 S = {numStages, pState, pCoeffs};
  95:./Libraries/CMSIS/DSP/Source/FilteringFunctions/arm_fir_lattice_f32.c ****   </pre>
  96:./Libraries/CMSIS/DSP/Source/FilteringFunctions/arm_fir_lattice_f32.c ****   @par
  97:./Libraries/CMSIS/DSP/Source/FilteringFunctions/arm_fir_lattice_f32.c ****                    where <code>numStages</code> is the number of stages in the filter;
  98:./Libraries/CMSIS/DSP/Source/FilteringFunctions/arm_fir_lattice_f32.c ****                    <code>pState</code> is the address of the state buffer;
  99:./Libraries/CMSIS/DSP/Source/FilteringFunctions/arm_fir_lattice_f32.c ****                    <code>pCoeffs</code> is the address of the coefficient buffer.
 100:./Libraries/CMSIS/DSP/Source/FilteringFunctions/arm_fir_lattice_f32.c **** 
 101:./Libraries/CMSIS/DSP/Source/FilteringFunctions/arm_fir_lattice_f32.c ****   @par           Fixed-Point Behavior
 102:./Libraries/CMSIS/DSP/Source/FilteringFunctions/arm_fir_lattice_f32.c ****                    Care must be taken when using the fixed-point versions of the FIR Lattice filter
 103:./Libraries/CMSIS/DSP/Source/FilteringFunctions/arm_fir_lattice_f32.c ****                    In particular, the overflow and saturation behavior of the accumulator used in e
 104:./Libraries/CMSIS/DSP/Source/FilteringFunctions/arm_fir_lattice_f32.c ****                    Refer to the function specific documentation below for usage guidelines.
 105:./Libraries/CMSIS/DSP/Source/FilteringFunctions/arm_fir_lattice_f32.c ****  */
 106:./Libraries/CMSIS/DSP/Source/FilteringFunctions/arm_fir_lattice_f32.c **** 
 107:./Libraries/CMSIS/DSP/Source/FilteringFunctions/arm_fir_lattice_f32.c **** /**
 108:./Libraries/CMSIS/DSP/Source/FilteringFunctions/arm_fir_lattice_f32.c ****   @addtogroup FIR_Lattice
 109:./Libraries/CMSIS/DSP/Source/FilteringFunctions/arm_fir_lattice_f32.c ****   @{
 110:./Libraries/CMSIS/DSP/Source/FilteringFunctions/arm_fir_lattice_f32.c ****  */
 111:./Libraries/CMSIS/DSP/Source/FilteringFunctions/arm_fir_lattice_f32.c **** 
 112:./Libraries/CMSIS/DSP/Source/FilteringFunctions/arm_fir_lattice_f32.c **** /**
 113:./Libraries/CMSIS/DSP/Source/FilteringFunctions/arm_fir_lattice_f32.c ****   @brief         Processing function for the floating-point FIR lattice filter.
 114:./Libraries/CMSIS/DSP/Source/FilteringFunctions/arm_fir_lattice_f32.c ****   @param[in]     S          points to an instance of the floating-point FIR lattice structure
 115:./Libraries/CMSIS/DSP/Source/FilteringFunctions/arm_fir_lattice_f32.c ****   @param[in]     pSrc       points to the block of input data
 116:./Libraries/CMSIS/DSP/Source/FilteringFunctions/arm_fir_lattice_f32.c ****   @param[out]    pDst       points to the block of output data
 117:./Libraries/CMSIS/DSP/Source/FilteringFunctions/arm_fir_lattice_f32.c ****   @param[in]     blockSize  number of samples to process
 118:./Libraries/CMSIS/DSP/Source/FilteringFunctions/arm_fir_lattice_f32.c ****   @return        none
 119:./Libraries/CMSIS/DSP/Source/FilteringFunctions/arm_fir_lattice_f32.c ****  */
 120:./Libraries/CMSIS/DSP/Source/FilteringFunctions/arm_fir_lattice_f32.c **** 
 121:./Libraries/CMSIS/DSP/Source/FilteringFunctions/arm_fir_lattice_f32.c **** void arm_fir_lattice_f32(
 122:./Libraries/CMSIS/DSP/Source/FilteringFunctions/arm_fir_lattice_f32.c ****   const arm_fir_lattice_instance_f32 * S,
 123:./Libraries/CMSIS/DSP/Source/FilteringFunctions/arm_fir_lattice_f32.c ****   const float32_t * pSrc,
 124:./Libraries/CMSIS/DSP/Source/FilteringFunctions/arm_fir_lattice_f32.c ****         float32_t * pDst,
 125:./Libraries/CMSIS/DSP/Source/FilteringFunctions/arm_fir_lattice_f32.c ****         uint32_t blockSize)
 126:./Libraries/CMSIS/DSP/Source/FilteringFunctions/arm_fir_lattice_f32.c **** {
  28              		.loc 1 126 1
  29              		.cfi_startproc
  30              		@ args = 0, pretend = 0, frame = 64
  31              		@ frame_needed = 1, uses_anonymous_args = 0
  32              		@ link register save eliminated.
  33 0000 80B4     		push	{r7}
  34              	.LCFI0:
  35              		.cfi_def_cfa_offset 4
  36              		.cfi_offset 7, -4
  37 0002 91B0     		sub	sp, sp, #68
  38              	.LCFI1:
  39              		.cfi_def_cfa_offset 72
  40 0004 00AF     		add	r7, sp, #0
  41              	.LCFI2:
  42              		.cfi_def_cfa_register 7
  43 0006 F860     		str	r0, [r7, #12]
  44 0008 B960     		str	r1, [r7, #8]
  45 000a 7A60     		str	r2, [r7, #4]
  46 000c 3B60     		str	r3, [r7]
ARM GAS  /tmp/ccnmYnZs.s 			page 4


 127:./Libraries/CMSIS/DSP/Source/FilteringFunctions/arm_fir_lattice_f32.c ****         float32_t *pState = S->pState;                 /* State pointer */
  47              		.loc 1 127 20
  48 000e FB68     		ldr	r3, [r7, #12]
  49 0010 5B68     		ldr	r3, [r3, #4]
  50 0012 7B62     		str	r3, [r7, #36]
 128:./Libraries/CMSIS/DSP/Source/FilteringFunctions/arm_fir_lattice_f32.c ****   const float32_t *pCoeffs = S->pCoeffs;               /* Coefficient pointer */
  51              		.loc 1 128 20
  52 0014 FB68     		ldr	r3, [r7, #12]
  53 0016 9B68     		ldr	r3, [r3, #8]
  54 0018 3B62     		str	r3, [r7, #32]
 129:./Libraries/CMSIS/DSP/Source/FilteringFunctions/arm_fir_lattice_f32.c ****         float32_t *px;                                 /* Temporary state pointer */
 130:./Libraries/CMSIS/DSP/Source/FilteringFunctions/arm_fir_lattice_f32.c ****   const float32_t *pk;                                 /* Temporary coefficient pointer */
 131:./Libraries/CMSIS/DSP/Source/FilteringFunctions/arm_fir_lattice_f32.c ****         uint32_t numStages = S->numStages;             /* Number of stages in the filter */
  55              		.loc 1 131 31
  56 001a FB68     		ldr	r3, [r7, #12]
  57 001c 1B88     		ldrh	r3, [r3]
  58              		.loc 1 131 18
  59 001e FB61     		str	r3, [r7, #28]
 132:./Libraries/CMSIS/DSP/Source/FilteringFunctions/arm_fir_lattice_f32.c ****         uint32_t blkCnt, stageCnt;                     /* Loop counters */
 133:./Libraries/CMSIS/DSP/Source/FilteringFunctions/arm_fir_lattice_f32.c ****         float32_t fcurr0, fnext0, gnext0, gcurr0;      /* Temporary variables */
 134:./Libraries/CMSIS/DSP/Source/FilteringFunctions/arm_fir_lattice_f32.c **** 
 135:./Libraries/CMSIS/DSP/Source/FilteringFunctions/arm_fir_lattice_f32.c **** #if defined (ARM_MATH_LOOPUNROLL)
 136:./Libraries/CMSIS/DSP/Source/FilteringFunctions/arm_fir_lattice_f32.c ****         float32_t fcurr1, fnext1, gnext1;              /* Temporary variables for second sample in 
 137:./Libraries/CMSIS/DSP/Source/FilteringFunctions/arm_fir_lattice_f32.c ****         float32_t fcurr2, fnext2, gnext2;              /* Temporary variables for third sample in l
 138:./Libraries/CMSIS/DSP/Source/FilteringFunctions/arm_fir_lattice_f32.c ****         float32_t fcurr3, fnext3, gnext3;              /* Temporary variables for fourth sample in 
 139:./Libraries/CMSIS/DSP/Source/FilteringFunctions/arm_fir_lattice_f32.c **** #endif
 140:./Libraries/CMSIS/DSP/Source/FilteringFunctions/arm_fir_lattice_f32.c **** 
 141:./Libraries/CMSIS/DSP/Source/FilteringFunctions/arm_fir_lattice_f32.c ****   gcurr0 = 0.0f;
  60              		.loc 1 141 10
  61 0020 4FF00003 		mov	r3, #0
  62 0024 BB61     		str	r3, [r7, #24]	@ float
 142:./Libraries/CMSIS/DSP/Source/FilteringFunctions/arm_fir_lattice_f32.c **** 
 143:./Libraries/CMSIS/DSP/Source/FilteringFunctions/arm_fir_lattice_f32.c **** #if defined (ARM_MATH_LOOPUNROLL)
 144:./Libraries/CMSIS/DSP/Source/FilteringFunctions/arm_fir_lattice_f32.c **** 
 145:./Libraries/CMSIS/DSP/Source/FilteringFunctions/arm_fir_lattice_f32.c ****   /* Loop unrolling: Compute 4 outputs at a time */
 146:./Libraries/CMSIS/DSP/Source/FilteringFunctions/arm_fir_lattice_f32.c ****   blkCnt = blockSize >> 2U;
 147:./Libraries/CMSIS/DSP/Source/FilteringFunctions/arm_fir_lattice_f32.c **** 
 148:./Libraries/CMSIS/DSP/Source/FilteringFunctions/arm_fir_lattice_f32.c ****   while (blkCnt > 0U)
 149:./Libraries/CMSIS/DSP/Source/FilteringFunctions/arm_fir_lattice_f32.c ****   {
 150:./Libraries/CMSIS/DSP/Source/FilteringFunctions/arm_fir_lattice_f32.c ****     /* Read two samples from input buffer */
 151:./Libraries/CMSIS/DSP/Source/FilteringFunctions/arm_fir_lattice_f32.c ****     /* f0(n) = x(n) */
 152:./Libraries/CMSIS/DSP/Source/FilteringFunctions/arm_fir_lattice_f32.c ****     fcurr0 = *pSrc++;
 153:./Libraries/CMSIS/DSP/Source/FilteringFunctions/arm_fir_lattice_f32.c ****     fcurr1 = *pSrc++;
 154:./Libraries/CMSIS/DSP/Source/FilteringFunctions/arm_fir_lattice_f32.c **** 
 155:./Libraries/CMSIS/DSP/Source/FilteringFunctions/arm_fir_lattice_f32.c ****     /* Initialize state pointer */
 156:./Libraries/CMSIS/DSP/Source/FilteringFunctions/arm_fir_lattice_f32.c ****     px = pState;
 157:./Libraries/CMSIS/DSP/Source/FilteringFunctions/arm_fir_lattice_f32.c **** 
 158:./Libraries/CMSIS/DSP/Source/FilteringFunctions/arm_fir_lattice_f32.c ****     /* Initialize coeff pointer */
 159:./Libraries/CMSIS/DSP/Source/FilteringFunctions/arm_fir_lattice_f32.c ****     pk = pCoeffs;
 160:./Libraries/CMSIS/DSP/Source/FilteringFunctions/arm_fir_lattice_f32.c **** 
 161:./Libraries/CMSIS/DSP/Source/FilteringFunctions/arm_fir_lattice_f32.c ****     /* Read g0(n-1) from state buffer */
 162:./Libraries/CMSIS/DSP/Source/FilteringFunctions/arm_fir_lattice_f32.c ****     gcurr0 = *px;
 163:./Libraries/CMSIS/DSP/Source/FilteringFunctions/arm_fir_lattice_f32.c **** 
 164:./Libraries/CMSIS/DSP/Source/FilteringFunctions/arm_fir_lattice_f32.c ****     /* Process first sample for first tap */
 165:./Libraries/CMSIS/DSP/Source/FilteringFunctions/arm_fir_lattice_f32.c ****     /* f1(n) = f0(n) +  K1 * g0(n-1) */
 166:./Libraries/CMSIS/DSP/Source/FilteringFunctions/arm_fir_lattice_f32.c ****     fnext0 = (gcurr0 * (*pk)) + fcurr0;
 167:./Libraries/CMSIS/DSP/Source/FilteringFunctions/arm_fir_lattice_f32.c **** 
ARM GAS  /tmp/ccnmYnZs.s 			page 5


 168:./Libraries/CMSIS/DSP/Source/FilteringFunctions/arm_fir_lattice_f32.c ****     /* g1(n) = f0(n) * K1  +  g0(n-1) */
 169:./Libraries/CMSIS/DSP/Source/FilteringFunctions/arm_fir_lattice_f32.c ****     gnext0 = (fcurr0 * (*pk)) + gcurr0;
 170:./Libraries/CMSIS/DSP/Source/FilteringFunctions/arm_fir_lattice_f32.c **** 
 171:./Libraries/CMSIS/DSP/Source/FilteringFunctions/arm_fir_lattice_f32.c ****     /* Process second sample for first tap */
 172:./Libraries/CMSIS/DSP/Source/FilteringFunctions/arm_fir_lattice_f32.c ****     fnext1 = (fcurr0 * (*pk)) + fcurr1;
 173:./Libraries/CMSIS/DSP/Source/FilteringFunctions/arm_fir_lattice_f32.c ****     gnext1 = (fcurr1 * (*pk)) + fcurr0;
 174:./Libraries/CMSIS/DSP/Source/FilteringFunctions/arm_fir_lattice_f32.c **** 
 175:./Libraries/CMSIS/DSP/Source/FilteringFunctions/arm_fir_lattice_f32.c ****     /* Read next two samples from input buffer */
 176:./Libraries/CMSIS/DSP/Source/FilteringFunctions/arm_fir_lattice_f32.c ****     /* f0(n+2) = x(n+2) */
 177:./Libraries/CMSIS/DSP/Source/FilteringFunctions/arm_fir_lattice_f32.c ****     fcurr2 = *pSrc++;
 178:./Libraries/CMSIS/DSP/Source/FilteringFunctions/arm_fir_lattice_f32.c ****     fcurr3 = *pSrc++;
 179:./Libraries/CMSIS/DSP/Source/FilteringFunctions/arm_fir_lattice_f32.c **** 
 180:./Libraries/CMSIS/DSP/Source/FilteringFunctions/arm_fir_lattice_f32.c ****     /* Process third sample for first tap */
 181:./Libraries/CMSIS/DSP/Source/FilteringFunctions/arm_fir_lattice_f32.c ****     fnext2 = (fcurr1 * (*pk)) + fcurr2;
 182:./Libraries/CMSIS/DSP/Source/FilteringFunctions/arm_fir_lattice_f32.c ****     gnext2 = (fcurr2 * (*pk)) + fcurr1;
 183:./Libraries/CMSIS/DSP/Source/FilteringFunctions/arm_fir_lattice_f32.c **** 
 184:./Libraries/CMSIS/DSP/Source/FilteringFunctions/arm_fir_lattice_f32.c ****     /* Process fourth sample for first tap */
 185:./Libraries/CMSIS/DSP/Source/FilteringFunctions/arm_fir_lattice_f32.c ****     fnext3 = (fcurr2 * (*pk  )) + fcurr3;
 186:./Libraries/CMSIS/DSP/Source/FilteringFunctions/arm_fir_lattice_f32.c ****     gnext3 = (fcurr3 * (*pk++)) + fcurr2;
 187:./Libraries/CMSIS/DSP/Source/FilteringFunctions/arm_fir_lattice_f32.c **** 
 188:./Libraries/CMSIS/DSP/Source/FilteringFunctions/arm_fir_lattice_f32.c ****     /* Copy only last input sample into the state buffer
 189:./Libraries/CMSIS/DSP/Source/FilteringFunctions/arm_fir_lattice_f32.c ****        which will be used for next samples processing */
 190:./Libraries/CMSIS/DSP/Source/FilteringFunctions/arm_fir_lattice_f32.c ****     *px++ = fcurr3;
 191:./Libraries/CMSIS/DSP/Source/FilteringFunctions/arm_fir_lattice_f32.c **** 
 192:./Libraries/CMSIS/DSP/Source/FilteringFunctions/arm_fir_lattice_f32.c ****     /* Update of f values for next coefficient set processing */
 193:./Libraries/CMSIS/DSP/Source/FilteringFunctions/arm_fir_lattice_f32.c ****     fcurr0 = fnext0;
 194:./Libraries/CMSIS/DSP/Source/FilteringFunctions/arm_fir_lattice_f32.c ****     fcurr1 = fnext1;
 195:./Libraries/CMSIS/DSP/Source/FilteringFunctions/arm_fir_lattice_f32.c ****     fcurr2 = fnext2;
 196:./Libraries/CMSIS/DSP/Source/FilteringFunctions/arm_fir_lattice_f32.c ****     fcurr3 = fnext3;
 197:./Libraries/CMSIS/DSP/Source/FilteringFunctions/arm_fir_lattice_f32.c **** 
 198:./Libraries/CMSIS/DSP/Source/FilteringFunctions/arm_fir_lattice_f32.c ****     /* Loop unrolling.  Process 4 taps at a time . */
 199:./Libraries/CMSIS/DSP/Source/FilteringFunctions/arm_fir_lattice_f32.c ****     stageCnt = (numStages - 1U) >> 2U;
 200:./Libraries/CMSIS/DSP/Source/FilteringFunctions/arm_fir_lattice_f32.c **** 
 201:./Libraries/CMSIS/DSP/Source/FilteringFunctions/arm_fir_lattice_f32.c ****     /* Loop over the number of taps.  Unroll by a factor of 4.
 202:./Libraries/CMSIS/DSP/Source/FilteringFunctions/arm_fir_lattice_f32.c ****        Repeat until we've computed numStages-3 coefficients. */
 203:./Libraries/CMSIS/DSP/Source/FilteringFunctions/arm_fir_lattice_f32.c **** 
 204:./Libraries/CMSIS/DSP/Source/FilteringFunctions/arm_fir_lattice_f32.c ****     /* Process 2nd, 3rd, 4th and 5th taps ... here */
 205:./Libraries/CMSIS/DSP/Source/FilteringFunctions/arm_fir_lattice_f32.c ****     while (stageCnt > 0U)
 206:./Libraries/CMSIS/DSP/Source/FilteringFunctions/arm_fir_lattice_f32.c ****     {
 207:./Libraries/CMSIS/DSP/Source/FilteringFunctions/arm_fir_lattice_f32.c ****       /* Read g1(n-1), g3(n-1) .... from state */
 208:./Libraries/CMSIS/DSP/Source/FilteringFunctions/arm_fir_lattice_f32.c ****       gcurr0 = *px;
 209:./Libraries/CMSIS/DSP/Source/FilteringFunctions/arm_fir_lattice_f32.c **** 
 210:./Libraries/CMSIS/DSP/Source/FilteringFunctions/arm_fir_lattice_f32.c ****       /* save g1(n) in state buffer */
 211:./Libraries/CMSIS/DSP/Source/FilteringFunctions/arm_fir_lattice_f32.c ****       *px++ = gnext3;
 212:./Libraries/CMSIS/DSP/Source/FilteringFunctions/arm_fir_lattice_f32.c **** 
 213:./Libraries/CMSIS/DSP/Source/FilteringFunctions/arm_fir_lattice_f32.c ****       /* Process first sample for 2nd, 6th .. tap */
 214:./Libraries/CMSIS/DSP/Source/FilteringFunctions/arm_fir_lattice_f32.c ****       /* Sample processing for K2, K6.... */
 215:./Libraries/CMSIS/DSP/Source/FilteringFunctions/arm_fir_lattice_f32.c ****       /* f2(n) = f1(n) +  K2 * g1(n-1) */
 216:./Libraries/CMSIS/DSP/Source/FilteringFunctions/arm_fir_lattice_f32.c ****       fnext0 = (gcurr0 * (*pk)) + fcurr0;
 217:./Libraries/CMSIS/DSP/Source/FilteringFunctions/arm_fir_lattice_f32.c **** 
 218:./Libraries/CMSIS/DSP/Source/FilteringFunctions/arm_fir_lattice_f32.c ****       /* Process second sample for 2nd, 6th .. tap */
 219:./Libraries/CMSIS/DSP/Source/FilteringFunctions/arm_fir_lattice_f32.c ****       /* for sample 2 processing */
 220:./Libraries/CMSIS/DSP/Source/FilteringFunctions/arm_fir_lattice_f32.c ****       fnext1 = (gnext0 * (*pk)) + fcurr1;
 221:./Libraries/CMSIS/DSP/Source/FilteringFunctions/arm_fir_lattice_f32.c **** 
 222:./Libraries/CMSIS/DSP/Source/FilteringFunctions/arm_fir_lattice_f32.c ****       /* Process third sample for 2nd, 6th .. tap */
 223:./Libraries/CMSIS/DSP/Source/FilteringFunctions/arm_fir_lattice_f32.c ****       fnext2 = (gnext1 * (*pk)) + fcurr2;
 224:./Libraries/CMSIS/DSP/Source/FilteringFunctions/arm_fir_lattice_f32.c **** 
ARM GAS  /tmp/ccnmYnZs.s 			page 6


 225:./Libraries/CMSIS/DSP/Source/FilteringFunctions/arm_fir_lattice_f32.c ****       /* Process fourth sample for 2nd, 6th .. tap */
 226:./Libraries/CMSIS/DSP/Source/FilteringFunctions/arm_fir_lattice_f32.c ****       fnext3 = (gnext2 * (*pk)) + fcurr3;
 227:./Libraries/CMSIS/DSP/Source/FilteringFunctions/arm_fir_lattice_f32.c **** 
 228:./Libraries/CMSIS/DSP/Source/FilteringFunctions/arm_fir_lattice_f32.c ****       /* g2(n) = f1(n) * K2  +  g1(n-1) */
 229:./Libraries/CMSIS/DSP/Source/FilteringFunctions/arm_fir_lattice_f32.c ****       /* Calculation of state values for next stage */
 230:./Libraries/CMSIS/DSP/Source/FilteringFunctions/arm_fir_lattice_f32.c ****       gnext3 = (fcurr3 * (*pk)) + gnext2;
 231:./Libraries/CMSIS/DSP/Source/FilteringFunctions/arm_fir_lattice_f32.c **** 
 232:./Libraries/CMSIS/DSP/Source/FilteringFunctions/arm_fir_lattice_f32.c ****       gnext2 = (fcurr2 * (*pk)) + gnext1;
 233:./Libraries/CMSIS/DSP/Source/FilteringFunctions/arm_fir_lattice_f32.c **** 
 234:./Libraries/CMSIS/DSP/Source/FilteringFunctions/arm_fir_lattice_f32.c ****       gnext1 = (fcurr1 * (*pk)) + gnext0;
 235:./Libraries/CMSIS/DSP/Source/FilteringFunctions/arm_fir_lattice_f32.c **** 
 236:./Libraries/CMSIS/DSP/Source/FilteringFunctions/arm_fir_lattice_f32.c ****       gnext0 = (fcurr0 * (*pk++)) + gcurr0;
 237:./Libraries/CMSIS/DSP/Source/FilteringFunctions/arm_fir_lattice_f32.c **** 
 238:./Libraries/CMSIS/DSP/Source/FilteringFunctions/arm_fir_lattice_f32.c **** 
 239:./Libraries/CMSIS/DSP/Source/FilteringFunctions/arm_fir_lattice_f32.c ****       /* Read g2(n-1), g4(n-1) .... from state */
 240:./Libraries/CMSIS/DSP/Source/FilteringFunctions/arm_fir_lattice_f32.c ****       gcurr0 = *px;
 241:./Libraries/CMSIS/DSP/Source/FilteringFunctions/arm_fir_lattice_f32.c **** 
 242:./Libraries/CMSIS/DSP/Source/FilteringFunctions/arm_fir_lattice_f32.c ****       /* save g2(n) in state buffer */
 243:./Libraries/CMSIS/DSP/Source/FilteringFunctions/arm_fir_lattice_f32.c ****       *px++ = gnext3;
 244:./Libraries/CMSIS/DSP/Source/FilteringFunctions/arm_fir_lattice_f32.c **** 
 245:./Libraries/CMSIS/DSP/Source/FilteringFunctions/arm_fir_lattice_f32.c ****       /* Sample processing for K3, K7.... */
 246:./Libraries/CMSIS/DSP/Source/FilteringFunctions/arm_fir_lattice_f32.c ****       /* Process first sample for 3rd, 7th .. tap */
 247:./Libraries/CMSIS/DSP/Source/FilteringFunctions/arm_fir_lattice_f32.c ****       /* f3(n) = f2(n) +  K3 * g2(n-1) */
 248:./Libraries/CMSIS/DSP/Source/FilteringFunctions/arm_fir_lattice_f32.c ****       fcurr0 = (gcurr0 * (*pk)) + fnext0;
 249:./Libraries/CMSIS/DSP/Source/FilteringFunctions/arm_fir_lattice_f32.c **** 
 250:./Libraries/CMSIS/DSP/Source/FilteringFunctions/arm_fir_lattice_f32.c ****       /* Process second sample for 3rd, 7th .. tap */
 251:./Libraries/CMSIS/DSP/Source/FilteringFunctions/arm_fir_lattice_f32.c ****       fcurr1 = (gnext0 * (*pk)) + fnext1;
 252:./Libraries/CMSIS/DSP/Source/FilteringFunctions/arm_fir_lattice_f32.c **** 
 253:./Libraries/CMSIS/DSP/Source/FilteringFunctions/arm_fir_lattice_f32.c ****       /* Process third sample for 3rd, 7th .. tap */
 254:./Libraries/CMSIS/DSP/Source/FilteringFunctions/arm_fir_lattice_f32.c ****       fcurr2 = (gnext1 * (*pk)) + fnext2;
 255:./Libraries/CMSIS/DSP/Source/FilteringFunctions/arm_fir_lattice_f32.c **** 
 256:./Libraries/CMSIS/DSP/Source/FilteringFunctions/arm_fir_lattice_f32.c ****       /* Process fourth sample for 3rd, 7th .. tap */
 257:./Libraries/CMSIS/DSP/Source/FilteringFunctions/arm_fir_lattice_f32.c ****       fcurr3 = (gnext2 * (*pk)) + fnext3;
 258:./Libraries/CMSIS/DSP/Source/FilteringFunctions/arm_fir_lattice_f32.c **** 
 259:./Libraries/CMSIS/DSP/Source/FilteringFunctions/arm_fir_lattice_f32.c ****       /* Calculation of state values for next stage */
 260:./Libraries/CMSIS/DSP/Source/FilteringFunctions/arm_fir_lattice_f32.c ****       /* g3(n) = f2(n) * K3  +  g2(n-1) */
 261:./Libraries/CMSIS/DSP/Source/FilteringFunctions/arm_fir_lattice_f32.c ****       gnext3 = (fnext3 * (*pk)) + gnext2;
 262:./Libraries/CMSIS/DSP/Source/FilteringFunctions/arm_fir_lattice_f32.c **** 
 263:./Libraries/CMSIS/DSP/Source/FilteringFunctions/arm_fir_lattice_f32.c ****       gnext2 = (fnext2 * (*pk)) + gnext1;
 264:./Libraries/CMSIS/DSP/Source/FilteringFunctions/arm_fir_lattice_f32.c **** 
 265:./Libraries/CMSIS/DSP/Source/FilteringFunctions/arm_fir_lattice_f32.c ****       gnext1 = (fnext1 * (*pk)) + gnext0;
 266:./Libraries/CMSIS/DSP/Source/FilteringFunctions/arm_fir_lattice_f32.c **** 
 267:./Libraries/CMSIS/DSP/Source/FilteringFunctions/arm_fir_lattice_f32.c ****       gnext0 = (fnext0 * (*pk++)) + gcurr0;
 268:./Libraries/CMSIS/DSP/Source/FilteringFunctions/arm_fir_lattice_f32.c **** 
 269:./Libraries/CMSIS/DSP/Source/FilteringFunctions/arm_fir_lattice_f32.c **** 
 270:./Libraries/CMSIS/DSP/Source/FilteringFunctions/arm_fir_lattice_f32.c ****       /* Read g1(n-1), g3(n-1) .... from state */
 271:./Libraries/CMSIS/DSP/Source/FilteringFunctions/arm_fir_lattice_f32.c ****       gcurr0 = *px;
 272:./Libraries/CMSIS/DSP/Source/FilteringFunctions/arm_fir_lattice_f32.c **** 
 273:./Libraries/CMSIS/DSP/Source/FilteringFunctions/arm_fir_lattice_f32.c ****       /* save g3(n) in state buffer */
 274:./Libraries/CMSIS/DSP/Source/FilteringFunctions/arm_fir_lattice_f32.c ****       *px++ = gnext3;
 275:./Libraries/CMSIS/DSP/Source/FilteringFunctions/arm_fir_lattice_f32.c **** 
 276:./Libraries/CMSIS/DSP/Source/FilteringFunctions/arm_fir_lattice_f32.c ****       /* Sample processing for K4, K8.... */
 277:./Libraries/CMSIS/DSP/Source/FilteringFunctions/arm_fir_lattice_f32.c ****       /* Process first sample for 4th, 8th .. tap */
 278:./Libraries/CMSIS/DSP/Source/FilteringFunctions/arm_fir_lattice_f32.c ****       /* f4(n) = f3(n) +  K4 * g3(n-1) */
 279:./Libraries/CMSIS/DSP/Source/FilteringFunctions/arm_fir_lattice_f32.c ****       fnext0 = (gcurr0 * (*pk)) + fcurr0;
 280:./Libraries/CMSIS/DSP/Source/FilteringFunctions/arm_fir_lattice_f32.c **** 
 281:./Libraries/CMSIS/DSP/Source/FilteringFunctions/arm_fir_lattice_f32.c ****       /* Process second sample for 4th, 8th .. tap */
ARM GAS  /tmp/ccnmYnZs.s 			page 7


 282:./Libraries/CMSIS/DSP/Source/FilteringFunctions/arm_fir_lattice_f32.c ****       /* for sample 2 processing */
 283:./Libraries/CMSIS/DSP/Source/FilteringFunctions/arm_fir_lattice_f32.c ****       fnext1 = (gnext0 * (*pk)) + fcurr1;
 284:./Libraries/CMSIS/DSP/Source/FilteringFunctions/arm_fir_lattice_f32.c **** 
 285:./Libraries/CMSIS/DSP/Source/FilteringFunctions/arm_fir_lattice_f32.c ****       /* Process third sample for 4th, 8th .. tap */
 286:./Libraries/CMSIS/DSP/Source/FilteringFunctions/arm_fir_lattice_f32.c ****       fnext2 = (gnext1 * (*pk)) + fcurr2;
 287:./Libraries/CMSIS/DSP/Source/FilteringFunctions/arm_fir_lattice_f32.c **** 
 288:./Libraries/CMSIS/DSP/Source/FilteringFunctions/arm_fir_lattice_f32.c ****       /* Process fourth sample for 4th, 8th .. tap */
 289:./Libraries/CMSIS/DSP/Source/FilteringFunctions/arm_fir_lattice_f32.c ****       fnext3 = (gnext2 * (*pk)) + fcurr3;
 290:./Libraries/CMSIS/DSP/Source/FilteringFunctions/arm_fir_lattice_f32.c **** 
 291:./Libraries/CMSIS/DSP/Source/FilteringFunctions/arm_fir_lattice_f32.c ****       /* g4(n) = f3(n) * K4  +  g3(n-1) */
 292:./Libraries/CMSIS/DSP/Source/FilteringFunctions/arm_fir_lattice_f32.c ****       /* Calculation of state values for next stage */
 293:./Libraries/CMSIS/DSP/Source/FilteringFunctions/arm_fir_lattice_f32.c ****       gnext3 = (fcurr3 * (*pk)) + gnext2;
 294:./Libraries/CMSIS/DSP/Source/FilteringFunctions/arm_fir_lattice_f32.c **** 
 295:./Libraries/CMSIS/DSP/Source/FilteringFunctions/arm_fir_lattice_f32.c ****       gnext2 = (fcurr2 * (*pk)) + gnext1;
 296:./Libraries/CMSIS/DSP/Source/FilteringFunctions/arm_fir_lattice_f32.c **** 
 297:./Libraries/CMSIS/DSP/Source/FilteringFunctions/arm_fir_lattice_f32.c ****       gnext1 = (fcurr1 * (*pk)) + gnext0;
 298:./Libraries/CMSIS/DSP/Source/FilteringFunctions/arm_fir_lattice_f32.c **** 
 299:./Libraries/CMSIS/DSP/Source/FilteringFunctions/arm_fir_lattice_f32.c ****       gnext0 = (fcurr0 * (*pk++)) + gcurr0;
 300:./Libraries/CMSIS/DSP/Source/FilteringFunctions/arm_fir_lattice_f32.c **** 
 301:./Libraries/CMSIS/DSP/Source/FilteringFunctions/arm_fir_lattice_f32.c **** 
 302:./Libraries/CMSIS/DSP/Source/FilteringFunctions/arm_fir_lattice_f32.c ****       /* Read g2(n-1), g4(n-1) .... from state */
 303:./Libraries/CMSIS/DSP/Source/FilteringFunctions/arm_fir_lattice_f32.c ****       gcurr0 = *px;
 304:./Libraries/CMSIS/DSP/Source/FilteringFunctions/arm_fir_lattice_f32.c **** 
 305:./Libraries/CMSIS/DSP/Source/FilteringFunctions/arm_fir_lattice_f32.c ****       /* save g4(n) in state buffer */
 306:./Libraries/CMSIS/DSP/Source/FilteringFunctions/arm_fir_lattice_f32.c ****       *px++ = gnext3;
 307:./Libraries/CMSIS/DSP/Source/FilteringFunctions/arm_fir_lattice_f32.c **** 
 308:./Libraries/CMSIS/DSP/Source/FilteringFunctions/arm_fir_lattice_f32.c ****       /* Sample processing for K5, K9.... */
 309:./Libraries/CMSIS/DSP/Source/FilteringFunctions/arm_fir_lattice_f32.c ****       /* Process first sample for 5th, 9th .. tap */
 310:./Libraries/CMSIS/DSP/Source/FilteringFunctions/arm_fir_lattice_f32.c ****       /* f5(n) = f4(n) +  K5 * g4(n-1) */
 311:./Libraries/CMSIS/DSP/Source/FilteringFunctions/arm_fir_lattice_f32.c ****       fcurr0 = (gcurr0 * (*pk)) + fnext0;
 312:./Libraries/CMSIS/DSP/Source/FilteringFunctions/arm_fir_lattice_f32.c **** 
 313:./Libraries/CMSIS/DSP/Source/FilteringFunctions/arm_fir_lattice_f32.c ****       /* Process second sample for 5th, 9th .. tap */
 314:./Libraries/CMSIS/DSP/Source/FilteringFunctions/arm_fir_lattice_f32.c ****       fcurr1 = (gnext0 * (*pk)) + fnext1;
 315:./Libraries/CMSIS/DSP/Source/FilteringFunctions/arm_fir_lattice_f32.c **** 
 316:./Libraries/CMSIS/DSP/Source/FilteringFunctions/arm_fir_lattice_f32.c ****       /* Process third sample for 5th, 9th .. tap */
 317:./Libraries/CMSIS/DSP/Source/FilteringFunctions/arm_fir_lattice_f32.c ****       fcurr2 = (gnext1 * (*pk)) + fnext2;
 318:./Libraries/CMSIS/DSP/Source/FilteringFunctions/arm_fir_lattice_f32.c **** 
 319:./Libraries/CMSIS/DSP/Source/FilteringFunctions/arm_fir_lattice_f32.c ****       /* Process fourth sample for 5th, 9th .. tap */
 320:./Libraries/CMSIS/DSP/Source/FilteringFunctions/arm_fir_lattice_f32.c ****       fcurr3 = (gnext2 * (*pk)) + fnext3;
 321:./Libraries/CMSIS/DSP/Source/FilteringFunctions/arm_fir_lattice_f32.c **** 
 322:./Libraries/CMSIS/DSP/Source/FilteringFunctions/arm_fir_lattice_f32.c ****       /* Calculation of state values for next stage */
 323:./Libraries/CMSIS/DSP/Source/FilteringFunctions/arm_fir_lattice_f32.c ****       /* g5(n) = f4(n) * K5  +  g4(n-1) */
 324:./Libraries/CMSIS/DSP/Source/FilteringFunctions/arm_fir_lattice_f32.c ****       gnext3 = (fnext3 * (*pk)) + gnext2;
 325:./Libraries/CMSIS/DSP/Source/FilteringFunctions/arm_fir_lattice_f32.c **** 
 326:./Libraries/CMSIS/DSP/Source/FilteringFunctions/arm_fir_lattice_f32.c ****       gnext2 = (fnext2 * (*pk)) + gnext1;
 327:./Libraries/CMSIS/DSP/Source/FilteringFunctions/arm_fir_lattice_f32.c **** 
 328:./Libraries/CMSIS/DSP/Source/FilteringFunctions/arm_fir_lattice_f32.c ****       gnext1 = (fnext1 * (*pk)) + gnext0;
 329:./Libraries/CMSIS/DSP/Source/FilteringFunctions/arm_fir_lattice_f32.c **** 
 330:./Libraries/CMSIS/DSP/Source/FilteringFunctions/arm_fir_lattice_f32.c ****       gnext0 = (fnext0 * (*pk++)) + gcurr0;
 331:./Libraries/CMSIS/DSP/Source/FilteringFunctions/arm_fir_lattice_f32.c **** 
 332:./Libraries/CMSIS/DSP/Source/FilteringFunctions/arm_fir_lattice_f32.c ****       stageCnt--;
 333:./Libraries/CMSIS/DSP/Source/FilteringFunctions/arm_fir_lattice_f32.c ****     }
 334:./Libraries/CMSIS/DSP/Source/FilteringFunctions/arm_fir_lattice_f32.c **** 
 335:./Libraries/CMSIS/DSP/Source/FilteringFunctions/arm_fir_lattice_f32.c ****     /* If the (filter length -1) is not a multiple of 4, compute the remaining filter taps */
 336:./Libraries/CMSIS/DSP/Source/FilteringFunctions/arm_fir_lattice_f32.c ****     stageCnt = (numStages - 1U) % 0x4U;
 337:./Libraries/CMSIS/DSP/Source/FilteringFunctions/arm_fir_lattice_f32.c **** 
 338:./Libraries/CMSIS/DSP/Source/FilteringFunctions/arm_fir_lattice_f32.c ****     while (stageCnt > 0U)
ARM GAS  /tmp/ccnmYnZs.s 			page 8


 339:./Libraries/CMSIS/DSP/Source/FilteringFunctions/arm_fir_lattice_f32.c ****     {
 340:./Libraries/CMSIS/DSP/Source/FilteringFunctions/arm_fir_lattice_f32.c ****       gcurr0 = *px;
 341:./Libraries/CMSIS/DSP/Source/FilteringFunctions/arm_fir_lattice_f32.c **** 
 342:./Libraries/CMSIS/DSP/Source/FilteringFunctions/arm_fir_lattice_f32.c ****       /* save g value in state buffer */
 343:./Libraries/CMSIS/DSP/Source/FilteringFunctions/arm_fir_lattice_f32.c ****       *px++ = gnext3;
 344:./Libraries/CMSIS/DSP/Source/FilteringFunctions/arm_fir_lattice_f32.c **** 
 345:./Libraries/CMSIS/DSP/Source/FilteringFunctions/arm_fir_lattice_f32.c ****       /* Process four samples for last three taps here */
 346:./Libraries/CMSIS/DSP/Source/FilteringFunctions/arm_fir_lattice_f32.c ****       fnext0 = (gcurr0 * (*pk)) + fcurr0;
 347:./Libraries/CMSIS/DSP/Source/FilteringFunctions/arm_fir_lattice_f32.c **** 
 348:./Libraries/CMSIS/DSP/Source/FilteringFunctions/arm_fir_lattice_f32.c ****       fnext1 = (gnext0 * (*pk)) + fcurr1;
 349:./Libraries/CMSIS/DSP/Source/FilteringFunctions/arm_fir_lattice_f32.c **** 
 350:./Libraries/CMSIS/DSP/Source/FilteringFunctions/arm_fir_lattice_f32.c ****       fnext2 = (gnext1 * (*pk)) + fcurr2;
 351:./Libraries/CMSIS/DSP/Source/FilteringFunctions/arm_fir_lattice_f32.c **** 
 352:./Libraries/CMSIS/DSP/Source/FilteringFunctions/arm_fir_lattice_f32.c ****       fnext3 = (gnext2 * (*pk)) + fcurr3;
 353:./Libraries/CMSIS/DSP/Source/FilteringFunctions/arm_fir_lattice_f32.c **** 
 354:./Libraries/CMSIS/DSP/Source/FilteringFunctions/arm_fir_lattice_f32.c ****       /* g1(n) = f0(n) * K1  +  g0(n-1) */
 355:./Libraries/CMSIS/DSP/Source/FilteringFunctions/arm_fir_lattice_f32.c ****       gnext3 = (fcurr3 * (*pk)) + gnext2;
 356:./Libraries/CMSIS/DSP/Source/FilteringFunctions/arm_fir_lattice_f32.c **** 
 357:./Libraries/CMSIS/DSP/Source/FilteringFunctions/arm_fir_lattice_f32.c ****       gnext2 = (fcurr2 * (*pk)) + gnext1;
 358:./Libraries/CMSIS/DSP/Source/FilteringFunctions/arm_fir_lattice_f32.c **** 
 359:./Libraries/CMSIS/DSP/Source/FilteringFunctions/arm_fir_lattice_f32.c ****       gnext1 = (fcurr1 * (*pk)) + gnext0;
 360:./Libraries/CMSIS/DSP/Source/FilteringFunctions/arm_fir_lattice_f32.c **** 
 361:./Libraries/CMSIS/DSP/Source/FilteringFunctions/arm_fir_lattice_f32.c ****       gnext0 = (fcurr0 * (*pk++)) + gcurr0;
 362:./Libraries/CMSIS/DSP/Source/FilteringFunctions/arm_fir_lattice_f32.c **** 
 363:./Libraries/CMSIS/DSP/Source/FilteringFunctions/arm_fir_lattice_f32.c ****       /* Update of f values for next coefficient set processing */
 364:./Libraries/CMSIS/DSP/Source/FilteringFunctions/arm_fir_lattice_f32.c ****       fcurr0 = fnext0;
 365:./Libraries/CMSIS/DSP/Source/FilteringFunctions/arm_fir_lattice_f32.c ****       fcurr1 = fnext1;
 366:./Libraries/CMSIS/DSP/Source/FilteringFunctions/arm_fir_lattice_f32.c ****       fcurr2 = fnext2;
 367:./Libraries/CMSIS/DSP/Source/FilteringFunctions/arm_fir_lattice_f32.c ****       fcurr3 = fnext3;
 368:./Libraries/CMSIS/DSP/Source/FilteringFunctions/arm_fir_lattice_f32.c **** 
 369:./Libraries/CMSIS/DSP/Source/FilteringFunctions/arm_fir_lattice_f32.c ****       stageCnt--;
 370:./Libraries/CMSIS/DSP/Source/FilteringFunctions/arm_fir_lattice_f32.c ****     }
 371:./Libraries/CMSIS/DSP/Source/FilteringFunctions/arm_fir_lattice_f32.c **** 
 372:./Libraries/CMSIS/DSP/Source/FilteringFunctions/arm_fir_lattice_f32.c ****     /* The results in the 4 accumulators, store in the destination buffer. */
 373:./Libraries/CMSIS/DSP/Source/FilteringFunctions/arm_fir_lattice_f32.c ****     /* y(n) = fN(n) */
 374:./Libraries/CMSIS/DSP/Source/FilteringFunctions/arm_fir_lattice_f32.c ****     *pDst++ = fcurr0;
 375:./Libraries/CMSIS/DSP/Source/FilteringFunctions/arm_fir_lattice_f32.c ****     *pDst++ = fcurr1;
 376:./Libraries/CMSIS/DSP/Source/FilteringFunctions/arm_fir_lattice_f32.c ****     *pDst++ = fcurr2;
 377:./Libraries/CMSIS/DSP/Source/FilteringFunctions/arm_fir_lattice_f32.c ****     *pDst++ = fcurr3;
 378:./Libraries/CMSIS/DSP/Source/FilteringFunctions/arm_fir_lattice_f32.c **** 
 379:./Libraries/CMSIS/DSP/Source/FilteringFunctions/arm_fir_lattice_f32.c ****     blkCnt--;
 380:./Libraries/CMSIS/DSP/Source/FilteringFunctions/arm_fir_lattice_f32.c ****   }
 381:./Libraries/CMSIS/DSP/Source/FilteringFunctions/arm_fir_lattice_f32.c **** 
 382:./Libraries/CMSIS/DSP/Source/FilteringFunctions/arm_fir_lattice_f32.c ****   /* Loop unrolling: Compute remaining outputs */
 383:./Libraries/CMSIS/DSP/Source/FilteringFunctions/arm_fir_lattice_f32.c ****   blkCnt = blockSize % 0x4U;
 384:./Libraries/CMSIS/DSP/Source/FilteringFunctions/arm_fir_lattice_f32.c **** 
 385:./Libraries/CMSIS/DSP/Source/FilteringFunctions/arm_fir_lattice_f32.c **** #else
 386:./Libraries/CMSIS/DSP/Source/FilteringFunctions/arm_fir_lattice_f32.c **** 
 387:./Libraries/CMSIS/DSP/Source/FilteringFunctions/arm_fir_lattice_f32.c ****   /* Initialize blkCnt with number of samples */
 388:./Libraries/CMSIS/DSP/Source/FilteringFunctions/arm_fir_lattice_f32.c ****   blkCnt = blockSize;
  63              		.loc 1 388 10
  64 0026 3B68     		ldr	r3, [r7]
  65 0028 7B63     		str	r3, [r7, #52]
 389:./Libraries/CMSIS/DSP/Source/FilteringFunctions/arm_fir_lattice_f32.c **** 
 390:./Libraries/CMSIS/DSP/Source/FilteringFunctions/arm_fir_lattice_f32.c **** #endif /* #if defined (ARM_MATH_LOOPUNROLL) */
 391:./Libraries/CMSIS/DSP/Source/FilteringFunctions/arm_fir_lattice_f32.c **** 
 392:./Libraries/CMSIS/DSP/Source/FilteringFunctions/arm_fir_lattice_f32.c ****   while (blkCnt > 0U)
ARM GAS  /tmp/ccnmYnZs.s 			page 9


  66              		.loc 1 392 9
  67 002a 66E0     		b	.L2
  68              	.L5:
 393:./Libraries/CMSIS/DSP/Source/FilteringFunctions/arm_fir_lattice_f32.c ****   {
 394:./Libraries/CMSIS/DSP/Source/FilteringFunctions/arm_fir_lattice_f32.c ****     /* f0(n) = x(n) */
 395:./Libraries/CMSIS/DSP/Source/FilteringFunctions/arm_fir_lattice_f32.c ****     fcurr0 = *pSrc++;
  69              		.loc 1 395 19
  70 002c BB68     		ldr	r3, [r7, #8]
  71 002e 1A1D     		adds	r2, r3, #4
  72 0030 BA60     		str	r2, [r7, #8]
  73              		.loc 1 395 12
  74 0032 1B68     		ldr	r3, [r3]	@ float
  75 0034 FB62     		str	r3, [r7, #44]	@ float
 396:./Libraries/CMSIS/DSP/Source/FilteringFunctions/arm_fir_lattice_f32.c **** 
 397:./Libraries/CMSIS/DSP/Source/FilteringFunctions/arm_fir_lattice_f32.c ****     /* Initialize state pointer */
 398:./Libraries/CMSIS/DSP/Source/FilteringFunctions/arm_fir_lattice_f32.c ****     px = pState;
  76              		.loc 1 398 8
  77 0036 7B6A     		ldr	r3, [r7, #36]
  78 0038 FB63     		str	r3, [r7, #60]
 399:./Libraries/CMSIS/DSP/Source/FilteringFunctions/arm_fir_lattice_f32.c **** 
 400:./Libraries/CMSIS/DSP/Source/FilteringFunctions/arm_fir_lattice_f32.c ****     /* Initialize coeff pointer */
 401:./Libraries/CMSIS/DSP/Source/FilteringFunctions/arm_fir_lattice_f32.c ****     pk = pCoeffs;
  79              		.loc 1 401 8
  80 003a 3B6A     		ldr	r3, [r7, #32]
  81 003c BB63     		str	r3, [r7, #56]
 402:./Libraries/CMSIS/DSP/Source/FilteringFunctions/arm_fir_lattice_f32.c **** 
 403:./Libraries/CMSIS/DSP/Source/FilteringFunctions/arm_fir_lattice_f32.c ****     /* read g2(n) from state buffer */
 404:./Libraries/CMSIS/DSP/Source/FilteringFunctions/arm_fir_lattice_f32.c ****     gcurr0 = *px;
  82              		.loc 1 404 12
  83 003e FB6B     		ldr	r3, [r7, #60]
  84 0040 1B68     		ldr	r3, [r3]	@ float
  85 0042 BB61     		str	r3, [r7, #24]	@ float
 405:./Libraries/CMSIS/DSP/Source/FilteringFunctions/arm_fir_lattice_f32.c **** 
 406:./Libraries/CMSIS/DSP/Source/FilteringFunctions/arm_fir_lattice_f32.c ****     /* for sample 1 processing */
 407:./Libraries/CMSIS/DSP/Source/FilteringFunctions/arm_fir_lattice_f32.c ****     /* f1(n) = f0(n) +  K1 * g0(n-1) */
 408:./Libraries/CMSIS/DSP/Source/FilteringFunctions/arm_fir_lattice_f32.c ****     fnext0 = (gcurr0 * (*pk)) + fcurr0;
  86              		.loc 1 408 25
  87 0044 BB6B     		ldr	r3, [r7, #56]
  88 0046 93ED007A 		vldr.32	s14, [r3]
  89              		.loc 1 408 22
  90 004a D7ED067A 		vldr.32	s15, [r7, #24]
  91 004e 67EE277A 		vmul.f32	s15, s14, s15
  92              		.loc 1 408 12
  93 0052 97ED0B7A 		vldr.32	s14, [r7, #44]
  94 0056 77EE277A 		vadd.f32	s15, s14, s15
  95 005a C7ED057A 		vstr.32	s15, [r7, #20]
 409:./Libraries/CMSIS/DSP/Source/FilteringFunctions/arm_fir_lattice_f32.c **** 
 410:./Libraries/CMSIS/DSP/Source/FilteringFunctions/arm_fir_lattice_f32.c ****     /* g1(n) = f0(n) * K1  +  g0(n-1) */
 411:./Libraries/CMSIS/DSP/Source/FilteringFunctions/arm_fir_lattice_f32.c ****     gnext0 = (fcurr0 * (*pk++)) + gcurr0;
  96              		.loc 1 411 28
  97 005e BB6B     		ldr	r3, [r7, #56]
  98 0060 1A1D     		adds	r2, r3, #4
  99 0062 BA63     		str	r2, [r7, #56]
 100              		.loc 1 411 25
 101 0064 93ED007A 		vldr.32	s14, [r3]
 102              		.loc 1 411 22
 103 0068 D7ED0B7A 		vldr.32	s15, [r7, #44]
ARM GAS  /tmp/ccnmYnZs.s 			page 10


 104 006c 67EE277A 		vmul.f32	s15, s14, s15
 105              		.loc 1 411 12
 106 0070 97ED067A 		vldr.32	s14, [r7, #24]
 107 0074 77EE277A 		vadd.f32	s15, s14, s15
 108 0078 C7ED0A7A 		vstr.32	s15, [r7, #40]
 412:./Libraries/CMSIS/DSP/Source/FilteringFunctions/arm_fir_lattice_f32.c **** 
 413:./Libraries/CMSIS/DSP/Source/FilteringFunctions/arm_fir_lattice_f32.c ****     /* save g1(n) in state buffer */
 414:./Libraries/CMSIS/DSP/Source/FilteringFunctions/arm_fir_lattice_f32.c ****     *px++ = fcurr0;
 109              		.loc 1 414 8
 110 007c FB6B     		ldr	r3, [r7, #60]
 111 007e 1A1D     		adds	r2, r3, #4
 112 0080 FA63     		str	r2, [r7, #60]
 113              		.loc 1 414 11
 114 0082 FA6A     		ldr	r2, [r7, #44]	@ float
 115 0084 1A60     		str	r2, [r3]	@ float
 415:./Libraries/CMSIS/DSP/Source/FilteringFunctions/arm_fir_lattice_f32.c **** 
 416:./Libraries/CMSIS/DSP/Source/FilteringFunctions/arm_fir_lattice_f32.c ****     /* f1(n) is saved in fcurr0 for next stage processing */
 417:./Libraries/CMSIS/DSP/Source/FilteringFunctions/arm_fir_lattice_f32.c ****     fcurr0 = fnext0;
 116              		.loc 1 417 12
 117 0086 7B69     		ldr	r3, [r7, #20]	@ float
 118 0088 FB62     		str	r3, [r7, #44]	@ float
 418:./Libraries/CMSIS/DSP/Source/FilteringFunctions/arm_fir_lattice_f32.c **** 
 419:./Libraries/CMSIS/DSP/Source/FilteringFunctions/arm_fir_lattice_f32.c ****     stageCnt = (numStages - 1U);
 119              		.loc 1 419 14
 120 008a FB69     		ldr	r3, [r7, #28]
 121 008c 013B     		subs	r3, r3, #1
 122 008e 3B63     		str	r3, [r7, #48]
 420:./Libraries/CMSIS/DSP/Source/FilteringFunctions/arm_fir_lattice_f32.c **** 
 421:./Libraries/CMSIS/DSP/Source/FilteringFunctions/arm_fir_lattice_f32.c ****     /* stage loop */
 422:./Libraries/CMSIS/DSP/Source/FilteringFunctions/arm_fir_lattice_f32.c ****     while (stageCnt > 0U)
 123              		.loc 1 422 11
 124 0090 28E0     		b	.L3
 125              	.L4:
 423:./Libraries/CMSIS/DSP/Source/FilteringFunctions/arm_fir_lattice_f32.c ****     {
 424:./Libraries/CMSIS/DSP/Source/FilteringFunctions/arm_fir_lattice_f32.c ****       /* read g2(n) from state buffer */
 425:./Libraries/CMSIS/DSP/Source/FilteringFunctions/arm_fir_lattice_f32.c ****       gcurr0 = *px;
 126              		.loc 1 425 14
 127 0092 FB6B     		ldr	r3, [r7, #60]
 128 0094 1B68     		ldr	r3, [r3]	@ float
 129 0096 BB61     		str	r3, [r7, #24]	@ float
 426:./Libraries/CMSIS/DSP/Source/FilteringFunctions/arm_fir_lattice_f32.c **** 
 427:./Libraries/CMSIS/DSP/Source/FilteringFunctions/arm_fir_lattice_f32.c ****       /* save g1(n) in state buffer */
 428:./Libraries/CMSIS/DSP/Source/FilteringFunctions/arm_fir_lattice_f32.c ****       *px++ = gnext0;
 130              		.loc 1 428 10
 131 0098 FB6B     		ldr	r3, [r7, #60]
 132 009a 1A1D     		adds	r2, r3, #4
 133 009c FA63     		str	r2, [r7, #60]
 134              		.loc 1 428 13
 135 009e BA6A     		ldr	r2, [r7, #40]	@ float
 136 00a0 1A60     		str	r2, [r3]	@ float
 429:./Libraries/CMSIS/DSP/Source/FilteringFunctions/arm_fir_lattice_f32.c **** 
 430:./Libraries/CMSIS/DSP/Source/FilteringFunctions/arm_fir_lattice_f32.c ****       /* Sample processing for K2, K3.... */
 431:./Libraries/CMSIS/DSP/Source/FilteringFunctions/arm_fir_lattice_f32.c ****       /* f2(n) = f1(n) +  K2 * g1(n-1) */
 432:./Libraries/CMSIS/DSP/Source/FilteringFunctions/arm_fir_lattice_f32.c ****       fnext0 = (gcurr0 * (*pk)) + fcurr0;
 137              		.loc 1 432 27
 138 00a2 BB6B     		ldr	r3, [r7, #56]
 139 00a4 93ED007A 		vldr.32	s14, [r3]
ARM GAS  /tmp/ccnmYnZs.s 			page 11


 140              		.loc 1 432 24
 141 00a8 D7ED067A 		vldr.32	s15, [r7, #24]
 142 00ac 67EE277A 		vmul.f32	s15, s14, s15
 143              		.loc 1 432 14
 144 00b0 97ED0B7A 		vldr.32	s14, [r7, #44]
 145 00b4 77EE277A 		vadd.f32	s15, s14, s15
 146 00b8 C7ED057A 		vstr.32	s15, [r7, #20]
 433:./Libraries/CMSIS/DSP/Source/FilteringFunctions/arm_fir_lattice_f32.c **** 
 434:./Libraries/CMSIS/DSP/Source/FilteringFunctions/arm_fir_lattice_f32.c ****       /* g2(n) = f1(n) * K2  +  g1(n-1) */
 435:./Libraries/CMSIS/DSP/Source/FilteringFunctions/arm_fir_lattice_f32.c ****       gnext0 = (fcurr0 * (*pk++)) + gcurr0;
 147              		.loc 1 435 30
 148 00bc BB6B     		ldr	r3, [r7, #56]
 149 00be 1A1D     		adds	r2, r3, #4
 150 00c0 BA63     		str	r2, [r7, #56]
 151              		.loc 1 435 27
 152 00c2 93ED007A 		vldr.32	s14, [r3]
 153              		.loc 1 435 24
 154 00c6 D7ED0B7A 		vldr.32	s15, [r7, #44]
 155 00ca 67EE277A 		vmul.f32	s15, s14, s15
 156              		.loc 1 435 14
 157 00ce 97ED067A 		vldr.32	s14, [r7, #24]
 158 00d2 77EE277A 		vadd.f32	s15, s14, s15
 159 00d6 C7ED0A7A 		vstr.32	s15, [r7, #40]
 436:./Libraries/CMSIS/DSP/Source/FilteringFunctions/arm_fir_lattice_f32.c **** 
 437:./Libraries/CMSIS/DSP/Source/FilteringFunctions/arm_fir_lattice_f32.c ****       /* f1(n) is saved in fcurr0 for next stage processing */
 438:./Libraries/CMSIS/DSP/Source/FilteringFunctions/arm_fir_lattice_f32.c ****       fcurr0 = fnext0;
 160              		.loc 1 438 14
 161 00da 7B69     		ldr	r3, [r7, #20]	@ float
 162 00dc FB62     		str	r3, [r7, #44]	@ float
 439:./Libraries/CMSIS/DSP/Source/FilteringFunctions/arm_fir_lattice_f32.c **** 
 440:./Libraries/CMSIS/DSP/Source/FilteringFunctions/arm_fir_lattice_f32.c ****       stageCnt--;
 163              		.loc 1 440 15
 164 00de 3B6B     		ldr	r3, [r7, #48]
 165 00e0 013B     		subs	r3, r3, #1
 166 00e2 3B63     		str	r3, [r7, #48]
 167              	.L3:
 422:./Libraries/CMSIS/DSP/Source/FilteringFunctions/arm_fir_lattice_f32.c ****     {
 168              		.loc 1 422 11
 169 00e4 3B6B     		ldr	r3, [r7, #48]
 170 00e6 002B     		cmp	r3, #0
 171 00e8 D3D1     		bne	.L4
 441:./Libraries/CMSIS/DSP/Source/FilteringFunctions/arm_fir_lattice_f32.c ****     }
 442:./Libraries/CMSIS/DSP/Source/FilteringFunctions/arm_fir_lattice_f32.c **** 
 443:./Libraries/CMSIS/DSP/Source/FilteringFunctions/arm_fir_lattice_f32.c ****     /* y(n) = fN(n) */
 444:./Libraries/CMSIS/DSP/Source/FilteringFunctions/arm_fir_lattice_f32.c ****     *pDst++ = fcurr0;
 172              		.loc 1 444 10
 173 00ea 7B68     		ldr	r3, [r7, #4]
 174 00ec 1A1D     		adds	r2, r3, #4
 175 00ee 7A60     		str	r2, [r7, #4]
 176              		.loc 1 444 13
 177 00f0 FA6A     		ldr	r2, [r7, #44]	@ float
 178 00f2 1A60     		str	r2, [r3]	@ float
 445:./Libraries/CMSIS/DSP/Source/FilteringFunctions/arm_fir_lattice_f32.c **** 
 446:./Libraries/CMSIS/DSP/Source/FilteringFunctions/arm_fir_lattice_f32.c ****     blkCnt--;
 179              		.loc 1 446 11
 180 00f4 7B6B     		ldr	r3, [r7, #52]
 181 00f6 013B     		subs	r3, r3, #1
ARM GAS  /tmp/ccnmYnZs.s 			page 12


 182 00f8 7B63     		str	r3, [r7, #52]
 183              	.L2:
 392:./Libraries/CMSIS/DSP/Source/FilteringFunctions/arm_fir_lattice_f32.c ****   {
 184              		.loc 1 392 9
 185 00fa 7B6B     		ldr	r3, [r7, #52]
 186 00fc 002B     		cmp	r3, #0
 187 00fe 95D1     		bne	.L5
 447:./Libraries/CMSIS/DSP/Source/FilteringFunctions/arm_fir_lattice_f32.c ****   }
 448:./Libraries/CMSIS/DSP/Source/FilteringFunctions/arm_fir_lattice_f32.c **** 
 449:./Libraries/CMSIS/DSP/Source/FilteringFunctions/arm_fir_lattice_f32.c **** }
 188              		.loc 1 449 1
 189 0100 00BF     		nop
 190 0102 00BF     		nop
 191 0104 4437     		adds	r7, r7, #68
 192              	.LCFI3:
 193              		.cfi_def_cfa_offset 4
 194 0106 BD46     		mov	sp, r7
 195              	.LCFI4:
 196              		.cfi_def_cfa_register 13
 197              		@ sp needed
 198 0108 5DF8047B 		ldr	r7, [sp], #4
 199              	.LCFI5:
 200              		.cfi_restore 7
 201              		.cfi_def_cfa_offset 0
 202 010c 7047     		bx	lr
 203              		.cfi_endproc
 204              	.LFE145:
 206              		.text
 207              	.Letext0:
 208              		.file 2 "/usr/lib/gcc/arm-none-eabi/9.2.1/include/stdint.h"
 209              		.file 3 "/usr/lib/gcc/arm-none-eabi/9.2.1/include/stddef.h"
 210              		.file 4 "/usr/include/newlib/sys/_types.h"
 211              		.file 5 "/usr/include/newlib/sys/reent.h"
 212              		.file 6 "/usr/include/newlib/sys/lock.h"
 213              		.file 7 "/usr/include/newlib/math.h"
 214              		.file 8 "./Libraries/CMSIS/DSP/Include/arm_math.h"
ARM GAS  /tmp/ccnmYnZs.s 			page 13

