ARM GAS  /tmp/ccXfLu9Z.s 			page 1


   1              		.cpu cortex-m7
   2              		.eabi_attribute 28, 1
   3              		.eabi_attribute 20, 1
   4              		.eabi_attribute 21, 1
   5              		.eabi_attribute 23, 3
   6              		.eabi_attribute 24, 1
   7              		.eabi_attribute 25, 1
   8              		.eabi_attribute 26, 1
   9              		.eabi_attribute 30, 6
  10              		.eabi_attribute 34, 1
  11              		.eabi_attribute 18, 4
  12              		.file	"arm_dct4_init_f32.c"
  13              		.text
  14              	.Ltext0:
  15              		.cfi_sections	.debug_frame
  16              		.section	.text.arm_dct4_init_f32,"ax",%progbits
  17              		.align	1
  18              		.global	arm_dct4_init_f32
  19              		.arch armv7e-m
  20              		.syntax unified
  21              		.thumb
  22              		.thumb_func
  23              		.fpu fpv5-d16
  25              	arm_dct4_init_f32:
  26              	.LFB145:
  27              		.file 1 "./Libraries/CMSIS/DSP/Source/TransformFunctions/arm_dct4_init_f32.c"
   1:./Libraries/CMSIS/DSP/Source/TransformFunctions/arm_dct4_init_f32.c **** /* ----------------------------------------------------------------------
   2:./Libraries/CMSIS/DSP/Source/TransformFunctions/arm_dct4_init_f32.c ****  * Project:      CMSIS DSP Library
   3:./Libraries/CMSIS/DSP/Source/TransformFunctions/arm_dct4_init_f32.c ****  * Title:        arm_dct4_init_f32.c
   4:./Libraries/CMSIS/DSP/Source/TransformFunctions/arm_dct4_init_f32.c ****  * Description:  Initialization function of DCT-4 & IDCT4 F32
   5:./Libraries/CMSIS/DSP/Source/TransformFunctions/arm_dct4_init_f32.c ****  *
   6:./Libraries/CMSIS/DSP/Source/TransformFunctions/arm_dct4_init_f32.c ****  * $Date:        18. March 2019
   7:./Libraries/CMSIS/DSP/Source/TransformFunctions/arm_dct4_init_f32.c ****  * $Revision:    V1.6.0
   8:./Libraries/CMSIS/DSP/Source/TransformFunctions/arm_dct4_init_f32.c ****  *
   9:./Libraries/CMSIS/DSP/Source/TransformFunctions/arm_dct4_init_f32.c ****  * Target Processor: Cortex-M cores
  10:./Libraries/CMSIS/DSP/Source/TransformFunctions/arm_dct4_init_f32.c ****  * -------------------------------------------------------------------- */
  11:./Libraries/CMSIS/DSP/Source/TransformFunctions/arm_dct4_init_f32.c **** /*
  12:./Libraries/CMSIS/DSP/Source/TransformFunctions/arm_dct4_init_f32.c ****  * Copyright (C) 2010-2019 ARM Limited or its affiliates. All rights reserved.
  13:./Libraries/CMSIS/DSP/Source/TransformFunctions/arm_dct4_init_f32.c ****  *
  14:./Libraries/CMSIS/DSP/Source/TransformFunctions/arm_dct4_init_f32.c ****  * SPDX-License-Identifier: Apache-2.0
  15:./Libraries/CMSIS/DSP/Source/TransformFunctions/arm_dct4_init_f32.c ****  *
  16:./Libraries/CMSIS/DSP/Source/TransformFunctions/arm_dct4_init_f32.c ****  * Licensed under the Apache License, Version 2.0 (the License); you may
  17:./Libraries/CMSIS/DSP/Source/TransformFunctions/arm_dct4_init_f32.c ****  * not use this file except in compliance with the License.
  18:./Libraries/CMSIS/DSP/Source/TransformFunctions/arm_dct4_init_f32.c ****  * You may obtain a copy of the License at
  19:./Libraries/CMSIS/DSP/Source/TransformFunctions/arm_dct4_init_f32.c ****  *
  20:./Libraries/CMSIS/DSP/Source/TransformFunctions/arm_dct4_init_f32.c ****  * www.apache.org/licenses/LICENSE-2.0
  21:./Libraries/CMSIS/DSP/Source/TransformFunctions/arm_dct4_init_f32.c ****  *
  22:./Libraries/CMSIS/DSP/Source/TransformFunctions/arm_dct4_init_f32.c ****  * Unless required by applicable law or agreed to in writing, software
  23:./Libraries/CMSIS/DSP/Source/TransformFunctions/arm_dct4_init_f32.c ****  * distributed under the License is distributed on an AS IS BASIS, WITHOUT
  24:./Libraries/CMSIS/DSP/Source/TransformFunctions/arm_dct4_init_f32.c ****  * WARRANTIES OR CONDITIONS OF ANY KIND, either express or implied.
  25:./Libraries/CMSIS/DSP/Source/TransformFunctions/arm_dct4_init_f32.c ****  * See the License for the specific language governing permissions and
  26:./Libraries/CMSIS/DSP/Source/TransformFunctions/arm_dct4_init_f32.c ****  * limitations under the License.
  27:./Libraries/CMSIS/DSP/Source/TransformFunctions/arm_dct4_init_f32.c ****  */
  28:./Libraries/CMSIS/DSP/Source/TransformFunctions/arm_dct4_init_f32.c **** 
  29:./Libraries/CMSIS/DSP/Source/TransformFunctions/arm_dct4_init_f32.c **** #include "arm_math.h"
  30:./Libraries/CMSIS/DSP/Source/TransformFunctions/arm_dct4_init_f32.c **** #include "arm_common_tables.h"
  31:./Libraries/CMSIS/DSP/Source/TransformFunctions/arm_dct4_init_f32.c **** 
ARM GAS  /tmp/ccXfLu9Z.s 			page 2


  32:./Libraries/CMSIS/DSP/Source/TransformFunctions/arm_dct4_init_f32.c **** /**
  33:./Libraries/CMSIS/DSP/Source/TransformFunctions/arm_dct4_init_f32.c ****   @ingroup DCT4_IDCT4
  34:./Libraries/CMSIS/DSP/Source/TransformFunctions/arm_dct4_init_f32.c ****  */
  35:./Libraries/CMSIS/DSP/Source/TransformFunctions/arm_dct4_init_f32.c **** 
  36:./Libraries/CMSIS/DSP/Source/TransformFunctions/arm_dct4_init_f32.c **** 
  37:./Libraries/CMSIS/DSP/Source/TransformFunctions/arm_dct4_init_f32.c **** /**
  38:./Libraries/CMSIS/DSP/Source/TransformFunctions/arm_dct4_init_f32.c ****   @addtogroup DCT4_IDCT4
  39:./Libraries/CMSIS/DSP/Source/TransformFunctions/arm_dct4_init_f32.c ****   @{
  40:./Libraries/CMSIS/DSP/Source/TransformFunctions/arm_dct4_init_f32.c ****  */
  41:./Libraries/CMSIS/DSP/Source/TransformFunctions/arm_dct4_init_f32.c **** 
  42:./Libraries/CMSIS/DSP/Source/TransformFunctions/arm_dct4_init_f32.c **** /**
  43:./Libraries/CMSIS/DSP/Source/TransformFunctions/arm_dct4_init_f32.c ****   @brief         Initialization function for the floating-point DCT4/IDCT4.
  44:./Libraries/CMSIS/DSP/Source/TransformFunctions/arm_dct4_init_f32.c ****   @param[in,out] S          points to an instance of floating-point DCT4/IDCT4 structure
  45:./Libraries/CMSIS/DSP/Source/TransformFunctions/arm_dct4_init_f32.c ****   @param[in]     S_RFFT     points to an instance of floating-point RFFT/RIFFT structure
  46:./Libraries/CMSIS/DSP/Source/TransformFunctions/arm_dct4_init_f32.c ****   @param[in]     S_CFFT     points to an instance of floating-point CFFT/CIFFT structure
  47:./Libraries/CMSIS/DSP/Source/TransformFunctions/arm_dct4_init_f32.c ****   @param[in]     N			length of the DCT4
  48:./Libraries/CMSIS/DSP/Source/TransformFunctions/arm_dct4_init_f32.c ****   @param[in]     Nby2       half of the length of the DCT4
  49:./Libraries/CMSIS/DSP/Source/TransformFunctions/arm_dct4_init_f32.c ****   @param[in]     normalize  normalizing factor.
  50:./Libraries/CMSIS/DSP/Source/TransformFunctions/arm_dct4_init_f32.c ****   @return        execution status
  51:./Libraries/CMSIS/DSP/Source/TransformFunctions/arm_dct4_init_f32.c ****                    - \ref ARM_MATH_SUCCESS        : Operation successful
  52:./Libraries/CMSIS/DSP/Source/TransformFunctions/arm_dct4_init_f32.c ****                    - \ref ARM_MATH_ARGUMENT_ERROR : <code>N</code> is not a supported transform len
  53:./Libraries/CMSIS/DSP/Source/TransformFunctions/arm_dct4_init_f32.c **** 
  54:./Libraries/CMSIS/DSP/Source/TransformFunctions/arm_dct4_init_f32.c ****   @par           Normalizing factor
  55:./Libraries/CMSIS/DSP/Source/TransformFunctions/arm_dct4_init_f32.c ****                    The normalizing factor is <code>sqrt(2/N)</code>, which depends on the size of t
  56:./Libraries/CMSIS/DSP/Source/TransformFunctions/arm_dct4_init_f32.c ****                    Floating-point normalizing factors are mentioned in the table below for differen
  57:./Libraries/CMSIS/DSP/Source/TransformFunctions/arm_dct4_init_f32.c **** 
  58:./Libraries/CMSIS/DSP/Source/TransformFunctions/arm_dct4_init_f32.c ****                    \image html dct4NormalizingF32Table.gif
  59:./Libraries/CMSIS/DSP/Source/TransformFunctions/arm_dct4_init_f32.c ****  */
  60:./Libraries/CMSIS/DSP/Source/TransformFunctions/arm_dct4_init_f32.c **** 
  61:./Libraries/CMSIS/DSP/Source/TransformFunctions/arm_dct4_init_f32.c **** arm_status arm_dct4_init_f32(
  62:./Libraries/CMSIS/DSP/Source/TransformFunctions/arm_dct4_init_f32.c ****   arm_dct4_instance_f32 * S,
  63:./Libraries/CMSIS/DSP/Source/TransformFunctions/arm_dct4_init_f32.c ****   arm_rfft_instance_f32 * S_RFFT,
  64:./Libraries/CMSIS/DSP/Source/TransformFunctions/arm_dct4_init_f32.c ****   arm_cfft_radix4_instance_f32 * S_CFFT,
  65:./Libraries/CMSIS/DSP/Source/TransformFunctions/arm_dct4_init_f32.c ****   uint16_t N,
  66:./Libraries/CMSIS/DSP/Source/TransformFunctions/arm_dct4_init_f32.c ****   uint16_t Nby2,
  67:./Libraries/CMSIS/DSP/Source/TransformFunctions/arm_dct4_init_f32.c ****   float32_t normalize)
  68:./Libraries/CMSIS/DSP/Source/TransformFunctions/arm_dct4_init_f32.c **** {
  28              		.loc 1 68 1
  29              		.cfi_startproc
  30              		@ args = 4, pretend = 0, frame = 32
  31              		@ frame_needed = 1, uses_anonymous_args = 0
  32 0000 80B5     		push	{r7, lr}
  33              	.LCFI0:
  34              		.cfi_def_cfa_offset 8
  35              		.cfi_offset 7, -8
  36              		.cfi_offset 14, -4
  37 0002 8AB0     		sub	sp, sp, #40
  38              	.LCFI1:
  39              		.cfi_def_cfa_offset 48
  40 0004 02AF     		add	r7, sp, #8
  41              	.LCFI2:
  42              		.cfi_def_cfa 7, 40
  43 0006 7861     		str	r0, [r7, #20]
  44 0008 3961     		str	r1, [r7, #16]
  45 000a FA60     		str	r2, [r7, #12]
  46 000c 87ED010A 		vstr.32	s0, [r7, #4]
  47 0010 7B81     		strh	r3, [r7, #10]	@ movhi
ARM GAS  /tmp/ccXfLu9Z.s 			page 3


  69:./Libraries/CMSIS/DSP/Source/TransformFunctions/arm_dct4_init_f32.c ****   /* Initialize the default arm status */
  70:./Libraries/CMSIS/DSP/Source/TransformFunctions/arm_dct4_init_f32.c ****   arm_status status = ARM_MATH_SUCCESS;
  48              		.loc 1 70 14
  49 0012 0023     		movs	r3, #0
  50 0014 FB77     		strb	r3, [r7, #31]
  71:./Libraries/CMSIS/DSP/Source/TransformFunctions/arm_dct4_init_f32.c **** 
  72:./Libraries/CMSIS/DSP/Source/TransformFunctions/arm_dct4_init_f32.c **** 
  73:./Libraries/CMSIS/DSP/Source/TransformFunctions/arm_dct4_init_f32.c ****   /* Initialize the DCT4 length */
  74:./Libraries/CMSIS/DSP/Source/TransformFunctions/arm_dct4_init_f32.c ****   S->N = N;
  51              		.loc 1 74 8
  52 0016 7B69     		ldr	r3, [r7, #20]
  53 0018 7A89     		ldrh	r2, [r7, #10]	@ movhi
  54 001a 1A80     		strh	r2, [r3]	@ movhi
  75:./Libraries/CMSIS/DSP/Source/TransformFunctions/arm_dct4_init_f32.c **** 
  76:./Libraries/CMSIS/DSP/Source/TransformFunctions/arm_dct4_init_f32.c ****   /* Initialize the half of DCT4 length */
  77:./Libraries/CMSIS/DSP/Source/TransformFunctions/arm_dct4_init_f32.c ****   S->Nby2 = Nby2;
  55              		.loc 1 77 11
  56 001c 7B69     		ldr	r3, [r7, #20]
  57 001e 3A8D     		ldrh	r2, [r7, #40]	@ movhi
  58 0020 5A80     		strh	r2, [r3, #2]	@ movhi
  78:./Libraries/CMSIS/DSP/Source/TransformFunctions/arm_dct4_init_f32.c **** 
  79:./Libraries/CMSIS/DSP/Source/TransformFunctions/arm_dct4_init_f32.c ****   /* Initialize the DCT4 Normalizing factor */
  80:./Libraries/CMSIS/DSP/Source/TransformFunctions/arm_dct4_init_f32.c ****   S->normalize = normalize;
  59              		.loc 1 80 16
  60 0022 7B69     		ldr	r3, [r7, #20]
  61 0024 7A68     		ldr	r2, [r7, #4]	@ float
  62 0026 5A60     		str	r2, [r3, #4]	@ float
  81:./Libraries/CMSIS/DSP/Source/TransformFunctions/arm_dct4_init_f32.c **** 
  82:./Libraries/CMSIS/DSP/Source/TransformFunctions/arm_dct4_init_f32.c ****   /* Initialize Real FFT Instance */
  83:./Libraries/CMSIS/DSP/Source/TransformFunctions/arm_dct4_init_f32.c ****   S->pRfft = S_RFFT;
  63              		.loc 1 83 12
  64 0028 7B69     		ldr	r3, [r7, #20]
  65 002a 3A69     		ldr	r2, [r7, #16]
  66 002c 1A61     		str	r2, [r3, #16]
  84:./Libraries/CMSIS/DSP/Source/TransformFunctions/arm_dct4_init_f32.c **** 
  85:./Libraries/CMSIS/DSP/Source/TransformFunctions/arm_dct4_init_f32.c ****   /* Initialize Complex FFT Instance */
  86:./Libraries/CMSIS/DSP/Source/TransformFunctions/arm_dct4_init_f32.c ****   S->pCfft = S_CFFT;
  67              		.loc 1 86 12
  68 002e 7B69     		ldr	r3, [r7, #20]
  69 0030 FA68     		ldr	r2, [r7, #12]
  70 0032 5A61     		str	r2, [r3, #20]
  87:./Libraries/CMSIS/DSP/Source/TransformFunctions/arm_dct4_init_f32.c **** 
  88:./Libraries/CMSIS/DSP/Source/TransformFunctions/arm_dct4_init_f32.c ****   switch (N)
  71              		.loc 1 88 3
  72 0034 7B89     		ldrh	r3, [r7, #10]
  73 0036 B3F5005F 		cmp	r3, #8192
  74 003a 0ED0     		beq	.L2
  75 003c B3F5005F 		cmp	r3, #8192
  76 0040 27DC     		bgt	.L3
  77 0042 B3F5006F 		cmp	r3, #2048
  78 0046 0FD0     		beq	.L4
  79 0048 B3F5006F 		cmp	r3, #2048
  80 004c 21DC     		bgt	.L3
  81 004e 802B     		cmp	r3, #128
  82 0050 18D0     		beq	.L5
  83 0052 B3F5007F 		cmp	r3, #512
  84 0056 0ED0     		beq	.L6
ARM GAS  /tmp/ccXfLu9Z.s 			page 4


  85 0058 1BE0     		b	.L3
  86              	.L2:
  89:./Libraries/CMSIS/DSP/Source/TransformFunctions/arm_dct4_init_f32.c ****   {
  90:./Libraries/CMSIS/DSP/Source/TransformFunctions/arm_dct4_init_f32.c ****   #if !defined(ARM_DSP_CONFIG_TABLES) || defined(ARM_ALL_FFT_TABLES) || defined(ARM_TABLE_DCT4_F32_
  91:./Libraries/CMSIS/DSP/Source/TransformFunctions/arm_dct4_init_f32.c ****     /* Initialize the table modifier values */
  92:./Libraries/CMSIS/DSP/Source/TransformFunctions/arm_dct4_init_f32.c ****   case 8192U:
  93:./Libraries/CMSIS/DSP/Source/TransformFunctions/arm_dct4_init_f32.c ****     S->pTwiddle = Weights_8192;
  87              		.loc 1 93 17
  88 005a 7B69     		ldr	r3, [r7, #20]
  89 005c 174A     		ldr	r2, .L9
  90 005e 9A60     		str	r2, [r3, #8]
  94:./Libraries/CMSIS/DSP/Source/TransformFunctions/arm_dct4_init_f32.c ****     S->pCosFactor = cos_factors_8192;
  91              		.loc 1 94 19
  92 0060 7B69     		ldr	r3, [r7, #20]
  93 0062 174A     		ldr	r2, .L9+4
  94 0064 DA60     		str	r2, [r3, #12]
  95:./Libraries/CMSIS/DSP/Source/TransformFunctions/arm_dct4_init_f32.c ****     break;
  95              		.loc 1 95 5
  96 0066 16E0     		b	.L7
  97              	.L4:
  96:./Libraries/CMSIS/DSP/Source/TransformFunctions/arm_dct4_init_f32.c ****   #endif
  97:./Libraries/CMSIS/DSP/Source/TransformFunctions/arm_dct4_init_f32.c **** 
  98:./Libraries/CMSIS/DSP/Source/TransformFunctions/arm_dct4_init_f32.c ****   #if !defined(ARM_DSP_CONFIG_TABLES) || defined(ARM_ALL_FFT_TABLES) || defined(ARM_TABLE_DCT4_F32_
  99:./Libraries/CMSIS/DSP/Source/TransformFunctions/arm_dct4_init_f32.c ****   case 2048U:
 100:./Libraries/CMSIS/DSP/Source/TransformFunctions/arm_dct4_init_f32.c ****     S->pTwiddle = Weights_2048;
  98              		.loc 1 100 17
  99 0068 7B69     		ldr	r3, [r7, #20]
 100 006a 164A     		ldr	r2, .L9+8
 101 006c 9A60     		str	r2, [r3, #8]
 101:./Libraries/CMSIS/DSP/Source/TransformFunctions/arm_dct4_init_f32.c ****     S->pCosFactor = cos_factors_2048;
 102              		.loc 1 101 19
 103 006e 7B69     		ldr	r3, [r7, #20]
 104 0070 154A     		ldr	r2, .L9+12
 105 0072 DA60     		str	r2, [r3, #12]
 102:./Libraries/CMSIS/DSP/Source/TransformFunctions/arm_dct4_init_f32.c ****     break;
 106              		.loc 1 102 5
 107 0074 0FE0     		b	.L7
 108              	.L6:
 103:./Libraries/CMSIS/DSP/Source/TransformFunctions/arm_dct4_init_f32.c ****   #endif
 104:./Libraries/CMSIS/DSP/Source/TransformFunctions/arm_dct4_init_f32.c **** 
 105:./Libraries/CMSIS/DSP/Source/TransformFunctions/arm_dct4_init_f32.c ****   #if !defined(ARM_DSP_CONFIG_TABLES) || defined(ARM_ALL_FFT_TABLES) || defined(ARM_TABLE_DCT4_F32_
 106:./Libraries/CMSIS/DSP/Source/TransformFunctions/arm_dct4_init_f32.c ****   case 512U:
 107:./Libraries/CMSIS/DSP/Source/TransformFunctions/arm_dct4_init_f32.c ****     S->pTwiddle = Weights_512;
 109              		.loc 1 107 17
 110 0076 7B69     		ldr	r3, [r7, #20]
 111 0078 144A     		ldr	r2, .L9+16
 112 007a 9A60     		str	r2, [r3, #8]
 108:./Libraries/CMSIS/DSP/Source/TransformFunctions/arm_dct4_init_f32.c ****     S->pCosFactor = cos_factors_512;
 113              		.loc 1 108 19
 114 007c 7B69     		ldr	r3, [r7, #20]
 115 007e 144A     		ldr	r2, .L9+20
 116 0080 DA60     		str	r2, [r3, #12]
 109:./Libraries/CMSIS/DSP/Source/TransformFunctions/arm_dct4_init_f32.c ****     break;
 117              		.loc 1 109 5
 118 0082 08E0     		b	.L7
 119              	.L5:
 110:./Libraries/CMSIS/DSP/Source/TransformFunctions/arm_dct4_init_f32.c ****   #endif
ARM GAS  /tmp/ccXfLu9Z.s 			page 5


 111:./Libraries/CMSIS/DSP/Source/TransformFunctions/arm_dct4_init_f32.c **** 
 112:./Libraries/CMSIS/DSP/Source/TransformFunctions/arm_dct4_init_f32.c ****   #if !defined(ARM_DSP_CONFIG_TABLES) || defined(ARM_ALL_FFT_TABLES) || defined(ARM_TABLE_DCT4_F32_
 113:./Libraries/CMSIS/DSP/Source/TransformFunctions/arm_dct4_init_f32.c ****   case 128U:
 114:./Libraries/CMSIS/DSP/Source/TransformFunctions/arm_dct4_init_f32.c ****     S->pTwiddle = Weights_128;
 120              		.loc 1 114 17
 121 0084 7B69     		ldr	r3, [r7, #20]
 122 0086 134A     		ldr	r2, .L9+24
 123 0088 9A60     		str	r2, [r3, #8]
 115:./Libraries/CMSIS/DSP/Source/TransformFunctions/arm_dct4_init_f32.c ****     S->pCosFactor = cos_factors_128;
 124              		.loc 1 115 19
 125 008a 7B69     		ldr	r3, [r7, #20]
 126 008c 124A     		ldr	r2, .L9+28
 127 008e DA60     		str	r2, [r3, #12]
 116:./Libraries/CMSIS/DSP/Source/TransformFunctions/arm_dct4_init_f32.c ****     break;
 128              		.loc 1 116 5
 129 0090 01E0     		b	.L7
 130              	.L3:
 117:./Libraries/CMSIS/DSP/Source/TransformFunctions/arm_dct4_init_f32.c ****   #endif
 118:./Libraries/CMSIS/DSP/Source/TransformFunctions/arm_dct4_init_f32.c ****   default:
 119:./Libraries/CMSIS/DSP/Source/TransformFunctions/arm_dct4_init_f32.c ****     status = ARM_MATH_ARGUMENT_ERROR;
 131              		.loc 1 119 12
 132 0092 FF23     		movs	r3, #255
 133 0094 FB77     		strb	r3, [r7, #31]
 134              	.L7:
 120:./Libraries/CMSIS/DSP/Source/TransformFunctions/arm_dct4_init_f32.c ****   }
 121:./Libraries/CMSIS/DSP/Source/TransformFunctions/arm_dct4_init_f32.c **** 
 122:./Libraries/CMSIS/DSP/Source/TransformFunctions/arm_dct4_init_f32.c ****   /* Initialize the RFFT/RIFFT Function */
 123:./Libraries/CMSIS/DSP/Source/TransformFunctions/arm_dct4_init_f32.c ****   arm_rfft_init_f32(S->pRfft, S->pCfft, S->N, 0U, 1U);
 135              		.loc 1 123 3
 136 0096 7B69     		ldr	r3, [r7, #20]
 137 0098 1869     		ldr	r0, [r3, #16]
 138 009a 7B69     		ldr	r3, [r7, #20]
 139 009c 5969     		ldr	r1, [r3, #20]
 140              		.loc 1 123 42
 141 009e 7B69     		ldr	r3, [r7, #20]
 142 00a0 1B88     		ldrh	r3, [r3]
 143              		.loc 1 123 3
 144 00a2 1A46     		mov	r2, r3
 145 00a4 0123     		movs	r3, #1
 146 00a6 0093     		str	r3, [sp]
 147 00a8 0023     		movs	r3, #0
 148 00aa FFF7FEFF 		bl	arm_rfft_init_f32
 124:./Libraries/CMSIS/DSP/Source/TransformFunctions/arm_dct4_init_f32.c **** 
 125:./Libraries/CMSIS/DSP/Source/TransformFunctions/arm_dct4_init_f32.c ****   /* return the status of DCT4 Init function */
 126:./Libraries/CMSIS/DSP/Source/TransformFunctions/arm_dct4_init_f32.c ****   return (status);
 149              		.loc 1 126 10
 150 00ae 97F91F30 		ldrsb	r3, [r7, #31]
 127:./Libraries/CMSIS/DSP/Source/TransformFunctions/arm_dct4_init_f32.c **** }
 151              		.loc 1 127 1
 152 00b2 1846     		mov	r0, r3
 153 00b4 2037     		adds	r7, r7, #32
 154              	.LCFI3:
 155              		.cfi_def_cfa_offset 8
 156 00b6 BD46     		mov	sp, r7
 157              	.LCFI4:
 158              		.cfi_def_cfa_register 13
 159              		@ sp needed
ARM GAS  /tmp/ccXfLu9Z.s 			page 6


 160 00b8 80BD     		pop	{r7, pc}
 161              	.L10:
 162 00ba 00BF     		.align	2
 163              	.L9:
 164 00bc 00000000 		.word	Weights_8192
 165 00c0 00000000 		.word	cos_factors_8192
 166 00c4 00000000 		.word	Weights_2048
 167 00c8 00000000 		.word	cos_factors_2048
 168 00cc 00000000 		.word	Weights_512
 169 00d0 00000000 		.word	cos_factors_512
 170 00d4 00000000 		.word	Weights_128
 171 00d8 00000000 		.word	cos_factors_128
 172              		.cfi_endproc
 173              	.LFE145:
 175              		.text
 176              	.Letext0:
 177              		.file 2 "/usr/lib/gcc/arm-none-eabi/9.2.1/include/stdint.h"
 178              		.file 3 "/usr/lib/gcc/arm-none-eabi/9.2.1/include/stddef.h"
 179              		.file 4 "/usr/include/newlib/sys/_types.h"
 180              		.file 5 "/usr/include/newlib/sys/reent.h"
 181              		.file 6 "/usr/include/newlib/sys/lock.h"
 182              		.file 7 "/usr/include/newlib/math.h"
 183              		.file 8 "./Libraries/CMSIS/DSP/Include/arm_math.h"
 184              		.file 9 "./Libraries/CMSIS/DSP/Include/arm_common_tables.h"
ARM GAS  /tmp/ccXfLu9Z.s 			page 7

