ARM GAS  /tmp/ccNjsOsm.s 			page 1


   1              		.cpu cortex-m7
   2              		.eabi_attribute 28, 1
   3              		.eabi_attribute 20, 1
   4              		.eabi_attribute 21, 1
   5              		.eabi_attribute 23, 3
   6              		.eabi_attribute 24, 1
   7              		.eabi_attribute 25, 1
   8              		.eabi_attribute 26, 1
   9              		.eabi_attribute 30, 6
  10              		.eabi_attribute 34, 1
  11              		.eabi_attribute 18, 4
  12              		.file	"arm_cfft_radix4_init_q31.c"
  13              		.text
  14              	.Ltext0:
  15              		.cfi_sections	.debug_frame
  16              		.section	.text.arm_cfft_radix4_init_q31,"ax",%progbits
  17              		.align	1
  18              		.global	arm_cfft_radix4_init_q31
  19              		.arch armv7e-m
  20              		.syntax unified
  21              		.thumb
  22              		.thumb_func
  23              		.fpu fpv5-d16
  25              	arm_cfft_radix4_init_q31:
  26              	.LFB145:
  27              		.file 1 "./Libraries/CMSIS/DSP/Source/TransformFunctions/arm_cfft_radix4_init_q31.c"
   1:./Libraries/CMSIS/DSP/Source/TransformFunctions/arm_cfft_radix4_init_q31.c **** /* ----------------------------------------------------------------------
   2:./Libraries/CMSIS/DSP/Source/TransformFunctions/arm_cfft_radix4_init_q31.c ****  * Project:      CMSIS DSP Library
   3:./Libraries/CMSIS/DSP/Source/TransformFunctions/arm_cfft_radix4_init_q31.c ****  * Title:        arm_cfft_radix4_init_q31.c
   4:./Libraries/CMSIS/DSP/Source/TransformFunctions/arm_cfft_radix4_init_q31.c ****  * Description:  Radix-4 Decimation in Frequency Q31 FFT & IFFT initialization function
   5:./Libraries/CMSIS/DSP/Source/TransformFunctions/arm_cfft_radix4_init_q31.c ****  *
   6:./Libraries/CMSIS/DSP/Source/TransformFunctions/arm_cfft_radix4_init_q31.c ****  * $Date:        18. March 2019
   7:./Libraries/CMSIS/DSP/Source/TransformFunctions/arm_cfft_radix4_init_q31.c ****  * $Revision:    V1.6.0
   8:./Libraries/CMSIS/DSP/Source/TransformFunctions/arm_cfft_radix4_init_q31.c ****  *
   9:./Libraries/CMSIS/DSP/Source/TransformFunctions/arm_cfft_radix4_init_q31.c ****  * Target Processor: Cortex-M cores
  10:./Libraries/CMSIS/DSP/Source/TransformFunctions/arm_cfft_radix4_init_q31.c ****  * -------------------------------------------------------------------- */
  11:./Libraries/CMSIS/DSP/Source/TransformFunctions/arm_cfft_radix4_init_q31.c **** /*
  12:./Libraries/CMSIS/DSP/Source/TransformFunctions/arm_cfft_radix4_init_q31.c ****  * Copyright (C) 2010-2019 ARM Limited or its affiliates. All rights reserved.
  13:./Libraries/CMSIS/DSP/Source/TransformFunctions/arm_cfft_radix4_init_q31.c ****  *
  14:./Libraries/CMSIS/DSP/Source/TransformFunctions/arm_cfft_radix4_init_q31.c ****  * SPDX-License-Identifier: Apache-2.0
  15:./Libraries/CMSIS/DSP/Source/TransformFunctions/arm_cfft_radix4_init_q31.c ****  *
  16:./Libraries/CMSIS/DSP/Source/TransformFunctions/arm_cfft_radix4_init_q31.c ****  * Licensed under the Apache License, Version 2.0 (the License); you may
  17:./Libraries/CMSIS/DSP/Source/TransformFunctions/arm_cfft_radix4_init_q31.c ****  * not use this file except in compliance with the License.
  18:./Libraries/CMSIS/DSP/Source/TransformFunctions/arm_cfft_radix4_init_q31.c ****  * You may obtain a copy of the License at
  19:./Libraries/CMSIS/DSP/Source/TransformFunctions/arm_cfft_radix4_init_q31.c ****  *
  20:./Libraries/CMSIS/DSP/Source/TransformFunctions/arm_cfft_radix4_init_q31.c ****  * www.apache.org/licenses/LICENSE-2.0
  21:./Libraries/CMSIS/DSP/Source/TransformFunctions/arm_cfft_radix4_init_q31.c ****  *
  22:./Libraries/CMSIS/DSP/Source/TransformFunctions/arm_cfft_radix4_init_q31.c ****  * Unless required by applicable law or agreed to in writing, software
  23:./Libraries/CMSIS/DSP/Source/TransformFunctions/arm_cfft_radix4_init_q31.c ****  * distributed under the License is distributed on an AS IS BASIS, WITHOUT
  24:./Libraries/CMSIS/DSP/Source/TransformFunctions/arm_cfft_radix4_init_q31.c ****  * WARRANTIES OR CONDITIONS OF ANY KIND, either express or implied.
  25:./Libraries/CMSIS/DSP/Source/TransformFunctions/arm_cfft_radix4_init_q31.c ****  * See the License for the specific language governing permissions and
  26:./Libraries/CMSIS/DSP/Source/TransformFunctions/arm_cfft_radix4_init_q31.c ****  * limitations under the License.
  27:./Libraries/CMSIS/DSP/Source/TransformFunctions/arm_cfft_radix4_init_q31.c ****  */
  28:./Libraries/CMSIS/DSP/Source/TransformFunctions/arm_cfft_radix4_init_q31.c **** 
  29:./Libraries/CMSIS/DSP/Source/TransformFunctions/arm_cfft_radix4_init_q31.c **** #include "arm_math.h"
  30:./Libraries/CMSIS/DSP/Source/TransformFunctions/arm_cfft_radix4_init_q31.c **** #include "arm_common_tables.h"
  31:./Libraries/CMSIS/DSP/Source/TransformFunctions/arm_cfft_radix4_init_q31.c **** 
ARM GAS  /tmp/ccNjsOsm.s 			page 2


  32:./Libraries/CMSIS/DSP/Source/TransformFunctions/arm_cfft_radix4_init_q31.c **** /**
  33:./Libraries/CMSIS/DSP/Source/TransformFunctions/arm_cfft_radix4_init_q31.c ****   @ingroup groupTransforms
  34:./Libraries/CMSIS/DSP/Source/TransformFunctions/arm_cfft_radix4_init_q31.c ****  */
  35:./Libraries/CMSIS/DSP/Source/TransformFunctions/arm_cfft_radix4_init_q31.c **** 
  36:./Libraries/CMSIS/DSP/Source/TransformFunctions/arm_cfft_radix4_init_q31.c **** /**
  37:./Libraries/CMSIS/DSP/Source/TransformFunctions/arm_cfft_radix4_init_q31.c ****   @addtogroup ComplexFFT
  38:./Libraries/CMSIS/DSP/Source/TransformFunctions/arm_cfft_radix4_init_q31.c ****   @{
  39:./Libraries/CMSIS/DSP/Source/TransformFunctions/arm_cfft_radix4_init_q31.c ****  */
  40:./Libraries/CMSIS/DSP/Source/TransformFunctions/arm_cfft_radix4_init_q31.c **** 
  41:./Libraries/CMSIS/DSP/Source/TransformFunctions/arm_cfft_radix4_init_q31.c **** /**
  42:./Libraries/CMSIS/DSP/Source/TransformFunctions/arm_cfft_radix4_init_q31.c **** 
  43:./Libraries/CMSIS/DSP/Source/TransformFunctions/arm_cfft_radix4_init_q31.c ****   @brief         Initialization function for the Q31 CFFT/CIFFT.
  44:./Libraries/CMSIS/DSP/Source/TransformFunctions/arm_cfft_radix4_init_q31.c ****   @deprecated    Do not use this function. It has been superseded by \ref arm_cfft_q31 and will be 
  45:./Libraries/CMSIS/DSP/Source/TransformFunctions/arm_cfft_radix4_init_q31.c ****   @param[in,out] S              points to an instance of the Q31 CFFT/CIFFT structure.
  46:./Libraries/CMSIS/DSP/Source/TransformFunctions/arm_cfft_radix4_init_q31.c ****   @param[in]     fftLen         length of the FFT.
  47:./Libraries/CMSIS/DSP/Source/TransformFunctions/arm_cfft_radix4_init_q31.c ****   @param[in]     ifftFlag       flag that selects transform direction
  48:./Libraries/CMSIS/DSP/Source/TransformFunctions/arm_cfft_radix4_init_q31.c ****                    - value = 0: forward transform
  49:./Libraries/CMSIS/DSP/Source/TransformFunctions/arm_cfft_radix4_init_q31.c ****                    - value = 1: inverse transform
  50:./Libraries/CMSIS/DSP/Source/TransformFunctions/arm_cfft_radix4_init_q31.c ****   @param[in]     bitReverseFlag flag that enables / disables bit reversal of output
  51:./Libraries/CMSIS/DSP/Source/TransformFunctions/arm_cfft_radix4_init_q31.c ****                    - value = 0: disables bit reversal of output
  52:./Libraries/CMSIS/DSP/Source/TransformFunctions/arm_cfft_radix4_init_q31.c ****                    - value = 1: enables bit reversal of output
  53:./Libraries/CMSIS/DSP/Source/TransformFunctions/arm_cfft_radix4_init_q31.c ****   @return        execution status
  54:./Libraries/CMSIS/DSP/Source/TransformFunctions/arm_cfft_radix4_init_q31.c ****                    - \ref ARM_MATH_SUCCESS        : Operation successful
  55:./Libraries/CMSIS/DSP/Source/TransformFunctions/arm_cfft_radix4_init_q31.c ****                    - \ref ARM_MATH_ARGUMENT_ERROR : <code>fftLen</code> is not a supported length
  56:./Libraries/CMSIS/DSP/Source/TransformFunctions/arm_cfft_radix4_init_q31.c **** 
  57:./Libraries/CMSIS/DSP/Source/TransformFunctions/arm_cfft_radix4_init_q31.c ****   @par           Details
  58:./Libraries/CMSIS/DSP/Source/TransformFunctions/arm_cfft_radix4_init_q31.c ****                    The parameter <code>ifftFlag</code> controls whether a forward or inverse transf
  59:./Libraries/CMSIS/DSP/Source/TransformFunctions/arm_cfft_radix4_init_q31.c ****                    Set(=1) ifftFlag for calculation of CIFFT otherwise  CFFT is calculated
  60:./Libraries/CMSIS/DSP/Source/TransformFunctions/arm_cfft_radix4_init_q31.c ****   @par
  61:./Libraries/CMSIS/DSP/Source/TransformFunctions/arm_cfft_radix4_init_q31.c ****                    The parameter <code>bitReverseFlag</code> controls whether output is in normal o
  62:./Libraries/CMSIS/DSP/Source/TransformFunctions/arm_cfft_radix4_init_q31.c ****                    Set(=1) bitReverseFlag for output to be in normal order otherwise output is in b
  63:./Libraries/CMSIS/DSP/Source/TransformFunctions/arm_cfft_radix4_init_q31.c ****   @par
  64:./Libraries/CMSIS/DSP/Source/TransformFunctions/arm_cfft_radix4_init_q31.c ****                    The parameter <code>fftLen</code> Specifies length of CFFT/CIFFT process. Suppor
  65:./Libraries/CMSIS/DSP/Source/TransformFunctions/arm_cfft_radix4_init_q31.c ****   @par
  66:./Libraries/CMSIS/DSP/Source/TransformFunctions/arm_cfft_radix4_init_q31.c ****                    This Function also initializes Twiddle factor table pointer and Bit reversal tab
  67:./Libraries/CMSIS/DSP/Source/TransformFunctions/arm_cfft_radix4_init_q31.c **** */
  68:./Libraries/CMSIS/DSP/Source/TransformFunctions/arm_cfft_radix4_init_q31.c **** 
  69:./Libraries/CMSIS/DSP/Source/TransformFunctions/arm_cfft_radix4_init_q31.c **** arm_status arm_cfft_radix4_init_q31(
  70:./Libraries/CMSIS/DSP/Source/TransformFunctions/arm_cfft_radix4_init_q31.c ****   arm_cfft_radix4_instance_q31 * S,
  71:./Libraries/CMSIS/DSP/Source/TransformFunctions/arm_cfft_radix4_init_q31.c ****   uint16_t fftLen,
  72:./Libraries/CMSIS/DSP/Source/TransformFunctions/arm_cfft_radix4_init_q31.c ****   uint8_t ifftFlag,
  73:./Libraries/CMSIS/DSP/Source/TransformFunctions/arm_cfft_radix4_init_q31.c ****   uint8_t bitReverseFlag)
  74:./Libraries/CMSIS/DSP/Source/TransformFunctions/arm_cfft_radix4_init_q31.c **** {
  28              		.loc 1 74 1
  29              		.cfi_startproc
  30              		@ args = 0, pretend = 0, frame = 16
  31              		@ frame_needed = 1, uses_anonymous_args = 0
  32              		@ link register save eliminated.
  33 0000 80B4     		push	{r7}
  34              	.LCFI0:
  35              		.cfi_def_cfa_offset 4
  36              		.cfi_offset 7, -4
  37 0002 85B0     		sub	sp, sp, #20
  38              	.LCFI1:
  39              		.cfi_def_cfa_offset 24
  40 0004 00AF     		add	r7, sp, #0
  41              	.LCFI2:
ARM GAS  /tmp/ccNjsOsm.s 			page 3


  42              		.cfi_def_cfa_register 7
  43 0006 7860     		str	r0, [r7, #4]
  44 0008 0846     		mov	r0, r1
  45 000a 1146     		mov	r1, r2
  46 000c 1A46     		mov	r2, r3
  47 000e 0346     		mov	r3, r0	@ movhi
  48 0010 7B80     		strh	r3, [r7, #2]	@ movhi
  49 0012 0B46     		mov	r3, r1
  50 0014 7B70     		strb	r3, [r7, #1]
  51 0016 1346     		mov	r3, r2
  52 0018 3B70     		strb	r3, [r7]
  75:./Libraries/CMSIS/DSP/Source/TransformFunctions/arm_cfft_radix4_init_q31.c ****   /*  Initialise the default arm status */
  76:./Libraries/CMSIS/DSP/Source/TransformFunctions/arm_cfft_radix4_init_q31.c ****   arm_status status = ARM_MATH_SUCCESS;
  53              		.loc 1 76 14
  54 001a 0023     		movs	r3, #0
  55 001c FB73     		strb	r3, [r7, #15]
  77:./Libraries/CMSIS/DSP/Source/TransformFunctions/arm_cfft_radix4_init_q31.c ****   /*  Initialise the FFT length */
  78:./Libraries/CMSIS/DSP/Source/TransformFunctions/arm_cfft_radix4_init_q31.c ****   S->fftLen = fftLen;
  56              		.loc 1 78 13
  57 001e 7B68     		ldr	r3, [r7, #4]
  58 0020 7A88     		ldrh	r2, [r7, #2]	@ movhi
  59 0022 1A80     		strh	r2, [r3]	@ movhi
  79:./Libraries/CMSIS/DSP/Source/TransformFunctions/arm_cfft_radix4_init_q31.c ****   /*  Initialise the Twiddle coefficient pointer */
  80:./Libraries/CMSIS/DSP/Source/TransformFunctions/arm_cfft_radix4_init_q31.c ****   S->pTwiddle = (q31_t *) twiddleCoef_4096_q31;
  60              		.loc 1 80 15
  61 0024 7B68     		ldr	r3, [r7, #4]
  62 0026 304A     		ldr	r2, .L10
  63 0028 5A60     		str	r2, [r3, #4]
  81:./Libraries/CMSIS/DSP/Source/TransformFunctions/arm_cfft_radix4_init_q31.c ****   /*  Initialise the Flag for selection of CFFT or CIFFT */
  82:./Libraries/CMSIS/DSP/Source/TransformFunctions/arm_cfft_radix4_init_q31.c ****   S->ifftFlag = ifftFlag;
  64              		.loc 1 82 15
  65 002a 7B68     		ldr	r3, [r7, #4]
  66 002c 7A78     		ldrb	r2, [r7, #1]
  67 002e 9A70     		strb	r2, [r3, #2]
  83:./Libraries/CMSIS/DSP/Source/TransformFunctions/arm_cfft_radix4_init_q31.c ****   /*  Initialise the Flag for calculation Bit reversal or not */
  84:./Libraries/CMSIS/DSP/Source/TransformFunctions/arm_cfft_radix4_init_q31.c ****   S->bitReverseFlag = bitReverseFlag;
  68              		.loc 1 84 21
  69 0030 7B68     		ldr	r3, [r7, #4]
  70 0032 3A78     		ldrb	r2, [r7]
  71 0034 DA70     		strb	r2, [r3, #3]
  85:./Libraries/CMSIS/DSP/Source/TransformFunctions/arm_cfft_radix4_init_q31.c **** 
  86:./Libraries/CMSIS/DSP/Source/TransformFunctions/arm_cfft_radix4_init_q31.c ****   /*  Initializations of Instance structure depending on the FFT length */
  87:./Libraries/CMSIS/DSP/Source/TransformFunctions/arm_cfft_radix4_init_q31.c ****   switch (S->fftLen)
  72              		.loc 1 87 12
  73 0036 7B68     		ldr	r3, [r7, #4]
  74 0038 1B88     		ldrh	r3, [r3]
  75              		.loc 1 87 3
  76 003a B3F5805F 		cmp	r3, #4096
  77 003e 13D0     		beq	.L2
  78 0040 B3F5805F 		cmp	r3, #4096
  79 0044 44DC     		bgt	.L3
  80 0046 B3F5806F 		cmp	r3, #1024
  81 004a 17D0     		beq	.L4
  82 004c B3F5806F 		cmp	r3, #1024
  83 0050 3EDC     		bgt	.L3
  84 0052 B3F5807F 		cmp	r3, #256
  85 0056 1BD0     		beq	.L5
ARM GAS  /tmp/ccNjsOsm.s 			page 4


  86 0058 B3F5807F 		cmp	r3, #256
  87 005c 38DC     		bgt	.L3
  88 005e 102B     		cmp	r3, #16
  89 0060 2AD0     		beq	.L6
  90 0062 402B     		cmp	r3, #64
  91 0064 1ED0     		beq	.L7
  92 0066 33E0     		b	.L3
  93              	.L2:
  88:./Libraries/CMSIS/DSP/Source/TransformFunctions/arm_cfft_radix4_init_q31.c ****   {
  89:./Libraries/CMSIS/DSP/Source/TransformFunctions/arm_cfft_radix4_init_q31.c ****     /*  Initializations of structure parameters for 4096 point FFT */
  90:./Libraries/CMSIS/DSP/Source/TransformFunctions/arm_cfft_radix4_init_q31.c ****   case 4096U:
  91:./Libraries/CMSIS/DSP/Source/TransformFunctions/arm_cfft_radix4_init_q31.c ****     /*  Initialise the twiddle coef modifier value */
  92:./Libraries/CMSIS/DSP/Source/TransformFunctions/arm_cfft_radix4_init_q31.c ****     S->twidCoefModifier = 1U;
  94              		.loc 1 92 25
  95 0068 7B68     		ldr	r3, [r7, #4]
  96 006a 0122     		movs	r2, #1
  97 006c 9A81     		strh	r2, [r3, #12]	@ movhi
  93:./Libraries/CMSIS/DSP/Source/TransformFunctions/arm_cfft_radix4_init_q31.c ****     /*  Initialise the bit reversal table modifier */
  94:./Libraries/CMSIS/DSP/Source/TransformFunctions/arm_cfft_radix4_init_q31.c ****     S->bitRevFactor = 1U;
  98              		.loc 1 94 21
  99 006e 7B68     		ldr	r3, [r7, #4]
 100 0070 0122     		movs	r2, #1
 101 0072 DA81     		strh	r2, [r3, #14]	@ movhi
  95:./Libraries/CMSIS/DSP/Source/TransformFunctions/arm_cfft_radix4_init_q31.c ****     /*  Initialise the bit reversal table pointer */
  96:./Libraries/CMSIS/DSP/Source/TransformFunctions/arm_cfft_radix4_init_q31.c ****     S->pBitRevTable = (uint16_t *) armBitRevTable;
 102              		.loc 1 96 21
 103 0074 7B68     		ldr	r3, [r7, #4]
 104 0076 1D4A     		ldr	r2, .L10+4
 105 0078 9A60     		str	r2, [r3, #8]
  97:./Libraries/CMSIS/DSP/Source/TransformFunctions/arm_cfft_radix4_init_q31.c ****     break;
 106              		.loc 1 97 5
 107 007a 2CE0     		b	.L8
 108              	.L4:
  98:./Libraries/CMSIS/DSP/Source/TransformFunctions/arm_cfft_radix4_init_q31.c **** 
  99:./Libraries/CMSIS/DSP/Source/TransformFunctions/arm_cfft_radix4_init_q31.c ****     /*  Initializations of structure parameters for 1024 point FFT */
 100:./Libraries/CMSIS/DSP/Source/TransformFunctions/arm_cfft_radix4_init_q31.c ****   case 1024U:
 101:./Libraries/CMSIS/DSP/Source/TransformFunctions/arm_cfft_radix4_init_q31.c ****     /*  Initialise the twiddle coef modifier value */
 102:./Libraries/CMSIS/DSP/Source/TransformFunctions/arm_cfft_radix4_init_q31.c ****     S->twidCoefModifier = 4U;
 109              		.loc 1 102 25
 110 007c 7B68     		ldr	r3, [r7, #4]
 111 007e 0422     		movs	r2, #4
 112 0080 9A81     		strh	r2, [r3, #12]	@ movhi
 103:./Libraries/CMSIS/DSP/Source/TransformFunctions/arm_cfft_radix4_init_q31.c ****     /*  Initialise the bit reversal table modifier */
 104:./Libraries/CMSIS/DSP/Source/TransformFunctions/arm_cfft_radix4_init_q31.c ****     S->bitRevFactor = 4U;
 113              		.loc 1 104 21
 114 0082 7B68     		ldr	r3, [r7, #4]
 115 0084 0422     		movs	r2, #4
 116 0086 DA81     		strh	r2, [r3, #14]	@ movhi
 105:./Libraries/CMSIS/DSP/Source/TransformFunctions/arm_cfft_radix4_init_q31.c ****     /*  Initialise the bit reversal table pointer */
 106:./Libraries/CMSIS/DSP/Source/TransformFunctions/arm_cfft_radix4_init_q31.c ****     S->pBitRevTable = (uint16_t *) & armBitRevTable[3];
 117              		.loc 1 106 21
 118 0088 7B68     		ldr	r3, [r7, #4]
 119 008a 194A     		ldr	r2, .L10+8
 120 008c 9A60     		str	r2, [r3, #8]
 107:./Libraries/CMSIS/DSP/Source/TransformFunctions/arm_cfft_radix4_init_q31.c ****     break;
 121              		.loc 1 107 5
 122 008e 22E0     		b	.L8
ARM GAS  /tmp/ccNjsOsm.s 			page 5


 123              	.L5:
 108:./Libraries/CMSIS/DSP/Source/TransformFunctions/arm_cfft_radix4_init_q31.c **** 
 109:./Libraries/CMSIS/DSP/Source/TransformFunctions/arm_cfft_radix4_init_q31.c ****   case 256U:
 110:./Libraries/CMSIS/DSP/Source/TransformFunctions/arm_cfft_radix4_init_q31.c ****     /*  Initializations of structure parameters for 256 point FFT */
 111:./Libraries/CMSIS/DSP/Source/TransformFunctions/arm_cfft_radix4_init_q31.c ****     S->twidCoefModifier = 16U;
 124              		.loc 1 111 25
 125 0090 7B68     		ldr	r3, [r7, #4]
 126 0092 1022     		movs	r2, #16
 127 0094 9A81     		strh	r2, [r3, #12]	@ movhi
 112:./Libraries/CMSIS/DSP/Source/TransformFunctions/arm_cfft_radix4_init_q31.c ****     S->bitRevFactor = 16U;
 128              		.loc 1 112 21
 129 0096 7B68     		ldr	r3, [r7, #4]
 130 0098 1022     		movs	r2, #16
 131 009a DA81     		strh	r2, [r3, #14]	@ movhi
 113:./Libraries/CMSIS/DSP/Source/TransformFunctions/arm_cfft_radix4_init_q31.c ****     S->pBitRevTable = (uint16_t *) & armBitRevTable[15];
 132              		.loc 1 113 21
 133 009c 7B68     		ldr	r3, [r7, #4]
 134 009e 154A     		ldr	r2, .L10+12
 135 00a0 9A60     		str	r2, [r3, #8]
 114:./Libraries/CMSIS/DSP/Source/TransformFunctions/arm_cfft_radix4_init_q31.c ****     break;
 136              		.loc 1 114 5
 137 00a2 18E0     		b	.L8
 138              	.L7:
 115:./Libraries/CMSIS/DSP/Source/TransformFunctions/arm_cfft_radix4_init_q31.c **** 
 116:./Libraries/CMSIS/DSP/Source/TransformFunctions/arm_cfft_radix4_init_q31.c ****   case 64U:
 117:./Libraries/CMSIS/DSP/Source/TransformFunctions/arm_cfft_radix4_init_q31.c ****     /*  Initializations of structure parameters for 64 point FFT */
 118:./Libraries/CMSIS/DSP/Source/TransformFunctions/arm_cfft_radix4_init_q31.c ****     S->twidCoefModifier = 64U;
 139              		.loc 1 118 25
 140 00a4 7B68     		ldr	r3, [r7, #4]
 141 00a6 4022     		movs	r2, #64
 142 00a8 9A81     		strh	r2, [r3, #12]	@ movhi
 119:./Libraries/CMSIS/DSP/Source/TransformFunctions/arm_cfft_radix4_init_q31.c ****     S->bitRevFactor = 64U;
 143              		.loc 1 119 21
 144 00aa 7B68     		ldr	r3, [r7, #4]
 145 00ac 4022     		movs	r2, #64
 146 00ae DA81     		strh	r2, [r3, #14]	@ movhi
 120:./Libraries/CMSIS/DSP/Source/TransformFunctions/arm_cfft_radix4_init_q31.c ****     S->pBitRevTable = (uint16_t *) & armBitRevTable[63];
 147              		.loc 1 120 21
 148 00b0 7B68     		ldr	r3, [r7, #4]
 149 00b2 114A     		ldr	r2, .L10+16
 150 00b4 9A60     		str	r2, [r3, #8]
 121:./Libraries/CMSIS/DSP/Source/TransformFunctions/arm_cfft_radix4_init_q31.c ****     break;
 151              		.loc 1 121 5
 152 00b6 0EE0     		b	.L8
 153              	.L6:
 122:./Libraries/CMSIS/DSP/Source/TransformFunctions/arm_cfft_radix4_init_q31.c **** 
 123:./Libraries/CMSIS/DSP/Source/TransformFunctions/arm_cfft_radix4_init_q31.c ****   case 16U:
 124:./Libraries/CMSIS/DSP/Source/TransformFunctions/arm_cfft_radix4_init_q31.c ****     /*  Initializations of structure parameters for 16 point FFT */
 125:./Libraries/CMSIS/DSP/Source/TransformFunctions/arm_cfft_radix4_init_q31.c ****     S->twidCoefModifier = 256U;
 154              		.loc 1 125 25
 155 00b8 7B68     		ldr	r3, [r7, #4]
 156 00ba 4FF48072 		mov	r2, #256
 157 00be 9A81     		strh	r2, [r3, #12]	@ movhi
 126:./Libraries/CMSIS/DSP/Source/TransformFunctions/arm_cfft_radix4_init_q31.c ****     S->bitRevFactor = 256U;
 158              		.loc 1 126 21
 159 00c0 7B68     		ldr	r3, [r7, #4]
 160 00c2 4FF48072 		mov	r2, #256
ARM GAS  /tmp/ccNjsOsm.s 			page 6


 161 00c6 DA81     		strh	r2, [r3, #14]	@ movhi
 127:./Libraries/CMSIS/DSP/Source/TransformFunctions/arm_cfft_radix4_init_q31.c ****     S->pBitRevTable = (uint16_t *) & armBitRevTable[255];
 162              		.loc 1 127 21
 163 00c8 7B68     		ldr	r3, [r7, #4]
 164 00ca 0C4A     		ldr	r2, .L10+20
 165 00cc 9A60     		str	r2, [r3, #8]
 128:./Libraries/CMSIS/DSP/Source/TransformFunctions/arm_cfft_radix4_init_q31.c ****     break;
 166              		.loc 1 128 5
 167 00ce 02E0     		b	.L8
 168              	.L3:
 129:./Libraries/CMSIS/DSP/Source/TransformFunctions/arm_cfft_radix4_init_q31.c **** 
 130:./Libraries/CMSIS/DSP/Source/TransformFunctions/arm_cfft_radix4_init_q31.c ****   default:
 131:./Libraries/CMSIS/DSP/Source/TransformFunctions/arm_cfft_radix4_init_q31.c ****     /*  Reporting argument error if fftSize is not valid value */
 132:./Libraries/CMSIS/DSP/Source/TransformFunctions/arm_cfft_radix4_init_q31.c ****     status = ARM_MATH_ARGUMENT_ERROR;
 169              		.loc 1 132 12
 170 00d0 FF23     		movs	r3, #255
 171 00d2 FB73     		strb	r3, [r7, #15]
 133:./Libraries/CMSIS/DSP/Source/TransformFunctions/arm_cfft_radix4_init_q31.c ****     break;
 172              		.loc 1 133 5
 173 00d4 00BF     		nop
 174              	.L8:
 134:./Libraries/CMSIS/DSP/Source/TransformFunctions/arm_cfft_radix4_init_q31.c ****   }
 135:./Libraries/CMSIS/DSP/Source/TransformFunctions/arm_cfft_radix4_init_q31.c **** 
 136:./Libraries/CMSIS/DSP/Source/TransformFunctions/arm_cfft_radix4_init_q31.c ****   return (status);
 175              		.loc 1 136 10
 176 00d6 97F90F30 		ldrsb	r3, [r7, #15]
 137:./Libraries/CMSIS/DSP/Source/TransformFunctions/arm_cfft_radix4_init_q31.c **** }
 177              		.loc 1 137 1
 178 00da 1846     		mov	r0, r3
 179 00dc 1437     		adds	r7, r7, #20
 180              	.LCFI3:
 181              		.cfi_def_cfa_offset 4
 182 00de BD46     		mov	sp, r7
 183              	.LCFI4:
 184              		.cfi_def_cfa_register 13
 185              		@ sp needed
 186 00e0 5DF8047B 		ldr	r7, [sp], #4
 187              	.LCFI5:
 188              		.cfi_restore 7
 189              		.cfi_def_cfa_offset 0
 190 00e4 7047     		bx	lr
 191              	.L11:
 192 00e6 00BF     		.align	2
 193              	.L10:
 194 00e8 00000000 		.word	twiddleCoef_4096_q31
 195 00ec 00000000 		.word	armBitRevTable
 196 00f0 06000000 		.word	armBitRevTable+6
 197 00f4 1E000000 		.word	armBitRevTable+30
 198 00f8 7E000000 		.word	armBitRevTable+126
 199 00fc FE010000 		.word	armBitRevTable+510
 200              		.cfi_endproc
 201              	.LFE145:
 203              		.text
 204              	.Letext0:
 205              		.file 2 "/usr/lib/gcc/arm-none-eabi/9.2.1/include/stdint.h"
 206              		.file 3 "/usr/lib/gcc/arm-none-eabi/9.2.1/include/stddef.h"
 207              		.file 4 "/usr/include/newlib/sys/_types.h"
ARM GAS  /tmp/ccNjsOsm.s 			page 7


 208              		.file 5 "/usr/include/newlib/sys/reent.h"
 209              		.file 6 "/usr/include/newlib/sys/lock.h"
 210              		.file 7 "/usr/include/newlib/math.h"
 211              		.file 8 "./Libraries/CMSIS/DSP/Include/arm_math.h"
 212              		.file 9 "./Libraries/CMSIS/DSP/Include/arm_common_tables.h"
ARM GAS  /tmp/ccNjsOsm.s 			page 8

