ARM GAS  /tmp/ccZb7TS3.s 			page 1


   1              		.cpu cortex-m7
   2              		.eabi_attribute 28, 1
   3              		.eabi_attribute 20, 1
   4              		.eabi_attribute 21, 1
   5              		.eabi_attribute 23, 3
   6              		.eabi_attribute 24, 1
   7              		.eabi_attribute 25, 1
   8              		.eabi_attribute 26, 1
   9              		.eabi_attribute 30, 6
  10              		.eabi_attribute 34, 1
  11              		.eabi_attribute 18, 4
  12              		.file	"arm_fir_interpolate_q31.c"
  13              		.text
  14              	.Ltext0:
  15              		.cfi_sections	.debug_frame
  16              		.section	.text.arm_fir_interpolate_q31,"ax",%progbits
  17              		.align	1
  18              		.global	arm_fir_interpolate_q31
  19              		.arch armv7e-m
  20              		.syntax unified
  21              		.thumb
  22              		.thumb_func
  23              		.fpu fpv5-d16
  25              	arm_fir_interpolate_q31:
  26              	.LFB145:
  27              		.file 1 "./Libraries/CMSIS/DSP/Source/FilteringFunctions/arm_fir_interpolate_q31.c"
   1:./Libraries/CMSIS/DSP/Source/FilteringFunctions/arm_fir_interpolate_q31.c **** /* ----------------------------------------------------------------------
   2:./Libraries/CMSIS/DSP/Source/FilteringFunctions/arm_fir_interpolate_q31.c ****  * Project:      CMSIS DSP Library
   3:./Libraries/CMSIS/DSP/Source/FilteringFunctions/arm_fir_interpolate_q31.c ****  * Title:        arm_fir_interpolate_q31.c
   4:./Libraries/CMSIS/DSP/Source/FilteringFunctions/arm_fir_interpolate_q31.c ****  * Description:  Q31 FIR interpolation
   5:./Libraries/CMSIS/DSP/Source/FilteringFunctions/arm_fir_interpolate_q31.c ****  *
   6:./Libraries/CMSIS/DSP/Source/FilteringFunctions/arm_fir_interpolate_q31.c ****  * $Date:        18. March 2019
   7:./Libraries/CMSIS/DSP/Source/FilteringFunctions/arm_fir_interpolate_q31.c ****  * $Revision:    V1.6.0
   8:./Libraries/CMSIS/DSP/Source/FilteringFunctions/arm_fir_interpolate_q31.c ****  *
   9:./Libraries/CMSIS/DSP/Source/FilteringFunctions/arm_fir_interpolate_q31.c ****  * Target Processor: Cortex-M cores
  10:./Libraries/CMSIS/DSP/Source/FilteringFunctions/arm_fir_interpolate_q31.c ****  * -------------------------------------------------------------------- */
  11:./Libraries/CMSIS/DSP/Source/FilteringFunctions/arm_fir_interpolate_q31.c **** /*
  12:./Libraries/CMSIS/DSP/Source/FilteringFunctions/arm_fir_interpolate_q31.c ****  * Copyright (C) 2010-2019 ARM Limited or its affiliates. All rights reserved.
  13:./Libraries/CMSIS/DSP/Source/FilteringFunctions/arm_fir_interpolate_q31.c ****  *
  14:./Libraries/CMSIS/DSP/Source/FilteringFunctions/arm_fir_interpolate_q31.c ****  * SPDX-License-Identifier: Apache-2.0
  15:./Libraries/CMSIS/DSP/Source/FilteringFunctions/arm_fir_interpolate_q31.c ****  *
  16:./Libraries/CMSIS/DSP/Source/FilteringFunctions/arm_fir_interpolate_q31.c ****  * Licensed under the Apache License, Version 2.0 (the License); you may
  17:./Libraries/CMSIS/DSP/Source/FilteringFunctions/arm_fir_interpolate_q31.c ****  * not use this file except in compliance with the License.
  18:./Libraries/CMSIS/DSP/Source/FilteringFunctions/arm_fir_interpolate_q31.c ****  * You may obtain a copy of the License at
  19:./Libraries/CMSIS/DSP/Source/FilteringFunctions/arm_fir_interpolate_q31.c ****  *
  20:./Libraries/CMSIS/DSP/Source/FilteringFunctions/arm_fir_interpolate_q31.c ****  * www.apache.org/licenses/LICENSE-2.0
  21:./Libraries/CMSIS/DSP/Source/FilteringFunctions/arm_fir_interpolate_q31.c ****  *
  22:./Libraries/CMSIS/DSP/Source/FilteringFunctions/arm_fir_interpolate_q31.c ****  * Unless required by applicable law or agreed to in writing, software
  23:./Libraries/CMSIS/DSP/Source/FilteringFunctions/arm_fir_interpolate_q31.c ****  * distributed under the License is distributed on an AS IS BASIS, WITHOUT
  24:./Libraries/CMSIS/DSP/Source/FilteringFunctions/arm_fir_interpolate_q31.c ****  * WARRANTIES OR CONDITIONS OF ANY KIND, either express or implied.
  25:./Libraries/CMSIS/DSP/Source/FilteringFunctions/arm_fir_interpolate_q31.c ****  * See the License for the specific language governing permissions and
  26:./Libraries/CMSIS/DSP/Source/FilteringFunctions/arm_fir_interpolate_q31.c ****  * limitations under the License.
  27:./Libraries/CMSIS/DSP/Source/FilteringFunctions/arm_fir_interpolate_q31.c ****  */
  28:./Libraries/CMSIS/DSP/Source/FilteringFunctions/arm_fir_interpolate_q31.c **** 
  29:./Libraries/CMSIS/DSP/Source/FilteringFunctions/arm_fir_interpolate_q31.c **** #include "arm_math.h"
  30:./Libraries/CMSIS/DSP/Source/FilteringFunctions/arm_fir_interpolate_q31.c **** 
  31:./Libraries/CMSIS/DSP/Source/FilteringFunctions/arm_fir_interpolate_q31.c **** /**
ARM GAS  /tmp/ccZb7TS3.s 			page 2


  32:./Libraries/CMSIS/DSP/Source/FilteringFunctions/arm_fir_interpolate_q31.c ****   @ingroup groupFilters
  33:./Libraries/CMSIS/DSP/Source/FilteringFunctions/arm_fir_interpolate_q31.c ****  */
  34:./Libraries/CMSIS/DSP/Source/FilteringFunctions/arm_fir_interpolate_q31.c **** 
  35:./Libraries/CMSIS/DSP/Source/FilteringFunctions/arm_fir_interpolate_q31.c **** /**
  36:./Libraries/CMSIS/DSP/Source/FilteringFunctions/arm_fir_interpolate_q31.c ****   @addtogroup FIR_Interpolate
  37:./Libraries/CMSIS/DSP/Source/FilteringFunctions/arm_fir_interpolate_q31.c ****   @{
  38:./Libraries/CMSIS/DSP/Source/FilteringFunctions/arm_fir_interpolate_q31.c ****  */
  39:./Libraries/CMSIS/DSP/Source/FilteringFunctions/arm_fir_interpolate_q31.c **** 
  40:./Libraries/CMSIS/DSP/Source/FilteringFunctions/arm_fir_interpolate_q31.c **** /**
  41:./Libraries/CMSIS/DSP/Source/FilteringFunctions/arm_fir_interpolate_q31.c ****   @brief         Processing function for the Q31 FIR interpolator.
  42:./Libraries/CMSIS/DSP/Source/FilteringFunctions/arm_fir_interpolate_q31.c ****   @param[in]     S          points to an instance of the Q31 FIR interpolator structure
  43:./Libraries/CMSIS/DSP/Source/FilteringFunctions/arm_fir_interpolate_q31.c ****   @param[in]     pSrc       points to the block of input data
  44:./Libraries/CMSIS/DSP/Source/FilteringFunctions/arm_fir_interpolate_q31.c ****   @param[out]    pDst       points to the block of output data
  45:./Libraries/CMSIS/DSP/Source/FilteringFunctions/arm_fir_interpolate_q31.c ****   @param[in]     blockSize  number of samples to process
  46:./Libraries/CMSIS/DSP/Source/FilteringFunctions/arm_fir_interpolate_q31.c ****   @return        none
  47:./Libraries/CMSIS/DSP/Source/FilteringFunctions/arm_fir_interpolate_q31.c **** 
  48:./Libraries/CMSIS/DSP/Source/FilteringFunctions/arm_fir_interpolate_q31.c ****   @par           Scaling and Overflow Behavior
  49:./Libraries/CMSIS/DSP/Source/FilteringFunctions/arm_fir_interpolate_q31.c ****                    The function is implemented using an internal 64-bit accumulator.
  50:./Libraries/CMSIS/DSP/Source/FilteringFunctions/arm_fir_interpolate_q31.c ****                    The accumulator has a 2.62 format and maintains full precision of the intermedia
  51:./Libraries/CMSIS/DSP/Source/FilteringFunctions/arm_fir_interpolate_q31.c ****                    Thus, if the accumulator result overflows it wraps around rather than clip.
  52:./Libraries/CMSIS/DSP/Source/FilteringFunctions/arm_fir_interpolate_q31.c ****                    In order to avoid overflows completely the input signal must be scaled down by <
  53:./Libraries/CMSIS/DSP/Source/FilteringFunctions/arm_fir_interpolate_q31.c ****                    since <code>numTaps/L</code> additions occur per output sample.
  54:./Libraries/CMSIS/DSP/Source/FilteringFunctions/arm_fir_interpolate_q31.c ****                    After all multiply-accumulates are performed, the 2.62 accumulator is truncated 
  55:./Libraries/CMSIS/DSP/Source/FilteringFunctions/arm_fir_interpolate_q31.c ****  */
  56:./Libraries/CMSIS/DSP/Source/FilteringFunctions/arm_fir_interpolate_q31.c **** 
  57:./Libraries/CMSIS/DSP/Source/FilteringFunctions/arm_fir_interpolate_q31.c **** void arm_fir_interpolate_q31(
  58:./Libraries/CMSIS/DSP/Source/FilteringFunctions/arm_fir_interpolate_q31.c ****   const arm_fir_interpolate_instance_q31 * S,
  59:./Libraries/CMSIS/DSP/Source/FilteringFunctions/arm_fir_interpolate_q31.c ****   const q31_t * pSrc,
  60:./Libraries/CMSIS/DSP/Source/FilteringFunctions/arm_fir_interpolate_q31.c ****         q31_t * pDst,
  61:./Libraries/CMSIS/DSP/Source/FilteringFunctions/arm_fir_interpolate_q31.c ****         uint32_t blockSize)
  62:./Libraries/CMSIS/DSP/Source/FilteringFunctions/arm_fir_interpolate_q31.c **** {
  28              		.loc 1 62 1
  29              		.cfi_startproc
  30              		@ args = 0, pretend = 0, frame = 64
  31              		@ frame_needed = 1, uses_anonymous_args = 0
  32              		@ link register save eliminated.
  33 0000 F0B4     		push	{r4, r5, r6, r7}
  34              	.LCFI0:
  35              		.cfi_def_cfa_offset 16
  36              		.cfi_offset 4, -16
  37              		.cfi_offset 5, -12
  38              		.cfi_offset 6, -8
  39              		.cfi_offset 7, -4
  40 0002 90B0     		sub	sp, sp, #64
  41              	.LCFI1:
  42              		.cfi_def_cfa_offset 80
  43 0004 00AF     		add	r7, sp, #0
  44              	.LCFI2:
  45              		.cfi_def_cfa_register 7
  46 0006 F860     		str	r0, [r7, #12]
  47 0008 B960     		str	r1, [r7, #8]
  48 000a 7A60     		str	r2, [r7, #4]
  49 000c 3B60     		str	r3, [r7]
  63:./Libraries/CMSIS/DSP/Source/FilteringFunctions/arm_fir_interpolate_q31.c **** #if (1)
  64:./Libraries/CMSIS/DSP/Source/FilteringFunctions/arm_fir_interpolate_q31.c **** //#if !defined(ARM_MATH_CM0_FAMILY)
  65:./Libraries/CMSIS/DSP/Source/FilteringFunctions/arm_fir_interpolate_q31.c **** 
  66:./Libraries/CMSIS/DSP/Source/FilteringFunctions/arm_fir_interpolate_q31.c ****         q31_t *pState = S->pState;                     /* State pointer */
ARM GAS  /tmp/ccZb7TS3.s 			page 3


  50              		.loc 1 66 16
  51 000e FB68     		ldr	r3, [r7, #12]
  52 0010 9B68     		ldr	r3, [r3, #8]
  53 0012 FB63     		str	r3, [r7, #60]
  67:./Libraries/CMSIS/DSP/Source/FilteringFunctions/arm_fir_interpolate_q31.c ****   const q31_t *pCoeffs = S->pCoeffs;                   /* Coefficient pointer */
  54              		.loc 1 67 16
  55 0014 FB68     		ldr	r3, [r7, #12]
  56 0016 5B68     		ldr	r3, [r3, #4]
  57 0018 7B61     		str	r3, [r7, #20]
  68:./Libraries/CMSIS/DSP/Source/FilteringFunctions/arm_fir_interpolate_q31.c ****         q31_t *pStateCur;                              /* Points to the current sample of the state
  69:./Libraries/CMSIS/DSP/Source/FilteringFunctions/arm_fir_interpolate_q31.c ****         q31_t *ptr1;                                   /* Temporary pointer for state buffer */
  70:./Libraries/CMSIS/DSP/Source/FilteringFunctions/arm_fir_interpolate_q31.c ****   const q31_t *ptr2;                                   /* Temporary pointer for coefficient buffer 
  71:./Libraries/CMSIS/DSP/Source/FilteringFunctions/arm_fir_interpolate_q31.c ****         q63_t sum0;                                    /* Accumulators */
  72:./Libraries/CMSIS/DSP/Source/FilteringFunctions/arm_fir_interpolate_q31.c ****         uint32_t i, blkCnt, tapCnt;                    /* Loop counters */
  73:./Libraries/CMSIS/DSP/Source/FilteringFunctions/arm_fir_interpolate_q31.c ****         uint32_t phaseLen = S->phaseLength;            /* Length of each polyphase filter component
  58              		.loc 1 73 30
  59 001a FB68     		ldr	r3, [r7, #12]
  60 001c 5B88     		ldrh	r3, [r3, #2]
  61              		.loc 1 73 18
  62 001e 3B61     		str	r3, [r7, #16]
  74:./Libraries/CMSIS/DSP/Source/FilteringFunctions/arm_fir_interpolate_q31.c ****         uint32_t j;
  75:./Libraries/CMSIS/DSP/Source/FilteringFunctions/arm_fir_interpolate_q31.c **** 
  76:./Libraries/CMSIS/DSP/Source/FilteringFunctions/arm_fir_interpolate_q31.c **** #if defined (ARM_MATH_LOOPUNROLL)
  77:./Libraries/CMSIS/DSP/Source/FilteringFunctions/arm_fir_interpolate_q31.c ****         q63_t acc0, acc1, acc2, acc3;
  78:./Libraries/CMSIS/DSP/Source/FilteringFunctions/arm_fir_interpolate_q31.c ****         q31_t x0, x1, x2, x3;
  79:./Libraries/CMSIS/DSP/Source/FilteringFunctions/arm_fir_interpolate_q31.c ****         q31_t c0, c1, c2, c3;
  80:./Libraries/CMSIS/DSP/Source/FilteringFunctions/arm_fir_interpolate_q31.c **** #endif
  81:./Libraries/CMSIS/DSP/Source/FilteringFunctions/arm_fir_interpolate_q31.c **** 
  82:./Libraries/CMSIS/DSP/Source/FilteringFunctions/arm_fir_interpolate_q31.c ****   /* S->pState buffer contains previous frame (phaseLen - 1) samples */
  83:./Libraries/CMSIS/DSP/Source/FilteringFunctions/arm_fir_interpolate_q31.c ****   /* pStateCur points to the location where the new input data should be written */
  84:./Libraries/CMSIS/DSP/Source/FilteringFunctions/arm_fir_interpolate_q31.c ****   pStateCur = S->pState + (phaseLen - 1U);
  63              		.loc 1 84 16
  64 0020 FB68     		ldr	r3, [r7, #12]
  65 0022 9A68     		ldr	r2, [r3, #8]
  66              		.loc 1 84 25
  67 0024 3969     		ldr	r1, [r7, #16]
  68 0026 6FF04043 		mvn	r3, #-1073741824
  69 002a 0B44     		add	r3, r3, r1
  70 002c 9B00     		lsls	r3, r3, #2
  71              		.loc 1 84 13
  72 002e 1344     		add	r3, r3, r2
  73 0030 BB63     		str	r3, [r7, #56]
  85:./Libraries/CMSIS/DSP/Source/FilteringFunctions/arm_fir_interpolate_q31.c **** 
  86:./Libraries/CMSIS/DSP/Source/FilteringFunctions/arm_fir_interpolate_q31.c **** #if defined (ARM_MATH_LOOPUNROLL)
  87:./Libraries/CMSIS/DSP/Source/FilteringFunctions/arm_fir_interpolate_q31.c **** 
  88:./Libraries/CMSIS/DSP/Source/FilteringFunctions/arm_fir_interpolate_q31.c ****   /* Loop unrolling: Compute 4 outputs at a time */
  89:./Libraries/CMSIS/DSP/Source/FilteringFunctions/arm_fir_interpolate_q31.c ****   blkCnt = blockSize >> 2U;
  90:./Libraries/CMSIS/DSP/Source/FilteringFunctions/arm_fir_interpolate_q31.c **** 
  91:./Libraries/CMSIS/DSP/Source/FilteringFunctions/arm_fir_interpolate_q31.c ****   while (blkCnt > 0U)
  92:./Libraries/CMSIS/DSP/Source/FilteringFunctions/arm_fir_interpolate_q31.c ****   {
  93:./Libraries/CMSIS/DSP/Source/FilteringFunctions/arm_fir_interpolate_q31.c ****     /* Copy new input sample into the state buffer */
  94:./Libraries/CMSIS/DSP/Source/FilteringFunctions/arm_fir_interpolate_q31.c ****     *pStateCur++ = *pSrc++;
  95:./Libraries/CMSIS/DSP/Source/FilteringFunctions/arm_fir_interpolate_q31.c ****     *pStateCur++ = *pSrc++;
  96:./Libraries/CMSIS/DSP/Source/FilteringFunctions/arm_fir_interpolate_q31.c ****     *pStateCur++ = *pSrc++;
  97:./Libraries/CMSIS/DSP/Source/FilteringFunctions/arm_fir_interpolate_q31.c ****     *pStateCur++ = *pSrc++;
  98:./Libraries/CMSIS/DSP/Source/FilteringFunctions/arm_fir_interpolate_q31.c **** 
  99:./Libraries/CMSIS/DSP/Source/FilteringFunctions/arm_fir_interpolate_q31.c ****     /* Address modifier index of coefficient buffer */
ARM GAS  /tmp/ccZb7TS3.s 			page 4


 100:./Libraries/CMSIS/DSP/Source/FilteringFunctions/arm_fir_interpolate_q31.c ****     j = 1U;
 101:./Libraries/CMSIS/DSP/Source/FilteringFunctions/arm_fir_interpolate_q31.c **** 
 102:./Libraries/CMSIS/DSP/Source/FilteringFunctions/arm_fir_interpolate_q31.c ****     /* Loop over the Interpolation factor. */
 103:./Libraries/CMSIS/DSP/Source/FilteringFunctions/arm_fir_interpolate_q31.c ****     i = (S->L);
 104:./Libraries/CMSIS/DSP/Source/FilteringFunctions/arm_fir_interpolate_q31.c **** 
 105:./Libraries/CMSIS/DSP/Source/FilteringFunctions/arm_fir_interpolate_q31.c ****     while (i > 0U)
 106:./Libraries/CMSIS/DSP/Source/FilteringFunctions/arm_fir_interpolate_q31.c ****     {
 107:./Libraries/CMSIS/DSP/Source/FilteringFunctions/arm_fir_interpolate_q31.c ****       /* Set accumulator to zero */
 108:./Libraries/CMSIS/DSP/Source/FilteringFunctions/arm_fir_interpolate_q31.c ****       acc0 = 0;
 109:./Libraries/CMSIS/DSP/Source/FilteringFunctions/arm_fir_interpolate_q31.c ****       acc1 = 0;
 110:./Libraries/CMSIS/DSP/Source/FilteringFunctions/arm_fir_interpolate_q31.c ****       acc2 = 0;
 111:./Libraries/CMSIS/DSP/Source/FilteringFunctions/arm_fir_interpolate_q31.c ****       acc3 = 0;
 112:./Libraries/CMSIS/DSP/Source/FilteringFunctions/arm_fir_interpolate_q31.c **** 
 113:./Libraries/CMSIS/DSP/Source/FilteringFunctions/arm_fir_interpolate_q31.c ****       /* Initialize state pointer */
 114:./Libraries/CMSIS/DSP/Source/FilteringFunctions/arm_fir_interpolate_q31.c ****       ptr1 = pState;
 115:./Libraries/CMSIS/DSP/Source/FilteringFunctions/arm_fir_interpolate_q31.c **** 
 116:./Libraries/CMSIS/DSP/Source/FilteringFunctions/arm_fir_interpolate_q31.c ****       /* Initialize coefficient pointer */
 117:./Libraries/CMSIS/DSP/Source/FilteringFunctions/arm_fir_interpolate_q31.c ****       ptr2 = pCoeffs + (S->L - j);
 118:./Libraries/CMSIS/DSP/Source/FilteringFunctions/arm_fir_interpolate_q31.c **** 
 119:./Libraries/CMSIS/DSP/Source/FilteringFunctions/arm_fir_interpolate_q31.c ****       /* Loop over the polyPhase length. Unroll by a factor of 4.
 120:./Libraries/CMSIS/DSP/Source/FilteringFunctions/arm_fir_interpolate_q31.c ****          Repeat until we've computed numTaps-(4*S->L) coefficients. */
 121:./Libraries/CMSIS/DSP/Source/FilteringFunctions/arm_fir_interpolate_q31.c ****       tapCnt = phaseLen >> 2U;
 122:./Libraries/CMSIS/DSP/Source/FilteringFunctions/arm_fir_interpolate_q31.c **** 
 123:./Libraries/CMSIS/DSP/Source/FilteringFunctions/arm_fir_interpolate_q31.c ****       x0 = *(ptr1++);
 124:./Libraries/CMSIS/DSP/Source/FilteringFunctions/arm_fir_interpolate_q31.c ****       x1 = *(ptr1++);
 125:./Libraries/CMSIS/DSP/Source/FilteringFunctions/arm_fir_interpolate_q31.c ****       x2 = *(ptr1++);
 126:./Libraries/CMSIS/DSP/Source/FilteringFunctions/arm_fir_interpolate_q31.c **** 
 127:./Libraries/CMSIS/DSP/Source/FilteringFunctions/arm_fir_interpolate_q31.c ****       while (tapCnt > 0U)
 128:./Libraries/CMSIS/DSP/Source/FilteringFunctions/arm_fir_interpolate_q31.c ****       {
 129:./Libraries/CMSIS/DSP/Source/FilteringFunctions/arm_fir_interpolate_q31.c ****         /* Read the input sample */
 130:./Libraries/CMSIS/DSP/Source/FilteringFunctions/arm_fir_interpolate_q31.c ****         x3 = *(ptr1++);
 131:./Libraries/CMSIS/DSP/Source/FilteringFunctions/arm_fir_interpolate_q31.c **** 
 132:./Libraries/CMSIS/DSP/Source/FilteringFunctions/arm_fir_interpolate_q31.c ****         /* Read the coefficient */
 133:./Libraries/CMSIS/DSP/Source/FilteringFunctions/arm_fir_interpolate_q31.c ****         c0 = *(ptr2);
 134:./Libraries/CMSIS/DSP/Source/FilteringFunctions/arm_fir_interpolate_q31.c **** 
 135:./Libraries/CMSIS/DSP/Source/FilteringFunctions/arm_fir_interpolate_q31.c ****         /* Perform the multiply-accumulate */
 136:./Libraries/CMSIS/DSP/Source/FilteringFunctions/arm_fir_interpolate_q31.c ****         acc0 += (q63_t) x0 * c0;
 137:./Libraries/CMSIS/DSP/Source/FilteringFunctions/arm_fir_interpolate_q31.c ****         acc1 += (q63_t) x1 * c0;
 138:./Libraries/CMSIS/DSP/Source/FilteringFunctions/arm_fir_interpolate_q31.c ****         acc2 += (q63_t) x2 * c0;
 139:./Libraries/CMSIS/DSP/Source/FilteringFunctions/arm_fir_interpolate_q31.c ****         acc3 += (q63_t) x3 * c0;
 140:./Libraries/CMSIS/DSP/Source/FilteringFunctions/arm_fir_interpolate_q31.c **** 
 141:./Libraries/CMSIS/DSP/Source/FilteringFunctions/arm_fir_interpolate_q31.c ****         /* Read the coefficient */
 142:./Libraries/CMSIS/DSP/Source/FilteringFunctions/arm_fir_interpolate_q31.c ****         c1 = *(ptr2 + S->L);
 143:./Libraries/CMSIS/DSP/Source/FilteringFunctions/arm_fir_interpolate_q31.c **** 
 144:./Libraries/CMSIS/DSP/Source/FilteringFunctions/arm_fir_interpolate_q31.c ****         /* Read the input sample */
 145:./Libraries/CMSIS/DSP/Source/FilteringFunctions/arm_fir_interpolate_q31.c ****         x0 = *(ptr1++);
 146:./Libraries/CMSIS/DSP/Source/FilteringFunctions/arm_fir_interpolate_q31.c **** 
 147:./Libraries/CMSIS/DSP/Source/FilteringFunctions/arm_fir_interpolate_q31.c ****         /* Perform the multiply-accumulate */
 148:./Libraries/CMSIS/DSP/Source/FilteringFunctions/arm_fir_interpolate_q31.c ****         acc0 += (q63_t) x1 * c1;
 149:./Libraries/CMSIS/DSP/Source/FilteringFunctions/arm_fir_interpolate_q31.c ****         acc1 += (q63_t) x2 * c1;
 150:./Libraries/CMSIS/DSP/Source/FilteringFunctions/arm_fir_interpolate_q31.c ****         acc2 += (q63_t) x3 * c1;
 151:./Libraries/CMSIS/DSP/Source/FilteringFunctions/arm_fir_interpolate_q31.c ****         acc3 += (q63_t) x0 * c1;
 152:./Libraries/CMSIS/DSP/Source/FilteringFunctions/arm_fir_interpolate_q31.c **** 
 153:./Libraries/CMSIS/DSP/Source/FilteringFunctions/arm_fir_interpolate_q31.c ****         /* Read the coefficient */
 154:./Libraries/CMSIS/DSP/Source/FilteringFunctions/arm_fir_interpolate_q31.c ****         c2 = *(ptr2 + S->L * 2);
 155:./Libraries/CMSIS/DSP/Source/FilteringFunctions/arm_fir_interpolate_q31.c **** 
 156:./Libraries/CMSIS/DSP/Source/FilteringFunctions/arm_fir_interpolate_q31.c ****         /* Read the input sample */
ARM GAS  /tmp/ccZb7TS3.s 			page 5


 157:./Libraries/CMSIS/DSP/Source/FilteringFunctions/arm_fir_interpolate_q31.c ****         x1 = *(ptr1++);
 158:./Libraries/CMSIS/DSP/Source/FilteringFunctions/arm_fir_interpolate_q31.c **** 
 159:./Libraries/CMSIS/DSP/Source/FilteringFunctions/arm_fir_interpolate_q31.c ****         /* Perform the multiply-accumulate */
 160:./Libraries/CMSIS/DSP/Source/FilteringFunctions/arm_fir_interpolate_q31.c ****         acc0 += (q63_t) x2 * c2;
 161:./Libraries/CMSIS/DSP/Source/FilteringFunctions/arm_fir_interpolate_q31.c ****         acc1 += (q63_t) x3 * c2;
 162:./Libraries/CMSIS/DSP/Source/FilteringFunctions/arm_fir_interpolate_q31.c ****         acc2 += (q63_t) x0 * c2;
 163:./Libraries/CMSIS/DSP/Source/FilteringFunctions/arm_fir_interpolate_q31.c ****         acc3 += (q63_t) x1 * c2;
 164:./Libraries/CMSIS/DSP/Source/FilteringFunctions/arm_fir_interpolate_q31.c **** 
 165:./Libraries/CMSIS/DSP/Source/FilteringFunctions/arm_fir_interpolate_q31.c ****         /* Read the coefficient */
 166:./Libraries/CMSIS/DSP/Source/FilteringFunctions/arm_fir_interpolate_q31.c ****         c3 = *(ptr2 + S->L * 3);
 167:./Libraries/CMSIS/DSP/Source/FilteringFunctions/arm_fir_interpolate_q31.c **** 
 168:./Libraries/CMSIS/DSP/Source/FilteringFunctions/arm_fir_interpolate_q31.c ****         /* Read the input sample */
 169:./Libraries/CMSIS/DSP/Source/FilteringFunctions/arm_fir_interpolate_q31.c ****         x2 = *(ptr1++);
 170:./Libraries/CMSIS/DSP/Source/FilteringFunctions/arm_fir_interpolate_q31.c **** 
 171:./Libraries/CMSIS/DSP/Source/FilteringFunctions/arm_fir_interpolate_q31.c ****         /* Perform the multiply-accumulate */
 172:./Libraries/CMSIS/DSP/Source/FilteringFunctions/arm_fir_interpolate_q31.c ****         acc0 += (q63_t) x3 * c3;
 173:./Libraries/CMSIS/DSP/Source/FilteringFunctions/arm_fir_interpolate_q31.c ****         acc1 += (q63_t) x0 * c3;
 174:./Libraries/CMSIS/DSP/Source/FilteringFunctions/arm_fir_interpolate_q31.c ****         acc2 += (q63_t) x1 * c3;
 175:./Libraries/CMSIS/DSP/Source/FilteringFunctions/arm_fir_interpolate_q31.c ****         acc3 += (q63_t) x2 * c3;
 176:./Libraries/CMSIS/DSP/Source/FilteringFunctions/arm_fir_interpolate_q31.c **** 
 177:./Libraries/CMSIS/DSP/Source/FilteringFunctions/arm_fir_interpolate_q31.c **** 
 178:./Libraries/CMSIS/DSP/Source/FilteringFunctions/arm_fir_interpolate_q31.c ****         /* Upsampling is done by stuffing L-1 zeros between each sample.
 179:./Libraries/CMSIS/DSP/Source/FilteringFunctions/arm_fir_interpolate_q31.c ****          * So instead of multiplying zeros with coefficients,
 180:./Libraries/CMSIS/DSP/Source/FilteringFunctions/arm_fir_interpolate_q31.c ****          * Increment the coefficient pointer by interpolation factor times. */
 181:./Libraries/CMSIS/DSP/Source/FilteringFunctions/arm_fir_interpolate_q31.c ****         ptr2 += 4 * S->L;
 182:./Libraries/CMSIS/DSP/Source/FilteringFunctions/arm_fir_interpolate_q31.c **** 
 183:./Libraries/CMSIS/DSP/Source/FilteringFunctions/arm_fir_interpolate_q31.c ****         /* Decrement loop counter */
 184:./Libraries/CMSIS/DSP/Source/FilteringFunctions/arm_fir_interpolate_q31.c ****         tapCnt--;
 185:./Libraries/CMSIS/DSP/Source/FilteringFunctions/arm_fir_interpolate_q31.c ****       }
 186:./Libraries/CMSIS/DSP/Source/FilteringFunctions/arm_fir_interpolate_q31.c **** 
 187:./Libraries/CMSIS/DSP/Source/FilteringFunctions/arm_fir_interpolate_q31.c ****       /* If the polyPhase length is not a multiple of 4, compute the remaining filter taps */
 188:./Libraries/CMSIS/DSP/Source/FilteringFunctions/arm_fir_interpolate_q31.c ****       tapCnt = phaseLen % 0x4U;
 189:./Libraries/CMSIS/DSP/Source/FilteringFunctions/arm_fir_interpolate_q31.c **** 
 190:./Libraries/CMSIS/DSP/Source/FilteringFunctions/arm_fir_interpolate_q31.c ****       while (tapCnt > 0U)
 191:./Libraries/CMSIS/DSP/Source/FilteringFunctions/arm_fir_interpolate_q31.c ****       {
 192:./Libraries/CMSIS/DSP/Source/FilteringFunctions/arm_fir_interpolate_q31.c ****         /* Read the input sample */
 193:./Libraries/CMSIS/DSP/Source/FilteringFunctions/arm_fir_interpolate_q31.c ****         x3 = *(ptr1++);
 194:./Libraries/CMSIS/DSP/Source/FilteringFunctions/arm_fir_interpolate_q31.c **** 
 195:./Libraries/CMSIS/DSP/Source/FilteringFunctions/arm_fir_interpolate_q31.c ****         /* Read the coefficient */
 196:./Libraries/CMSIS/DSP/Source/FilteringFunctions/arm_fir_interpolate_q31.c ****         c0 = *(ptr2);
 197:./Libraries/CMSIS/DSP/Source/FilteringFunctions/arm_fir_interpolate_q31.c **** 
 198:./Libraries/CMSIS/DSP/Source/FilteringFunctions/arm_fir_interpolate_q31.c ****         /* Perform the multiply-accumulate */
 199:./Libraries/CMSIS/DSP/Source/FilteringFunctions/arm_fir_interpolate_q31.c ****         acc0 += (q63_t) x0 * c0;
 200:./Libraries/CMSIS/DSP/Source/FilteringFunctions/arm_fir_interpolate_q31.c ****         acc1 += (q63_t) x1 * c0;
 201:./Libraries/CMSIS/DSP/Source/FilteringFunctions/arm_fir_interpolate_q31.c ****         acc2 += (q63_t) x2 * c0;
 202:./Libraries/CMSIS/DSP/Source/FilteringFunctions/arm_fir_interpolate_q31.c ****         acc3 += (q63_t) x3 * c0;
 203:./Libraries/CMSIS/DSP/Source/FilteringFunctions/arm_fir_interpolate_q31.c **** 
 204:./Libraries/CMSIS/DSP/Source/FilteringFunctions/arm_fir_interpolate_q31.c ****         /* Increment the coefficient pointer by interpolation factor times. */
 205:./Libraries/CMSIS/DSP/Source/FilteringFunctions/arm_fir_interpolate_q31.c ****         ptr2 += S->L;
 206:./Libraries/CMSIS/DSP/Source/FilteringFunctions/arm_fir_interpolate_q31.c **** 
 207:./Libraries/CMSIS/DSP/Source/FilteringFunctions/arm_fir_interpolate_q31.c ****         /* update states for next sample processing */
 208:./Libraries/CMSIS/DSP/Source/FilteringFunctions/arm_fir_interpolate_q31.c ****         x0 = x1;
 209:./Libraries/CMSIS/DSP/Source/FilteringFunctions/arm_fir_interpolate_q31.c ****         x1 = x2;
 210:./Libraries/CMSIS/DSP/Source/FilteringFunctions/arm_fir_interpolate_q31.c ****         x2 = x3;
 211:./Libraries/CMSIS/DSP/Source/FilteringFunctions/arm_fir_interpolate_q31.c **** 
 212:./Libraries/CMSIS/DSP/Source/FilteringFunctions/arm_fir_interpolate_q31.c ****         /* Decrement loop counter */
 213:./Libraries/CMSIS/DSP/Source/FilteringFunctions/arm_fir_interpolate_q31.c ****         tapCnt--;
ARM GAS  /tmp/ccZb7TS3.s 			page 6


 214:./Libraries/CMSIS/DSP/Source/FilteringFunctions/arm_fir_interpolate_q31.c ****       }
 215:./Libraries/CMSIS/DSP/Source/FilteringFunctions/arm_fir_interpolate_q31.c **** 
 216:./Libraries/CMSIS/DSP/Source/FilteringFunctions/arm_fir_interpolate_q31.c ****       /* The result is in the accumulator, store in the destination buffer. */
 217:./Libraries/CMSIS/DSP/Source/FilteringFunctions/arm_fir_interpolate_q31.c ****       *(pDst           ) = (q31_t) (acc0 >> 31);
 218:./Libraries/CMSIS/DSP/Source/FilteringFunctions/arm_fir_interpolate_q31.c ****       *(pDst +     S->L) = (q31_t) (acc1 >> 31);
 219:./Libraries/CMSIS/DSP/Source/FilteringFunctions/arm_fir_interpolate_q31.c ****       *(pDst + 2 * S->L) = (q31_t) (acc2 >> 31);
 220:./Libraries/CMSIS/DSP/Source/FilteringFunctions/arm_fir_interpolate_q31.c ****       *(pDst + 3 * S->L) = (q31_t) (acc3 >> 31);
 221:./Libraries/CMSIS/DSP/Source/FilteringFunctions/arm_fir_interpolate_q31.c **** 
 222:./Libraries/CMSIS/DSP/Source/FilteringFunctions/arm_fir_interpolate_q31.c ****       pDst++;
 223:./Libraries/CMSIS/DSP/Source/FilteringFunctions/arm_fir_interpolate_q31.c **** 
 224:./Libraries/CMSIS/DSP/Source/FilteringFunctions/arm_fir_interpolate_q31.c ****       /* Increment the address modifier index of coefficient buffer */
 225:./Libraries/CMSIS/DSP/Source/FilteringFunctions/arm_fir_interpolate_q31.c ****       j++;
 226:./Libraries/CMSIS/DSP/Source/FilteringFunctions/arm_fir_interpolate_q31.c **** 
 227:./Libraries/CMSIS/DSP/Source/FilteringFunctions/arm_fir_interpolate_q31.c ****       /* Decrement loop counter */
 228:./Libraries/CMSIS/DSP/Source/FilteringFunctions/arm_fir_interpolate_q31.c ****       i--;
 229:./Libraries/CMSIS/DSP/Source/FilteringFunctions/arm_fir_interpolate_q31.c ****     }
 230:./Libraries/CMSIS/DSP/Source/FilteringFunctions/arm_fir_interpolate_q31.c **** 
 231:./Libraries/CMSIS/DSP/Source/FilteringFunctions/arm_fir_interpolate_q31.c ****     /* Advance the state pointer by 1
 232:./Libraries/CMSIS/DSP/Source/FilteringFunctions/arm_fir_interpolate_q31.c ****      * to process the next group of interpolation factor number samples */
 233:./Libraries/CMSIS/DSP/Source/FilteringFunctions/arm_fir_interpolate_q31.c ****     pState = pState + 4;
 234:./Libraries/CMSIS/DSP/Source/FilteringFunctions/arm_fir_interpolate_q31.c **** 
 235:./Libraries/CMSIS/DSP/Source/FilteringFunctions/arm_fir_interpolate_q31.c ****     pDst += S->L * 3;
 236:./Libraries/CMSIS/DSP/Source/FilteringFunctions/arm_fir_interpolate_q31.c **** 
 237:./Libraries/CMSIS/DSP/Source/FilteringFunctions/arm_fir_interpolate_q31.c ****     /* Decrement loop counter */
 238:./Libraries/CMSIS/DSP/Source/FilteringFunctions/arm_fir_interpolate_q31.c ****     blkCnt--;
 239:./Libraries/CMSIS/DSP/Source/FilteringFunctions/arm_fir_interpolate_q31.c ****   }
 240:./Libraries/CMSIS/DSP/Source/FilteringFunctions/arm_fir_interpolate_q31.c **** 
 241:./Libraries/CMSIS/DSP/Source/FilteringFunctions/arm_fir_interpolate_q31.c ****   /* Loop unrolling: Compute remaining outputs */
 242:./Libraries/CMSIS/DSP/Source/FilteringFunctions/arm_fir_interpolate_q31.c ****   blkCnt = blockSize % 0x4U;
 243:./Libraries/CMSIS/DSP/Source/FilteringFunctions/arm_fir_interpolate_q31.c **** 
 244:./Libraries/CMSIS/DSP/Source/FilteringFunctions/arm_fir_interpolate_q31.c **** #else
 245:./Libraries/CMSIS/DSP/Source/FilteringFunctions/arm_fir_interpolate_q31.c **** 
 246:./Libraries/CMSIS/DSP/Source/FilteringFunctions/arm_fir_interpolate_q31.c ****   /* Initialize blkCnt with number of samples */
 247:./Libraries/CMSIS/DSP/Source/FilteringFunctions/arm_fir_interpolate_q31.c ****   blkCnt = blockSize;
  74              		.loc 1 247 10
  75 0032 3B68     		ldr	r3, [r7]
  76 0034 3B62     		str	r3, [r7, #32]
 248:./Libraries/CMSIS/DSP/Source/FilteringFunctions/arm_fir_interpolate_q31.c **** 
 249:./Libraries/CMSIS/DSP/Source/FilteringFunctions/arm_fir_interpolate_q31.c **** #endif /* #if defined (ARM_MATH_LOOPUNROLL) */
 250:./Libraries/CMSIS/DSP/Source/FilteringFunctions/arm_fir_interpolate_q31.c **** 
 251:./Libraries/CMSIS/DSP/Source/FilteringFunctions/arm_fir_interpolate_q31.c ****   while (blkCnt > 0U)
  77              		.loc 1 251 9
  78 0036 67E0     		b	.L2
  79              	.L7:
 252:./Libraries/CMSIS/DSP/Source/FilteringFunctions/arm_fir_interpolate_q31.c ****   {
 253:./Libraries/CMSIS/DSP/Source/FilteringFunctions/arm_fir_interpolate_q31.c ****     /* Copy new input sample into the state buffer */
 254:./Libraries/CMSIS/DSP/Source/FilteringFunctions/arm_fir_interpolate_q31.c ****     *pStateCur++ = *pSrc++;
  80              		.loc 1 254 25
  81 0038 BA68     		ldr	r2, [r7, #8]
  82 003a 131D     		adds	r3, r2, #4
  83 003c BB60     		str	r3, [r7, #8]
  84              		.loc 1 254 15
  85 003e BB6B     		ldr	r3, [r7, #56]
  86 0040 191D     		adds	r1, r3, #4
  87 0042 B963     		str	r1, [r7, #56]
  88              		.loc 1 254 20
  89 0044 1268     		ldr	r2, [r2]
ARM GAS  /tmp/ccZb7TS3.s 			page 7


  90              		.loc 1 254 18
  91 0046 1A60     		str	r2, [r3]
 255:./Libraries/CMSIS/DSP/Source/FilteringFunctions/arm_fir_interpolate_q31.c **** 
 256:./Libraries/CMSIS/DSP/Source/FilteringFunctions/arm_fir_interpolate_q31.c ****     /* Address modifier index of coefficient buffer */
 257:./Libraries/CMSIS/DSP/Source/FilteringFunctions/arm_fir_interpolate_q31.c ****     j = 1U;
  92              		.loc 1 257 7
  93 0048 0123     		movs	r3, #1
  94 004a BB61     		str	r3, [r7, #24]
 258:./Libraries/CMSIS/DSP/Source/FilteringFunctions/arm_fir_interpolate_q31.c **** 
 259:./Libraries/CMSIS/DSP/Source/FilteringFunctions/arm_fir_interpolate_q31.c ****     /* Loop over the Interpolation factor. */
 260:./Libraries/CMSIS/DSP/Source/FilteringFunctions/arm_fir_interpolate_q31.c ****     i = S->L;
  95              		.loc 1 260 10
  96 004c FB68     		ldr	r3, [r7, #12]
  97 004e 1B78     		ldrb	r3, [r3]	@ zero_extendqisi2
  98              		.loc 1 260 7
  99 0050 7B62     		str	r3, [r7, #36]
 261:./Libraries/CMSIS/DSP/Source/FilteringFunctions/arm_fir_interpolate_q31.c ****     while (i > 0U)
 100              		.loc 1 261 11
 101 0052 50E0     		b	.L3
 102              	.L6:
 262:./Libraries/CMSIS/DSP/Source/FilteringFunctions/arm_fir_interpolate_q31.c ****     {
 263:./Libraries/CMSIS/DSP/Source/FilteringFunctions/arm_fir_interpolate_q31.c ****       /* Set accumulator to zero */
 264:./Libraries/CMSIS/DSP/Source/FilteringFunctions/arm_fir_interpolate_q31.c ****       sum0 = 0;
 103              		.loc 1 264 12
 104 0054 4FF00002 		mov	r2, #0
 105 0058 4FF00003 		mov	r3, #0
 106 005c C7E90A23 		strd	r2, [r7, #40]
 265:./Libraries/CMSIS/DSP/Source/FilteringFunctions/arm_fir_interpolate_q31.c **** 
 266:./Libraries/CMSIS/DSP/Source/FilteringFunctions/arm_fir_interpolate_q31.c ****       /* Initialize state pointer */
 267:./Libraries/CMSIS/DSP/Source/FilteringFunctions/arm_fir_interpolate_q31.c ****       ptr1 = pState;
 107              		.loc 1 267 12
 108 0060 FB6B     		ldr	r3, [r7, #60]
 109 0062 7B63     		str	r3, [r7, #52]
 268:./Libraries/CMSIS/DSP/Source/FilteringFunctions/arm_fir_interpolate_q31.c **** 
 269:./Libraries/CMSIS/DSP/Source/FilteringFunctions/arm_fir_interpolate_q31.c ****       /* Initialize coefficient pointer */
 270:./Libraries/CMSIS/DSP/Source/FilteringFunctions/arm_fir_interpolate_q31.c ****       ptr2 = pCoeffs + (S->L - j);
 110              		.loc 1 270 26
 111 0064 FB68     		ldr	r3, [r7, #12]
 112 0066 1B78     		ldrb	r3, [r3]	@ zero_extendqisi2
 113 0068 1A46     		mov	r2, r3
 114              		.loc 1 270 30
 115 006a BB69     		ldr	r3, [r7, #24]
 116 006c D31A     		subs	r3, r2, r3
 117              		.loc 1 270 22
 118 006e 9B00     		lsls	r3, r3, #2
 119              		.loc 1 270 12
 120 0070 7A69     		ldr	r2, [r7, #20]
 121 0072 1344     		add	r3, r3, r2
 122 0074 3B63     		str	r3, [r7, #48]
 271:./Libraries/CMSIS/DSP/Source/FilteringFunctions/arm_fir_interpolate_q31.c **** 
 272:./Libraries/CMSIS/DSP/Source/FilteringFunctions/arm_fir_interpolate_q31.c ****       /* Loop over the polyPhase length.
 273:./Libraries/CMSIS/DSP/Source/FilteringFunctions/arm_fir_interpolate_q31.c ****          Repeat until we've computed numTaps-(4*S->L) coefficients. */
 274:./Libraries/CMSIS/DSP/Source/FilteringFunctions/arm_fir_interpolate_q31.c **** 
 275:./Libraries/CMSIS/DSP/Source/FilteringFunctions/arm_fir_interpolate_q31.c **** #if defined (ARM_MATH_LOOPUNROLL)
 276:./Libraries/CMSIS/DSP/Source/FilteringFunctions/arm_fir_interpolate_q31.c **** 
 277:./Libraries/CMSIS/DSP/Source/FilteringFunctions/arm_fir_interpolate_q31.c ****      /* Loop unrolling: Compute 4 outputs at a time */
 278:./Libraries/CMSIS/DSP/Source/FilteringFunctions/arm_fir_interpolate_q31.c ****       tapCnt = phaseLen >> 2U;
ARM GAS  /tmp/ccZb7TS3.s 			page 8


 279:./Libraries/CMSIS/DSP/Source/FilteringFunctions/arm_fir_interpolate_q31.c **** 
 280:./Libraries/CMSIS/DSP/Source/FilteringFunctions/arm_fir_interpolate_q31.c ****       while (tapCnt > 0U)
 281:./Libraries/CMSIS/DSP/Source/FilteringFunctions/arm_fir_interpolate_q31.c ****       {
 282:./Libraries/CMSIS/DSP/Source/FilteringFunctions/arm_fir_interpolate_q31.c ****         /* Perform the multiply-accumulate */
 283:./Libraries/CMSIS/DSP/Source/FilteringFunctions/arm_fir_interpolate_q31.c ****         sum0 += (q63_t) *ptr1++ * *ptr2;
 284:./Libraries/CMSIS/DSP/Source/FilteringFunctions/arm_fir_interpolate_q31.c **** 
 285:./Libraries/CMSIS/DSP/Source/FilteringFunctions/arm_fir_interpolate_q31.c ****         /* Upsampling is done by stuffing L-1 zeros between each sample.
 286:./Libraries/CMSIS/DSP/Source/FilteringFunctions/arm_fir_interpolate_q31.c ****          * So instead of multiplying zeros with coefficients,
 287:./Libraries/CMSIS/DSP/Source/FilteringFunctions/arm_fir_interpolate_q31.c ****          * Increment the coefficient pointer by interpolation factor times. */
 288:./Libraries/CMSIS/DSP/Source/FilteringFunctions/arm_fir_interpolate_q31.c ****         ptr2 += S->L;
 289:./Libraries/CMSIS/DSP/Source/FilteringFunctions/arm_fir_interpolate_q31.c **** 
 290:./Libraries/CMSIS/DSP/Source/FilteringFunctions/arm_fir_interpolate_q31.c ****         sum0 += (q63_t) *ptr1++ * *ptr2;
 291:./Libraries/CMSIS/DSP/Source/FilteringFunctions/arm_fir_interpolate_q31.c ****         ptr2 += S->L;
 292:./Libraries/CMSIS/DSP/Source/FilteringFunctions/arm_fir_interpolate_q31.c **** 
 293:./Libraries/CMSIS/DSP/Source/FilteringFunctions/arm_fir_interpolate_q31.c ****         sum0 += (q63_t) *ptr1++ * *ptr2;
 294:./Libraries/CMSIS/DSP/Source/FilteringFunctions/arm_fir_interpolate_q31.c ****         ptr2 += S->L;
 295:./Libraries/CMSIS/DSP/Source/FilteringFunctions/arm_fir_interpolate_q31.c **** 
 296:./Libraries/CMSIS/DSP/Source/FilteringFunctions/arm_fir_interpolate_q31.c ****         sum0 += (q63_t) *ptr1++ * *ptr2;
 297:./Libraries/CMSIS/DSP/Source/FilteringFunctions/arm_fir_interpolate_q31.c ****         ptr2 += S->L;
 298:./Libraries/CMSIS/DSP/Source/FilteringFunctions/arm_fir_interpolate_q31.c **** 
 299:./Libraries/CMSIS/DSP/Source/FilteringFunctions/arm_fir_interpolate_q31.c ****         /* Decrement loop counter */
 300:./Libraries/CMSIS/DSP/Source/FilteringFunctions/arm_fir_interpolate_q31.c ****         tapCnt--;
 301:./Libraries/CMSIS/DSP/Source/FilteringFunctions/arm_fir_interpolate_q31.c ****       }
 302:./Libraries/CMSIS/DSP/Source/FilteringFunctions/arm_fir_interpolate_q31.c **** 
 303:./Libraries/CMSIS/DSP/Source/FilteringFunctions/arm_fir_interpolate_q31.c ****       /* Loop unrolling: Compute remaining outputs */
 304:./Libraries/CMSIS/DSP/Source/FilteringFunctions/arm_fir_interpolate_q31.c ****       tapCnt = phaseLen % 0x4U;
 305:./Libraries/CMSIS/DSP/Source/FilteringFunctions/arm_fir_interpolate_q31.c **** 
 306:./Libraries/CMSIS/DSP/Source/FilteringFunctions/arm_fir_interpolate_q31.c **** #else
 307:./Libraries/CMSIS/DSP/Source/FilteringFunctions/arm_fir_interpolate_q31.c **** 
 308:./Libraries/CMSIS/DSP/Source/FilteringFunctions/arm_fir_interpolate_q31.c ****       /* Initialize tapCnt with number of samples */
 309:./Libraries/CMSIS/DSP/Source/FilteringFunctions/arm_fir_interpolate_q31.c ****       tapCnt = phaseLen;
 123              		.loc 1 309 14
 124 0076 3B69     		ldr	r3, [r7, #16]
 125 0078 FB61     		str	r3, [r7, #28]
 310:./Libraries/CMSIS/DSP/Source/FilteringFunctions/arm_fir_interpolate_q31.c **** 
 311:./Libraries/CMSIS/DSP/Source/FilteringFunctions/arm_fir_interpolate_q31.c **** #endif /* #if defined (ARM_MATH_LOOPUNROLL) */
 312:./Libraries/CMSIS/DSP/Source/FilteringFunctions/arm_fir_interpolate_q31.c **** 
 313:./Libraries/CMSIS/DSP/Source/FilteringFunctions/arm_fir_interpolate_q31.c ****       while (tapCnt > 0U)
 126              		.loc 1 313 13
 127 007a 24E0     		b	.L4
 128              	.L5:
 314:./Libraries/CMSIS/DSP/Source/FilteringFunctions/arm_fir_interpolate_q31.c ****       {
 315:./Libraries/CMSIS/DSP/Source/FilteringFunctions/arm_fir_interpolate_q31.c ****         /* Perform the multiply-accumulate */
 316:./Libraries/CMSIS/DSP/Source/FilteringFunctions/arm_fir_interpolate_q31.c ****         sum0 += (q63_t) *ptr1++ * *ptr2;
 129              		.loc 1 316 30
 130 007c 7B6B     		ldr	r3, [r7, #52]
 131 007e 1A1D     		adds	r2, r3, #4
 132 0080 7A63     		str	r2, [r7, #52]
 133              		.loc 1 316 25
 134 0082 1B68     		ldr	r3, [r3]
 135              		.loc 1 316 17
 136 0084 1846     		mov	r0, r3
 137 0086 4FEAE071 		asr	r1, r0, #31
 138              		.loc 1 316 35
 139 008a 3B6B     		ldr	r3, [r7, #48]
 140 008c 1B68     		ldr	r3, [r3]
 141 008e 1A46     		mov	r2, r3
ARM GAS  /tmp/ccZb7TS3.s 			page 9


 142 0090 4FEAE273 		asr	r3, r2, #31
 143              		.loc 1 316 33
 144 0094 02FB01FC 		mul	ip, r2, r1
 145 0098 00FB03F6 		mul	r6, r0, r3
 146 009c 6644     		add	r6, r6, ip
 147 009e A0FB0223 		umull	r2, r3, r0, r2
 148 00a2 F118     		adds	r1, r6, r3
 149 00a4 0B46     		mov	r3, r1
 150              		.loc 1 316 14
 151 00a6 D7E90A01 		ldrd	r0, [r7, #40]
 152 00aa 8418     		adds	r4, r0, r2
 153 00ac 41EB0305 		adc	r5, r1, r3
 154 00b0 C7E90A45 		strd	r4, [r7, #40]
 317:./Libraries/CMSIS/DSP/Source/FilteringFunctions/arm_fir_interpolate_q31.c **** 
 318:./Libraries/CMSIS/DSP/Source/FilteringFunctions/arm_fir_interpolate_q31.c ****         /* Upsampling is done by stuffing L-1 zeros between each sample.
 319:./Libraries/CMSIS/DSP/Source/FilteringFunctions/arm_fir_interpolate_q31.c ****          * So instead of multiplying zeros with coefficients,
 320:./Libraries/CMSIS/DSP/Source/FilteringFunctions/arm_fir_interpolate_q31.c ****          * Increment the coefficient pointer by interpolation factor times. */
 321:./Libraries/CMSIS/DSP/Source/FilteringFunctions/arm_fir_interpolate_q31.c ****         ptr2 += S->L;
 155              		.loc 1 321 18
 156 00b4 FB68     		ldr	r3, [r7, #12]
 157 00b6 1B78     		ldrb	r3, [r3]	@ zero_extendqisi2
 158              		.loc 1 321 14
 159 00b8 9B00     		lsls	r3, r3, #2
 160 00ba 3A6B     		ldr	r2, [r7, #48]
 161 00bc 1344     		add	r3, r3, r2
 162 00be 3B63     		str	r3, [r7, #48]
 322:./Libraries/CMSIS/DSP/Source/FilteringFunctions/arm_fir_interpolate_q31.c **** 
 323:./Libraries/CMSIS/DSP/Source/FilteringFunctions/arm_fir_interpolate_q31.c ****         /* Decrement loop counter */
 324:./Libraries/CMSIS/DSP/Source/FilteringFunctions/arm_fir_interpolate_q31.c ****         tapCnt--;
 163              		.loc 1 324 15
 164 00c0 FB69     		ldr	r3, [r7, #28]
 165 00c2 013B     		subs	r3, r3, #1
 166 00c4 FB61     		str	r3, [r7, #28]
 167              	.L4:
 313:./Libraries/CMSIS/DSP/Source/FilteringFunctions/arm_fir_interpolate_q31.c ****       {
 168              		.loc 1 313 13
 169 00c6 FB69     		ldr	r3, [r7, #28]
 170 00c8 002B     		cmp	r3, #0
 171 00ca D7D1     		bne	.L5
 325:./Libraries/CMSIS/DSP/Source/FilteringFunctions/arm_fir_interpolate_q31.c ****       }
 326:./Libraries/CMSIS/DSP/Source/FilteringFunctions/arm_fir_interpolate_q31.c **** 
 327:./Libraries/CMSIS/DSP/Source/FilteringFunctions/arm_fir_interpolate_q31.c ****       /* The result is in the accumulator, store in the destination buffer. */
 328:./Libraries/CMSIS/DSP/Source/FilteringFunctions/arm_fir_interpolate_q31.c ****       *pDst++ = (q31_t) (sum0 >> 31);
 172              		.loc 1 328 31
 173 00cc D7E90A01 		ldrd	r0, [r7, #40]
 174 00d0 4FF00002 		mov	r2, #0
 175 00d4 4FF00003 		mov	r3, #0
 176 00d8 C20F     		lsrs	r2, r0, #31
 177 00da 42EA4102 		orr	r2, r2, r1, lsl #1
 178 00de CB17     		asrs	r3, r1, #31
 179              		.loc 1 328 12
 180 00e0 7968     		ldr	r1, [r7, #4]
 181 00e2 081D     		adds	r0, r1, #4
 182 00e4 7860     		str	r0, [r7, #4]
 183              		.loc 1 328 17
 184 00e6 1346     		mov	r3, r2
 185              		.loc 1 328 15
ARM GAS  /tmp/ccZb7TS3.s 			page 10


 186 00e8 0B60     		str	r3, [r1]
 329:./Libraries/CMSIS/DSP/Source/FilteringFunctions/arm_fir_interpolate_q31.c **** 
 330:./Libraries/CMSIS/DSP/Source/FilteringFunctions/arm_fir_interpolate_q31.c ****       /* Increment the address modifier index of coefficient buffer */
 331:./Libraries/CMSIS/DSP/Source/FilteringFunctions/arm_fir_interpolate_q31.c ****       j++;
 187              		.loc 1 331 8
 188 00ea BB69     		ldr	r3, [r7, #24]
 189 00ec 0133     		adds	r3, r3, #1
 190 00ee BB61     		str	r3, [r7, #24]
 332:./Libraries/CMSIS/DSP/Source/FilteringFunctions/arm_fir_interpolate_q31.c **** 
 333:./Libraries/CMSIS/DSP/Source/FilteringFunctions/arm_fir_interpolate_q31.c ****       /* Decrement the loop counter */
 334:./Libraries/CMSIS/DSP/Source/FilteringFunctions/arm_fir_interpolate_q31.c ****       i--;
 191              		.loc 1 334 8
 192 00f0 7B6A     		ldr	r3, [r7, #36]
 193 00f2 013B     		subs	r3, r3, #1
 194 00f4 7B62     		str	r3, [r7, #36]
 195              	.L3:
 261:./Libraries/CMSIS/DSP/Source/FilteringFunctions/arm_fir_interpolate_q31.c ****     {
 196              		.loc 1 261 11
 197 00f6 7B6A     		ldr	r3, [r7, #36]
 198 00f8 002B     		cmp	r3, #0
 199 00fa ABD1     		bne	.L6
 335:./Libraries/CMSIS/DSP/Source/FilteringFunctions/arm_fir_interpolate_q31.c ****     }
 336:./Libraries/CMSIS/DSP/Source/FilteringFunctions/arm_fir_interpolate_q31.c **** 
 337:./Libraries/CMSIS/DSP/Source/FilteringFunctions/arm_fir_interpolate_q31.c ****     /* Advance the state pointer by 1
 338:./Libraries/CMSIS/DSP/Source/FilteringFunctions/arm_fir_interpolate_q31.c ****      * to process the next group of interpolation factor number samples */
 339:./Libraries/CMSIS/DSP/Source/FilteringFunctions/arm_fir_interpolate_q31.c ****     pState = pState + 1;
 200              		.loc 1 339 12
 201 00fc FB6B     		ldr	r3, [r7, #60]
 202 00fe 0433     		adds	r3, r3, #4
 203 0100 FB63     		str	r3, [r7, #60]
 340:./Libraries/CMSIS/DSP/Source/FilteringFunctions/arm_fir_interpolate_q31.c **** 
 341:./Libraries/CMSIS/DSP/Source/FilteringFunctions/arm_fir_interpolate_q31.c ****     /* Decrement the loop counter */
 342:./Libraries/CMSIS/DSP/Source/FilteringFunctions/arm_fir_interpolate_q31.c ****     blkCnt--;
 204              		.loc 1 342 11
 205 0102 3B6A     		ldr	r3, [r7, #32]
 206 0104 013B     		subs	r3, r3, #1
 207 0106 3B62     		str	r3, [r7, #32]
 208              	.L2:
 251:./Libraries/CMSIS/DSP/Source/FilteringFunctions/arm_fir_interpolate_q31.c ****   {
 209              		.loc 1 251 9
 210 0108 3B6A     		ldr	r3, [r7, #32]
 211 010a 002B     		cmp	r3, #0
 212 010c 94D1     		bne	.L7
 343:./Libraries/CMSIS/DSP/Source/FilteringFunctions/arm_fir_interpolate_q31.c ****   }
 344:./Libraries/CMSIS/DSP/Source/FilteringFunctions/arm_fir_interpolate_q31.c **** 
 345:./Libraries/CMSIS/DSP/Source/FilteringFunctions/arm_fir_interpolate_q31.c ****   /* Processing is complete.
 346:./Libraries/CMSIS/DSP/Source/FilteringFunctions/arm_fir_interpolate_q31.c ****      Now copy the last phaseLen - 1 samples to the satrt of the state buffer.
 347:./Libraries/CMSIS/DSP/Source/FilteringFunctions/arm_fir_interpolate_q31.c ****      This prepares the state buffer for the next function call. */
 348:./Libraries/CMSIS/DSP/Source/FilteringFunctions/arm_fir_interpolate_q31.c **** 
 349:./Libraries/CMSIS/DSP/Source/FilteringFunctions/arm_fir_interpolate_q31.c ****   /* Points to the start of the state buffer */
 350:./Libraries/CMSIS/DSP/Source/FilteringFunctions/arm_fir_interpolate_q31.c ****   pStateCur = S->pState;
 213              		.loc 1 350 13
 214 010e FB68     		ldr	r3, [r7, #12]
 215 0110 9B68     		ldr	r3, [r3, #8]
 216 0112 BB63     		str	r3, [r7, #56]
 351:./Libraries/CMSIS/DSP/Source/FilteringFunctions/arm_fir_interpolate_q31.c **** 
 352:./Libraries/CMSIS/DSP/Source/FilteringFunctions/arm_fir_interpolate_q31.c **** #if defined (ARM_MATH_LOOPUNROLL)
ARM GAS  /tmp/ccZb7TS3.s 			page 11


 353:./Libraries/CMSIS/DSP/Source/FilteringFunctions/arm_fir_interpolate_q31.c **** 
 354:./Libraries/CMSIS/DSP/Source/FilteringFunctions/arm_fir_interpolate_q31.c ****   /* Loop unrolling: Compute 4 outputs at a time */
 355:./Libraries/CMSIS/DSP/Source/FilteringFunctions/arm_fir_interpolate_q31.c ****   tapCnt = (phaseLen - 1U) >> 2U;
 356:./Libraries/CMSIS/DSP/Source/FilteringFunctions/arm_fir_interpolate_q31.c **** 
 357:./Libraries/CMSIS/DSP/Source/FilteringFunctions/arm_fir_interpolate_q31.c ****   /* copy data */
 358:./Libraries/CMSIS/DSP/Source/FilteringFunctions/arm_fir_interpolate_q31.c ****   while (tapCnt > 0U)
 359:./Libraries/CMSIS/DSP/Source/FilteringFunctions/arm_fir_interpolate_q31.c ****   {
 360:./Libraries/CMSIS/DSP/Source/FilteringFunctions/arm_fir_interpolate_q31.c ****     *pStateCur++ = *pState++;
 361:./Libraries/CMSIS/DSP/Source/FilteringFunctions/arm_fir_interpolate_q31.c ****     *pStateCur++ = *pState++;
 362:./Libraries/CMSIS/DSP/Source/FilteringFunctions/arm_fir_interpolate_q31.c ****     *pStateCur++ = *pState++;
 363:./Libraries/CMSIS/DSP/Source/FilteringFunctions/arm_fir_interpolate_q31.c ****     *pStateCur++ = *pState++;
 364:./Libraries/CMSIS/DSP/Source/FilteringFunctions/arm_fir_interpolate_q31.c **** 
 365:./Libraries/CMSIS/DSP/Source/FilteringFunctions/arm_fir_interpolate_q31.c ****     /* Decrement loop counter */
 366:./Libraries/CMSIS/DSP/Source/FilteringFunctions/arm_fir_interpolate_q31.c ****     tapCnt--;
 367:./Libraries/CMSIS/DSP/Source/FilteringFunctions/arm_fir_interpolate_q31.c ****   }
 368:./Libraries/CMSIS/DSP/Source/FilteringFunctions/arm_fir_interpolate_q31.c **** 
 369:./Libraries/CMSIS/DSP/Source/FilteringFunctions/arm_fir_interpolate_q31.c ****   /* Loop unrolling: Compute remaining outputs */
 370:./Libraries/CMSIS/DSP/Source/FilteringFunctions/arm_fir_interpolate_q31.c ****   tapCnt = (phaseLen - 1U) % 0x04U;
 371:./Libraries/CMSIS/DSP/Source/FilteringFunctions/arm_fir_interpolate_q31.c **** 
 372:./Libraries/CMSIS/DSP/Source/FilteringFunctions/arm_fir_interpolate_q31.c **** #else
 373:./Libraries/CMSIS/DSP/Source/FilteringFunctions/arm_fir_interpolate_q31.c **** 
 374:./Libraries/CMSIS/DSP/Source/FilteringFunctions/arm_fir_interpolate_q31.c ****     /* Initialize tapCnt with number of samples */
 375:./Libraries/CMSIS/DSP/Source/FilteringFunctions/arm_fir_interpolate_q31.c ****     tapCnt = (phaseLen - 1U);
 217              		.loc 1 375 12
 218 0114 3B69     		ldr	r3, [r7, #16]
 219 0116 013B     		subs	r3, r3, #1
 220 0118 FB61     		str	r3, [r7, #28]
 376:./Libraries/CMSIS/DSP/Source/FilteringFunctions/arm_fir_interpolate_q31.c **** 
 377:./Libraries/CMSIS/DSP/Source/FilteringFunctions/arm_fir_interpolate_q31.c **** #endif /* #if defined (ARM_MATH_LOOPUNROLL) */
 378:./Libraries/CMSIS/DSP/Source/FilteringFunctions/arm_fir_interpolate_q31.c **** 
 379:./Libraries/CMSIS/DSP/Source/FilteringFunctions/arm_fir_interpolate_q31.c ****   /* Copy data */
 380:./Libraries/CMSIS/DSP/Source/FilteringFunctions/arm_fir_interpolate_q31.c ****   while (tapCnt > 0U)
 221              		.loc 1 380 9
 222 011a 0AE0     		b	.L8
 223              	.L9:
 381:./Libraries/CMSIS/DSP/Source/FilteringFunctions/arm_fir_interpolate_q31.c ****   {
 382:./Libraries/CMSIS/DSP/Source/FilteringFunctions/arm_fir_interpolate_q31.c ****     *pStateCur++ = *pState++;
 224              		.loc 1 382 27
 225 011c FA6B     		ldr	r2, [r7, #60]
 226 011e 131D     		adds	r3, r2, #4
 227 0120 FB63     		str	r3, [r7, #60]
 228              		.loc 1 382 15
 229 0122 BB6B     		ldr	r3, [r7, #56]
 230 0124 191D     		adds	r1, r3, #4
 231 0126 B963     		str	r1, [r7, #56]
 232              		.loc 1 382 20
 233 0128 1268     		ldr	r2, [r2]
 234              		.loc 1 382 18
 235 012a 1A60     		str	r2, [r3]
 383:./Libraries/CMSIS/DSP/Source/FilteringFunctions/arm_fir_interpolate_q31.c **** 
 384:./Libraries/CMSIS/DSP/Source/FilteringFunctions/arm_fir_interpolate_q31.c ****     /* Decrement loop counter */
 385:./Libraries/CMSIS/DSP/Source/FilteringFunctions/arm_fir_interpolate_q31.c ****     tapCnt--;
 236              		.loc 1 385 11
 237 012c FB69     		ldr	r3, [r7, #28]
 238 012e 013B     		subs	r3, r3, #1
 239 0130 FB61     		str	r3, [r7, #28]
 240              	.L8:
ARM GAS  /tmp/ccZb7TS3.s 			page 12


 380:./Libraries/CMSIS/DSP/Source/FilteringFunctions/arm_fir_interpolate_q31.c ****   {
 241              		.loc 1 380 9
 242 0132 FB69     		ldr	r3, [r7, #28]
 243 0134 002B     		cmp	r3, #0
 244 0136 F1D1     		bne	.L9
 386:./Libraries/CMSIS/DSP/Source/FilteringFunctions/arm_fir_interpolate_q31.c ****   }
 387:./Libraries/CMSIS/DSP/Source/FilteringFunctions/arm_fir_interpolate_q31.c **** 
 388:./Libraries/CMSIS/DSP/Source/FilteringFunctions/arm_fir_interpolate_q31.c **** #else
 389:./Libraries/CMSIS/DSP/Source/FilteringFunctions/arm_fir_interpolate_q31.c **** /* alternate version for CM0_FAMILY */
 390:./Libraries/CMSIS/DSP/Source/FilteringFunctions/arm_fir_interpolate_q31.c **** 
 391:./Libraries/CMSIS/DSP/Source/FilteringFunctions/arm_fir_interpolate_q31.c ****         q31_t *pState = S->pState;                     /* State pointer */
 392:./Libraries/CMSIS/DSP/Source/FilteringFunctions/arm_fir_interpolate_q31.c ****   const q31_t *pCoeffs = S->pCoeffs;                   /* Coefficient pointer */
 393:./Libraries/CMSIS/DSP/Source/FilteringFunctions/arm_fir_interpolate_q31.c ****         q31_t *pStateCur;                              /* Points to the current sample of the state
 394:./Libraries/CMSIS/DSP/Source/FilteringFunctions/arm_fir_interpolate_q31.c ****         q31_t *ptr1;                                   /* Temporary pointer for state buffer */
 395:./Libraries/CMSIS/DSP/Source/FilteringFunctions/arm_fir_interpolate_q31.c ****   const q31_t *ptr2;                                   /* Temporary pointer for coefficient buffer 
 396:./Libraries/CMSIS/DSP/Source/FilteringFunctions/arm_fir_interpolate_q31.c ****         q63_t sum0;                                    /* Accumulators */
 397:./Libraries/CMSIS/DSP/Source/FilteringFunctions/arm_fir_interpolate_q31.c ****         uint32_t i, blkCnt, tapCnt;                    /* Loop counters */
 398:./Libraries/CMSIS/DSP/Source/FilteringFunctions/arm_fir_interpolate_q31.c ****         uint32_t phaseLen = S->phaseLength;            /* Length of each polyphase filter component
 399:./Libraries/CMSIS/DSP/Source/FilteringFunctions/arm_fir_interpolate_q31.c **** 
 400:./Libraries/CMSIS/DSP/Source/FilteringFunctions/arm_fir_interpolate_q31.c ****   /* S->pState buffer contains previous frame (phaseLen - 1) samples */
 401:./Libraries/CMSIS/DSP/Source/FilteringFunctions/arm_fir_interpolate_q31.c ****   /* pStateCur points to the location where the new input data should be written */
 402:./Libraries/CMSIS/DSP/Source/FilteringFunctions/arm_fir_interpolate_q31.c ****   pStateCur = S->pState + (phaseLen - 1U);
 403:./Libraries/CMSIS/DSP/Source/FilteringFunctions/arm_fir_interpolate_q31.c **** 
 404:./Libraries/CMSIS/DSP/Source/FilteringFunctions/arm_fir_interpolate_q31.c ****   /* Total number of intput samples */
 405:./Libraries/CMSIS/DSP/Source/FilteringFunctions/arm_fir_interpolate_q31.c ****   blkCnt = blockSize;
 406:./Libraries/CMSIS/DSP/Source/FilteringFunctions/arm_fir_interpolate_q31.c **** 
 407:./Libraries/CMSIS/DSP/Source/FilteringFunctions/arm_fir_interpolate_q31.c ****   /* Loop over the blockSize. */
 408:./Libraries/CMSIS/DSP/Source/FilteringFunctions/arm_fir_interpolate_q31.c ****   while (blkCnt > 0U)
 409:./Libraries/CMSIS/DSP/Source/FilteringFunctions/arm_fir_interpolate_q31.c ****   {
 410:./Libraries/CMSIS/DSP/Source/FilteringFunctions/arm_fir_interpolate_q31.c ****     /* Copy new input sample into the state buffer */
 411:./Libraries/CMSIS/DSP/Source/FilteringFunctions/arm_fir_interpolate_q31.c ****     *pStateCur++ = *pSrc++;
 412:./Libraries/CMSIS/DSP/Source/FilteringFunctions/arm_fir_interpolate_q31.c **** 
 413:./Libraries/CMSIS/DSP/Source/FilteringFunctions/arm_fir_interpolate_q31.c ****     /* Loop over the Interpolation factor. */
 414:./Libraries/CMSIS/DSP/Source/FilteringFunctions/arm_fir_interpolate_q31.c ****     i = S->L;
 415:./Libraries/CMSIS/DSP/Source/FilteringFunctions/arm_fir_interpolate_q31.c **** 
 416:./Libraries/CMSIS/DSP/Source/FilteringFunctions/arm_fir_interpolate_q31.c ****     while (i > 0U)
 417:./Libraries/CMSIS/DSP/Source/FilteringFunctions/arm_fir_interpolate_q31.c ****     {
 418:./Libraries/CMSIS/DSP/Source/FilteringFunctions/arm_fir_interpolate_q31.c ****       /* Set accumulator to zero */
 419:./Libraries/CMSIS/DSP/Source/FilteringFunctions/arm_fir_interpolate_q31.c ****       sum0 = 0;
 420:./Libraries/CMSIS/DSP/Source/FilteringFunctions/arm_fir_interpolate_q31.c **** 
 421:./Libraries/CMSIS/DSP/Source/FilteringFunctions/arm_fir_interpolate_q31.c ****       /* Initialize state pointer */
 422:./Libraries/CMSIS/DSP/Source/FilteringFunctions/arm_fir_interpolate_q31.c ****       ptr1 = pState;
 423:./Libraries/CMSIS/DSP/Source/FilteringFunctions/arm_fir_interpolate_q31.c **** 
 424:./Libraries/CMSIS/DSP/Source/FilteringFunctions/arm_fir_interpolate_q31.c ****       /* Initialize coefficient pointer */
 425:./Libraries/CMSIS/DSP/Source/FilteringFunctions/arm_fir_interpolate_q31.c ****       ptr2 = pCoeffs + (i - 1U);
 426:./Libraries/CMSIS/DSP/Source/FilteringFunctions/arm_fir_interpolate_q31.c **** 
 427:./Libraries/CMSIS/DSP/Source/FilteringFunctions/arm_fir_interpolate_q31.c ****       /* Loop over the polyPhase length */
 428:./Libraries/CMSIS/DSP/Source/FilteringFunctions/arm_fir_interpolate_q31.c ****       tapCnt = phaseLen;
 429:./Libraries/CMSIS/DSP/Source/FilteringFunctions/arm_fir_interpolate_q31.c **** 
 430:./Libraries/CMSIS/DSP/Source/FilteringFunctions/arm_fir_interpolate_q31.c ****       while (tapCnt > 0U)
 431:./Libraries/CMSIS/DSP/Source/FilteringFunctions/arm_fir_interpolate_q31.c ****       {
 432:./Libraries/CMSIS/DSP/Source/FilteringFunctions/arm_fir_interpolate_q31.c ****         /* Perform the multiply-accumulate */
 433:./Libraries/CMSIS/DSP/Source/FilteringFunctions/arm_fir_interpolate_q31.c ****         sum0 += ((q63_t) *ptr1++ * *ptr2);
 434:./Libraries/CMSIS/DSP/Source/FilteringFunctions/arm_fir_interpolate_q31.c **** 
 435:./Libraries/CMSIS/DSP/Source/FilteringFunctions/arm_fir_interpolate_q31.c ****         /* Increment the coefficient pointer by interpolation factor times. */
 436:./Libraries/CMSIS/DSP/Source/FilteringFunctions/arm_fir_interpolate_q31.c ****         ptr2 += S->L;
 437:./Libraries/CMSIS/DSP/Source/FilteringFunctions/arm_fir_interpolate_q31.c **** 
ARM GAS  /tmp/ccZb7TS3.s 			page 13


 438:./Libraries/CMSIS/DSP/Source/FilteringFunctions/arm_fir_interpolate_q31.c ****         /* Decrement the loop counter */
 439:./Libraries/CMSIS/DSP/Source/FilteringFunctions/arm_fir_interpolate_q31.c ****         tapCnt--;
 440:./Libraries/CMSIS/DSP/Source/FilteringFunctions/arm_fir_interpolate_q31.c ****       }
 441:./Libraries/CMSIS/DSP/Source/FilteringFunctions/arm_fir_interpolate_q31.c **** 
 442:./Libraries/CMSIS/DSP/Source/FilteringFunctions/arm_fir_interpolate_q31.c ****       /* The result is in the accumulator, store in the destination buffer. */
 443:./Libraries/CMSIS/DSP/Source/FilteringFunctions/arm_fir_interpolate_q31.c ****       *pDst++ = (q31_t) (sum0 >> 31);
 444:./Libraries/CMSIS/DSP/Source/FilteringFunctions/arm_fir_interpolate_q31.c **** 
 445:./Libraries/CMSIS/DSP/Source/FilteringFunctions/arm_fir_interpolate_q31.c ****       /* Decrement loop counter */
 446:./Libraries/CMSIS/DSP/Source/FilteringFunctions/arm_fir_interpolate_q31.c ****       i--;
 447:./Libraries/CMSIS/DSP/Source/FilteringFunctions/arm_fir_interpolate_q31.c ****     }
 448:./Libraries/CMSIS/DSP/Source/FilteringFunctions/arm_fir_interpolate_q31.c **** 
 449:./Libraries/CMSIS/DSP/Source/FilteringFunctions/arm_fir_interpolate_q31.c ****     /* Advance the state pointer by 1
 450:./Libraries/CMSIS/DSP/Source/FilteringFunctions/arm_fir_interpolate_q31.c ****      * to process the next group of interpolation factor number samples */
 451:./Libraries/CMSIS/DSP/Source/FilteringFunctions/arm_fir_interpolate_q31.c ****     pState = pState + 1;
 452:./Libraries/CMSIS/DSP/Source/FilteringFunctions/arm_fir_interpolate_q31.c **** 
 453:./Libraries/CMSIS/DSP/Source/FilteringFunctions/arm_fir_interpolate_q31.c ****     /* Decrement loop counter */
 454:./Libraries/CMSIS/DSP/Source/FilteringFunctions/arm_fir_interpolate_q31.c ****     blkCnt--;
 455:./Libraries/CMSIS/DSP/Source/FilteringFunctions/arm_fir_interpolate_q31.c ****   }
 456:./Libraries/CMSIS/DSP/Source/FilteringFunctions/arm_fir_interpolate_q31.c **** 
 457:./Libraries/CMSIS/DSP/Source/FilteringFunctions/arm_fir_interpolate_q31.c ****   /* Processing is complete.
 458:./Libraries/CMSIS/DSP/Source/FilteringFunctions/arm_fir_interpolate_q31.c ****    ** Now copy the last phaseLen - 1 samples to the start of the state buffer.
 459:./Libraries/CMSIS/DSP/Source/FilteringFunctions/arm_fir_interpolate_q31.c ****    ** This prepares the state buffer for the next function call. */
 460:./Libraries/CMSIS/DSP/Source/FilteringFunctions/arm_fir_interpolate_q31.c **** 
 461:./Libraries/CMSIS/DSP/Source/FilteringFunctions/arm_fir_interpolate_q31.c ****   /* Points to the start of the state buffer */
 462:./Libraries/CMSIS/DSP/Source/FilteringFunctions/arm_fir_interpolate_q31.c ****   pStateCur = S->pState;
 463:./Libraries/CMSIS/DSP/Source/FilteringFunctions/arm_fir_interpolate_q31.c **** 
 464:./Libraries/CMSIS/DSP/Source/FilteringFunctions/arm_fir_interpolate_q31.c ****   tapCnt = phaseLen - 1U;
 465:./Libraries/CMSIS/DSP/Source/FilteringFunctions/arm_fir_interpolate_q31.c **** 
 466:./Libraries/CMSIS/DSP/Source/FilteringFunctions/arm_fir_interpolate_q31.c ****   /* Copy data */
 467:./Libraries/CMSIS/DSP/Source/FilteringFunctions/arm_fir_interpolate_q31.c ****   while (tapCnt > 0U)
 468:./Libraries/CMSIS/DSP/Source/FilteringFunctions/arm_fir_interpolate_q31.c ****   {
 469:./Libraries/CMSIS/DSP/Source/FilteringFunctions/arm_fir_interpolate_q31.c ****     *pStateCur++ = *pState++;
 470:./Libraries/CMSIS/DSP/Source/FilteringFunctions/arm_fir_interpolate_q31.c **** 
 471:./Libraries/CMSIS/DSP/Source/FilteringFunctions/arm_fir_interpolate_q31.c ****     /* Decrement loop counter */
 472:./Libraries/CMSIS/DSP/Source/FilteringFunctions/arm_fir_interpolate_q31.c ****     tapCnt--;
 473:./Libraries/CMSIS/DSP/Source/FilteringFunctions/arm_fir_interpolate_q31.c ****   }
 474:./Libraries/CMSIS/DSP/Source/FilteringFunctions/arm_fir_interpolate_q31.c **** 
 475:./Libraries/CMSIS/DSP/Source/FilteringFunctions/arm_fir_interpolate_q31.c **** #endif /* #if !defined(ARM_MATH_CM0_FAMILY) */
 476:./Libraries/CMSIS/DSP/Source/FilteringFunctions/arm_fir_interpolate_q31.c **** 
 477:./Libraries/CMSIS/DSP/Source/FilteringFunctions/arm_fir_interpolate_q31.c **** }
 245              		.loc 1 477 1
 246 0138 00BF     		nop
 247 013a 00BF     		nop
 248 013c 4037     		adds	r7, r7, #64
 249              	.LCFI3:
 250              		.cfi_def_cfa_offset 16
 251 013e BD46     		mov	sp, r7
 252              	.LCFI4:
 253              		.cfi_def_cfa_register 13
 254              		@ sp needed
 255 0140 F0BC     		pop	{r4, r5, r6, r7}
 256              	.LCFI5:
 257              		.cfi_restore 7
 258              		.cfi_restore 6
 259              		.cfi_restore 5
 260              		.cfi_restore 4
 261              		.cfi_def_cfa_offset 0
ARM GAS  /tmp/ccZb7TS3.s 			page 14


 262 0142 7047     		bx	lr
 263              		.cfi_endproc
 264              	.LFE145:
 266              		.text
 267              	.Letext0:
 268              		.file 2 "/usr/lib/gcc/arm-none-eabi/9.2.1/include/stdint.h"
 269              		.file 3 "/usr/lib/gcc/arm-none-eabi/9.2.1/include/stddef.h"
 270              		.file 4 "/usr/include/newlib/sys/_types.h"
 271              		.file 5 "/usr/include/newlib/sys/reent.h"
 272              		.file 6 "/usr/include/newlib/sys/lock.h"
 273              		.file 7 "/usr/include/newlib/math.h"
 274              		.file 8 "./Libraries/CMSIS/DSP/Include/arm_math.h"
ARM GAS  /tmp/ccZb7TS3.s 			page 15

