ARM GAS  /tmp/ccviZEQV.s 			page 1


   1              		.cpu cortex-m7
   2              		.eabi_attribute 28, 1
   3              		.eabi_attribute 20, 1
   4              		.eabi_attribute 21, 1
   5              		.eabi_attribute 23, 3
   6              		.eabi_attribute 24, 1
   7              		.eabi_attribute 25, 1
   8              		.eabi_attribute 26, 1
   9              		.eabi_attribute 30, 6
  10              		.eabi_attribute 34, 1
  11              		.eabi_attribute 18, 4
  12              		.file	"arm_mat_trans_q15.c"
  13              		.text
  14              	.Ltext0:
  15              		.cfi_sections	.debug_frame
  16              		.section	.text.arm_mat_trans_q15,"ax",%progbits
  17              		.align	1
  18              		.global	arm_mat_trans_q15
  19              		.arch armv7e-m
  20              		.syntax unified
  21              		.thumb
  22              		.thumb_func
  23              		.fpu fpv5-d16
  25              	arm_mat_trans_q15:
  26              	.LFB145:
  27              		.file 1 "./Libraries/CMSIS/DSP/Source/MatrixFunctions/arm_mat_trans_q15.c"
   1:./Libraries/CMSIS/DSP/Source/MatrixFunctions/arm_mat_trans_q15.c **** /* ----------------------------------------------------------------------
   2:./Libraries/CMSIS/DSP/Source/MatrixFunctions/arm_mat_trans_q15.c ****  * Project:      CMSIS DSP Library
   3:./Libraries/CMSIS/DSP/Source/MatrixFunctions/arm_mat_trans_q15.c ****  * Title:        arm_mat_trans_q15.c
   4:./Libraries/CMSIS/DSP/Source/MatrixFunctions/arm_mat_trans_q15.c ****  * Description:  Q15 matrix transpose
   5:./Libraries/CMSIS/DSP/Source/MatrixFunctions/arm_mat_trans_q15.c ****  *
   6:./Libraries/CMSIS/DSP/Source/MatrixFunctions/arm_mat_trans_q15.c ****  * $Date:        18. March 2019
   7:./Libraries/CMSIS/DSP/Source/MatrixFunctions/arm_mat_trans_q15.c ****  * $Revision:    V1.6.0
   8:./Libraries/CMSIS/DSP/Source/MatrixFunctions/arm_mat_trans_q15.c ****  *
   9:./Libraries/CMSIS/DSP/Source/MatrixFunctions/arm_mat_trans_q15.c ****  * Target Processor: Cortex-M cores
  10:./Libraries/CMSIS/DSP/Source/MatrixFunctions/arm_mat_trans_q15.c ****  * -------------------------------------------------------------------- */
  11:./Libraries/CMSIS/DSP/Source/MatrixFunctions/arm_mat_trans_q15.c **** /*
  12:./Libraries/CMSIS/DSP/Source/MatrixFunctions/arm_mat_trans_q15.c ****  * Copyright (C) 2010-2019 ARM Limited or its affiliates. All rights reserved.
  13:./Libraries/CMSIS/DSP/Source/MatrixFunctions/arm_mat_trans_q15.c ****  *
  14:./Libraries/CMSIS/DSP/Source/MatrixFunctions/arm_mat_trans_q15.c ****  * SPDX-License-Identifier: Apache-2.0
  15:./Libraries/CMSIS/DSP/Source/MatrixFunctions/arm_mat_trans_q15.c ****  *
  16:./Libraries/CMSIS/DSP/Source/MatrixFunctions/arm_mat_trans_q15.c ****  * Licensed under the Apache License, Version 2.0 (the License); you may
  17:./Libraries/CMSIS/DSP/Source/MatrixFunctions/arm_mat_trans_q15.c ****  * not use this file except in compliance with the License.
  18:./Libraries/CMSIS/DSP/Source/MatrixFunctions/arm_mat_trans_q15.c ****  * You may obtain a copy of the License at
  19:./Libraries/CMSIS/DSP/Source/MatrixFunctions/arm_mat_trans_q15.c ****  *
  20:./Libraries/CMSIS/DSP/Source/MatrixFunctions/arm_mat_trans_q15.c ****  * www.apache.org/licenses/LICENSE-2.0
  21:./Libraries/CMSIS/DSP/Source/MatrixFunctions/arm_mat_trans_q15.c ****  *
  22:./Libraries/CMSIS/DSP/Source/MatrixFunctions/arm_mat_trans_q15.c ****  * Unless required by applicable law or agreed to in writing, software
  23:./Libraries/CMSIS/DSP/Source/MatrixFunctions/arm_mat_trans_q15.c ****  * distributed under the License is distributed on an AS IS BASIS, WITHOUT
  24:./Libraries/CMSIS/DSP/Source/MatrixFunctions/arm_mat_trans_q15.c ****  * WARRANTIES OR CONDITIONS OF ANY KIND, either express or implied.
  25:./Libraries/CMSIS/DSP/Source/MatrixFunctions/arm_mat_trans_q15.c ****  * See the License for the specific language governing permissions and
  26:./Libraries/CMSIS/DSP/Source/MatrixFunctions/arm_mat_trans_q15.c ****  * limitations under the License.
  27:./Libraries/CMSIS/DSP/Source/MatrixFunctions/arm_mat_trans_q15.c ****  */
  28:./Libraries/CMSIS/DSP/Source/MatrixFunctions/arm_mat_trans_q15.c **** 
  29:./Libraries/CMSIS/DSP/Source/MatrixFunctions/arm_mat_trans_q15.c **** #include "arm_math.h"
  30:./Libraries/CMSIS/DSP/Source/MatrixFunctions/arm_mat_trans_q15.c **** 
  31:./Libraries/CMSIS/DSP/Source/MatrixFunctions/arm_mat_trans_q15.c **** /**
ARM GAS  /tmp/ccviZEQV.s 			page 2


  32:./Libraries/CMSIS/DSP/Source/MatrixFunctions/arm_mat_trans_q15.c ****   @ingroup groupMatrix
  33:./Libraries/CMSIS/DSP/Source/MatrixFunctions/arm_mat_trans_q15.c ****  */
  34:./Libraries/CMSIS/DSP/Source/MatrixFunctions/arm_mat_trans_q15.c **** 
  35:./Libraries/CMSIS/DSP/Source/MatrixFunctions/arm_mat_trans_q15.c **** /**
  36:./Libraries/CMSIS/DSP/Source/MatrixFunctions/arm_mat_trans_q15.c ****   @addtogroup MatrixTrans
  37:./Libraries/CMSIS/DSP/Source/MatrixFunctions/arm_mat_trans_q15.c ****   @{
  38:./Libraries/CMSIS/DSP/Source/MatrixFunctions/arm_mat_trans_q15.c ****  */
  39:./Libraries/CMSIS/DSP/Source/MatrixFunctions/arm_mat_trans_q15.c **** 
  40:./Libraries/CMSIS/DSP/Source/MatrixFunctions/arm_mat_trans_q15.c **** /**
  41:./Libraries/CMSIS/DSP/Source/MatrixFunctions/arm_mat_trans_q15.c ****   @brief         Q15 matrix transpose.
  42:./Libraries/CMSIS/DSP/Source/MatrixFunctions/arm_mat_trans_q15.c ****   @param[in]     pSrc      points to input matrix
  43:./Libraries/CMSIS/DSP/Source/MatrixFunctions/arm_mat_trans_q15.c ****   @param[out]    pDst      points to output matrix
  44:./Libraries/CMSIS/DSP/Source/MatrixFunctions/arm_mat_trans_q15.c ****   @return        execution status
  45:./Libraries/CMSIS/DSP/Source/MatrixFunctions/arm_mat_trans_q15.c ****                    - \ref ARM_MATH_SUCCESS       : Operation successful
  46:./Libraries/CMSIS/DSP/Source/MatrixFunctions/arm_mat_trans_q15.c ****                    - \ref ARM_MATH_SIZE_MISMATCH : Matrix size check failed
  47:./Libraries/CMSIS/DSP/Source/MatrixFunctions/arm_mat_trans_q15.c ****  */
  48:./Libraries/CMSIS/DSP/Source/MatrixFunctions/arm_mat_trans_q15.c **** 
  49:./Libraries/CMSIS/DSP/Source/MatrixFunctions/arm_mat_trans_q15.c **** arm_status arm_mat_trans_q15(
  50:./Libraries/CMSIS/DSP/Source/MatrixFunctions/arm_mat_trans_q15.c ****   const arm_matrix_instance_q15 * pSrc,
  51:./Libraries/CMSIS/DSP/Source/MatrixFunctions/arm_mat_trans_q15.c ****         arm_matrix_instance_q15 * pDst)
  52:./Libraries/CMSIS/DSP/Source/MatrixFunctions/arm_mat_trans_q15.c **** {
  28              		.loc 1 52 1
  29              		.cfi_startproc
  30              		@ args = 0, pretend = 0, frame = 40
  31              		@ frame_needed = 1, uses_anonymous_args = 0
  32              		@ link register save eliminated.
  33 0000 80B4     		push	{r7}
  34              	.LCFI0:
  35              		.cfi_def_cfa_offset 4
  36              		.cfi_offset 7, -4
  37 0002 8BB0     		sub	sp, sp, #44
  38              	.LCFI1:
  39              		.cfi_def_cfa_offset 48
  40 0004 00AF     		add	r7, sp, #0
  41              	.LCFI2:
  42              		.cfi_def_cfa_register 7
  43 0006 7860     		str	r0, [r7, #4]
  44 0008 3960     		str	r1, [r7]
  53:./Libraries/CMSIS/DSP/Source/MatrixFunctions/arm_mat_trans_q15.c ****         q15_t *pIn = pSrc->pData;                      /* input data matrix pointer */
  45              		.loc 1 53 16
  46 000a 7B68     		ldr	r3, [r7, #4]
  47 000c 5B68     		ldr	r3, [r3, #4]
  48 000e 7B62     		str	r3, [r7, #36]
  54:./Libraries/CMSIS/DSP/Source/MatrixFunctions/arm_mat_trans_q15.c ****         q15_t *pOut = pDst->pData;                     /* output data matrix pointer */
  49              		.loc 1 54 16
  50 0010 3B68     		ldr	r3, [r7]
  51 0012 5B68     		ldr	r3, [r3, #4]
  52 0014 3B62     		str	r3, [r7, #32]
  55:./Libraries/CMSIS/DSP/Source/MatrixFunctions/arm_mat_trans_q15.c ****         uint16_t nRows = pSrc->numRows;                /* number of rows */
  53              		.loc 1 55 18
  54 0016 7B68     		ldr	r3, [r7, #4]
  55 0018 1B88     		ldrh	r3, [r3]	@ movhi
  56 001a 7B82     		strh	r3, [r7, #18]	@ movhi
  56:./Libraries/CMSIS/DSP/Source/MatrixFunctions/arm_mat_trans_q15.c ****         uint16_t nCols = pSrc->numCols;                /* number of columns */
  57              		.loc 1 56 18
  58 001c 7B68     		ldr	r3, [r7, #4]
  59 001e 5B88     		ldrh	r3, [r3, #2]	@ movhi
ARM GAS  /tmp/ccviZEQV.s 			page 3


  60 0020 3B82     		strh	r3, [r7, #16]	@ movhi
  57:./Libraries/CMSIS/DSP/Source/MatrixFunctions/arm_mat_trans_q15.c ****         uint32_t col, row = nRows, i = 0U;             /* Loop counters */
  61              		.loc 1 57 23
  62 0022 7B8A     		ldrh	r3, [r7, #18]
  63 0024 BB61     		str	r3, [r7, #24]
  64              		.loc 1 57 36
  65 0026 0023     		movs	r3, #0
  66 0028 7B61     		str	r3, [r7, #20]
  67              	.L4:
  58:./Libraries/CMSIS/DSP/Source/MatrixFunctions/arm_mat_trans_q15.c ****         arm_status status;                             /* status of matrix transpose */
  59:./Libraries/CMSIS/DSP/Source/MatrixFunctions/arm_mat_trans_q15.c **** 
  60:./Libraries/CMSIS/DSP/Source/MatrixFunctions/arm_mat_trans_q15.c **** #if defined (ARM_MATH_LOOPUNROLL)
  61:./Libraries/CMSIS/DSP/Source/MatrixFunctions/arm_mat_trans_q15.c ****         q31_t in;                                      /* variable to hold temporary output  */
  62:./Libraries/CMSIS/DSP/Source/MatrixFunctions/arm_mat_trans_q15.c **** #endif
  63:./Libraries/CMSIS/DSP/Source/MatrixFunctions/arm_mat_trans_q15.c **** 
  64:./Libraries/CMSIS/DSP/Source/MatrixFunctions/arm_mat_trans_q15.c **** #ifdef ARM_MATH_MATRIX_CHECK
  65:./Libraries/CMSIS/DSP/Source/MatrixFunctions/arm_mat_trans_q15.c **** 
  66:./Libraries/CMSIS/DSP/Source/MatrixFunctions/arm_mat_trans_q15.c ****   /* Check for matrix mismatch condition */
  67:./Libraries/CMSIS/DSP/Source/MatrixFunctions/arm_mat_trans_q15.c ****   if ((pSrc->numRows != pDst->numCols) ||
  68:./Libraries/CMSIS/DSP/Source/MatrixFunctions/arm_mat_trans_q15.c ****       (pSrc->numCols != pDst->numRows)   )
  69:./Libraries/CMSIS/DSP/Source/MatrixFunctions/arm_mat_trans_q15.c ****   {
  70:./Libraries/CMSIS/DSP/Source/MatrixFunctions/arm_mat_trans_q15.c ****     /* Set status as ARM_MATH_SIZE_MISMATCH */
  71:./Libraries/CMSIS/DSP/Source/MatrixFunctions/arm_mat_trans_q15.c ****     status = ARM_MATH_SIZE_MISMATCH;
  72:./Libraries/CMSIS/DSP/Source/MatrixFunctions/arm_mat_trans_q15.c ****   }
  73:./Libraries/CMSIS/DSP/Source/MatrixFunctions/arm_mat_trans_q15.c ****   else
  74:./Libraries/CMSIS/DSP/Source/MatrixFunctions/arm_mat_trans_q15.c **** 
  75:./Libraries/CMSIS/DSP/Source/MatrixFunctions/arm_mat_trans_q15.c **** #endif /* #ifdef ARM_MATH_MATRIX_CHECK */
  76:./Libraries/CMSIS/DSP/Source/MatrixFunctions/arm_mat_trans_q15.c **** 
  77:./Libraries/CMSIS/DSP/Source/MatrixFunctions/arm_mat_trans_q15.c ****   {
  78:./Libraries/CMSIS/DSP/Source/MatrixFunctions/arm_mat_trans_q15.c ****     /* Matrix transpose by exchanging the rows with columns */
  79:./Libraries/CMSIS/DSP/Source/MatrixFunctions/arm_mat_trans_q15.c ****     /* row loop */
  80:./Libraries/CMSIS/DSP/Source/MatrixFunctions/arm_mat_trans_q15.c ****     do
  81:./Libraries/CMSIS/DSP/Source/MatrixFunctions/arm_mat_trans_q15.c ****     {
  82:./Libraries/CMSIS/DSP/Source/MatrixFunctions/arm_mat_trans_q15.c ****       /* Pointer pOut is set to starting address of column being processed */
  83:./Libraries/CMSIS/DSP/Source/MatrixFunctions/arm_mat_trans_q15.c ****       pOut = pDst->pData + i;
  68              		.loc 1 83 18
  69 002a 3B68     		ldr	r3, [r7]
  70 002c 5A68     		ldr	r2, [r3, #4]
  71              		.loc 1 83 26
  72 002e 7B69     		ldr	r3, [r7, #20]
  73 0030 5B00     		lsls	r3, r3, #1
  74              		.loc 1 83 12
  75 0032 1344     		add	r3, r3, r2
  76 0034 3B62     		str	r3, [r7, #32]
  84:./Libraries/CMSIS/DSP/Source/MatrixFunctions/arm_mat_trans_q15.c **** 
  85:./Libraries/CMSIS/DSP/Source/MatrixFunctions/arm_mat_trans_q15.c **** #if defined (ARM_MATH_LOOPUNROLL)
  86:./Libraries/CMSIS/DSP/Source/MatrixFunctions/arm_mat_trans_q15.c **** 
  87:./Libraries/CMSIS/DSP/Source/MatrixFunctions/arm_mat_trans_q15.c ****       /* Loop unrolling: Compute 4 outputs at a time */
  88:./Libraries/CMSIS/DSP/Source/MatrixFunctions/arm_mat_trans_q15.c ****       col = nCols >> 2U;
  89:./Libraries/CMSIS/DSP/Source/MatrixFunctions/arm_mat_trans_q15.c **** 
  90:./Libraries/CMSIS/DSP/Source/MatrixFunctions/arm_mat_trans_q15.c ****       while (col > 0U)        /* column loop */
  91:./Libraries/CMSIS/DSP/Source/MatrixFunctions/arm_mat_trans_q15.c ****       {
  92:./Libraries/CMSIS/DSP/Source/MatrixFunctions/arm_mat_trans_q15.c ****         /* Read two elements from row */
  93:./Libraries/CMSIS/DSP/Source/MatrixFunctions/arm_mat_trans_q15.c ****         in = read_q15x2_ia ((q15_t **) &pIn);
  94:./Libraries/CMSIS/DSP/Source/MatrixFunctions/arm_mat_trans_q15.c **** 
  95:./Libraries/CMSIS/DSP/Source/MatrixFunctions/arm_mat_trans_q15.c ****         /* Unpack and store one element in  destination */
  96:./Libraries/CMSIS/DSP/Source/MatrixFunctions/arm_mat_trans_q15.c **** #ifndef ARM_MATH_BIG_ENDIAN
ARM GAS  /tmp/ccviZEQV.s 			page 4


  97:./Libraries/CMSIS/DSP/Source/MatrixFunctions/arm_mat_trans_q15.c ****         *pOut = (q15_t) in;
  98:./Libraries/CMSIS/DSP/Source/MatrixFunctions/arm_mat_trans_q15.c **** #else
  99:./Libraries/CMSIS/DSP/Source/MatrixFunctions/arm_mat_trans_q15.c ****         *pOut = (q15_t) ((in & (q31_t) 0xffff0000) >> 16);
 100:./Libraries/CMSIS/DSP/Source/MatrixFunctions/arm_mat_trans_q15.c **** #endif /* #ifndef ARM_MATH_BIG_ENDIAN */
 101:./Libraries/CMSIS/DSP/Source/MatrixFunctions/arm_mat_trans_q15.c **** 
 102:./Libraries/CMSIS/DSP/Source/MatrixFunctions/arm_mat_trans_q15.c ****         /* Update pointer pOut to point to next row of transposed matrix */
 103:./Libraries/CMSIS/DSP/Source/MatrixFunctions/arm_mat_trans_q15.c ****         pOut += nRows;
 104:./Libraries/CMSIS/DSP/Source/MatrixFunctions/arm_mat_trans_q15.c **** 
 105:./Libraries/CMSIS/DSP/Source/MatrixFunctions/arm_mat_trans_q15.c ****         /* Unpack and store second element in destination */
 106:./Libraries/CMSIS/DSP/Source/MatrixFunctions/arm_mat_trans_q15.c **** #ifndef ARM_MATH_BIG_ENDIAN
 107:./Libraries/CMSIS/DSP/Source/MatrixFunctions/arm_mat_trans_q15.c ****         *pOut = (q15_t) ((in & (q31_t) 0xffff0000) >> 16);
 108:./Libraries/CMSIS/DSP/Source/MatrixFunctions/arm_mat_trans_q15.c **** #else
 109:./Libraries/CMSIS/DSP/Source/MatrixFunctions/arm_mat_trans_q15.c ****         *pOut = (q15_t) in;
 110:./Libraries/CMSIS/DSP/Source/MatrixFunctions/arm_mat_trans_q15.c **** #endif /* #ifndef ARM_MATH_BIG_ENDIAN */
 111:./Libraries/CMSIS/DSP/Source/MatrixFunctions/arm_mat_trans_q15.c **** 
 112:./Libraries/CMSIS/DSP/Source/MatrixFunctions/arm_mat_trans_q15.c ****         /* Update  pointer pOut to point to next row of transposed matrix */
 113:./Libraries/CMSIS/DSP/Source/MatrixFunctions/arm_mat_trans_q15.c ****         pOut += nRows;
 114:./Libraries/CMSIS/DSP/Source/MatrixFunctions/arm_mat_trans_q15.c **** 
 115:./Libraries/CMSIS/DSP/Source/MatrixFunctions/arm_mat_trans_q15.c ****         /* Read two elements from row */
 116:./Libraries/CMSIS/DSP/Source/MatrixFunctions/arm_mat_trans_q15.c ****         in = read_q15x2_ia ((q15_t **) &pIn);
 117:./Libraries/CMSIS/DSP/Source/MatrixFunctions/arm_mat_trans_q15.c **** 
 118:./Libraries/CMSIS/DSP/Source/MatrixFunctions/arm_mat_trans_q15.c ****         /* Unpack and store one element in destination */
 119:./Libraries/CMSIS/DSP/Source/MatrixFunctions/arm_mat_trans_q15.c **** #ifndef ARM_MATH_BIG_ENDIAN
 120:./Libraries/CMSIS/DSP/Source/MatrixFunctions/arm_mat_trans_q15.c ****         *pOut = (q15_t) in;
 121:./Libraries/CMSIS/DSP/Source/MatrixFunctions/arm_mat_trans_q15.c **** #else
 122:./Libraries/CMSIS/DSP/Source/MatrixFunctions/arm_mat_trans_q15.c ****         *pOut = (q15_t) ((in & (q31_t) 0xffff0000) >> 16);
 123:./Libraries/CMSIS/DSP/Source/MatrixFunctions/arm_mat_trans_q15.c **** 
 124:./Libraries/CMSIS/DSP/Source/MatrixFunctions/arm_mat_trans_q15.c **** #endif /* #ifndef ARM_MATH_BIG_ENDIAN */
 125:./Libraries/CMSIS/DSP/Source/MatrixFunctions/arm_mat_trans_q15.c **** 
 126:./Libraries/CMSIS/DSP/Source/MatrixFunctions/arm_mat_trans_q15.c ****         /* Update pointer pOut to point to next row of transposed matrix */
 127:./Libraries/CMSIS/DSP/Source/MatrixFunctions/arm_mat_trans_q15.c ****         pOut += nRows;
 128:./Libraries/CMSIS/DSP/Source/MatrixFunctions/arm_mat_trans_q15.c **** 
 129:./Libraries/CMSIS/DSP/Source/MatrixFunctions/arm_mat_trans_q15.c ****         /* Unpack and store second element in destination */
 130:./Libraries/CMSIS/DSP/Source/MatrixFunctions/arm_mat_trans_q15.c **** #ifndef ARM_MATH_BIG_ENDIAN
 131:./Libraries/CMSIS/DSP/Source/MatrixFunctions/arm_mat_trans_q15.c ****         *pOut = (q15_t) ((in & (q31_t) 0xffff0000) >> 16);
 132:./Libraries/CMSIS/DSP/Source/MatrixFunctions/arm_mat_trans_q15.c **** #else
 133:./Libraries/CMSIS/DSP/Source/MatrixFunctions/arm_mat_trans_q15.c ****         *pOut = (q15_t) in;
 134:./Libraries/CMSIS/DSP/Source/MatrixFunctions/arm_mat_trans_q15.c **** #endif /* #ifndef ARM_MATH_BIG_ENDIAN */
 135:./Libraries/CMSIS/DSP/Source/MatrixFunctions/arm_mat_trans_q15.c **** 
 136:./Libraries/CMSIS/DSP/Source/MatrixFunctions/arm_mat_trans_q15.c ****         /* Update pointer pOut to point to next row of transposed matrix */
 137:./Libraries/CMSIS/DSP/Source/MatrixFunctions/arm_mat_trans_q15.c ****         pOut += nRows;
 138:./Libraries/CMSIS/DSP/Source/MatrixFunctions/arm_mat_trans_q15.c **** 
 139:./Libraries/CMSIS/DSP/Source/MatrixFunctions/arm_mat_trans_q15.c ****         /* Decrement column loop counter */
 140:./Libraries/CMSIS/DSP/Source/MatrixFunctions/arm_mat_trans_q15.c ****         col--;
 141:./Libraries/CMSIS/DSP/Source/MatrixFunctions/arm_mat_trans_q15.c ****       }
 142:./Libraries/CMSIS/DSP/Source/MatrixFunctions/arm_mat_trans_q15.c **** 
 143:./Libraries/CMSIS/DSP/Source/MatrixFunctions/arm_mat_trans_q15.c ****       /* Loop unrolling: Compute remaining outputs */
 144:./Libraries/CMSIS/DSP/Source/MatrixFunctions/arm_mat_trans_q15.c ****       col = nCols % 0x4U;
 145:./Libraries/CMSIS/DSP/Source/MatrixFunctions/arm_mat_trans_q15.c **** 
 146:./Libraries/CMSIS/DSP/Source/MatrixFunctions/arm_mat_trans_q15.c **** #else
 147:./Libraries/CMSIS/DSP/Source/MatrixFunctions/arm_mat_trans_q15.c **** 
 148:./Libraries/CMSIS/DSP/Source/MatrixFunctions/arm_mat_trans_q15.c ****       /* Initialize col with number of samples */
 149:./Libraries/CMSIS/DSP/Source/MatrixFunctions/arm_mat_trans_q15.c ****       col = nCols;
  77              		.loc 1 149 11
  78 0036 3B8A     		ldrh	r3, [r7, #16]
  79 0038 FB61     		str	r3, [r7, #28]
 150:./Libraries/CMSIS/DSP/Source/MatrixFunctions/arm_mat_trans_q15.c **** 
ARM GAS  /tmp/ccviZEQV.s 			page 5


 151:./Libraries/CMSIS/DSP/Source/MatrixFunctions/arm_mat_trans_q15.c **** #endif /* #if defined (ARM_MATH_LOOPUNROLL) */
 152:./Libraries/CMSIS/DSP/Source/MatrixFunctions/arm_mat_trans_q15.c **** 
 153:./Libraries/CMSIS/DSP/Source/MatrixFunctions/arm_mat_trans_q15.c ****       while (col > 0U)
  80              		.loc 1 153 13
  81 003a 0EE0     		b	.L2
  82              	.L3:
 154:./Libraries/CMSIS/DSP/Source/MatrixFunctions/arm_mat_trans_q15.c ****       {
 155:./Libraries/CMSIS/DSP/Source/MatrixFunctions/arm_mat_trans_q15.c ****         /* Read and store input element in destination */
 156:./Libraries/CMSIS/DSP/Source/MatrixFunctions/arm_mat_trans_q15.c ****         *pOut = *pIn++;
  83              		.loc 1 156 21
  84 003c 7B6A     		ldr	r3, [r7, #36]
  85 003e 9A1C     		adds	r2, r3, #2
  86 0040 7A62     		str	r2, [r7, #36]
  87              		.loc 1 156 17
  88 0042 B3F90020 		ldrsh	r2, [r3]
  89              		.loc 1 156 15
  90 0046 3B6A     		ldr	r3, [r7, #32]
  91 0048 1A80     		strh	r2, [r3]	@ movhi
 157:./Libraries/CMSIS/DSP/Source/MatrixFunctions/arm_mat_trans_q15.c **** 
 158:./Libraries/CMSIS/DSP/Source/MatrixFunctions/arm_mat_trans_q15.c ****         /* Update pointer pOut to point to next row of transposed matrix */
 159:./Libraries/CMSIS/DSP/Source/MatrixFunctions/arm_mat_trans_q15.c ****         pOut += nRows;
  92              		.loc 1 159 14
  93 004a 7B8A     		ldrh	r3, [r7, #18]
  94 004c 5B00     		lsls	r3, r3, #1
  95 004e 3A6A     		ldr	r2, [r7, #32]
  96 0050 1344     		add	r3, r3, r2
  97 0052 3B62     		str	r3, [r7, #32]
 160:./Libraries/CMSIS/DSP/Source/MatrixFunctions/arm_mat_trans_q15.c **** 
 161:./Libraries/CMSIS/DSP/Source/MatrixFunctions/arm_mat_trans_q15.c ****         /* Decrement column loop counter */
 162:./Libraries/CMSIS/DSP/Source/MatrixFunctions/arm_mat_trans_q15.c ****         col--;
  98              		.loc 1 162 12
  99 0054 FB69     		ldr	r3, [r7, #28]
 100 0056 013B     		subs	r3, r3, #1
 101 0058 FB61     		str	r3, [r7, #28]
 102              	.L2:
 153:./Libraries/CMSIS/DSP/Source/MatrixFunctions/arm_mat_trans_q15.c ****       {
 103              		.loc 1 153 13
 104 005a FB69     		ldr	r3, [r7, #28]
 105 005c 002B     		cmp	r3, #0
 106 005e EDD1     		bne	.L3
 163:./Libraries/CMSIS/DSP/Source/MatrixFunctions/arm_mat_trans_q15.c ****       }
 164:./Libraries/CMSIS/DSP/Source/MatrixFunctions/arm_mat_trans_q15.c **** 
 165:./Libraries/CMSIS/DSP/Source/MatrixFunctions/arm_mat_trans_q15.c ****       i++;
 107              		.loc 1 165 8
 108 0060 7B69     		ldr	r3, [r7, #20]
 109 0062 0133     		adds	r3, r3, #1
 110 0064 7B61     		str	r3, [r7, #20]
 166:./Libraries/CMSIS/DSP/Source/MatrixFunctions/arm_mat_trans_q15.c **** 
 167:./Libraries/CMSIS/DSP/Source/MatrixFunctions/arm_mat_trans_q15.c ****       /* Decrement row loop counter */
 168:./Libraries/CMSIS/DSP/Source/MatrixFunctions/arm_mat_trans_q15.c ****       row--;
 111              		.loc 1 168 10
 112 0066 BB69     		ldr	r3, [r7, #24]
 113 0068 013B     		subs	r3, r3, #1
 114 006a BB61     		str	r3, [r7, #24]
 169:./Libraries/CMSIS/DSP/Source/MatrixFunctions/arm_mat_trans_q15.c **** 
 170:./Libraries/CMSIS/DSP/Source/MatrixFunctions/arm_mat_trans_q15.c ****     } while (row > 0U);          /* row loop end */
 115              		.loc 1 170 5
ARM GAS  /tmp/ccviZEQV.s 			page 6


 116 006c BB69     		ldr	r3, [r7, #24]
 117 006e 002B     		cmp	r3, #0
 118 0070 DBD1     		bne	.L4
 171:./Libraries/CMSIS/DSP/Source/MatrixFunctions/arm_mat_trans_q15.c **** 
 172:./Libraries/CMSIS/DSP/Source/MatrixFunctions/arm_mat_trans_q15.c ****     /* Set status as ARM_MATH_SUCCESS */
 173:./Libraries/CMSIS/DSP/Source/MatrixFunctions/arm_mat_trans_q15.c ****     status = ARM_MATH_SUCCESS;
 119              		.loc 1 173 12
 120 0072 0023     		movs	r3, #0
 121 0074 FB73     		strb	r3, [r7, #15]
 174:./Libraries/CMSIS/DSP/Source/MatrixFunctions/arm_mat_trans_q15.c ****   }
 175:./Libraries/CMSIS/DSP/Source/MatrixFunctions/arm_mat_trans_q15.c **** 
 176:./Libraries/CMSIS/DSP/Source/MatrixFunctions/arm_mat_trans_q15.c ****   /* Return to application */
 177:./Libraries/CMSIS/DSP/Source/MatrixFunctions/arm_mat_trans_q15.c ****   return (status);
 122              		.loc 1 177 10
 123 0076 97F90F30 		ldrsb	r3, [r7, #15]
 178:./Libraries/CMSIS/DSP/Source/MatrixFunctions/arm_mat_trans_q15.c **** }
 124              		.loc 1 178 1
 125 007a 1846     		mov	r0, r3
 126 007c 2C37     		adds	r7, r7, #44
 127              	.LCFI3:
 128              		.cfi_def_cfa_offset 4
 129 007e BD46     		mov	sp, r7
 130              	.LCFI4:
 131              		.cfi_def_cfa_register 13
 132              		@ sp needed
 133 0080 5DF8047B 		ldr	r7, [sp], #4
 134              	.LCFI5:
 135              		.cfi_restore 7
 136              		.cfi_def_cfa_offset 0
 137 0084 7047     		bx	lr
 138              		.cfi_endproc
 139              	.LFE145:
 141              		.text
 142              	.Letext0:
 143              		.file 2 "/usr/lib/gcc/arm-none-eabi/9.2.1/include/stdint.h"
 144              		.file 3 "/usr/lib/gcc/arm-none-eabi/9.2.1/include/stddef.h"
 145              		.file 4 "/usr/include/newlib/sys/_types.h"
 146              		.file 5 "/usr/include/newlib/sys/reent.h"
 147              		.file 6 "/usr/include/newlib/sys/lock.h"
 148              		.file 7 "/usr/include/newlib/math.h"
 149              		.file 8 "./Libraries/CMSIS/DSP/Include/arm_math.h"
ARM GAS  /tmp/ccviZEQV.s 			page 7

