ARM GAS  /tmp/cc4ksD1f.s 			page 1


   1              		.cpu cortex-m7
   2              		.eabi_attribute 28, 1
   3              		.eabi_attribute 20, 1
   4              		.eabi_attribute 21, 1
   5              		.eabi_attribute 23, 3
   6              		.eabi_attribute 24, 1
   7              		.eabi_attribute 25, 1
   8              		.eabi_attribute 26, 1
   9              		.eabi_attribute 30, 6
  10              		.eabi_attribute 34, 1
  11              		.eabi_attribute 18, 4
  12              		.file	"arm_copy_q15.c"
  13              		.text
  14              	.Ltext0:
  15              		.cfi_sections	.debug_frame
  16              		.section	.text.arm_copy_q15,"ax",%progbits
  17              		.align	1
  18              		.global	arm_copy_q15
  19              		.arch armv7e-m
  20              		.syntax unified
  21              		.thumb
  22              		.thumb_func
  23              		.fpu fpv5-d16
  25              	arm_copy_q15:
  26              	.LFB145:
  27              		.file 1 "./Libraries/CMSIS/DSP/Source/SupportFunctions/arm_copy_q15.c"
   1:./Libraries/CMSIS/DSP/Source/SupportFunctions/arm_copy_q15.c **** /* ----------------------------------------------------------------------
   2:./Libraries/CMSIS/DSP/Source/SupportFunctions/arm_copy_q15.c ****  * Project:      CMSIS DSP Library
   3:./Libraries/CMSIS/DSP/Source/SupportFunctions/arm_copy_q15.c ****  * Title:        arm_copy_q15.c
   4:./Libraries/CMSIS/DSP/Source/SupportFunctions/arm_copy_q15.c ****  * Description:  Copies the elements of a Q15 vector
   5:./Libraries/CMSIS/DSP/Source/SupportFunctions/arm_copy_q15.c ****  *
   6:./Libraries/CMSIS/DSP/Source/SupportFunctions/arm_copy_q15.c ****  * $Date:        18. March 2019
   7:./Libraries/CMSIS/DSP/Source/SupportFunctions/arm_copy_q15.c ****  * $Revision:    V1.6.0
   8:./Libraries/CMSIS/DSP/Source/SupportFunctions/arm_copy_q15.c ****  *
   9:./Libraries/CMSIS/DSP/Source/SupportFunctions/arm_copy_q15.c ****  * Target Processor: Cortex-M cores
  10:./Libraries/CMSIS/DSP/Source/SupportFunctions/arm_copy_q15.c ****  * -------------------------------------------------------------------- */
  11:./Libraries/CMSIS/DSP/Source/SupportFunctions/arm_copy_q15.c **** /*
  12:./Libraries/CMSIS/DSP/Source/SupportFunctions/arm_copy_q15.c ****  * Copyright (C) 2010-2019 ARM Limited or its affiliates. All rights reserved.
  13:./Libraries/CMSIS/DSP/Source/SupportFunctions/arm_copy_q15.c ****  *
  14:./Libraries/CMSIS/DSP/Source/SupportFunctions/arm_copy_q15.c ****  * SPDX-License-Identifier: Apache-2.0
  15:./Libraries/CMSIS/DSP/Source/SupportFunctions/arm_copy_q15.c ****  *
  16:./Libraries/CMSIS/DSP/Source/SupportFunctions/arm_copy_q15.c ****  * Licensed under the Apache License, Version 2.0 (the License); you may
  17:./Libraries/CMSIS/DSP/Source/SupportFunctions/arm_copy_q15.c ****  * not use this file except in compliance with the License.
  18:./Libraries/CMSIS/DSP/Source/SupportFunctions/arm_copy_q15.c ****  * You may obtain a copy of the License at
  19:./Libraries/CMSIS/DSP/Source/SupportFunctions/arm_copy_q15.c ****  *
  20:./Libraries/CMSIS/DSP/Source/SupportFunctions/arm_copy_q15.c ****  * www.apache.org/licenses/LICENSE-2.0
  21:./Libraries/CMSIS/DSP/Source/SupportFunctions/arm_copy_q15.c ****  *
  22:./Libraries/CMSIS/DSP/Source/SupportFunctions/arm_copy_q15.c ****  * Unless required by applicable law or agreed to in writing, software
  23:./Libraries/CMSIS/DSP/Source/SupportFunctions/arm_copy_q15.c ****  * distributed under the License is distributed on an AS IS BASIS, WITHOUT
  24:./Libraries/CMSIS/DSP/Source/SupportFunctions/arm_copy_q15.c ****  * WARRANTIES OR CONDITIONS OF ANY KIND, either express or implied.
  25:./Libraries/CMSIS/DSP/Source/SupportFunctions/arm_copy_q15.c ****  * See the License for the specific language governing permissions and
  26:./Libraries/CMSIS/DSP/Source/SupportFunctions/arm_copy_q15.c ****  * limitations under the License.
  27:./Libraries/CMSIS/DSP/Source/SupportFunctions/arm_copy_q15.c ****  */
  28:./Libraries/CMSIS/DSP/Source/SupportFunctions/arm_copy_q15.c **** 
  29:./Libraries/CMSIS/DSP/Source/SupportFunctions/arm_copy_q15.c **** #include "arm_math.h"
  30:./Libraries/CMSIS/DSP/Source/SupportFunctions/arm_copy_q15.c **** 
  31:./Libraries/CMSIS/DSP/Source/SupportFunctions/arm_copy_q15.c **** /**
ARM GAS  /tmp/cc4ksD1f.s 			page 2


  32:./Libraries/CMSIS/DSP/Source/SupportFunctions/arm_copy_q15.c ****   @ingroup groupSupport
  33:./Libraries/CMSIS/DSP/Source/SupportFunctions/arm_copy_q15.c ****  */
  34:./Libraries/CMSIS/DSP/Source/SupportFunctions/arm_copy_q15.c **** 
  35:./Libraries/CMSIS/DSP/Source/SupportFunctions/arm_copy_q15.c **** /**
  36:./Libraries/CMSIS/DSP/Source/SupportFunctions/arm_copy_q15.c ****   @addtogroup copy
  37:./Libraries/CMSIS/DSP/Source/SupportFunctions/arm_copy_q15.c ****   @{
  38:./Libraries/CMSIS/DSP/Source/SupportFunctions/arm_copy_q15.c ****  */
  39:./Libraries/CMSIS/DSP/Source/SupportFunctions/arm_copy_q15.c **** 
  40:./Libraries/CMSIS/DSP/Source/SupportFunctions/arm_copy_q15.c **** /**
  41:./Libraries/CMSIS/DSP/Source/SupportFunctions/arm_copy_q15.c ****   @brief         Copies the elements of a Q15 vector.
  42:./Libraries/CMSIS/DSP/Source/SupportFunctions/arm_copy_q15.c ****   @param[in]     pSrc       points to input vector
  43:./Libraries/CMSIS/DSP/Source/SupportFunctions/arm_copy_q15.c ****   @param[out]    pDst       points to output vector
  44:./Libraries/CMSIS/DSP/Source/SupportFunctions/arm_copy_q15.c ****   @param[in]     blockSize  number of samples in each vector
  45:./Libraries/CMSIS/DSP/Source/SupportFunctions/arm_copy_q15.c ****   @return        none
  46:./Libraries/CMSIS/DSP/Source/SupportFunctions/arm_copy_q15.c ****  */
  47:./Libraries/CMSIS/DSP/Source/SupportFunctions/arm_copy_q15.c **** 
  48:./Libraries/CMSIS/DSP/Source/SupportFunctions/arm_copy_q15.c **** void arm_copy_q15(
  49:./Libraries/CMSIS/DSP/Source/SupportFunctions/arm_copy_q15.c ****   const q15_t * pSrc,
  50:./Libraries/CMSIS/DSP/Source/SupportFunctions/arm_copy_q15.c ****         q15_t * pDst,
  51:./Libraries/CMSIS/DSP/Source/SupportFunctions/arm_copy_q15.c ****         uint32_t blockSize)
  52:./Libraries/CMSIS/DSP/Source/SupportFunctions/arm_copy_q15.c **** {
  28              		.loc 1 52 1
  29              		.cfi_startproc
  30              		@ args = 0, pretend = 0, frame = 24
  31              		@ frame_needed = 1, uses_anonymous_args = 0
  32              		@ link register save eliminated.
  33 0000 80B4     		push	{r7}
  34              	.LCFI0:
  35              		.cfi_def_cfa_offset 4
  36              		.cfi_offset 7, -4
  37 0002 87B0     		sub	sp, sp, #28
  38              	.LCFI1:
  39              		.cfi_def_cfa_offset 32
  40 0004 00AF     		add	r7, sp, #0
  41              	.LCFI2:
  42              		.cfi_def_cfa_register 7
  43 0006 F860     		str	r0, [r7, #12]
  44 0008 B960     		str	r1, [r7, #8]
  45 000a 7A60     		str	r2, [r7, #4]
  53:./Libraries/CMSIS/DSP/Source/SupportFunctions/arm_copy_q15.c ****   uint32_t blkCnt;                               /* Loop counter */
  54:./Libraries/CMSIS/DSP/Source/SupportFunctions/arm_copy_q15.c **** 
  55:./Libraries/CMSIS/DSP/Source/SupportFunctions/arm_copy_q15.c **** #if defined (ARM_MATH_LOOPUNROLL)
  56:./Libraries/CMSIS/DSP/Source/SupportFunctions/arm_copy_q15.c **** 
  57:./Libraries/CMSIS/DSP/Source/SupportFunctions/arm_copy_q15.c ****   /* Loop unrolling: Compute 4 outputs at a time */
  58:./Libraries/CMSIS/DSP/Source/SupportFunctions/arm_copy_q15.c ****   blkCnt = blockSize >> 2U;
  59:./Libraries/CMSIS/DSP/Source/SupportFunctions/arm_copy_q15.c **** 
  60:./Libraries/CMSIS/DSP/Source/SupportFunctions/arm_copy_q15.c ****   while (blkCnt > 0U)
  61:./Libraries/CMSIS/DSP/Source/SupportFunctions/arm_copy_q15.c ****   {
  62:./Libraries/CMSIS/DSP/Source/SupportFunctions/arm_copy_q15.c ****     /* C = A */
  63:./Libraries/CMSIS/DSP/Source/SupportFunctions/arm_copy_q15.c **** 
  64:./Libraries/CMSIS/DSP/Source/SupportFunctions/arm_copy_q15.c ****     /* read 2 times 2 samples at a time */
  65:./Libraries/CMSIS/DSP/Source/SupportFunctions/arm_copy_q15.c ****     write_q15x2_ia (&pDst, read_q15x2_ia ((q15_t **) &pSrc));
  66:./Libraries/CMSIS/DSP/Source/SupportFunctions/arm_copy_q15.c ****     write_q15x2_ia (&pDst, read_q15x2_ia ((q15_t **) &pSrc));
  67:./Libraries/CMSIS/DSP/Source/SupportFunctions/arm_copy_q15.c **** 
  68:./Libraries/CMSIS/DSP/Source/SupportFunctions/arm_copy_q15.c ****     /* Decrement loop counter */
  69:./Libraries/CMSIS/DSP/Source/SupportFunctions/arm_copy_q15.c ****     blkCnt--;
  70:./Libraries/CMSIS/DSP/Source/SupportFunctions/arm_copy_q15.c ****   }
ARM GAS  /tmp/cc4ksD1f.s 			page 3


  71:./Libraries/CMSIS/DSP/Source/SupportFunctions/arm_copy_q15.c **** 
  72:./Libraries/CMSIS/DSP/Source/SupportFunctions/arm_copy_q15.c ****   /* Loop unrolling: Compute remaining outputs */
  73:./Libraries/CMSIS/DSP/Source/SupportFunctions/arm_copy_q15.c ****   blkCnt = blockSize % 0x4U;
  74:./Libraries/CMSIS/DSP/Source/SupportFunctions/arm_copy_q15.c **** 
  75:./Libraries/CMSIS/DSP/Source/SupportFunctions/arm_copy_q15.c **** #else
  76:./Libraries/CMSIS/DSP/Source/SupportFunctions/arm_copy_q15.c **** 
  77:./Libraries/CMSIS/DSP/Source/SupportFunctions/arm_copy_q15.c ****   /* Initialize blkCnt with number of samples */
  78:./Libraries/CMSIS/DSP/Source/SupportFunctions/arm_copy_q15.c ****   blkCnt = blockSize;
  46              		.loc 1 78 10
  47 000c 7B68     		ldr	r3, [r7, #4]
  48 000e 7B61     		str	r3, [r7, #20]
  79:./Libraries/CMSIS/DSP/Source/SupportFunctions/arm_copy_q15.c **** 
  80:./Libraries/CMSIS/DSP/Source/SupportFunctions/arm_copy_q15.c **** #endif /* #if defined (ARM_MATH_LOOPUNROLL) */
  81:./Libraries/CMSIS/DSP/Source/SupportFunctions/arm_copy_q15.c **** 
  82:./Libraries/CMSIS/DSP/Source/SupportFunctions/arm_copy_q15.c ****   while (blkCnt > 0U)
  49              		.loc 1 82 9
  50 0010 0BE0     		b	.L2
  51              	.L3:
  83:./Libraries/CMSIS/DSP/Source/SupportFunctions/arm_copy_q15.c ****   {
  84:./Libraries/CMSIS/DSP/Source/SupportFunctions/arm_copy_q15.c ****     /* C = A */
  85:./Libraries/CMSIS/DSP/Source/SupportFunctions/arm_copy_q15.c **** 
  86:./Libraries/CMSIS/DSP/Source/SupportFunctions/arm_copy_q15.c ****     /* Copy and store result in destination buffer */
  87:./Libraries/CMSIS/DSP/Source/SupportFunctions/arm_copy_q15.c ****     *pDst++ = *pSrc++;
  52              		.loc 1 87 20
  53 0012 FA68     		ldr	r2, [r7, #12]
  54 0014 931C     		adds	r3, r2, #2
  55 0016 FB60     		str	r3, [r7, #12]
  56              		.loc 1 87 10
  57 0018 BB68     		ldr	r3, [r7, #8]
  58 001a 991C     		adds	r1, r3, #2
  59 001c B960     		str	r1, [r7, #8]
  60              		.loc 1 87 15
  61 001e B2F90020 		ldrsh	r2, [r2]
  62              		.loc 1 87 13
  63 0022 1A80     		strh	r2, [r3]	@ movhi
  88:./Libraries/CMSIS/DSP/Source/SupportFunctions/arm_copy_q15.c **** 
  89:./Libraries/CMSIS/DSP/Source/SupportFunctions/arm_copy_q15.c ****     /* Decrement loop counter */
  90:./Libraries/CMSIS/DSP/Source/SupportFunctions/arm_copy_q15.c ****     blkCnt--;
  64              		.loc 1 90 11
  65 0024 7B69     		ldr	r3, [r7, #20]
  66 0026 013B     		subs	r3, r3, #1
  67 0028 7B61     		str	r3, [r7, #20]
  68              	.L2:
  82:./Libraries/CMSIS/DSP/Source/SupportFunctions/arm_copy_q15.c ****   {
  69              		.loc 1 82 9
  70 002a 7B69     		ldr	r3, [r7, #20]
  71 002c 002B     		cmp	r3, #0
  72 002e F0D1     		bne	.L3
  91:./Libraries/CMSIS/DSP/Source/SupportFunctions/arm_copy_q15.c ****   }
  92:./Libraries/CMSIS/DSP/Source/SupportFunctions/arm_copy_q15.c **** }
  73              		.loc 1 92 1
  74 0030 00BF     		nop
  75 0032 00BF     		nop
  76 0034 1C37     		adds	r7, r7, #28
  77              	.LCFI3:
  78              		.cfi_def_cfa_offset 4
  79 0036 BD46     		mov	sp, r7
ARM GAS  /tmp/cc4ksD1f.s 			page 4


  80              	.LCFI4:
  81              		.cfi_def_cfa_register 13
  82              		@ sp needed
  83 0038 5DF8047B 		ldr	r7, [sp], #4
  84              	.LCFI5:
  85              		.cfi_restore 7
  86              		.cfi_def_cfa_offset 0
  87 003c 7047     		bx	lr
  88              		.cfi_endproc
  89              	.LFE145:
  91              		.text
  92              	.Letext0:
  93              		.file 2 "/usr/lib/gcc/arm-none-eabi/9.2.1/include/stdint.h"
  94              		.file 3 "/usr/lib/gcc/arm-none-eabi/9.2.1/include/stddef.h"
  95              		.file 4 "/usr/include/newlib/sys/_types.h"
  96              		.file 5 "/usr/include/newlib/sys/reent.h"
  97              		.file 6 "/usr/include/newlib/sys/lock.h"
  98              		.file 7 "/usr/include/newlib/math.h"
  99              		.file 8 "./Libraries/CMSIS/DSP/Include/arm_math.h"
ARM GAS  /tmp/cc4ksD1f.s 			page 5

