ARM GAS  /tmp/ccISY4I9.s 			page 1


   1              		.cpu cortex-m7
   2              		.eabi_attribute 28, 1
   3              		.eabi_attribute 20, 1
   4              		.eabi_attribute 21, 1
   5              		.eabi_attribute 23, 3
   6              		.eabi_attribute 24, 1
   7              		.eabi_attribute 25, 1
   8              		.eabi_attribute 26, 1
   9              		.eabi_attribute 30, 6
  10              		.eabi_attribute 34, 1
  11              		.eabi_attribute 18, 4
  12              		.file	"arm_dct4_q31.c"
  13              		.text
  14              	.Ltext0:
  15              		.cfi_sections	.debug_frame
  16              		.section	.text.arm_dct4_q31,"ax",%progbits
  17              		.align	1
  18              		.global	arm_dct4_q31
  19              		.arch armv7e-m
  20              		.syntax unified
  21              		.thumb
  22              		.thumb_func
  23              		.fpu fpv5-d16
  25              	arm_dct4_q31:
  26              	.LFB145:
  27              		.file 1 "./Libraries/CMSIS/DSP/Source/TransformFunctions/arm_dct4_q31.c"
   1:./Libraries/CMSIS/DSP/Source/TransformFunctions/arm_dct4_q31.c **** /* ----------------------------------------------------------------------
   2:./Libraries/CMSIS/DSP/Source/TransformFunctions/arm_dct4_q31.c ****  * Project:      CMSIS DSP Library
   3:./Libraries/CMSIS/DSP/Source/TransformFunctions/arm_dct4_q31.c ****  * Title:        arm_dct4_q31.c
   4:./Libraries/CMSIS/DSP/Source/TransformFunctions/arm_dct4_q31.c ****  * Description:  Processing function of DCT4 & IDCT4 Q31
   5:./Libraries/CMSIS/DSP/Source/TransformFunctions/arm_dct4_q31.c ****  *
   6:./Libraries/CMSIS/DSP/Source/TransformFunctions/arm_dct4_q31.c ****  * $Date:        18. March 2019
   7:./Libraries/CMSIS/DSP/Source/TransformFunctions/arm_dct4_q31.c ****  * $Revision:    V1.6.0
   8:./Libraries/CMSIS/DSP/Source/TransformFunctions/arm_dct4_q31.c ****  *
   9:./Libraries/CMSIS/DSP/Source/TransformFunctions/arm_dct4_q31.c ****  * Target Processor: Cortex-M cores
  10:./Libraries/CMSIS/DSP/Source/TransformFunctions/arm_dct4_q31.c ****  * -------------------------------------------------------------------- */
  11:./Libraries/CMSIS/DSP/Source/TransformFunctions/arm_dct4_q31.c **** /*
  12:./Libraries/CMSIS/DSP/Source/TransformFunctions/arm_dct4_q31.c ****  * Copyright (C) 2010-2019 ARM Limited or its affiliates. All rights reserved.
  13:./Libraries/CMSIS/DSP/Source/TransformFunctions/arm_dct4_q31.c ****  *
  14:./Libraries/CMSIS/DSP/Source/TransformFunctions/arm_dct4_q31.c ****  * SPDX-License-Identifier: Apache-2.0
  15:./Libraries/CMSIS/DSP/Source/TransformFunctions/arm_dct4_q31.c ****  *
  16:./Libraries/CMSIS/DSP/Source/TransformFunctions/arm_dct4_q31.c ****  * Licensed under the Apache License, Version 2.0 (the License); you may
  17:./Libraries/CMSIS/DSP/Source/TransformFunctions/arm_dct4_q31.c ****  * not use this file except in compliance with the License.
  18:./Libraries/CMSIS/DSP/Source/TransformFunctions/arm_dct4_q31.c ****  * You may obtain a copy of the License at
  19:./Libraries/CMSIS/DSP/Source/TransformFunctions/arm_dct4_q31.c ****  *
  20:./Libraries/CMSIS/DSP/Source/TransformFunctions/arm_dct4_q31.c ****  * www.apache.org/licenses/LICENSE-2.0
  21:./Libraries/CMSIS/DSP/Source/TransformFunctions/arm_dct4_q31.c ****  *
  22:./Libraries/CMSIS/DSP/Source/TransformFunctions/arm_dct4_q31.c ****  * Unless required by applicable law or agreed to in writing, software
  23:./Libraries/CMSIS/DSP/Source/TransformFunctions/arm_dct4_q31.c ****  * distributed under the License is distributed on an AS IS BASIS, WITHOUT
  24:./Libraries/CMSIS/DSP/Source/TransformFunctions/arm_dct4_q31.c ****  * WARRANTIES OR CONDITIONS OF ANY KIND, either express or implied.
  25:./Libraries/CMSIS/DSP/Source/TransformFunctions/arm_dct4_q31.c ****  * See the License for the specific language governing permissions and
  26:./Libraries/CMSIS/DSP/Source/TransformFunctions/arm_dct4_q31.c ****  * limitations under the License.
  27:./Libraries/CMSIS/DSP/Source/TransformFunctions/arm_dct4_q31.c ****  */
  28:./Libraries/CMSIS/DSP/Source/TransformFunctions/arm_dct4_q31.c **** 
  29:./Libraries/CMSIS/DSP/Source/TransformFunctions/arm_dct4_q31.c **** #include "arm_math.h"
  30:./Libraries/CMSIS/DSP/Source/TransformFunctions/arm_dct4_q31.c **** 
  31:./Libraries/CMSIS/DSP/Source/TransformFunctions/arm_dct4_q31.c **** /**
ARM GAS  /tmp/ccISY4I9.s 			page 2


  32:./Libraries/CMSIS/DSP/Source/TransformFunctions/arm_dct4_q31.c ****   @addtogroup DCT4_IDCT4
  33:./Libraries/CMSIS/DSP/Source/TransformFunctions/arm_dct4_q31.c ****   @{
  34:./Libraries/CMSIS/DSP/Source/TransformFunctions/arm_dct4_q31.c ****  */
  35:./Libraries/CMSIS/DSP/Source/TransformFunctions/arm_dct4_q31.c **** 
  36:./Libraries/CMSIS/DSP/Source/TransformFunctions/arm_dct4_q31.c **** /**
  37:./Libraries/CMSIS/DSP/Source/TransformFunctions/arm_dct4_q31.c ****   @brief         Processing function for the Q31 DCT4/IDCT4.
  38:./Libraries/CMSIS/DSP/Source/TransformFunctions/arm_dct4_q31.c ****   @param[in]     S             points to an instance of the Q31 DCT4 structure.
  39:./Libraries/CMSIS/DSP/Source/TransformFunctions/arm_dct4_q31.c ****   @param[in]     pState        points to state buffer.
  40:./Libraries/CMSIS/DSP/Source/TransformFunctions/arm_dct4_q31.c ****   @param[in,out] pInlineBuffer points to the in-place input and output buffer.
  41:./Libraries/CMSIS/DSP/Source/TransformFunctions/arm_dct4_q31.c ****   @return        none
  42:./Libraries/CMSIS/DSP/Source/TransformFunctions/arm_dct4_q31.c **** 
  43:./Libraries/CMSIS/DSP/Source/TransformFunctions/arm_dct4_q31.c ****   @par           Input an output formats
  44:./Libraries/CMSIS/DSP/Source/TransformFunctions/arm_dct4_q31.c ****                    Input samples need to be downscaled by 1 bit to avoid saturations in the Q31 DCT
  45:./Libraries/CMSIS/DSP/Source/TransformFunctions/arm_dct4_q31.c ****                    as the conversion from DCT2 to DCT4 involves one subtraction.
  46:./Libraries/CMSIS/DSP/Source/TransformFunctions/arm_dct4_q31.c ****                    Internally inputs are downscaled in the RFFT process function to avoid overflows
  47:./Libraries/CMSIS/DSP/Source/TransformFunctions/arm_dct4_q31.c ****                    Number of bits downscaled, depends on the size of the transform.
  48:./Libraries/CMSIS/DSP/Source/TransformFunctions/arm_dct4_q31.c ****                    The input and output formats for different DCT sizes and number of bits to upsca
  49:./Libraries/CMSIS/DSP/Source/TransformFunctions/arm_dct4_q31.c ****                    mentioned in the table below:
  50:./Libraries/CMSIS/DSP/Source/TransformFunctions/arm_dct4_q31.c **** 
  51:./Libraries/CMSIS/DSP/Source/TransformFunctions/arm_dct4_q31.c ****                    \image html dct4FormatsQ31Table.gif
  52:./Libraries/CMSIS/DSP/Source/TransformFunctions/arm_dct4_q31.c ****  */
  53:./Libraries/CMSIS/DSP/Source/TransformFunctions/arm_dct4_q31.c **** 
  54:./Libraries/CMSIS/DSP/Source/TransformFunctions/arm_dct4_q31.c **** void arm_dct4_q31(
  55:./Libraries/CMSIS/DSP/Source/TransformFunctions/arm_dct4_q31.c ****   const arm_dct4_instance_q31 * S,
  56:./Libraries/CMSIS/DSP/Source/TransformFunctions/arm_dct4_q31.c ****         q31_t * pState,
  57:./Libraries/CMSIS/DSP/Source/TransformFunctions/arm_dct4_q31.c ****         q31_t * pInlineBuffer)
  58:./Libraries/CMSIS/DSP/Source/TransformFunctions/arm_dct4_q31.c **** {
  28              		.loc 1 58 1
  29              		.cfi_startproc
  30              		@ args = 0, pretend = 0, frame = 48
  31              		@ frame_needed = 1, uses_anonymous_args = 0
  32 0000 B0B5     		push	{r4, r5, r7, lr}
  33              	.LCFI0:
  34              		.cfi_def_cfa_offset 16
  35              		.cfi_offset 4, -16
  36              		.cfi_offset 5, -12
  37              		.cfi_offset 7, -8
  38              		.cfi_offset 14, -4
  39 0002 8CB0     		sub	sp, sp, #48
  40              	.LCFI1:
  41              		.cfi_def_cfa_offset 64
  42 0004 00AF     		add	r7, sp, #0
  43              	.LCFI2:
  44              		.cfi_def_cfa_register 7
  45 0006 F860     		str	r0, [r7, #12]
  46 0008 B960     		str	r1, [r7, #8]
  47 000a 7A60     		str	r2, [r7, #4]
  59:./Libraries/CMSIS/DSP/Source/TransformFunctions/arm_dct4_q31.c ****   const q31_t *weights = S->pTwiddle;                  /* Pointer to the Weights table */
  48              		.loc 1 59 16
  49 000c FB68     		ldr	r3, [r7, #12]
  50 000e 9B68     		ldr	r3, [r3, #8]
  51 0010 BB61     		str	r3, [r7, #24]
  60:./Libraries/CMSIS/DSP/Source/TransformFunctions/arm_dct4_q31.c ****   const q31_t *cosFact = S->pCosFactor;                /* Pointer to the cos factors table */
  52              		.loc 1 60 16
  53 0012 FB68     		ldr	r3, [r7, #12]
  54 0014 DB68     		ldr	r3, [r3, #12]
  55 0016 7B61     		str	r3, [r7, #20]
ARM GAS  /tmp/ccISY4I9.s 			page 3


  61:./Libraries/CMSIS/DSP/Source/TransformFunctions/arm_dct4_q31.c ****         q31_t *pS1, *pS2, *pbuff;                      /* Temporary pointers for input buffer and p
  62:./Libraries/CMSIS/DSP/Source/TransformFunctions/arm_dct4_q31.c ****         q31_t in;                                      /* Temporary variable */
  63:./Libraries/CMSIS/DSP/Source/TransformFunctions/arm_dct4_q31.c ****         uint32_t i;                                    /* Loop counter */
  64:./Libraries/CMSIS/DSP/Source/TransformFunctions/arm_dct4_q31.c **** 
  65:./Libraries/CMSIS/DSP/Source/TransformFunctions/arm_dct4_q31.c **** 
  66:./Libraries/CMSIS/DSP/Source/TransformFunctions/arm_dct4_q31.c ****   /* DCT4 computation involves DCT2 (which is calculated using RFFT)
  67:./Libraries/CMSIS/DSP/Source/TransformFunctions/arm_dct4_q31.c ****    * along with some pre-processing and post-processing.
  68:./Libraries/CMSIS/DSP/Source/TransformFunctions/arm_dct4_q31.c ****    * Computational procedure is explained as follows:
  69:./Libraries/CMSIS/DSP/Source/TransformFunctions/arm_dct4_q31.c ****    * (a) Pre-processing involves multiplying input with cos factor,
  70:./Libraries/CMSIS/DSP/Source/TransformFunctions/arm_dct4_q31.c ****    *     r(n) = 2 * u(n) * cos(pi*(2*n+1)/(4*n))
  71:./Libraries/CMSIS/DSP/Source/TransformFunctions/arm_dct4_q31.c ****    *              where,
  72:./Libraries/CMSIS/DSP/Source/TransformFunctions/arm_dct4_q31.c ****    *                 r(n) -- output of preprocessing
  73:./Libraries/CMSIS/DSP/Source/TransformFunctions/arm_dct4_q31.c ****    *                 u(n) -- input to preprocessing(actual Source buffer)
  74:./Libraries/CMSIS/DSP/Source/TransformFunctions/arm_dct4_q31.c ****    * (b) Calculation of DCT2 using FFT is divided into three steps:
  75:./Libraries/CMSIS/DSP/Source/TransformFunctions/arm_dct4_q31.c ****    *                  Step1: Re-ordering of even and odd elements of input.
  76:./Libraries/CMSIS/DSP/Source/TransformFunctions/arm_dct4_q31.c ****    *                  Step2: Calculating FFT of the re-ordered input.
  77:./Libraries/CMSIS/DSP/Source/TransformFunctions/arm_dct4_q31.c ****    *                  Step3: Taking the real part of the product of FFT output and weights.
  78:./Libraries/CMSIS/DSP/Source/TransformFunctions/arm_dct4_q31.c ****    * (c) Post-processing - DCT4 can be obtained from DCT2 output using the following equation:
  79:./Libraries/CMSIS/DSP/Source/TransformFunctions/arm_dct4_q31.c ****    *                   Y4(k) = Y2(k) - Y4(k-1) and Y4(-1) = Y4(0)
  80:./Libraries/CMSIS/DSP/Source/TransformFunctions/arm_dct4_q31.c ****    *                        where,
  81:./Libraries/CMSIS/DSP/Source/TransformFunctions/arm_dct4_q31.c ****    *                           Y4 -- DCT4 output,   Y2 -- DCT2 output
  82:./Libraries/CMSIS/DSP/Source/TransformFunctions/arm_dct4_q31.c ****    * (d) Multiplying the output with the normalizing factor sqrt(2/N).
  83:./Libraries/CMSIS/DSP/Source/TransformFunctions/arm_dct4_q31.c ****    */
  84:./Libraries/CMSIS/DSP/Source/TransformFunctions/arm_dct4_q31.c **** 
  85:./Libraries/CMSIS/DSP/Source/TransformFunctions/arm_dct4_q31.c ****   /*-------- Pre-processing ------------*/
  86:./Libraries/CMSIS/DSP/Source/TransformFunctions/arm_dct4_q31.c ****   /* Multiplying input with cos factor i.e. r(n) = 2 * x(n) * cos(pi*(2*n+1)/(4*n)) */
  87:./Libraries/CMSIS/DSP/Source/TransformFunctions/arm_dct4_q31.c ****   arm_mult_q31 (pInlineBuffer, cosFact, pInlineBuffer, S->N);
  56              		.loc 1 87 57
  57 0018 FB68     		ldr	r3, [r7, #12]
  58 001a 1B88     		ldrh	r3, [r3]
  59              		.loc 1 87 3
  60 001c 7A68     		ldr	r2, [r7, #4]
  61 001e 7969     		ldr	r1, [r7, #20]
  62 0020 7868     		ldr	r0, [r7, #4]
  63 0022 FFF7FEFF 		bl	arm_mult_q31
  88:./Libraries/CMSIS/DSP/Source/TransformFunctions/arm_dct4_q31.c ****   arm_shift_q31 (pInlineBuffer, 1, pInlineBuffer, S->N);
  64              		.loc 1 88 52
  65 0026 FB68     		ldr	r3, [r7, #12]
  66 0028 1B88     		ldrh	r3, [r3]
  67              		.loc 1 88 3
  68 002a 7A68     		ldr	r2, [r7, #4]
  69 002c 0121     		movs	r1, #1
  70 002e 7868     		ldr	r0, [r7, #4]
  71 0030 FFF7FEFF 		bl	arm_shift_q31
  89:./Libraries/CMSIS/DSP/Source/TransformFunctions/arm_dct4_q31.c **** 
  90:./Libraries/CMSIS/DSP/Source/TransformFunctions/arm_dct4_q31.c ****   /* ----------------------------------------------------------------
  91:./Libraries/CMSIS/DSP/Source/TransformFunctions/arm_dct4_q31.c ****    * Step1: Re-ordering of even and odd elements as
  92:./Libraries/CMSIS/DSP/Source/TransformFunctions/arm_dct4_q31.c ****    *             pState[i] =  pInlineBuffer[2*i] and
  93:./Libraries/CMSIS/DSP/Source/TransformFunctions/arm_dct4_q31.c ****    *             pState[N-i-1] = pInlineBuffer[2*i+1] where i = 0 to N/2
  94:./Libraries/CMSIS/DSP/Source/TransformFunctions/arm_dct4_q31.c ****    ---------------------------------------------------------------------*/
  95:./Libraries/CMSIS/DSP/Source/TransformFunctions/arm_dct4_q31.c **** 
  96:./Libraries/CMSIS/DSP/Source/TransformFunctions/arm_dct4_q31.c ****   /* pS1 initialized to pState */
  97:./Libraries/CMSIS/DSP/Source/TransformFunctions/arm_dct4_q31.c ****   pS1 = pState;
  72              		.loc 1 97 7
  73 0034 BB68     		ldr	r3, [r7, #8]
  74 0036 FB62     		str	r3, [r7, #44]
  98:./Libraries/CMSIS/DSP/Source/TransformFunctions/arm_dct4_q31.c **** 
ARM GAS  /tmp/ccISY4I9.s 			page 4


  99:./Libraries/CMSIS/DSP/Source/TransformFunctions/arm_dct4_q31.c ****   /* pS2 initialized to pState+N-1, so that it points to the end of the state buffer */
 100:./Libraries/CMSIS/DSP/Source/TransformFunctions/arm_dct4_q31.c ****   pS2 = pState + (S->N - 1U);
  75              		.loc 1 100 20
  76 0038 FB68     		ldr	r3, [r7, #12]
  77 003a 1B88     		ldrh	r3, [r3]
  78              		.loc 1 100 16
  79 003c 1A46     		mov	r2, r3
  80 003e 6FF04043 		mvn	r3, #-1073741824
  81 0042 1344     		add	r3, r3, r2
  82 0044 9B00     		lsls	r3, r3, #2
  83              		.loc 1 100 7
  84 0046 BA68     		ldr	r2, [r7, #8]
  85 0048 1344     		add	r3, r3, r2
  86 004a BB62     		str	r3, [r7, #40]
 101:./Libraries/CMSIS/DSP/Source/TransformFunctions/arm_dct4_q31.c **** 
 102:./Libraries/CMSIS/DSP/Source/TransformFunctions/arm_dct4_q31.c ****   /* pbuff initialized to input buffer */
 103:./Libraries/CMSIS/DSP/Source/TransformFunctions/arm_dct4_q31.c ****   pbuff = pInlineBuffer;
  87              		.loc 1 103 9
  88 004c 7B68     		ldr	r3, [r7, #4]
  89 004e 7B62     		str	r3, [r7, #36]
 104:./Libraries/CMSIS/DSP/Source/TransformFunctions/arm_dct4_q31.c **** 
 105:./Libraries/CMSIS/DSP/Source/TransformFunctions/arm_dct4_q31.c **** 
 106:./Libraries/CMSIS/DSP/Source/TransformFunctions/arm_dct4_q31.c **** #if defined (ARM_MATH_LOOPUNROLL)
 107:./Libraries/CMSIS/DSP/Source/TransformFunctions/arm_dct4_q31.c **** 
 108:./Libraries/CMSIS/DSP/Source/TransformFunctions/arm_dct4_q31.c ****   /* Initializing the loop counter to N/2 >> 2 for loop unrolling by 4 */
 109:./Libraries/CMSIS/DSP/Source/TransformFunctions/arm_dct4_q31.c ****   i = S->Nby2 >> 2U;
 110:./Libraries/CMSIS/DSP/Source/TransformFunctions/arm_dct4_q31.c **** 
 111:./Libraries/CMSIS/DSP/Source/TransformFunctions/arm_dct4_q31.c ****   /* First part of the processing with loop unrolling.  Compute 4 outputs at a time.
 112:./Libraries/CMSIS/DSP/Source/TransformFunctions/arm_dct4_q31.c ****    ** a second loop below computes the remaining 1 to 3 samples. */
 113:./Libraries/CMSIS/DSP/Source/TransformFunctions/arm_dct4_q31.c ****   do
 114:./Libraries/CMSIS/DSP/Source/TransformFunctions/arm_dct4_q31.c ****   {
 115:./Libraries/CMSIS/DSP/Source/TransformFunctions/arm_dct4_q31.c ****     /* Re-ordering of even and odd elements */
 116:./Libraries/CMSIS/DSP/Source/TransformFunctions/arm_dct4_q31.c ****     /* pState[i] =  pInlineBuffer[2*i] */
 117:./Libraries/CMSIS/DSP/Source/TransformFunctions/arm_dct4_q31.c ****     *pS1++ = *pbuff++;
 118:./Libraries/CMSIS/DSP/Source/TransformFunctions/arm_dct4_q31.c ****     /* pState[N-i-1] = pInlineBuffer[2*i+1] */
 119:./Libraries/CMSIS/DSP/Source/TransformFunctions/arm_dct4_q31.c ****     *pS2-- = *pbuff++;
 120:./Libraries/CMSIS/DSP/Source/TransformFunctions/arm_dct4_q31.c **** 
 121:./Libraries/CMSIS/DSP/Source/TransformFunctions/arm_dct4_q31.c ****     *pS1++ = *pbuff++;
 122:./Libraries/CMSIS/DSP/Source/TransformFunctions/arm_dct4_q31.c ****     *pS2-- = *pbuff++;
 123:./Libraries/CMSIS/DSP/Source/TransformFunctions/arm_dct4_q31.c **** 
 124:./Libraries/CMSIS/DSP/Source/TransformFunctions/arm_dct4_q31.c ****     *pS1++ = *pbuff++;
 125:./Libraries/CMSIS/DSP/Source/TransformFunctions/arm_dct4_q31.c ****     *pS2-- = *pbuff++;
 126:./Libraries/CMSIS/DSP/Source/TransformFunctions/arm_dct4_q31.c **** 
 127:./Libraries/CMSIS/DSP/Source/TransformFunctions/arm_dct4_q31.c ****     *pS1++ = *pbuff++;
 128:./Libraries/CMSIS/DSP/Source/TransformFunctions/arm_dct4_q31.c ****     *pS2-- = *pbuff++;
 129:./Libraries/CMSIS/DSP/Source/TransformFunctions/arm_dct4_q31.c **** 
 130:./Libraries/CMSIS/DSP/Source/TransformFunctions/arm_dct4_q31.c ****     /* Decrement loop counter */
 131:./Libraries/CMSIS/DSP/Source/TransformFunctions/arm_dct4_q31.c ****     i--;
 132:./Libraries/CMSIS/DSP/Source/TransformFunctions/arm_dct4_q31.c ****   } while (i > 0U);
 133:./Libraries/CMSIS/DSP/Source/TransformFunctions/arm_dct4_q31.c **** 
 134:./Libraries/CMSIS/DSP/Source/TransformFunctions/arm_dct4_q31.c ****   /* pbuff initialized to input buffer */
 135:./Libraries/CMSIS/DSP/Source/TransformFunctions/arm_dct4_q31.c ****   pbuff = pInlineBuffer;
 136:./Libraries/CMSIS/DSP/Source/TransformFunctions/arm_dct4_q31.c **** 
 137:./Libraries/CMSIS/DSP/Source/TransformFunctions/arm_dct4_q31.c ****   /* pS1 initialized to pState */
 138:./Libraries/CMSIS/DSP/Source/TransformFunctions/arm_dct4_q31.c ****   pS1 = pState;
 139:./Libraries/CMSIS/DSP/Source/TransformFunctions/arm_dct4_q31.c **** 
 140:./Libraries/CMSIS/DSP/Source/TransformFunctions/arm_dct4_q31.c ****   /* Initializing the loop counter to N/4 instead of N for loop unrolling */
ARM GAS  /tmp/ccISY4I9.s 			page 5


 141:./Libraries/CMSIS/DSP/Source/TransformFunctions/arm_dct4_q31.c ****   i = S->N >> 2U;
 142:./Libraries/CMSIS/DSP/Source/TransformFunctions/arm_dct4_q31.c **** 
 143:./Libraries/CMSIS/DSP/Source/TransformFunctions/arm_dct4_q31.c ****   /* Processing with loop unrolling 4 times as N is always multiple of 4.
 144:./Libraries/CMSIS/DSP/Source/TransformFunctions/arm_dct4_q31.c ****    * Compute 4 outputs at a time */
 145:./Libraries/CMSIS/DSP/Source/TransformFunctions/arm_dct4_q31.c ****   do
 146:./Libraries/CMSIS/DSP/Source/TransformFunctions/arm_dct4_q31.c ****   {
 147:./Libraries/CMSIS/DSP/Source/TransformFunctions/arm_dct4_q31.c ****     /* Writing the re-ordered output back to inplace input buffer */
 148:./Libraries/CMSIS/DSP/Source/TransformFunctions/arm_dct4_q31.c ****     *pbuff++ = *pS1++;
 149:./Libraries/CMSIS/DSP/Source/TransformFunctions/arm_dct4_q31.c ****     *pbuff++ = *pS1++;
 150:./Libraries/CMSIS/DSP/Source/TransformFunctions/arm_dct4_q31.c ****     *pbuff++ = *pS1++;
 151:./Libraries/CMSIS/DSP/Source/TransformFunctions/arm_dct4_q31.c ****     *pbuff++ = *pS1++;
 152:./Libraries/CMSIS/DSP/Source/TransformFunctions/arm_dct4_q31.c **** 
 153:./Libraries/CMSIS/DSP/Source/TransformFunctions/arm_dct4_q31.c ****     /* Decrement the loop counter */
 154:./Libraries/CMSIS/DSP/Source/TransformFunctions/arm_dct4_q31.c ****     i--;
 155:./Libraries/CMSIS/DSP/Source/TransformFunctions/arm_dct4_q31.c ****   } while (i > 0U);
 156:./Libraries/CMSIS/DSP/Source/TransformFunctions/arm_dct4_q31.c **** 
 157:./Libraries/CMSIS/DSP/Source/TransformFunctions/arm_dct4_q31.c **** 
 158:./Libraries/CMSIS/DSP/Source/TransformFunctions/arm_dct4_q31.c ****   /* ---------------------------------------------------------
 159:./Libraries/CMSIS/DSP/Source/TransformFunctions/arm_dct4_q31.c ****    *     Step2: Calculate RFFT for N-point input
 160:./Libraries/CMSIS/DSP/Source/TransformFunctions/arm_dct4_q31.c ****    * ---------------------------------------------------------- */
 161:./Libraries/CMSIS/DSP/Source/TransformFunctions/arm_dct4_q31.c ****   /* pInlineBuffer is real input of length N , pState is the complex output of length 2N */
 162:./Libraries/CMSIS/DSP/Source/TransformFunctions/arm_dct4_q31.c ****   arm_rfft_q31 (S->pRfft, pInlineBuffer, pState);
 163:./Libraries/CMSIS/DSP/Source/TransformFunctions/arm_dct4_q31.c **** 
 164:./Libraries/CMSIS/DSP/Source/TransformFunctions/arm_dct4_q31.c ****   /*----------------------------------------------------------------------
 165:./Libraries/CMSIS/DSP/Source/TransformFunctions/arm_dct4_q31.c ****    *  Step3: Multiply the FFT output with the weights.
 166:./Libraries/CMSIS/DSP/Source/TransformFunctions/arm_dct4_q31.c ****    *----------------------------------------------------------------------*/
 167:./Libraries/CMSIS/DSP/Source/TransformFunctions/arm_dct4_q31.c ****   arm_cmplx_mult_cmplx_q31 (pState, weights, pState, S->N);
 168:./Libraries/CMSIS/DSP/Source/TransformFunctions/arm_dct4_q31.c **** 
 169:./Libraries/CMSIS/DSP/Source/TransformFunctions/arm_dct4_q31.c ****   /* The output of complex multiplication is in 3.29 format.
 170:./Libraries/CMSIS/DSP/Source/TransformFunctions/arm_dct4_q31.c ****    * Hence changing the format of N (i.e. 2*N elements) complex numbers to 1.31 format by shifting 
 171:./Libraries/CMSIS/DSP/Source/TransformFunctions/arm_dct4_q31.c ****   arm_shift_q31 (pState, 2, pState, S->N * 2);
 172:./Libraries/CMSIS/DSP/Source/TransformFunctions/arm_dct4_q31.c **** 
 173:./Libraries/CMSIS/DSP/Source/TransformFunctions/arm_dct4_q31.c ****   /* ----------- Post-processing ---------- */
 174:./Libraries/CMSIS/DSP/Source/TransformFunctions/arm_dct4_q31.c ****   /* DCT-IV can be obtained from DCT-II by the equation,
 175:./Libraries/CMSIS/DSP/Source/TransformFunctions/arm_dct4_q31.c ****    *       Y4(k) = Y2(k) - Y4(k-1) and Y4(-1) = Y4(0)
 176:./Libraries/CMSIS/DSP/Source/TransformFunctions/arm_dct4_q31.c ****    *       Hence, Y4(0) = Y2(0)/2  */
 177:./Libraries/CMSIS/DSP/Source/TransformFunctions/arm_dct4_q31.c ****   /* Getting only real part from the output and Converting to DCT-IV */
 178:./Libraries/CMSIS/DSP/Source/TransformFunctions/arm_dct4_q31.c **** 
 179:./Libraries/CMSIS/DSP/Source/TransformFunctions/arm_dct4_q31.c ****   /* Initializing the loop counter to N >> 2 for loop unrolling by 4 */
 180:./Libraries/CMSIS/DSP/Source/TransformFunctions/arm_dct4_q31.c ****   i = (S->N - 1U) >> 2U;
 181:./Libraries/CMSIS/DSP/Source/TransformFunctions/arm_dct4_q31.c **** 
 182:./Libraries/CMSIS/DSP/Source/TransformFunctions/arm_dct4_q31.c ****   /* pbuff initialized to input buffer. */
 183:./Libraries/CMSIS/DSP/Source/TransformFunctions/arm_dct4_q31.c ****   pbuff = pInlineBuffer;
 184:./Libraries/CMSIS/DSP/Source/TransformFunctions/arm_dct4_q31.c **** 
 185:./Libraries/CMSIS/DSP/Source/TransformFunctions/arm_dct4_q31.c ****   /* pS1 initialized to pState */
 186:./Libraries/CMSIS/DSP/Source/TransformFunctions/arm_dct4_q31.c ****   pS1 = pState;
 187:./Libraries/CMSIS/DSP/Source/TransformFunctions/arm_dct4_q31.c **** 
 188:./Libraries/CMSIS/DSP/Source/TransformFunctions/arm_dct4_q31.c ****   /* Calculating Y4(0) from Y2(0) using Y4(0) = Y2(0)/2 */
 189:./Libraries/CMSIS/DSP/Source/TransformFunctions/arm_dct4_q31.c ****   in = *pS1++ >> 1U;
 190:./Libraries/CMSIS/DSP/Source/TransformFunctions/arm_dct4_q31.c ****   /* input buffer acts as inplace, so output values are stored in the input itself. */
 191:./Libraries/CMSIS/DSP/Source/TransformFunctions/arm_dct4_q31.c ****   *pbuff++ = in;
 192:./Libraries/CMSIS/DSP/Source/TransformFunctions/arm_dct4_q31.c **** 
 193:./Libraries/CMSIS/DSP/Source/TransformFunctions/arm_dct4_q31.c ****   /* pState pointer is incremented twice as the real values are located alternatively in the array 
 194:./Libraries/CMSIS/DSP/Source/TransformFunctions/arm_dct4_q31.c ****   pS1++;
 195:./Libraries/CMSIS/DSP/Source/TransformFunctions/arm_dct4_q31.c **** 
 196:./Libraries/CMSIS/DSP/Source/TransformFunctions/arm_dct4_q31.c ****   /* First part of the processing with loop unrolling.  Compute 4 outputs at a time.
 197:./Libraries/CMSIS/DSP/Source/TransformFunctions/arm_dct4_q31.c ****    ** a second loop below computes the remaining 1 to 3 samples. */
ARM GAS  /tmp/ccISY4I9.s 			page 6


 198:./Libraries/CMSIS/DSP/Source/TransformFunctions/arm_dct4_q31.c ****   do
 199:./Libraries/CMSIS/DSP/Source/TransformFunctions/arm_dct4_q31.c ****   {
 200:./Libraries/CMSIS/DSP/Source/TransformFunctions/arm_dct4_q31.c ****     /* Calculating Y4(1) to Y4(N-1) from Y2 using equation Y4(k) = Y2(k) - Y4(k-1) */
 201:./Libraries/CMSIS/DSP/Source/TransformFunctions/arm_dct4_q31.c ****     /* pState pointer (pS1) is incremented twice as the real values are located alternatively in th
 202:./Libraries/CMSIS/DSP/Source/TransformFunctions/arm_dct4_q31.c ****     in = *pS1++ - in;
 203:./Libraries/CMSIS/DSP/Source/TransformFunctions/arm_dct4_q31.c ****     *pbuff++ = in;
 204:./Libraries/CMSIS/DSP/Source/TransformFunctions/arm_dct4_q31.c ****     /* points to the next real value */
 205:./Libraries/CMSIS/DSP/Source/TransformFunctions/arm_dct4_q31.c ****     pS1++;
 206:./Libraries/CMSIS/DSP/Source/TransformFunctions/arm_dct4_q31.c **** 
 207:./Libraries/CMSIS/DSP/Source/TransformFunctions/arm_dct4_q31.c ****     in = *pS1++ - in;
 208:./Libraries/CMSIS/DSP/Source/TransformFunctions/arm_dct4_q31.c ****     *pbuff++ = in;
 209:./Libraries/CMSIS/DSP/Source/TransformFunctions/arm_dct4_q31.c ****     pS1++;
 210:./Libraries/CMSIS/DSP/Source/TransformFunctions/arm_dct4_q31.c **** 
 211:./Libraries/CMSIS/DSP/Source/TransformFunctions/arm_dct4_q31.c ****     in = *pS1++ - in;
 212:./Libraries/CMSIS/DSP/Source/TransformFunctions/arm_dct4_q31.c ****     *pbuff++ = in;
 213:./Libraries/CMSIS/DSP/Source/TransformFunctions/arm_dct4_q31.c ****     pS1++;
 214:./Libraries/CMSIS/DSP/Source/TransformFunctions/arm_dct4_q31.c **** 
 215:./Libraries/CMSIS/DSP/Source/TransformFunctions/arm_dct4_q31.c ****     in = *pS1++ - in;
 216:./Libraries/CMSIS/DSP/Source/TransformFunctions/arm_dct4_q31.c ****     *pbuff++ = in;
 217:./Libraries/CMSIS/DSP/Source/TransformFunctions/arm_dct4_q31.c ****     pS1++;
 218:./Libraries/CMSIS/DSP/Source/TransformFunctions/arm_dct4_q31.c **** 
 219:./Libraries/CMSIS/DSP/Source/TransformFunctions/arm_dct4_q31.c ****     /* Decrement the loop counter */
 220:./Libraries/CMSIS/DSP/Source/TransformFunctions/arm_dct4_q31.c ****     i--;
 221:./Libraries/CMSIS/DSP/Source/TransformFunctions/arm_dct4_q31.c ****   } while (i > 0U);
 222:./Libraries/CMSIS/DSP/Source/TransformFunctions/arm_dct4_q31.c **** 
 223:./Libraries/CMSIS/DSP/Source/TransformFunctions/arm_dct4_q31.c ****   /* If the blockSize is not a multiple of 4, compute any remaining output samples here.
 224:./Libraries/CMSIS/DSP/Source/TransformFunctions/arm_dct4_q31.c ****    ** No loop unrolling is used. */
 225:./Libraries/CMSIS/DSP/Source/TransformFunctions/arm_dct4_q31.c ****   i = (S->N - 1U) % 0x4U;
 226:./Libraries/CMSIS/DSP/Source/TransformFunctions/arm_dct4_q31.c **** 
 227:./Libraries/CMSIS/DSP/Source/TransformFunctions/arm_dct4_q31.c ****   while (i > 0U)
 228:./Libraries/CMSIS/DSP/Source/TransformFunctions/arm_dct4_q31.c ****   {
 229:./Libraries/CMSIS/DSP/Source/TransformFunctions/arm_dct4_q31.c ****     /* Calculating Y4(1) to Y4(N-1) from Y2 using equation Y4(k) = Y2(k) - Y4(k-1) */
 230:./Libraries/CMSIS/DSP/Source/TransformFunctions/arm_dct4_q31.c ****     /* pState pointer (pS1) is incremented twice as the real values are located alternatively in th
 231:./Libraries/CMSIS/DSP/Source/TransformFunctions/arm_dct4_q31.c ****     in = *pS1++ - in;
 232:./Libraries/CMSIS/DSP/Source/TransformFunctions/arm_dct4_q31.c ****     *pbuff++ = in;
 233:./Libraries/CMSIS/DSP/Source/TransformFunctions/arm_dct4_q31.c **** 
 234:./Libraries/CMSIS/DSP/Source/TransformFunctions/arm_dct4_q31.c ****     /* points to the next real value */
 235:./Libraries/CMSIS/DSP/Source/TransformFunctions/arm_dct4_q31.c ****     pS1++;
 236:./Libraries/CMSIS/DSP/Source/TransformFunctions/arm_dct4_q31.c **** 
 237:./Libraries/CMSIS/DSP/Source/TransformFunctions/arm_dct4_q31.c ****     /* Decrement loop counter */
 238:./Libraries/CMSIS/DSP/Source/TransformFunctions/arm_dct4_q31.c ****     i--;
 239:./Libraries/CMSIS/DSP/Source/TransformFunctions/arm_dct4_q31.c ****   }
 240:./Libraries/CMSIS/DSP/Source/TransformFunctions/arm_dct4_q31.c **** 
 241:./Libraries/CMSIS/DSP/Source/TransformFunctions/arm_dct4_q31.c **** 
 242:./Libraries/CMSIS/DSP/Source/TransformFunctions/arm_dct4_q31.c ****   /*------------ Normalizing the output by multiplying with the normalizing factor ----------*/
 243:./Libraries/CMSIS/DSP/Source/TransformFunctions/arm_dct4_q31.c **** 
 244:./Libraries/CMSIS/DSP/Source/TransformFunctions/arm_dct4_q31.c ****   /* Initializing the loop counter to N/4 instead of N for loop unrolling */
 245:./Libraries/CMSIS/DSP/Source/TransformFunctions/arm_dct4_q31.c ****   i = S->N >> 2U;
 246:./Libraries/CMSIS/DSP/Source/TransformFunctions/arm_dct4_q31.c **** 
 247:./Libraries/CMSIS/DSP/Source/TransformFunctions/arm_dct4_q31.c ****   /* pbuff initialized to the pInlineBuffer(now contains the output values) */
 248:./Libraries/CMSIS/DSP/Source/TransformFunctions/arm_dct4_q31.c ****   pbuff = pInlineBuffer;
 249:./Libraries/CMSIS/DSP/Source/TransformFunctions/arm_dct4_q31.c **** 
 250:./Libraries/CMSIS/DSP/Source/TransformFunctions/arm_dct4_q31.c ****   /* Processing with loop unrolling 4 times as N is always multiple of 4.  Compute 4 outputs at a t
 251:./Libraries/CMSIS/DSP/Source/TransformFunctions/arm_dct4_q31.c ****   do
 252:./Libraries/CMSIS/DSP/Source/TransformFunctions/arm_dct4_q31.c ****   {
 253:./Libraries/CMSIS/DSP/Source/TransformFunctions/arm_dct4_q31.c ****     /* Multiplying pInlineBuffer with the normalizing factor sqrt(2/N) */
 254:./Libraries/CMSIS/DSP/Source/TransformFunctions/arm_dct4_q31.c ****     in = *pbuff;
ARM GAS  /tmp/ccISY4I9.s 			page 7


 255:./Libraries/CMSIS/DSP/Source/TransformFunctions/arm_dct4_q31.c ****     *pbuff++ = ((q31_t) (((q63_t) in * S->normalize) >> 31));
 256:./Libraries/CMSIS/DSP/Source/TransformFunctions/arm_dct4_q31.c **** 
 257:./Libraries/CMSIS/DSP/Source/TransformFunctions/arm_dct4_q31.c ****     in = *pbuff;
 258:./Libraries/CMSIS/DSP/Source/TransformFunctions/arm_dct4_q31.c ****     *pbuff++ = ((q31_t) (((q63_t) in * S->normalize) >> 31));
 259:./Libraries/CMSIS/DSP/Source/TransformFunctions/arm_dct4_q31.c **** 
 260:./Libraries/CMSIS/DSP/Source/TransformFunctions/arm_dct4_q31.c ****     in = *pbuff;
 261:./Libraries/CMSIS/DSP/Source/TransformFunctions/arm_dct4_q31.c ****     *pbuff++ = ((q31_t) (((q63_t) in * S->normalize) >> 31));
 262:./Libraries/CMSIS/DSP/Source/TransformFunctions/arm_dct4_q31.c **** 
 263:./Libraries/CMSIS/DSP/Source/TransformFunctions/arm_dct4_q31.c ****     in = *pbuff;
 264:./Libraries/CMSIS/DSP/Source/TransformFunctions/arm_dct4_q31.c ****     *pbuff++ = ((q31_t) (((q63_t) in * S->normalize) >> 31));
 265:./Libraries/CMSIS/DSP/Source/TransformFunctions/arm_dct4_q31.c **** 
 266:./Libraries/CMSIS/DSP/Source/TransformFunctions/arm_dct4_q31.c ****     /* Decrement loop counter */
 267:./Libraries/CMSIS/DSP/Source/TransformFunctions/arm_dct4_q31.c ****     i--;
 268:./Libraries/CMSIS/DSP/Source/TransformFunctions/arm_dct4_q31.c ****   } while (i > 0U);
 269:./Libraries/CMSIS/DSP/Source/TransformFunctions/arm_dct4_q31.c **** 
 270:./Libraries/CMSIS/DSP/Source/TransformFunctions/arm_dct4_q31.c **** 
 271:./Libraries/CMSIS/DSP/Source/TransformFunctions/arm_dct4_q31.c **** #else
 272:./Libraries/CMSIS/DSP/Source/TransformFunctions/arm_dct4_q31.c **** 
 273:./Libraries/CMSIS/DSP/Source/TransformFunctions/arm_dct4_q31.c ****   /* Initializing the loop counter to N/2 */
 274:./Libraries/CMSIS/DSP/Source/TransformFunctions/arm_dct4_q31.c ****   i = S->Nby2;
  90              		.loc 1 274 8
  91 0050 FB68     		ldr	r3, [r7, #12]
  92 0052 5B88     		ldrh	r3, [r3, #2]
  93              		.loc 1 274 5
  94 0054 FB61     		str	r3, [r7, #28]
  95              	.L2:
 275:./Libraries/CMSIS/DSP/Source/TransformFunctions/arm_dct4_q31.c **** 
 276:./Libraries/CMSIS/DSP/Source/TransformFunctions/arm_dct4_q31.c ****   do
 277:./Libraries/CMSIS/DSP/Source/TransformFunctions/arm_dct4_q31.c ****   {
 278:./Libraries/CMSIS/DSP/Source/TransformFunctions/arm_dct4_q31.c ****     /* Re-ordering of even and odd elements */
 279:./Libraries/CMSIS/DSP/Source/TransformFunctions/arm_dct4_q31.c ****     /* pState[i] =  pInlineBuffer[2*i] */
 280:./Libraries/CMSIS/DSP/Source/TransformFunctions/arm_dct4_q31.c ****     *pS1++ = *pbuff++;
  96              		.loc 1 280 20 discriminator 1
  97 0056 7A6A     		ldr	r2, [r7, #36]
  98 0058 131D     		adds	r3, r2, #4
  99 005a 7B62     		str	r3, [r7, #36]
 100              		.loc 1 280 9 discriminator 1
 101 005c FB6A     		ldr	r3, [r7, #44]
 102 005e 191D     		adds	r1, r3, #4
 103 0060 F962     		str	r1, [r7, #44]
 104              		.loc 1 280 14 discriminator 1
 105 0062 1268     		ldr	r2, [r2]
 106              		.loc 1 280 12 discriminator 1
 107 0064 1A60     		str	r2, [r3]
 281:./Libraries/CMSIS/DSP/Source/TransformFunctions/arm_dct4_q31.c ****     /* pState[N-i-1] = pInlineBuffer[2*i+1] */
 282:./Libraries/CMSIS/DSP/Source/TransformFunctions/arm_dct4_q31.c ****     *pS2-- = *pbuff++;
 108              		.loc 1 282 20 discriminator 1
 109 0066 7A6A     		ldr	r2, [r7, #36]
 110 0068 131D     		adds	r3, r2, #4
 111 006a 7B62     		str	r3, [r7, #36]
 112              		.loc 1 282 9 discriminator 1
 113 006c BB6A     		ldr	r3, [r7, #40]
 114 006e 191F     		subs	r1, r3, #4
 115 0070 B962     		str	r1, [r7, #40]
 116              		.loc 1 282 14 discriminator 1
 117 0072 1268     		ldr	r2, [r2]
 118              		.loc 1 282 12 discriminator 1
ARM GAS  /tmp/ccISY4I9.s 			page 8


 119 0074 1A60     		str	r2, [r3]
 283:./Libraries/CMSIS/DSP/Source/TransformFunctions/arm_dct4_q31.c **** 
 284:./Libraries/CMSIS/DSP/Source/TransformFunctions/arm_dct4_q31.c ****     /* Decrement the loop counter */
 285:./Libraries/CMSIS/DSP/Source/TransformFunctions/arm_dct4_q31.c ****     i--;
 120              		.loc 1 285 6 discriminator 1
 121 0076 FB69     		ldr	r3, [r7, #28]
 122 0078 013B     		subs	r3, r3, #1
 123 007a FB61     		str	r3, [r7, #28]
 286:./Libraries/CMSIS/DSP/Source/TransformFunctions/arm_dct4_q31.c ****   } while (i > 0U);
 124              		.loc 1 286 3 discriminator 1
 125 007c FB69     		ldr	r3, [r7, #28]
 126 007e 002B     		cmp	r3, #0
 127 0080 E9D1     		bne	.L2
 287:./Libraries/CMSIS/DSP/Source/TransformFunctions/arm_dct4_q31.c **** 
 288:./Libraries/CMSIS/DSP/Source/TransformFunctions/arm_dct4_q31.c ****   /* pbuff initialized to input buffer */
 289:./Libraries/CMSIS/DSP/Source/TransformFunctions/arm_dct4_q31.c ****   pbuff = pInlineBuffer;
 128              		.loc 1 289 9
 129 0082 7B68     		ldr	r3, [r7, #4]
 130 0084 7B62     		str	r3, [r7, #36]
 290:./Libraries/CMSIS/DSP/Source/TransformFunctions/arm_dct4_q31.c **** 
 291:./Libraries/CMSIS/DSP/Source/TransformFunctions/arm_dct4_q31.c ****   /* pS1 initialized to pState */
 292:./Libraries/CMSIS/DSP/Source/TransformFunctions/arm_dct4_q31.c ****   pS1 = pState;
 131              		.loc 1 292 7
 132 0086 BB68     		ldr	r3, [r7, #8]
 133 0088 FB62     		str	r3, [r7, #44]
 293:./Libraries/CMSIS/DSP/Source/TransformFunctions/arm_dct4_q31.c **** 
 294:./Libraries/CMSIS/DSP/Source/TransformFunctions/arm_dct4_q31.c ****   /* Initializing the loop counter */
 295:./Libraries/CMSIS/DSP/Source/TransformFunctions/arm_dct4_q31.c ****   i = S->N;
 134              		.loc 1 295 8
 135 008a FB68     		ldr	r3, [r7, #12]
 136 008c 1B88     		ldrh	r3, [r3]
 137              		.loc 1 295 5
 138 008e FB61     		str	r3, [r7, #28]
 139              	.L3:
 296:./Libraries/CMSIS/DSP/Source/TransformFunctions/arm_dct4_q31.c **** 
 297:./Libraries/CMSIS/DSP/Source/TransformFunctions/arm_dct4_q31.c ****   do
 298:./Libraries/CMSIS/DSP/Source/TransformFunctions/arm_dct4_q31.c ****   {
 299:./Libraries/CMSIS/DSP/Source/TransformFunctions/arm_dct4_q31.c ****     /* Writing the re-ordered output back to inplace input buffer */
 300:./Libraries/CMSIS/DSP/Source/TransformFunctions/arm_dct4_q31.c ****     *pbuff++ = *pS1++;
 140              		.loc 1 300 20 discriminator 1
 141 0090 FA6A     		ldr	r2, [r7, #44]
 142 0092 131D     		adds	r3, r2, #4
 143 0094 FB62     		str	r3, [r7, #44]
 144              		.loc 1 300 11 discriminator 1
 145 0096 7B6A     		ldr	r3, [r7, #36]
 146 0098 191D     		adds	r1, r3, #4
 147 009a 7962     		str	r1, [r7, #36]
 148              		.loc 1 300 16 discriminator 1
 149 009c 1268     		ldr	r2, [r2]
 150              		.loc 1 300 14 discriminator 1
 151 009e 1A60     		str	r2, [r3]
 301:./Libraries/CMSIS/DSP/Source/TransformFunctions/arm_dct4_q31.c **** 
 302:./Libraries/CMSIS/DSP/Source/TransformFunctions/arm_dct4_q31.c ****     /* Decrement the loop counter */
 303:./Libraries/CMSIS/DSP/Source/TransformFunctions/arm_dct4_q31.c ****     i--;
 152              		.loc 1 303 6 discriminator 1
 153 00a0 FB69     		ldr	r3, [r7, #28]
 154 00a2 013B     		subs	r3, r3, #1
ARM GAS  /tmp/ccISY4I9.s 			page 9


 155 00a4 FB61     		str	r3, [r7, #28]
 304:./Libraries/CMSIS/DSP/Source/TransformFunctions/arm_dct4_q31.c ****   } while (i > 0U);
 156              		.loc 1 304 3 discriminator 1
 157 00a6 FB69     		ldr	r3, [r7, #28]
 158 00a8 002B     		cmp	r3, #0
 159 00aa F1D1     		bne	.L3
 305:./Libraries/CMSIS/DSP/Source/TransformFunctions/arm_dct4_q31.c **** 
 306:./Libraries/CMSIS/DSP/Source/TransformFunctions/arm_dct4_q31.c **** 
 307:./Libraries/CMSIS/DSP/Source/TransformFunctions/arm_dct4_q31.c ****   /* ---------------------------------------------------------
 308:./Libraries/CMSIS/DSP/Source/TransformFunctions/arm_dct4_q31.c ****    *     Step2: Calculate RFFT for N-point input
 309:./Libraries/CMSIS/DSP/Source/TransformFunctions/arm_dct4_q31.c ****    * ---------------------------------------------------------- */
 310:./Libraries/CMSIS/DSP/Source/TransformFunctions/arm_dct4_q31.c ****   /* pInlineBuffer is real input of length N , pState is the complex output of length 2N */
 311:./Libraries/CMSIS/DSP/Source/TransformFunctions/arm_dct4_q31.c ****   arm_rfft_q31 (S->pRfft, pInlineBuffer, pState);
 160              		.loc 1 311 18
 161 00ac FB68     		ldr	r3, [r7, #12]
 162 00ae 1B69     		ldr	r3, [r3, #16]
 163              		.loc 1 311 3
 164 00b0 BA68     		ldr	r2, [r7, #8]
 165 00b2 7968     		ldr	r1, [r7, #4]
 166 00b4 1846     		mov	r0, r3
 167 00b6 FFF7FEFF 		bl	arm_rfft_q31
 312:./Libraries/CMSIS/DSP/Source/TransformFunctions/arm_dct4_q31.c **** 
 313:./Libraries/CMSIS/DSP/Source/TransformFunctions/arm_dct4_q31.c ****   /*----------------------------------------------------------------------
 314:./Libraries/CMSIS/DSP/Source/TransformFunctions/arm_dct4_q31.c ****    *  Step3: Multiply the FFT output with the weights.
 315:./Libraries/CMSIS/DSP/Source/TransformFunctions/arm_dct4_q31.c ****    *----------------------------------------------------------------------*/
 316:./Libraries/CMSIS/DSP/Source/TransformFunctions/arm_dct4_q31.c ****   arm_cmplx_mult_cmplx_q31 (pState, weights, pState, S->N);
 168              		.loc 1 316 55
 169 00ba FB68     		ldr	r3, [r7, #12]
 170 00bc 1B88     		ldrh	r3, [r3]
 171              		.loc 1 316 3
 172 00be BA68     		ldr	r2, [r7, #8]
 173 00c0 B969     		ldr	r1, [r7, #24]
 174 00c2 B868     		ldr	r0, [r7, #8]
 175 00c4 FFF7FEFF 		bl	arm_cmplx_mult_cmplx_q31
 317:./Libraries/CMSIS/DSP/Source/TransformFunctions/arm_dct4_q31.c **** 
 318:./Libraries/CMSIS/DSP/Source/TransformFunctions/arm_dct4_q31.c ****   /* The output of complex multiplication is in 3.29 format.
 319:./Libraries/CMSIS/DSP/Source/TransformFunctions/arm_dct4_q31.c ****    * Hence changing the format of N (i.e. 2*N elements) complex numbers to 1.31 format by shifting 
 320:./Libraries/CMSIS/DSP/Source/TransformFunctions/arm_dct4_q31.c ****   arm_shift_q31(pState, 2, pState, S->N * 2);
 176              		.loc 1 320 37
 177 00c8 FB68     		ldr	r3, [r7, #12]
 178 00ca 1B88     		ldrh	r3, [r3]
 179              		.loc 1 320 41
 180 00cc 5B00     		lsls	r3, r3, #1
 181              		.loc 1 320 3
 182 00ce BA68     		ldr	r2, [r7, #8]
 183 00d0 0221     		movs	r1, #2
 184 00d2 B868     		ldr	r0, [r7, #8]
 185 00d4 FFF7FEFF 		bl	arm_shift_q31
 321:./Libraries/CMSIS/DSP/Source/TransformFunctions/arm_dct4_q31.c **** 
 322:./Libraries/CMSIS/DSP/Source/TransformFunctions/arm_dct4_q31.c ****   /* ----------- Post-processing ---------- */
 323:./Libraries/CMSIS/DSP/Source/TransformFunctions/arm_dct4_q31.c ****   /* DCT-IV can be obtained from DCT-II by the equation,
 324:./Libraries/CMSIS/DSP/Source/TransformFunctions/arm_dct4_q31.c ****    *       Y4(k) = Y2(k) - Y4(k-1) and Y4(-1) = Y4(0)
 325:./Libraries/CMSIS/DSP/Source/TransformFunctions/arm_dct4_q31.c ****    *       Hence, Y4(0) = Y2(0)/2  */
 326:./Libraries/CMSIS/DSP/Source/TransformFunctions/arm_dct4_q31.c ****   /* Getting only real part from the output and Converting to DCT-IV */
 327:./Libraries/CMSIS/DSP/Source/TransformFunctions/arm_dct4_q31.c **** 
 328:./Libraries/CMSIS/DSP/Source/TransformFunctions/arm_dct4_q31.c ****   /* pbuff initialized to input buffer. */
 329:./Libraries/CMSIS/DSP/Source/TransformFunctions/arm_dct4_q31.c ****   pbuff = pInlineBuffer;
ARM GAS  /tmp/ccISY4I9.s 			page 10


 186              		.loc 1 329 9
 187 00d8 7B68     		ldr	r3, [r7, #4]
 188 00da 7B62     		str	r3, [r7, #36]
 330:./Libraries/CMSIS/DSP/Source/TransformFunctions/arm_dct4_q31.c **** 
 331:./Libraries/CMSIS/DSP/Source/TransformFunctions/arm_dct4_q31.c ****   /* pS1 initialized to pState */
 332:./Libraries/CMSIS/DSP/Source/TransformFunctions/arm_dct4_q31.c ****   pS1 = pState;
 189              		.loc 1 332 7
 190 00dc BB68     		ldr	r3, [r7, #8]
 191 00de FB62     		str	r3, [r7, #44]
 333:./Libraries/CMSIS/DSP/Source/TransformFunctions/arm_dct4_q31.c **** 
 334:./Libraries/CMSIS/DSP/Source/TransformFunctions/arm_dct4_q31.c ****   /* Calculating Y4(0) from Y2(0) using Y4(0) = Y2(0)/2 */
 335:./Libraries/CMSIS/DSP/Source/TransformFunctions/arm_dct4_q31.c ****   in = *pS1++ >> 1U;
 192              		.loc 1 335 12
 193 00e0 FB6A     		ldr	r3, [r7, #44]
 194 00e2 1A1D     		adds	r2, r3, #4
 195 00e4 FA62     		str	r2, [r7, #44]
 196              		.loc 1 335 8
 197 00e6 1B68     		ldr	r3, [r3]
 198              		.loc 1 335 6
 199 00e8 5B10     		asrs	r3, r3, #1
 200 00ea 3B62     		str	r3, [r7, #32]
 336:./Libraries/CMSIS/DSP/Source/TransformFunctions/arm_dct4_q31.c ****   /* input buffer acts as inplace, so output values are stored in the input itself. */
 337:./Libraries/CMSIS/DSP/Source/TransformFunctions/arm_dct4_q31.c ****   *pbuff++ = in;
 201              		.loc 1 337 9
 202 00ec 7B6A     		ldr	r3, [r7, #36]
 203 00ee 1A1D     		adds	r2, r3, #4
 204 00f0 7A62     		str	r2, [r7, #36]
 205              		.loc 1 337 12
 206 00f2 3A6A     		ldr	r2, [r7, #32]
 207 00f4 1A60     		str	r2, [r3]
 338:./Libraries/CMSIS/DSP/Source/TransformFunctions/arm_dct4_q31.c **** 
 339:./Libraries/CMSIS/DSP/Source/TransformFunctions/arm_dct4_q31.c ****   /* pState pointer is incremented twice as the real values are located alternatively in the array 
 340:./Libraries/CMSIS/DSP/Source/TransformFunctions/arm_dct4_q31.c ****   pS1++;
 208              		.loc 1 340 6
 209 00f6 FB6A     		ldr	r3, [r7, #44]
 210 00f8 0433     		adds	r3, r3, #4
 211 00fa FB62     		str	r3, [r7, #44]
 341:./Libraries/CMSIS/DSP/Source/TransformFunctions/arm_dct4_q31.c **** 
 342:./Libraries/CMSIS/DSP/Source/TransformFunctions/arm_dct4_q31.c ****   /* Initializing the loop counter */
 343:./Libraries/CMSIS/DSP/Source/TransformFunctions/arm_dct4_q31.c ****   i = (S->N - 1U);
 212              		.loc 1 343 9
 213 00fc FB68     		ldr	r3, [r7, #12]
 214 00fe 1B88     		ldrh	r3, [r3]
 215              		.loc 1 343 5
 216 0100 013B     		subs	r3, r3, #1
 217 0102 FB61     		str	r3, [r7, #28]
 344:./Libraries/CMSIS/DSP/Source/TransformFunctions/arm_dct4_q31.c **** 
 345:./Libraries/CMSIS/DSP/Source/TransformFunctions/arm_dct4_q31.c ****   while (i > 0U)
 218              		.loc 1 345 9
 219 0104 11E0     		b	.L4
 220              	.L5:
 346:./Libraries/CMSIS/DSP/Source/TransformFunctions/arm_dct4_q31.c ****   {
 347:./Libraries/CMSIS/DSP/Source/TransformFunctions/arm_dct4_q31.c ****     /* Calculating Y4(1) to Y4(N-1) from Y2 using equation Y4(k) = Y2(k) - Y4(k-1) */
 348:./Libraries/CMSIS/DSP/Source/TransformFunctions/arm_dct4_q31.c ****     /* pState pointer (pS1) is incremented twice as the real values are located alternatively in th
 349:./Libraries/CMSIS/DSP/Source/TransformFunctions/arm_dct4_q31.c ****     in = *pS1++ - in;
 221              		.loc 1 349 14
 222 0106 FB6A     		ldr	r3, [r7, #44]
ARM GAS  /tmp/ccISY4I9.s 			page 11


 223 0108 1A1D     		adds	r2, r3, #4
 224 010a FA62     		str	r2, [r7, #44]
 225              		.loc 1 349 10
 226 010c 1A68     		ldr	r2, [r3]
 227              		.loc 1 349 8
 228 010e 3B6A     		ldr	r3, [r7, #32]
 229 0110 D31A     		subs	r3, r2, r3
 230 0112 3B62     		str	r3, [r7, #32]
 350:./Libraries/CMSIS/DSP/Source/TransformFunctions/arm_dct4_q31.c ****     *pbuff++ = in;
 231              		.loc 1 350 11
 232 0114 7B6A     		ldr	r3, [r7, #36]
 233 0116 1A1D     		adds	r2, r3, #4
 234 0118 7A62     		str	r2, [r7, #36]
 235              		.loc 1 350 14
 236 011a 3A6A     		ldr	r2, [r7, #32]
 237 011c 1A60     		str	r2, [r3]
 351:./Libraries/CMSIS/DSP/Source/TransformFunctions/arm_dct4_q31.c **** 
 352:./Libraries/CMSIS/DSP/Source/TransformFunctions/arm_dct4_q31.c ****     /* points to the next real value */
 353:./Libraries/CMSIS/DSP/Source/TransformFunctions/arm_dct4_q31.c ****     pS1++;
 238              		.loc 1 353 8
 239 011e FB6A     		ldr	r3, [r7, #44]
 240 0120 0433     		adds	r3, r3, #4
 241 0122 FB62     		str	r3, [r7, #44]
 354:./Libraries/CMSIS/DSP/Source/TransformFunctions/arm_dct4_q31.c **** 
 355:./Libraries/CMSIS/DSP/Source/TransformFunctions/arm_dct4_q31.c ****     /* Decrement loop counter */
 356:./Libraries/CMSIS/DSP/Source/TransformFunctions/arm_dct4_q31.c ****     i--;
 242              		.loc 1 356 6
 243 0124 FB69     		ldr	r3, [r7, #28]
 244 0126 013B     		subs	r3, r3, #1
 245 0128 FB61     		str	r3, [r7, #28]
 246              	.L4:
 345:./Libraries/CMSIS/DSP/Source/TransformFunctions/arm_dct4_q31.c ****   {
 247              		.loc 1 345 9
 248 012a FB69     		ldr	r3, [r7, #28]
 249 012c 002B     		cmp	r3, #0
 250 012e EAD1     		bne	.L5
 357:./Libraries/CMSIS/DSP/Source/TransformFunctions/arm_dct4_q31.c ****   }
 358:./Libraries/CMSIS/DSP/Source/TransformFunctions/arm_dct4_q31.c **** 
 359:./Libraries/CMSIS/DSP/Source/TransformFunctions/arm_dct4_q31.c ****   /*------------ Normalizing the output by multiplying with the normalizing factor ----------*/
 360:./Libraries/CMSIS/DSP/Source/TransformFunctions/arm_dct4_q31.c **** 
 361:./Libraries/CMSIS/DSP/Source/TransformFunctions/arm_dct4_q31.c ****   /* Initializing loop counter */
 362:./Libraries/CMSIS/DSP/Source/TransformFunctions/arm_dct4_q31.c ****   i = S->N;
 251              		.loc 1 362 8
 252 0130 FB68     		ldr	r3, [r7, #12]
 253 0132 1B88     		ldrh	r3, [r3]
 254              		.loc 1 362 5
 255 0134 FB61     		str	r3, [r7, #28]
 363:./Libraries/CMSIS/DSP/Source/TransformFunctions/arm_dct4_q31.c **** 
 364:./Libraries/CMSIS/DSP/Source/TransformFunctions/arm_dct4_q31.c ****   /* pbuff initialized to the pInlineBuffer (now contains the output values) */
 365:./Libraries/CMSIS/DSP/Source/TransformFunctions/arm_dct4_q31.c ****   pbuff = pInlineBuffer;
 256              		.loc 1 365 9
 257 0136 7B68     		ldr	r3, [r7, #4]
 258 0138 7B62     		str	r3, [r7, #36]
 259              	.L6:
 366:./Libraries/CMSIS/DSP/Source/TransformFunctions/arm_dct4_q31.c **** 
 367:./Libraries/CMSIS/DSP/Source/TransformFunctions/arm_dct4_q31.c ****   do
 368:./Libraries/CMSIS/DSP/Source/TransformFunctions/arm_dct4_q31.c ****   {
ARM GAS  /tmp/ccISY4I9.s 			page 12


 369:./Libraries/CMSIS/DSP/Source/TransformFunctions/arm_dct4_q31.c ****     /* Multiplying pInlineBuffer with the normalizing factor sqrt(2/N) */
 370:./Libraries/CMSIS/DSP/Source/TransformFunctions/arm_dct4_q31.c ****     in = *pbuff;
 260              		.loc 1 370 8 discriminator 1
 261 013a 7B6A     		ldr	r3, [r7, #36]
 262 013c 1B68     		ldr	r3, [r3]
 263 013e 3B62     		str	r3, [r7, #32]
 371:./Libraries/CMSIS/DSP/Source/TransformFunctions/arm_dct4_q31.c ****     *pbuff++ = ((q31_t) (((q63_t) in * S->normalize) >> 31));
 264              		.loc 1 371 27 discriminator 1
 265 0140 3B6A     		ldr	r3, [r7, #32]
 266 0142 1846     		mov	r0, r3
 267 0144 4FEAE071 		asr	r1, r0, #31
 268              		.loc 1 371 41 discriminator 1
 269 0148 FB68     		ldr	r3, [r7, #12]
 270 014a 5B68     		ldr	r3, [r3, #4]
 271 014c 1A46     		mov	r2, r3
 272 014e 4FEAE273 		asr	r3, r2, #31
 273              		.loc 1 371 38 discriminator 1
 274 0152 02FB01F5 		mul	r5, r2, r1
 275 0156 00FB03F4 		mul	r4, r0, r3
 276 015a 2C44     		add	r4, r4, r5
 277 015c A0FB0223 		umull	r2, r3, r0, r2
 278 0160 E118     		adds	r1, r4, r3
 279 0162 0B46     		mov	r3, r1
 280              		.loc 1 371 54 discriminator 1
 281 0164 4FF00000 		mov	r0, #0
 282 0168 4FF00001 		mov	r1, #0
 283 016c D00F     		lsrs	r0, r2, #31
 284 016e 40EA4300 		orr	r0, r0, r3, lsl #1
 285 0172 D917     		asrs	r1, r3, #31
 286              		.loc 1 371 11 discriminator 1
 287 0174 7B6A     		ldr	r3, [r7, #36]
 288 0176 1A1D     		adds	r2, r3, #4
 289 0178 7A62     		str	r2, [r7, #36]
 290              		.loc 1 371 17 discriminator 1
 291 017a 0246     		mov	r2, r0
 292              		.loc 1 371 14 discriminator 1
 293 017c 1A60     		str	r2, [r3]
 372:./Libraries/CMSIS/DSP/Source/TransformFunctions/arm_dct4_q31.c **** 
 373:./Libraries/CMSIS/DSP/Source/TransformFunctions/arm_dct4_q31.c ****     /* Decrement loop counter */
 374:./Libraries/CMSIS/DSP/Source/TransformFunctions/arm_dct4_q31.c ****     i--;
 294              		.loc 1 374 6 discriminator 1
 295 017e FB69     		ldr	r3, [r7, #28]
 296 0180 013B     		subs	r3, r3, #1
 297 0182 FB61     		str	r3, [r7, #28]
 375:./Libraries/CMSIS/DSP/Source/TransformFunctions/arm_dct4_q31.c ****   } while (i > 0U);
 298              		.loc 1 375 3 discriminator 1
 299 0184 FB69     		ldr	r3, [r7, #28]
 300 0186 002B     		cmp	r3, #0
 301 0188 D7D1     		bne	.L6
 376:./Libraries/CMSIS/DSP/Source/TransformFunctions/arm_dct4_q31.c **** 
 377:./Libraries/CMSIS/DSP/Source/TransformFunctions/arm_dct4_q31.c **** #endif /* #if defined (ARM_MATH_LOOPUNROLL) */
 378:./Libraries/CMSIS/DSP/Source/TransformFunctions/arm_dct4_q31.c **** 
 379:./Libraries/CMSIS/DSP/Source/TransformFunctions/arm_dct4_q31.c **** }
 302              		.loc 1 379 1
 303 018a 00BF     		nop
 304 018c 00BF     		nop
 305 018e 3037     		adds	r7, r7, #48
ARM GAS  /tmp/ccISY4I9.s 			page 13


 306              	.LCFI3:
 307              		.cfi_def_cfa_offset 16
 308 0190 BD46     		mov	sp, r7
 309              	.LCFI4:
 310              		.cfi_def_cfa_register 13
 311              		@ sp needed
 312 0192 B0BD     		pop	{r4, r5, r7, pc}
 313              		.cfi_endproc
 314              	.LFE145:
 316              		.text
 317              	.Letext0:
 318              		.file 2 "/usr/lib/gcc/arm-none-eabi/9.2.1/include/stdint.h"
 319              		.file 3 "/usr/lib/gcc/arm-none-eabi/9.2.1/include/stddef.h"
 320              		.file 4 "/usr/include/newlib/sys/_types.h"
 321              		.file 5 "/usr/include/newlib/sys/reent.h"
 322              		.file 6 "/usr/include/newlib/sys/lock.h"
 323              		.file 7 "/usr/include/newlib/math.h"
 324              		.file 8 "./Libraries/CMSIS/DSP/Include/arm_math.h"
ARM GAS  /tmp/ccISY4I9.s 			page 14

