ARM GAS  /tmp/ccl5RPyI.s 			page 1


   1              		.cpu cortex-m7
   2              		.eabi_attribute 28, 1
   3              		.eabi_attribute 20, 1
   4              		.eabi_attribute 21, 1
   5              		.eabi_attribute 23, 3
   6              		.eabi_attribute 24, 1
   7              		.eabi_attribute 25, 1
   8              		.eabi_attribute 26, 1
   9              		.eabi_attribute 30, 6
  10              		.eabi_attribute 34, 1
  11              		.eabi_attribute 18, 4
  12              		.file	"arm_correlate_fast_opt_q15.c"
  13              		.text
  14              	.Ltext0:
  15              		.cfi_sections	.debug_frame
  16              		.section	.text.arm_correlate_fast_opt_q15,"ax",%progbits
  17              		.align	1
  18              		.global	arm_correlate_fast_opt_q15
  19              		.arch armv7e-m
  20              		.syntax unified
  21              		.thumb
  22              		.thumb_func
  23              		.fpu fpv5-d16
  25              	arm_correlate_fast_opt_q15:
  26              	.LFB145:
  27              		.file 1 "./Libraries/CMSIS/DSP/Source/FilteringFunctions/arm_correlate_fast_opt_q15.c"
   1:./Libraries/CMSIS/DSP/Source/FilteringFunctions/arm_correlate_fast_opt_q15.c **** /* ----------------------------------------------------------------------
   2:./Libraries/CMSIS/DSP/Source/FilteringFunctions/arm_correlate_fast_opt_q15.c ****  * Project:      CMSIS DSP Library
   3:./Libraries/CMSIS/DSP/Source/FilteringFunctions/arm_correlate_fast_opt_q15.c ****  * Title:        arm_correlate_fast_opt_q15.c
   4:./Libraries/CMSIS/DSP/Source/FilteringFunctions/arm_correlate_fast_opt_q15.c ****  * Description:  Fast Q15 Correlation
   5:./Libraries/CMSIS/DSP/Source/FilteringFunctions/arm_correlate_fast_opt_q15.c ****  *
   6:./Libraries/CMSIS/DSP/Source/FilteringFunctions/arm_correlate_fast_opt_q15.c ****  * $Date:        18. March 2019
   7:./Libraries/CMSIS/DSP/Source/FilteringFunctions/arm_correlate_fast_opt_q15.c ****  * $Revision:    V1.6.0
   8:./Libraries/CMSIS/DSP/Source/FilteringFunctions/arm_correlate_fast_opt_q15.c ****  *
   9:./Libraries/CMSIS/DSP/Source/FilteringFunctions/arm_correlate_fast_opt_q15.c ****  * Target Processor: Cortex-M cores
  10:./Libraries/CMSIS/DSP/Source/FilteringFunctions/arm_correlate_fast_opt_q15.c ****  * -------------------------------------------------------------------- */
  11:./Libraries/CMSIS/DSP/Source/FilteringFunctions/arm_correlate_fast_opt_q15.c **** /*
  12:./Libraries/CMSIS/DSP/Source/FilteringFunctions/arm_correlate_fast_opt_q15.c ****  * Copyright (C) 2010-2019 ARM Limited or its affiliates. All rights reserved.
  13:./Libraries/CMSIS/DSP/Source/FilteringFunctions/arm_correlate_fast_opt_q15.c ****  *
  14:./Libraries/CMSIS/DSP/Source/FilteringFunctions/arm_correlate_fast_opt_q15.c ****  * SPDX-License-Identifier: Apache-2.0
  15:./Libraries/CMSIS/DSP/Source/FilteringFunctions/arm_correlate_fast_opt_q15.c ****  *
  16:./Libraries/CMSIS/DSP/Source/FilteringFunctions/arm_correlate_fast_opt_q15.c ****  * Licensed under the Apache License, Version 2.0 (the License); you may
  17:./Libraries/CMSIS/DSP/Source/FilteringFunctions/arm_correlate_fast_opt_q15.c ****  * not use this file except in compliance with the License.
  18:./Libraries/CMSIS/DSP/Source/FilteringFunctions/arm_correlate_fast_opt_q15.c ****  * You may obtain a copy of the License at
  19:./Libraries/CMSIS/DSP/Source/FilteringFunctions/arm_correlate_fast_opt_q15.c ****  *
  20:./Libraries/CMSIS/DSP/Source/FilteringFunctions/arm_correlate_fast_opt_q15.c ****  * www.apache.org/licenses/LICENSE-2.0
  21:./Libraries/CMSIS/DSP/Source/FilteringFunctions/arm_correlate_fast_opt_q15.c ****  *
  22:./Libraries/CMSIS/DSP/Source/FilteringFunctions/arm_correlate_fast_opt_q15.c ****  * Unless required by applicable law or agreed to in writing, software
  23:./Libraries/CMSIS/DSP/Source/FilteringFunctions/arm_correlate_fast_opt_q15.c ****  * distributed under the License is distributed on an AS IS BASIS, WITHOUT
  24:./Libraries/CMSIS/DSP/Source/FilteringFunctions/arm_correlate_fast_opt_q15.c ****  * WARRANTIES OR CONDITIONS OF ANY KIND, either express or implied.
  25:./Libraries/CMSIS/DSP/Source/FilteringFunctions/arm_correlate_fast_opt_q15.c ****  * See the License for the specific language governing permissions and
  26:./Libraries/CMSIS/DSP/Source/FilteringFunctions/arm_correlate_fast_opt_q15.c ****  * limitations under the License.
  27:./Libraries/CMSIS/DSP/Source/FilteringFunctions/arm_correlate_fast_opt_q15.c ****  */
  28:./Libraries/CMSIS/DSP/Source/FilteringFunctions/arm_correlate_fast_opt_q15.c **** 
  29:./Libraries/CMSIS/DSP/Source/FilteringFunctions/arm_correlate_fast_opt_q15.c **** #include "arm_math.h"
  30:./Libraries/CMSIS/DSP/Source/FilteringFunctions/arm_correlate_fast_opt_q15.c **** 
  31:./Libraries/CMSIS/DSP/Source/FilteringFunctions/arm_correlate_fast_opt_q15.c **** /**
ARM GAS  /tmp/ccl5RPyI.s 			page 2


  32:./Libraries/CMSIS/DSP/Source/FilteringFunctions/arm_correlate_fast_opt_q15.c ****   @ingroup groupFilters
  33:./Libraries/CMSIS/DSP/Source/FilteringFunctions/arm_correlate_fast_opt_q15.c ****  */
  34:./Libraries/CMSIS/DSP/Source/FilteringFunctions/arm_correlate_fast_opt_q15.c **** 
  35:./Libraries/CMSIS/DSP/Source/FilteringFunctions/arm_correlate_fast_opt_q15.c **** /**
  36:./Libraries/CMSIS/DSP/Source/FilteringFunctions/arm_correlate_fast_opt_q15.c ****   @addtogroup Corr
  37:./Libraries/CMSIS/DSP/Source/FilteringFunctions/arm_correlate_fast_opt_q15.c ****   @{
  38:./Libraries/CMSIS/DSP/Source/FilteringFunctions/arm_correlate_fast_opt_q15.c ****  */
  39:./Libraries/CMSIS/DSP/Source/FilteringFunctions/arm_correlate_fast_opt_q15.c **** 
  40:./Libraries/CMSIS/DSP/Source/FilteringFunctions/arm_correlate_fast_opt_q15.c **** /**
  41:./Libraries/CMSIS/DSP/Source/FilteringFunctions/arm_correlate_fast_opt_q15.c ****   @brief         Correlation of Q15 sequences (fast version).
  42:./Libraries/CMSIS/DSP/Source/FilteringFunctions/arm_correlate_fast_opt_q15.c ****   @param[in]     pSrcA      points to the first input sequence
  43:./Libraries/CMSIS/DSP/Source/FilteringFunctions/arm_correlate_fast_opt_q15.c ****   @param[in]     srcALen    length of the first input sequence
  44:./Libraries/CMSIS/DSP/Source/FilteringFunctions/arm_correlate_fast_opt_q15.c ****   @param[in]     pSrcB      points to the second input sequence
  45:./Libraries/CMSIS/DSP/Source/FilteringFunctions/arm_correlate_fast_opt_q15.c ****   @param[in]     srcBLen    length of the second input sequence.
  46:./Libraries/CMSIS/DSP/Source/FilteringFunctions/arm_correlate_fast_opt_q15.c ****   @param[out]    pDst       points to the location where the output result is written.  Length 2 * 
  47:./Libraries/CMSIS/DSP/Source/FilteringFunctions/arm_correlate_fast_opt_q15.c ****   @param[in]     pScratch   points to scratch buffer of size max(srcALen, srcBLen) + 2*min(srcALen,
  48:./Libraries/CMSIS/DSP/Source/FilteringFunctions/arm_correlate_fast_opt_q15.c ****   @return        none
  49:./Libraries/CMSIS/DSP/Source/FilteringFunctions/arm_correlate_fast_opt_q15.c **** 
  50:./Libraries/CMSIS/DSP/Source/FilteringFunctions/arm_correlate_fast_opt_q15.c ****   @par           Scaling and Overflow Behavior
  51:./Libraries/CMSIS/DSP/Source/FilteringFunctions/arm_correlate_fast_opt_q15.c ****                    This fast version uses a 32-bit accumulator with 2.30 format.
  52:./Libraries/CMSIS/DSP/Source/FilteringFunctions/arm_correlate_fast_opt_q15.c ****                    The accumulator maintains full precision of the intermediate multiplication resu
  53:./Libraries/CMSIS/DSP/Source/FilteringFunctions/arm_correlate_fast_opt_q15.c ****                    There is no saturation on intermediate additions.
  54:./Libraries/CMSIS/DSP/Source/FilteringFunctions/arm_correlate_fast_opt_q15.c ****                    Thus, if the accumulator overflows it wraps around and distorts the result.
  55:./Libraries/CMSIS/DSP/Source/FilteringFunctions/arm_correlate_fast_opt_q15.c ****                    The input signals should be scaled down to avoid intermediate overflows.
  56:./Libraries/CMSIS/DSP/Source/FilteringFunctions/arm_correlate_fast_opt_q15.c ****                    Scale down one of the inputs by 1/min(srcALen, srcBLen) to avoid overflow since 
  57:./Libraries/CMSIS/DSP/Source/FilteringFunctions/arm_correlate_fast_opt_q15.c ****                    maximum of min(srcALen, srcBLen) number of additions is carried internally.
  58:./Libraries/CMSIS/DSP/Source/FilteringFunctions/arm_correlate_fast_opt_q15.c ****                    The 2.30 accumulator is right shifted by 15 bits and then saturated to 1.15 form
  59:./Libraries/CMSIS/DSP/Source/FilteringFunctions/arm_correlate_fast_opt_q15.c **** 
  60:./Libraries/CMSIS/DSP/Source/FilteringFunctions/arm_correlate_fast_opt_q15.c ****   @remark
  61:./Libraries/CMSIS/DSP/Source/FilteringFunctions/arm_correlate_fast_opt_q15.c ****                    Refer to \ref arm_correlate_q15() for a slower implementation of this function w
  62:./Libraries/CMSIS/DSP/Source/FilteringFunctions/arm_correlate_fast_opt_q15.c ****  */
  63:./Libraries/CMSIS/DSP/Source/FilteringFunctions/arm_correlate_fast_opt_q15.c **** 
  64:./Libraries/CMSIS/DSP/Source/FilteringFunctions/arm_correlate_fast_opt_q15.c **** void arm_correlate_fast_opt_q15(
  65:./Libraries/CMSIS/DSP/Source/FilteringFunctions/arm_correlate_fast_opt_q15.c ****   const q15_t * pSrcA,
  66:./Libraries/CMSIS/DSP/Source/FilteringFunctions/arm_correlate_fast_opt_q15.c ****         uint32_t srcALen,
  67:./Libraries/CMSIS/DSP/Source/FilteringFunctions/arm_correlate_fast_opt_q15.c ****   const q15_t * pSrcB,
  68:./Libraries/CMSIS/DSP/Source/FilteringFunctions/arm_correlate_fast_opt_q15.c ****         uint32_t srcBLen,
  69:./Libraries/CMSIS/DSP/Source/FilteringFunctions/arm_correlate_fast_opt_q15.c ****         q15_t * pDst,
  70:./Libraries/CMSIS/DSP/Source/FilteringFunctions/arm_correlate_fast_opt_q15.c ****         q15_t * pScratch)
  71:./Libraries/CMSIS/DSP/Source/FilteringFunctions/arm_correlate_fast_opt_q15.c **** {
  28              		.loc 1 71 1
  29              		.cfi_startproc
  30              		@ args = 8, pretend = 0, frame = 72
  31              		@ frame_needed = 1, uses_anonymous_args = 0
  32 0000 80B5     		push	{r7, lr}
  33              	.LCFI0:
  34              		.cfi_def_cfa_offset 8
  35              		.cfi_offset 7, -8
  36              		.cfi_offset 14, -4
  37 0002 92B0     		sub	sp, sp, #72
  38              	.LCFI1:
  39              		.cfi_def_cfa_offset 80
  40 0004 00AF     		add	r7, sp, #0
  41              	.LCFI2:
  42              		.cfi_def_cfa_register 7
  43 0006 F860     		str	r0, [r7, #12]
  44 0008 B960     		str	r1, [r7, #8]
ARM GAS  /tmp/ccl5RPyI.s 			page 3


  45 000a 7A60     		str	r2, [r7, #4]
  46 000c 3B60     		str	r3, [r7]
  72:./Libraries/CMSIS/DSP/Source/FilteringFunctions/arm_correlate_fast_opt_q15.c ****   const q15_t *pIn1;                                   /* InputA pointer */
  73:./Libraries/CMSIS/DSP/Source/FilteringFunctions/arm_correlate_fast_opt_q15.c ****   const q15_t *pIn2;                                   /* InputB pointer */
  74:./Libraries/CMSIS/DSP/Source/FilteringFunctions/arm_correlate_fast_opt_q15.c ****         q31_t acc0;                                    /* Accumulators */
  75:./Libraries/CMSIS/DSP/Source/FilteringFunctions/arm_correlate_fast_opt_q15.c ****         q15_t *pOut = pDst;                            /* Output pointer */
  47              		.loc 1 75 16
  48 000e 3B6D     		ldr	r3, [r7, #80]
  49 0010 BB63     		str	r3, [r7, #56]
  76:./Libraries/CMSIS/DSP/Source/FilteringFunctions/arm_correlate_fast_opt_q15.c ****         q15_t *pScr1 = pScratch;                       /* Temporary pointer for scratch */
  50              		.loc 1 76 16
  51 0012 7B6D     		ldr	r3, [r7, #84]
  52 0014 7B63     		str	r3, [r7, #52]
  77:./Libraries/CMSIS/DSP/Source/FilteringFunctions/arm_correlate_fast_opt_q15.c ****   const q15_t *py;                                     /* Intermediate inputB pointer */
  78:./Libraries/CMSIS/DSP/Source/FilteringFunctions/arm_correlate_fast_opt_q15.c ****         uint32_t j, blkCnt, outBlockSize;              /* Loop counter */
  79:./Libraries/CMSIS/DSP/Source/FilteringFunctions/arm_correlate_fast_opt_q15.c ****         int32_t inc = 1;                               /* Destination address modifier */
  53              		.loc 1 79 17
  54 0016 0123     		movs	r3, #1
  55 0018 FB62     		str	r3, [r7, #44]
  80:./Libraries/CMSIS/DSP/Source/FilteringFunctions/arm_correlate_fast_opt_q15.c ****         uint32_t tapCnt;                               /* Loop count */
  81:./Libraries/CMSIS/DSP/Source/FilteringFunctions/arm_correlate_fast_opt_q15.c **** 
  82:./Libraries/CMSIS/DSP/Source/FilteringFunctions/arm_correlate_fast_opt_q15.c **** #if defined (ARM_MATH_LOOPUNROLL)
  83:./Libraries/CMSIS/DSP/Source/FilteringFunctions/arm_correlate_fast_opt_q15.c ****         q31_t acc1, acc2, acc3;                        /* Accumulators */
  84:./Libraries/CMSIS/DSP/Source/FilteringFunctions/arm_correlate_fast_opt_q15.c ****         q31_t x1, x2, x3;                              /* Temporary variables for holding input and
  85:./Libraries/CMSIS/DSP/Source/FilteringFunctions/arm_correlate_fast_opt_q15.c ****         q31_t y1, y2;                                  /* State variables */
  86:./Libraries/CMSIS/DSP/Source/FilteringFunctions/arm_correlate_fast_opt_q15.c **** #endif
  87:./Libraries/CMSIS/DSP/Source/FilteringFunctions/arm_correlate_fast_opt_q15.c **** 
  88:./Libraries/CMSIS/DSP/Source/FilteringFunctions/arm_correlate_fast_opt_q15.c ****   /* The algorithm implementation is based on the lengths of the inputs. */
  89:./Libraries/CMSIS/DSP/Source/FilteringFunctions/arm_correlate_fast_opt_q15.c ****   /* srcB is always made to slide across srcA. */
  90:./Libraries/CMSIS/DSP/Source/FilteringFunctions/arm_correlate_fast_opt_q15.c ****   /* So srcBLen is always considered as shorter or equal to srcALen */
  91:./Libraries/CMSIS/DSP/Source/FilteringFunctions/arm_correlate_fast_opt_q15.c ****   /* But CORR(x, y) is reverse of CORR(y, x) */
  92:./Libraries/CMSIS/DSP/Source/FilteringFunctions/arm_correlate_fast_opt_q15.c ****   /* So, when srcBLen > srcALen, output pointer is made to point to the end of the output buffer */
  93:./Libraries/CMSIS/DSP/Source/FilteringFunctions/arm_correlate_fast_opt_q15.c ****   /* and the destination pointer modifier, inc is set to -1 */
  94:./Libraries/CMSIS/DSP/Source/FilteringFunctions/arm_correlate_fast_opt_q15.c ****   /* If srcALen > srcBLen, zero pad has to be done to srcB to make the two inputs of same length */
  95:./Libraries/CMSIS/DSP/Source/FilteringFunctions/arm_correlate_fast_opt_q15.c ****   /* But to improve the performance,
  96:./Libraries/CMSIS/DSP/Source/FilteringFunctions/arm_correlate_fast_opt_q15.c ****    * we include zeroes in the output instead of zero padding either of the the inputs*/
  97:./Libraries/CMSIS/DSP/Source/FilteringFunctions/arm_correlate_fast_opt_q15.c ****   /* If srcALen > srcBLen,
  98:./Libraries/CMSIS/DSP/Source/FilteringFunctions/arm_correlate_fast_opt_q15.c ****    * (srcALen - srcBLen) zeroes has to included in the starting of the output buffer */
  99:./Libraries/CMSIS/DSP/Source/FilteringFunctions/arm_correlate_fast_opt_q15.c ****   /* If srcALen < srcBLen,
 100:./Libraries/CMSIS/DSP/Source/FilteringFunctions/arm_correlate_fast_opt_q15.c ****    * (srcALen - srcBLen) zeroes has to included in the ending of the output buffer */
 101:./Libraries/CMSIS/DSP/Source/FilteringFunctions/arm_correlate_fast_opt_q15.c ****   if (srcALen >= srcBLen)
  56              		.loc 1 101 6
  57 001a BA68     		ldr	r2, [r7, #8]
  58 001c 3B68     		ldr	r3, [r7]
  59 001e 9A42     		cmp	r2, r3
  60 0020 14D3     		bcc	.L2
 102:./Libraries/CMSIS/DSP/Source/FilteringFunctions/arm_correlate_fast_opt_q15.c ****   {
 103:./Libraries/CMSIS/DSP/Source/FilteringFunctions/arm_correlate_fast_opt_q15.c ****     /* Initialization of inputA pointer */
 104:./Libraries/CMSIS/DSP/Source/FilteringFunctions/arm_correlate_fast_opt_q15.c ****     pIn1 = pSrcA;
  61              		.loc 1 104 10
  62 0022 FB68     		ldr	r3, [r7, #12]
  63 0024 7B64     		str	r3, [r7, #68]
 105:./Libraries/CMSIS/DSP/Source/FilteringFunctions/arm_correlate_fast_opt_q15.c **** 
 106:./Libraries/CMSIS/DSP/Source/FilteringFunctions/arm_correlate_fast_opt_q15.c ****     /* Initialization of inputB pointer */
 107:./Libraries/CMSIS/DSP/Source/FilteringFunctions/arm_correlate_fast_opt_q15.c ****     pIn2 = pSrcB;
  64              		.loc 1 107 10
  65 0026 7B68     		ldr	r3, [r7, #4]
ARM GAS  /tmp/ccl5RPyI.s 			page 4


  66 0028 3B64     		str	r3, [r7, #64]
 108:./Libraries/CMSIS/DSP/Source/FilteringFunctions/arm_correlate_fast_opt_q15.c **** 
 109:./Libraries/CMSIS/DSP/Source/FilteringFunctions/arm_correlate_fast_opt_q15.c ****     /* Number of output samples is calculated */
 110:./Libraries/CMSIS/DSP/Source/FilteringFunctions/arm_correlate_fast_opt_q15.c ****     outBlockSize = (2U * srcALen) - 1U;
  67              		.loc 1 110 24
  68 002a BB68     		ldr	r3, [r7, #8]
  69 002c 5B00     		lsls	r3, r3, #1
  70              		.loc 1 110 18
  71 002e 013B     		subs	r3, r3, #1
  72 0030 3B62     		str	r3, [r7, #32]
 111:./Libraries/CMSIS/DSP/Source/FilteringFunctions/arm_correlate_fast_opt_q15.c **** 
 112:./Libraries/CMSIS/DSP/Source/FilteringFunctions/arm_correlate_fast_opt_q15.c ****     /* When srcALen > srcBLen, zero padding is done to srcB
 113:./Libraries/CMSIS/DSP/Source/FilteringFunctions/arm_correlate_fast_opt_q15.c ****      * to make their lengths equal.
 114:./Libraries/CMSIS/DSP/Source/FilteringFunctions/arm_correlate_fast_opt_q15.c ****      * Instead, (outBlockSize - (srcALen + srcBLen - 1))
 115:./Libraries/CMSIS/DSP/Source/FilteringFunctions/arm_correlate_fast_opt_q15.c ****      * number of output samples are made zero */
 116:./Libraries/CMSIS/DSP/Source/FilteringFunctions/arm_correlate_fast_opt_q15.c ****     j = outBlockSize - (srcALen + (srcBLen - 1U));
  73              		.loc 1 116 33
  74 0032 3A68     		ldr	r2, [r7]
  75 0034 BB68     		ldr	r3, [r7, #8]
  76 0036 1344     		add	r3, r3, r2
  77              		.loc 1 116 22
  78 0038 3A6A     		ldr	r2, [r7, #32]
  79 003a D31A     		subs	r3, r2, r3
  80              		.loc 1 116 7
  81 003c 0133     		adds	r3, r3, #1
  82 003e 7B62     		str	r3, [r7, #36]
 117:./Libraries/CMSIS/DSP/Source/FilteringFunctions/arm_correlate_fast_opt_q15.c **** 
 118:./Libraries/CMSIS/DSP/Source/FilteringFunctions/arm_correlate_fast_opt_q15.c ****     /* Updating the pointer position to non zero value */
 119:./Libraries/CMSIS/DSP/Source/FilteringFunctions/arm_correlate_fast_opt_q15.c ****     pOut += j;
  83              		.loc 1 119 10
  84 0040 7B6A     		ldr	r3, [r7, #36]
  85 0042 5B00     		lsls	r3, r3, #1
  86 0044 BA6B     		ldr	r2, [r7, #56]
  87 0046 1344     		add	r3, r3, r2
  88 0048 BB63     		str	r3, [r7, #56]
  89 004a 15E0     		b	.L3
  90              	.L2:
 120:./Libraries/CMSIS/DSP/Source/FilteringFunctions/arm_correlate_fast_opt_q15.c ****   }
 121:./Libraries/CMSIS/DSP/Source/FilteringFunctions/arm_correlate_fast_opt_q15.c ****   else
 122:./Libraries/CMSIS/DSP/Source/FilteringFunctions/arm_correlate_fast_opt_q15.c ****   {
 123:./Libraries/CMSIS/DSP/Source/FilteringFunctions/arm_correlate_fast_opt_q15.c ****     /* Initialization of inputA pointer */
 124:./Libraries/CMSIS/DSP/Source/FilteringFunctions/arm_correlate_fast_opt_q15.c ****     pIn1 = pSrcB;
  91              		.loc 1 124 10
  92 004c 7B68     		ldr	r3, [r7, #4]
  93 004e 7B64     		str	r3, [r7, #68]
 125:./Libraries/CMSIS/DSP/Source/FilteringFunctions/arm_correlate_fast_opt_q15.c **** 
 126:./Libraries/CMSIS/DSP/Source/FilteringFunctions/arm_correlate_fast_opt_q15.c ****     /* Initialization of inputB pointer */
 127:./Libraries/CMSIS/DSP/Source/FilteringFunctions/arm_correlate_fast_opt_q15.c ****     pIn2 = pSrcA;
  94              		.loc 1 127 10
  95 0050 FB68     		ldr	r3, [r7, #12]
  96 0052 3B64     		str	r3, [r7, #64]
 128:./Libraries/CMSIS/DSP/Source/FilteringFunctions/arm_correlate_fast_opt_q15.c **** 
 129:./Libraries/CMSIS/DSP/Source/FilteringFunctions/arm_correlate_fast_opt_q15.c ****     /* srcBLen is always considered as shorter or equal to srcALen */
 130:./Libraries/CMSIS/DSP/Source/FilteringFunctions/arm_correlate_fast_opt_q15.c ****     j = srcBLen;
  97              		.loc 1 130 7
  98 0054 3B68     		ldr	r3, [r7]
  99 0056 7B62     		str	r3, [r7, #36]
ARM GAS  /tmp/ccl5RPyI.s 			page 5


 131:./Libraries/CMSIS/DSP/Source/FilteringFunctions/arm_correlate_fast_opt_q15.c ****     srcBLen = srcALen;
 100              		.loc 1 131 13
 101 0058 BB68     		ldr	r3, [r7, #8]
 102 005a 3B60     		str	r3, [r7]
 132:./Libraries/CMSIS/DSP/Source/FilteringFunctions/arm_correlate_fast_opt_q15.c ****     srcALen = j;
 103              		.loc 1 132 13
 104 005c 7B6A     		ldr	r3, [r7, #36]
 105 005e BB60     		str	r3, [r7, #8]
 133:./Libraries/CMSIS/DSP/Source/FilteringFunctions/arm_correlate_fast_opt_q15.c **** 
 134:./Libraries/CMSIS/DSP/Source/FilteringFunctions/arm_correlate_fast_opt_q15.c ****     /* CORR(x, y) = Reverse order(CORR(y, x)) */
 135:./Libraries/CMSIS/DSP/Source/FilteringFunctions/arm_correlate_fast_opt_q15.c ****     /* Hence set the destination pointer to point to the last output sample */
 136:./Libraries/CMSIS/DSP/Source/FilteringFunctions/arm_correlate_fast_opt_q15.c ****     pOut = pDst + ((srcALen + srcBLen) - 2U);
 106              		.loc 1 136 29
 107 0060 BA68     		ldr	r2, [r7, #8]
 108 0062 3B68     		ldr	r3, [r7]
 109 0064 1A44     		add	r2, r2, r3
 110              		.loc 1 136 17
 111 0066 524B     		ldr	r3, .L10
 112 0068 1344     		add	r3, r3, r2
 113 006a 5B00     		lsls	r3, r3, #1
 114              		.loc 1 136 10
 115 006c 3A6D     		ldr	r2, [r7, #80]
 116 006e 1344     		add	r3, r3, r2
 117 0070 BB63     		str	r3, [r7, #56]
 137:./Libraries/CMSIS/DSP/Source/FilteringFunctions/arm_correlate_fast_opt_q15.c **** 
 138:./Libraries/CMSIS/DSP/Source/FilteringFunctions/arm_correlate_fast_opt_q15.c ****     /* Destination address modifier is set to -1 */
 139:./Libraries/CMSIS/DSP/Source/FilteringFunctions/arm_correlate_fast_opt_q15.c ****     inc = -1;
 118              		.loc 1 139 9
 119 0072 4FF0FF33 		mov	r3, #-1
 120 0076 FB62     		str	r3, [r7, #44]
 121              	.L3:
 140:./Libraries/CMSIS/DSP/Source/FilteringFunctions/arm_correlate_fast_opt_q15.c ****   }
 141:./Libraries/CMSIS/DSP/Source/FilteringFunctions/arm_correlate_fast_opt_q15.c **** 
 142:./Libraries/CMSIS/DSP/Source/FilteringFunctions/arm_correlate_fast_opt_q15.c ****   pScr1 = pScratch;
 122              		.loc 1 142 9
 123 0078 7B6D     		ldr	r3, [r7, #84]
 124 007a 7B63     		str	r3, [r7, #52]
 143:./Libraries/CMSIS/DSP/Source/FilteringFunctions/arm_correlate_fast_opt_q15.c **** 
 144:./Libraries/CMSIS/DSP/Source/FilteringFunctions/arm_correlate_fast_opt_q15.c ****   /* Fill (srcBLen - 1U) zeros in scratch buffer */
 145:./Libraries/CMSIS/DSP/Source/FilteringFunctions/arm_correlate_fast_opt_q15.c ****   arm_fill_q15(0, pScr1, (srcBLen - 1U));
 125              		.loc 1 145 3
 126 007c 3B68     		ldr	r3, [r7]
 127 007e 013B     		subs	r3, r3, #1
 128 0080 1A46     		mov	r2, r3
 129 0082 796B     		ldr	r1, [r7, #52]
 130 0084 0020     		movs	r0, #0
 131 0086 FFF7FEFF 		bl	arm_fill_q15
 146:./Libraries/CMSIS/DSP/Source/FilteringFunctions/arm_correlate_fast_opt_q15.c **** 
 147:./Libraries/CMSIS/DSP/Source/FilteringFunctions/arm_correlate_fast_opt_q15.c ****   /* Update temporary scratch pointer */
 148:./Libraries/CMSIS/DSP/Source/FilteringFunctions/arm_correlate_fast_opt_q15.c ****   pScr1 += (srcBLen - 1U);
 132              		.loc 1 148 9
 133 008a 3A68     		ldr	r2, [r7]
 134 008c 6FF00043 		mvn	r3, #-2147483648
 135 0090 1344     		add	r3, r3, r2
 136 0092 5B00     		lsls	r3, r3, #1
 137 0094 7A6B     		ldr	r2, [r7, #52]
 138 0096 1344     		add	r3, r3, r2
ARM GAS  /tmp/ccl5RPyI.s 			page 6


 139 0098 7B63     		str	r3, [r7, #52]
 149:./Libraries/CMSIS/DSP/Source/FilteringFunctions/arm_correlate_fast_opt_q15.c **** 
 150:./Libraries/CMSIS/DSP/Source/FilteringFunctions/arm_correlate_fast_opt_q15.c **** 
 151:./Libraries/CMSIS/DSP/Source/FilteringFunctions/arm_correlate_fast_opt_q15.c ****   /* Copy (srcALen) samples in scratch buffer */
 152:./Libraries/CMSIS/DSP/Source/FilteringFunctions/arm_correlate_fast_opt_q15.c ****   arm_copy_q15(pIn1, pScr1, srcALen);
 140              		.loc 1 152 3
 141 009a BA68     		ldr	r2, [r7, #8]
 142 009c 796B     		ldr	r1, [r7, #52]
 143 009e 786C     		ldr	r0, [r7, #68]
 144 00a0 FFF7FEFF 		bl	arm_copy_q15
 153:./Libraries/CMSIS/DSP/Source/FilteringFunctions/arm_correlate_fast_opt_q15.c **** 
 154:./Libraries/CMSIS/DSP/Source/FilteringFunctions/arm_correlate_fast_opt_q15.c ****   /* Update pointers */
 155:./Libraries/CMSIS/DSP/Source/FilteringFunctions/arm_correlate_fast_opt_q15.c ****   pScr1 += srcALen;
 145              		.loc 1 155 9
 146 00a4 BB68     		ldr	r3, [r7, #8]
 147 00a6 5B00     		lsls	r3, r3, #1
 148 00a8 7A6B     		ldr	r2, [r7, #52]
 149 00aa 1344     		add	r3, r3, r2
 150 00ac 7B63     		str	r3, [r7, #52]
 156:./Libraries/CMSIS/DSP/Source/FilteringFunctions/arm_correlate_fast_opt_q15.c **** 
 157:./Libraries/CMSIS/DSP/Source/FilteringFunctions/arm_correlate_fast_opt_q15.c **** 
 158:./Libraries/CMSIS/DSP/Source/FilteringFunctions/arm_correlate_fast_opt_q15.c ****   /* Fill (srcBLen - 1U) zeros at end of scratch buffer */
 159:./Libraries/CMSIS/DSP/Source/FilteringFunctions/arm_correlate_fast_opt_q15.c ****   arm_fill_q15(0, pScr1, (srcBLen - 1U));
 151              		.loc 1 159 3
 152 00ae 3B68     		ldr	r3, [r7]
 153 00b0 013B     		subs	r3, r3, #1
 154 00b2 1A46     		mov	r2, r3
 155 00b4 796B     		ldr	r1, [r7, #52]
 156 00b6 0020     		movs	r0, #0
 157 00b8 FFF7FEFF 		bl	arm_fill_q15
 160:./Libraries/CMSIS/DSP/Source/FilteringFunctions/arm_correlate_fast_opt_q15.c **** 
 161:./Libraries/CMSIS/DSP/Source/FilteringFunctions/arm_correlate_fast_opt_q15.c ****   /* Update pointer */
 162:./Libraries/CMSIS/DSP/Source/FilteringFunctions/arm_correlate_fast_opt_q15.c ****   pScr1 += (srcBLen - 1U);
 158              		.loc 1 162 9
 159 00bc 3A68     		ldr	r2, [r7]
 160 00be 6FF00043 		mvn	r3, #-2147483648
 161 00c2 1344     		add	r3, r3, r2
 162 00c4 5B00     		lsls	r3, r3, #1
 163 00c6 7A6B     		ldr	r2, [r7, #52]
 164 00c8 1344     		add	r3, r3, r2
 165 00ca 7B63     		str	r3, [r7, #52]
 163:./Libraries/CMSIS/DSP/Source/FilteringFunctions/arm_correlate_fast_opt_q15.c **** 
 164:./Libraries/CMSIS/DSP/Source/FilteringFunctions/arm_correlate_fast_opt_q15.c ****   /* Temporary pointer for scratch2 */
 165:./Libraries/CMSIS/DSP/Source/FilteringFunctions/arm_correlate_fast_opt_q15.c ****   py = pIn2;
 166              		.loc 1 165 6
 167 00cc 3B6C     		ldr	r3, [r7, #64]
 168 00ce FB61     		str	r3, [r7, #28]
 166:./Libraries/CMSIS/DSP/Source/FilteringFunctions/arm_correlate_fast_opt_q15.c **** 
 167:./Libraries/CMSIS/DSP/Source/FilteringFunctions/arm_correlate_fast_opt_q15.c **** 
 168:./Libraries/CMSIS/DSP/Source/FilteringFunctions/arm_correlate_fast_opt_q15.c ****   /* Actual correlation process starts here */
 169:./Libraries/CMSIS/DSP/Source/FilteringFunctions/arm_correlate_fast_opt_q15.c **** 
 170:./Libraries/CMSIS/DSP/Source/FilteringFunctions/arm_correlate_fast_opt_q15.c **** #if defined (ARM_MATH_LOOPUNROLL)
 171:./Libraries/CMSIS/DSP/Source/FilteringFunctions/arm_correlate_fast_opt_q15.c **** 
 172:./Libraries/CMSIS/DSP/Source/FilteringFunctions/arm_correlate_fast_opt_q15.c ****   /* Loop unrolling: Compute 4 outputs at a time */
 173:./Libraries/CMSIS/DSP/Source/FilteringFunctions/arm_correlate_fast_opt_q15.c ****   blkCnt = (srcALen + srcBLen - 1U) >> 2;
 174:./Libraries/CMSIS/DSP/Source/FilteringFunctions/arm_correlate_fast_opt_q15.c **** 
 175:./Libraries/CMSIS/DSP/Source/FilteringFunctions/arm_correlate_fast_opt_q15.c ****   while (blkCnt > 0)
ARM GAS  /tmp/ccl5RPyI.s 			page 7


 176:./Libraries/CMSIS/DSP/Source/FilteringFunctions/arm_correlate_fast_opt_q15.c ****   {
 177:./Libraries/CMSIS/DSP/Source/FilteringFunctions/arm_correlate_fast_opt_q15.c ****     /* Initialze temporary scratch pointer as scratch1 */
 178:./Libraries/CMSIS/DSP/Source/FilteringFunctions/arm_correlate_fast_opt_q15.c ****     pScr1 = pScratch;
 179:./Libraries/CMSIS/DSP/Source/FilteringFunctions/arm_correlate_fast_opt_q15.c **** 
 180:./Libraries/CMSIS/DSP/Source/FilteringFunctions/arm_correlate_fast_opt_q15.c ****     /* Clear Accumlators */
 181:./Libraries/CMSIS/DSP/Source/FilteringFunctions/arm_correlate_fast_opt_q15.c ****     acc0 = 0;
 182:./Libraries/CMSIS/DSP/Source/FilteringFunctions/arm_correlate_fast_opt_q15.c ****     acc1 = 0;
 183:./Libraries/CMSIS/DSP/Source/FilteringFunctions/arm_correlate_fast_opt_q15.c ****     acc2 = 0;
 184:./Libraries/CMSIS/DSP/Source/FilteringFunctions/arm_correlate_fast_opt_q15.c ****     acc3 = 0;
 185:./Libraries/CMSIS/DSP/Source/FilteringFunctions/arm_correlate_fast_opt_q15.c **** 
 186:./Libraries/CMSIS/DSP/Source/FilteringFunctions/arm_correlate_fast_opt_q15.c ****     /* Read two samples from scratch buffer */
 187:./Libraries/CMSIS/DSP/Source/FilteringFunctions/arm_correlate_fast_opt_q15.c ****     x1 = read_q15x2_ia (&pScr1);
 188:./Libraries/CMSIS/DSP/Source/FilteringFunctions/arm_correlate_fast_opt_q15.c **** 
 189:./Libraries/CMSIS/DSP/Source/FilteringFunctions/arm_correlate_fast_opt_q15.c ****     /* Read next two samples from scratch buffer */
 190:./Libraries/CMSIS/DSP/Source/FilteringFunctions/arm_correlate_fast_opt_q15.c ****     x2 = read_q15x2_ia (&pScr1);
 191:./Libraries/CMSIS/DSP/Source/FilteringFunctions/arm_correlate_fast_opt_q15.c **** 
 192:./Libraries/CMSIS/DSP/Source/FilteringFunctions/arm_correlate_fast_opt_q15.c ****     tapCnt = (srcBLen) >> 2U;
 193:./Libraries/CMSIS/DSP/Source/FilteringFunctions/arm_correlate_fast_opt_q15.c **** 
 194:./Libraries/CMSIS/DSP/Source/FilteringFunctions/arm_correlate_fast_opt_q15.c ****     while (tapCnt > 0U)
 195:./Libraries/CMSIS/DSP/Source/FilteringFunctions/arm_correlate_fast_opt_q15.c ****     {
 196:./Libraries/CMSIS/DSP/Source/FilteringFunctions/arm_correlate_fast_opt_q15.c ****       /* Read four samples from smaller buffer */
 197:./Libraries/CMSIS/DSP/Source/FilteringFunctions/arm_correlate_fast_opt_q15.c ****       y1 = read_q15x2_ia ((q15_t **) &pIn2);
 198:./Libraries/CMSIS/DSP/Source/FilteringFunctions/arm_correlate_fast_opt_q15.c ****       y2 = read_q15x2_ia ((q15_t **) &pIn2);
 199:./Libraries/CMSIS/DSP/Source/FilteringFunctions/arm_correlate_fast_opt_q15.c **** 
 200:./Libraries/CMSIS/DSP/Source/FilteringFunctions/arm_correlate_fast_opt_q15.c ****       /* multiply and accumlate */
 201:./Libraries/CMSIS/DSP/Source/FilteringFunctions/arm_correlate_fast_opt_q15.c ****       acc0 = __SMLAD(x1, y1, acc0);
 202:./Libraries/CMSIS/DSP/Source/FilteringFunctions/arm_correlate_fast_opt_q15.c ****       acc2 = __SMLAD(x2, y1, acc2);
 203:./Libraries/CMSIS/DSP/Source/FilteringFunctions/arm_correlate_fast_opt_q15.c **** 
 204:./Libraries/CMSIS/DSP/Source/FilteringFunctions/arm_correlate_fast_opt_q15.c ****       /* pack input data */
 205:./Libraries/CMSIS/DSP/Source/FilteringFunctions/arm_correlate_fast_opt_q15.c **** #ifndef ARM_MATH_BIG_ENDIAN
 206:./Libraries/CMSIS/DSP/Source/FilteringFunctions/arm_correlate_fast_opt_q15.c ****       x3 = __PKHBT(x2, x1, 0);
 207:./Libraries/CMSIS/DSP/Source/FilteringFunctions/arm_correlate_fast_opt_q15.c **** #else
 208:./Libraries/CMSIS/DSP/Source/FilteringFunctions/arm_correlate_fast_opt_q15.c ****       x3 = __PKHBT(x1, x2, 0);
 209:./Libraries/CMSIS/DSP/Source/FilteringFunctions/arm_correlate_fast_opt_q15.c **** #endif
 210:./Libraries/CMSIS/DSP/Source/FilteringFunctions/arm_correlate_fast_opt_q15.c **** 
 211:./Libraries/CMSIS/DSP/Source/FilteringFunctions/arm_correlate_fast_opt_q15.c ****       /* multiply and accumlate */
 212:./Libraries/CMSIS/DSP/Source/FilteringFunctions/arm_correlate_fast_opt_q15.c ****       acc1 = __SMLADX(x3, y1, acc1);
 213:./Libraries/CMSIS/DSP/Source/FilteringFunctions/arm_correlate_fast_opt_q15.c **** 
 214:./Libraries/CMSIS/DSP/Source/FilteringFunctions/arm_correlate_fast_opt_q15.c ****       /* Read next two samples from scratch buffer */
 215:./Libraries/CMSIS/DSP/Source/FilteringFunctions/arm_correlate_fast_opt_q15.c ****       x1 = read_q15x2_ia (&pScr1);
 216:./Libraries/CMSIS/DSP/Source/FilteringFunctions/arm_correlate_fast_opt_q15.c **** 
 217:./Libraries/CMSIS/DSP/Source/FilteringFunctions/arm_correlate_fast_opt_q15.c ****       /* multiply and accumlate */
 218:./Libraries/CMSIS/DSP/Source/FilteringFunctions/arm_correlate_fast_opt_q15.c ****       acc0 = __SMLAD(x2, y2, acc0);
 219:./Libraries/CMSIS/DSP/Source/FilteringFunctions/arm_correlate_fast_opt_q15.c ****       acc2 = __SMLAD(x1, y2, acc2);
 220:./Libraries/CMSIS/DSP/Source/FilteringFunctions/arm_correlate_fast_opt_q15.c **** 
 221:./Libraries/CMSIS/DSP/Source/FilteringFunctions/arm_correlate_fast_opt_q15.c ****       /* pack input data */
 222:./Libraries/CMSIS/DSP/Source/FilteringFunctions/arm_correlate_fast_opt_q15.c **** #ifndef ARM_MATH_BIG_ENDIAN
 223:./Libraries/CMSIS/DSP/Source/FilteringFunctions/arm_correlate_fast_opt_q15.c ****       x3 = __PKHBT(x1, x2, 0);
 224:./Libraries/CMSIS/DSP/Source/FilteringFunctions/arm_correlate_fast_opt_q15.c **** #else
 225:./Libraries/CMSIS/DSP/Source/FilteringFunctions/arm_correlate_fast_opt_q15.c ****       x3 = __PKHBT(x2, x1, 0);
 226:./Libraries/CMSIS/DSP/Source/FilteringFunctions/arm_correlate_fast_opt_q15.c **** #endif
 227:./Libraries/CMSIS/DSP/Source/FilteringFunctions/arm_correlate_fast_opt_q15.c **** 
 228:./Libraries/CMSIS/DSP/Source/FilteringFunctions/arm_correlate_fast_opt_q15.c ****       acc3 = __SMLADX(x3, y1, acc3);
 229:./Libraries/CMSIS/DSP/Source/FilteringFunctions/arm_correlate_fast_opt_q15.c ****       acc1 = __SMLADX(x3, y2, acc1);
 230:./Libraries/CMSIS/DSP/Source/FilteringFunctions/arm_correlate_fast_opt_q15.c **** 
 231:./Libraries/CMSIS/DSP/Source/FilteringFunctions/arm_correlate_fast_opt_q15.c ****       x2 = read_q15x2_ia (&pScr1);
 232:./Libraries/CMSIS/DSP/Source/FilteringFunctions/arm_correlate_fast_opt_q15.c **** 
ARM GAS  /tmp/ccl5RPyI.s 			page 8


 233:./Libraries/CMSIS/DSP/Source/FilteringFunctions/arm_correlate_fast_opt_q15.c **** #ifndef ARM_MATH_BIG_ENDIAN
 234:./Libraries/CMSIS/DSP/Source/FilteringFunctions/arm_correlate_fast_opt_q15.c ****       x3 = __PKHBT(x2, x1, 0);
 235:./Libraries/CMSIS/DSP/Source/FilteringFunctions/arm_correlate_fast_opt_q15.c **** #else
 236:./Libraries/CMSIS/DSP/Source/FilteringFunctions/arm_correlate_fast_opt_q15.c ****       x3 = __PKHBT(x1, x2, 0);
 237:./Libraries/CMSIS/DSP/Source/FilteringFunctions/arm_correlate_fast_opt_q15.c **** #endif
 238:./Libraries/CMSIS/DSP/Source/FilteringFunctions/arm_correlate_fast_opt_q15.c **** 
 239:./Libraries/CMSIS/DSP/Source/FilteringFunctions/arm_correlate_fast_opt_q15.c ****       acc3 = __SMLADX(x3, y2, acc3);
 240:./Libraries/CMSIS/DSP/Source/FilteringFunctions/arm_correlate_fast_opt_q15.c **** 
 241:./Libraries/CMSIS/DSP/Source/FilteringFunctions/arm_correlate_fast_opt_q15.c ****       /* Decrement loop counter */
 242:./Libraries/CMSIS/DSP/Source/FilteringFunctions/arm_correlate_fast_opt_q15.c ****       tapCnt--;
 243:./Libraries/CMSIS/DSP/Source/FilteringFunctions/arm_correlate_fast_opt_q15.c ****     }
 244:./Libraries/CMSIS/DSP/Source/FilteringFunctions/arm_correlate_fast_opt_q15.c **** 
 245:./Libraries/CMSIS/DSP/Source/FilteringFunctions/arm_correlate_fast_opt_q15.c ****     /* Update scratch pointer for remaining samples of smaller length sequence */
 246:./Libraries/CMSIS/DSP/Source/FilteringFunctions/arm_correlate_fast_opt_q15.c ****     pScr1 -= 4U;
 247:./Libraries/CMSIS/DSP/Source/FilteringFunctions/arm_correlate_fast_opt_q15.c **** 
 248:./Libraries/CMSIS/DSP/Source/FilteringFunctions/arm_correlate_fast_opt_q15.c ****     /* apply same above for remaining samples of smaller length sequence */
 249:./Libraries/CMSIS/DSP/Source/FilteringFunctions/arm_correlate_fast_opt_q15.c ****     tapCnt = (srcBLen) & 3U;
 250:./Libraries/CMSIS/DSP/Source/FilteringFunctions/arm_correlate_fast_opt_q15.c **** 
 251:./Libraries/CMSIS/DSP/Source/FilteringFunctions/arm_correlate_fast_opt_q15.c ****     while (tapCnt > 0U)
 252:./Libraries/CMSIS/DSP/Source/FilteringFunctions/arm_correlate_fast_opt_q15.c ****     {
 253:./Libraries/CMSIS/DSP/Source/FilteringFunctions/arm_correlate_fast_opt_q15.c ****       /* accumlate the results */
 254:./Libraries/CMSIS/DSP/Source/FilteringFunctions/arm_correlate_fast_opt_q15.c ****       acc0 += (*pScr1++ * *pIn2);
 255:./Libraries/CMSIS/DSP/Source/FilteringFunctions/arm_correlate_fast_opt_q15.c ****       acc1 += (*pScr1++ * *pIn2);
 256:./Libraries/CMSIS/DSP/Source/FilteringFunctions/arm_correlate_fast_opt_q15.c ****       acc2 += (*pScr1++ * *pIn2);
 257:./Libraries/CMSIS/DSP/Source/FilteringFunctions/arm_correlate_fast_opt_q15.c ****       acc3 += (*pScr1++ * *pIn2++);
 258:./Libraries/CMSIS/DSP/Source/FilteringFunctions/arm_correlate_fast_opt_q15.c **** 
 259:./Libraries/CMSIS/DSP/Source/FilteringFunctions/arm_correlate_fast_opt_q15.c ****       pScr1 -= 3U;
 260:./Libraries/CMSIS/DSP/Source/FilteringFunctions/arm_correlate_fast_opt_q15.c **** 
 261:./Libraries/CMSIS/DSP/Source/FilteringFunctions/arm_correlate_fast_opt_q15.c ****       /* Decrement loop counter */
 262:./Libraries/CMSIS/DSP/Source/FilteringFunctions/arm_correlate_fast_opt_q15.c ****       tapCnt--;
 263:./Libraries/CMSIS/DSP/Source/FilteringFunctions/arm_correlate_fast_opt_q15.c ****     }
 264:./Libraries/CMSIS/DSP/Source/FilteringFunctions/arm_correlate_fast_opt_q15.c **** 
 265:./Libraries/CMSIS/DSP/Source/FilteringFunctions/arm_correlate_fast_opt_q15.c ****     blkCnt--;
 266:./Libraries/CMSIS/DSP/Source/FilteringFunctions/arm_correlate_fast_opt_q15.c **** 
 267:./Libraries/CMSIS/DSP/Source/FilteringFunctions/arm_correlate_fast_opt_q15.c ****     /* Store the results in the accumulators in the destination buffer. */
 268:./Libraries/CMSIS/DSP/Source/FilteringFunctions/arm_correlate_fast_opt_q15.c ****     *pOut = (__SSAT(acc0 >> 15U, 16));
 269:./Libraries/CMSIS/DSP/Source/FilteringFunctions/arm_correlate_fast_opt_q15.c ****     pOut += inc;
 270:./Libraries/CMSIS/DSP/Source/FilteringFunctions/arm_correlate_fast_opt_q15.c ****     *pOut = (__SSAT(acc1 >> 15U, 16));
 271:./Libraries/CMSIS/DSP/Source/FilteringFunctions/arm_correlate_fast_opt_q15.c ****     pOut += inc;
 272:./Libraries/CMSIS/DSP/Source/FilteringFunctions/arm_correlate_fast_opt_q15.c ****     *pOut = (__SSAT(acc2 >> 15U, 16));
 273:./Libraries/CMSIS/DSP/Source/FilteringFunctions/arm_correlate_fast_opt_q15.c ****     pOut += inc;
 274:./Libraries/CMSIS/DSP/Source/FilteringFunctions/arm_correlate_fast_opt_q15.c ****     *pOut = (__SSAT(acc3 >> 15U, 16));
 275:./Libraries/CMSIS/DSP/Source/FilteringFunctions/arm_correlate_fast_opt_q15.c ****     pOut += inc;
 276:./Libraries/CMSIS/DSP/Source/FilteringFunctions/arm_correlate_fast_opt_q15.c **** 
 277:./Libraries/CMSIS/DSP/Source/FilteringFunctions/arm_correlate_fast_opt_q15.c ****     /* Initialization of inputB pointer */
 278:./Libraries/CMSIS/DSP/Source/FilteringFunctions/arm_correlate_fast_opt_q15.c ****     pIn2 = py;
 279:./Libraries/CMSIS/DSP/Source/FilteringFunctions/arm_correlate_fast_opt_q15.c **** 
 280:./Libraries/CMSIS/DSP/Source/FilteringFunctions/arm_correlate_fast_opt_q15.c ****     pScratch += 4U;
 281:./Libraries/CMSIS/DSP/Source/FilteringFunctions/arm_correlate_fast_opt_q15.c ****   }
 282:./Libraries/CMSIS/DSP/Source/FilteringFunctions/arm_correlate_fast_opt_q15.c **** 
 283:./Libraries/CMSIS/DSP/Source/FilteringFunctions/arm_correlate_fast_opt_q15.c ****   /* Loop unrolling: Compute remaining outputs */
 284:./Libraries/CMSIS/DSP/Source/FilteringFunctions/arm_correlate_fast_opt_q15.c ****   blkCnt = (srcALen + srcBLen - 1U) & 0x3;
 285:./Libraries/CMSIS/DSP/Source/FilteringFunctions/arm_correlate_fast_opt_q15.c **** 
 286:./Libraries/CMSIS/DSP/Source/FilteringFunctions/arm_correlate_fast_opt_q15.c **** #else
 287:./Libraries/CMSIS/DSP/Source/FilteringFunctions/arm_correlate_fast_opt_q15.c **** 
 288:./Libraries/CMSIS/DSP/Source/FilteringFunctions/arm_correlate_fast_opt_q15.c ****   /* Initialize blkCnt with number of samples */
 289:./Libraries/CMSIS/DSP/Source/FilteringFunctions/arm_correlate_fast_opt_q15.c ****   blkCnt = (srcALen + srcBLen - 1U);
ARM GAS  /tmp/ccl5RPyI.s 			page 9


 169              		.loc 1 289 21
 170 00d0 BA68     		ldr	r2, [r7, #8]
 171 00d2 3B68     		ldr	r3, [r7]
 172 00d4 1344     		add	r3, r3, r2
 173              		.loc 1 289 10
 174 00d6 013B     		subs	r3, r3, #1
 175 00d8 3B63     		str	r3, [r7, #48]
 290:./Libraries/CMSIS/DSP/Source/FilteringFunctions/arm_correlate_fast_opt_q15.c **** 
 291:./Libraries/CMSIS/DSP/Source/FilteringFunctions/arm_correlate_fast_opt_q15.c **** #endif /* #if defined (ARM_MATH_LOOPUNROLL) */
 292:./Libraries/CMSIS/DSP/Source/FilteringFunctions/arm_correlate_fast_opt_q15.c **** 
 293:./Libraries/CMSIS/DSP/Source/FilteringFunctions/arm_correlate_fast_opt_q15.c ****   /* Calculate correlation for remaining samples of Bigger length sequence */
 294:./Libraries/CMSIS/DSP/Source/FilteringFunctions/arm_correlate_fast_opt_q15.c ****   while (blkCnt > 0)
 176              		.loc 1 294 9
 177 00da 60E0     		b	.L4
 178              	.L9:
 295:./Libraries/CMSIS/DSP/Source/FilteringFunctions/arm_correlate_fast_opt_q15.c ****   {
 296:./Libraries/CMSIS/DSP/Source/FilteringFunctions/arm_correlate_fast_opt_q15.c ****     /* Initialze temporary scratch pointer as scratch1 */
 297:./Libraries/CMSIS/DSP/Source/FilteringFunctions/arm_correlate_fast_opt_q15.c ****     pScr1 = pScratch;
 179              		.loc 1 297 11
 180 00dc 7B6D     		ldr	r3, [r7, #84]
 181 00de 7B63     		str	r3, [r7, #52]
 298:./Libraries/CMSIS/DSP/Source/FilteringFunctions/arm_correlate_fast_opt_q15.c **** 
 299:./Libraries/CMSIS/DSP/Source/FilteringFunctions/arm_correlate_fast_opt_q15.c ****     /* Clear Accumlators */
 300:./Libraries/CMSIS/DSP/Source/FilteringFunctions/arm_correlate_fast_opt_q15.c ****     acc0 = 0;
 182              		.loc 1 300 10
 183 00e0 0023     		movs	r3, #0
 184 00e2 FB63     		str	r3, [r7, #60]
 301:./Libraries/CMSIS/DSP/Source/FilteringFunctions/arm_correlate_fast_opt_q15.c **** 
 302:./Libraries/CMSIS/DSP/Source/FilteringFunctions/arm_correlate_fast_opt_q15.c ****     tapCnt = (srcBLen) >> 1U;
 185              		.loc 1 302 12
 186 00e4 3B68     		ldr	r3, [r7]
 187 00e6 5B08     		lsrs	r3, r3, #1
 188 00e8 BB62     		str	r3, [r7, #40]
 303:./Libraries/CMSIS/DSP/Source/FilteringFunctions/arm_correlate_fast_opt_q15.c **** 
 304:./Libraries/CMSIS/DSP/Source/FilteringFunctions/arm_correlate_fast_opt_q15.c ****     while (tapCnt > 0U)
 189              		.loc 1 304 11
 190 00ea 22E0     		b	.L5
 191              	.L6:
 305:./Libraries/CMSIS/DSP/Source/FilteringFunctions/arm_correlate_fast_opt_q15.c ****     {
 306:./Libraries/CMSIS/DSP/Source/FilteringFunctions/arm_correlate_fast_opt_q15.c **** 
 307:./Libraries/CMSIS/DSP/Source/FilteringFunctions/arm_correlate_fast_opt_q15.c ****       /* Read next two samples from scratch buffer */
 308:./Libraries/CMSIS/DSP/Source/FilteringFunctions/arm_correlate_fast_opt_q15.c ****       acc0 += (*pScr1++ * *pIn2++);
 192              		.loc 1 308 22
 193 00ec 7B6B     		ldr	r3, [r7, #52]
 194 00ee 9A1C     		adds	r2, r3, #2
 195 00f0 7A63     		str	r2, [r7, #52]
 196              		.loc 1 308 16
 197 00f2 B3F90030 		ldrsh	r3, [r3]
 198 00f6 1946     		mov	r1, r3
 199              		.loc 1 308 32
 200 00f8 3B6C     		ldr	r3, [r7, #64]
 201 00fa 9A1C     		adds	r2, r3, #2
 202 00fc 3A64     		str	r2, [r7, #64]
 203              		.loc 1 308 27
 204 00fe B3F90030 		ldrsh	r3, [r3]
 205              		.loc 1 308 25
 206 0102 03FB01F3 		mul	r3, r3, r1
ARM GAS  /tmp/ccl5RPyI.s 			page 10


 207              		.loc 1 308 12
 208 0106 FA6B     		ldr	r2, [r7, #60]
 209 0108 1344     		add	r3, r3, r2
 210 010a FB63     		str	r3, [r7, #60]
 309:./Libraries/CMSIS/DSP/Source/FilteringFunctions/arm_correlate_fast_opt_q15.c ****       acc0 += (*pScr1++ * *pIn2++);
 211              		.loc 1 309 22
 212 010c 7B6B     		ldr	r3, [r7, #52]
 213 010e 9A1C     		adds	r2, r3, #2
 214 0110 7A63     		str	r2, [r7, #52]
 215              		.loc 1 309 16
 216 0112 B3F90030 		ldrsh	r3, [r3]
 217 0116 1946     		mov	r1, r3
 218              		.loc 1 309 32
 219 0118 3B6C     		ldr	r3, [r7, #64]
 220 011a 9A1C     		adds	r2, r3, #2
 221 011c 3A64     		str	r2, [r7, #64]
 222              		.loc 1 309 27
 223 011e B3F90030 		ldrsh	r3, [r3]
 224              		.loc 1 309 25
 225 0122 03FB01F3 		mul	r3, r3, r1
 226              		.loc 1 309 12
 227 0126 FA6B     		ldr	r2, [r7, #60]
 228 0128 1344     		add	r3, r3, r2
 229 012a FB63     		str	r3, [r7, #60]
 310:./Libraries/CMSIS/DSP/Source/FilteringFunctions/arm_correlate_fast_opt_q15.c **** 
 311:./Libraries/CMSIS/DSP/Source/FilteringFunctions/arm_correlate_fast_opt_q15.c ****       /* Decrement loop counter */
 312:./Libraries/CMSIS/DSP/Source/FilteringFunctions/arm_correlate_fast_opt_q15.c ****       tapCnt--;
 230              		.loc 1 312 13
 231 012c BB6A     		ldr	r3, [r7, #40]
 232 012e 013B     		subs	r3, r3, #1
 233 0130 BB62     		str	r3, [r7, #40]
 234              	.L5:
 304:./Libraries/CMSIS/DSP/Source/FilteringFunctions/arm_correlate_fast_opt_q15.c ****     {
 235              		.loc 1 304 11
 236 0132 BB6A     		ldr	r3, [r7, #40]
 237 0134 002B     		cmp	r3, #0
 238 0136 D9D1     		bne	.L6
 313:./Libraries/CMSIS/DSP/Source/FilteringFunctions/arm_correlate_fast_opt_q15.c ****     }
 314:./Libraries/CMSIS/DSP/Source/FilteringFunctions/arm_correlate_fast_opt_q15.c **** 
 315:./Libraries/CMSIS/DSP/Source/FilteringFunctions/arm_correlate_fast_opt_q15.c ****     tapCnt = (srcBLen) & 1U;
 239              		.loc 1 315 12
 240 0138 3B68     		ldr	r3, [r7]
 241 013a 03F00103 		and	r3, r3, #1
 242 013e BB62     		str	r3, [r7, #40]
 316:./Libraries/CMSIS/DSP/Source/FilteringFunctions/arm_correlate_fast_opt_q15.c **** 
 317:./Libraries/CMSIS/DSP/Source/FilteringFunctions/arm_correlate_fast_opt_q15.c ****     /* apply same above for remaining samples of smaller length sequence */
 318:./Libraries/CMSIS/DSP/Source/FilteringFunctions/arm_correlate_fast_opt_q15.c ****     while (tapCnt > 0U)
 243              		.loc 1 318 11
 244 0140 12E0     		b	.L7
 245              	.L8:
 319:./Libraries/CMSIS/DSP/Source/FilteringFunctions/arm_correlate_fast_opt_q15.c ****     {
 320:./Libraries/CMSIS/DSP/Source/FilteringFunctions/arm_correlate_fast_opt_q15.c **** 
 321:./Libraries/CMSIS/DSP/Source/FilteringFunctions/arm_correlate_fast_opt_q15.c ****       /* accumlate the results */
 322:./Libraries/CMSIS/DSP/Source/FilteringFunctions/arm_correlate_fast_opt_q15.c ****       acc0 += (*pScr1++ * *pIn2++);
 246              		.loc 1 322 22
 247 0142 7B6B     		ldr	r3, [r7, #52]
 248 0144 9A1C     		adds	r2, r3, #2
ARM GAS  /tmp/ccl5RPyI.s 			page 11


 249 0146 7A63     		str	r2, [r7, #52]
 250              		.loc 1 322 16
 251 0148 B3F90030 		ldrsh	r3, [r3]
 252 014c 1946     		mov	r1, r3
 253              		.loc 1 322 32
 254 014e 3B6C     		ldr	r3, [r7, #64]
 255 0150 9A1C     		adds	r2, r3, #2
 256 0152 3A64     		str	r2, [r7, #64]
 257              		.loc 1 322 27
 258 0154 B3F90030 		ldrsh	r3, [r3]
 259              		.loc 1 322 25
 260 0158 03FB01F3 		mul	r3, r3, r1
 261              		.loc 1 322 12
 262 015c FA6B     		ldr	r2, [r7, #60]
 263 015e 1344     		add	r3, r3, r2
 264 0160 FB63     		str	r3, [r7, #60]
 323:./Libraries/CMSIS/DSP/Source/FilteringFunctions/arm_correlate_fast_opt_q15.c **** 
 324:./Libraries/CMSIS/DSP/Source/FilteringFunctions/arm_correlate_fast_opt_q15.c ****       /* Decrement loop counter */
 325:./Libraries/CMSIS/DSP/Source/FilteringFunctions/arm_correlate_fast_opt_q15.c ****       tapCnt--;
 265              		.loc 1 325 13
 266 0162 BB6A     		ldr	r3, [r7, #40]
 267 0164 013B     		subs	r3, r3, #1
 268 0166 BB62     		str	r3, [r7, #40]
 269              	.L7:
 318:./Libraries/CMSIS/DSP/Source/FilteringFunctions/arm_correlate_fast_opt_q15.c ****     {
 270              		.loc 1 318 11
 271 0168 BB6A     		ldr	r3, [r7, #40]
 272 016a 002B     		cmp	r3, #0
 273 016c E9D1     		bne	.L8
 326:./Libraries/CMSIS/DSP/Source/FilteringFunctions/arm_correlate_fast_opt_q15.c ****     }
 327:./Libraries/CMSIS/DSP/Source/FilteringFunctions/arm_correlate_fast_opt_q15.c **** 
 328:./Libraries/CMSIS/DSP/Source/FilteringFunctions/arm_correlate_fast_opt_q15.c ****     blkCnt--;
 274              		.loc 1 328 11
 275 016e 3B6B     		ldr	r3, [r7, #48]
 276 0170 013B     		subs	r3, r3, #1
 277 0172 3B63     		str	r3, [r7, #48]
 278              	.LBB2:
 329:./Libraries/CMSIS/DSP/Source/FilteringFunctions/arm_correlate_fast_opt_q15.c **** 
 330:./Libraries/CMSIS/DSP/Source/FilteringFunctions/arm_correlate_fast_opt_q15.c ****     /* The result is in 2.30 format.  Convert to 1.15 with saturation.
 331:./Libraries/CMSIS/DSP/Source/FilteringFunctions/arm_correlate_fast_opt_q15.c ****      ** Then store the output in the destination buffer. */
 332:./Libraries/CMSIS/DSP/Source/FilteringFunctions/arm_correlate_fast_opt_q15.c ****     *pOut = (q15_t) (__SSAT((acc0 >> 15), 16));
 279              		.loc 1 332 22
 280 0174 FB6B     		ldr	r3, [r7, #60]
 281 0176 DB13     		asrs	r3, r3, #15
 282 0178 BB61     		str	r3, [r7, #24]
 283 017a BB69     		ldr	r3, [r7, #24]
 284              		.syntax unified
 285              	@ 332 "./Libraries/CMSIS/DSP/Source/FilteringFunctions/arm_correlate_fast_opt_q15.c" 1
 286 017c 03F30F03 		ssat r3, #16, r3
 287              	@ 0 "" 2
 288              		.thumb
 289              		.syntax unified
 290 0180 7B61     		str	r3, [r7, #20]
 291 0182 7B69     		ldr	r3, [r7, #20]
 292              	.LBE2:
 293              		.loc 1 332 13
 294 0184 1AB2     		sxth	r2, r3
ARM GAS  /tmp/ccl5RPyI.s 			page 12


 295              		.loc 1 332 11
 296 0186 BB6B     		ldr	r3, [r7, #56]
 297 0188 1A80     		strh	r2, [r3]	@ movhi
 333:./Libraries/CMSIS/DSP/Source/FilteringFunctions/arm_correlate_fast_opt_q15.c ****     pOut += inc;
 298              		.loc 1 333 10
 299 018a FB6A     		ldr	r3, [r7, #44]
 300 018c 5B00     		lsls	r3, r3, #1
 301 018e BA6B     		ldr	r2, [r7, #56]
 302 0190 1344     		add	r3, r3, r2
 303 0192 BB63     		str	r3, [r7, #56]
 334:./Libraries/CMSIS/DSP/Source/FilteringFunctions/arm_correlate_fast_opt_q15.c **** 
 335:./Libraries/CMSIS/DSP/Source/FilteringFunctions/arm_correlate_fast_opt_q15.c ****     /* Initialization of inputB pointer */
 336:./Libraries/CMSIS/DSP/Source/FilteringFunctions/arm_correlate_fast_opt_q15.c ****     pIn2 = py;
 304              		.loc 1 336 10
 305 0194 FB69     		ldr	r3, [r7, #28]
 306 0196 3B64     		str	r3, [r7, #64]
 337:./Libraries/CMSIS/DSP/Source/FilteringFunctions/arm_correlate_fast_opt_q15.c **** 
 338:./Libraries/CMSIS/DSP/Source/FilteringFunctions/arm_correlate_fast_opt_q15.c ****     pScratch += 1U;
 307              		.loc 1 338 14
 308 0198 7B6D     		ldr	r3, [r7, #84]
 309 019a 0233     		adds	r3, r3, #2
 310 019c 7B65     		str	r3, [r7, #84]
 311              	.L4:
 294:./Libraries/CMSIS/DSP/Source/FilteringFunctions/arm_correlate_fast_opt_q15.c ****   {
 312              		.loc 1 294 9
 313 019e 3B6B     		ldr	r3, [r7, #48]
 314 01a0 002B     		cmp	r3, #0
 315 01a2 9BD1     		bne	.L9
 339:./Libraries/CMSIS/DSP/Source/FilteringFunctions/arm_correlate_fast_opt_q15.c ****   }
 340:./Libraries/CMSIS/DSP/Source/FilteringFunctions/arm_correlate_fast_opt_q15.c **** 
 341:./Libraries/CMSIS/DSP/Source/FilteringFunctions/arm_correlate_fast_opt_q15.c **** }
 316              		.loc 1 341 1
 317 01a4 00BF     		nop
 318 01a6 00BF     		nop
 319 01a8 4837     		adds	r7, r7, #72
 320              	.LCFI3:
 321              		.cfi_def_cfa_offset 8
 322 01aa BD46     		mov	sp, r7
 323              	.LCFI4:
 324              		.cfi_def_cfa_register 13
 325              		@ sp needed
 326 01ac 80BD     		pop	{r7, pc}
 327              	.L11:
 328 01ae 00BF     		.align	2
 329              	.L10:
 330 01b0 FEFFFF7F 		.word	2147483646
 331              		.cfi_endproc
 332              	.LFE145:
 334              		.text
 335              	.Letext0:
 336              		.file 2 "/usr/lib/gcc/arm-none-eabi/9.2.1/include/stdint.h"
 337              		.file 3 "/usr/lib/gcc/arm-none-eabi/9.2.1/include/stddef.h"
 338              		.file 4 "/usr/include/newlib/sys/_types.h"
 339              		.file 5 "/usr/include/newlib/sys/reent.h"
 340              		.file 6 "/usr/include/newlib/sys/lock.h"
 341              		.file 7 "/usr/include/newlib/math.h"
 342              		.file 8 "./Libraries/CMSIS/DSP/Include/arm_math.h"
ARM GAS  /tmp/ccl5RPyI.s 			page 13


ARM GAS  /tmp/ccl5RPyI.s 			page 14

