ARM GAS  /tmp/cc0WtTjg.s 			page 1


   1              		.cpu cortex-m7
   2              		.eabi_attribute 28, 1
   3              		.eabi_attribute 20, 1
   4              		.eabi_attribute 21, 1
   5              		.eabi_attribute 23, 3
   6              		.eabi_attribute 24, 1
   7              		.eabi_attribute 25, 1
   8              		.eabi_attribute 26, 1
   9              		.eabi_attribute 30, 6
  10              		.eabi_attribute 34, 1
  11              		.eabi_attribute 18, 4
  12              		.file	"arm_cfft_q31.c"
  13              		.text
  14              	.Ltext0:
  15              		.cfi_sections	.debug_frame
  16              		.section	.text.arm_cfft_q31,"ax",%progbits
  17              		.align	1
  18              		.global	arm_cfft_q31
  19              		.arch armv7e-m
  20              		.syntax unified
  21              		.thumb
  22              		.thumb_func
  23              		.fpu fpv5-d16
  25              	arm_cfft_q31:
  26              	.LFB145:
  27              		.file 1 "./Libraries/CMSIS/DSP/Source/TransformFunctions/arm_cfft_q31.c"
   1:./Libraries/CMSIS/DSP/Source/TransformFunctions/arm_cfft_q31.c **** /* ----------------------------------------------------------------------
   2:./Libraries/CMSIS/DSP/Source/TransformFunctions/arm_cfft_q31.c ****  * Project:      CMSIS DSP Library
   3:./Libraries/CMSIS/DSP/Source/TransformFunctions/arm_cfft_q31.c ****  * Title:        arm_cfft_q31.c
   4:./Libraries/CMSIS/DSP/Source/TransformFunctions/arm_cfft_q31.c ****  * Description:  Combined Radix Decimation in Frequency CFFT fixed point processing function
   5:./Libraries/CMSIS/DSP/Source/TransformFunctions/arm_cfft_q31.c ****  *
   6:./Libraries/CMSIS/DSP/Source/TransformFunctions/arm_cfft_q31.c ****  * $Date:        18. March 2019
   7:./Libraries/CMSIS/DSP/Source/TransformFunctions/arm_cfft_q31.c ****  * $Revision:    V1.6.0
   8:./Libraries/CMSIS/DSP/Source/TransformFunctions/arm_cfft_q31.c ****  *
   9:./Libraries/CMSIS/DSP/Source/TransformFunctions/arm_cfft_q31.c ****  * Target Processor: Cortex-M cores
  10:./Libraries/CMSIS/DSP/Source/TransformFunctions/arm_cfft_q31.c ****  * -------------------------------------------------------------------- */
  11:./Libraries/CMSIS/DSP/Source/TransformFunctions/arm_cfft_q31.c **** /*
  12:./Libraries/CMSIS/DSP/Source/TransformFunctions/arm_cfft_q31.c ****  * Copyright (C) 2010-2019 ARM Limited or its affiliates. All rights reserved.
  13:./Libraries/CMSIS/DSP/Source/TransformFunctions/arm_cfft_q31.c ****  *
  14:./Libraries/CMSIS/DSP/Source/TransformFunctions/arm_cfft_q31.c ****  * SPDX-License-Identifier: Apache-2.0
  15:./Libraries/CMSIS/DSP/Source/TransformFunctions/arm_cfft_q31.c ****  *
  16:./Libraries/CMSIS/DSP/Source/TransformFunctions/arm_cfft_q31.c ****  * Licensed under the Apache License, Version 2.0 (the License); you may
  17:./Libraries/CMSIS/DSP/Source/TransformFunctions/arm_cfft_q31.c ****  * not use this file except in compliance with the License.
  18:./Libraries/CMSIS/DSP/Source/TransformFunctions/arm_cfft_q31.c ****  * You may obtain a copy of the License at
  19:./Libraries/CMSIS/DSP/Source/TransformFunctions/arm_cfft_q31.c ****  *
  20:./Libraries/CMSIS/DSP/Source/TransformFunctions/arm_cfft_q31.c ****  * www.apache.org/licenses/LICENSE-2.0
  21:./Libraries/CMSIS/DSP/Source/TransformFunctions/arm_cfft_q31.c ****  *
  22:./Libraries/CMSIS/DSP/Source/TransformFunctions/arm_cfft_q31.c ****  * Unless required by applicable law or agreed to in writing, software
  23:./Libraries/CMSIS/DSP/Source/TransformFunctions/arm_cfft_q31.c ****  * distributed under the License is distributed on an AS IS BASIS, WITHOUT
  24:./Libraries/CMSIS/DSP/Source/TransformFunctions/arm_cfft_q31.c ****  * WARRANTIES OR CONDITIONS OF ANY KIND, either express or implied.
  25:./Libraries/CMSIS/DSP/Source/TransformFunctions/arm_cfft_q31.c ****  * See the License for the specific language governing permissions and
  26:./Libraries/CMSIS/DSP/Source/TransformFunctions/arm_cfft_q31.c ****  * limitations under the License.
  27:./Libraries/CMSIS/DSP/Source/TransformFunctions/arm_cfft_q31.c ****  */
  28:./Libraries/CMSIS/DSP/Source/TransformFunctions/arm_cfft_q31.c **** 
  29:./Libraries/CMSIS/DSP/Source/TransformFunctions/arm_cfft_q31.c **** #include "arm_math.h"
  30:./Libraries/CMSIS/DSP/Source/TransformFunctions/arm_cfft_q31.c **** 
  31:./Libraries/CMSIS/DSP/Source/TransformFunctions/arm_cfft_q31.c **** extern void arm_radix4_butterfly_q31(
ARM GAS  /tmp/cc0WtTjg.s 			page 2


  32:./Libraries/CMSIS/DSP/Source/TransformFunctions/arm_cfft_q31.c ****         q31_t * pSrc,
  33:./Libraries/CMSIS/DSP/Source/TransformFunctions/arm_cfft_q31.c ****         uint32_t fftLen,
  34:./Libraries/CMSIS/DSP/Source/TransformFunctions/arm_cfft_q31.c ****   const q31_t * pCoef,
  35:./Libraries/CMSIS/DSP/Source/TransformFunctions/arm_cfft_q31.c ****         uint32_t twidCoefModifier);
  36:./Libraries/CMSIS/DSP/Source/TransformFunctions/arm_cfft_q31.c **** 
  37:./Libraries/CMSIS/DSP/Source/TransformFunctions/arm_cfft_q31.c **** extern void arm_radix4_butterfly_inverse_q31(
  38:./Libraries/CMSIS/DSP/Source/TransformFunctions/arm_cfft_q31.c ****         q31_t * pSrc,
  39:./Libraries/CMSIS/DSP/Source/TransformFunctions/arm_cfft_q31.c ****         uint32_t fftLen,
  40:./Libraries/CMSIS/DSP/Source/TransformFunctions/arm_cfft_q31.c ****   const q31_t * pCoef,
  41:./Libraries/CMSIS/DSP/Source/TransformFunctions/arm_cfft_q31.c ****         uint32_t twidCoefModifier);
  42:./Libraries/CMSIS/DSP/Source/TransformFunctions/arm_cfft_q31.c **** 
  43:./Libraries/CMSIS/DSP/Source/TransformFunctions/arm_cfft_q31.c **** extern void arm_bitreversal_32(
  44:./Libraries/CMSIS/DSP/Source/TransformFunctions/arm_cfft_q31.c ****         uint32_t * pSrc,
  45:./Libraries/CMSIS/DSP/Source/TransformFunctions/arm_cfft_q31.c ****   const uint16_t bitRevLen,
  46:./Libraries/CMSIS/DSP/Source/TransformFunctions/arm_cfft_q31.c ****   const uint16_t * pBitRevTable);
  47:./Libraries/CMSIS/DSP/Source/TransformFunctions/arm_cfft_q31.c **** 
  48:./Libraries/CMSIS/DSP/Source/TransformFunctions/arm_cfft_q31.c **** void arm_cfft_radix4by2_q31(
  49:./Libraries/CMSIS/DSP/Source/TransformFunctions/arm_cfft_q31.c ****         q31_t * pSrc,
  50:./Libraries/CMSIS/DSP/Source/TransformFunctions/arm_cfft_q31.c ****         uint32_t fftLen,
  51:./Libraries/CMSIS/DSP/Source/TransformFunctions/arm_cfft_q31.c ****   const q31_t * pCoef);
  52:./Libraries/CMSIS/DSP/Source/TransformFunctions/arm_cfft_q31.c **** 
  53:./Libraries/CMSIS/DSP/Source/TransformFunctions/arm_cfft_q31.c **** void arm_cfft_radix4by2_inverse_q31(
  54:./Libraries/CMSIS/DSP/Source/TransformFunctions/arm_cfft_q31.c ****         q31_t * pSrc,
  55:./Libraries/CMSIS/DSP/Source/TransformFunctions/arm_cfft_q31.c ****         uint32_t fftLen,
  56:./Libraries/CMSIS/DSP/Source/TransformFunctions/arm_cfft_q31.c ****   const q31_t * pCoef);
  57:./Libraries/CMSIS/DSP/Source/TransformFunctions/arm_cfft_q31.c **** 
  58:./Libraries/CMSIS/DSP/Source/TransformFunctions/arm_cfft_q31.c **** /**
  59:./Libraries/CMSIS/DSP/Source/TransformFunctions/arm_cfft_q31.c ****   @ingroup groupTransforms
  60:./Libraries/CMSIS/DSP/Source/TransformFunctions/arm_cfft_q31.c ****  */
  61:./Libraries/CMSIS/DSP/Source/TransformFunctions/arm_cfft_q31.c **** 
  62:./Libraries/CMSIS/DSP/Source/TransformFunctions/arm_cfft_q31.c **** /**
  63:./Libraries/CMSIS/DSP/Source/TransformFunctions/arm_cfft_q31.c ****   @addtogroup ComplexFFT
  64:./Libraries/CMSIS/DSP/Source/TransformFunctions/arm_cfft_q31.c ****   @{
  65:./Libraries/CMSIS/DSP/Source/TransformFunctions/arm_cfft_q31.c ****  */
  66:./Libraries/CMSIS/DSP/Source/TransformFunctions/arm_cfft_q31.c **** 
  67:./Libraries/CMSIS/DSP/Source/TransformFunctions/arm_cfft_q31.c **** /**
  68:./Libraries/CMSIS/DSP/Source/TransformFunctions/arm_cfft_q31.c ****   @brief         Processing function for the Q31 complex FFT.
  69:./Libraries/CMSIS/DSP/Source/TransformFunctions/arm_cfft_q31.c ****   @param[in]     S               points to an instance of the fixed-point CFFT structure
  70:./Libraries/CMSIS/DSP/Source/TransformFunctions/arm_cfft_q31.c ****   @param[in,out] p1              points to the complex data buffer of size <code>2*fftLen</code>. P
  71:./Libraries/CMSIS/DSP/Source/TransformFunctions/arm_cfft_q31.c ****   @param[in]     ifftFlag       flag that selects transform direction
  72:./Libraries/CMSIS/DSP/Source/TransformFunctions/arm_cfft_q31.c ****                    - value = 0: forward transform
  73:./Libraries/CMSIS/DSP/Source/TransformFunctions/arm_cfft_q31.c ****                    - value = 1: inverse transform
  74:./Libraries/CMSIS/DSP/Source/TransformFunctions/arm_cfft_q31.c ****   @param[in]     bitReverseFlag flag that enables / disables bit reversal of output
  75:./Libraries/CMSIS/DSP/Source/TransformFunctions/arm_cfft_q31.c ****                    - value = 0: disables bit reversal of output
  76:./Libraries/CMSIS/DSP/Source/TransformFunctions/arm_cfft_q31.c ****                    - value = 1: enables bit reversal of output
  77:./Libraries/CMSIS/DSP/Source/TransformFunctions/arm_cfft_q31.c ****   @return        none
  78:./Libraries/CMSIS/DSP/Source/TransformFunctions/arm_cfft_q31.c ****  */
  79:./Libraries/CMSIS/DSP/Source/TransformFunctions/arm_cfft_q31.c **** 
  80:./Libraries/CMSIS/DSP/Source/TransformFunctions/arm_cfft_q31.c **** void arm_cfft_q31(
  81:./Libraries/CMSIS/DSP/Source/TransformFunctions/arm_cfft_q31.c ****   const arm_cfft_instance_q31 * S,
  82:./Libraries/CMSIS/DSP/Source/TransformFunctions/arm_cfft_q31.c ****         q31_t * p1,
  83:./Libraries/CMSIS/DSP/Source/TransformFunctions/arm_cfft_q31.c ****         uint8_t ifftFlag,
  84:./Libraries/CMSIS/DSP/Source/TransformFunctions/arm_cfft_q31.c ****         uint8_t bitReverseFlag)
  85:./Libraries/CMSIS/DSP/Source/TransformFunctions/arm_cfft_q31.c **** {
  28              		.loc 1 85 1
  29              		.cfi_startproc
  30              		@ args = 0, pretend = 0, frame = 24
ARM GAS  /tmp/cc0WtTjg.s 			page 3


  31              		@ frame_needed = 1, uses_anonymous_args = 0
  32 0000 80B5     		push	{r7, lr}
  33              	.LCFI0:
  34              		.cfi_def_cfa_offset 8
  35              		.cfi_offset 7, -8
  36              		.cfi_offset 14, -4
  37 0002 86B0     		sub	sp, sp, #24
  38              	.LCFI1:
  39              		.cfi_def_cfa_offset 32
  40 0004 00AF     		add	r7, sp, #0
  41              	.LCFI2:
  42              		.cfi_def_cfa_register 7
  43 0006 F860     		str	r0, [r7, #12]
  44 0008 B960     		str	r1, [r7, #8]
  45 000a 1146     		mov	r1, r2
  46 000c 1A46     		mov	r2, r3
  47 000e 0B46     		mov	r3, r1
  48 0010 FB71     		strb	r3, [r7, #7]
  49 0012 1346     		mov	r3, r2
  50 0014 BB71     		strb	r3, [r7, #6]
  86:./Libraries/CMSIS/DSP/Source/TransformFunctions/arm_cfft_q31.c ****   uint32_t L = S->fftLen;
  51              		.loc 1 86 17
  52 0016 FB68     		ldr	r3, [r7, #12]
  53 0018 1B88     		ldrh	r3, [r3]
  54              		.loc 1 86 12
  55 001a 7B61     		str	r3, [r7, #20]
  87:./Libraries/CMSIS/DSP/Source/TransformFunctions/arm_cfft_q31.c **** 
  88:./Libraries/CMSIS/DSP/Source/TransformFunctions/arm_cfft_q31.c ****   if (ifftFlag == 1U)
  56              		.loc 1 88 6
  57 001c FB79     		ldrb	r3, [r7, #7]	@ zero_extendqisi2
  58 001e 012B     		cmp	r3, #1
  59 0020 4CD1     		bne	.L2
  89:./Libraries/CMSIS/DSP/Source/TransformFunctions/arm_cfft_q31.c ****   {
  90:./Libraries/CMSIS/DSP/Source/TransformFunctions/arm_cfft_q31.c ****      switch (L)
  60              		.loc 1 90 6
  61 0022 7B69     		ldr	r3, [r7, #20]
  62 0024 B3F5805F 		cmp	r3, #4096
  63 0028 38D0     		beq	.L3
  64 002a 7B69     		ldr	r3, [r7, #20]
  65 002c B3F5805F 		cmp	r3, #4096
  66 0030 00F28F80 		bhi	.L6
  67 0034 7B69     		ldr	r3, [r7, #20]
  68 0036 B3F5006F 		cmp	r3, #2048
  69 003a 37D0     		beq	.L5
  70 003c 7B69     		ldr	r3, [r7, #20]
  71 003e B3F5006F 		cmp	r3, #2048
  72 0042 00F28680 		bhi	.L6
  73 0046 7B69     		ldr	r3, [r7, #20]
  74 0048 B3F5806F 		cmp	r3, #1024
  75 004c 26D0     		beq	.L3
  76 004e 7B69     		ldr	r3, [r7, #20]
  77 0050 B3F5806F 		cmp	r3, #1024
  78 0054 7DD8     		bhi	.L6
  79 0056 7B69     		ldr	r3, [r7, #20]
  80 0058 B3F5007F 		cmp	r3, #512
  81 005c 26D0     		beq	.L5
  82 005e 7B69     		ldr	r3, [r7, #20]
ARM GAS  /tmp/cc0WtTjg.s 			page 4


  83 0060 B3F5007F 		cmp	r3, #512
  84 0064 75D8     		bhi	.L6
  85 0066 7B69     		ldr	r3, [r7, #20]
  86 0068 B3F5807F 		cmp	r3, #256
  87 006c 16D0     		beq	.L3
  88 006e 7B69     		ldr	r3, [r7, #20]
  89 0070 B3F5807F 		cmp	r3, #256
  90 0074 6DD8     		bhi	.L6
  91 0076 7B69     		ldr	r3, [r7, #20]
  92 0078 802B     		cmp	r3, #128
  93 007a 17D0     		beq	.L5
  94 007c 7B69     		ldr	r3, [r7, #20]
  95 007e 802B     		cmp	r3, #128
  96 0080 67D8     		bhi	.L6
  97 0082 7B69     		ldr	r3, [r7, #20]
  98 0084 402B     		cmp	r3, #64
  99 0086 09D0     		beq	.L3
 100 0088 7B69     		ldr	r3, [r7, #20]
 101 008a 402B     		cmp	r3, #64
 102 008c 61D8     		bhi	.L6
 103 008e 7B69     		ldr	r3, [r7, #20]
 104 0090 102B     		cmp	r3, #16
 105 0092 03D0     		beq	.L3
 106 0094 7B69     		ldr	r3, [r7, #20]
 107 0096 202B     		cmp	r3, #32
 108 0098 08D0     		beq	.L5
 109 009a 5AE0     		b	.L6
 110              	.L3:
  91:./Libraries/CMSIS/DSP/Source/TransformFunctions/arm_cfft_q31.c ****      {
  92:./Libraries/CMSIS/DSP/Source/TransformFunctions/arm_cfft_q31.c ****      case 16:
  93:./Libraries/CMSIS/DSP/Source/TransformFunctions/arm_cfft_q31.c ****      case 64:
  94:./Libraries/CMSIS/DSP/Source/TransformFunctions/arm_cfft_q31.c ****      case 256:
  95:./Libraries/CMSIS/DSP/Source/TransformFunctions/arm_cfft_q31.c ****      case 1024:
  96:./Libraries/CMSIS/DSP/Source/TransformFunctions/arm_cfft_q31.c ****      case 4096:
  97:./Libraries/CMSIS/DSP/Source/TransformFunctions/arm_cfft_q31.c ****        arm_radix4_butterfly_inverse_q31 ( p1, L, (q31_t*)S->pTwiddle, 1 );
 111              		.loc 1 97 59
 112 009c FB68     		ldr	r3, [r7, #12]
 113 009e 5A68     		ldr	r2, [r3, #4]
 114              		.loc 1 97 8
 115 00a0 0123     		movs	r3, #1
 116 00a2 7969     		ldr	r1, [r7, #20]
 117 00a4 B868     		ldr	r0, [r7, #8]
 118 00a6 FFF7FEFF 		bl	arm_radix4_butterfly_inverse_q31
  98:./Libraries/CMSIS/DSP/Source/TransformFunctions/arm_cfft_q31.c ****        break;
 119              		.loc 1 98 8
 120 00aa 52E0     		b	.L6
 121              	.L5:
  99:./Libraries/CMSIS/DSP/Source/TransformFunctions/arm_cfft_q31.c **** 
 100:./Libraries/CMSIS/DSP/Source/TransformFunctions/arm_cfft_q31.c ****      case 32:
 101:./Libraries/CMSIS/DSP/Source/TransformFunctions/arm_cfft_q31.c ****      case 128:
 102:./Libraries/CMSIS/DSP/Source/TransformFunctions/arm_cfft_q31.c ****      case 512:
 103:./Libraries/CMSIS/DSP/Source/TransformFunctions/arm_cfft_q31.c ****      case 2048:
 104:./Libraries/CMSIS/DSP/Source/TransformFunctions/arm_cfft_q31.c ****        arm_cfft_radix4by2_inverse_q31 ( p1, L, S->pTwiddle );
 122              		.loc 1 104 8
 123 00ac FB68     		ldr	r3, [r7, #12]
 124 00ae 5B68     		ldr	r3, [r3, #4]
 125 00b0 1A46     		mov	r2, r3
ARM GAS  /tmp/cc0WtTjg.s 			page 5


 126 00b2 7969     		ldr	r1, [r7, #20]
 127 00b4 B868     		ldr	r0, [r7, #8]
 128 00b6 FFF7FEFF 		bl	arm_cfft_radix4by2_inverse_q31
 105:./Libraries/CMSIS/DSP/Source/TransformFunctions/arm_cfft_q31.c ****        break;
 129              		.loc 1 105 8
 130 00ba 4AE0     		b	.L6
 131              	.L2:
 106:./Libraries/CMSIS/DSP/Source/TransformFunctions/arm_cfft_q31.c ****      }
 107:./Libraries/CMSIS/DSP/Source/TransformFunctions/arm_cfft_q31.c ****   }
 108:./Libraries/CMSIS/DSP/Source/TransformFunctions/arm_cfft_q31.c ****   else
 109:./Libraries/CMSIS/DSP/Source/TransformFunctions/arm_cfft_q31.c ****   {
 110:./Libraries/CMSIS/DSP/Source/TransformFunctions/arm_cfft_q31.c ****      switch (L)
 132              		.loc 1 110 6
 133 00bc 7B69     		ldr	r3, [r7, #20]
 134 00be B3F5805F 		cmp	r3, #4096
 135 00c2 36D0     		beq	.L7
 136 00c4 7B69     		ldr	r3, [r7, #20]
 137 00c6 B3F5805F 		cmp	r3, #4096
 138 00ca 42D8     		bhi	.L6
 139 00cc 7B69     		ldr	r3, [r7, #20]
 140 00ce B3F5006F 		cmp	r3, #2048
 141 00d2 36D0     		beq	.L8
 142 00d4 7B69     		ldr	r3, [r7, #20]
 143 00d6 B3F5006F 		cmp	r3, #2048
 144 00da 3AD8     		bhi	.L6
 145 00dc 7B69     		ldr	r3, [r7, #20]
 146 00de B3F5806F 		cmp	r3, #1024
 147 00e2 26D0     		beq	.L7
 148 00e4 7B69     		ldr	r3, [r7, #20]
 149 00e6 B3F5806F 		cmp	r3, #1024
 150 00ea 32D8     		bhi	.L6
 151 00ec 7B69     		ldr	r3, [r7, #20]
 152 00ee B3F5007F 		cmp	r3, #512
 153 00f2 26D0     		beq	.L8
 154 00f4 7B69     		ldr	r3, [r7, #20]
 155 00f6 B3F5007F 		cmp	r3, #512
 156 00fa 2AD8     		bhi	.L6
 157 00fc 7B69     		ldr	r3, [r7, #20]
 158 00fe B3F5807F 		cmp	r3, #256
 159 0102 16D0     		beq	.L7
 160 0104 7B69     		ldr	r3, [r7, #20]
 161 0106 B3F5807F 		cmp	r3, #256
 162 010a 22D8     		bhi	.L6
 163 010c 7B69     		ldr	r3, [r7, #20]
 164 010e 802B     		cmp	r3, #128
 165 0110 17D0     		beq	.L8
 166 0112 7B69     		ldr	r3, [r7, #20]
 167 0114 802B     		cmp	r3, #128
 168 0116 1CD8     		bhi	.L6
 169 0118 7B69     		ldr	r3, [r7, #20]
 170 011a 402B     		cmp	r3, #64
 171 011c 09D0     		beq	.L7
 172 011e 7B69     		ldr	r3, [r7, #20]
 173 0120 402B     		cmp	r3, #64
 174 0122 16D8     		bhi	.L6
 175 0124 7B69     		ldr	r3, [r7, #20]
 176 0126 102B     		cmp	r3, #16
ARM GAS  /tmp/cc0WtTjg.s 			page 6


 177 0128 03D0     		beq	.L7
 178 012a 7B69     		ldr	r3, [r7, #20]
 179 012c 202B     		cmp	r3, #32
 180 012e 08D0     		beq	.L8
 181 0130 0FE0     		b	.L6
 182              	.L7:
 111:./Libraries/CMSIS/DSP/Source/TransformFunctions/arm_cfft_q31.c ****      {
 112:./Libraries/CMSIS/DSP/Source/TransformFunctions/arm_cfft_q31.c ****      case 16:
 113:./Libraries/CMSIS/DSP/Source/TransformFunctions/arm_cfft_q31.c ****      case 64:
 114:./Libraries/CMSIS/DSP/Source/TransformFunctions/arm_cfft_q31.c ****      case 256:
 115:./Libraries/CMSIS/DSP/Source/TransformFunctions/arm_cfft_q31.c ****      case 1024:
 116:./Libraries/CMSIS/DSP/Source/TransformFunctions/arm_cfft_q31.c ****      case 4096:
 117:./Libraries/CMSIS/DSP/Source/TransformFunctions/arm_cfft_q31.c ****        arm_radix4_butterfly_q31 ( p1, L, (q31_t*)S->pTwiddle, 1 );
 183              		.loc 1 117 51
 184 0132 FB68     		ldr	r3, [r7, #12]
 185 0134 5A68     		ldr	r2, [r3, #4]
 186              		.loc 1 117 8
 187 0136 0123     		movs	r3, #1
 188 0138 7969     		ldr	r1, [r7, #20]
 189 013a B868     		ldr	r0, [r7, #8]
 190 013c FFF7FEFF 		bl	arm_radix4_butterfly_q31
 118:./Libraries/CMSIS/DSP/Source/TransformFunctions/arm_cfft_q31.c ****        break;
 191              		.loc 1 118 8
 192 0140 07E0     		b	.L6
 193              	.L8:
 119:./Libraries/CMSIS/DSP/Source/TransformFunctions/arm_cfft_q31.c **** 
 120:./Libraries/CMSIS/DSP/Source/TransformFunctions/arm_cfft_q31.c ****      case 32:
 121:./Libraries/CMSIS/DSP/Source/TransformFunctions/arm_cfft_q31.c ****      case 128:
 122:./Libraries/CMSIS/DSP/Source/TransformFunctions/arm_cfft_q31.c ****      case 512:
 123:./Libraries/CMSIS/DSP/Source/TransformFunctions/arm_cfft_q31.c ****      case 2048:
 124:./Libraries/CMSIS/DSP/Source/TransformFunctions/arm_cfft_q31.c ****        arm_cfft_radix4by2_q31 ( p1, L, S->pTwiddle );
 194              		.loc 1 124 8
 195 0142 FB68     		ldr	r3, [r7, #12]
 196 0144 5B68     		ldr	r3, [r3, #4]
 197 0146 1A46     		mov	r2, r3
 198 0148 7969     		ldr	r1, [r7, #20]
 199 014a B868     		ldr	r0, [r7, #8]
 200 014c FFF7FEFF 		bl	arm_cfft_radix4by2_q31
 125:./Libraries/CMSIS/DSP/Source/TransformFunctions/arm_cfft_q31.c ****        break;
 201              		.loc 1 125 8
 202 0150 00BF     		nop
 203              	.L6:
 126:./Libraries/CMSIS/DSP/Source/TransformFunctions/arm_cfft_q31.c ****      }
 127:./Libraries/CMSIS/DSP/Source/TransformFunctions/arm_cfft_q31.c ****   }
 128:./Libraries/CMSIS/DSP/Source/TransformFunctions/arm_cfft_q31.c **** 
 129:./Libraries/CMSIS/DSP/Source/TransformFunctions/arm_cfft_q31.c ****   if ( bitReverseFlag )
 204              		.loc 1 129 6
 205 0152 BB79     		ldrb	r3, [r7, #6]	@ zero_extendqisi2
 206 0154 002B     		cmp	r3, #0
 207 0156 07D0     		beq	.L10
 130:./Libraries/CMSIS/DSP/Source/TransformFunctions/arm_cfft_q31.c ****     arm_bitreversal_32 ((uint32_t*) p1, S->bitRevLength, S->pBitRevTable);
 208              		.loc 1 130 5
 209 0158 FB68     		ldr	r3, [r7, #12]
 210 015a 9989     		ldrh	r1, [r3, #12]
 211 015c FB68     		ldr	r3, [r7, #12]
 212 015e 9B68     		ldr	r3, [r3, #8]
 213 0160 1A46     		mov	r2, r3
ARM GAS  /tmp/cc0WtTjg.s 			page 7


 214 0162 B868     		ldr	r0, [r7, #8]
 215 0164 FFF7FEFF 		bl	arm_bitreversal_32
 216              	.L10:
 131:./Libraries/CMSIS/DSP/Source/TransformFunctions/arm_cfft_q31.c **** }
 217              		.loc 1 131 1
 218 0168 00BF     		nop
 219 016a 1837     		adds	r7, r7, #24
 220              	.LCFI3:
 221              		.cfi_def_cfa_offset 8
 222 016c BD46     		mov	sp, r7
 223              	.LCFI4:
 224              		.cfi_def_cfa_register 13
 225              		@ sp needed
 226 016e 80BD     		pop	{r7, pc}
 227              		.cfi_endproc
 228              	.LFE145:
 230              		.section	.text.arm_cfft_radix4by2_q31,"ax",%progbits
 231              		.align	1
 232              		.global	arm_cfft_radix4by2_q31
 233              		.syntax unified
 234              		.thumb
 235              		.thumb_func
 236              		.fpu fpv5-d16
 238              	arm_cfft_radix4by2_q31:
 239              	.LFB146:
 132:./Libraries/CMSIS/DSP/Source/TransformFunctions/arm_cfft_q31.c **** 
 133:./Libraries/CMSIS/DSP/Source/TransformFunctions/arm_cfft_q31.c **** /**
 134:./Libraries/CMSIS/DSP/Source/TransformFunctions/arm_cfft_q31.c ****   @} end of ComplexFFT group
 135:./Libraries/CMSIS/DSP/Source/TransformFunctions/arm_cfft_q31.c ****  */
 136:./Libraries/CMSIS/DSP/Source/TransformFunctions/arm_cfft_q31.c **** 
 137:./Libraries/CMSIS/DSP/Source/TransformFunctions/arm_cfft_q31.c **** void arm_cfft_radix4by2_q31(
 138:./Libraries/CMSIS/DSP/Source/TransformFunctions/arm_cfft_q31.c ****         q31_t * pSrc,
 139:./Libraries/CMSIS/DSP/Source/TransformFunctions/arm_cfft_q31.c ****         uint32_t fftLen,
 140:./Libraries/CMSIS/DSP/Source/TransformFunctions/arm_cfft_q31.c ****   const q31_t * pCoef)
 141:./Libraries/CMSIS/DSP/Source/TransformFunctions/arm_cfft_q31.c **** {
 240              		.loc 1 141 1
 241              		.cfi_startproc
 242              		@ args = 0, pretend = 0, frame = 96
 243              		@ frame_needed = 1, uses_anonymous_args = 0
 244 0000 2DE9B04F 		push	{r4, r5, r7, r8, r9, r10, fp, lr}
 245              	.LCFI5:
 246              		.cfi_def_cfa_offset 32
 247              		.cfi_offset 4, -32
 248              		.cfi_offset 5, -28
 249              		.cfi_offset 7, -24
 250              		.cfi_offset 8, -20
 251              		.cfi_offset 9, -16
 252              		.cfi_offset 10, -12
 253              		.cfi_offset 11, -8
 254              		.cfi_offset 14, -4
 255 0004 98B0     		sub	sp, sp, #96
 256              	.LCFI6:
 257              		.cfi_def_cfa_offset 128
 258 0006 00AF     		add	r7, sp, #0
 259              	.LCFI7:
 260              		.cfi_def_cfa_register 7
 261 0008 7863     		str	r0, [r7, #52]
ARM GAS  /tmp/cc0WtTjg.s 			page 8


 262 000a 3963     		str	r1, [r7, #48]
 263 000c FA62     		str	r2, [r7, #44]
 142:./Libraries/CMSIS/DSP/Source/TransformFunctions/arm_cfft_q31.c ****         uint32_t i, l;
 143:./Libraries/CMSIS/DSP/Source/TransformFunctions/arm_cfft_q31.c ****         uint32_t n2;
 144:./Libraries/CMSIS/DSP/Source/TransformFunctions/arm_cfft_q31.c ****         q31_t xt, yt, cosVal, sinVal;
 145:./Libraries/CMSIS/DSP/Source/TransformFunctions/arm_cfft_q31.c ****         q31_t p0, p1;
 146:./Libraries/CMSIS/DSP/Source/TransformFunctions/arm_cfft_q31.c **** 
 147:./Libraries/CMSIS/DSP/Source/TransformFunctions/arm_cfft_q31.c ****   n2 = fftLen >> 1U;
 264              		.loc 1 147 6
 265 000e 3B6B     		ldr	r3, [r7, #48]
 266 0010 5B08     		lsrs	r3, r3, #1
 267 0012 BB65     		str	r3, [r7, #88]
 148:./Libraries/CMSIS/DSP/Source/TransformFunctions/arm_cfft_q31.c ****   for (i = 0; i < n2; i++)
 268              		.loc 1 148 10
 269 0014 0023     		movs	r3, #0
 270 0016 FB65     		str	r3, [r7, #92]
 271              		.loc 1 148 3
 272 0018 18E1     		b	.L12
 273              	.L13:
 149:./Libraries/CMSIS/DSP/Source/TransformFunctions/arm_cfft_q31.c ****   {
 150:./Libraries/CMSIS/DSP/Source/TransformFunctions/arm_cfft_q31.c ****      cosVal = pCoef[2 * i];
 274              		.loc 1 150 20 discriminator 3
 275 001a FB6D     		ldr	r3, [r7, #92]
 276 001c DB00     		lsls	r3, r3, #3
 277 001e FA6A     		ldr	r2, [r7, #44]
 278 0020 1344     		add	r3, r3, r2
 279              		.loc 1 150 13 discriminator 3
 280 0022 1B68     		ldr	r3, [r3]
 281 0024 7B64     		str	r3, [r7, #68]
 151:./Libraries/CMSIS/DSP/Source/TransformFunctions/arm_cfft_q31.c ****      sinVal = pCoef[2 * i + 1];
 282              		.loc 1 151 20 discriminator 3
 283 0026 FB6D     		ldr	r3, [r7, #92]
 284 0028 DB00     		lsls	r3, r3, #3
 285 002a 0433     		adds	r3, r3, #4
 286 002c FA6A     		ldr	r2, [r7, #44]
 287 002e 1344     		add	r3, r3, r2
 288              		.loc 1 151 13 discriminator 3
 289 0030 1B68     		ldr	r3, [r3]
 290 0032 3B64     		str	r3, [r7, #64]
 152:./Libraries/CMSIS/DSP/Source/TransformFunctions/arm_cfft_q31.c **** 
 153:./Libraries/CMSIS/DSP/Source/TransformFunctions/arm_cfft_q31.c ****      l = i + n2;
 291              		.loc 1 153 8 discriminator 3
 292 0034 FA6D     		ldr	r2, [r7, #92]
 293 0036 BB6D     		ldr	r3, [r7, #88]
 294 0038 1344     		add	r3, r3, r2
 295 003a FB63     		str	r3, [r7, #60]
 154:./Libraries/CMSIS/DSP/Source/TransformFunctions/arm_cfft_q31.c **** 
 155:./Libraries/CMSIS/DSP/Source/TransformFunctions/arm_cfft_q31.c ****      xt =          (pSrc[2 * i] >> 2U) - (pSrc[2 * l] >> 2U);
 296              		.loc 1 155 25 discriminator 3
 297 003c FB6D     		ldr	r3, [r7, #92]
 298 003e DB00     		lsls	r3, r3, #3
 299 0040 7A6B     		ldr	r2, [r7, #52]
 300 0042 1344     		add	r3, r3, r2
 301 0044 1B68     		ldr	r3, [r3]
 302              		.loc 1 155 33 discriminator 3
 303 0046 9910     		asrs	r1, r3, #2
 304              		.loc 1 155 47 discriminator 3
ARM GAS  /tmp/cc0WtTjg.s 			page 9


 305 0048 FB6B     		ldr	r3, [r7, #60]
 306 004a DA00     		lsls	r2, r3, #3
 307 004c 7B6B     		ldr	r3, [r7, #52]
 308 004e 1344     		add	r3, r3, r2
 309 0050 1B68     		ldr	r3, [r3]
 310              		.loc 1 155 55 discriminator 3
 311 0052 9B10     		asrs	r3, r3, #2
 312              		.loc 1 155 9 discriminator 3
 313 0054 CB1A     		subs	r3, r1, r3
 314 0056 FB64     		str	r3, [r7, #76]
 156:./Libraries/CMSIS/DSP/Source/TransformFunctions/arm_cfft_q31.c ****      pSrc[2 * i] = (pSrc[2 * i] >> 2U) + (pSrc[2 * l] >> 2U);
 315              		.loc 1 156 25 discriminator 3
 316 0058 FB6D     		ldr	r3, [r7, #92]
 317 005a DB00     		lsls	r3, r3, #3
 318 005c 7A6B     		ldr	r2, [r7, #52]
 319 005e 1344     		add	r3, r3, r2
 320 0060 1B68     		ldr	r3, [r3]
 321              		.loc 1 156 33 discriminator 3
 322 0062 9810     		asrs	r0, r3, #2
 323              		.loc 1 156 47 discriminator 3
 324 0064 FB6B     		ldr	r3, [r7, #60]
 325 0066 DA00     		lsls	r2, r3, #3
 326 0068 7B6B     		ldr	r3, [r7, #52]
 327 006a 1344     		add	r3, r3, r2
 328 006c 1B68     		ldr	r3, [r3]
 329              		.loc 1 156 55 discriminator 3
 330 006e 9910     		asrs	r1, r3, #2
 331              		.loc 1 156 10 discriminator 3
 332 0070 FB6D     		ldr	r3, [r7, #92]
 333 0072 DA00     		lsls	r2, r3, #3
 334 0074 7B6B     		ldr	r3, [r7, #52]
 335 0076 1A44     		add	r2, r2, r3
 336              		.loc 1 156 40 discriminator 3
 337 0078 4318     		adds	r3, r0, r1
 338              		.loc 1 156 18 discriminator 3
 339 007a 1360     		str	r3, [r2]
 157:./Libraries/CMSIS/DSP/Source/TransformFunctions/arm_cfft_q31.c **** 
 158:./Libraries/CMSIS/DSP/Source/TransformFunctions/arm_cfft_q31.c ****      yt =              (pSrc[2 * i + 1] >> 2U) - (pSrc[2 * l + 1] >> 2U);
 340              		.loc 1 158 29 discriminator 3
 341 007c FB6D     		ldr	r3, [r7, #92]
 342 007e DB00     		lsls	r3, r3, #3
 343 0080 0433     		adds	r3, r3, #4
 344 0082 7A6B     		ldr	r2, [r7, #52]
 345 0084 1344     		add	r3, r3, r2
 346 0086 1B68     		ldr	r3, [r3]
 347              		.loc 1 158 41 discriminator 3
 348 0088 9910     		asrs	r1, r3, #2
 349              		.loc 1 158 55 discriminator 3
 350 008a FB6B     		ldr	r3, [r7, #60]
 351 008c DB00     		lsls	r3, r3, #3
 352 008e 1A1D     		adds	r2, r3, #4
 353 0090 7B6B     		ldr	r3, [r7, #52]
 354 0092 1344     		add	r3, r3, r2
 355 0094 1B68     		ldr	r3, [r3]
 356              		.loc 1 158 67 discriminator 3
 357 0096 9B10     		asrs	r3, r3, #2
 358              		.loc 1 158 9 discriminator 3
ARM GAS  /tmp/cc0WtTjg.s 			page 10


 359 0098 CB1A     		subs	r3, r1, r3
 360 009a BB64     		str	r3, [r7, #72]
 159:./Libraries/CMSIS/DSP/Source/TransformFunctions/arm_cfft_q31.c ****      pSrc[2 * i + 1] = (pSrc[2 * l + 1] >> 2U) + (pSrc[2 * i + 1] >> 2U);
 361              		.loc 1 159 29 discriminator 3
 362 009c FB6B     		ldr	r3, [r7, #60]
 363 009e DB00     		lsls	r3, r3, #3
 364 00a0 0433     		adds	r3, r3, #4
 365 00a2 7A6B     		ldr	r2, [r7, #52]
 366 00a4 1344     		add	r3, r3, r2
 367 00a6 1B68     		ldr	r3, [r3]
 368              		.loc 1 159 41 discriminator 3
 369 00a8 9810     		asrs	r0, r3, #2
 370              		.loc 1 159 55 discriminator 3
 371 00aa FB6D     		ldr	r3, [r7, #92]
 372 00ac DB00     		lsls	r3, r3, #3
 373 00ae 1A1D     		adds	r2, r3, #4
 374 00b0 7B6B     		ldr	r3, [r7, #52]
 375 00b2 1344     		add	r3, r3, r2
 376 00b4 1B68     		ldr	r3, [r3]
 377              		.loc 1 159 67 discriminator 3
 378 00b6 9910     		asrs	r1, r3, #2
 379              		.loc 1 159 10 discriminator 3
 380 00b8 FB6D     		ldr	r3, [r7, #92]
 381 00ba DB00     		lsls	r3, r3, #3
 382 00bc 1A1D     		adds	r2, r3, #4
 383 00be 7B6B     		ldr	r3, [r7, #52]
 384 00c0 1A44     		add	r2, r2, r3
 385              		.loc 1 159 48 discriminator 3
 386 00c2 4318     		adds	r3, r0, r1
 387              		.loc 1 159 22 discriminator 3
 388 00c4 1360     		str	r3, [r2]
 160:./Libraries/CMSIS/DSP/Source/TransformFunctions/arm_cfft_q31.c **** 
 161:./Libraries/CMSIS/DSP/Source/TransformFunctions/arm_cfft_q31.c ****      mult_32x32_keep32_R(p0, xt, cosVal);
 389              		.loc 1 161 6 discriminator 3
 390 00c6 FB6C     		ldr	r3, [r7, #76]
 391 00c8 1846     		mov	r0, r3
 392 00ca 4FEAE071 		asr	r1, r0, #31
 393 00ce 7B6C     		ldr	r3, [r7, #68]
 394 00d0 1A46     		mov	r2, r3
 395 00d2 4FEAE273 		asr	r3, r2, #31
 396 00d6 02FB01F5 		mul	r5, r2, r1
 397 00da 00FB03F4 		mul	r4, r0, r3
 398 00de 2C44     		add	r4, r4, r5
 399 00e0 A0FB0223 		umull	r2, r3, r0, r2
 400 00e4 E118     		adds	r1, r4, r3
 401 00e6 0B46     		mov	r3, r1
 402 00e8 12F1004A 		adds	r10, r2, #-2147483648
 403 00ec 43F1000B 		adc	fp, r3, #0
 404 00f0 4FF00002 		mov	r2, #0
 405 00f4 4FF00003 		mov	r3, #0
 406 00f8 5A46     		mov	r2, fp
 407 00fa 4FEAEB73 		asr	r3, fp, #31
 408 00fe 1346     		mov	r3, r2
 409 0100 7B65     		str	r3, [r7, #84]
 162:./Libraries/CMSIS/DSP/Source/TransformFunctions/arm_cfft_q31.c ****      mult_32x32_keep32_R(p1, yt, cosVal);
 410              		.loc 1 162 6 discriminator 3
 411 0102 BB6C     		ldr	r3, [r7, #72]
ARM GAS  /tmp/cc0WtTjg.s 			page 11


 412 0104 1846     		mov	r0, r3
 413 0106 4FEAE071 		asr	r1, r0, #31
 414 010a 7B6C     		ldr	r3, [r7, #68]
 415 010c 1A46     		mov	r2, r3
 416 010e 4FEAE273 		asr	r3, r2, #31
 417 0112 02FB01F5 		mul	r5, r2, r1
 418 0116 00FB03F4 		mul	r4, r0, r3
 419 011a 2C44     		add	r4, r4, r5
 420 011c A0FB0223 		umull	r2, r3, r0, r2
 421 0120 E118     		adds	r1, r4, r3
 422 0122 0B46     		mov	r3, r1
 423 0124 12F10041 		adds	r1, r2, #-2147483648
 424 0128 3962     		str	r1, [r7, #32]
 425 012a 43F10003 		adc	r3, r3, #0
 426 012e 7B62     		str	r3, [r7, #36]
 427 0130 4FF00002 		mov	r2, #0
 428 0134 4FF00003 		mov	r3, #0
 429 0138 D7E90845 		ldrd	r4, [r7, #32]
 430 013c 2946     		mov	r1, r5
 431 013e 0A00     		movs	r2, r1
 432 0140 2946     		mov	r1, r5
 433 0142 CB17     		asrs	r3, r1, #31
 434 0144 1346     		mov	r3, r2
 435 0146 3B65     		str	r3, [r7, #80]
 163:./Libraries/CMSIS/DSP/Source/TransformFunctions/arm_cfft_q31.c ****      multAcc_32x32_keep32_R(p0, yt, sinVal);
 436              		.loc 1 163 6 discriminator 3
 437 0148 7B6D     		ldr	r3, [r7, #84]
 438 014a 1A46     		mov	r2, r3
 439 014c 4FEAE273 		asr	r3, r2, #31
 440 0150 4FF00008 		mov	r8, #0
 441 0154 4FF00009 		mov	r9, #0
 442 0158 9146     		mov	r9, r2
 443 015a 4FF00008 		mov	r8, #0
 444 015e BB6C     		ldr	r3, [r7, #72]
 445 0160 1846     		mov	r0, r3
 446 0162 4FEAE071 		asr	r1, r0, #31
 447 0166 3B6C     		ldr	r3, [r7, #64]
 448 0168 1A46     		mov	r2, r3
 449 016a 4FEAE273 		asr	r3, r2, #31
 450 016e 02FB01F5 		mul	r5, r2, r1
 451 0172 00FB03F4 		mul	r4, r0, r3
 452 0176 2C44     		add	r4, r4, r5
 453 0178 A0FB0223 		umull	r2, r3, r0, r2
 454 017c E118     		adds	r1, r4, r3
 455 017e 0B46     		mov	r3, r1
 456 0180 18EB0201 		adds	r1, r8, r2
 457 0184 B961     		str	r1, [r7, #24]
 458 0186 49EB0303 		adc	r3, r9, r3
 459 018a FB61     		str	r3, [r7, #28]
 460 018c D7E90612 		ldrd	r1, [r7, #24]
 461 0190 0B46     		mov	r3, r1
 462 0192 13F10043 		adds	r3, r3, #-2147483648
 463 0196 3B61     		str	r3, [r7, #16]
 464 0198 1346     		mov	r3, r2
 465 019a 43F10003 		adc	r3, r3, #0
 466 019e 7B61     		str	r3, [r7, #20]
 467 01a0 4FF00002 		mov	r2, #0
ARM GAS  /tmp/cc0WtTjg.s 			page 12


 468 01a4 4FF00003 		mov	r3, #0
 469 01a8 D7E90445 		ldrd	r4, [r7, #16]
 470 01ac 2946     		mov	r1, r5
 471 01ae 0A00     		movs	r2, r1
 472 01b0 2946     		mov	r1, r5
 473 01b2 CB17     		asrs	r3, r1, #31
 474 01b4 1346     		mov	r3, r2
 475 01b6 7B65     		str	r3, [r7, #84]
 164:./Libraries/CMSIS/DSP/Source/TransformFunctions/arm_cfft_q31.c ****      multSub_32x32_keep32_R(p1, xt, sinVal);
 476              		.loc 1 164 6 discriminator 3
 477 01b8 3B6D     		ldr	r3, [r7, #80]
 478 01ba 1A46     		mov	r2, r3
 479 01bc 4FEAE273 		asr	r3, r2, #31
 480 01c0 4FF00008 		mov	r8, #0
 481 01c4 4FF00009 		mov	r9, #0
 482 01c8 9146     		mov	r9, r2
 483 01ca 4FF00008 		mov	r8, #0
 484 01ce FB6C     		ldr	r3, [r7, #76]
 485 01d0 1846     		mov	r0, r3
 486 01d2 4FEAE071 		asr	r1, r0, #31
 487 01d6 3B6C     		ldr	r3, [r7, #64]
 488 01d8 1A46     		mov	r2, r3
 489 01da 4FEAE273 		asr	r3, r2, #31
 490 01de 02FB01F5 		mul	r5, r2, r1
 491 01e2 00FB03F4 		mul	r4, r0, r3
 492 01e6 2C44     		add	r4, r4, r5
 493 01e8 A0FB0223 		umull	r2, r3, r0, r2
 494 01ec E118     		adds	r1, r4, r3
 495 01ee 0B46     		mov	r3, r1
 496 01f0 B8EB0201 		subs	r1, r8, r2
 497 01f4 B960     		str	r1, [r7, #8]
 498 01f6 69EB0303 		sbc	r3, r9, r3
 499 01fa FB60     		str	r3, [r7, #12]
 500 01fc D7E90212 		ldrd	r1, [r7, #8]
 501 0200 0B46     		mov	r3, r1
 502 0202 13F10043 		adds	r3, r3, #-2147483648
 503 0206 3B60     		str	r3, [r7]
 504 0208 1346     		mov	r3, r2
 505 020a 43F10003 		adc	r3, r3, #0
 506 020e 7B60     		str	r3, [r7, #4]
 507 0210 4FF00002 		mov	r2, #0
 508 0214 4FF00003 		mov	r3, #0
 509 0218 D7E90045 		ldrd	r4, [r7]
 510 021c 2946     		mov	r1, r5
 511 021e 0A00     		movs	r2, r1
 512 0220 2946     		mov	r1, r5
 513 0222 CB17     		asrs	r3, r1, #31
 514 0224 1346     		mov	r3, r2
 515 0226 3B65     		str	r3, [r7, #80]
 165:./Libraries/CMSIS/DSP/Source/TransformFunctions/arm_cfft_q31.c **** 
 166:./Libraries/CMSIS/DSP/Source/TransformFunctions/arm_cfft_q31.c ****      pSrc[2 * l]     = p0 << 1;
 516              		.loc 1 166 10 discriminator 3
 517 0228 FB6B     		ldr	r3, [r7, #60]
 518 022a DB00     		lsls	r3, r3, #3
 519 022c 7A6B     		ldr	r2, [r7, #52]
 520 022e 1A44     		add	r2, r2, r3
 521              		.loc 1 166 27 discriminator 3
ARM GAS  /tmp/cc0WtTjg.s 			page 13


 522 0230 7B6D     		ldr	r3, [r7, #84]
 523 0232 5B00     		lsls	r3, r3, #1
 524              		.loc 1 166 22 discriminator 3
 525 0234 1360     		str	r3, [r2]
 167:./Libraries/CMSIS/DSP/Source/TransformFunctions/arm_cfft_q31.c ****      pSrc[2 * l + 1] = p1 << 1;
 526              		.loc 1 167 10 discriminator 3
 527 0236 FB6B     		ldr	r3, [r7, #60]
 528 0238 DB00     		lsls	r3, r3, #3
 529 023a 0433     		adds	r3, r3, #4
 530 023c 7A6B     		ldr	r2, [r7, #52]
 531 023e 1A44     		add	r2, r2, r3
 532              		.loc 1 167 27 discriminator 3
 533 0240 3B6D     		ldr	r3, [r7, #80]
 534 0242 5B00     		lsls	r3, r3, #1
 535              		.loc 1 167 22 discriminator 3
 536 0244 1360     		str	r3, [r2]
 148:./Libraries/CMSIS/DSP/Source/TransformFunctions/arm_cfft_q31.c ****   {
 537              		.loc 1 148 24 discriminator 3
 538 0246 FB6D     		ldr	r3, [r7, #92]
 539 0248 0133     		adds	r3, r3, #1
 540 024a FB65     		str	r3, [r7, #92]
 541              	.L12:
 148:./Libraries/CMSIS/DSP/Source/TransformFunctions/arm_cfft_q31.c ****   {
 542              		.loc 1 148 3 discriminator 1
 543 024c FA6D     		ldr	r2, [r7, #92]
 544 024e BB6D     		ldr	r3, [r7, #88]
 545 0250 9A42     		cmp	r2, r3
 546 0252 FFF4E2AE 		bcc	.L13
 168:./Libraries/CMSIS/DSP/Source/TransformFunctions/arm_cfft_q31.c ****   }
 169:./Libraries/CMSIS/DSP/Source/TransformFunctions/arm_cfft_q31.c **** 
 170:./Libraries/CMSIS/DSP/Source/TransformFunctions/arm_cfft_q31.c ****   /* first col */
 171:./Libraries/CMSIS/DSP/Source/TransformFunctions/arm_cfft_q31.c ****   arm_radix4_butterfly_q31 (pSrc,          n2, (q31_t*)pCoef, 2U);
 547              		.loc 1 171 3
 548 0256 0223     		movs	r3, #2
 549 0258 FA6A     		ldr	r2, [r7, #44]
 550 025a B96D     		ldr	r1, [r7, #88]
 551 025c 786B     		ldr	r0, [r7, #52]
 552 025e FFF7FEFF 		bl	arm_radix4_butterfly_q31
 172:./Libraries/CMSIS/DSP/Source/TransformFunctions/arm_cfft_q31.c **** 
 173:./Libraries/CMSIS/DSP/Source/TransformFunctions/arm_cfft_q31.c ****   /* second col */
 174:./Libraries/CMSIS/DSP/Source/TransformFunctions/arm_cfft_q31.c ****   arm_radix4_butterfly_q31 (pSrc + fftLen, n2, (q31_t*)pCoef, 2U);
 553              		.loc 1 174 34
 554 0262 3B6B     		ldr	r3, [r7, #48]
 555 0264 9B00     		lsls	r3, r3, #2
 556              		.loc 1 174 3
 557 0266 7A6B     		ldr	r2, [r7, #52]
 558 0268 D018     		adds	r0, r2, r3
 559 026a 0223     		movs	r3, #2
 560 026c FA6A     		ldr	r2, [r7, #44]
 561 026e B96D     		ldr	r1, [r7, #88]
 562 0270 FFF7FEFF 		bl	arm_radix4_butterfly_q31
 175:./Libraries/CMSIS/DSP/Source/TransformFunctions/arm_cfft_q31.c **** 
 176:./Libraries/CMSIS/DSP/Source/TransformFunctions/arm_cfft_q31.c ****   n2 = fftLen >> 1U;
 563              		.loc 1 176 6
 564 0274 3B6B     		ldr	r3, [r7, #48]
 565 0276 5B08     		lsrs	r3, r3, #1
 566 0278 BB65     		str	r3, [r7, #88]
ARM GAS  /tmp/cc0WtTjg.s 			page 14


 177:./Libraries/CMSIS/DSP/Source/TransformFunctions/arm_cfft_q31.c ****   for (i = 0; i < n2; i++)
 567              		.loc 1 177 10
 568 027a 0023     		movs	r3, #0
 569 027c FB65     		str	r3, [r7, #92]
 570              		.loc 1 177 3
 571 027e 44E0     		b	.L14
 572              	.L15:
 178:./Libraries/CMSIS/DSP/Source/TransformFunctions/arm_cfft_q31.c ****   {
 179:./Libraries/CMSIS/DSP/Source/TransformFunctions/arm_cfft_q31.c ****      p0 = pSrc[4 * i + 0];
 573              		.loc 1 179 15 discriminator 3
 574 0280 FB6D     		ldr	r3, [r7, #92]
 575 0282 1B01     		lsls	r3, r3, #4
 576 0284 7A6B     		ldr	r2, [r7, #52]
 577 0286 1344     		add	r3, r3, r2
 578              		.loc 1 179 9 discriminator 3
 579 0288 1B68     		ldr	r3, [r3]
 580 028a 7B65     		str	r3, [r7, #84]
 180:./Libraries/CMSIS/DSP/Source/TransformFunctions/arm_cfft_q31.c ****      p1 = pSrc[4 * i + 1];
 581              		.loc 1 180 15 discriminator 3
 582 028c FB6D     		ldr	r3, [r7, #92]
 583 028e 1B01     		lsls	r3, r3, #4
 584 0290 0433     		adds	r3, r3, #4
 585 0292 7A6B     		ldr	r2, [r7, #52]
 586 0294 1344     		add	r3, r3, r2
 587              		.loc 1 180 9 discriminator 3
 588 0296 1B68     		ldr	r3, [r3]
 589 0298 3B65     		str	r3, [r7, #80]
 181:./Libraries/CMSIS/DSP/Source/TransformFunctions/arm_cfft_q31.c ****      xt = pSrc[4 * i + 2];
 590              		.loc 1 181 15 discriminator 3
 591 029a FB6D     		ldr	r3, [r7, #92]
 592 029c 1B01     		lsls	r3, r3, #4
 593 029e 0833     		adds	r3, r3, #8
 594 02a0 7A6B     		ldr	r2, [r7, #52]
 595 02a2 1344     		add	r3, r3, r2
 596              		.loc 1 181 9 discriminator 3
 597 02a4 1B68     		ldr	r3, [r3]
 598 02a6 FB64     		str	r3, [r7, #76]
 182:./Libraries/CMSIS/DSP/Source/TransformFunctions/arm_cfft_q31.c ****      yt = pSrc[4 * i + 3];
 599              		.loc 1 182 15 discriminator 3
 600 02a8 FB6D     		ldr	r3, [r7, #92]
 601 02aa 1B01     		lsls	r3, r3, #4
 602 02ac 0C33     		adds	r3, r3, #12
 603 02ae 7A6B     		ldr	r2, [r7, #52]
 604 02b0 1344     		add	r3, r3, r2
 605              		.loc 1 182 9 discriminator 3
 606 02b2 1B68     		ldr	r3, [r3]
 607 02b4 BB64     		str	r3, [r7, #72]
 183:./Libraries/CMSIS/DSP/Source/TransformFunctions/arm_cfft_q31.c **** 
 184:./Libraries/CMSIS/DSP/Source/TransformFunctions/arm_cfft_q31.c ****      p0 <<= 1U;
 608              		.loc 1 184 9 discriminator 3
 609 02b6 7B6D     		ldr	r3, [r7, #84]
 610 02b8 5B00     		lsls	r3, r3, #1
 611 02ba 7B65     		str	r3, [r7, #84]
 185:./Libraries/CMSIS/DSP/Source/TransformFunctions/arm_cfft_q31.c ****      p1 <<= 1U;
 612              		.loc 1 185 9 discriminator 3
 613 02bc 3B6D     		ldr	r3, [r7, #80]
 614 02be 5B00     		lsls	r3, r3, #1
ARM GAS  /tmp/cc0WtTjg.s 			page 15


 615 02c0 3B65     		str	r3, [r7, #80]
 186:./Libraries/CMSIS/DSP/Source/TransformFunctions/arm_cfft_q31.c ****      xt <<= 1U;
 616              		.loc 1 186 9 discriminator 3
 617 02c2 FB6C     		ldr	r3, [r7, #76]
 618 02c4 5B00     		lsls	r3, r3, #1
 619 02c6 FB64     		str	r3, [r7, #76]
 187:./Libraries/CMSIS/DSP/Source/TransformFunctions/arm_cfft_q31.c ****      yt <<= 1U;
 620              		.loc 1 187 9 discriminator 3
 621 02c8 BB6C     		ldr	r3, [r7, #72]
 622 02ca 5B00     		lsls	r3, r3, #1
 623 02cc BB64     		str	r3, [r7, #72]
 188:./Libraries/CMSIS/DSP/Source/TransformFunctions/arm_cfft_q31.c **** 
 189:./Libraries/CMSIS/DSP/Source/TransformFunctions/arm_cfft_q31.c ****      pSrc[4 * i + 0] = p0;
 624              		.loc 1 189 10 discriminator 3
 625 02ce FB6D     		ldr	r3, [r7, #92]
 626 02d0 1B01     		lsls	r3, r3, #4
 627 02d2 7A6B     		ldr	r2, [r7, #52]
 628 02d4 1344     		add	r3, r3, r2
 629              		.loc 1 189 22 discriminator 3
 630 02d6 7A6D     		ldr	r2, [r7, #84]
 631 02d8 1A60     		str	r2, [r3]
 190:./Libraries/CMSIS/DSP/Source/TransformFunctions/arm_cfft_q31.c ****      pSrc[4 * i + 1] = p1;
 632              		.loc 1 190 10 discriminator 3
 633 02da FB6D     		ldr	r3, [r7, #92]
 634 02dc 1B01     		lsls	r3, r3, #4
 635 02de 0433     		adds	r3, r3, #4
 636 02e0 7A6B     		ldr	r2, [r7, #52]
 637 02e2 1344     		add	r3, r3, r2
 638              		.loc 1 190 22 discriminator 3
 639 02e4 3A6D     		ldr	r2, [r7, #80]
 640 02e6 1A60     		str	r2, [r3]
 191:./Libraries/CMSIS/DSP/Source/TransformFunctions/arm_cfft_q31.c ****      pSrc[4 * i + 2] = xt;
 641              		.loc 1 191 10 discriminator 3
 642 02e8 FB6D     		ldr	r3, [r7, #92]
 643 02ea 1B01     		lsls	r3, r3, #4
 644 02ec 0833     		adds	r3, r3, #8
 645 02ee 7A6B     		ldr	r2, [r7, #52]
 646 02f0 1344     		add	r3, r3, r2
 647              		.loc 1 191 22 discriminator 3
 648 02f2 FA6C     		ldr	r2, [r7, #76]
 649 02f4 1A60     		str	r2, [r3]
 192:./Libraries/CMSIS/DSP/Source/TransformFunctions/arm_cfft_q31.c ****      pSrc[4 * i + 3] = yt;
 650              		.loc 1 192 10 discriminator 3
 651 02f6 FB6D     		ldr	r3, [r7, #92]
 652 02f8 1B01     		lsls	r3, r3, #4
 653 02fa 0C33     		adds	r3, r3, #12
 654 02fc 7A6B     		ldr	r2, [r7, #52]
 655 02fe 1344     		add	r3, r3, r2
 656              		.loc 1 192 22 discriminator 3
 657 0300 BA6C     		ldr	r2, [r7, #72]
 658 0302 1A60     		str	r2, [r3]
 177:./Libraries/CMSIS/DSP/Source/TransformFunctions/arm_cfft_q31.c ****   {
 659              		.loc 1 177 24 discriminator 3
 660 0304 FB6D     		ldr	r3, [r7, #92]
 661 0306 0133     		adds	r3, r3, #1
 662 0308 FB65     		str	r3, [r7, #92]
 663              	.L14:
ARM GAS  /tmp/cc0WtTjg.s 			page 16


 177:./Libraries/CMSIS/DSP/Source/TransformFunctions/arm_cfft_q31.c ****   {
 664              		.loc 1 177 3 discriminator 1
 665 030a FA6D     		ldr	r2, [r7, #92]
 666 030c BB6D     		ldr	r3, [r7, #88]
 667 030e 9A42     		cmp	r2, r3
 668 0310 B6D3     		bcc	.L15
 193:./Libraries/CMSIS/DSP/Source/TransformFunctions/arm_cfft_q31.c ****   }
 194:./Libraries/CMSIS/DSP/Source/TransformFunctions/arm_cfft_q31.c **** 
 195:./Libraries/CMSIS/DSP/Source/TransformFunctions/arm_cfft_q31.c **** }
 669              		.loc 1 195 1
 670 0312 00BF     		nop
 671 0314 00BF     		nop
 672 0316 6037     		adds	r7, r7, #96
 673              	.LCFI8:
 674              		.cfi_def_cfa_offset 32
 675 0318 BD46     		mov	sp, r7
 676              	.LCFI9:
 677              		.cfi_def_cfa_register 13
 678              		@ sp needed
 679 031a BDE8B08F 		pop	{r4, r5, r7, r8, r9, r10, fp, pc}
 680              		.cfi_endproc
 681              	.LFE146:
 683              		.section	.text.arm_cfft_radix4by2_inverse_q31,"ax",%progbits
 684              		.align	1
 685              		.global	arm_cfft_radix4by2_inverse_q31
 686              		.syntax unified
 687              		.thumb
 688              		.thumb_func
 689              		.fpu fpv5-d16
 691              	arm_cfft_radix4by2_inverse_q31:
 692              	.LFB147:
 196:./Libraries/CMSIS/DSP/Source/TransformFunctions/arm_cfft_q31.c **** 
 197:./Libraries/CMSIS/DSP/Source/TransformFunctions/arm_cfft_q31.c **** void arm_cfft_radix4by2_inverse_q31(
 198:./Libraries/CMSIS/DSP/Source/TransformFunctions/arm_cfft_q31.c ****         q31_t * pSrc,
 199:./Libraries/CMSIS/DSP/Source/TransformFunctions/arm_cfft_q31.c ****         uint32_t fftLen,
 200:./Libraries/CMSIS/DSP/Source/TransformFunctions/arm_cfft_q31.c ****   const q31_t * pCoef)
 201:./Libraries/CMSIS/DSP/Source/TransformFunctions/arm_cfft_q31.c **** {
 693              		.loc 1 201 1
 694              		.cfi_startproc
 695              		@ args = 0, pretend = 0, frame = 96
 696              		@ frame_needed = 1, uses_anonymous_args = 0
 697 0000 2DE9B04F 		push	{r4, r5, r7, r8, r9, r10, fp, lr}
 698              	.LCFI10:
 699              		.cfi_def_cfa_offset 32
 700              		.cfi_offset 4, -32
 701              		.cfi_offset 5, -28
 702              		.cfi_offset 7, -24
 703              		.cfi_offset 8, -20
 704              		.cfi_offset 9, -16
 705              		.cfi_offset 10, -12
 706              		.cfi_offset 11, -8
 707              		.cfi_offset 14, -4
 708 0004 98B0     		sub	sp, sp, #96
 709              	.LCFI11:
 710              		.cfi_def_cfa_offset 128
 711 0006 00AF     		add	r7, sp, #0
 712              	.LCFI12:
ARM GAS  /tmp/cc0WtTjg.s 			page 17


 713              		.cfi_def_cfa_register 7
 714 0008 7863     		str	r0, [r7, #52]
 715 000a 3963     		str	r1, [r7, #48]
 716 000c FA62     		str	r2, [r7, #44]
 202:./Libraries/CMSIS/DSP/Source/TransformFunctions/arm_cfft_q31.c ****   uint32_t i, l;
 203:./Libraries/CMSIS/DSP/Source/TransformFunctions/arm_cfft_q31.c ****   uint32_t n2;
 204:./Libraries/CMSIS/DSP/Source/TransformFunctions/arm_cfft_q31.c ****   q31_t xt, yt, cosVal, sinVal;
 205:./Libraries/CMSIS/DSP/Source/TransformFunctions/arm_cfft_q31.c ****   q31_t p0, p1;
 206:./Libraries/CMSIS/DSP/Source/TransformFunctions/arm_cfft_q31.c **** 
 207:./Libraries/CMSIS/DSP/Source/TransformFunctions/arm_cfft_q31.c ****   n2 = fftLen >> 1U;
 717              		.loc 1 207 6
 718 000e 3B6B     		ldr	r3, [r7, #48]
 719 0010 5B08     		lsrs	r3, r3, #1
 720 0012 BB65     		str	r3, [r7, #88]
 208:./Libraries/CMSIS/DSP/Source/TransformFunctions/arm_cfft_q31.c ****   for (i = 0; i < n2; i++)
 721              		.loc 1 208 10
 722 0014 0023     		movs	r3, #0
 723 0016 FB65     		str	r3, [r7, #92]
 724              		.loc 1 208 3
 725 0018 18E1     		b	.L17
 726              	.L18:
 209:./Libraries/CMSIS/DSP/Source/TransformFunctions/arm_cfft_q31.c ****   {
 210:./Libraries/CMSIS/DSP/Source/TransformFunctions/arm_cfft_q31.c ****      cosVal = pCoef[2 * i];
 727              		.loc 1 210 20 discriminator 3
 728 001a FB6D     		ldr	r3, [r7, #92]
 729 001c DB00     		lsls	r3, r3, #3
 730 001e FA6A     		ldr	r2, [r7, #44]
 731 0020 1344     		add	r3, r3, r2
 732              		.loc 1 210 13 discriminator 3
 733 0022 1B68     		ldr	r3, [r3]
 734 0024 7B64     		str	r3, [r7, #68]
 211:./Libraries/CMSIS/DSP/Source/TransformFunctions/arm_cfft_q31.c ****      sinVal = pCoef[2 * i + 1];
 735              		.loc 1 211 20 discriminator 3
 736 0026 FB6D     		ldr	r3, [r7, #92]
 737 0028 DB00     		lsls	r3, r3, #3
 738 002a 0433     		adds	r3, r3, #4
 739 002c FA6A     		ldr	r2, [r7, #44]
 740 002e 1344     		add	r3, r3, r2
 741              		.loc 1 211 13 discriminator 3
 742 0030 1B68     		ldr	r3, [r3]
 743 0032 3B64     		str	r3, [r7, #64]
 212:./Libraries/CMSIS/DSP/Source/TransformFunctions/arm_cfft_q31.c **** 
 213:./Libraries/CMSIS/DSP/Source/TransformFunctions/arm_cfft_q31.c ****      l = i + n2;
 744              		.loc 1 213 8 discriminator 3
 745 0034 FA6D     		ldr	r2, [r7, #92]
 746 0036 BB6D     		ldr	r3, [r7, #88]
 747 0038 1344     		add	r3, r3, r2
 748 003a FB63     		str	r3, [r7, #60]
 214:./Libraries/CMSIS/DSP/Source/TransformFunctions/arm_cfft_q31.c **** 
 215:./Libraries/CMSIS/DSP/Source/TransformFunctions/arm_cfft_q31.c ****      xt =          (pSrc[2 * i] >> 2U) - (pSrc[2 * l] >> 2U);
 749              		.loc 1 215 25 discriminator 3
 750 003c FB6D     		ldr	r3, [r7, #92]
 751 003e DB00     		lsls	r3, r3, #3
 752 0040 7A6B     		ldr	r2, [r7, #52]
 753 0042 1344     		add	r3, r3, r2
 754 0044 1B68     		ldr	r3, [r3]
 755              		.loc 1 215 33 discriminator 3
ARM GAS  /tmp/cc0WtTjg.s 			page 18


 756 0046 9910     		asrs	r1, r3, #2
 757              		.loc 1 215 47 discriminator 3
 758 0048 FB6B     		ldr	r3, [r7, #60]
 759 004a DA00     		lsls	r2, r3, #3
 760 004c 7B6B     		ldr	r3, [r7, #52]
 761 004e 1344     		add	r3, r3, r2
 762 0050 1B68     		ldr	r3, [r3]
 763              		.loc 1 215 55 discriminator 3
 764 0052 9B10     		asrs	r3, r3, #2
 765              		.loc 1 215 9 discriminator 3
 766 0054 CB1A     		subs	r3, r1, r3
 767 0056 FB64     		str	r3, [r7, #76]
 216:./Libraries/CMSIS/DSP/Source/TransformFunctions/arm_cfft_q31.c ****      pSrc[2 * i] = (pSrc[2 * i] >> 2U) + (pSrc[2 * l] >> 2U);
 768              		.loc 1 216 25 discriminator 3
 769 0058 FB6D     		ldr	r3, [r7, #92]
 770 005a DB00     		lsls	r3, r3, #3
 771 005c 7A6B     		ldr	r2, [r7, #52]
 772 005e 1344     		add	r3, r3, r2
 773 0060 1B68     		ldr	r3, [r3]
 774              		.loc 1 216 33 discriminator 3
 775 0062 9810     		asrs	r0, r3, #2
 776              		.loc 1 216 47 discriminator 3
 777 0064 FB6B     		ldr	r3, [r7, #60]
 778 0066 DA00     		lsls	r2, r3, #3
 779 0068 7B6B     		ldr	r3, [r7, #52]
 780 006a 1344     		add	r3, r3, r2
 781 006c 1B68     		ldr	r3, [r3]
 782              		.loc 1 216 55 discriminator 3
 783 006e 9910     		asrs	r1, r3, #2
 784              		.loc 1 216 10 discriminator 3
 785 0070 FB6D     		ldr	r3, [r7, #92]
 786 0072 DA00     		lsls	r2, r3, #3
 787 0074 7B6B     		ldr	r3, [r7, #52]
 788 0076 1A44     		add	r2, r2, r3
 789              		.loc 1 216 40 discriminator 3
 790 0078 4318     		adds	r3, r0, r1
 791              		.loc 1 216 18 discriminator 3
 792 007a 1360     		str	r3, [r2]
 217:./Libraries/CMSIS/DSP/Source/TransformFunctions/arm_cfft_q31.c **** 
 218:./Libraries/CMSIS/DSP/Source/TransformFunctions/arm_cfft_q31.c ****      yt =              (pSrc[2 * i + 1] >> 2U) - (pSrc[2 * l + 1] >> 2U);
 793              		.loc 1 218 29 discriminator 3
 794 007c FB6D     		ldr	r3, [r7, #92]
 795 007e DB00     		lsls	r3, r3, #3
 796 0080 0433     		adds	r3, r3, #4
 797 0082 7A6B     		ldr	r2, [r7, #52]
 798 0084 1344     		add	r3, r3, r2
 799 0086 1B68     		ldr	r3, [r3]
 800              		.loc 1 218 41 discriminator 3
 801 0088 9910     		asrs	r1, r3, #2
 802              		.loc 1 218 55 discriminator 3
 803 008a FB6B     		ldr	r3, [r7, #60]
 804 008c DB00     		lsls	r3, r3, #3
 805 008e 1A1D     		adds	r2, r3, #4
 806 0090 7B6B     		ldr	r3, [r7, #52]
 807 0092 1344     		add	r3, r3, r2
 808 0094 1B68     		ldr	r3, [r3]
 809              		.loc 1 218 67 discriminator 3
ARM GAS  /tmp/cc0WtTjg.s 			page 19


 810 0096 9B10     		asrs	r3, r3, #2
 811              		.loc 1 218 9 discriminator 3
 812 0098 CB1A     		subs	r3, r1, r3
 813 009a BB64     		str	r3, [r7, #72]
 219:./Libraries/CMSIS/DSP/Source/TransformFunctions/arm_cfft_q31.c ****      pSrc[2 * i + 1] = (pSrc[2 * l + 1] >> 2U) + (pSrc[2 * i + 1] >> 2U);
 814              		.loc 1 219 29 discriminator 3
 815 009c FB6B     		ldr	r3, [r7, #60]
 816 009e DB00     		lsls	r3, r3, #3
 817 00a0 0433     		adds	r3, r3, #4
 818 00a2 7A6B     		ldr	r2, [r7, #52]
 819 00a4 1344     		add	r3, r3, r2
 820 00a6 1B68     		ldr	r3, [r3]
 821              		.loc 1 219 41 discriminator 3
 822 00a8 9810     		asrs	r0, r3, #2
 823              		.loc 1 219 55 discriminator 3
 824 00aa FB6D     		ldr	r3, [r7, #92]
 825 00ac DB00     		lsls	r3, r3, #3
 826 00ae 1A1D     		adds	r2, r3, #4
 827 00b0 7B6B     		ldr	r3, [r7, #52]
 828 00b2 1344     		add	r3, r3, r2
 829 00b4 1B68     		ldr	r3, [r3]
 830              		.loc 1 219 67 discriminator 3
 831 00b6 9910     		asrs	r1, r3, #2
 832              		.loc 1 219 10 discriminator 3
 833 00b8 FB6D     		ldr	r3, [r7, #92]
 834 00ba DB00     		lsls	r3, r3, #3
 835 00bc 1A1D     		adds	r2, r3, #4
 836 00be 7B6B     		ldr	r3, [r7, #52]
 837 00c0 1A44     		add	r2, r2, r3
 838              		.loc 1 219 48 discriminator 3
 839 00c2 4318     		adds	r3, r0, r1
 840              		.loc 1 219 22 discriminator 3
 841 00c4 1360     		str	r3, [r2]
 220:./Libraries/CMSIS/DSP/Source/TransformFunctions/arm_cfft_q31.c **** 
 221:./Libraries/CMSIS/DSP/Source/TransformFunctions/arm_cfft_q31.c ****      mult_32x32_keep32_R(p0, xt, cosVal);
 842              		.loc 1 221 6 discriminator 3
 843 00c6 FB6C     		ldr	r3, [r7, #76]
 844 00c8 1846     		mov	r0, r3
 845 00ca 4FEAE071 		asr	r1, r0, #31
 846 00ce 7B6C     		ldr	r3, [r7, #68]
 847 00d0 1A46     		mov	r2, r3
 848 00d2 4FEAE273 		asr	r3, r2, #31
 849 00d6 02FB01F5 		mul	r5, r2, r1
 850 00da 00FB03F4 		mul	r4, r0, r3
 851 00de 2C44     		add	r4, r4, r5
 852 00e0 A0FB0223 		umull	r2, r3, r0, r2
 853 00e4 E118     		adds	r1, r4, r3
 854 00e6 0B46     		mov	r3, r1
 855 00e8 12F1004A 		adds	r10, r2, #-2147483648
 856 00ec 43F1000B 		adc	fp, r3, #0
 857 00f0 4FF00002 		mov	r2, #0
 858 00f4 4FF00003 		mov	r3, #0
 859 00f8 5A46     		mov	r2, fp
 860 00fa 4FEAEB73 		asr	r3, fp, #31
 861 00fe 1346     		mov	r3, r2
 862 0100 7B65     		str	r3, [r7, #84]
 222:./Libraries/CMSIS/DSP/Source/TransformFunctions/arm_cfft_q31.c ****      mult_32x32_keep32_R(p1, yt, cosVal);
ARM GAS  /tmp/cc0WtTjg.s 			page 20


 863              		.loc 1 222 6 discriminator 3
 864 0102 BB6C     		ldr	r3, [r7, #72]
 865 0104 1846     		mov	r0, r3
 866 0106 4FEAE071 		asr	r1, r0, #31
 867 010a 7B6C     		ldr	r3, [r7, #68]
 868 010c 1A46     		mov	r2, r3
 869 010e 4FEAE273 		asr	r3, r2, #31
 870 0112 02FB01F5 		mul	r5, r2, r1
 871 0116 00FB03F4 		mul	r4, r0, r3
 872 011a 2C44     		add	r4, r4, r5
 873 011c A0FB0223 		umull	r2, r3, r0, r2
 874 0120 E118     		adds	r1, r4, r3
 875 0122 0B46     		mov	r3, r1
 876 0124 12F10041 		adds	r1, r2, #-2147483648
 877 0128 3962     		str	r1, [r7, #32]
 878 012a 43F10003 		adc	r3, r3, #0
 879 012e 7B62     		str	r3, [r7, #36]
 880 0130 4FF00002 		mov	r2, #0
 881 0134 4FF00003 		mov	r3, #0
 882 0138 D7E90845 		ldrd	r4, [r7, #32]
 883 013c 2946     		mov	r1, r5
 884 013e 0A00     		movs	r2, r1
 885 0140 2946     		mov	r1, r5
 886 0142 CB17     		asrs	r3, r1, #31
 887 0144 1346     		mov	r3, r2
 888 0146 3B65     		str	r3, [r7, #80]
 223:./Libraries/CMSIS/DSP/Source/TransformFunctions/arm_cfft_q31.c ****      multSub_32x32_keep32_R(p0, yt, sinVal);
 889              		.loc 1 223 6 discriminator 3
 890 0148 7B6D     		ldr	r3, [r7, #84]
 891 014a 1A46     		mov	r2, r3
 892 014c 4FEAE273 		asr	r3, r2, #31
 893 0150 4FF00008 		mov	r8, #0
 894 0154 4FF00009 		mov	r9, #0
 895 0158 9146     		mov	r9, r2
 896 015a 4FF00008 		mov	r8, #0
 897 015e BB6C     		ldr	r3, [r7, #72]
 898 0160 1846     		mov	r0, r3
 899 0162 4FEAE071 		asr	r1, r0, #31
 900 0166 3B6C     		ldr	r3, [r7, #64]
 901 0168 1A46     		mov	r2, r3
 902 016a 4FEAE273 		asr	r3, r2, #31
 903 016e 02FB01F5 		mul	r5, r2, r1
 904 0172 00FB03F4 		mul	r4, r0, r3
 905 0176 2C44     		add	r4, r4, r5
 906 0178 A0FB0223 		umull	r2, r3, r0, r2
 907 017c E118     		adds	r1, r4, r3
 908 017e 0B46     		mov	r3, r1
 909 0180 B8EB0201 		subs	r1, r8, r2
 910 0184 B961     		str	r1, [r7, #24]
 911 0186 69EB0303 		sbc	r3, r9, r3
 912 018a FB61     		str	r3, [r7, #28]
 913 018c D7E90612 		ldrd	r1, [r7, #24]
 914 0190 0B46     		mov	r3, r1
 915 0192 13F10043 		adds	r3, r3, #-2147483648
 916 0196 3B61     		str	r3, [r7, #16]
 917 0198 1346     		mov	r3, r2
 918 019a 43F10003 		adc	r3, r3, #0
ARM GAS  /tmp/cc0WtTjg.s 			page 21


 919 019e 7B61     		str	r3, [r7, #20]
 920 01a0 4FF00002 		mov	r2, #0
 921 01a4 4FF00003 		mov	r3, #0
 922 01a8 D7E90445 		ldrd	r4, [r7, #16]
 923 01ac 2946     		mov	r1, r5
 924 01ae 0A00     		movs	r2, r1
 925 01b0 2946     		mov	r1, r5
 926 01b2 CB17     		asrs	r3, r1, #31
 927 01b4 1346     		mov	r3, r2
 928 01b6 7B65     		str	r3, [r7, #84]
 224:./Libraries/CMSIS/DSP/Source/TransformFunctions/arm_cfft_q31.c ****      multAcc_32x32_keep32_R(p1, xt, sinVal);
 929              		.loc 1 224 6 discriminator 3
 930 01b8 3B6D     		ldr	r3, [r7, #80]
 931 01ba 1A46     		mov	r2, r3
 932 01bc 4FEAE273 		asr	r3, r2, #31
 933 01c0 4FF00008 		mov	r8, #0
 934 01c4 4FF00009 		mov	r9, #0
 935 01c8 9146     		mov	r9, r2
 936 01ca 4FF00008 		mov	r8, #0
 937 01ce FB6C     		ldr	r3, [r7, #76]
 938 01d0 1846     		mov	r0, r3
 939 01d2 4FEAE071 		asr	r1, r0, #31
 940 01d6 3B6C     		ldr	r3, [r7, #64]
 941 01d8 1A46     		mov	r2, r3
 942 01da 4FEAE273 		asr	r3, r2, #31
 943 01de 02FB01F5 		mul	r5, r2, r1
 944 01e2 00FB03F4 		mul	r4, r0, r3
 945 01e6 2C44     		add	r4, r4, r5
 946 01e8 A0FB0223 		umull	r2, r3, r0, r2
 947 01ec E118     		adds	r1, r4, r3
 948 01ee 0B46     		mov	r3, r1
 949 01f0 18EB0201 		adds	r1, r8, r2
 950 01f4 B960     		str	r1, [r7, #8]
 951 01f6 49EB0303 		adc	r3, r9, r3
 952 01fa FB60     		str	r3, [r7, #12]
 953 01fc D7E90212 		ldrd	r1, [r7, #8]
 954 0200 0B46     		mov	r3, r1
 955 0202 13F10043 		adds	r3, r3, #-2147483648
 956 0206 3B60     		str	r3, [r7]
 957 0208 1346     		mov	r3, r2
 958 020a 43F10003 		adc	r3, r3, #0
 959 020e 7B60     		str	r3, [r7, #4]
 960 0210 4FF00002 		mov	r2, #0
 961 0214 4FF00003 		mov	r3, #0
 962 0218 D7E90045 		ldrd	r4, [r7]
 963 021c 2946     		mov	r1, r5
 964 021e 0A00     		movs	r2, r1
 965 0220 2946     		mov	r1, r5
 966 0222 CB17     		asrs	r3, r1, #31
 967 0224 1346     		mov	r3, r2
 968 0226 3B65     		str	r3, [r7, #80]
 225:./Libraries/CMSIS/DSP/Source/TransformFunctions/arm_cfft_q31.c **** 
 226:./Libraries/CMSIS/DSP/Source/TransformFunctions/arm_cfft_q31.c ****      pSrc[2 * l]     = p0 << 1U;
 969              		.loc 1 226 10 discriminator 3
 970 0228 FB6B     		ldr	r3, [r7, #60]
 971 022a DB00     		lsls	r3, r3, #3
 972 022c 7A6B     		ldr	r2, [r7, #52]
ARM GAS  /tmp/cc0WtTjg.s 			page 22


 973 022e 1A44     		add	r2, r2, r3
 974              		.loc 1 226 27 discriminator 3
 975 0230 7B6D     		ldr	r3, [r7, #84]
 976 0232 5B00     		lsls	r3, r3, #1
 977              		.loc 1 226 22 discriminator 3
 978 0234 1360     		str	r3, [r2]
 227:./Libraries/CMSIS/DSP/Source/TransformFunctions/arm_cfft_q31.c ****      pSrc[2 * l + 1] = p1 << 1U;
 979              		.loc 1 227 10 discriminator 3
 980 0236 FB6B     		ldr	r3, [r7, #60]
 981 0238 DB00     		lsls	r3, r3, #3
 982 023a 0433     		adds	r3, r3, #4
 983 023c 7A6B     		ldr	r2, [r7, #52]
 984 023e 1A44     		add	r2, r2, r3
 985              		.loc 1 227 27 discriminator 3
 986 0240 3B6D     		ldr	r3, [r7, #80]
 987 0242 5B00     		lsls	r3, r3, #1
 988              		.loc 1 227 22 discriminator 3
 989 0244 1360     		str	r3, [r2]
 208:./Libraries/CMSIS/DSP/Source/TransformFunctions/arm_cfft_q31.c ****   {
 990              		.loc 1 208 24 discriminator 3
 991 0246 FB6D     		ldr	r3, [r7, #92]
 992 0248 0133     		adds	r3, r3, #1
 993 024a FB65     		str	r3, [r7, #92]
 994              	.L17:
 208:./Libraries/CMSIS/DSP/Source/TransformFunctions/arm_cfft_q31.c ****   {
 995              		.loc 1 208 3 discriminator 1
 996 024c FA6D     		ldr	r2, [r7, #92]
 997 024e BB6D     		ldr	r3, [r7, #88]
 998 0250 9A42     		cmp	r2, r3
 999 0252 FFF4E2AE 		bcc	.L18
 228:./Libraries/CMSIS/DSP/Source/TransformFunctions/arm_cfft_q31.c ****   }
 229:./Libraries/CMSIS/DSP/Source/TransformFunctions/arm_cfft_q31.c **** 
 230:./Libraries/CMSIS/DSP/Source/TransformFunctions/arm_cfft_q31.c ****   /* first col */
 231:./Libraries/CMSIS/DSP/Source/TransformFunctions/arm_cfft_q31.c ****   arm_radix4_butterfly_inverse_q31( pSrc,          n2, (q31_t*)pCoef, 2U);
 1000              		.loc 1 231 3
 1001 0256 0223     		movs	r3, #2
 1002 0258 FA6A     		ldr	r2, [r7, #44]
 1003 025a B96D     		ldr	r1, [r7, #88]
 1004 025c 786B     		ldr	r0, [r7, #52]
 1005 025e FFF7FEFF 		bl	arm_radix4_butterfly_inverse_q31
 232:./Libraries/CMSIS/DSP/Source/TransformFunctions/arm_cfft_q31.c **** 
 233:./Libraries/CMSIS/DSP/Source/TransformFunctions/arm_cfft_q31.c ****   /* second col */
 234:./Libraries/CMSIS/DSP/Source/TransformFunctions/arm_cfft_q31.c ****   arm_radix4_butterfly_inverse_q31( pSrc + fftLen, n2, (q31_t*)pCoef, 2U);
 1006              		.loc 1 234 42
 1007 0262 3B6B     		ldr	r3, [r7, #48]
 1008 0264 9B00     		lsls	r3, r3, #2
 1009              		.loc 1 234 3
 1010 0266 7A6B     		ldr	r2, [r7, #52]
 1011 0268 D018     		adds	r0, r2, r3
 1012 026a 0223     		movs	r3, #2
 1013 026c FA6A     		ldr	r2, [r7, #44]
 1014 026e B96D     		ldr	r1, [r7, #88]
 1015 0270 FFF7FEFF 		bl	arm_radix4_butterfly_inverse_q31
 235:./Libraries/CMSIS/DSP/Source/TransformFunctions/arm_cfft_q31.c **** 
 236:./Libraries/CMSIS/DSP/Source/TransformFunctions/arm_cfft_q31.c ****   n2 = fftLen >> 1U;
 1016              		.loc 1 236 6
 1017 0274 3B6B     		ldr	r3, [r7, #48]
ARM GAS  /tmp/cc0WtTjg.s 			page 23


 1018 0276 5B08     		lsrs	r3, r3, #1
 1019 0278 BB65     		str	r3, [r7, #88]
 237:./Libraries/CMSIS/DSP/Source/TransformFunctions/arm_cfft_q31.c ****   for (i = 0; i < n2; i++)
 1020              		.loc 1 237 10
 1021 027a 0023     		movs	r3, #0
 1022 027c FB65     		str	r3, [r7, #92]
 1023              		.loc 1 237 3
 1024 027e 44E0     		b	.L19
 1025              	.L20:
 238:./Libraries/CMSIS/DSP/Source/TransformFunctions/arm_cfft_q31.c ****   {
 239:./Libraries/CMSIS/DSP/Source/TransformFunctions/arm_cfft_q31.c ****      p0 = pSrc[4 * i + 0];
 1026              		.loc 1 239 15 discriminator 3
 1027 0280 FB6D     		ldr	r3, [r7, #92]
 1028 0282 1B01     		lsls	r3, r3, #4
 1029 0284 7A6B     		ldr	r2, [r7, #52]
 1030 0286 1344     		add	r3, r3, r2
 1031              		.loc 1 239 9 discriminator 3
 1032 0288 1B68     		ldr	r3, [r3]
 1033 028a 7B65     		str	r3, [r7, #84]
 240:./Libraries/CMSIS/DSP/Source/TransformFunctions/arm_cfft_q31.c ****      p1 = pSrc[4 * i + 1];
 1034              		.loc 1 240 15 discriminator 3
 1035 028c FB6D     		ldr	r3, [r7, #92]
 1036 028e 1B01     		lsls	r3, r3, #4
 1037 0290 0433     		adds	r3, r3, #4
 1038 0292 7A6B     		ldr	r2, [r7, #52]
 1039 0294 1344     		add	r3, r3, r2
 1040              		.loc 1 240 9 discriminator 3
 1041 0296 1B68     		ldr	r3, [r3]
 1042 0298 3B65     		str	r3, [r7, #80]
 241:./Libraries/CMSIS/DSP/Source/TransformFunctions/arm_cfft_q31.c ****      xt = pSrc[4 * i + 2];
 1043              		.loc 1 241 15 discriminator 3
 1044 029a FB6D     		ldr	r3, [r7, #92]
 1045 029c 1B01     		lsls	r3, r3, #4
 1046 029e 0833     		adds	r3, r3, #8
 1047 02a0 7A6B     		ldr	r2, [r7, #52]
 1048 02a2 1344     		add	r3, r3, r2
 1049              		.loc 1 241 9 discriminator 3
 1050 02a4 1B68     		ldr	r3, [r3]
 1051 02a6 FB64     		str	r3, [r7, #76]
 242:./Libraries/CMSIS/DSP/Source/TransformFunctions/arm_cfft_q31.c ****      yt = pSrc[4 * i + 3];
 1052              		.loc 1 242 15 discriminator 3
 1053 02a8 FB6D     		ldr	r3, [r7, #92]
 1054 02aa 1B01     		lsls	r3, r3, #4
 1055 02ac 0C33     		adds	r3, r3, #12
 1056 02ae 7A6B     		ldr	r2, [r7, #52]
 1057 02b0 1344     		add	r3, r3, r2
 1058              		.loc 1 242 9 discriminator 3
 1059 02b2 1B68     		ldr	r3, [r3]
 1060 02b4 BB64     		str	r3, [r7, #72]
 243:./Libraries/CMSIS/DSP/Source/TransformFunctions/arm_cfft_q31.c **** 
 244:./Libraries/CMSIS/DSP/Source/TransformFunctions/arm_cfft_q31.c ****      p0 <<= 1U;
 1061              		.loc 1 244 9 discriminator 3
 1062 02b6 7B6D     		ldr	r3, [r7, #84]
 1063 02b8 5B00     		lsls	r3, r3, #1
 1064 02ba 7B65     		str	r3, [r7, #84]
 245:./Libraries/CMSIS/DSP/Source/TransformFunctions/arm_cfft_q31.c ****      p1 <<= 1U;
 1065              		.loc 1 245 9 discriminator 3
ARM GAS  /tmp/cc0WtTjg.s 			page 24


 1066 02bc 3B6D     		ldr	r3, [r7, #80]
 1067 02be 5B00     		lsls	r3, r3, #1
 1068 02c0 3B65     		str	r3, [r7, #80]
 246:./Libraries/CMSIS/DSP/Source/TransformFunctions/arm_cfft_q31.c ****      xt <<= 1U;
 1069              		.loc 1 246 9 discriminator 3
 1070 02c2 FB6C     		ldr	r3, [r7, #76]
 1071 02c4 5B00     		lsls	r3, r3, #1
 1072 02c6 FB64     		str	r3, [r7, #76]
 247:./Libraries/CMSIS/DSP/Source/TransformFunctions/arm_cfft_q31.c ****      yt <<= 1U;
 1073              		.loc 1 247 9 discriminator 3
 1074 02c8 BB6C     		ldr	r3, [r7, #72]
 1075 02ca 5B00     		lsls	r3, r3, #1
 1076 02cc BB64     		str	r3, [r7, #72]
 248:./Libraries/CMSIS/DSP/Source/TransformFunctions/arm_cfft_q31.c **** 
 249:./Libraries/CMSIS/DSP/Source/TransformFunctions/arm_cfft_q31.c ****      pSrc[4 * i + 0] = p0;
 1077              		.loc 1 249 10 discriminator 3
 1078 02ce FB6D     		ldr	r3, [r7, #92]
 1079 02d0 1B01     		lsls	r3, r3, #4
 1080 02d2 7A6B     		ldr	r2, [r7, #52]
 1081 02d4 1344     		add	r3, r3, r2
 1082              		.loc 1 249 22 discriminator 3
 1083 02d6 7A6D     		ldr	r2, [r7, #84]
 1084 02d8 1A60     		str	r2, [r3]
 250:./Libraries/CMSIS/DSP/Source/TransformFunctions/arm_cfft_q31.c ****      pSrc[4 * i + 1] = p1;
 1085              		.loc 1 250 10 discriminator 3
 1086 02da FB6D     		ldr	r3, [r7, #92]
 1087 02dc 1B01     		lsls	r3, r3, #4
 1088 02de 0433     		adds	r3, r3, #4
 1089 02e0 7A6B     		ldr	r2, [r7, #52]
 1090 02e2 1344     		add	r3, r3, r2
 1091              		.loc 1 250 22 discriminator 3
 1092 02e4 3A6D     		ldr	r2, [r7, #80]
 1093 02e6 1A60     		str	r2, [r3]
 251:./Libraries/CMSIS/DSP/Source/TransformFunctions/arm_cfft_q31.c ****      pSrc[4 * i + 2] = xt;
 1094              		.loc 1 251 10 discriminator 3
 1095 02e8 FB6D     		ldr	r3, [r7, #92]
 1096 02ea 1B01     		lsls	r3, r3, #4
 1097 02ec 0833     		adds	r3, r3, #8
 1098 02ee 7A6B     		ldr	r2, [r7, #52]
 1099 02f0 1344     		add	r3, r3, r2
 1100              		.loc 1 251 22 discriminator 3
 1101 02f2 FA6C     		ldr	r2, [r7, #76]
 1102 02f4 1A60     		str	r2, [r3]
 252:./Libraries/CMSIS/DSP/Source/TransformFunctions/arm_cfft_q31.c ****      pSrc[4 * i + 3] = yt;
 1103              		.loc 1 252 10 discriminator 3
 1104 02f6 FB6D     		ldr	r3, [r7, #92]
 1105 02f8 1B01     		lsls	r3, r3, #4
 1106 02fa 0C33     		adds	r3, r3, #12
 1107 02fc 7A6B     		ldr	r2, [r7, #52]
 1108 02fe 1344     		add	r3, r3, r2
 1109              		.loc 1 252 22 discriminator 3
 1110 0300 BA6C     		ldr	r2, [r7, #72]
 1111 0302 1A60     		str	r2, [r3]
 237:./Libraries/CMSIS/DSP/Source/TransformFunctions/arm_cfft_q31.c ****   {
 1112              		.loc 1 237 24 discriminator 3
 1113 0304 FB6D     		ldr	r3, [r7, #92]
 1114 0306 0133     		adds	r3, r3, #1
ARM GAS  /tmp/cc0WtTjg.s 			page 25


 1115 0308 FB65     		str	r3, [r7, #92]
 1116              	.L19:
 237:./Libraries/CMSIS/DSP/Source/TransformFunctions/arm_cfft_q31.c ****   {
 1117              		.loc 1 237 3 discriminator 1
 1118 030a FA6D     		ldr	r2, [r7, #92]
 1119 030c BB6D     		ldr	r3, [r7, #88]
 1120 030e 9A42     		cmp	r2, r3
 1121 0310 B6D3     		bcc	.L20
 253:./Libraries/CMSIS/DSP/Source/TransformFunctions/arm_cfft_q31.c ****   }
 254:./Libraries/CMSIS/DSP/Source/TransformFunctions/arm_cfft_q31.c **** }
 1122              		.loc 1 254 1
 1123 0312 00BF     		nop
 1124 0314 00BF     		nop
 1125 0316 6037     		adds	r7, r7, #96
 1126              	.LCFI13:
 1127              		.cfi_def_cfa_offset 32
 1128 0318 BD46     		mov	sp, r7
 1129              	.LCFI14:
 1130              		.cfi_def_cfa_register 13
 1131              		@ sp needed
 1132 031a BDE8B08F 		pop	{r4, r5, r7, r8, r9, r10, fp, pc}
 1133              		.cfi_endproc
 1134              	.LFE147:
 1136              		.text
 1137              	.Letext0:
 1138              		.file 2 "/usr/lib/gcc/arm-none-eabi/9.2.1/include/stdint.h"
 1139              		.file 3 "/usr/lib/gcc/arm-none-eabi/9.2.1/include/stddef.h"
 1140              		.file 4 "/usr/include/newlib/sys/_types.h"
 1141              		.file 5 "/usr/include/newlib/sys/reent.h"
 1142              		.file 6 "/usr/include/newlib/sys/lock.h"
 1143              		.file 7 "/usr/include/newlib/math.h"
 1144              		.file 8 "./Libraries/CMSIS/DSP/Include/arm_math.h"
ARM GAS  /tmp/cc0WtTjg.s 			page 26

