ARM GAS  /tmp/ccFmaIvp.s 			page 1


   1              		.cpu cortex-m7
   2              		.eabi_attribute 28, 1
   3              		.eabi_attribute 20, 1
   4              		.eabi_attribute 21, 1
   5              		.eabi_attribute 23, 3
   6              		.eabi_attribute 24, 1
   7              		.eabi_attribute 25, 1
   8              		.eabi_attribute 26, 1
   9              		.eabi_attribute 30, 6
  10              		.eabi_attribute 34, 1
  11              		.eabi_attribute 18, 4
  12              		.file	"arm_sin_f32.c"
  13              		.text
  14              	.Ltext0:
  15              		.cfi_sections	.debug_frame
  16              		.section	.text.arm_sin_f32,"ax",%progbits
  17              		.align	1
  18              		.global	arm_sin_f32
  19              		.arch armv7e-m
  20              		.syntax unified
  21              		.thumb
  22              		.thumb_func
  23              		.fpu fpv5-d16
  25              	arm_sin_f32:
  26              	.LFB145:
  27              		.file 1 "./Libraries/CMSIS/DSP/Source/FastMathFunctions/arm_sin_f32.c"
   1:./Libraries/CMSIS/DSP/Source/FastMathFunctions/arm_sin_f32.c **** /* ----------------------------------------------------------------------
   2:./Libraries/CMSIS/DSP/Source/FastMathFunctions/arm_sin_f32.c ****  * Project:      CMSIS DSP Library
   3:./Libraries/CMSIS/DSP/Source/FastMathFunctions/arm_sin_f32.c ****  * Title:        arm_sin_f32.c
   4:./Libraries/CMSIS/DSP/Source/FastMathFunctions/arm_sin_f32.c ****  * Description:  Fast sine calculation for floating-point values
   5:./Libraries/CMSIS/DSP/Source/FastMathFunctions/arm_sin_f32.c ****  *
   6:./Libraries/CMSIS/DSP/Source/FastMathFunctions/arm_sin_f32.c ****  * $Date:        18. March 2019
   7:./Libraries/CMSIS/DSP/Source/FastMathFunctions/arm_sin_f32.c ****  * $Revision:    V1.6.0
   8:./Libraries/CMSIS/DSP/Source/FastMathFunctions/arm_sin_f32.c ****  *
   9:./Libraries/CMSIS/DSP/Source/FastMathFunctions/arm_sin_f32.c ****  * Target Processor: Cortex-M cores
  10:./Libraries/CMSIS/DSP/Source/FastMathFunctions/arm_sin_f32.c ****  * -------------------------------------------------------------------- */
  11:./Libraries/CMSIS/DSP/Source/FastMathFunctions/arm_sin_f32.c **** /*
  12:./Libraries/CMSIS/DSP/Source/FastMathFunctions/arm_sin_f32.c ****  * Copyright (C) 2010-2019 ARM Limited or its affiliates. All rights reserved.
  13:./Libraries/CMSIS/DSP/Source/FastMathFunctions/arm_sin_f32.c ****  *
  14:./Libraries/CMSIS/DSP/Source/FastMathFunctions/arm_sin_f32.c ****  * SPDX-License-Identifier: Apache-2.0
  15:./Libraries/CMSIS/DSP/Source/FastMathFunctions/arm_sin_f32.c ****  *
  16:./Libraries/CMSIS/DSP/Source/FastMathFunctions/arm_sin_f32.c ****  * Licensed under the Apache License, Version 2.0 (the License); you may
  17:./Libraries/CMSIS/DSP/Source/FastMathFunctions/arm_sin_f32.c ****  * not use this file except in compliance with the License.
  18:./Libraries/CMSIS/DSP/Source/FastMathFunctions/arm_sin_f32.c ****  * You may obtain a copy of the License at
  19:./Libraries/CMSIS/DSP/Source/FastMathFunctions/arm_sin_f32.c ****  *
  20:./Libraries/CMSIS/DSP/Source/FastMathFunctions/arm_sin_f32.c ****  * www.apache.org/licenses/LICENSE-2.0
  21:./Libraries/CMSIS/DSP/Source/FastMathFunctions/arm_sin_f32.c ****  *
  22:./Libraries/CMSIS/DSP/Source/FastMathFunctions/arm_sin_f32.c ****  * Unless required by applicable law or agreed to in writing, software
  23:./Libraries/CMSIS/DSP/Source/FastMathFunctions/arm_sin_f32.c ****  * distributed under the License is distributed on an AS IS BASIS, WITHOUT
  24:./Libraries/CMSIS/DSP/Source/FastMathFunctions/arm_sin_f32.c ****  * WARRANTIES OR CONDITIONS OF ANY KIND, either express or implied.
  25:./Libraries/CMSIS/DSP/Source/FastMathFunctions/arm_sin_f32.c ****  * See the License for the specific language governing permissions and
  26:./Libraries/CMSIS/DSP/Source/FastMathFunctions/arm_sin_f32.c ****  * limitations under the License.
  27:./Libraries/CMSIS/DSP/Source/FastMathFunctions/arm_sin_f32.c ****  */
  28:./Libraries/CMSIS/DSP/Source/FastMathFunctions/arm_sin_f32.c **** 
  29:./Libraries/CMSIS/DSP/Source/FastMathFunctions/arm_sin_f32.c **** #include "arm_math.h"
  30:./Libraries/CMSIS/DSP/Source/FastMathFunctions/arm_sin_f32.c **** #include "arm_common_tables.h"
  31:./Libraries/CMSIS/DSP/Source/FastMathFunctions/arm_sin_f32.c **** 
ARM GAS  /tmp/ccFmaIvp.s 			page 2


  32:./Libraries/CMSIS/DSP/Source/FastMathFunctions/arm_sin_f32.c **** /**
  33:./Libraries/CMSIS/DSP/Source/FastMathFunctions/arm_sin_f32.c ****   @ingroup groupFastMath
  34:./Libraries/CMSIS/DSP/Source/FastMathFunctions/arm_sin_f32.c ****  */
  35:./Libraries/CMSIS/DSP/Source/FastMathFunctions/arm_sin_f32.c **** 
  36:./Libraries/CMSIS/DSP/Source/FastMathFunctions/arm_sin_f32.c **** /**
  37:./Libraries/CMSIS/DSP/Source/FastMathFunctions/arm_sin_f32.c ****   @defgroup sin Sine
  38:./Libraries/CMSIS/DSP/Source/FastMathFunctions/arm_sin_f32.c **** 
  39:./Libraries/CMSIS/DSP/Source/FastMathFunctions/arm_sin_f32.c ****   Computes the trigonometric sine function using a combination of table lookup
  40:./Libraries/CMSIS/DSP/Source/FastMathFunctions/arm_sin_f32.c ****   and linear interpolation.  There are separate functions for
  41:./Libraries/CMSIS/DSP/Source/FastMathFunctions/arm_sin_f32.c ****   Q15, Q31, and floating-point data types.
  42:./Libraries/CMSIS/DSP/Source/FastMathFunctions/arm_sin_f32.c ****   The input to the floating-point version is in radians while the
  43:./Libraries/CMSIS/DSP/Source/FastMathFunctions/arm_sin_f32.c ****   fixed-point Q15 and Q31 have a scaled input with the range
  44:./Libraries/CMSIS/DSP/Source/FastMathFunctions/arm_sin_f32.c ****   [0 +0.9999] mapping to [0 2*pi).  The fixed-point range is chosen so that a
  45:./Libraries/CMSIS/DSP/Source/FastMathFunctions/arm_sin_f32.c ****   value of 2*pi wraps around to 0.
  46:./Libraries/CMSIS/DSP/Source/FastMathFunctions/arm_sin_f32.c **** 
  47:./Libraries/CMSIS/DSP/Source/FastMathFunctions/arm_sin_f32.c ****   The implementation is based on table lookup using 256 values together with linear interpolation.
  48:./Libraries/CMSIS/DSP/Source/FastMathFunctions/arm_sin_f32.c ****   The steps used are:
  49:./Libraries/CMSIS/DSP/Source/FastMathFunctions/arm_sin_f32.c ****    -# Calculation of the nearest integer table index
  50:./Libraries/CMSIS/DSP/Source/FastMathFunctions/arm_sin_f32.c ****    -# Compute the fractional portion (fract) of the table index.
  51:./Libraries/CMSIS/DSP/Source/FastMathFunctions/arm_sin_f32.c ****    -# The final result equals <code>(1.0f-fract)*a + fract*b;</code>
  52:./Libraries/CMSIS/DSP/Source/FastMathFunctions/arm_sin_f32.c **** 
  53:./Libraries/CMSIS/DSP/Source/FastMathFunctions/arm_sin_f32.c ****   where
  54:./Libraries/CMSIS/DSP/Source/FastMathFunctions/arm_sin_f32.c ****   <pre>
  55:./Libraries/CMSIS/DSP/Source/FastMathFunctions/arm_sin_f32.c ****      b = Table[index];
  56:./Libraries/CMSIS/DSP/Source/FastMathFunctions/arm_sin_f32.c ****      c = Table[index+1];
  57:./Libraries/CMSIS/DSP/Source/FastMathFunctions/arm_sin_f32.c ****   </pre>
  58:./Libraries/CMSIS/DSP/Source/FastMathFunctions/arm_sin_f32.c ****  */
  59:./Libraries/CMSIS/DSP/Source/FastMathFunctions/arm_sin_f32.c **** 
  60:./Libraries/CMSIS/DSP/Source/FastMathFunctions/arm_sin_f32.c **** /**
  61:./Libraries/CMSIS/DSP/Source/FastMathFunctions/arm_sin_f32.c ****   @addtogroup sin
  62:./Libraries/CMSIS/DSP/Source/FastMathFunctions/arm_sin_f32.c ****   @{
  63:./Libraries/CMSIS/DSP/Source/FastMathFunctions/arm_sin_f32.c ****  */
  64:./Libraries/CMSIS/DSP/Source/FastMathFunctions/arm_sin_f32.c **** 
  65:./Libraries/CMSIS/DSP/Source/FastMathFunctions/arm_sin_f32.c **** /**
  66:./Libraries/CMSIS/DSP/Source/FastMathFunctions/arm_sin_f32.c ****   @brief         Fast approximation to the trigonometric sine function for floating-point data.
  67:./Libraries/CMSIS/DSP/Source/FastMathFunctions/arm_sin_f32.c ****   @param[in]     x  input value in radians.
  68:./Libraries/CMSIS/DSP/Source/FastMathFunctions/arm_sin_f32.c ****   @return        sin(x)
  69:./Libraries/CMSIS/DSP/Source/FastMathFunctions/arm_sin_f32.c ****  */
  70:./Libraries/CMSIS/DSP/Source/FastMathFunctions/arm_sin_f32.c **** 
  71:./Libraries/CMSIS/DSP/Source/FastMathFunctions/arm_sin_f32.c **** float32_t arm_sin_f32(
  72:./Libraries/CMSIS/DSP/Source/FastMathFunctions/arm_sin_f32.c ****   float32_t x)
  73:./Libraries/CMSIS/DSP/Source/FastMathFunctions/arm_sin_f32.c **** {
  28              		.loc 1 73 1
  29              		.cfi_startproc
  30              		@ args = 0, pretend = 0, frame = 40
  31              		@ frame_needed = 1, uses_anonymous_args = 0
  32              		@ link register save eliminated.
  33 0000 80B4     		push	{r7}
  34              	.LCFI0:
  35              		.cfi_def_cfa_offset 4
  36              		.cfi_offset 7, -4
  37 0002 8BB0     		sub	sp, sp, #44
  38              	.LCFI1:
  39              		.cfi_def_cfa_offset 48
  40 0004 00AF     		add	r7, sp, #0
  41              	.LCFI2:
  42              		.cfi_def_cfa_register 7
ARM GAS  /tmp/ccFmaIvp.s 			page 3


  43 0006 87ED010A 		vstr.32	s0, [r7, #4]
  74:./Libraries/CMSIS/DSP/Source/FastMathFunctions/arm_sin_f32.c ****   float32_t sinVal, fract, in;                   /* Temporary input, output variables */
  75:./Libraries/CMSIS/DSP/Source/FastMathFunctions/arm_sin_f32.c ****   uint16_t index;                                /* Index variable */
  76:./Libraries/CMSIS/DSP/Source/FastMathFunctions/arm_sin_f32.c ****   float32_t a, b;                                /* Two nearest output values */
  77:./Libraries/CMSIS/DSP/Source/FastMathFunctions/arm_sin_f32.c ****   int32_t n;
  78:./Libraries/CMSIS/DSP/Source/FastMathFunctions/arm_sin_f32.c ****   float32_t findex;
  79:./Libraries/CMSIS/DSP/Source/FastMathFunctions/arm_sin_f32.c **** 
  80:./Libraries/CMSIS/DSP/Source/FastMathFunctions/arm_sin_f32.c ****   /* input x is in radians */
  81:./Libraries/CMSIS/DSP/Source/FastMathFunctions/arm_sin_f32.c ****   /* Scale input to [0 1] range from [0 2*PI] , divide input by 2*pi */
  82:./Libraries/CMSIS/DSP/Source/FastMathFunctions/arm_sin_f32.c ****   in = x * 0.159154943092f;
  44              		.loc 1 82 6
  45 000a D7ED017A 		vldr.32	s15, [r7, #4]
  46 000e 9FED3A7A 		vldr.32	s14, .L7
  47 0012 67EE877A 		vmul.f32	s15, s15, s14
  48 0016 C7ED067A 		vstr.32	s15, [r7, #24]
  83:./Libraries/CMSIS/DSP/Source/FastMathFunctions/arm_sin_f32.c **** 
  84:./Libraries/CMSIS/DSP/Source/FastMathFunctions/arm_sin_f32.c ****   /* Calculation of floor value of input */
  85:./Libraries/CMSIS/DSP/Source/FastMathFunctions/arm_sin_f32.c ****   n = (int32_t) in;
  49              		.loc 1 85 5
  50 001a D7ED067A 		vldr.32	s15, [r7, #24]
  51 001e FDEEE77A 		vcvt.s32.f32	s15, s15
  52 0022 17EE903A 		vmov	r3, s15	@ int
  53 0026 3B62     		str	r3, [r7, #32]
  86:./Libraries/CMSIS/DSP/Source/FastMathFunctions/arm_sin_f32.c **** 
  87:./Libraries/CMSIS/DSP/Source/FastMathFunctions/arm_sin_f32.c ****   /* Make negative values towards -infinity */
  88:./Libraries/CMSIS/DSP/Source/FastMathFunctions/arm_sin_f32.c ****   if (in < 0.0f)
  54              		.loc 1 88 6
  55 0028 D7ED067A 		vldr.32	s15, [r7, #24]
  56 002c F5EEC07A 		vcmpe.f32	s15, #0
  57 0030 F1EE10FA 		vmrs	APSR_nzcv, FPSCR
  58 0034 02D5     		bpl	.L2
  89:./Libraries/CMSIS/DSP/Source/FastMathFunctions/arm_sin_f32.c ****   {
  90:./Libraries/CMSIS/DSP/Source/FastMathFunctions/arm_sin_f32.c ****     n--;
  59              		.loc 1 90 6
  60 0036 3B6A     		ldr	r3, [r7, #32]
  61 0038 013B     		subs	r3, r3, #1
  62 003a 3B62     		str	r3, [r7, #32]
  63              	.L2:
  91:./Libraries/CMSIS/DSP/Source/FastMathFunctions/arm_sin_f32.c ****   }
  92:./Libraries/CMSIS/DSP/Source/FastMathFunctions/arm_sin_f32.c **** 
  93:./Libraries/CMSIS/DSP/Source/FastMathFunctions/arm_sin_f32.c ****   /* Map input value to [0 1] */
  94:./Libraries/CMSIS/DSP/Source/FastMathFunctions/arm_sin_f32.c ****   in = in - (float32_t) n;
  64              		.loc 1 94 13
  65 003c 3B6A     		ldr	r3, [r7, #32]
  66 003e 07EE903A 		vmov	s15, r3	@ int
  67 0042 F8EEE77A 		vcvt.f32.s32	s15, s15
  68              		.loc 1 94 6
  69 0046 97ED067A 		vldr.32	s14, [r7, #24]
  70 004a 77EE677A 		vsub.f32	s15, s14, s15
  71 004e C7ED067A 		vstr.32	s15, [r7, #24]
  95:./Libraries/CMSIS/DSP/Source/FastMathFunctions/arm_sin_f32.c **** 
  96:./Libraries/CMSIS/DSP/Source/FastMathFunctions/arm_sin_f32.c ****   /* Calculation of index of the table */
  97:./Libraries/CMSIS/DSP/Source/FastMathFunctions/arm_sin_f32.c ****   findex = (float32_t)FAST_MATH_TABLE_SIZE * in;
  72              		.loc 1 97 10
  73 0052 D7ED067A 		vldr.32	s15, [r7, #24]
  74 0056 9FED297A 		vldr.32	s14, .L7+4
  75 005a 67EE877A 		vmul.f32	s15, s15, s14
ARM GAS  /tmp/ccFmaIvp.s 			page 4


  76 005e C7ED077A 		vstr.32	s15, [r7, #28]
  98:./Libraries/CMSIS/DSP/Source/FastMathFunctions/arm_sin_f32.c ****   index = (uint16_t)findex;
  77              		.loc 1 98 9
  78 0062 D7ED077A 		vldr.32	s15, [r7, #28]
  79 0066 FCEEE77A 		vcvt.u32.f32	s15, s15
  80 006a 17EE903A 		vmov	r3, s15	@ int
  81 006e FB84     		strh	r3, [r7, #38]	@ movhi
  99:./Libraries/CMSIS/DSP/Source/FastMathFunctions/arm_sin_f32.c **** 
 100:./Libraries/CMSIS/DSP/Source/FastMathFunctions/arm_sin_f32.c ****   /* when "in" is exactly 1, we need to rotate the index down to 0 */
 101:./Libraries/CMSIS/DSP/Source/FastMathFunctions/arm_sin_f32.c ****   if (index >= FAST_MATH_TABLE_SIZE) {
  82              		.loc 1 101 6
  83 0070 FB8C     		ldrh	r3, [r7, #38]
  84 0072 B3F5007F 		cmp	r3, #512
  85 0076 09D3     		bcc	.L4
 102:./Libraries/CMSIS/DSP/Source/FastMathFunctions/arm_sin_f32.c ****     index = 0;
  86              		.loc 1 102 11
  87 0078 0023     		movs	r3, #0
  88 007a FB84     		strh	r3, [r7, #38]	@ movhi
 103:./Libraries/CMSIS/DSP/Source/FastMathFunctions/arm_sin_f32.c ****     findex -= (float32_t)FAST_MATH_TABLE_SIZE;
  89              		.loc 1 103 12
  90 007c D7ED077A 		vldr.32	s15, [r7, #28]
  91 0080 9FED1E7A 		vldr.32	s14, .L7+4
  92 0084 77EEC77A 		vsub.f32	s15, s15, s14
  93 0088 C7ED077A 		vstr.32	s15, [r7, #28]
  94              	.L4:
 104:./Libraries/CMSIS/DSP/Source/FastMathFunctions/arm_sin_f32.c ****   }
 105:./Libraries/CMSIS/DSP/Source/FastMathFunctions/arm_sin_f32.c **** 
 106:./Libraries/CMSIS/DSP/Source/FastMathFunctions/arm_sin_f32.c ****   /* fractional value calculation */
 107:./Libraries/CMSIS/DSP/Source/FastMathFunctions/arm_sin_f32.c ****   fract = findex - (float32_t) index;
  95              		.loc 1 107 20
  96 008c FB8C     		ldrh	r3, [r7, #38]
  97 008e 07EE903A 		vmov	s15, r3	@ int
  98 0092 F8EE677A 		vcvt.f32.u32	s15, s15
  99              		.loc 1 107 9
 100 0096 97ED077A 		vldr.32	s14, [r7, #28]
 101 009a 77EE677A 		vsub.f32	s15, s14, s15
 102 009e C7ED057A 		vstr.32	s15, [r7, #20]
 108:./Libraries/CMSIS/DSP/Source/FastMathFunctions/arm_sin_f32.c **** 
 109:./Libraries/CMSIS/DSP/Source/FastMathFunctions/arm_sin_f32.c ****   /* Read two nearest values of input value from the sin table */
 110:./Libraries/CMSIS/DSP/Source/FastMathFunctions/arm_sin_f32.c ****   a = sinTable_f32[index];
 103              		.loc 1 110 19
 104 00a2 FB8C     		ldrh	r3, [r7, #38]
 105              		.loc 1 110 5
 106 00a4 164A     		ldr	r2, .L7+8
 107 00a6 9B00     		lsls	r3, r3, #2
 108 00a8 1344     		add	r3, r3, r2
 109 00aa 1B68     		ldr	r3, [r3]	@ float
 110 00ac 3B61     		str	r3, [r7, #16]	@ float
 111:./Libraries/CMSIS/DSP/Source/FastMathFunctions/arm_sin_f32.c ****   b = sinTable_f32[index+1];
 111              		.loc 1 111 25
 112 00ae FB8C     		ldrh	r3, [r7, #38]
 113 00b0 0133     		adds	r3, r3, #1
 114              		.loc 1 111 5
 115 00b2 134A     		ldr	r2, .L7+8
 116 00b4 9B00     		lsls	r3, r3, #2
 117 00b6 1344     		add	r3, r3, r2
 118 00b8 1B68     		ldr	r3, [r3]	@ float
ARM GAS  /tmp/ccFmaIvp.s 			page 5


 119 00ba FB60     		str	r3, [r7, #12]	@ float
 112:./Libraries/CMSIS/DSP/Source/FastMathFunctions/arm_sin_f32.c **** 
 113:./Libraries/CMSIS/DSP/Source/FastMathFunctions/arm_sin_f32.c ****   /* Linear interpolation process */
 114:./Libraries/CMSIS/DSP/Source/FastMathFunctions/arm_sin_f32.c ****   sinVal = (1.0f - fract) * a + fract * b;
 120              		.loc 1 114 18
 121 00bc B7EE007A 		vmov.f32	s14, #1.0e+0
 122 00c0 D7ED057A 		vldr.32	s15, [r7, #20]
 123 00c4 37EE677A 		vsub.f32	s14, s14, s15
 124              		.loc 1 114 27
 125 00c8 D7ED047A 		vldr.32	s15, [r7, #16]
 126 00cc 27EE277A 		vmul.f32	s14, s14, s15
 127              		.loc 1 114 39
 128 00d0 D7ED056A 		vldr.32	s13, [r7, #20]
 129 00d4 D7ED037A 		vldr.32	s15, [r7, #12]
 130 00d8 66EEA77A 		vmul.f32	s15, s13, s15
 131              		.loc 1 114 10
 132 00dc 77EE277A 		vadd.f32	s15, s14, s15
 133 00e0 C7ED027A 		vstr.32	s15, [r7, #8]
 115:./Libraries/CMSIS/DSP/Source/FastMathFunctions/arm_sin_f32.c **** 
 116:./Libraries/CMSIS/DSP/Source/FastMathFunctions/arm_sin_f32.c ****   /* Return output value */
 117:./Libraries/CMSIS/DSP/Source/FastMathFunctions/arm_sin_f32.c ****   return (sinVal);
 134              		.loc 1 117 10
 135 00e4 BB68     		ldr	r3, [r7, #8]	@ float
 136 00e6 07EE903A 		vmov	s15, r3
 118:./Libraries/CMSIS/DSP/Source/FastMathFunctions/arm_sin_f32.c **** }
 137              		.loc 1 118 1
 138 00ea B0EE670A 		vmov.f32	s0, s15
 139 00ee 2C37     		adds	r7, r7, #44
 140              	.LCFI3:
 141              		.cfi_def_cfa_offset 4
 142 00f0 BD46     		mov	sp, r7
 143              	.LCFI4:
 144              		.cfi_def_cfa_register 13
 145              		@ sp needed
 146 00f2 5DF8047B 		ldr	r7, [sp], #4
 147              	.LCFI5:
 148              		.cfi_restore 7
 149              		.cfi_def_cfa_offset 0
 150 00f6 7047     		bx	lr
 151              	.L8:
 152              		.align	2
 153              	.L7:
 154 00f8 83F9223E 		.word	1042479491
 155 00fc 00000044 		.word	1140850688
 156 0100 00000000 		.word	sinTable_f32
 157              		.cfi_endproc
 158              	.LFE145:
 160              		.text
 161              	.Letext0:
 162              		.file 2 "/usr/lib/gcc/arm-none-eabi/9.2.1/include/stdint.h"
 163              		.file 3 "/usr/lib/gcc/arm-none-eabi/9.2.1/include/stddef.h"
 164              		.file 4 "/usr/include/newlib/sys/_types.h"
 165              		.file 5 "/usr/include/newlib/sys/reent.h"
 166              		.file 6 "/usr/include/newlib/sys/lock.h"
 167              		.file 7 "/usr/include/newlib/math.h"
 168              		.file 8 "./Libraries/CMSIS/DSP/Include/arm_math.h"
 169              		.file 9 "./Libraries/CMSIS/DSP/Include/arm_common_tables.h"
ARM GAS  /tmp/ccFmaIvp.s 			page 6


ARM GAS  /tmp/ccFmaIvp.s 			page 7

