ARM GAS  /tmp/ccaCNqpz.s 			page 1


   1              		.cpu cortex-m7
   2              		.eabi_attribute 28, 1
   3              		.eabi_attribute 20, 1
   4              		.eabi_attribute 21, 1
   5              		.eabi_attribute 23, 3
   6              		.eabi_attribute 24, 1
   7              		.eabi_attribute 25, 1
   8              		.eabi_attribute 26, 1
   9              		.eabi_attribute 30, 6
  10              		.eabi_attribute 34, 1
  11              		.eabi_attribute 18, 4
  12              		.file	"arm_rfft_q31.c"
  13              		.text
  14              	.Ltext0:
  15              		.cfi_sections	.debug_frame
  16              		.section	.text.arm_rfft_q31,"ax",%progbits
  17              		.align	1
  18              		.global	arm_rfft_q31
  19              		.arch armv7e-m
  20              		.syntax unified
  21              		.thumb
  22              		.thumb_func
  23              		.fpu fpv5-d16
  25              	arm_rfft_q31:
  26              	.LFB145:
  27              		.file 1 "./Libraries/CMSIS/DSP/Source/TransformFunctions/arm_rfft_q31.c"
   1:./Libraries/CMSIS/DSP/Source/TransformFunctions/arm_rfft_q31.c **** /* ----------------------------------------------------------------------
   2:./Libraries/CMSIS/DSP/Source/TransformFunctions/arm_rfft_q31.c ****  * Project:      CMSIS DSP Library
   3:./Libraries/CMSIS/DSP/Source/TransformFunctions/arm_rfft_q31.c ****  * Title:        arm_rfft_q31.c
   4:./Libraries/CMSIS/DSP/Source/TransformFunctions/arm_rfft_q31.c ****  * Description:  FFT & RIFFT Q31 process function
   5:./Libraries/CMSIS/DSP/Source/TransformFunctions/arm_rfft_q31.c ****  *
   6:./Libraries/CMSIS/DSP/Source/TransformFunctions/arm_rfft_q31.c ****  * $Date:        18. March 2019
   7:./Libraries/CMSIS/DSP/Source/TransformFunctions/arm_rfft_q31.c ****  * $Revision:    V1.6.0
   8:./Libraries/CMSIS/DSP/Source/TransformFunctions/arm_rfft_q31.c ****  *
   9:./Libraries/CMSIS/DSP/Source/TransformFunctions/arm_rfft_q31.c ****  * Target Processor: Cortex-M cores
  10:./Libraries/CMSIS/DSP/Source/TransformFunctions/arm_rfft_q31.c ****  * -------------------------------------------------------------------- */
  11:./Libraries/CMSIS/DSP/Source/TransformFunctions/arm_rfft_q31.c **** /*
  12:./Libraries/CMSIS/DSP/Source/TransformFunctions/arm_rfft_q31.c ****  * Copyright (C) 2010-2019 ARM Limited or its affiliates. All rights reserved.
  13:./Libraries/CMSIS/DSP/Source/TransformFunctions/arm_rfft_q31.c ****  *
  14:./Libraries/CMSIS/DSP/Source/TransformFunctions/arm_rfft_q31.c ****  * SPDX-License-Identifier: Apache-2.0
  15:./Libraries/CMSIS/DSP/Source/TransformFunctions/arm_rfft_q31.c ****  *
  16:./Libraries/CMSIS/DSP/Source/TransformFunctions/arm_rfft_q31.c ****  * Licensed under the Apache License, Version 2.0 (the License); you may
  17:./Libraries/CMSIS/DSP/Source/TransformFunctions/arm_rfft_q31.c ****  * not use this file except in compliance with the License.
  18:./Libraries/CMSIS/DSP/Source/TransformFunctions/arm_rfft_q31.c ****  * You may obtain a copy of the License at
  19:./Libraries/CMSIS/DSP/Source/TransformFunctions/arm_rfft_q31.c ****  *
  20:./Libraries/CMSIS/DSP/Source/TransformFunctions/arm_rfft_q31.c ****  * www.apache.org/licenses/LICENSE-2.0
  21:./Libraries/CMSIS/DSP/Source/TransformFunctions/arm_rfft_q31.c ****  *
  22:./Libraries/CMSIS/DSP/Source/TransformFunctions/arm_rfft_q31.c ****  * Unless required by applicable law or agreed to in writing, software
  23:./Libraries/CMSIS/DSP/Source/TransformFunctions/arm_rfft_q31.c ****  * distributed under the License is distributed on an AS IS BASIS, WITHOUT
  24:./Libraries/CMSIS/DSP/Source/TransformFunctions/arm_rfft_q31.c ****  * WARRANTIES OR CONDITIONS OF ANY KIND, either express or implied.
  25:./Libraries/CMSIS/DSP/Source/TransformFunctions/arm_rfft_q31.c ****  * See the License for the specific language governing permissions and
  26:./Libraries/CMSIS/DSP/Source/TransformFunctions/arm_rfft_q31.c ****  * limitations under the License.
  27:./Libraries/CMSIS/DSP/Source/TransformFunctions/arm_rfft_q31.c ****  */
  28:./Libraries/CMSIS/DSP/Source/TransformFunctions/arm_rfft_q31.c **** 
  29:./Libraries/CMSIS/DSP/Source/TransformFunctions/arm_rfft_q31.c **** #include "arm_math.h"
  30:./Libraries/CMSIS/DSP/Source/TransformFunctions/arm_rfft_q31.c **** 
  31:./Libraries/CMSIS/DSP/Source/TransformFunctions/arm_rfft_q31.c **** /* ----------------------------------------------------------------------
ARM GAS  /tmp/ccaCNqpz.s 			page 2


  32:./Libraries/CMSIS/DSP/Source/TransformFunctions/arm_rfft_q31.c ****  * Internal functions prototypes
  33:./Libraries/CMSIS/DSP/Source/TransformFunctions/arm_rfft_q31.c ****  * -------------------------------------------------------------------- */
  34:./Libraries/CMSIS/DSP/Source/TransformFunctions/arm_rfft_q31.c **** 
  35:./Libraries/CMSIS/DSP/Source/TransformFunctions/arm_rfft_q31.c **** void arm_split_rfft_q31(
  36:./Libraries/CMSIS/DSP/Source/TransformFunctions/arm_rfft_q31.c ****         q31_t * pSrc,
  37:./Libraries/CMSIS/DSP/Source/TransformFunctions/arm_rfft_q31.c ****         uint32_t fftLen,
  38:./Libraries/CMSIS/DSP/Source/TransformFunctions/arm_rfft_q31.c ****   const q31_t * pATable,
  39:./Libraries/CMSIS/DSP/Source/TransformFunctions/arm_rfft_q31.c ****   const q31_t * pBTable,
  40:./Libraries/CMSIS/DSP/Source/TransformFunctions/arm_rfft_q31.c ****         q31_t * pDst,
  41:./Libraries/CMSIS/DSP/Source/TransformFunctions/arm_rfft_q31.c ****         uint32_t modifier);
  42:./Libraries/CMSIS/DSP/Source/TransformFunctions/arm_rfft_q31.c **** 
  43:./Libraries/CMSIS/DSP/Source/TransformFunctions/arm_rfft_q31.c **** void arm_split_rifft_q31(
  44:./Libraries/CMSIS/DSP/Source/TransformFunctions/arm_rfft_q31.c ****         q31_t * pSrc,
  45:./Libraries/CMSIS/DSP/Source/TransformFunctions/arm_rfft_q31.c ****         uint32_t fftLen,
  46:./Libraries/CMSIS/DSP/Source/TransformFunctions/arm_rfft_q31.c ****   const q31_t * pATable,
  47:./Libraries/CMSIS/DSP/Source/TransformFunctions/arm_rfft_q31.c ****   const q31_t * pBTable,
  48:./Libraries/CMSIS/DSP/Source/TransformFunctions/arm_rfft_q31.c ****         q31_t * pDst,
  49:./Libraries/CMSIS/DSP/Source/TransformFunctions/arm_rfft_q31.c ****         uint32_t modifier);
  50:./Libraries/CMSIS/DSP/Source/TransformFunctions/arm_rfft_q31.c **** 
  51:./Libraries/CMSIS/DSP/Source/TransformFunctions/arm_rfft_q31.c **** /**
  52:./Libraries/CMSIS/DSP/Source/TransformFunctions/arm_rfft_q31.c ****   @addtogroup RealFFT
  53:./Libraries/CMSIS/DSP/Source/TransformFunctions/arm_rfft_q31.c ****   @{
  54:./Libraries/CMSIS/DSP/Source/TransformFunctions/arm_rfft_q31.c ****  */
  55:./Libraries/CMSIS/DSP/Source/TransformFunctions/arm_rfft_q31.c **** 
  56:./Libraries/CMSIS/DSP/Source/TransformFunctions/arm_rfft_q31.c **** /**
  57:./Libraries/CMSIS/DSP/Source/TransformFunctions/arm_rfft_q31.c ****   @brief         Processing function for the Q31 RFFT/RIFFT.
  58:./Libraries/CMSIS/DSP/Source/TransformFunctions/arm_rfft_q31.c ****   @param[in]     S     points to an instance of the Q31 RFFT/RIFFT structure
  59:./Libraries/CMSIS/DSP/Source/TransformFunctions/arm_rfft_q31.c ****   @param[in]     pSrc  points to input buffer
  60:./Libraries/CMSIS/DSP/Source/TransformFunctions/arm_rfft_q31.c ****   @param[out]    pDst  points to output buffer
  61:./Libraries/CMSIS/DSP/Source/TransformFunctions/arm_rfft_q31.c ****   @return        none
  62:./Libraries/CMSIS/DSP/Source/TransformFunctions/arm_rfft_q31.c **** 
  63:./Libraries/CMSIS/DSP/Source/TransformFunctions/arm_rfft_q31.c ****   @par           Input an output formats
  64:./Libraries/CMSIS/DSP/Source/TransformFunctions/arm_rfft_q31.c ****                    Internally input is downscaled by 2 for every stage to avoid saturations inside 
  65:./Libraries/CMSIS/DSP/Source/TransformFunctions/arm_rfft_q31.c ****                    Hence the output format is different for different RFFT sizes.
  66:./Libraries/CMSIS/DSP/Source/TransformFunctions/arm_rfft_q31.c ****                    The input and output formats for different RFFT sizes and number of bits to upsc
  67:./Libraries/CMSIS/DSP/Source/TransformFunctions/arm_rfft_q31.c ****   @par
  68:./Libraries/CMSIS/DSP/Source/TransformFunctions/arm_rfft_q31.c ****                    \image html RFFTQ31.gif "Input and Output Formats for Q31 RFFT"
  69:./Libraries/CMSIS/DSP/Source/TransformFunctions/arm_rfft_q31.c ****   @par
  70:./Libraries/CMSIS/DSP/Source/TransformFunctions/arm_rfft_q31.c ****                    \image html RIFFTQ31.gif "Input and Output Formats for Q31 RIFFT"
  71:./Libraries/CMSIS/DSP/Source/TransformFunctions/arm_rfft_q31.c ****  */
  72:./Libraries/CMSIS/DSP/Source/TransformFunctions/arm_rfft_q31.c **** 
  73:./Libraries/CMSIS/DSP/Source/TransformFunctions/arm_rfft_q31.c **** void arm_rfft_q31(
  74:./Libraries/CMSIS/DSP/Source/TransformFunctions/arm_rfft_q31.c ****   const arm_rfft_instance_q31 * S,
  75:./Libraries/CMSIS/DSP/Source/TransformFunctions/arm_rfft_q31.c ****         q31_t * pSrc,
  76:./Libraries/CMSIS/DSP/Source/TransformFunctions/arm_rfft_q31.c ****         q31_t * pDst)
  77:./Libraries/CMSIS/DSP/Source/TransformFunctions/arm_rfft_q31.c **** {
  28              		.loc 1 77 1
  29              		.cfi_startproc
  30              		@ args = 0, pretend = 0, frame = 32
  31              		@ frame_needed = 1, uses_anonymous_args = 0
  32 0000 80B5     		push	{r7, lr}
  33              	.LCFI0:
  34              		.cfi_def_cfa_offset 8
  35              		.cfi_offset 7, -8
  36              		.cfi_offset 14, -4
  37 0002 8AB0     		sub	sp, sp, #40
  38              	.LCFI1:
ARM GAS  /tmp/ccaCNqpz.s 			page 3


  39              		.cfi_def_cfa_offset 48
  40 0004 02AF     		add	r7, sp, #8
  41              	.LCFI2:
  42              		.cfi_def_cfa 7, 40
  43 0006 F860     		str	r0, [r7, #12]
  44 0008 B960     		str	r1, [r7, #8]
  45 000a 7A60     		str	r2, [r7, #4]
  78:./Libraries/CMSIS/DSP/Source/TransformFunctions/arm_rfft_q31.c ****   const arm_cfft_instance_q31 *S_CFFT = S->pCfft;
  46              		.loc 1 78 32
  47 000c FB68     		ldr	r3, [r7, #12]
  48 000e 5B69     		ldr	r3, [r3, #20]
  49 0010 BB61     		str	r3, [r7, #24]
  79:./Libraries/CMSIS/DSP/Source/TransformFunctions/arm_rfft_q31.c ****         uint32_t L2 = S->fftLenReal >> 1U;
  50              		.loc 1 79 24
  51 0012 FB68     		ldr	r3, [r7, #12]
  52 0014 1B68     		ldr	r3, [r3]
  53              		.loc 1 79 18
  54 0016 5B08     		lsrs	r3, r3, #1
  55 0018 7B61     		str	r3, [r7, #20]
  80:./Libraries/CMSIS/DSP/Source/TransformFunctions/arm_rfft_q31.c ****         uint32_t i;
  81:./Libraries/CMSIS/DSP/Source/TransformFunctions/arm_rfft_q31.c **** 
  82:./Libraries/CMSIS/DSP/Source/TransformFunctions/arm_rfft_q31.c ****   /* Calculation of RIFFT of input */
  83:./Libraries/CMSIS/DSP/Source/TransformFunctions/arm_rfft_q31.c ****   if (S->ifftFlagR == 1U)
  56              		.loc 1 83 8
  57 001a FB68     		ldr	r3, [r7, #12]
  58 001c 1B79     		ldrb	r3, [r3, #4]	@ zero_extendqisi2
  59              		.loc 1 83 6
  60 001e 012B     		cmp	r3, #1
  61 0020 2CD1     		bne	.L2
  84:./Libraries/CMSIS/DSP/Source/TransformFunctions/arm_rfft_q31.c ****   {
  85:./Libraries/CMSIS/DSP/Source/TransformFunctions/arm_rfft_q31.c ****      /*  Real IFFT core process */
  86:./Libraries/CMSIS/DSP/Source/TransformFunctions/arm_rfft_q31.c ****      arm_split_rifft_q31 (pSrc, L2, S->pTwiddleAReal, S->pTwiddleBReal, pDst, S->twidCoefRModifier)
  62              		.loc 1 86 6
  63 0022 FB68     		ldr	r3, [r7, #12]
  64 0024 DA68     		ldr	r2, [r3, #12]
  65 0026 FB68     		ldr	r3, [r7, #12]
  66 0028 1969     		ldr	r1, [r3, #16]
  67 002a FB68     		ldr	r3, [r7, #12]
  68 002c 9B68     		ldr	r3, [r3, #8]
  69 002e 0193     		str	r3, [sp, #4]
  70 0030 7B68     		ldr	r3, [r7, #4]
  71 0032 0093     		str	r3, [sp]
  72 0034 0B46     		mov	r3, r1
  73 0036 7969     		ldr	r1, [r7, #20]
  74 0038 B868     		ldr	r0, [r7, #8]
  75 003a FFF7FEFF 		bl	arm_split_rifft_q31
  87:./Libraries/CMSIS/DSP/Source/TransformFunctions/arm_rfft_q31.c **** 
  88:./Libraries/CMSIS/DSP/Source/TransformFunctions/arm_rfft_q31.c ****      /* Complex IFFT process */
  89:./Libraries/CMSIS/DSP/Source/TransformFunctions/arm_rfft_q31.c ****      arm_cfft_q31 (S_CFFT, pDst, S->ifftFlagR, S->bitReverseFlagR);
  76              		.loc 1 89 6
  77 003e FB68     		ldr	r3, [r7, #12]
  78 0040 1A79     		ldrb	r2, [r3, #4]	@ zero_extendqisi2
  79 0042 FB68     		ldr	r3, [r7, #12]
  80 0044 5B79     		ldrb	r3, [r3, #5]	@ zero_extendqisi2
  81 0046 7968     		ldr	r1, [r7, #4]
  82 0048 B869     		ldr	r0, [r7, #24]
  83 004a FFF7FEFF 		bl	arm_cfft_q31
ARM GAS  /tmp/ccaCNqpz.s 			page 4


  90:./Libraries/CMSIS/DSP/Source/TransformFunctions/arm_rfft_q31.c **** 
  91:./Libraries/CMSIS/DSP/Source/TransformFunctions/arm_rfft_q31.c ****      for(i = 0; i < S->fftLenReal; i++)
  84              		.loc 1 91 12
  85 004e 0023     		movs	r3, #0
  86 0050 FB61     		str	r3, [r7, #28]
  87              		.loc 1 91 6
  88 0052 0DE0     		b	.L3
  89              	.L4:
  92:./Libraries/CMSIS/DSP/Source/TransformFunctions/arm_rfft_q31.c ****      {
  93:./Libraries/CMSIS/DSP/Source/TransformFunctions/arm_rfft_q31.c ****         pDst[i] = pDst[i] << 1U;
  90              		.loc 1 93 23 discriminator 3
  91 0054 FB69     		ldr	r3, [r7, #28]
  92 0056 9B00     		lsls	r3, r3, #2
  93 0058 7A68     		ldr	r2, [r7, #4]
  94 005a 1344     		add	r3, r3, r2
  95 005c 1A68     		ldr	r2, [r3]
  96              		.loc 1 93 13 discriminator 3
  97 005e FB69     		ldr	r3, [r7, #28]
  98 0060 9B00     		lsls	r3, r3, #2
  99 0062 7968     		ldr	r1, [r7, #4]
 100 0064 0B44     		add	r3, r3, r1
 101              		.loc 1 93 27 discriminator 3
 102 0066 5200     		lsls	r2, r2, #1
 103              		.loc 1 93 17 discriminator 3
 104 0068 1A60     		str	r2, [r3]
  91:./Libraries/CMSIS/DSP/Source/TransformFunctions/arm_rfft_q31.c ****      {
 105              		.loc 1 91 37 discriminator 3
 106 006a FB69     		ldr	r3, [r7, #28]
 107 006c 0133     		adds	r3, r3, #1
 108 006e FB61     		str	r3, [r7, #28]
 109              	.L3:
  91:./Libraries/CMSIS/DSP/Source/TransformFunctions/arm_rfft_q31.c ****      {
 110              		.loc 1 91 22 discriminator 1
 111 0070 FB68     		ldr	r3, [r7, #12]
 112 0072 1B68     		ldr	r3, [r3]
  91:./Libraries/CMSIS/DSP/Source/TransformFunctions/arm_rfft_q31.c ****      {
 113              		.loc 1 91 6 discriminator 1
 114 0074 FA69     		ldr	r2, [r7, #28]
 115 0076 9A42     		cmp	r2, r3
 116 0078 ECD3     		bcc	.L4
  94:./Libraries/CMSIS/DSP/Source/TransformFunctions/arm_rfft_q31.c ****      }
  95:./Libraries/CMSIS/DSP/Source/TransformFunctions/arm_rfft_q31.c ****   }
  96:./Libraries/CMSIS/DSP/Source/TransformFunctions/arm_rfft_q31.c ****   else
  97:./Libraries/CMSIS/DSP/Source/TransformFunctions/arm_rfft_q31.c ****   {
  98:./Libraries/CMSIS/DSP/Source/TransformFunctions/arm_rfft_q31.c ****      /* Calculation of RFFT of input */
  99:./Libraries/CMSIS/DSP/Source/TransformFunctions/arm_rfft_q31.c **** 
 100:./Libraries/CMSIS/DSP/Source/TransformFunctions/arm_rfft_q31.c ****      /* Complex FFT process */
 101:./Libraries/CMSIS/DSP/Source/TransformFunctions/arm_rfft_q31.c ****      arm_cfft_q31 (S_CFFT, pSrc, S->ifftFlagR, S->bitReverseFlagR);
 102:./Libraries/CMSIS/DSP/Source/TransformFunctions/arm_rfft_q31.c **** 
 103:./Libraries/CMSIS/DSP/Source/TransformFunctions/arm_rfft_q31.c ****      /*  Real FFT core process */
 104:./Libraries/CMSIS/DSP/Source/TransformFunctions/arm_rfft_q31.c ****      arm_split_rfft_q31 (pSrc, L2, S->pTwiddleAReal, S->pTwiddleBReal, pDst, S->twidCoefRModifier);
 105:./Libraries/CMSIS/DSP/Source/TransformFunctions/arm_rfft_q31.c ****   }
 106:./Libraries/CMSIS/DSP/Source/TransformFunctions/arm_rfft_q31.c **** 
 107:./Libraries/CMSIS/DSP/Source/TransformFunctions/arm_rfft_q31.c **** }
 117              		.loc 1 107 1
 118 007a 15E0     		b	.L6
 119              	.L2:
ARM GAS  /tmp/ccaCNqpz.s 			page 5


 101:./Libraries/CMSIS/DSP/Source/TransformFunctions/arm_rfft_q31.c **** 
 120              		.loc 1 101 6
 121 007c FB68     		ldr	r3, [r7, #12]
 122 007e 1A79     		ldrb	r2, [r3, #4]	@ zero_extendqisi2
 123 0080 FB68     		ldr	r3, [r7, #12]
 124 0082 5B79     		ldrb	r3, [r3, #5]	@ zero_extendqisi2
 125 0084 B968     		ldr	r1, [r7, #8]
 126 0086 B869     		ldr	r0, [r7, #24]
 127 0088 FFF7FEFF 		bl	arm_cfft_q31
 104:./Libraries/CMSIS/DSP/Source/TransformFunctions/arm_rfft_q31.c ****   }
 128              		.loc 1 104 6
 129 008c FB68     		ldr	r3, [r7, #12]
 130 008e DA68     		ldr	r2, [r3, #12]
 131 0090 FB68     		ldr	r3, [r7, #12]
 132 0092 1969     		ldr	r1, [r3, #16]
 133 0094 FB68     		ldr	r3, [r7, #12]
 134 0096 9B68     		ldr	r3, [r3, #8]
 135 0098 0193     		str	r3, [sp, #4]
 136 009a 7B68     		ldr	r3, [r7, #4]
 137 009c 0093     		str	r3, [sp]
 138 009e 0B46     		mov	r3, r1
 139 00a0 7969     		ldr	r1, [r7, #20]
 140 00a2 B868     		ldr	r0, [r7, #8]
 141 00a4 FFF7FEFF 		bl	arm_split_rfft_q31
 142              	.L6:
 143              		.loc 1 107 1
 144 00a8 00BF     		nop
 145 00aa 2037     		adds	r7, r7, #32
 146              	.LCFI3:
 147              		.cfi_def_cfa_offset 8
 148 00ac BD46     		mov	sp, r7
 149              	.LCFI4:
 150              		.cfi_def_cfa_register 13
 151              		@ sp needed
 152 00ae 80BD     		pop	{r7, pc}
 153              		.cfi_endproc
 154              	.LFE145:
 156              		.section	.text.arm_split_rfft_q31,"ax",%progbits
 157              		.align	1
 158              		.global	arm_split_rfft_q31
 159              		.syntax unified
 160              		.thumb
 161              		.thumb_func
 162              		.fpu fpv5-d16
 164              	arm_split_rfft_q31:
 165              	.LFB146:
 108:./Libraries/CMSIS/DSP/Source/TransformFunctions/arm_rfft_q31.c **** 
 109:./Libraries/CMSIS/DSP/Source/TransformFunctions/arm_rfft_q31.c **** /**
 110:./Libraries/CMSIS/DSP/Source/TransformFunctions/arm_rfft_q31.c ****   @} end of RealFFT group
 111:./Libraries/CMSIS/DSP/Source/TransformFunctions/arm_rfft_q31.c ****  */
 112:./Libraries/CMSIS/DSP/Source/TransformFunctions/arm_rfft_q31.c **** 
 113:./Libraries/CMSIS/DSP/Source/TransformFunctions/arm_rfft_q31.c **** /**
 114:./Libraries/CMSIS/DSP/Source/TransformFunctions/arm_rfft_q31.c ****   @brief         Core Real FFT process
 115:./Libraries/CMSIS/DSP/Source/TransformFunctions/arm_rfft_q31.c ****   @param[in]     pSrc      points to input buffer
 116:./Libraries/CMSIS/DSP/Source/TransformFunctions/arm_rfft_q31.c ****   @param[in]     fftLen    length of FFT
 117:./Libraries/CMSIS/DSP/Source/TransformFunctions/arm_rfft_q31.c ****   @param[in]     pATable   points to twiddle Coef A buffer
 118:./Libraries/CMSIS/DSP/Source/TransformFunctions/arm_rfft_q31.c ****   @param[in]     pBTable   points to twiddle Coef B buffer
ARM GAS  /tmp/ccaCNqpz.s 			page 6


 119:./Libraries/CMSIS/DSP/Source/TransformFunctions/arm_rfft_q31.c ****   @param[out]    pDst      points to output buffer
 120:./Libraries/CMSIS/DSP/Source/TransformFunctions/arm_rfft_q31.c ****   @param[in]     modifier  twiddle coefficient modifier that supports different size FFTs with the 
 121:./Libraries/CMSIS/DSP/Source/TransformFunctions/arm_rfft_q31.c ****   @return        none
 122:./Libraries/CMSIS/DSP/Source/TransformFunctions/arm_rfft_q31.c ****  */
 123:./Libraries/CMSIS/DSP/Source/TransformFunctions/arm_rfft_q31.c **** 
 124:./Libraries/CMSIS/DSP/Source/TransformFunctions/arm_rfft_q31.c **** void arm_split_rfft_q31(
 125:./Libraries/CMSIS/DSP/Source/TransformFunctions/arm_rfft_q31.c ****         q31_t * pSrc,
 126:./Libraries/CMSIS/DSP/Source/TransformFunctions/arm_rfft_q31.c ****         uint32_t fftLen,
 127:./Libraries/CMSIS/DSP/Source/TransformFunctions/arm_rfft_q31.c ****   const q31_t * pATable,
 128:./Libraries/CMSIS/DSP/Source/TransformFunctions/arm_rfft_q31.c ****   const q31_t * pBTable,
 129:./Libraries/CMSIS/DSP/Source/TransformFunctions/arm_rfft_q31.c ****         q31_t * pDst,
 130:./Libraries/CMSIS/DSP/Source/TransformFunctions/arm_rfft_q31.c ****         uint32_t modifier)
 131:./Libraries/CMSIS/DSP/Source/TransformFunctions/arm_rfft_q31.c **** {
 166              		.loc 1 131 1
 167              		.cfi_startproc
 168              		@ args = 8, pretend = 0, frame = 168
 169              		@ frame_needed = 1, uses_anonymous_args = 0
 170              		@ link register save eliminated.
 171 0000 2DE9B00F 		push	{r4, r5, r7, r8, r9, r10, fp}
 172              	.LCFI5:
 173              		.cfi_def_cfa_offset 28
 174              		.cfi_offset 4, -28
 175              		.cfi_offset 5, -24
 176              		.cfi_offset 7, -20
 177              		.cfi_offset 8, -16
 178              		.cfi_offset 9, -12
 179              		.cfi_offset 10, -8
 180              		.cfi_offset 11, -4
 181 0004 ABB0     		sub	sp, sp, #172
 182              	.LCFI6:
 183              		.cfi_def_cfa_offset 200
 184 0006 00AF     		add	r7, sp, #0
 185              	.LCFI7:
 186              		.cfi_def_cfa_register 7
 187 0008 7867     		str	r0, [r7, #116]
 188 000a 3967     		str	r1, [r7, #112]
 189 000c FA66     		str	r2, [r7, #108]
 190 000e BB66     		str	r3, [r7, #104]
 132:./Libraries/CMSIS/DSP/Source/TransformFunctions/arm_rfft_q31.c ****         uint32_t i;                                    /* Loop Counter */
 133:./Libraries/CMSIS/DSP/Source/TransformFunctions/arm_rfft_q31.c ****         q31_t outR, outI;                              /* Temporary variables for output */
 134:./Libraries/CMSIS/DSP/Source/TransformFunctions/arm_rfft_q31.c ****   const q31_t *pCoefA, *pCoefB;                        /* Temporary pointers for twiddle factors */
 135:./Libraries/CMSIS/DSP/Source/TransformFunctions/arm_rfft_q31.c ****         q31_t CoefA1, CoefA2, CoefB1;                  /* Temporary variables for twiddle coefficie
 136:./Libraries/CMSIS/DSP/Source/TransformFunctions/arm_rfft_q31.c ****         q31_t *pOut1 = &pDst[2], *pOut2 = &pDst[4 * fftLen - 1];
 191              		.loc 1 136 16
 192 0010 D7F8C830 		ldr	r3, [r7, #200]
 193 0014 0833     		adds	r3, r3, #8
 194 0016 C7F89830 		str	r3, [r7, #152]
 195              		.loc 1 136 48
 196 001a 3B6F     		ldr	r3, [r7, #112]
 197 001c 1B01     		lsls	r3, r3, #4
 198 001e 1A1F     		subs	r2, r3, #4
 199              		.loc 1 136 35
 200 0020 D7F8C830 		ldr	r3, [r7, #200]
 201 0024 1344     		add	r3, r3, r2
 202 0026 C7F89430 		str	r3, [r7, #148]
 137:./Libraries/CMSIS/DSP/Source/TransformFunctions/arm_rfft_q31.c ****         q31_t *pIn1 =  &pSrc[2], *pIn2 =  &pSrc[2 * fftLen - 1];
 203              		.loc 1 137 16
ARM GAS  /tmp/ccaCNqpz.s 			page 7


 204 002a 7B6F     		ldr	r3, [r7, #116]
 205 002c 0833     		adds	r3, r3, #8
 206 002e C7F89030 		str	r3, [r7, #144]
 207              		.loc 1 137 48
 208 0032 3B6F     		ldr	r3, [r7, #112]
 209 0034 DB00     		lsls	r3, r3, #3
 210 0036 1A1F     		subs	r2, r3, #4
 211              		.loc 1 137 35
 212 0038 7B6F     		ldr	r3, [r7, #116]
 213 003a 1344     		add	r3, r3, r2
 214 003c C7F88C30 		str	r3, [r7, #140]
 138:./Libraries/CMSIS/DSP/Source/TransformFunctions/arm_rfft_q31.c **** 
 139:./Libraries/CMSIS/DSP/Source/TransformFunctions/arm_rfft_q31.c ****   /* Init coefficient pointers */
 140:./Libraries/CMSIS/DSP/Source/TransformFunctions/arm_rfft_q31.c ****   pCoefA = &pATable[modifier * 2];
 215              		.loc 1 140 20
 216 0040 D7F8CC30 		ldr	r3, [r7, #204]
 217 0044 DA00     		lsls	r2, r3, #3
 218              		.loc 1 140 10
 219 0046 FB6E     		ldr	r3, [r7, #108]
 220 0048 1344     		add	r3, r3, r2
 221 004a C7F8A030 		str	r3, [r7, #160]
 141:./Libraries/CMSIS/DSP/Source/TransformFunctions/arm_rfft_q31.c ****   pCoefB = &pBTable[modifier * 2];
 222              		.loc 1 141 20
 223 004e D7F8CC30 		ldr	r3, [r7, #204]
 224 0052 DA00     		lsls	r2, r3, #3
 225              		.loc 1 141 10
 226 0054 BB6E     		ldr	r3, [r7, #104]
 227 0056 1344     		add	r3, r3, r2
 228 0058 C7F89C30 		str	r3, [r7, #156]
 142:./Libraries/CMSIS/DSP/Source/TransformFunctions/arm_rfft_q31.c **** 
 143:./Libraries/CMSIS/DSP/Source/TransformFunctions/arm_rfft_q31.c ****   i = fftLen - 1U;
 229              		.loc 1 143 5
 230 005c 3B6F     		ldr	r3, [r7, #112]
 231 005e 013B     		subs	r3, r3, #1
 232 0060 C7F8A430 		str	r3, [r7, #164]
 144:./Libraries/CMSIS/DSP/Source/TransformFunctions/arm_rfft_q31.c **** 
 145:./Libraries/CMSIS/DSP/Source/TransformFunctions/arm_rfft_q31.c ****   while (i > 0U)
 233              		.loc 1 145 9
 234 0064 FFE1     		b	.L8
 235              	.L9:
 146:./Libraries/CMSIS/DSP/Source/TransformFunctions/arm_rfft_q31.c ****   {
 147:./Libraries/CMSIS/DSP/Source/TransformFunctions/arm_rfft_q31.c ****      /*
 148:./Libraries/CMSIS/DSP/Source/TransformFunctions/arm_rfft_q31.c ****        outR = (  pSrc[2 * i]             * pATable[2 * i]
 149:./Libraries/CMSIS/DSP/Source/TransformFunctions/arm_rfft_q31.c ****                - pSrc[2 * i + 1]         * pATable[2 * i + 1]
 150:./Libraries/CMSIS/DSP/Source/TransformFunctions/arm_rfft_q31.c ****                + pSrc[2 * n - 2 * i]     * pBTable[2 * i]
 151:./Libraries/CMSIS/DSP/Source/TransformFunctions/arm_rfft_q31.c ****                + pSrc[2 * n - 2 * i + 1] * pBTable[2 * i + 1]);
 152:./Libraries/CMSIS/DSP/Source/TransformFunctions/arm_rfft_q31.c **** 
 153:./Libraries/CMSIS/DSP/Source/TransformFunctions/arm_rfft_q31.c ****        outI = (  pIn[2 * i + 1]         * pATable[2 * i]
 154:./Libraries/CMSIS/DSP/Source/TransformFunctions/arm_rfft_q31.c ****                + pIn[2 * i]             * pATable[2 * i + 1]
 155:./Libraries/CMSIS/DSP/Source/TransformFunctions/arm_rfft_q31.c ****                + pIn[2 * n - 2 * i]     * pBTable[2 * i + 1]
 156:./Libraries/CMSIS/DSP/Source/TransformFunctions/arm_rfft_q31.c ****                - pIn[2 * n - 2 * i + 1] * pBTable[2 * i]);
 157:./Libraries/CMSIS/DSP/Source/TransformFunctions/arm_rfft_q31.c ****       */
 158:./Libraries/CMSIS/DSP/Source/TransformFunctions/arm_rfft_q31.c **** 
 159:./Libraries/CMSIS/DSP/Source/TransformFunctions/arm_rfft_q31.c ****      CoefA1 = *pCoefA++;
 236              		.loc 1 159 22
 237 0066 D7F8A020 		ldr	r2, [r7, #160]
 238 006a 131D     		adds	r3, r2, #4
ARM GAS  /tmp/ccaCNqpz.s 			page 8


 239 006c C7F8A030 		str	r3, [r7, #160]
 240              		.loc 1 159 13
 241 0070 1368     		ldr	r3, [r2]
 242 0072 C7F88830 		str	r3, [r7, #136]
 160:./Libraries/CMSIS/DSP/Source/TransformFunctions/arm_rfft_q31.c ****      CoefA2 = *pCoefA;
 243              		.loc 1 160 13
 244 0076 D7F8A030 		ldr	r3, [r7, #160]
 245 007a 1B68     		ldr	r3, [r3]
 246 007c C7F88430 		str	r3, [r7, #132]
 161:./Libraries/CMSIS/DSP/Source/TransformFunctions/arm_rfft_q31.c **** 
 162:./Libraries/CMSIS/DSP/Source/TransformFunctions/arm_rfft_q31.c ****      /* outR = (pSrc[2 * i] * pATable[2 * i] */
 163:./Libraries/CMSIS/DSP/Source/TransformFunctions/arm_rfft_q31.c ****      mult_32x32_keep32_R (outR, *pIn1, CoefA1);
 247              		.loc 1 163 6
 248 0080 D7F89030 		ldr	r3, [r7, #144]
 249 0084 1B68     		ldr	r3, [r3]
 250 0086 1846     		mov	r0, r3
 251 0088 4FEAE071 		asr	r1, r0, #31
 252 008c D7F88830 		ldr	r3, [r7, #136]
 253 0090 1A46     		mov	r2, r3
 254 0092 4FEAE273 		asr	r3, r2, #31
 255 0096 02FB01F5 		mul	r5, r2, r1
 256 009a 00FB03F4 		mul	r4, r0, r3
 257 009e 2C44     		add	r4, r4, r5
 258 00a0 A0FB0223 		umull	r2, r3, r0, r2
 259 00a4 E118     		adds	r1, r4, r3
 260 00a6 0B46     		mov	r3, r1
 261 00a8 12F10041 		adds	r1, r2, #-2147483648
 262 00ac 3966     		str	r1, [r7, #96]
 263 00ae 43F10003 		adc	r3, r3, #0
 264 00b2 7B66     		str	r3, [r7, #100]
 265 00b4 4FF00002 		mov	r2, #0
 266 00b8 4FF00003 		mov	r3, #0
 267 00bc D7E91845 		ldrd	r4, [r7, #96]
 268 00c0 2946     		mov	r1, r5
 269 00c2 0A00     		movs	r2, r1
 270 00c4 2946     		mov	r1, r5
 271 00c6 CB17     		asrs	r3, r1, #31
 272 00c8 1346     		mov	r3, r2
 273 00ca C7F88030 		str	r3, [r7, #128]
 164:./Libraries/CMSIS/DSP/Source/TransformFunctions/arm_rfft_q31.c **** 
 165:./Libraries/CMSIS/DSP/Source/TransformFunctions/arm_rfft_q31.c ****      /* outI = pIn[2 * i] * pATable[2 * i + 1] */
 166:./Libraries/CMSIS/DSP/Source/TransformFunctions/arm_rfft_q31.c ****      mult_32x32_keep32_R (outI, *pIn1++, CoefA2);
 274              		.loc 1 166 6
 275 00ce D7F89020 		ldr	r2, [r7, #144]
 276 00d2 131D     		adds	r3, r2, #4
 277 00d4 C7F89030 		str	r3, [r7, #144]
 278 00d8 1368     		ldr	r3, [r2]
 279 00da 1846     		mov	r0, r3
 280 00dc 4FEAE071 		asr	r1, r0, #31
 281 00e0 D7F88430 		ldr	r3, [r7, #132]
 282 00e4 1A46     		mov	r2, r3
 283 00e6 4FEAE273 		asr	r3, r2, #31
 284 00ea 02FB01F5 		mul	r5, r2, r1
 285 00ee 00FB03F4 		mul	r4, r0, r3
 286 00f2 2C44     		add	r4, r4, r5
 287 00f4 A0FB0223 		umull	r2, r3, r0, r2
 288 00f8 E118     		adds	r1, r4, r3
ARM GAS  /tmp/ccaCNqpz.s 			page 9


 289 00fa 0B46     		mov	r3, r1
 290 00fc 12F10041 		adds	r1, r2, #-2147483648
 291 0100 B965     		str	r1, [r7, #88]
 292 0102 43F10003 		adc	r3, r3, #0
 293 0106 FB65     		str	r3, [r7, #92]
 294 0108 4FF00002 		mov	r2, #0
 295 010c 4FF00003 		mov	r3, #0
 296 0110 D7E91645 		ldrd	r4, [r7, #88]
 297 0114 2946     		mov	r1, r5
 298 0116 0A00     		movs	r2, r1
 299 0118 2946     		mov	r1, r5
 300 011a CB17     		asrs	r3, r1, #31
 301 011c 1346     		mov	r3, r2
 302 011e FB67     		str	r3, [r7, #124]
 167:./Libraries/CMSIS/DSP/Source/TransformFunctions/arm_rfft_q31.c **** 
 168:./Libraries/CMSIS/DSP/Source/TransformFunctions/arm_rfft_q31.c ****      /* - pSrc[2 * i + 1] * pATable[2 * i + 1] */
 169:./Libraries/CMSIS/DSP/Source/TransformFunctions/arm_rfft_q31.c ****      multSub_32x32_keep32_R (outR, *pIn1, CoefA2);
 303              		.loc 1 169 6
 304 0120 D7F88030 		ldr	r3, [r7, #128]
 305 0124 1A46     		mov	r2, r3
 306 0126 4FEAE273 		asr	r3, r2, #31
 307 012a 4FF00008 		mov	r8, #0
 308 012e 4FF00009 		mov	r9, #0
 309 0132 9146     		mov	r9, r2
 310 0134 4FF00008 		mov	r8, #0
 311 0138 D7F89030 		ldr	r3, [r7, #144]
 312 013c 1B68     		ldr	r3, [r3]
 313 013e 1846     		mov	r0, r3
 314 0140 4FEAE071 		asr	r1, r0, #31
 315 0144 D7F88430 		ldr	r3, [r7, #132]
 316 0148 1A46     		mov	r2, r3
 317 014a 4FEAE273 		asr	r3, r2, #31
 318 014e 02FB01F5 		mul	r5, r2, r1
 319 0152 00FB03F4 		mul	r4, r0, r3
 320 0156 2C44     		add	r4, r4, r5
 321 0158 A0FB0223 		umull	r2, r3, r0, r2
 322 015c E118     		adds	r1, r4, r3
 323 015e 0B46     		mov	r3, r1
 324 0160 B8EB0201 		subs	r1, r8, r2
 325 0164 3965     		str	r1, [r7, #80]
 326 0166 69EB0303 		sbc	r3, r9, r3
 327 016a 7B65     		str	r3, [r7, #84]
 328 016c D7E91412 		ldrd	r1, [r7, #80]
 329 0170 0B46     		mov	r3, r1
 330 0172 13F10043 		adds	r3, r3, #-2147483648
 331 0176 BB64     		str	r3, [r7, #72]
 332 0178 1346     		mov	r3, r2
 333 017a 43F10003 		adc	r3, r3, #0
 334 017e FB64     		str	r3, [r7, #76]
 335 0180 4FF00002 		mov	r2, #0
 336 0184 4FF00003 		mov	r3, #0
 337 0188 D7E91245 		ldrd	r4, [r7, #72]
 338 018c 2946     		mov	r1, r5
 339 018e 0A00     		movs	r2, r1
 340 0190 2946     		mov	r1, r5
 341 0192 CB17     		asrs	r3, r1, #31
 342 0194 1346     		mov	r3, r2
ARM GAS  /tmp/ccaCNqpz.s 			page 10


 343 0196 C7F88030 		str	r3, [r7, #128]
 170:./Libraries/CMSIS/DSP/Source/TransformFunctions/arm_rfft_q31.c **** 
 171:./Libraries/CMSIS/DSP/Source/TransformFunctions/arm_rfft_q31.c ****      /* (pIn[2 * i + 1] * pATable[2 * i] */
 172:./Libraries/CMSIS/DSP/Source/TransformFunctions/arm_rfft_q31.c ****      multAcc_32x32_keep32_R (outI, *pIn1++, CoefA1);
 344              		.loc 1 172 6
 345 019a FB6F     		ldr	r3, [r7, #124]
 346 019c 1A46     		mov	r2, r3
 347 019e 4FEAE273 		asr	r3, r2, #31
 348 01a2 4FF00008 		mov	r8, #0
 349 01a6 4FF00009 		mov	r9, #0
 350 01aa 9146     		mov	r9, r2
 351 01ac 4FF00008 		mov	r8, #0
 352 01b0 D7F89020 		ldr	r2, [r7, #144]
 353 01b4 131D     		adds	r3, r2, #4
 354 01b6 C7F89030 		str	r3, [r7, #144]
 355 01ba 1368     		ldr	r3, [r2]
 356 01bc 1846     		mov	r0, r3
 357 01be 4FEAE071 		asr	r1, r0, #31
 358 01c2 D7F88830 		ldr	r3, [r7, #136]
 359 01c6 1A46     		mov	r2, r3
 360 01c8 4FEAE273 		asr	r3, r2, #31
 361 01cc 02FB01F5 		mul	r5, r2, r1
 362 01d0 00FB03F4 		mul	r4, r0, r3
 363 01d4 2C44     		add	r4, r4, r5
 364 01d6 A0FB0223 		umull	r2, r3, r0, r2
 365 01da E118     		adds	r1, r4, r3
 366 01dc 0B46     		mov	r3, r1
 367 01de 18EB0201 		adds	r1, r8, r2
 368 01e2 3964     		str	r1, [r7, #64]
 369 01e4 49EB0303 		adc	r3, r9, r3
 370 01e8 7B64     		str	r3, [r7, #68]
 371 01ea D7E91012 		ldrd	r1, [r7, #64]
 372 01ee 0B46     		mov	r3, r1
 373 01f0 13F10043 		adds	r3, r3, #-2147483648
 374 01f4 BB63     		str	r3, [r7, #56]
 375 01f6 1346     		mov	r3, r2
 376 01f8 43F10003 		adc	r3, r3, #0
 377 01fc FB63     		str	r3, [r7, #60]
 378 01fe 4FF00002 		mov	r2, #0
 379 0202 4FF00003 		mov	r3, #0
 380 0206 D7E90E45 		ldrd	r4, [r7, #56]
 381 020a 2946     		mov	r1, r5
 382 020c 0A00     		movs	r2, r1
 383 020e 2946     		mov	r1, r5
 384 0210 CB17     		asrs	r3, r1, #31
 385 0212 1346     		mov	r3, r2
 386 0214 FB67     		str	r3, [r7, #124]
 173:./Libraries/CMSIS/DSP/Source/TransformFunctions/arm_rfft_q31.c **** 
 174:./Libraries/CMSIS/DSP/Source/TransformFunctions/arm_rfft_q31.c ****      /* pSrc[2 * n - 2 * i] * pBTable[2 * i]  */
 175:./Libraries/CMSIS/DSP/Source/TransformFunctions/arm_rfft_q31.c ****      multSub_32x32_keep32_R (outR, *pIn2, CoefA2);
 387              		.loc 1 175 6
 388 0216 D7F88030 		ldr	r3, [r7, #128]
 389 021a 1A46     		mov	r2, r3
 390 021c 4FEAE273 		asr	r3, r2, #31
 391 0220 4FF00008 		mov	r8, #0
 392 0224 4FF00009 		mov	r9, #0
 393 0228 9146     		mov	r9, r2
ARM GAS  /tmp/ccaCNqpz.s 			page 11


 394 022a 4FF00008 		mov	r8, #0
 395 022e D7F88C30 		ldr	r3, [r7, #140]
 396 0232 1B68     		ldr	r3, [r3]
 397 0234 1846     		mov	r0, r3
 398 0236 4FEAE071 		asr	r1, r0, #31
 399 023a D7F88430 		ldr	r3, [r7, #132]
 400 023e 1A46     		mov	r2, r3
 401 0240 4FEAE273 		asr	r3, r2, #31
 402 0244 02FB01F5 		mul	r5, r2, r1
 403 0248 00FB03F4 		mul	r4, r0, r3
 404 024c 2C44     		add	r4, r4, r5
 405 024e A0FB0223 		umull	r2, r3, r0, r2
 406 0252 E118     		adds	r1, r4, r3
 407 0254 0B46     		mov	r3, r1
 408 0256 B8EB0201 		subs	r1, r8, r2
 409 025a 3963     		str	r1, [r7, #48]
 410 025c 69EB0303 		sbc	r3, r9, r3
 411 0260 7B63     		str	r3, [r7, #52]
 412 0262 D7E90C12 		ldrd	r1, [r7, #48]
 413 0266 0B46     		mov	r3, r1
 414 0268 13F10043 		adds	r3, r3, #-2147483648
 415 026c BB62     		str	r3, [r7, #40]
 416 026e 1346     		mov	r3, r2
 417 0270 43F10003 		adc	r3, r3, #0
 418 0274 FB62     		str	r3, [r7, #44]
 419 0276 4FF00002 		mov	r2, #0
 420 027a 4FF00003 		mov	r3, #0
 421 027e D7E90A45 		ldrd	r4, [r7, #40]
 422 0282 2946     		mov	r1, r5
 423 0284 0A00     		movs	r2, r1
 424 0286 2946     		mov	r1, r5
 425 0288 CB17     		asrs	r3, r1, #31
 426 028a 1346     		mov	r3, r2
 427 028c C7F88030 		str	r3, [r7, #128]
 176:./Libraries/CMSIS/DSP/Source/TransformFunctions/arm_rfft_q31.c ****      CoefB1 = *pCoefB;
 428              		.loc 1 176 13
 429 0290 D7F89C30 		ldr	r3, [r7, #156]
 430 0294 1B68     		ldr	r3, [r3]
 431 0296 BB67     		str	r3, [r7, #120]
 177:./Libraries/CMSIS/DSP/Source/TransformFunctions/arm_rfft_q31.c **** 
 178:./Libraries/CMSIS/DSP/Source/TransformFunctions/arm_rfft_q31.c ****      /* pIn[2 * n - 2 * i] * pBTable[2 * i + 1] */
 179:./Libraries/CMSIS/DSP/Source/TransformFunctions/arm_rfft_q31.c ****      multSub_32x32_keep32_R (outI, *pIn2--, CoefB1);
 432              		.loc 1 179 6
 433 0298 FB6F     		ldr	r3, [r7, #124]
 434 029a 1A46     		mov	r2, r3
 435 029c 4FEAE273 		asr	r3, r2, #31
 436 02a0 4FF00008 		mov	r8, #0
 437 02a4 4FF00009 		mov	r9, #0
 438 02a8 9146     		mov	r9, r2
 439 02aa 4FF00008 		mov	r8, #0
 440 02ae D7F88C20 		ldr	r2, [r7, #140]
 441 02b2 131F     		subs	r3, r2, #4
 442 02b4 C7F88C30 		str	r3, [r7, #140]
 443 02b8 1368     		ldr	r3, [r2]
 444 02ba 1846     		mov	r0, r3
 445 02bc 4FEAE071 		asr	r1, r0, #31
 446 02c0 BB6F     		ldr	r3, [r7, #120]
ARM GAS  /tmp/ccaCNqpz.s 			page 12


 447 02c2 1A46     		mov	r2, r3
 448 02c4 4FEAE273 		asr	r3, r2, #31
 449 02c8 02FB01F5 		mul	r5, r2, r1
 450 02cc 00FB03F4 		mul	r4, r0, r3
 451 02d0 2C44     		add	r4, r4, r5
 452 02d2 A0FB0223 		umull	r2, r3, r0, r2
 453 02d6 E118     		adds	r1, r4, r3
 454 02d8 0B46     		mov	r3, r1
 455 02da B8EB0201 		subs	r1, r8, r2
 456 02de 3962     		str	r1, [r7, #32]
 457 02e0 69EB0303 		sbc	r3, r9, r3
 458 02e4 7B62     		str	r3, [r7, #36]
 459 02e6 D7E90812 		ldrd	r1, [r7, #32]
 460 02ea 0B46     		mov	r3, r1
 461 02ec 13F10043 		adds	r3, r3, #-2147483648
 462 02f0 BB61     		str	r3, [r7, #24]
 463 02f2 1346     		mov	r3, r2
 464 02f4 43F10003 		adc	r3, r3, #0
 465 02f8 FB61     		str	r3, [r7, #28]
 466 02fa 4FF00002 		mov	r2, #0
 467 02fe 4FF00003 		mov	r3, #0
 468 0302 D7E90645 		ldrd	r4, [r7, #24]
 469 0306 2946     		mov	r1, r5
 470 0308 0A00     		movs	r2, r1
 471 030a 2946     		mov	r1, r5
 472 030c CB17     		asrs	r3, r1, #31
 473 030e 1346     		mov	r3, r2
 474 0310 FB67     		str	r3, [r7, #124]
 180:./Libraries/CMSIS/DSP/Source/TransformFunctions/arm_rfft_q31.c **** 
 181:./Libraries/CMSIS/DSP/Source/TransformFunctions/arm_rfft_q31.c ****      /* pSrc[2 * n - 2 * i + 1] * pBTable[2 * i + 1] */
 182:./Libraries/CMSIS/DSP/Source/TransformFunctions/arm_rfft_q31.c ****      multAcc_32x32_keep32_R (outR, *pIn2, CoefB1);
 475              		.loc 1 182 6
 476 0312 D7F88030 		ldr	r3, [r7, #128]
 477 0316 1A46     		mov	r2, r3
 478 0318 4FEAE273 		asr	r3, r2, #31
 479 031c 4FF00008 		mov	r8, #0
 480 0320 4FF00009 		mov	r9, #0
 481 0324 9146     		mov	r9, r2
 482 0326 4FF00008 		mov	r8, #0
 483 032a D7F88C30 		ldr	r3, [r7, #140]
 484 032e 1B68     		ldr	r3, [r3]
 485 0330 1846     		mov	r0, r3
 486 0332 4FEAE071 		asr	r1, r0, #31
 487 0336 BB6F     		ldr	r3, [r7, #120]
 488 0338 1A46     		mov	r2, r3
 489 033a 4FEAE273 		asr	r3, r2, #31
 490 033e 02FB01F5 		mul	r5, r2, r1
 491 0342 00FB03F4 		mul	r4, r0, r3
 492 0346 2C44     		add	r4, r4, r5
 493 0348 A0FB0223 		umull	r2, r3, r0, r2
 494 034c E118     		adds	r1, r4, r3
 495 034e 0B46     		mov	r3, r1
 496 0350 18EB0201 		adds	r1, r8, r2
 497 0354 3961     		str	r1, [r7, #16]
 498 0356 49EB0303 		adc	r3, r9, r3
 499 035a 7B61     		str	r3, [r7, #20]
 500 035c D7E90412 		ldrd	r1, [r7, #16]
ARM GAS  /tmp/ccaCNqpz.s 			page 13


 501 0360 0B46     		mov	r3, r1
 502 0362 13F10043 		adds	r3, r3, #-2147483648
 503 0366 BB60     		str	r3, [r7, #8]
 504 0368 1346     		mov	r3, r2
 505 036a 43F10003 		adc	r3, r3, #0
 506 036e FB60     		str	r3, [r7, #12]
 507 0370 4FF00002 		mov	r2, #0
 508 0374 4FF00003 		mov	r3, #0
 509 0378 D7E90245 		ldrd	r4, [r7, #8]
 510 037c 2946     		mov	r1, r5
 511 037e 0A00     		movs	r2, r1
 512 0380 2946     		mov	r1, r5
 513 0382 CB17     		asrs	r3, r1, #31
 514 0384 1346     		mov	r3, r2
 515 0386 C7F88030 		str	r3, [r7, #128]
 183:./Libraries/CMSIS/DSP/Source/TransformFunctions/arm_rfft_q31.c **** 
 184:./Libraries/CMSIS/DSP/Source/TransformFunctions/arm_rfft_q31.c ****      /* pIn[2 * n - 2 * i + 1] * pBTable[2 * i] */
 185:./Libraries/CMSIS/DSP/Source/TransformFunctions/arm_rfft_q31.c ****      multSub_32x32_keep32_R (outI, *pIn2--, CoefA2);
 516              		.loc 1 185 6
 517 038a FB6F     		ldr	r3, [r7, #124]
 518 038c 1A46     		mov	r2, r3
 519 038e 4FEAE273 		asr	r3, r2, #31
 520 0392 4FF00008 		mov	r8, #0
 521 0396 4FF00009 		mov	r9, #0
 522 039a 9146     		mov	r9, r2
 523 039c 4FF00008 		mov	r8, #0
 524 03a0 D7F88C20 		ldr	r2, [r7, #140]
 525 03a4 131F     		subs	r3, r2, #4
 526 03a6 C7F88C30 		str	r3, [r7, #140]
 527 03aa 1368     		ldr	r3, [r2]
 528 03ac 1846     		mov	r0, r3
 529 03ae 4FEAE071 		asr	r1, r0, #31
 530 03b2 D7F88430 		ldr	r3, [r7, #132]
 531 03b6 1A46     		mov	r2, r3
 532 03b8 4FEAE273 		asr	r3, r2, #31
 533 03bc 02FB01F5 		mul	r5, r2, r1
 534 03c0 00FB03F4 		mul	r4, r0, r3
 535 03c4 2C44     		add	r4, r4, r5
 536 03c6 A0FB0223 		umull	r2, r3, r0, r2
 537 03ca E118     		adds	r1, r4, r3
 538 03cc 0B46     		mov	r3, r1
 539 03ce B8EB0201 		subs	r1, r8, r2
 540 03d2 3960     		str	r1, [r7]
 541 03d4 69EB0303 		sbc	r3, r9, r3
 542 03d8 7B60     		str	r3, [r7, #4]
 543 03da D7E90012 		ldrd	r1, [r7]
 544 03de 0B46     		mov	r3, r1
 545 03e0 13F1004A 		adds	r10, r3, #-2147483648
 546 03e4 1346     		mov	r3, r2
 547 03e6 43F1000B 		adc	fp, r3, #0
 548 03ea 4FF00002 		mov	r2, #0
 549 03ee 4FF00003 		mov	r3, #0
 550 03f2 5A46     		mov	r2, fp
 551 03f4 4FEAEB73 		asr	r3, fp, #31
 552 03f8 1346     		mov	r3, r2
 553 03fa FB67     		str	r3, [r7, #124]
 186:./Libraries/CMSIS/DSP/Source/TransformFunctions/arm_rfft_q31.c **** 
ARM GAS  /tmp/ccaCNqpz.s 			page 14


 187:./Libraries/CMSIS/DSP/Source/TransformFunctions/arm_rfft_q31.c ****      /* write output */
 188:./Libraries/CMSIS/DSP/Source/TransformFunctions/arm_rfft_q31.c ****      *pOut1++ = outR;
 554              		.loc 1 188 12
 555 03fc D7F89820 		ldr	r2, [r7, #152]
 556 0400 131D     		adds	r3, r2, #4
 557 0402 C7F89830 		str	r3, [r7, #152]
 558              		.loc 1 188 15
 559 0406 D7F88030 		ldr	r3, [r7, #128]
 560 040a 1360     		str	r3, [r2]
 189:./Libraries/CMSIS/DSP/Source/TransformFunctions/arm_rfft_q31.c ****      *pOut1++ = outI;
 561              		.loc 1 189 12
 562 040c D7F89820 		ldr	r2, [r7, #152]
 563 0410 131D     		adds	r3, r2, #4
 564 0412 C7F89830 		str	r3, [r7, #152]
 565              		.loc 1 189 15
 566 0416 FB6F     		ldr	r3, [r7, #124]
 567 0418 1360     		str	r3, [r2]
 190:./Libraries/CMSIS/DSP/Source/TransformFunctions/arm_rfft_q31.c **** 
 191:./Libraries/CMSIS/DSP/Source/TransformFunctions/arm_rfft_q31.c ****      /* write complex conjugate output */
 192:./Libraries/CMSIS/DSP/Source/TransformFunctions/arm_rfft_q31.c ****      *pOut2-- = -outI;
 568              		.loc 1 192 12
 569 041a D7F89420 		ldr	r2, [r7, #148]
 570 041e 131F     		subs	r3, r2, #4
 571 0420 C7F89430 		str	r3, [r7, #148]
 572              		.loc 1 192 17
 573 0424 FB6F     		ldr	r3, [r7, #124]
 574 0426 5B42     		rsbs	r3, r3, #0
 575              		.loc 1 192 15
 576 0428 1360     		str	r3, [r2]
 193:./Libraries/CMSIS/DSP/Source/TransformFunctions/arm_rfft_q31.c ****      *pOut2-- = outR;
 577              		.loc 1 193 12
 578 042a D7F89420 		ldr	r2, [r7, #148]
 579 042e 131F     		subs	r3, r2, #4
 580 0430 C7F89430 		str	r3, [r7, #148]
 581              		.loc 1 193 15
 582 0434 D7F88030 		ldr	r3, [r7, #128]
 583 0438 1360     		str	r3, [r2]
 194:./Libraries/CMSIS/DSP/Source/TransformFunctions/arm_rfft_q31.c **** 
 195:./Libraries/CMSIS/DSP/Source/TransformFunctions/arm_rfft_q31.c ****      /* update coefficient pointer */
 196:./Libraries/CMSIS/DSP/Source/TransformFunctions/arm_rfft_q31.c ****      pCoefB = pCoefB + (2 * modifier);
 584              		.loc 1 196 22
 585 043a D7F8CC30 		ldr	r3, [r7, #204]
 586 043e DA00     		lsls	r2, r3, #3
 587              		.loc 1 196 13
 588 0440 D7F89C30 		ldr	r3, [r7, #156]
 589 0444 1344     		add	r3, r3, r2
 590 0446 C7F89C30 		str	r3, [r7, #156]
 197:./Libraries/CMSIS/DSP/Source/TransformFunctions/arm_rfft_q31.c ****      pCoefA = pCoefA + (2 * modifier - 1);
 591              		.loc 1 197 22
 592 044a D7F8CC30 		ldr	r3, [r7, #204]
 593 044e DB00     		lsls	r3, r3, #3
 594 0450 1A1F     		subs	r2, r3, #4
 595              		.loc 1 197 13
 596 0452 D7F8A030 		ldr	r3, [r7, #160]
 597 0456 1344     		add	r3, r3, r2
 598 0458 C7F8A030 		str	r3, [r7, #160]
 198:./Libraries/CMSIS/DSP/Source/TransformFunctions/arm_rfft_q31.c **** 
ARM GAS  /tmp/ccaCNqpz.s 			page 15


 199:./Libraries/CMSIS/DSP/Source/TransformFunctions/arm_rfft_q31.c ****      /* Decrement loop count */
 200:./Libraries/CMSIS/DSP/Source/TransformFunctions/arm_rfft_q31.c ****      i--;
 599              		.loc 1 200 7
 600 045c D7F8A430 		ldr	r3, [r7, #164]
 601 0460 013B     		subs	r3, r3, #1
 602 0462 C7F8A430 		str	r3, [r7, #164]
 603              	.L8:
 145:./Libraries/CMSIS/DSP/Source/TransformFunctions/arm_rfft_q31.c ****   {
 604              		.loc 1 145 9
 605 0466 D7F8A430 		ldr	r3, [r7, #164]
 606 046a 002B     		cmp	r3, #0
 607 046c 7FF4FBAD 		bne	.L9
 201:./Libraries/CMSIS/DSP/Source/TransformFunctions/arm_rfft_q31.c ****   }
 202:./Libraries/CMSIS/DSP/Source/TransformFunctions/arm_rfft_q31.c **** 
 203:./Libraries/CMSIS/DSP/Source/TransformFunctions/arm_rfft_q31.c ****   pDst[2 * fftLen]     = (pSrc[0] - pSrc[1]) >> 1U;
 608              		.loc 1 203 31
 609 0470 7B6F     		ldr	r3, [r7, #116]
 610 0472 1A68     		ldr	r2, [r3]
 611              		.loc 1 203 41
 612 0474 7B6F     		ldr	r3, [r7, #116]
 613 0476 0433     		adds	r3, r3, #4
 614 0478 1B68     		ldr	r3, [r3]
 615              		.loc 1 203 35
 616 047a D21A     		subs	r2, r2, r3
 617              		.loc 1 203 7
 618 047c 3B6F     		ldr	r3, [r7, #112]
 619 047e DB00     		lsls	r3, r3, #3
 620 0480 D7F8C810 		ldr	r1, [r7, #200]
 621 0484 0B44     		add	r3, r3, r1
 622              		.loc 1 203 46
 623 0486 5210     		asrs	r2, r2, #1
 624              		.loc 1 203 24
 625 0488 1A60     		str	r2, [r3]
 204:./Libraries/CMSIS/DSP/Source/TransformFunctions/arm_rfft_q31.c ****   pDst[2 * fftLen + 1] = 0;
 626              		.loc 1 204 7
 627 048a 3B6F     		ldr	r3, [r7, #112]
 628 048c DB00     		lsls	r3, r3, #3
 629 048e 0433     		adds	r3, r3, #4
 630 0490 D7F8C820 		ldr	r2, [r7, #200]
 631 0494 1344     		add	r3, r3, r2
 632              		.loc 1 204 24
 633 0496 0022     		movs	r2, #0
 634 0498 1A60     		str	r2, [r3]
 205:./Libraries/CMSIS/DSP/Source/TransformFunctions/arm_rfft_q31.c **** 
 206:./Libraries/CMSIS/DSP/Source/TransformFunctions/arm_rfft_q31.c ****   pDst[0] = (pSrc[0] + pSrc[1]) >> 1U;
 635              		.loc 1 206 18
 636 049a 7B6F     		ldr	r3, [r7, #116]
 637 049c 1A68     		ldr	r2, [r3]
 638              		.loc 1 206 28
 639 049e 7B6F     		ldr	r3, [r7, #116]
 640 04a0 0433     		adds	r3, r3, #4
 641 04a2 1B68     		ldr	r3, [r3]
 642              		.loc 1 206 22
 643 04a4 1344     		add	r3, r3, r2
 644              		.loc 1 206 33
 645 04a6 5A10     		asrs	r2, r3, #1
 646              		.loc 1 206 11
ARM GAS  /tmp/ccaCNqpz.s 			page 16


 647 04a8 D7F8C830 		ldr	r3, [r7, #200]
 648 04ac 1A60     		str	r2, [r3]
 207:./Libraries/CMSIS/DSP/Source/TransformFunctions/arm_rfft_q31.c ****   pDst[1] = 0;
 649              		.loc 1 207 7
 650 04ae D7F8C830 		ldr	r3, [r7, #200]
 651 04b2 0433     		adds	r3, r3, #4
 652              		.loc 1 207 11
 653 04b4 0022     		movs	r2, #0
 654 04b6 1A60     		str	r2, [r3]
 208:./Libraries/CMSIS/DSP/Source/TransformFunctions/arm_rfft_q31.c **** }
 655              		.loc 1 208 1
 656 04b8 00BF     		nop
 657 04ba AC37     		adds	r7, r7, #172
 658              	.LCFI8:
 659              		.cfi_def_cfa_offset 28
 660 04bc BD46     		mov	sp, r7
 661              	.LCFI9:
 662              		.cfi_def_cfa_register 13
 663              		@ sp needed
 664 04be BDE8B00F 		pop	{r4, r5, r7, r8, r9, r10, fp}
 665              	.LCFI10:
 666              		.cfi_restore 11
 667              		.cfi_restore 10
 668              		.cfi_restore 9
 669              		.cfi_restore 8
 670              		.cfi_restore 7
 671              		.cfi_restore 5
 672              		.cfi_restore 4
 673              		.cfi_def_cfa_offset 0
 674 04c2 7047     		bx	lr
 675              		.cfi_endproc
 676              	.LFE146:
 678              		.section	.text.arm_split_rifft_q31,"ax",%progbits
 679              		.align	1
 680              		.global	arm_split_rifft_q31
 681              		.syntax unified
 682              		.thumb
 683              		.thumb_func
 684              		.fpu fpv5-d16
 686              	arm_split_rifft_q31:
 687              	.LFB147:
 209:./Libraries/CMSIS/DSP/Source/TransformFunctions/arm_rfft_q31.c **** 
 210:./Libraries/CMSIS/DSP/Source/TransformFunctions/arm_rfft_q31.c **** 
 211:./Libraries/CMSIS/DSP/Source/TransformFunctions/arm_rfft_q31.c **** /**
 212:./Libraries/CMSIS/DSP/Source/TransformFunctions/arm_rfft_q31.c ****   @brief         Core Real IFFT process
 213:./Libraries/CMSIS/DSP/Source/TransformFunctions/arm_rfft_q31.c ****   @param[in]     pSrc      points to input buffer
 214:./Libraries/CMSIS/DSP/Source/TransformFunctions/arm_rfft_q31.c ****   @param[in]     fftLen    length of FFT
 215:./Libraries/CMSIS/DSP/Source/TransformFunctions/arm_rfft_q31.c ****   @param[in]     pATable   points to twiddle Coef A buffer
 216:./Libraries/CMSIS/DSP/Source/TransformFunctions/arm_rfft_q31.c ****   @param[in]     pBTable   points to twiddle Coef B buffer
 217:./Libraries/CMSIS/DSP/Source/TransformFunctions/arm_rfft_q31.c ****   @param[out]    pDst      points to output buffer
 218:./Libraries/CMSIS/DSP/Source/TransformFunctions/arm_rfft_q31.c ****   @param[in]     modifier  twiddle coefficient modifier that supports different size FFTs with the 
 219:./Libraries/CMSIS/DSP/Source/TransformFunctions/arm_rfft_q31.c ****   @return        none
 220:./Libraries/CMSIS/DSP/Source/TransformFunctions/arm_rfft_q31.c ****  */
 221:./Libraries/CMSIS/DSP/Source/TransformFunctions/arm_rfft_q31.c **** 
 222:./Libraries/CMSIS/DSP/Source/TransformFunctions/arm_rfft_q31.c **** void arm_split_rifft_q31(
 223:./Libraries/CMSIS/DSP/Source/TransformFunctions/arm_rfft_q31.c ****         q31_t * pSrc,
 224:./Libraries/CMSIS/DSP/Source/TransformFunctions/arm_rfft_q31.c ****         uint32_t fftLen,
ARM GAS  /tmp/ccaCNqpz.s 			page 17


 225:./Libraries/CMSIS/DSP/Source/TransformFunctions/arm_rfft_q31.c ****   const q31_t * pATable,
 226:./Libraries/CMSIS/DSP/Source/TransformFunctions/arm_rfft_q31.c ****   const q31_t * pBTable,
 227:./Libraries/CMSIS/DSP/Source/TransformFunctions/arm_rfft_q31.c ****         q31_t * pDst,
 228:./Libraries/CMSIS/DSP/Source/TransformFunctions/arm_rfft_q31.c ****         uint32_t modifier)
 229:./Libraries/CMSIS/DSP/Source/TransformFunctions/arm_rfft_q31.c **** {       
 688              		.loc 1 229 1
 689              		.cfi_startproc
 690              		@ args = 8, pretend = 0, frame = 160
 691              		@ frame_needed = 1, uses_anonymous_args = 0
 692              		@ link register save eliminated.
 693 0000 2DE9B00F 		push	{r4, r5, r7, r8, r9, r10, fp}
 694              	.LCFI11:
 695              		.cfi_def_cfa_offset 28
 696              		.cfi_offset 4, -28
 697              		.cfi_offset 5, -24
 698              		.cfi_offset 7, -20
 699              		.cfi_offset 8, -16
 700              		.cfi_offset 9, -12
 701              		.cfi_offset 10, -8
 702              		.cfi_offset 11, -4
 703 0004 A9B0     		sub	sp, sp, #164
 704              	.LCFI12:
 705              		.cfi_def_cfa_offset 192
 706 0006 00AF     		add	r7, sp, #0
 707              	.LCFI13:
 708              		.cfi_def_cfa_register 7
 709 0008 7867     		str	r0, [r7, #116]
 710 000a 3967     		str	r1, [r7, #112]
 711 000c FA66     		str	r2, [r7, #108]
 712 000e BB66     		str	r3, [r7, #104]
 230:./Libraries/CMSIS/DSP/Source/TransformFunctions/arm_rfft_q31.c ****         q31_t outR, outI;                              /* Temporary variables for output */
 231:./Libraries/CMSIS/DSP/Source/TransformFunctions/arm_rfft_q31.c ****   const q31_t *pCoefA, *pCoefB;                        /* Temporary pointers for twiddle factors */
 232:./Libraries/CMSIS/DSP/Source/TransformFunctions/arm_rfft_q31.c ****         q31_t CoefA1, CoefA2, CoefB1;                  /* Temporary variables for twiddle coefficie
 233:./Libraries/CMSIS/DSP/Source/TransformFunctions/arm_rfft_q31.c ****         q31_t *pIn1 = &pSrc[0], *pIn2 = &pSrc[2 * fftLen + 1];
 713              		.loc 1 233 16
 714 0010 7B6F     		ldr	r3, [r7, #116]
 715 0012 C7F89430 		str	r3, [r7, #148]
 716              		.loc 1 233 46
 717 0016 3B6F     		ldr	r3, [r7, #112]
 718 0018 DB00     		lsls	r3, r3, #3
 719 001a 1A1D     		adds	r2, r3, #4
 720              		.loc 1 233 34
 721 001c 7B6F     		ldr	r3, [r7, #116]
 722 001e 1344     		add	r3, r3, r2
 723 0020 C7F89030 		str	r3, [r7, #144]
 234:./Libraries/CMSIS/DSP/Source/TransformFunctions/arm_rfft_q31.c **** 
 235:./Libraries/CMSIS/DSP/Source/TransformFunctions/arm_rfft_q31.c ****   pCoefA = &pATable[0];
 724              		.loc 1 235 10
 725 0024 FB6E     		ldr	r3, [r7, #108]
 726 0026 C7F89C30 		str	r3, [r7, #156]
 236:./Libraries/CMSIS/DSP/Source/TransformFunctions/arm_rfft_q31.c ****   pCoefB = &pBTable[0];
 727              		.loc 1 236 10
 728 002a BB6E     		ldr	r3, [r7, #104]
 729 002c C7F89830 		str	r3, [r7, #152]
 237:./Libraries/CMSIS/DSP/Source/TransformFunctions/arm_rfft_q31.c **** 
 238:./Libraries/CMSIS/DSP/Source/TransformFunctions/arm_rfft_q31.c ****   while (fftLen > 0U)
 730              		.loc 1 238 9
ARM GAS  /tmp/ccaCNqpz.s 			page 18


 731 0030 F6E1     		b	.L11
 732              	.L12:
 239:./Libraries/CMSIS/DSP/Source/TransformFunctions/arm_rfft_q31.c ****   {
 240:./Libraries/CMSIS/DSP/Source/TransformFunctions/arm_rfft_q31.c ****      /*
 241:./Libraries/CMSIS/DSP/Source/TransformFunctions/arm_rfft_q31.c ****        outR = (  pIn[2 * i]             * pATable[2 * i]
 242:./Libraries/CMSIS/DSP/Source/TransformFunctions/arm_rfft_q31.c ****                + pIn[2 * i + 1]         * pATable[2 * i + 1]
 243:./Libraries/CMSIS/DSP/Source/TransformFunctions/arm_rfft_q31.c ****                + pIn[2 * n - 2 * i]     * pBTable[2 * i]
 244:./Libraries/CMSIS/DSP/Source/TransformFunctions/arm_rfft_q31.c ****                - pIn[2 * n - 2 * i + 1] * pBTable[2 * i + 1]);
 245:./Libraries/CMSIS/DSP/Source/TransformFunctions/arm_rfft_q31.c **** 
 246:./Libraries/CMSIS/DSP/Source/TransformFunctions/arm_rfft_q31.c ****        outI = (  pIn[2 * i + 1]         * pATable[2 * i]
 247:./Libraries/CMSIS/DSP/Source/TransformFunctions/arm_rfft_q31.c ****                - pIn[2 * i]             * pATable[2 * i + 1]
 248:./Libraries/CMSIS/DSP/Source/TransformFunctions/arm_rfft_q31.c ****                - pIn[2 * n - 2 * i]     * pBTable[2 * i + 1]
 249:./Libraries/CMSIS/DSP/Source/TransformFunctions/arm_rfft_q31.c ****                - pIn[2 * n - 2 * i + 1] * pBTable[2 * i]);
 250:./Libraries/CMSIS/DSP/Source/TransformFunctions/arm_rfft_q31.c ****       */
 251:./Libraries/CMSIS/DSP/Source/TransformFunctions/arm_rfft_q31.c **** 
 252:./Libraries/CMSIS/DSP/Source/TransformFunctions/arm_rfft_q31.c ****      CoefA1 = *pCoefA++;
 733              		.loc 1 252 22
 734 0032 D7F89C20 		ldr	r2, [r7, #156]
 735 0036 131D     		adds	r3, r2, #4
 736 0038 C7F89C30 		str	r3, [r7, #156]
 737              		.loc 1 252 13
 738 003c 1368     		ldr	r3, [r2]
 739 003e C7F88C30 		str	r3, [r7, #140]
 253:./Libraries/CMSIS/DSP/Source/TransformFunctions/arm_rfft_q31.c ****      CoefA2 = *pCoefA;
 740              		.loc 1 253 13
 741 0042 D7F89C30 		ldr	r3, [r7, #156]
 742 0046 1B68     		ldr	r3, [r3]
 743 0048 C7F88830 		str	r3, [r7, #136]
 254:./Libraries/CMSIS/DSP/Source/TransformFunctions/arm_rfft_q31.c **** 
 255:./Libraries/CMSIS/DSP/Source/TransformFunctions/arm_rfft_q31.c ****      /* outR = (pIn[2 * i] * pATable[2 * i] */
 256:./Libraries/CMSIS/DSP/Source/TransformFunctions/arm_rfft_q31.c ****      mult_32x32_keep32_R (outR, *pIn1, CoefA1);
 744              		.loc 1 256 6
 745 004c D7F89430 		ldr	r3, [r7, #148]
 746 0050 1B68     		ldr	r3, [r3]
 747 0052 1846     		mov	r0, r3
 748 0054 4FEAE071 		asr	r1, r0, #31
 749 0058 D7F88C30 		ldr	r3, [r7, #140]
 750 005c 1A46     		mov	r2, r3
 751 005e 4FEAE273 		asr	r3, r2, #31
 752 0062 02FB01F5 		mul	r5, r2, r1
 753 0066 00FB03F4 		mul	r4, r0, r3
 754 006a 2C44     		add	r4, r4, r5
 755 006c A0FB0223 		umull	r2, r3, r0, r2
 756 0070 E118     		adds	r1, r4, r3
 757 0072 0B46     		mov	r3, r1
 758 0074 12F10041 		adds	r1, r2, #-2147483648
 759 0078 3966     		str	r1, [r7, #96]
 760 007a 43F10003 		adc	r3, r3, #0
 761 007e 7B66     		str	r3, [r7, #100]
 762 0080 4FF00002 		mov	r2, #0
 763 0084 4FF00003 		mov	r3, #0
 764 0088 D7E91845 		ldrd	r4, [r7, #96]
 765 008c 2946     		mov	r1, r5
 766 008e 0A00     		movs	r2, r1
 767 0090 2946     		mov	r1, r5
 768 0092 CB17     		asrs	r3, r1, #31
 769 0094 1346     		mov	r3, r2
ARM GAS  /tmp/ccaCNqpz.s 			page 19


 770 0096 C7F88430 		str	r3, [r7, #132]
 257:./Libraries/CMSIS/DSP/Source/TransformFunctions/arm_rfft_q31.c **** 
 258:./Libraries/CMSIS/DSP/Source/TransformFunctions/arm_rfft_q31.c ****      /* - pIn[2 * i] * pATable[2 * i + 1] */
 259:./Libraries/CMSIS/DSP/Source/TransformFunctions/arm_rfft_q31.c ****      mult_32x32_keep32_R (outI, *pIn1++, -CoefA2);
 771              		.loc 1 259 6
 772 009a D7F89420 		ldr	r2, [r7, #148]
 773 009e 131D     		adds	r3, r2, #4
 774 00a0 C7F89430 		str	r3, [r7, #148]
 775 00a4 1368     		ldr	r3, [r2]
 776 00a6 1846     		mov	r0, r3
 777 00a8 4FEAE071 		asr	r1, r0, #31
 778 00ac D7F88830 		ldr	r3, [r7, #136]
 779 00b0 5B42     		rsbs	r3, r3, #0
 780 00b2 1A46     		mov	r2, r3
 781 00b4 4FEAE273 		asr	r3, r2, #31
 782 00b8 02FB01F5 		mul	r5, r2, r1
 783 00bc 00FB03F4 		mul	r4, r0, r3
 784 00c0 2C44     		add	r4, r4, r5
 785 00c2 A0FB0223 		umull	r2, r3, r0, r2
 786 00c6 E118     		adds	r1, r4, r3
 787 00c8 0B46     		mov	r3, r1
 788 00ca 12F10041 		adds	r1, r2, #-2147483648
 789 00ce B965     		str	r1, [r7, #88]
 790 00d0 43F10003 		adc	r3, r3, #0
 791 00d4 FB65     		str	r3, [r7, #92]
 792 00d6 4FF00002 		mov	r2, #0
 793 00da 4FF00003 		mov	r3, #0
 794 00de D7E91645 		ldrd	r4, [r7, #88]
 795 00e2 2946     		mov	r1, r5
 796 00e4 0A00     		movs	r2, r1
 797 00e6 2946     		mov	r1, r5
 798 00e8 CB17     		asrs	r3, r1, #31
 799 00ea 1346     		mov	r3, r2
 800 00ec C7F88030 		str	r3, [r7, #128]
 260:./Libraries/CMSIS/DSP/Source/TransformFunctions/arm_rfft_q31.c **** 
 261:./Libraries/CMSIS/DSP/Source/TransformFunctions/arm_rfft_q31.c ****      /* pIn[2 * i + 1] * pATable[2 * i + 1] */
 262:./Libraries/CMSIS/DSP/Source/TransformFunctions/arm_rfft_q31.c ****      multAcc_32x32_keep32_R (outR, *pIn1, CoefA2);
 801              		.loc 1 262 6
 802 00f0 D7F88430 		ldr	r3, [r7, #132]
 803 00f4 1A46     		mov	r2, r3
 804 00f6 4FEAE273 		asr	r3, r2, #31
 805 00fa 4FF00008 		mov	r8, #0
 806 00fe 4FF00009 		mov	r9, #0
 807 0102 9146     		mov	r9, r2
 808 0104 4FF00008 		mov	r8, #0
 809 0108 D7F89430 		ldr	r3, [r7, #148]
 810 010c 1B68     		ldr	r3, [r3]
 811 010e 1846     		mov	r0, r3
 812 0110 4FEAE071 		asr	r1, r0, #31
 813 0114 D7F88830 		ldr	r3, [r7, #136]
 814 0118 1A46     		mov	r2, r3
 815 011a 4FEAE273 		asr	r3, r2, #31
 816 011e 02FB01F5 		mul	r5, r2, r1
 817 0122 00FB03F4 		mul	r4, r0, r3
 818 0126 2C44     		add	r4, r4, r5
 819 0128 A0FB0223 		umull	r2, r3, r0, r2
 820 012c E118     		adds	r1, r4, r3
ARM GAS  /tmp/ccaCNqpz.s 			page 20


 821 012e 0B46     		mov	r3, r1
 822 0130 18EB0201 		adds	r1, r8, r2
 823 0134 3965     		str	r1, [r7, #80]
 824 0136 49EB0303 		adc	r3, r9, r3
 825 013a 7B65     		str	r3, [r7, #84]
 826 013c D7E91412 		ldrd	r1, [r7, #80]
 827 0140 0B46     		mov	r3, r1
 828 0142 13F10043 		adds	r3, r3, #-2147483648
 829 0146 BB64     		str	r3, [r7, #72]
 830 0148 1346     		mov	r3, r2
 831 014a 43F10003 		adc	r3, r3, #0
 832 014e FB64     		str	r3, [r7, #76]
 833 0150 4FF00002 		mov	r2, #0
 834 0154 4FF00003 		mov	r3, #0
 835 0158 D7E91245 		ldrd	r4, [r7, #72]
 836 015c 2946     		mov	r1, r5
 837 015e 0A00     		movs	r2, r1
 838 0160 2946     		mov	r1, r5
 839 0162 CB17     		asrs	r3, r1, #31
 840 0164 1346     		mov	r3, r2
 841 0166 C7F88430 		str	r3, [r7, #132]
 263:./Libraries/CMSIS/DSP/Source/TransformFunctions/arm_rfft_q31.c **** 
 264:./Libraries/CMSIS/DSP/Source/TransformFunctions/arm_rfft_q31.c ****      /* pIn[2 * i + 1] * pATable[2 * i] */
 265:./Libraries/CMSIS/DSP/Source/TransformFunctions/arm_rfft_q31.c ****      multAcc_32x32_keep32_R (outI, *pIn1++, CoefA1);
 842              		.loc 1 265 6
 843 016a D7F88030 		ldr	r3, [r7, #128]
 844 016e 1A46     		mov	r2, r3
 845 0170 4FEAE273 		asr	r3, r2, #31
 846 0174 4FF00008 		mov	r8, #0
 847 0178 4FF00009 		mov	r9, #0
 848 017c 9146     		mov	r9, r2
 849 017e 4FF00008 		mov	r8, #0
 850 0182 D7F89420 		ldr	r2, [r7, #148]
 851 0186 131D     		adds	r3, r2, #4
 852 0188 C7F89430 		str	r3, [r7, #148]
 853 018c 1368     		ldr	r3, [r2]
 854 018e 1846     		mov	r0, r3
 855 0190 4FEAE071 		asr	r1, r0, #31
 856 0194 D7F88C30 		ldr	r3, [r7, #140]
 857 0198 1A46     		mov	r2, r3
 858 019a 4FEAE273 		asr	r3, r2, #31
 859 019e 02FB01F5 		mul	r5, r2, r1
 860 01a2 00FB03F4 		mul	r4, r0, r3
 861 01a6 2C44     		add	r4, r4, r5
 862 01a8 A0FB0223 		umull	r2, r3, r0, r2
 863 01ac E118     		adds	r1, r4, r3
 864 01ae 0B46     		mov	r3, r1
 865 01b0 18EB0201 		adds	r1, r8, r2
 866 01b4 3964     		str	r1, [r7, #64]
 867 01b6 49EB0303 		adc	r3, r9, r3
 868 01ba 7B64     		str	r3, [r7, #68]
 869 01bc D7E91012 		ldrd	r1, [r7, #64]
 870 01c0 0B46     		mov	r3, r1
 871 01c2 13F10043 		adds	r3, r3, #-2147483648
 872 01c6 BB63     		str	r3, [r7, #56]
 873 01c8 1346     		mov	r3, r2
 874 01ca 43F10003 		adc	r3, r3, #0
ARM GAS  /tmp/ccaCNqpz.s 			page 21


 875 01ce FB63     		str	r3, [r7, #60]
 876 01d0 4FF00002 		mov	r2, #0
 877 01d4 4FF00003 		mov	r3, #0
 878 01d8 D7E90E45 		ldrd	r4, [r7, #56]
 879 01dc 2946     		mov	r1, r5
 880 01de 0A00     		movs	r2, r1
 881 01e0 2946     		mov	r1, r5
 882 01e2 CB17     		asrs	r3, r1, #31
 883 01e4 1346     		mov	r3, r2
 884 01e6 C7F88030 		str	r3, [r7, #128]
 266:./Libraries/CMSIS/DSP/Source/TransformFunctions/arm_rfft_q31.c **** 
 267:./Libraries/CMSIS/DSP/Source/TransformFunctions/arm_rfft_q31.c ****      /* pIn[2 * n - 2 * i] * pBTable[2 * i] */
 268:./Libraries/CMSIS/DSP/Source/TransformFunctions/arm_rfft_q31.c ****      multAcc_32x32_keep32_R (outR, *pIn2, CoefA2);
 885              		.loc 1 268 6
 886 01ea D7F88430 		ldr	r3, [r7, #132]
 887 01ee 1A46     		mov	r2, r3
 888 01f0 4FEAE273 		asr	r3, r2, #31
 889 01f4 4FF00008 		mov	r8, #0
 890 01f8 4FF00009 		mov	r9, #0
 891 01fc 9146     		mov	r9, r2
 892 01fe 4FF00008 		mov	r8, #0
 893 0202 D7F89030 		ldr	r3, [r7, #144]
 894 0206 1B68     		ldr	r3, [r3]
 895 0208 1846     		mov	r0, r3
 896 020a 4FEAE071 		asr	r1, r0, #31
 897 020e D7F88830 		ldr	r3, [r7, #136]
 898 0212 1A46     		mov	r2, r3
 899 0214 4FEAE273 		asr	r3, r2, #31
 900 0218 02FB01F5 		mul	r5, r2, r1
 901 021c 00FB03F4 		mul	r4, r0, r3
 902 0220 2C44     		add	r4, r4, r5
 903 0222 A0FB0223 		umull	r2, r3, r0, r2
 904 0226 E118     		adds	r1, r4, r3
 905 0228 0B46     		mov	r3, r1
 906 022a 18EB0201 		adds	r1, r8, r2
 907 022e 3963     		str	r1, [r7, #48]
 908 0230 49EB0303 		adc	r3, r9, r3
 909 0234 7B63     		str	r3, [r7, #52]
 910 0236 D7E90C12 		ldrd	r1, [r7, #48]
 911 023a 0B46     		mov	r3, r1
 912 023c 13F10043 		adds	r3, r3, #-2147483648
 913 0240 BB62     		str	r3, [r7, #40]
 914 0242 1346     		mov	r3, r2
 915 0244 43F10003 		adc	r3, r3, #0
 916 0248 FB62     		str	r3, [r7, #44]
 917 024a 4FF00002 		mov	r2, #0
 918 024e 4FF00003 		mov	r3, #0
 919 0252 D7E90A45 		ldrd	r4, [r7, #40]
 920 0256 2946     		mov	r1, r5
 921 0258 0A00     		movs	r2, r1
 922 025a 2946     		mov	r1, r5
 923 025c CB17     		asrs	r3, r1, #31
 924 025e 1346     		mov	r3, r2
 925 0260 C7F88430 		str	r3, [r7, #132]
 269:./Libraries/CMSIS/DSP/Source/TransformFunctions/arm_rfft_q31.c ****      CoefB1 = *pCoefB;
 926              		.loc 1 269 13
 927 0264 D7F89830 		ldr	r3, [r7, #152]
ARM GAS  /tmp/ccaCNqpz.s 			page 22


 928 0268 1B68     		ldr	r3, [r3]
 929 026a FB67     		str	r3, [r7, #124]
 270:./Libraries/CMSIS/DSP/Source/TransformFunctions/arm_rfft_q31.c **** 
 271:./Libraries/CMSIS/DSP/Source/TransformFunctions/arm_rfft_q31.c ****      /* pIn[2 * n - 2 * i] * pBTable[2 * i + 1] */
 272:./Libraries/CMSIS/DSP/Source/TransformFunctions/arm_rfft_q31.c ****      multSub_32x32_keep32_R (outI, *pIn2--, CoefB1);
 930              		.loc 1 272 6
 931 026c D7F88030 		ldr	r3, [r7, #128]
 932 0270 1A46     		mov	r2, r3
 933 0272 4FEAE273 		asr	r3, r2, #31
 934 0276 4FF00008 		mov	r8, #0
 935 027a 4FF00009 		mov	r9, #0
 936 027e 9146     		mov	r9, r2
 937 0280 4FF00008 		mov	r8, #0
 938 0284 D7F89020 		ldr	r2, [r7, #144]
 939 0288 131F     		subs	r3, r2, #4
 940 028a C7F89030 		str	r3, [r7, #144]
 941 028e 1368     		ldr	r3, [r2]
 942 0290 1846     		mov	r0, r3
 943 0292 4FEAE071 		asr	r1, r0, #31
 944 0296 FB6F     		ldr	r3, [r7, #124]
 945 0298 1A46     		mov	r2, r3
 946 029a 4FEAE273 		asr	r3, r2, #31
 947 029e 02FB01F5 		mul	r5, r2, r1
 948 02a2 00FB03F4 		mul	r4, r0, r3
 949 02a6 2C44     		add	r4, r4, r5
 950 02a8 A0FB0223 		umull	r2, r3, r0, r2
 951 02ac E118     		adds	r1, r4, r3
 952 02ae 0B46     		mov	r3, r1
 953 02b0 B8EB0201 		subs	r1, r8, r2
 954 02b4 3962     		str	r1, [r7, #32]
 955 02b6 69EB0303 		sbc	r3, r9, r3
 956 02ba 7B62     		str	r3, [r7, #36]
 957 02bc D7E90812 		ldrd	r1, [r7, #32]
 958 02c0 0B46     		mov	r3, r1
 959 02c2 13F10043 		adds	r3, r3, #-2147483648
 960 02c6 BB61     		str	r3, [r7, #24]
 961 02c8 1346     		mov	r3, r2
 962 02ca 43F10003 		adc	r3, r3, #0
 963 02ce FB61     		str	r3, [r7, #28]
 964 02d0 4FF00002 		mov	r2, #0
 965 02d4 4FF00003 		mov	r3, #0
 966 02d8 D7E90645 		ldrd	r4, [r7, #24]
 967 02dc 2946     		mov	r1, r5
 968 02de 0A00     		movs	r2, r1
 969 02e0 2946     		mov	r1, r5
 970 02e2 CB17     		asrs	r3, r1, #31
 971 02e4 1346     		mov	r3, r2
 972 02e6 C7F88030 		str	r3, [r7, #128]
 273:./Libraries/CMSIS/DSP/Source/TransformFunctions/arm_rfft_q31.c **** 
 274:./Libraries/CMSIS/DSP/Source/TransformFunctions/arm_rfft_q31.c ****      /* pIn[2 * n - 2 * i + 1] * pBTable[2 * i + 1] */
 275:./Libraries/CMSIS/DSP/Source/TransformFunctions/arm_rfft_q31.c ****      multAcc_32x32_keep32_R (outR, *pIn2, CoefB1);
 973              		.loc 1 275 6
 974 02ea D7F88430 		ldr	r3, [r7, #132]
 975 02ee 1A46     		mov	r2, r3
 976 02f0 4FEAE273 		asr	r3, r2, #31
 977 02f4 4FF00008 		mov	r8, #0
 978 02f8 4FF00009 		mov	r9, #0
ARM GAS  /tmp/ccaCNqpz.s 			page 23


 979 02fc 9146     		mov	r9, r2
 980 02fe 4FF00008 		mov	r8, #0
 981 0302 D7F89030 		ldr	r3, [r7, #144]
 982 0306 1B68     		ldr	r3, [r3]
 983 0308 1846     		mov	r0, r3
 984 030a 4FEAE071 		asr	r1, r0, #31
 985 030e FB6F     		ldr	r3, [r7, #124]
 986 0310 1A46     		mov	r2, r3
 987 0312 4FEAE273 		asr	r3, r2, #31
 988 0316 02FB01F5 		mul	r5, r2, r1
 989 031a 00FB03F4 		mul	r4, r0, r3
 990 031e 2C44     		add	r4, r4, r5
 991 0320 A0FB0223 		umull	r2, r3, r0, r2
 992 0324 E118     		adds	r1, r4, r3
 993 0326 0B46     		mov	r3, r1
 994 0328 18EB0201 		adds	r1, r8, r2
 995 032c 3961     		str	r1, [r7, #16]
 996 032e 49EB0303 		adc	r3, r9, r3
 997 0332 7B61     		str	r3, [r7, #20]
 998 0334 D7E90412 		ldrd	r1, [r7, #16]
 999 0338 0B46     		mov	r3, r1
 1000 033a 13F10043 		adds	r3, r3, #-2147483648
 1001 033e BB60     		str	r3, [r7, #8]
 1002 0340 1346     		mov	r3, r2
 1003 0342 43F10003 		adc	r3, r3, #0
 1004 0346 FB60     		str	r3, [r7, #12]
 1005 0348 4FF00002 		mov	r2, #0
 1006 034c 4FF00003 		mov	r3, #0
 1007 0350 D7E90245 		ldrd	r4, [r7, #8]
 1008 0354 2946     		mov	r1, r5
 1009 0356 0A00     		movs	r2, r1
 1010 0358 2946     		mov	r1, r5
 1011 035a CB17     		asrs	r3, r1, #31
 1012 035c 1346     		mov	r3, r2
 1013 035e C7F88430 		str	r3, [r7, #132]
 276:./Libraries/CMSIS/DSP/Source/TransformFunctions/arm_rfft_q31.c **** 
 277:./Libraries/CMSIS/DSP/Source/TransformFunctions/arm_rfft_q31.c ****      /* pIn[2 * n - 2 * i + 1] * pBTable[2 * i] */
 278:./Libraries/CMSIS/DSP/Source/TransformFunctions/arm_rfft_q31.c ****      multAcc_32x32_keep32_R (outI, *pIn2--, CoefA2);
 1014              		.loc 1 278 6
 1015 0362 D7F88030 		ldr	r3, [r7, #128]
 1016 0366 1A46     		mov	r2, r3
 1017 0368 4FEAE273 		asr	r3, r2, #31
 1018 036c 4FF00008 		mov	r8, #0
 1019 0370 4FF00009 		mov	r9, #0
 1020 0374 9146     		mov	r9, r2
 1021 0376 4FF00008 		mov	r8, #0
 1022 037a D7F89020 		ldr	r2, [r7, #144]
 1023 037e 131F     		subs	r3, r2, #4
 1024 0380 C7F89030 		str	r3, [r7, #144]
 1025 0384 1368     		ldr	r3, [r2]
 1026 0386 1846     		mov	r0, r3
 1027 0388 4FEAE071 		asr	r1, r0, #31
 1028 038c D7F88830 		ldr	r3, [r7, #136]
 1029 0390 1A46     		mov	r2, r3
 1030 0392 4FEAE273 		asr	r3, r2, #31
 1031 0396 02FB01F5 		mul	r5, r2, r1
 1032 039a 00FB03F4 		mul	r4, r0, r3
ARM GAS  /tmp/ccaCNqpz.s 			page 24


 1033 039e 2C44     		add	r4, r4, r5
 1034 03a0 A0FB0223 		umull	r2, r3, r0, r2
 1035 03a4 E118     		adds	r1, r4, r3
 1036 03a6 0B46     		mov	r3, r1
 1037 03a8 18EB0201 		adds	r1, r8, r2
 1038 03ac 3960     		str	r1, [r7]
 1039 03ae 49EB0303 		adc	r3, r9, r3
 1040 03b2 7B60     		str	r3, [r7, #4]
 1041 03b4 D7E90012 		ldrd	r1, [r7]
 1042 03b8 0B46     		mov	r3, r1
 1043 03ba 13F1004A 		adds	r10, r3, #-2147483648
 1044 03be 1346     		mov	r3, r2
 1045 03c0 43F1000B 		adc	fp, r3, #0
 1046 03c4 4FF00002 		mov	r2, #0
 1047 03c8 4FF00003 		mov	r3, #0
 1048 03cc 5A46     		mov	r2, fp
 1049 03ce 4FEAEB73 		asr	r3, fp, #31
 1050 03d2 1346     		mov	r3, r2
 1051 03d4 C7F88030 		str	r3, [r7, #128]
 279:./Libraries/CMSIS/DSP/Source/TransformFunctions/arm_rfft_q31.c **** 
 280:./Libraries/CMSIS/DSP/Source/TransformFunctions/arm_rfft_q31.c ****      /* write output */
 281:./Libraries/CMSIS/DSP/Source/TransformFunctions/arm_rfft_q31.c ****      *pDst++ = outR;
 1052              		.loc 1 281 11
 1053 03d8 D7F8C020 		ldr	r2, [r7, #192]
 1054 03dc 131D     		adds	r3, r2, #4
 1055 03de C7F8C030 		str	r3, [r7, #192]
 1056              		.loc 1 281 14
 1057 03e2 D7F88430 		ldr	r3, [r7, #132]
 1058 03e6 1360     		str	r3, [r2]
 282:./Libraries/CMSIS/DSP/Source/TransformFunctions/arm_rfft_q31.c ****      *pDst++ = outI;
 1059              		.loc 1 282 11
 1060 03e8 D7F8C020 		ldr	r2, [r7, #192]
 1061 03ec 131D     		adds	r3, r2, #4
 1062 03ee C7F8C030 		str	r3, [r7, #192]
 1063              		.loc 1 282 14
 1064 03f2 D7F88030 		ldr	r3, [r7, #128]
 1065 03f6 1360     		str	r3, [r2]
 283:./Libraries/CMSIS/DSP/Source/TransformFunctions/arm_rfft_q31.c **** 
 284:./Libraries/CMSIS/DSP/Source/TransformFunctions/arm_rfft_q31.c ****      /* update coefficient pointer */
 285:./Libraries/CMSIS/DSP/Source/TransformFunctions/arm_rfft_q31.c ****      pCoefB = pCoefB + (modifier * 2);
 1066              		.loc 1 285 22
 1067 03f8 D7F8C430 		ldr	r3, [r7, #196]
 1068 03fc DA00     		lsls	r2, r3, #3
 1069              		.loc 1 285 13
 1070 03fe D7F89830 		ldr	r3, [r7, #152]
 1071 0402 1344     		add	r3, r3, r2
 1072 0404 C7F89830 		str	r3, [r7, #152]
 286:./Libraries/CMSIS/DSP/Source/TransformFunctions/arm_rfft_q31.c ****      pCoefA = pCoefA + (modifier * 2 - 1);
 1073              		.loc 1 286 22
 1074 0408 D7F8C430 		ldr	r3, [r7, #196]
 1075 040c DB00     		lsls	r3, r3, #3
 1076 040e 1A1F     		subs	r2, r3, #4
 1077              		.loc 1 286 13
 1078 0410 D7F89C30 		ldr	r3, [r7, #156]
 1079 0414 1344     		add	r3, r3, r2
 1080 0416 C7F89C30 		str	r3, [r7, #156]
 287:./Libraries/CMSIS/DSP/Source/TransformFunctions/arm_rfft_q31.c **** 
ARM GAS  /tmp/ccaCNqpz.s 			page 25


 288:./Libraries/CMSIS/DSP/Source/TransformFunctions/arm_rfft_q31.c ****      /* Decrement loop count */
 289:./Libraries/CMSIS/DSP/Source/TransformFunctions/arm_rfft_q31.c ****      fftLen--;
 1081              		.loc 1 289 12
 1082 041a 3B6F     		ldr	r3, [r7, #112]
 1083 041c 013B     		subs	r3, r3, #1
 1084 041e 3B67     		str	r3, [r7, #112]
 1085              	.L11:
 238:./Libraries/CMSIS/DSP/Source/TransformFunctions/arm_rfft_q31.c ****   {
 1086              		.loc 1 238 9
 1087 0420 3B6F     		ldr	r3, [r7, #112]
 1088 0422 002B     		cmp	r3, #0
 1089 0424 7FF405AE 		bne	.L12
 290:./Libraries/CMSIS/DSP/Source/TransformFunctions/arm_rfft_q31.c ****   }
 291:./Libraries/CMSIS/DSP/Source/TransformFunctions/arm_rfft_q31.c **** 
 292:./Libraries/CMSIS/DSP/Source/TransformFunctions/arm_rfft_q31.c **** }
 1090              		.loc 1 292 1
 1091 0428 00BF     		nop
 1092 042a 00BF     		nop
 1093 042c A437     		adds	r7, r7, #164
 1094              	.LCFI14:
 1095              		.cfi_def_cfa_offset 28
 1096 042e BD46     		mov	sp, r7
 1097              	.LCFI15:
 1098              		.cfi_def_cfa_register 13
 1099              		@ sp needed
 1100 0430 BDE8B00F 		pop	{r4, r5, r7, r8, r9, r10, fp}
 1101              	.LCFI16:
 1102              		.cfi_restore 11
 1103              		.cfi_restore 10
 1104              		.cfi_restore 9
 1105              		.cfi_restore 8
 1106              		.cfi_restore 7
 1107              		.cfi_restore 5
 1108              		.cfi_restore 4
 1109              		.cfi_def_cfa_offset 0
 1110 0434 7047     		bx	lr
 1111              		.cfi_endproc
 1112              	.LFE147:
 1114              		.text
 1115              	.Letext0:
 1116              		.file 2 "/usr/lib/gcc/arm-none-eabi/9.2.1/include/stdint.h"
 1117              		.file 3 "/usr/lib/gcc/arm-none-eabi/9.2.1/include/stddef.h"
 1118              		.file 4 "/usr/include/newlib/sys/_types.h"
 1119              		.file 5 "/usr/include/newlib/sys/reent.h"
 1120              		.file 6 "/usr/include/newlib/sys/lock.h"
 1121              		.file 7 "/usr/include/newlib/math.h"
 1122              		.file 8 "./Libraries/CMSIS/DSP/Include/arm_math.h"
ARM GAS  /tmp/ccaCNqpz.s 			page 26

