ARM GAS  /tmp/cccuXIeQ.s 			page 1


   1              		.cpu cortex-m7
   2              		.eabi_attribute 28, 1
   3              		.eabi_attribute 20, 1
   4              		.eabi_attribute 21, 1
   5              		.eabi_attribute 23, 3
   6              		.eabi_attribute 24, 1
   7              		.eabi_attribute 25, 1
   8              		.eabi_attribute 26, 1
   9              		.eabi_attribute 30, 6
  10              		.eabi_attribute 34, 1
  11              		.eabi_attribute 18, 4
  12              		.file	"arm_nn_activations_q15.c"
  13              		.text
  14              	.Ltext0:
  15              		.cfi_sections	.debug_frame
  16              		.section	.text.arm_nn_activations_direct_q15,"ax",%progbits
  17              		.align	1
  18              		.global	arm_nn_activations_direct_q15
  19              		.arch armv7e-m
  20              		.syntax unified
  21              		.thumb
  22              		.thumb_func
  23              		.fpu fpv5-d16
  25              	arm_nn_activations_direct_q15:
  26              	.LFB149:
  27              		.file 1 "./Libraries/CMSIS/NN/Source/ActivationFunctions/arm_nn_activations_q15.c"
   1:./Libraries/CMSIS/NN/Source/ActivationFunctions/arm_nn_activations_q15.c **** /*
   2:./Libraries/CMSIS/NN/Source/ActivationFunctions/arm_nn_activations_q15.c ****  * Copyright (C) 2010-2018 Arm Limited or its affiliates. All rights reserved.
   3:./Libraries/CMSIS/NN/Source/ActivationFunctions/arm_nn_activations_q15.c ****  *
   4:./Libraries/CMSIS/NN/Source/ActivationFunctions/arm_nn_activations_q15.c ****  * SPDX-License-Identifier: Apache-2.0
   5:./Libraries/CMSIS/NN/Source/ActivationFunctions/arm_nn_activations_q15.c ****  *
   6:./Libraries/CMSIS/NN/Source/ActivationFunctions/arm_nn_activations_q15.c ****  * Licensed under the Apache License, Version 2.0 (the License); you may
   7:./Libraries/CMSIS/NN/Source/ActivationFunctions/arm_nn_activations_q15.c ****  * not use this file except in compliance with the License.
   8:./Libraries/CMSIS/NN/Source/ActivationFunctions/arm_nn_activations_q15.c ****  * You may obtain a copy of the License at
   9:./Libraries/CMSIS/NN/Source/ActivationFunctions/arm_nn_activations_q15.c ****  *
  10:./Libraries/CMSIS/NN/Source/ActivationFunctions/arm_nn_activations_q15.c ****  * www.apache.org/licenses/LICENSE-2.0
  11:./Libraries/CMSIS/NN/Source/ActivationFunctions/arm_nn_activations_q15.c ****  *
  12:./Libraries/CMSIS/NN/Source/ActivationFunctions/arm_nn_activations_q15.c ****  * Unless required by applicable law or agreed to in writing, software
  13:./Libraries/CMSIS/NN/Source/ActivationFunctions/arm_nn_activations_q15.c ****  * distributed under the License is distributed on an AS IS BASIS, WITHOUT
  14:./Libraries/CMSIS/NN/Source/ActivationFunctions/arm_nn_activations_q15.c ****  * WARRANTIES OR CONDITIONS OF ANY KIND, either express or implied.
  15:./Libraries/CMSIS/NN/Source/ActivationFunctions/arm_nn_activations_q15.c ****  * See the License for the specific language governing permissions and
  16:./Libraries/CMSIS/NN/Source/ActivationFunctions/arm_nn_activations_q15.c ****  * limitations under the License.
  17:./Libraries/CMSIS/NN/Source/ActivationFunctions/arm_nn_activations_q15.c ****  */
  18:./Libraries/CMSIS/NN/Source/ActivationFunctions/arm_nn_activations_q15.c **** 
  19:./Libraries/CMSIS/NN/Source/ActivationFunctions/arm_nn_activations_q15.c **** /* ----------------------------------------------------------------------
  20:./Libraries/CMSIS/NN/Source/ActivationFunctions/arm_nn_activations_q15.c ****  * Project:      CMSIS NN Library
  21:./Libraries/CMSIS/NN/Source/ActivationFunctions/arm_nn_activations_q15.c ****  * Title:        arm_nn_activations_q15.c
  22:./Libraries/CMSIS/NN/Source/ActivationFunctions/arm_nn_activations_q15.c ****  * Description:  Q15 neural network activation function using direct table look-up
  23:./Libraries/CMSIS/NN/Source/ActivationFunctions/arm_nn_activations_q15.c ****  *
  24:./Libraries/CMSIS/NN/Source/ActivationFunctions/arm_nn_activations_q15.c ****  * $Date:        17. January 2018
  25:./Libraries/CMSIS/NN/Source/ActivationFunctions/arm_nn_activations_q15.c ****  * $Revision:    V.1.0.0
  26:./Libraries/CMSIS/NN/Source/ActivationFunctions/arm_nn_activations_q15.c ****  *
  27:./Libraries/CMSIS/NN/Source/ActivationFunctions/arm_nn_activations_q15.c ****  * Target Processor:  Cortex-M cores
  28:./Libraries/CMSIS/NN/Source/ActivationFunctions/arm_nn_activations_q15.c ****  *
  29:./Libraries/CMSIS/NN/Source/ActivationFunctions/arm_nn_activations_q15.c ****  * -------------------------------------------------------------------- */
  30:./Libraries/CMSIS/NN/Source/ActivationFunctions/arm_nn_activations_q15.c **** 
  31:./Libraries/CMSIS/NN/Source/ActivationFunctions/arm_nn_activations_q15.c **** #include "arm_math.h"
ARM GAS  /tmp/cccuXIeQ.s 			page 2


  32:./Libraries/CMSIS/NN/Source/ActivationFunctions/arm_nn_activations_q15.c **** #include "arm_common_tables.h"
  33:./Libraries/CMSIS/NN/Source/ActivationFunctions/arm_nn_activations_q15.c **** #include "arm_nnfunctions.h"
  34:./Libraries/CMSIS/NN/Source/ActivationFunctions/arm_nn_activations_q15.c **** 
  35:./Libraries/CMSIS/NN/Source/ActivationFunctions/arm_nn_activations_q15.c **** /**
  36:./Libraries/CMSIS/NN/Source/ActivationFunctions/arm_nn_activations_q15.c ****  *  @ingroup groupNN
  37:./Libraries/CMSIS/NN/Source/ActivationFunctions/arm_nn_activations_q15.c ****  */
  38:./Libraries/CMSIS/NN/Source/ActivationFunctions/arm_nn_activations_q15.c **** 
  39:./Libraries/CMSIS/NN/Source/ActivationFunctions/arm_nn_activations_q15.c **** /**
  40:./Libraries/CMSIS/NN/Source/ActivationFunctions/arm_nn_activations_q15.c ****  * @addtogroup Acti
  41:./Libraries/CMSIS/NN/Source/ActivationFunctions/arm_nn_activations_q15.c ****  * @{
  42:./Libraries/CMSIS/NN/Source/ActivationFunctions/arm_nn_activations_q15.c ****  */
  43:./Libraries/CMSIS/NN/Source/ActivationFunctions/arm_nn_activations_q15.c **** 
  44:./Libraries/CMSIS/NN/Source/ActivationFunctions/arm_nn_activations_q15.c ****   /**
  45:./Libraries/CMSIS/NN/Source/ActivationFunctions/arm_nn_activations_q15.c ****    * @brief Q15 neural network activation function using direct table look-up
  46:./Libraries/CMSIS/NN/Source/ActivationFunctions/arm_nn_activations_q15.c ****    * @param[in,out]   data        pointer to input
  47:./Libraries/CMSIS/NN/Source/ActivationFunctions/arm_nn_activations_q15.c ****    * @param[in]       size        number of elements
  48:./Libraries/CMSIS/NN/Source/ActivationFunctions/arm_nn_activations_q15.c ****    * @param[in]       int_width   bit-width of the integer part, assume to be smaller than 3
  49:./Libraries/CMSIS/NN/Source/ActivationFunctions/arm_nn_activations_q15.c ****    * @param[in]       type        type of activation functions
  50:./Libraries/CMSIS/NN/Source/ActivationFunctions/arm_nn_activations_q15.c ****    * @return none.
  51:./Libraries/CMSIS/NN/Source/ActivationFunctions/arm_nn_activations_q15.c ****    *
  52:./Libraries/CMSIS/NN/Source/ActivationFunctions/arm_nn_activations_q15.c ****    * @details
  53:./Libraries/CMSIS/NN/Source/ActivationFunctions/arm_nn_activations_q15.c ****    * 
  54:./Libraries/CMSIS/NN/Source/ActivationFunctions/arm_nn_activations_q15.c ****    * This is the direct table look-up approach.
  55:./Libraries/CMSIS/NN/Source/ActivationFunctions/arm_nn_activations_q15.c ****    *
  56:./Libraries/CMSIS/NN/Source/ActivationFunctions/arm_nn_activations_q15.c ****    * Assume here the integer part of the fixed-point is <= 3.
  57:./Libraries/CMSIS/NN/Source/ActivationFunctions/arm_nn_activations_q15.c ****    * More than 3 just not making much sense, makes no difference with
  58:./Libraries/CMSIS/NN/Source/ActivationFunctions/arm_nn_activations_q15.c ****    * saturation followed by any of these activation functions. 
  59:./Libraries/CMSIS/NN/Source/ActivationFunctions/arm_nn_activations_q15.c ****    */
  60:./Libraries/CMSIS/NN/Source/ActivationFunctions/arm_nn_activations_q15.c **** 
  61:./Libraries/CMSIS/NN/Source/ActivationFunctions/arm_nn_activations_q15.c **** void arm_nn_activations_direct_q15(q15_t * data, uint16_t size, uint16_t int_width, arm_nn_activati
  62:./Libraries/CMSIS/NN/Source/ActivationFunctions/arm_nn_activations_q15.c **** {
  28              		.loc 1 62 1
  29              		.cfi_startproc
  30              		@ args = 0, pretend = 0, frame = 72
  31              		@ frame_needed = 1, uses_anonymous_args = 0
  32              		@ link register save eliminated.
  33 0000 80B4     		push	{r7}
  34              	.LCFI0:
  35              		.cfi_def_cfa_offset 4
  36              		.cfi_offset 7, -4
  37 0002 93B0     		sub	sp, sp, #76
  38              	.LCFI1:
  39              		.cfi_def_cfa_offset 80
  40 0004 00AF     		add	r7, sp, #0
  41              	.LCFI2:
  42              		.cfi_def_cfa_register 7
  43 0006 F860     		str	r0, [r7, #12]
  44 0008 0846     		mov	r0, r1
  45 000a 1146     		mov	r1, r2
  46 000c 1A46     		mov	r2, r3
  47 000e 0346     		mov	r3, r0	@ movhi
  48 0010 7B81     		strh	r3, [r7, #10]	@ movhi
  49 0012 0B46     		mov	r3, r1	@ movhi
  50 0014 3B81     		strh	r3, [r7, #8]	@ movhi
  51 0016 1346     		mov	r3, r2
  52 0018 FB71     		strb	r3, [r7, #7]
  63:./Libraries/CMSIS/NN/Source/ActivationFunctions/arm_nn_activations_q15.c ****     uint16_t  i = size;
ARM GAS  /tmp/cccuXIeQ.s 			page 3


  53              		.loc 1 63 15
  54 001a 7B89     		ldrh	r3, [r7, #10]	@ movhi
  55 001c A7F84630 		strh	r3, [r7, #70]	@ movhi
  64:./Libraries/CMSIS/NN/Source/ActivationFunctions/arm_nn_activations_q15.c ****     q15_t    *pIn = data;
  56              		.loc 1 64 15
  57 0020 FB68     		ldr	r3, [r7, #12]
  58 0022 3B64     		str	r3, [r7, #64]
  65:./Libraries/CMSIS/NN/Source/ActivationFunctions/arm_nn_activations_q15.c ****     q15_t    *pOut = data;
  59              		.loc 1 65 15
  60 0024 FB68     		ldr	r3, [r7, #12]
  61 0026 FB63     		str	r3, [r7, #60]
  66:./Libraries/CMSIS/NN/Source/ActivationFunctions/arm_nn_activations_q15.c ****     uint16_t  shift_size = 8 + 3 - int_width;
  62              		.loc 1 66 15
  63 0028 3B89     		ldrh	r3, [r7, #8]	@ movhi
  64 002a C3F10B03 		rsb	r3, r3, #11
  65 002e FB86     		strh	r3, [r7, #54]	@ movhi
  67:./Libraries/CMSIS/NN/Source/ActivationFunctions/arm_nn_activations_q15.c ****     uint32_t  bit_mask = 0x7FF >> int_width;
  66              		.loc 1 67 32
  67 0030 3B89     		ldrh	r3, [r7, #8]
  68 0032 40F2FF72 		movw	r2, #2047
  69 0036 42FA03F3 		asr	r3, r2, r3
  70              		.loc 1 67 15
  71 003a 3B63     		str	r3, [r7, #48]
  68:./Libraries/CMSIS/NN/Source/ActivationFunctions/arm_nn_activations_q15.c ****     uint32_t  full_frac = bit_mask + 1;
  72              		.loc 1 68 15
  73 003c 3B6B     		ldr	r3, [r7, #48]
  74 003e 0133     		adds	r3, r3, #1
  75 0040 FB62     		str	r3, [r7, #44]
  69:./Libraries/CMSIS/NN/Source/ActivationFunctions/arm_nn_activations_q15.c ****     const q15_t *lookup_table;
  70:./Libraries/CMSIS/NN/Source/ActivationFunctions/arm_nn_activations_q15.c **** 
  71:./Libraries/CMSIS/NN/Source/ActivationFunctions/arm_nn_activations_q15.c ****     switch (type)
  76              		.loc 1 71 5
  77 0042 FB79     		ldrb	r3, [r7, #7]	@ zero_extendqisi2
  78 0044 002B     		cmp	r3, #0
  79 0046 02D1     		bne	.L2
  72:./Libraries/CMSIS/NN/Source/ActivationFunctions/arm_nn_activations_q15.c ****     {
  73:./Libraries/CMSIS/NN/Source/ActivationFunctions/arm_nn_activations_q15.c ****     case ARM_SIGMOID:
  74:./Libraries/CMSIS/NN/Source/ActivationFunctions/arm_nn_activations_q15.c ****         lookup_table = sigmoidTable_q15;
  80              		.loc 1 74 22
  81 0048 2D4B     		ldr	r3, .L6
  82 004a BB63     		str	r3, [r7, #56]
  75:./Libraries/CMSIS/NN/Source/ActivationFunctions/arm_nn_activations_q15.c ****         break;
  83              		.loc 1 75 9
  84 004c 02E0     		b	.L3
  85              	.L2:
  76:./Libraries/CMSIS/NN/Source/ActivationFunctions/arm_nn_activations_q15.c ****     case ARM_TANH:
  77:./Libraries/CMSIS/NN/Source/ActivationFunctions/arm_nn_activations_q15.c ****     default:
  78:./Libraries/CMSIS/NN/Source/ActivationFunctions/arm_nn_activations_q15.c ****         lookup_table = tanhTable_q15;
  86              		.loc 1 78 22
  87 004e 2D4B     		ldr	r3, .L6+4
  88 0050 BB63     		str	r3, [r7, #56]
  79:./Libraries/CMSIS/NN/Source/ActivationFunctions/arm_nn_activations_q15.c ****         break;
  89              		.loc 1 79 9
  90 0052 00BF     		nop
  91              	.L3:
  80:./Libraries/CMSIS/NN/Source/ActivationFunctions/arm_nn_activations_q15.c ****     }
  81:./Libraries/CMSIS/NN/Source/ActivationFunctions/arm_nn_activations_q15.c **** 
ARM GAS  /tmp/cccuXIeQ.s 			page 4


  82:./Libraries/CMSIS/NN/Source/ActivationFunctions/arm_nn_activations_q15.c ****     while (i)
  92              		.loc 1 82 11
  93 0054 49E0     		b	.L4
  94              	.L5:
  95              	.LBB2:
  83:./Libraries/CMSIS/NN/Source/ActivationFunctions/arm_nn_activations_q15.c ****     {
  84:./Libraries/CMSIS/NN/Source/ActivationFunctions/arm_nn_activations_q15.c ****         q15_t     out;
  85:./Libraries/CMSIS/NN/Source/ActivationFunctions/arm_nn_activations_q15.c ****         q15_t     in = *pIn++;
  96              		.loc 1 85 28
  97 0056 3B6C     		ldr	r3, [r7, #64]
  98 0058 9A1C     		adds	r2, r3, #2
  99 005a 3A64     		str	r2, [r7, #64]
 100              		.loc 1 85 19
 101 005c 1B88     		ldrh	r3, [r3]	@ movhi
 102 005e 7B85     		strh	r3, [r7, #42]	@ movhi
  86:./Libraries/CMSIS/NN/Source/ActivationFunctions/arm_nn_activations_q15.c ****         q15_t     frac = (uint32_t) in & bit_mask;
 103              		.loc 1 86 40
 104 0060 3B6B     		ldr	r3, [r7, #48]
 105 0062 9AB2     		uxth	r2, r3
 106 0064 7B8D     		ldrh	r3, [r7, #42]
 107 0066 1340     		ands	r3, r3, r2
 108 0068 9BB2     		uxth	r3, r3
 109              		.loc 1 86 19
 110 006a 3B85     		strh	r3, [r7, #40]	@ movhi
 111              	.LBB3:
  87:./Libraries/CMSIS/NN/Source/ActivationFunctions/arm_nn_activations_q15.c ****         q15_t     value = lookup_table[__USAT(in >> shift_size, 8)];
 112              		.loc 1 87 40
 113 006c B7F92A20 		ldrsh	r2, [r7, #42]
 114 0070 FB8E     		ldrh	r3, [r7, #54]
 115 0072 42FA03F3 		asr	r3, r2, r3
 116 0076 7B62     		str	r3, [r7, #36]
 117 0078 7B6A     		ldr	r3, [r7, #36]
 118              		.syntax unified
 119              	@ 87 "./Libraries/CMSIS/NN/Source/ActivationFunctions/arm_nn_activations_q15.c" 1
 120 007a 83F30803 		usat r3, #8, r3
 121              	@ 0 "" 2
 122              		.thumb
 123              		.syntax unified
 124 007e 3B62     		str	r3, [r7, #32]
 125 0080 3B6A     		ldr	r3, [r7, #32]
 126              	.LBE3:
 127              		.loc 1 87 39
 128 0082 5B00     		lsls	r3, r3, #1
 129 0084 BA6B     		ldr	r2, [r7, #56]
 130 0086 1344     		add	r3, r3, r2
 131              		.loc 1 87 19
 132 0088 1B88     		ldrh	r3, [r3]	@ movhi
 133 008a FB83     		strh	r3, [r7, #30]	@ movhi
 134              	.LBB4:
  88:./Libraries/CMSIS/NN/Source/ActivationFunctions/arm_nn_activations_q15.c ****         q15_t     value2 = lookup_table[__USAT(1 + (in >> shift_size), 8)];
 135              		.loc 1 88 41
 136 008c B7F92A20 		ldrsh	r2, [r7, #42]
 137 0090 FB8E     		ldrh	r3, [r7, #54]
 138 0092 42FA03F3 		asr	r3, r2, r3
 139 0096 0133     		adds	r3, r3, #1
 140 0098 BB61     		str	r3, [r7, #24]
 141 009a BB69     		ldr	r3, [r7, #24]
ARM GAS  /tmp/cccuXIeQ.s 			page 5


 142              		.syntax unified
 143              	@ 88 "./Libraries/CMSIS/NN/Source/ActivationFunctions/arm_nn_activations_q15.c" 1
 144 009c 83F30803 		usat r3, #8, r3
 145              	@ 0 "" 2
 146              		.thumb
 147              		.syntax unified
 148 00a0 7B61     		str	r3, [r7, #20]
 149 00a2 7B69     		ldr	r3, [r7, #20]
 150              	.LBE4:
 151              		.loc 1 88 40
 152 00a4 5B00     		lsls	r3, r3, #1
 153 00a6 BA6B     		ldr	r2, [r7, #56]
 154 00a8 1344     		add	r3, r3, r2
 155              		.loc 1 88 19
 156 00aa 1B88     		ldrh	r3, [r3]	@ movhi
 157 00ac 7B82     		strh	r3, [r7, #18]	@ movhi
  89:./Libraries/CMSIS/NN/Source/ActivationFunctions/arm_nn_activations_q15.c **** 
  90:./Libraries/CMSIS/NN/Source/ActivationFunctions/arm_nn_activations_q15.c ****         /* doing the interpolation here for better accuracy */
  91:./Libraries/CMSIS/NN/Source/ActivationFunctions/arm_nn_activations_q15.c ****         out = ((q31_t) (full_frac - frac) * value + (q31_t) value2 * frac) >> shift_size;
 158              		.loc 1 91 35
 159 00ae B7F92830 		ldrsh	r3, [r7, #40]
 160 00b2 FA6A     		ldr	r2, [r7, #44]
 161 00b4 D31A     		subs	r3, r2, r3
 162              		.loc 1 91 16
 163 00b6 1A46     		mov	r2, r3
 164              		.loc 1 91 43
 165 00b8 B7F91E30 		ldrsh	r3, [r7, #30]
 166 00bc 03FB02F2 		mul	r2, r3, r2
 167              		.loc 1 91 53
 168 00c0 B7F91230 		ldrsh	r3, [r7, #18]
 169              		.loc 1 91 68
 170 00c4 B7F92810 		ldrsh	r1, [r7, #40]
 171 00c8 01FB03F3 		mul	r3, r1, r3
 172              		.loc 1 91 51
 173 00cc 1A44     		add	r2, r2, r3
 174              		.loc 1 91 76
 175 00ce FB8E     		ldrh	r3, [r7, #54]
 176 00d0 42FA03F3 		asr	r3, r2, r3
 177              		.loc 1 91 13
 178 00d4 3B82     		strh	r3, [r7, #16]	@ movhi
  92:./Libraries/CMSIS/NN/Source/ActivationFunctions/arm_nn_activations_q15.c **** 
  93:./Libraries/CMSIS/NN/Source/ActivationFunctions/arm_nn_activations_q15.c ****         *pOut++ = out;
 179              		.loc 1 93 14
 180 00d6 FB6B     		ldr	r3, [r7, #60]
 181 00d8 9A1C     		adds	r2, r3, #2
 182 00da FA63     		str	r2, [r7, #60]
 183              		.loc 1 93 17
 184 00dc 3A8A     		ldrh	r2, [r7, #16]	@ movhi
 185 00de 1A80     		strh	r2, [r3]	@ movhi
  94:./Libraries/CMSIS/NN/Source/ActivationFunctions/arm_nn_activations_q15.c ****         i--;
 186              		.loc 1 94 10
 187 00e0 B7F84630 		ldrh	r3, [r7, #70]
 188 00e4 013B     		subs	r3, r3, #1
 189 00e6 A7F84630 		strh	r3, [r7, #70]	@ movhi
 190              	.L4:
 191              	.LBE2:
  82:./Libraries/CMSIS/NN/Source/ActivationFunctions/arm_nn_activations_q15.c ****     {
ARM GAS  /tmp/cccuXIeQ.s 			page 6


 192              		.loc 1 82 11 discriminator 1
 193 00ea B7F84630 		ldrh	r3, [r7, #70]
 194 00ee 002B     		cmp	r3, #0
 195 00f0 B1D1     		bne	.L5
  95:./Libraries/CMSIS/NN/Source/ActivationFunctions/arm_nn_activations_q15.c ****     }
  96:./Libraries/CMSIS/NN/Source/ActivationFunctions/arm_nn_activations_q15.c **** 
  97:./Libraries/CMSIS/NN/Source/ActivationFunctions/arm_nn_activations_q15.c **** }
 196              		.loc 1 97 1
 197 00f2 00BF     		nop
 198 00f4 00BF     		nop
 199 00f6 4C37     		adds	r7, r7, #76
 200              	.LCFI3:
 201              		.cfi_def_cfa_offset 4
 202 00f8 BD46     		mov	sp, r7
 203              	.LCFI4:
 204              		.cfi_def_cfa_register 13
 205              		@ sp needed
 206 00fa 5DF8047B 		ldr	r7, [sp], #4
 207              	.LCFI5:
 208              		.cfi_restore 7
 209              		.cfi_def_cfa_offset 0
 210 00fe 7047     		bx	lr
 211              	.L7:
 212              		.align	2
 213              	.L6:
 214 0100 00000000 		.word	sigmoidTable_q15
 215 0104 00000000 		.word	tanhTable_q15
 216              		.cfi_endproc
 217              	.LFE149:
 219              		.text
 220              	.Letext0:
 221              		.file 2 "/usr/lib/gcc/arm-none-eabi/9.2.1/include/stdint.h"
 222              		.file 3 "/usr/lib/gcc/arm-none-eabi/9.2.1/include/stddef.h"
 223              		.file 4 "/usr/include/newlib/sys/_types.h"
 224              		.file 5 "/usr/include/newlib/sys/reent.h"
 225              		.file 6 "/usr/include/newlib/sys/lock.h"
 226              		.file 7 "/usr/include/newlib/math.h"
 227              		.file 8 "./Libraries/CMSIS/DSP/Include/arm_math.h"
 228              		.file 9 "./Libraries/CMSIS/DSP/Include/arm_common_tables.h"
 229              		.file 10 "./Libraries/CMSIS/NN/Include/arm_nnsupportfunctions.h"
 230              		.file 11 "./Libraries/CMSIS/NN/Include/arm_nn_tables.h"
ARM GAS  /tmp/cccuXIeQ.s 			page 7

