ARM GAS  /tmp/cc48AKRe.s 			page 1


   1              		.cpu cortex-m7
   2              		.eabi_attribute 28, 1
   3              		.eabi_attribute 20, 1
   4              		.eabi_attribute 21, 1
   5              		.eabi_attribute 23, 3
   6              		.eabi_attribute 24, 1
   7              		.eabi_attribute 25, 1
   8              		.eabi_attribute 26, 1
   9              		.eabi_attribute 30, 6
  10              		.eabi_attribute 34, 1
  11              		.eabi_attribute 18, 4
  12              		.file	"arm_fill_f32.c"
  13              		.text
  14              	.Ltext0:
  15              		.cfi_sections	.debug_frame
  16              		.section	.text.arm_fill_f32,"ax",%progbits
  17              		.align	1
  18              		.global	arm_fill_f32
  19              		.arch armv7e-m
  20              		.syntax unified
  21              		.thumb
  22              		.thumb_func
  23              		.fpu fpv5-d16
  25              	arm_fill_f32:
  26              	.LFB145:
  27              		.file 1 "./Libraries/CMSIS/DSP/Source/SupportFunctions/arm_fill_f32.c"
   1:./Libraries/CMSIS/DSP/Source/SupportFunctions/arm_fill_f32.c **** /* ----------------------------------------------------------------------
   2:./Libraries/CMSIS/DSP/Source/SupportFunctions/arm_fill_f32.c ****  * Project:      CMSIS DSP Library
   3:./Libraries/CMSIS/DSP/Source/SupportFunctions/arm_fill_f32.c ****  * Title:        arm_fill_f32.c
   4:./Libraries/CMSIS/DSP/Source/SupportFunctions/arm_fill_f32.c ****  * Description:  Fills a constant value into a floating-point vector
   5:./Libraries/CMSIS/DSP/Source/SupportFunctions/arm_fill_f32.c ****  *
   6:./Libraries/CMSIS/DSP/Source/SupportFunctions/arm_fill_f32.c ****  * $Date:        18. March 2019
   7:./Libraries/CMSIS/DSP/Source/SupportFunctions/arm_fill_f32.c ****  * $Revision:    V1.6.0
   8:./Libraries/CMSIS/DSP/Source/SupportFunctions/arm_fill_f32.c ****  *
   9:./Libraries/CMSIS/DSP/Source/SupportFunctions/arm_fill_f32.c ****  * Target Processor: Cortex-M cores
  10:./Libraries/CMSIS/DSP/Source/SupportFunctions/arm_fill_f32.c ****  * -------------------------------------------------------------------- */
  11:./Libraries/CMSIS/DSP/Source/SupportFunctions/arm_fill_f32.c **** /*
  12:./Libraries/CMSIS/DSP/Source/SupportFunctions/arm_fill_f32.c ****  * Copyright (C) 2010-2019 ARM Limited or its affiliates. All rights reserved.
  13:./Libraries/CMSIS/DSP/Source/SupportFunctions/arm_fill_f32.c ****  *
  14:./Libraries/CMSIS/DSP/Source/SupportFunctions/arm_fill_f32.c ****  * SPDX-License-Identifier: Apache-2.0
  15:./Libraries/CMSIS/DSP/Source/SupportFunctions/arm_fill_f32.c ****  *
  16:./Libraries/CMSIS/DSP/Source/SupportFunctions/arm_fill_f32.c ****  * Licensed under the Apache License, Version 2.0 (the License); you may
  17:./Libraries/CMSIS/DSP/Source/SupportFunctions/arm_fill_f32.c ****  * not use this file except in compliance with the License.
  18:./Libraries/CMSIS/DSP/Source/SupportFunctions/arm_fill_f32.c ****  * You may obtain a copy of the License at
  19:./Libraries/CMSIS/DSP/Source/SupportFunctions/arm_fill_f32.c ****  *
  20:./Libraries/CMSIS/DSP/Source/SupportFunctions/arm_fill_f32.c ****  * www.apache.org/licenses/LICENSE-2.0
  21:./Libraries/CMSIS/DSP/Source/SupportFunctions/arm_fill_f32.c ****  *
  22:./Libraries/CMSIS/DSP/Source/SupportFunctions/arm_fill_f32.c ****  * Unless required by applicable law or agreed to in writing, software
  23:./Libraries/CMSIS/DSP/Source/SupportFunctions/arm_fill_f32.c ****  * distributed under the License is distributed on an AS IS BASIS, WITHOUT
  24:./Libraries/CMSIS/DSP/Source/SupportFunctions/arm_fill_f32.c ****  * WARRANTIES OR CONDITIONS OF ANY KIND, either express or implied.
  25:./Libraries/CMSIS/DSP/Source/SupportFunctions/arm_fill_f32.c ****  * See the License for the specific language governing permissions and
  26:./Libraries/CMSIS/DSP/Source/SupportFunctions/arm_fill_f32.c ****  * limitations under the License.
  27:./Libraries/CMSIS/DSP/Source/SupportFunctions/arm_fill_f32.c ****  */
  28:./Libraries/CMSIS/DSP/Source/SupportFunctions/arm_fill_f32.c **** 
  29:./Libraries/CMSIS/DSP/Source/SupportFunctions/arm_fill_f32.c **** #include "arm_math.h"
  30:./Libraries/CMSIS/DSP/Source/SupportFunctions/arm_fill_f32.c **** 
  31:./Libraries/CMSIS/DSP/Source/SupportFunctions/arm_fill_f32.c **** /**
ARM GAS  /tmp/cc48AKRe.s 			page 2


  32:./Libraries/CMSIS/DSP/Source/SupportFunctions/arm_fill_f32.c ****   @ingroup groupSupport
  33:./Libraries/CMSIS/DSP/Source/SupportFunctions/arm_fill_f32.c ****  */
  34:./Libraries/CMSIS/DSP/Source/SupportFunctions/arm_fill_f32.c **** 
  35:./Libraries/CMSIS/DSP/Source/SupportFunctions/arm_fill_f32.c **** /**
  36:./Libraries/CMSIS/DSP/Source/SupportFunctions/arm_fill_f32.c ****   @defgroup Fill Vector Fill
  37:./Libraries/CMSIS/DSP/Source/SupportFunctions/arm_fill_f32.c **** 
  38:./Libraries/CMSIS/DSP/Source/SupportFunctions/arm_fill_f32.c ****   Fills the destination vector with a constant value.
  39:./Libraries/CMSIS/DSP/Source/SupportFunctions/arm_fill_f32.c **** 
  40:./Libraries/CMSIS/DSP/Source/SupportFunctions/arm_fill_f32.c ****   <pre>
  41:./Libraries/CMSIS/DSP/Source/SupportFunctions/arm_fill_f32.c ****       pDst[n] = value;   0 <= n < blockSize.
  42:./Libraries/CMSIS/DSP/Source/SupportFunctions/arm_fill_f32.c ****   </pre>
  43:./Libraries/CMSIS/DSP/Source/SupportFunctions/arm_fill_f32.c **** 
  44:./Libraries/CMSIS/DSP/Source/SupportFunctions/arm_fill_f32.c ****   There are separate functions for floating point, Q31, Q15, and Q7 data types.
  45:./Libraries/CMSIS/DSP/Source/SupportFunctions/arm_fill_f32.c ****  */
  46:./Libraries/CMSIS/DSP/Source/SupportFunctions/arm_fill_f32.c **** 
  47:./Libraries/CMSIS/DSP/Source/SupportFunctions/arm_fill_f32.c **** /**
  48:./Libraries/CMSIS/DSP/Source/SupportFunctions/arm_fill_f32.c ****   @addtogroup Fill
  49:./Libraries/CMSIS/DSP/Source/SupportFunctions/arm_fill_f32.c ****   @{
  50:./Libraries/CMSIS/DSP/Source/SupportFunctions/arm_fill_f32.c ****  */
  51:./Libraries/CMSIS/DSP/Source/SupportFunctions/arm_fill_f32.c **** 
  52:./Libraries/CMSIS/DSP/Source/SupportFunctions/arm_fill_f32.c **** /**
  53:./Libraries/CMSIS/DSP/Source/SupportFunctions/arm_fill_f32.c ****   @brief         Fills a constant value into a floating-point vector.
  54:./Libraries/CMSIS/DSP/Source/SupportFunctions/arm_fill_f32.c ****   @param[in]     value      input value to be filled
  55:./Libraries/CMSIS/DSP/Source/SupportFunctions/arm_fill_f32.c ****   @param[out]    pDst       points to output vector
  56:./Libraries/CMSIS/DSP/Source/SupportFunctions/arm_fill_f32.c ****   @param[in]     blockSize  number of samples in each vector
  57:./Libraries/CMSIS/DSP/Source/SupportFunctions/arm_fill_f32.c ****   @return        none
  58:./Libraries/CMSIS/DSP/Source/SupportFunctions/arm_fill_f32.c ****  */
  59:./Libraries/CMSIS/DSP/Source/SupportFunctions/arm_fill_f32.c **** 
  60:./Libraries/CMSIS/DSP/Source/SupportFunctions/arm_fill_f32.c **** #if defined(ARM_MATH_NEON_EXPERIMENTAL)
  61:./Libraries/CMSIS/DSP/Source/SupportFunctions/arm_fill_f32.c **** void arm_fill_f32(
  62:./Libraries/CMSIS/DSP/Source/SupportFunctions/arm_fill_f32.c ****   float32_t value,
  63:./Libraries/CMSIS/DSP/Source/SupportFunctions/arm_fill_f32.c ****   float32_t * pDst,
  64:./Libraries/CMSIS/DSP/Source/SupportFunctions/arm_fill_f32.c ****   uint32_t blockSize)
  65:./Libraries/CMSIS/DSP/Source/SupportFunctions/arm_fill_f32.c **** {
  66:./Libraries/CMSIS/DSP/Source/SupportFunctions/arm_fill_f32.c ****   uint32_t blkCnt;                               /* loop counter */
  67:./Libraries/CMSIS/DSP/Source/SupportFunctions/arm_fill_f32.c **** 
  68:./Libraries/CMSIS/DSP/Source/SupportFunctions/arm_fill_f32.c **** 
  69:./Libraries/CMSIS/DSP/Source/SupportFunctions/arm_fill_f32.c ****   float32x4_t inV = vdupq_n_f32(value);
  70:./Libraries/CMSIS/DSP/Source/SupportFunctions/arm_fill_f32.c **** 
  71:./Libraries/CMSIS/DSP/Source/SupportFunctions/arm_fill_f32.c ****   blkCnt = blockSize >> 2U;
  72:./Libraries/CMSIS/DSP/Source/SupportFunctions/arm_fill_f32.c **** 
  73:./Libraries/CMSIS/DSP/Source/SupportFunctions/arm_fill_f32.c ****   /* Compute 4 outputs at a time.
  74:./Libraries/CMSIS/DSP/Source/SupportFunctions/arm_fill_f32.c ****    ** a second loop below computes the remaining 1 to 3 samples. */
  75:./Libraries/CMSIS/DSP/Source/SupportFunctions/arm_fill_f32.c ****   while (blkCnt > 0U)
  76:./Libraries/CMSIS/DSP/Source/SupportFunctions/arm_fill_f32.c ****   {
  77:./Libraries/CMSIS/DSP/Source/SupportFunctions/arm_fill_f32.c ****     /* C = value */
  78:./Libraries/CMSIS/DSP/Source/SupportFunctions/arm_fill_f32.c ****     /* Fill the value in the destination buffer */
  79:./Libraries/CMSIS/DSP/Source/SupportFunctions/arm_fill_f32.c ****     vst1q_f32(pDst, inV);
  80:./Libraries/CMSIS/DSP/Source/SupportFunctions/arm_fill_f32.c ****     pDst += 4;
  81:./Libraries/CMSIS/DSP/Source/SupportFunctions/arm_fill_f32.c **** 
  82:./Libraries/CMSIS/DSP/Source/SupportFunctions/arm_fill_f32.c ****     /* Decrement the loop counter */
  83:./Libraries/CMSIS/DSP/Source/SupportFunctions/arm_fill_f32.c ****     blkCnt--;
  84:./Libraries/CMSIS/DSP/Source/SupportFunctions/arm_fill_f32.c ****   }
  85:./Libraries/CMSIS/DSP/Source/SupportFunctions/arm_fill_f32.c **** 
  86:./Libraries/CMSIS/DSP/Source/SupportFunctions/arm_fill_f32.c ****   /* If the blockSize is not a multiple of 4, compute any remaining output samples here.
  87:./Libraries/CMSIS/DSP/Source/SupportFunctions/arm_fill_f32.c ****    ** No loop unrolling is used. */
  88:./Libraries/CMSIS/DSP/Source/SupportFunctions/arm_fill_f32.c ****   blkCnt = blockSize & 3;
ARM GAS  /tmp/cc48AKRe.s 			page 3


  89:./Libraries/CMSIS/DSP/Source/SupportFunctions/arm_fill_f32.c **** 
  90:./Libraries/CMSIS/DSP/Source/SupportFunctions/arm_fill_f32.c ****   while (blkCnt > 0U)
  91:./Libraries/CMSIS/DSP/Source/SupportFunctions/arm_fill_f32.c ****   {
  92:./Libraries/CMSIS/DSP/Source/SupportFunctions/arm_fill_f32.c ****     /* C = value */
  93:./Libraries/CMSIS/DSP/Source/SupportFunctions/arm_fill_f32.c ****     /* Fill the value in the destination buffer */
  94:./Libraries/CMSIS/DSP/Source/SupportFunctions/arm_fill_f32.c ****     *pDst++ = value;
  95:./Libraries/CMSIS/DSP/Source/SupportFunctions/arm_fill_f32.c **** 
  96:./Libraries/CMSIS/DSP/Source/SupportFunctions/arm_fill_f32.c ****     /* Decrement the loop counter */
  97:./Libraries/CMSIS/DSP/Source/SupportFunctions/arm_fill_f32.c ****     blkCnt--;
  98:./Libraries/CMSIS/DSP/Source/SupportFunctions/arm_fill_f32.c ****   }
  99:./Libraries/CMSIS/DSP/Source/SupportFunctions/arm_fill_f32.c **** }
 100:./Libraries/CMSIS/DSP/Source/SupportFunctions/arm_fill_f32.c **** #else
 101:./Libraries/CMSIS/DSP/Source/SupportFunctions/arm_fill_f32.c **** void arm_fill_f32(
 102:./Libraries/CMSIS/DSP/Source/SupportFunctions/arm_fill_f32.c ****   float32_t value,
 103:./Libraries/CMSIS/DSP/Source/SupportFunctions/arm_fill_f32.c ****   float32_t * pDst,
 104:./Libraries/CMSIS/DSP/Source/SupportFunctions/arm_fill_f32.c ****   uint32_t blockSize)
 105:./Libraries/CMSIS/DSP/Source/SupportFunctions/arm_fill_f32.c **** {
  28              		.loc 1 105 1
  29              		.cfi_startproc
  30              		@ args = 0, pretend = 0, frame = 24
  31              		@ frame_needed = 1, uses_anonymous_args = 0
  32              		@ link register save eliminated.
  33 0000 80B4     		push	{r7}
  34              	.LCFI0:
  35              		.cfi_def_cfa_offset 4
  36              		.cfi_offset 7, -4
  37 0002 87B0     		sub	sp, sp, #28
  38              	.LCFI1:
  39              		.cfi_def_cfa_offset 32
  40 0004 00AF     		add	r7, sp, #0
  41              	.LCFI2:
  42              		.cfi_def_cfa_register 7
  43 0006 87ED030A 		vstr.32	s0, [r7, #12]
  44 000a B860     		str	r0, [r7, #8]
  45 000c 7960     		str	r1, [r7, #4]
 106:./Libraries/CMSIS/DSP/Source/SupportFunctions/arm_fill_f32.c ****   uint32_t blkCnt;                               /* Loop counter */
 107:./Libraries/CMSIS/DSP/Source/SupportFunctions/arm_fill_f32.c **** 
 108:./Libraries/CMSIS/DSP/Source/SupportFunctions/arm_fill_f32.c **** #if defined (ARM_MATH_LOOPUNROLL)
 109:./Libraries/CMSIS/DSP/Source/SupportFunctions/arm_fill_f32.c **** 
 110:./Libraries/CMSIS/DSP/Source/SupportFunctions/arm_fill_f32.c ****   /* Loop unrolling: Compute 4 outputs at a time */
 111:./Libraries/CMSIS/DSP/Source/SupportFunctions/arm_fill_f32.c ****   blkCnt = blockSize >> 2U;
 112:./Libraries/CMSIS/DSP/Source/SupportFunctions/arm_fill_f32.c **** 
 113:./Libraries/CMSIS/DSP/Source/SupportFunctions/arm_fill_f32.c ****   while (blkCnt > 0U)
 114:./Libraries/CMSIS/DSP/Source/SupportFunctions/arm_fill_f32.c ****   {
 115:./Libraries/CMSIS/DSP/Source/SupportFunctions/arm_fill_f32.c ****     /* C = value */
 116:./Libraries/CMSIS/DSP/Source/SupportFunctions/arm_fill_f32.c **** 
 117:./Libraries/CMSIS/DSP/Source/SupportFunctions/arm_fill_f32.c ****     /* Fill value in destination buffer */
 118:./Libraries/CMSIS/DSP/Source/SupportFunctions/arm_fill_f32.c ****     *pDst++ = value;
 119:./Libraries/CMSIS/DSP/Source/SupportFunctions/arm_fill_f32.c ****     *pDst++ = value;
 120:./Libraries/CMSIS/DSP/Source/SupportFunctions/arm_fill_f32.c ****     *pDst++ = value;
 121:./Libraries/CMSIS/DSP/Source/SupportFunctions/arm_fill_f32.c ****     *pDst++ = value;
 122:./Libraries/CMSIS/DSP/Source/SupportFunctions/arm_fill_f32.c **** 
 123:./Libraries/CMSIS/DSP/Source/SupportFunctions/arm_fill_f32.c ****     /* Decrement loop counter */
 124:./Libraries/CMSIS/DSP/Source/SupportFunctions/arm_fill_f32.c ****     blkCnt--;
 125:./Libraries/CMSIS/DSP/Source/SupportFunctions/arm_fill_f32.c ****   }
 126:./Libraries/CMSIS/DSP/Source/SupportFunctions/arm_fill_f32.c **** 
 127:./Libraries/CMSIS/DSP/Source/SupportFunctions/arm_fill_f32.c ****   /* Loop unrolling: Compute remaining outputs */
ARM GAS  /tmp/cc48AKRe.s 			page 4


 128:./Libraries/CMSIS/DSP/Source/SupportFunctions/arm_fill_f32.c ****   blkCnt = blockSize % 0x4U;
 129:./Libraries/CMSIS/DSP/Source/SupportFunctions/arm_fill_f32.c **** 
 130:./Libraries/CMSIS/DSP/Source/SupportFunctions/arm_fill_f32.c **** #else
 131:./Libraries/CMSIS/DSP/Source/SupportFunctions/arm_fill_f32.c **** 
 132:./Libraries/CMSIS/DSP/Source/SupportFunctions/arm_fill_f32.c ****   /* Initialize blkCnt with number of samples */
 133:./Libraries/CMSIS/DSP/Source/SupportFunctions/arm_fill_f32.c ****   blkCnt = blockSize;
  46              		.loc 1 133 10
  47 000e 7B68     		ldr	r3, [r7, #4]
  48 0010 7B61     		str	r3, [r7, #20]
 134:./Libraries/CMSIS/DSP/Source/SupportFunctions/arm_fill_f32.c **** 
 135:./Libraries/CMSIS/DSP/Source/SupportFunctions/arm_fill_f32.c **** #endif /* #if defined (ARM_MATH_LOOPUNROLL) */
 136:./Libraries/CMSIS/DSP/Source/SupportFunctions/arm_fill_f32.c **** 
 137:./Libraries/CMSIS/DSP/Source/SupportFunctions/arm_fill_f32.c ****   while (blkCnt > 0U)
  49              		.loc 1 137 9
  50 0012 07E0     		b	.L2
  51              	.L3:
 138:./Libraries/CMSIS/DSP/Source/SupportFunctions/arm_fill_f32.c ****   {
 139:./Libraries/CMSIS/DSP/Source/SupportFunctions/arm_fill_f32.c ****     /* C = value */
 140:./Libraries/CMSIS/DSP/Source/SupportFunctions/arm_fill_f32.c **** 
 141:./Libraries/CMSIS/DSP/Source/SupportFunctions/arm_fill_f32.c ****     /* Fill value in destination buffer */
 142:./Libraries/CMSIS/DSP/Source/SupportFunctions/arm_fill_f32.c ****     *pDst++ = value;
  52              		.loc 1 142 10
  53 0014 BB68     		ldr	r3, [r7, #8]
  54 0016 1A1D     		adds	r2, r3, #4
  55 0018 BA60     		str	r2, [r7, #8]
  56              		.loc 1 142 13
  57 001a FA68     		ldr	r2, [r7, #12]	@ float
  58 001c 1A60     		str	r2, [r3]	@ float
 143:./Libraries/CMSIS/DSP/Source/SupportFunctions/arm_fill_f32.c **** 
 144:./Libraries/CMSIS/DSP/Source/SupportFunctions/arm_fill_f32.c ****     /* Decrement loop counter */
 145:./Libraries/CMSIS/DSP/Source/SupportFunctions/arm_fill_f32.c ****     blkCnt--;
  59              		.loc 1 145 11
  60 001e 7B69     		ldr	r3, [r7, #20]
  61 0020 013B     		subs	r3, r3, #1
  62 0022 7B61     		str	r3, [r7, #20]
  63              	.L2:
 137:./Libraries/CMSIS/DSP/Source/SupportFunctions/arm_fill_f32.c ****   {
  64              		.loc 1 137 9
  65 0024 7B69     		ldr	r3, [r7, #20]
  66 0026 002B     		cmp	r3, #0
  67 0028 F4D1     		bne	.L3
 146:./Libraries/CMSIS/DSP/Source/SupportFunctions/arm_fill_f32.c ****   }
 147:./Libraries/CMSIS/DSP/Source/SupportFunctions/arm_fill_f32.c **** }
  68              		.loc 1 147 1
  69 002a 00BF     		nop
  70 002c 00BF     		nop
  71 002e 1C37     		adds	r7, r7, #28
  72              	.LCFI3:
  73              		.cfi_def_cfa_offset 4
  74 0030 BD46     		mov	sp, r7
  75              	.LCFI4:
  76              		.cfi_def_cfa_register 13
  77              		@ sp needed
  78 0032 5DF8047B 		ldr	r7, [sp], #4
  79              	.LCFI5:
  80              		.cfi_restore 7
  81              		.cfi_def_cfa_offset 0
ARM GAS  /tmp/cc48AKRe.s 			page 5


  82 0036 7047     		bx	lr
  83              		.cfi_endproc
  84              	.LFE145:
  86              		.text
  87              	.Letext0:
  88              		.file 2 "/usr/lib/gcc/arm-none-eabi/9.2.1/include/stdint.h"
  89              		.file 3 "/usr/lib/gcc/arm-none-eabi/9.2.1/include/stddef.h"
  90              		.file 4 "/usr/include/newlib/sys/_types.h"
  91              		.file 5 "/usr/include/newlib/sys/reent.h"
  92              		.file 6 "/usr/include/newlib/sys/lock.h"
  93              		.file 7 "/usr/include/newlib/math.h"
  94              		.file 8 "./Libraries/CMSIS/DSP/Include/arm_math.h"
ARM GAS  /tmp/cc48AKRe.s 			page 6

