ARM GAS  /tmp/ccNegDE6.s 			page 1


   1              		.cpu cortex-m7
   2              		.eabi_attribute 28, 1
   3              		.eabi_attribute 20, 1
   4              		.eabi_attribute 21, 1
   5              		.eabi_attribute 23, 3
   6              		.eabi_attribute 24, 1
   7              		.eabi_attribute 25, 1
   8              		.eabi_attribute 26, 1
   9              		.eabi_attribute 30, 6
  10              		.eabi_attribute 34, 1
  11              		.eabi_attribute 18, 4
  12              		.file	"arm_mat_trans_q31.c"
  13              		.text
  14              	.Ltext0:
  15              		.cfi_sections	.debug_frame
  16              		.section	.text.arm_mat_trans_q31,"ax",%progbits
  17              		.align	1
  18              		.global	arm_mat_trans_q31
  19              		.arch armv7e-m
  20              		.syntax unified
  21              		.thumb
  22              		.thumb_func
  23              		.fpu fpv5-d16
  25              	arm_mat_trans_q31:
  26              	.LFB145:
  27              		.file 1 "./Libraries/CMSIS/DSP/Source/MatrixFunctions/arm_mat_trans_q31.c"
   1:./Libraries/CMSIS/DSP/Source/MatrixFunctions/arm_mat_trans_q31.c **** /* ----------------------------------------------------------------------
   2:./Libraries/CMSIS/DSP/Source/MatrixFunctions/arm_mat_trans_q31.c ****  * Project:      CMSIS DSP Library
   3:./Libraries/CMSIS/DSP/Source/MatrixFunctions/arm_mat_trans_q31.c ****  * Title:        arm_mat_trans_q31.c
   4:./Libraries/CMSIS/DSP/Source/MatrixFunctions/arm_mat_trans_q31.c ****  * Description:  Q31 matrix transpose
   5:./Libraries/CMSIS/DSP/Source/MatrixFunctions/arm_mat_trans_q31.c ****  *
   6:./Libraries/CMSIS/DSP/Source/MatrixFunctions/arm_mat_trans_q31.c ****  * $Date:        18. March 2019
   7:./Libraries/CMSIS/DSP/Source/MatrixFunctions/arm_mat_trans_q31.c ****  * $Revision:    V1.6.0
   8:./Libraries/CMSIS/DSP/Source/MatrixFunctions/arm_mat_trans_q31.c ****  *
   9:./Libraries/CMSIS/DSP/Source/MatrixFunctions/arm_mat_trans_q31.c ****  * Target Processor: Cortex-M cores
  10:./Libraries/CMSIS/DSP/Source/MatrixFunctions/arm_mat_trans_q31.c ****  * -------------------------------------------------------------------- */
  11:./Libraries/CMSIS/DSP/Source/MatrixFunctions/arm_mat_trans_q31.c **** /*
  12:./Libraries/CMSIS/DSP/Source/MatrixFunctions/arm_mat_trans_q31.c ****  * Copyright (C) 2010-2019 ARM Limited or its affiliates. All rights reserved.
  13:./Libraries/CMSIS/DSP/Source/MatrixFunctions/arm_mat_trans_q31.c ****  *
  14:./Libraries/CMSIS/DSP/Source/MatrixFunctions/arm_mat_trans_q31.c ****  * SPDX-License-Identifier: Apache-2.0
  15:./Libraries/CMSIS/DSP/Source/MatrixFunctions/arm_mat_trans_q31.c ****  *
  16:./Libraries/CMSIS/DSP/Source/MatrixFunctions/arm_mat_trans_q31.c ****  * Licensed under the Apache License, Version 2.0 (the License); you may
  17:./Libraries/CMSIS/DSP/Source/MatrixFunctions/arm_mat_trans_q31.c ****  * not use this file except in compliance with the License.
  18:./Libraries/CMSIS/DSP/Source/MatrixFunctions/arm_mat_trans_q31.c ****  * You may obtain a copy of the License at
  19:./Libraries/CMSIS/DSP/Source/MatrixFunctions/arm_mat_trans_q31.c ****  *
  20:./Libraries/CMSIS/DSP/Source/MatrixFunctions/arm_mat_trans_q31.c ****  * www.apache.org/licenses/LICENSE-2.0
  21:./Libraries/CMSIS/DSP/Source/MatrixFunctions/arm_mat_trans_q31.c ****  *
  22:./Libraries/CMSIS/DSP/Source/MatrixFunctions/arm_mat_trans_q31.c ****  * Unless required by applicable law or agreed to in writing, software
  23:./Libraries/CMSIS/DSP/Source/MatrixFunctions/arm_mat_trans_q31.c ****  * distributed under the License is distributed on an AS IS BASIS, WITHOUT
  24:./Libraries/CMSIS/DSP/Source/MatrixFunctions/arm_mat_trans_q31.c ****  * WARRANTIES OR CONDITIONS OF ANY KIND, either express or implied.
  25:./Libraries/CMSIS/DSP/Source/MatrixFunctions/arm_mat_trans_q31.c ****  * See the License for the specific language governing permissions and
  26:./Libraries/CMSIS/DSP/Source/MatrixFunctions/arm_mat_trans_q31.c ****  * limitations under the License.
  27:./Libraries/CMSIS/DSP/Source/MatrixFunctions/arm_mat_trans_q31.c ****  */
  28:./Libraries/CMSIS/DSP/Source/MatrixFunctions/arm_mat_trans_q31.c **** 
  29:./Libraries/CMSIS/DSP/Source/MatrixFunctions/arm_mat_trans_q31.c **** #include "arm_math.h"
  30:./Libraries/CMSIS/DSP/Source/MatrixFunctions/arm_mat_trans_q31.c **** 
  31:./Libraries/CMSIS/DSP/Source/MatrixFunctions/arm_mat_trans_q31.c **** /**
ARM GAS  /tmp/ccNegDE6.s 			page 2


  32:./Libraries/CMSIS/DSP/Source/MatrixFunctions/arm_mat_trans_q31.c ****   @ingroup groupMatrix
  33:./Libraries/CMSIS/DSP/Source/MatrixFunctions/arm_mat_trans_q31.c ****  */
  34:./Libraries/CMSIS/DSP/Source/MatrixFunctions/arm_mat_trans_q31.c **** 
  35:./Libraries/CMSIS/DSP/Source/MatrixFunctions/arm_mat_trans_q31.c **** /**
  36:./Libraries/CMSIS/DSP/Source/MatrixFunctions/arm_mat_trans_q31.c ****   @addtogroup MatrixTrans
  37:./Libraries/CMSIS/DSP/Source/MatrixFunctions/arm_mat_trans_q31.c ****   @{
  38:./Libraries/CMSIS/DSP/Source/MatrixFunctions/arm_mat_trans_q31.c ****  */
  39:./Libraries/CMSIS/DSP/Source/MatrixFunctions/arm_mat_trans_q31.c **** 
  40:./Libraries/CMSIS/DSP/Source/MatrixFunctions/arm_mat_trans_q31.c **** /**
  41:./Libraries/CMSIS/DSP/Source/MatrixFunctions/arm_mat_trans_q31.c ****   @brief         Q31 matrix transpose.
  42:./Libraries/CMSIS/DSP/Source/MatrixFunctions/arm_mat_trans_q31.c ****   @param[in]     pSrc      points to input matrix
  43:./Libraries/CMSIS/DSP/Source/MatrixFunctions/arm_mat_trans_q31.c ****   @param[out]    pDst      points to output matrix
  44:./Libraries/CMSIS/DSP/Source/MatrixFunctions/arm_mat_trans_q31.c ****   @return        execution status
  45:./Libraries/CMSIS/DSP/Source/MatrixFunctions/arm_mat_trans_q31.c ****                    - \ref ARM_MATH_SUCCESS       : Operation successful
  46:./Libraries/CMSIS/DSP/Source/MatrixFunctions/arm_mat_trans_q31.c ****                    - \ref ARM_MATH_SIZE_MISMATCH : Matrix size check failed
  47:./Libraries/CMSIS/DSP/Source/MatrixFunctions/arm_mat_trans_q31.c ****  */
  48:./Libraries/CMSIS/DSP/Source/MatrixFunctions/arm_mat_trans_q31.c **** 
  49:./Libraries/CMSIS/DSP/Source/MatrixFunctions/arm_mat_trans_q31.c **** arm_status arm_mat_trans_q31(
  50:./Libraries/CMSIS/DSP/Source/MatrixFunctions/arm_mat_trans_q31.c ****   const arm_matrix_instance_q31 * pSrc,
  51:./Libraries/CMSIS/DSP/Source/MatrixFunctions/arm_mat_trans_q31.c ****         arm_matrix_instance_q31 * pDst)
  52:./Libraries/CMSIS/DSP/Source/MatrixFunctions/arm_mat_trans_q31.c **** {
  28              		.loc 1 52 1
  29              		.cfi_startproc
  30              		@ args = 0, pretend = 0, frame = 40
  31              		@ frame_needed = 1, uses_anonymous_args = 0
  32              		@ link register save eliminated.
  33 0000 80B4     		push	{r7}
  34              	.LCFI0:
  35              		.cfi_def_cfa_offset 4
  36              		.cfi_offset 7, -4
  37 0002 8BB0     		sub	sp, sp, #44
  38              	.LCFI1:
  39              		.cfi_def_cfa_offset 48
  40 0004 00AF     		add	r7, sp, #0
  41              	.LCFI2:
  42              		.cfi_def_cfa_register 7
  43 0006 7860     		str	r0, [r7, #4]
  44 0008 3960     		str	r1, [r7]
  53:./Libraries/CMSIS/DSP/Source/MatrixFunctions/arm_mat_trans_q31.c ****   q31_t *pIn = pSrc->pData;                      /* input data matrix pointer */
  45              		.loc 1 53 10
  46 000a 7B68     		ldr	r3, [r7, #4]
  47 000c 5B68     		ldr	r3, [r3, #4]
  48 000e 7B62     		str	r3, [r7, #36]
  54:./Libraries/CMSIS/DSP/Source/MatrixFunctions/arm_mat_trans_q31.c ****   q31_t *pOut = pDst->pData;                     /* output data matrix pointer */
  49              		.loc 1 54 10
  50 0010 3B68     		ldr	r3, [r7]
  51 0012 5B68     		ldr	r3, [r3, #4]
  52 0014 3B61     		str	r3, [r7, #16]
  55:./Libraries/CMSIS/DSP/Source/MatrixFunctions/arm_mat_trans_q31.c ****   q31_t *px;                                     /* Temporary output data matrix pointer */
  56:./Libraries/CMSIS/DSP/Source/MatrixFunctions/arm_mat_trans_q31.c ****   uint16_t nRows = pSrc->numRows;                /* number of rows */
  53              		.loc 1 56 12
  54 0016 7B68     		ldr	r3, [r7, #4]
  55 0018 1B88     		ldrh	r3, [r3]	@ movhi
  56 001a FB81     		strh	r3, [r7, #14]	@ movhi
  57:./Libraries/CMSIS/DSP/Source/MatrixFunctions/arm_mat_trans_q31.c ****   uint16_t nCols = pSrc->numCols;                /* number of columns */
  57              		.loc 1 57 12
  58 001c 7B68     		ldr	r3, [r7, #4]
ARM GAS  /tmp/ccNegDE6.s 			page 3


  59 001e 5B88     		ldrh	r3, [r3, #2]	@ movhi
  60 0020 BB81     		strh	r3, [r7, #12]	@ movhi
  58:./Libraries/CMSIS/DSP/Source/MatrixFunctions/arm_mat_trans_q31.c ****   uint32_t col, row = nRows, i = 0U;             /* Loop counters */
  61              		.loc 1 58 17
  62 0022 FB89     		ldrh	r3, [r7, #14]
  63 0024 BB61     		str	r3, [r7, #24]
  64              		.loc 1 58 30
  65 0026 0023     		movs	r3, #0
  66 0028 7B61     		str	r3, [r7, #20]
  67              	.L4:
  59:./Libraries/CMSIS/DSP/Source/MatrixFunctions/arm_mat_trans_q31.c ****   arm_status status;                             /* status of matrix transpose */
  60:./Libraries/CMSIS/DSP/Source/MatrixFunctions/arm_mat_trans_q31.c **** 
  61:./Libraries/CMSIS/DSP/Source/MatrixFunctions/arm_mat_trans_q31.c **** #ifdef ARM_MATH_MATRIX_CHECK
  62:./Libraries/CMSIS/DSP/Source/MatrixFunctions/arm_mat_trans_q31.c **** 
  63:./Libraries/CMSIS/DSP/Source/MatrixFunctions/arm_mat_trans_q31.c ****   /* Check for matrix mismatch condition */
  64:./Libraries/CMSIS/DSP/Source/MatrixFunctions/arm_mat_trans_q31.c ****   if ((pSrc->numRows != pDst->numCols) ||
  65:./Libraries/CMSIS/DSP/Source/MatrixFunctions/arm_mat_trans_q31.c ****       (pSrc->numCols != pDst->numRows)   )
  66:./Libraries/CMSIS/DSP/Source/MatrixFunctions/arm_mat_trans_q31.c ****   {
  67:./Libraries/CMSIS/DSP/Source/MatrixFunctions/arm_mat_trans_q31.c ****     /* Set status as ARM_MATH_SIZE_MISMATCH */
  68:./Libraries/CMSIS/DSP/Source/MatrixFunctions/arm_mat_trans_q31.c ****     status = ARM_MATH_SIZE_MISMATCH;
  69:./Libraries/CMSIS/DSP/Source/MatrixFunctions/arm_mat_trans_q31.c ****   }
  70:./Libraries/CMSIS/DSP/Source/MatrixFunctions/arm_mat_trans_q31.c ****   else
  71:./Libraries/CMSIS/DSP/Source/MatrixFunctions/arm_mat_trans_q31.c **** 
  72:./Libraries/CMSIS/DSP/Source/MatrixFunctions/arm_mat_trans_q31.c **** #endif /* #ifdef ARM_MATH_MATRIX_CHECK */
  73:./Libraries/CMSIS/DSP/Source/MatrixFunctions/arm_mat_trans_q31.c **** 
  74:./Libraries/CMSIS/DSP/Source/MatrixFunctions/arm_mat_trans_q31.c ****   {
  75:./Libraries/CMSIS/DSP/Source/MatrixFunctions/arm_mat_trans_q31.c ****     /* Matrix transpose by exchanging the rows with columns */
  76:./Libraries/CMSIS/DSP/Source/MatrixFunctions/arm_mat_trans_q31.c ****     /* row loop */
  77:./Libraries/CMSIS/DSP/Source/MatrixFunctions/arm_mat_trans_q31.c ****     do
  78:./Libraries/CMSIS/DSP/Source/MatrixFunctions/arm_mat_trans_q31.c ****     {
  79:./Libraries/CMSIS/DSP/Source/MatrixFunctions/arm_mat_trans_q31.c ****       /* Pointer px is set to starting address of column being processed */
  80:./Libraries/CMSIS/DSP/Source/MatrixFunctions/arm_mat_trans_q31.c ****       px = pOut + i;
  68              		.loc 1 80 17
  69 002a 7B69     		ldr	r3, [r7, #20]
  70 002c 9B00     		lsls	r3, r3, #2
  71              		.loc 1 80 10
  72 002e 3A69     		ldr	r2, [r7, #16]
  73 0030 1344     		add	r3, r3, r2
  74 0032 3B62     		str	r3, [r7, #32]
  81:./Libraries/CMSIS/DSP/Source/MatrixFunctions/arm_mat_trans_q31.c **** 
  82:./Libraries/CMSIS/DSP/Source/MatrixFunctions/arm_mat_trans_q31.c **** #if defined (ARM_MATH_LOOPUNROLL)
  83:./Libraries/CMSIS/DSP/Source/MatrixFunctions/arm_mat_trans_q31.c **** 
  84:./Libraries/CMSIS/DSP/Source/MatrixFunctions/arm_mat_trans_q31.c ****       /* Loop unrolling: Compute 4 outputs at a time */
  85:./Libraries/CMSIS/DSP/Source/MatrixFunctions/arm_mat_trans_q31.c ****       col = nCols >> 2U;
  86:./Libraries/CMSIS/DSP/Source/MatrixFunctions/arm_mat_trans_q31.c **** 
  87:./Libraries/CMSIS/DSP/Source/MatrixFunctions/arm_mat_trans_q31.c ****       while (col > 0U)        /* column loop */
  88:./Libraries/CMSIS/DSP/Source/MatrixFunctions/arm_mat_trans_q31.c ****       {
  89:./Libraries/CMSIS/DSP/Source/MatrixFunctions/arm_mat_trans_q31.c ****         /* Read and store input element in destination */
  90:./Libraries/CMSIS/DSP/Source/MatrixFunctions/arm_mat_trans_q31.c ****         *px = *pIn++;
  91:./Libraries/CMSIS/DSP/Source/MatrixFunctions/arm_mat_trans_q31.c ****         /* Update pointer px to point to next row of transposed matrix */
  92:./Libraries/CMSIS/DSP/Source/MatrixFunctions/arm_mat_trans_q31.c ****         px += nRows;
  93:./Libraries/CMSIS/DSP/Source/MatrixFunctions/arm_mat_trans_q31.c **** 
  94:./Libraries/CMSIS/DSP/Source/MatrixFunctions/arm_mat_trans_q31.c ****         *px = *pIn++;
  95:./Libraries/CMSIS/DSP/Source/MatrixFunctions/arm_mat_trans_q31.c ****         px += nRows;
  96:./Libraries/CMSIS/DSP/Source/MatrixFunctions/arm_mat_trans_q31.c **** 
  97:./Libraries/CMSIS/DSP/Source/MatrixFunctions/arm_mat_trans_q31.c ****         *px = *pIn++;
  98:./Libraries/CMSIS/DSP/Source/MatrixFunctions/arm_mat_trans_q31.c ****         px += nRows;
ARM GAS  /tmp/ccNegDE6.s 			page 4


  99:./Libraries/CMSIS/DSP/Source/MatrixFunctions/arm_mat_trans_q31.c **** 
 100:./Libraries/CMSIS/DSP/Source/MatrixFunctions/arm_mat_trans_q31.c ****         *px = *pIn++;
 101:./Libraries/CMSIS/DSP/Source/MatrixFunctions/arm_mat_trans_q31.c ****         px += nRows;
 102:./Libraries/CMSIS/DSP/Source/MatrixFunctions/arm_mat_trans_q31.c **** 
 103:./Libraries/CMSIS/DSP/Source/MatrixFunctions/arm_mat_trans_q31.c ****         /* Decrement column loop counter */
 104:./Libraries/CMSIS/DSP/Source/MatrixFunctions/arm_mat_trans_q31.c ****         col--;
 105:./Libraries/CMSIS/DSP/Source/MatrixFunctions/arm_mat_trans_q31.c ****       }
 106:./Libraries/CMSIS/DSP/Source/MatrixFunctions/arm_mat_trans_q31.c **** 
 107:./Libraries/CMSIS/DSP/Source/MatrixFunctions/arm_mat_trans_q31.c ****       /* Loop unrolling: Compute remaining outputs */
 108:./Libraries/CMSIS/DSP/Source/MatrixFunctions/arm_mat_trans_q31.c ****       col = nCols % 0x4U;
 109:./Libraries/CMSIS/DSP/Source/MatrixFunctions/arm_mat_trans_q31.c **** 
 110:./Libraries/CMSIS/DSP/Source/MatrixFunctions/arm_mat_trans_q31.c **** #else
 111:./Libraries/CMSIS/DSP/Source/MatrixFunctions/arm_mat_trans_q31.c **** 
 112:./Libraries/CMSIS/DSP/Source/MatrixFunctions/arm_mat_trans_q31.c ****       /* Initialize col with number of samples */
 113:./Libraries/CMSIS/DSP/Source/MatrixFunctions/arm_mat_trans_q31.c ****       col = nCols;
  75              		.loc 1 113 11
  76 0034 BB89     		ldrh	r3, [r7, #12]
  77 0036 FB61     		str	r3, [r7, #28]
 114:./Libraries/CMSIS/DSP/Source/MatrixFunctions/arm_mat_trans_q31.c **** 
 115:./Libraries/CMSIS/DSP/Source/MatrixFunctions/arm_mat_trans_q31.c **** #endif /* #if defined (ARM_MATH_LOOPUNROLL) */
 116:./Libraries/CMSIS/DSP/Source/MatrixFunctions/arm_mat_trans_q31.c **** 
 117:./Libraries/CMSIS/DSP/Source/MatrixFunctions/arm_mat_trans_q31.c ****       while (col > 0U)
  78              		.loc 1 117 13
  79 0038 0DE0     		b	.L2
  80              	.L3:
 118:./Libraries/CMSIS/DSP/Source/MatrixFunctions/arm_mat_trans_q31.c ****       {
 119:./Libraries/CMSIS/DSP/Source/MatrixFunctions/arm_mat_trans_q31.c ****         /* Read and store input element in destination */
 120:./Libraries/CMSIS/DSP/Source/MatrixFunctions/arm_mat_trans_q31.c ****         *px = *pIn++;
  81              		.loc 1 120 19
  82 003a 7B6A     		ldr	r3, [r7, #36]
  83 003c 1A1D     		adds	r2, r3, #4
  84 003e 7A62     		str	r2, [r7, #36]
  85              		.loc 1 120 15
  86 0040 1A68     		ldr	r2, [r3]
  87              		.loc 1 120 13
  88 0042 3B6A     		ldr	r3, [r7, #32]
  89 0044 1A60     		str	r2, [r3]
 121:./Libraries/CMSIS/DSP/Source/MatrixFunctions/arm_mat_trans_q31.c **** 
 122:./Libraries/CMSIS/DSP/Source/MatrixFunctions/arm_mat_trans_q31.c ****         /* Update pointer px to point to next row of transposed matrix */
 123:./Libraries/CMSIS/DSP/Source/MatrixFunctions/arm_mat_trans_q31.c ****         px += nRows;
  90              		.loc 1 123 12
  91 0046 FB89     		ldrh	r3, [r7, #14]
  92 0048 9B00     		lsls	r3, r3, #2
  93 004a 3A6A     		ldr	r2, [r7, #32]
  94 004c 1344     		add	r3, r3, r2
  95 004e 3B62     		str	r3, [r7, #32]
 124:./Libraries/CMSIS/DSP/Source/MatrixFunctions/arm_mat_trans_q31.c **** 
 125:./Libraries/CMSIS/DSP/Source/MatrixFunctions/arm_mat_trans_q31.c ****         /* Decrement column loop counter */
 126:./Libraries/CMSIS/DSP/Source/MatrixFunctions/arm_mat_trans_q31.c ****         col--;
  96              		.loc 1 126 12
  97 0050 FB69     		ldr	r3, [r7, #28]
  98 0052 013B     		subs	r3, r3, #1
  99 0054 FB61     		str	r3, [r7, #28]
 100              	.L2:
 117:./Libraries/CMSIS/DSP/Source/MatrixFunctions/arm_mat_trans_q31.c ****       {
 101              		.loc 1 117 13
 102 0056 FB69     		ldr	r3, [r7, #28]
ARM GAS  /tmp/ccNegDE6.s 			page 5


 103 0058 002B     		cmp	r3, #0
 104 005a EED1     		bne	.L3
 127:./Libraries/CMSIS/DSP/Source/MatrixFunctions/arm_mat_trans_q31.c ****       }
 128:./Libraries/CMSIS/DSP/Source/MatrixFunctions/arm_mat_trans_q31.c **** 
 129:./Libraries/CMSIS/DSP/Source/MatrixFunctions/arm_mat_trans_q31.c ****       i++;
 105              		.loc 1 129 8
 106 005c 7B69     		ldr	r3, [r7, #20]
 107 005e 0133     		adds	r3, r3, #1
 108 0060 7B61     		str	r3, [r7, #20]
 130:./Libraries/CMSIS/DSP/Source/MatrixFunctions/arm_mat_trans_q31.c **** 
 131:./Libraries/CMSIS/DSP/Source/MatrixFunctions/arm_mat_trans_q31.c ****       /* Decrement row loop counter */
 132:./Libraries/CMSIS/DSP/Source/MatrixFunctions/arm_mat_trans_q31.c ****       row--;
 109              		.loc 1 132 10
 110 0062 BB69     		ldr	r3, [r7, #24]
 111 0064 013B     		subs	r3, r3, #1
 112 0066 BB61     		str	r3, [r7, #24]
 133:./Libraries/CMSIS/DSP/Source/MatrixFunctions/arm_mat_trans_q31.c **** 
 134:./Libraries/CMSIS/DSP/Source/MatrixFunctions/arm_mat_trans_q31.c ****     } while (row > 0U);          /* row loop end */
 113              		.loc 1 134 5
 114 0068 BB69     		ldr	r3, [r7, #24]
 115 006a 002B     		cmp	r3, #0
 116 006c DDD1     		bne	.L4
 135:./Libraries/CMSIS/DSP/Source/MatrixFunctions/arm_mat_trans_q31.c **** 
 136:./Libraries/CMSIS/DSP/Source/MatrixFunctions/arm_mat_trans_q31.c ****     /* Set status as ARM_MATH_SUCCESS */
 137:./Libraries/CMSIS/DSP/Source/MatrixFunctions/arm_mat_trans_q31.c ****     status = ARM_MATH_SUCCESS;
 117              		.loc 1 137 12
 118 006e 0023     		movs	r3, #0
 119 0070 FB72     		strb	r3, [r7, #11]
 138:./Libraries/CMSIS/DSP/Source/MatrixFunctions/arm_mat_trans_q31.c ****   }
 139:./Libraries/CMSIS/DSP/Source/MatrixFunctions/arm_mat_trans_q31.c **** 
 140:./Libraries/CMSIS/DSP/Source/MatrixFunctions/arm_mat_trans_q31.c ****   /* Return to application */
 141:./Libraries/CMSIS/DSP/Source/MatrixFunctions/arm_mat_trans_q31.c ****   return (status);
 120              		.loc 1 141 10
 121 0072 97F90B30 		ldrsb	r3, [r7, #11]
 142:./Libraries/CMSIS/DSP/Source/MatrixFunctions/arm_mat_trans_q31.c **** }
 122              		.loc 1 142 1
 123 0076 1846     		mov	r0, r3
 124 0078 2C37     		adds	r7, r7, #44
 125              	.LCFI3:
 126              		.cfi_def_cfa_offset 4
 127 007a BD46     		mov	sp, r7
 128              	.LCFI4:
 129              		.cfi_def_cfa_register 13
 130              		@ sp needed
 131 007c 5DF8047B 		ldr	r7, [sp], #4
 132              	.LCFI5:
 133              		.cfi_restore 7
 134              		.cfi_def_cfa_offset 0
 135 0080 7047     		bx	lr
 136              		.cfi_endproc
 137              	.LFE145:
 139              		.text
 140              	.Letext0:
 141              		.file 2 "/usr/lib/gcc/arm-none-eabi/9.2.1/include/stdint.h"
 142              		.file 3 "/usr/lib/gcc/arm-none-eabi/9.2.1/include/stddef.h"
 143              		.file 4 "/usr/include/newlib/sys/_types.h"
 144              		.file 5 "/usr/include/newlib/sys/reent.h"
ARM GAS  /tmp/ccNegDE6.s 			page 6


 145              		.file 6 "/usr/include/newlib/sys/lock.h"
 146              		.file 7 "/usr/include/newlib/math.h"
 147              		.file 8 "./Libraries/CMSIS/DSP/Include/arm_math.h"
ARM GAS  /tmp/ccNegDE6.s 			page 7

