ARM GAS  /tmp/ccLeX0i3.s 			page 1


   1              		.cpu cortex-m7
   2              		.eabi_attribute 28, 1
   3              		.eabi_attribute 20, 1
   4              		.eabi_attribute 21, 1
   5              		.eabi_attribute 23, 3
   6              		.eabi_attribute 24, 1
   7              		.eabi_attribute 25, 1
   8              		.eabi_attribute 26, 1
   9              		.eabi_attribute 30, 6
  10              		.eabi_attribute 34, 1
  11              		.eabi_attribute 18, 4
  12              		.file	"arm_bitreversal.c"
  13              		.text
  14              	.Ltext0:
  15              		.cfi_sections	.debug_frame
  16              		.section	.text.arm_bitreversal_f32,"ax",%progbits
  17              		.align	1
  18              		.global	arm_bitreversal_f32
  19              		.arch armv7e-m
  20              		.syntax unified
  21              		.thumb
  22              		.thumb_func
  23              		.fpu fpv5-d16
  25              	arm_bitreversal_f32:
  26              	.LFB145:
  27              		.file 1 "./Libraries/CMSIS/DSP/Source/TransformFunctions/arm_bitreversal.c"
   1:./Libraries/CMSIS/DSP/Source/TransformFunctions/arm_bitreversal.c **** /* ----------------------------------------------------------------------
   2:./Libraries/CMSIS/DSP/Source/TransformFunctions/arm_bitreversal.c ****  * Project:      CMSIS DSP Library
   3:./Libraries/CMSIS/DSP/Source/TransformFunctions/arm_bitreversal.c ****  * Title:        arm_bitreversal.c
   4:./Libraries/CMSIS/DSP/Source/TransformFunctions/arm_bitreversal.c ****  * Description:  Bitreversal functions
   5:./Libraries/CMSIS/DSP/Source/TransformFunctions/arm_bitreversal.c ****  *
   6:./Libraries/CMSIS/DSP/Source/TransformFunctions/arm_bitreversal.c ****  * $Date:        18. March 2019
   7:./Libraries/CMSIS/DSP/Source/TransformFunctions/arm_bitreversal.c ****  * $Revision:    V1.6.0
   8:./Libraries/CMSIS/DSP/Source/TransformFunctions/arm_bitreversal.c ****  *
   9:./Libraries/CMSIS/DSP/Source/TransformFunctions/arm_bitreversal.c ****  * Target Processor: Cortex-M cores
  10:./Libraries/CMSIS/DSP/Source/TransformFunctions/arm_bitreversal.c ****  * -------------------------------------------------------------------- */
  11:./Libraries/CMSIS/DSP/Source/TransformFunctions/arm_bitreversal.c **** /*
  12:./Libraries/CMSIS/DSP/Source/TransformFunctions/arm_bitreversal.c ****  * Copyright (C) 2010-2019 ARM Limited or its affiliates. All rights reserved.
  13:./Libraries/CMSIS/DSP/Source/TransformFunctions/arm_bitreversal.c ****  *
  14:./Libraries/CMSIS/DSP/Source/TransformFunctions/arm_bitreversal.c ****  * SPDX-License-Identifier: Apache-2.0
  15:./Libraries/CMSIS/DSP/Source/TransformFunctions/arm_bitreversal.c ****  *
  16:./Libraries/CMSIS/DSP/Source/TransformFunctions/arm_bitreversal.c ****  * Licensed under the Apache License, Version 2.0 (the License); you may
  17:./Libraries/CMSIS/DSP/Source/TransformFunctions/arm_bitreversal.c ****  * not use this file except in compliance with the License.
  18:./Libraries/CMSIS/DSP/Source/TransformFunctions/arm_bitreversal.c ****  * You may obtain a copy of the License at
  19:./Libraries/CMSIS/DSP/Source/TransformFunctions/arm_bitreversal.c ****  *
  20:./Libraries/CMSIS/DSP/Source/TransformFunctions/arm_bitreversal.c ****  * www.apache.org/licenses/LICENSE-2.0
  21:./Libraries/CMSIS/DSP/Source/TransformFunctions/arm_bitreversal.c ****  *
  22:./Libraries/CMSIS/DSP/Source/TransformFunctions/arm_bitreversal.c ****  * Unless required by applicable law or agreed to in writing, software
  23:./Libraries/CMSIS/DSP/Source/TransformFunctions/arm_bitreversal.c ****  * distributed under the License is distributed on an AS IS BASIS, WITHOUT
  24:./Libraries/CMSIS/DSP/Source/TransformFunctions/arm_bitreversal.c ****  * WARRANTIES OR CONDITIONS OF ANY KIND, either express or implied.
  25:./Libraries/CMSIS/DSP/Source/TransformFunctions/arm_bitreversal.c ****  * See the License for the specific language governing permissions and
  26:./Libraries/CMSIS/DSP/Source/TransformFunctions/arm_bitreversal.c ****  * limitations under the License.
  27:./Libraries/CMSIS/DSP/Source/TransformFunctions/arm_bitreversal.c ****  */
  28:./Libraries/CMSIS/DSP/Source/TransformFunctions/arm_bitreversal.c **** 
  29:./Libraries/CMSIS/DSP/Source/TransformFunctions/arm_bitreversal.c **** #include "arm_math.h"
  30:./Libraries/CMSIS/DSP/Source/TransformFunctions/arm_bitreversal.c **** #include "arm_common_tables.h"
  31:./Libraries/CMSIS/DSP/Source/TransformFunctions/arm_bitreversal.c **** 
ARM GAS  /tmp/ccLeX0i3.s 			page 2


  32:./Libraries/CMSIS/DSP/Source/TransformFunctions/arm_bitreversal.c **** /**
  33:./Libraries/CMSIS/DSP/Source/TransformFunctions/arm_bitreversal.c ****   @brief         In-place floating-point bit reversal function.
  34:./Libraries/CMSIS/DSP/Source/TransformFunctions/arm_bitreversal.c ****   @param[in,out] pSrc         points to in-place floating-point data buffer
  35:./Libraries/CMSIS/DSP/Source/TransformFunctions/arm_bitreversal.c ****   @param[in]     fftSize      length of FFT
  36:./Libraries/CMSIS/DSP/Source/TransformFunctions/arm_bitreversal.c ****   @param[in]     bitRevFactor bit reversal modifier that supports different size FFTs with the same
  37:./Libraries/CMSIS/DSP/Source/TransformFunctions/arm_bitreversal.c ****   @param[in]     pBitRevTab   points to bit reversal table
  38:./Libraries/CMSIS/DSP/Source/TransformFunctions/arm_bitreversal.c ****   @return        none
  39:./Libraries/CMSIS/DSP/Source/TransformFunctions/arm_bitreversal.c ****  */
  40:./Libraries/CMSIS/DSP/Source/TransformFunctions/arm_bitreversal.c **** 
  41:./Libraries/CMSIS/DSP/Source/TransformFunctions/arm_bitreversal.c **** void arm_bitreversal_f32(
  42:./Libraries/CMSIS/DSP/Source/TransformFunctions/arm_bitreversal.c ****         float32_t * pSrc,
  43:./Libraries/CMSIS/DSP/Source/TransformFunctions/arm_bitreversal.c ****         uint16_t fftSize,
  44:./Libraries/CMSIS/DSP/Source/TransformFunctions/arm_bitreversal.c ****         uint16_t bitRevFactor,
  45:./Libraries/CMSIS/DSP/Source/TransformFunctions/arm_bitreversal.c ****   const uint16_t * pBitRevTab)
  46:./Libraries/CMSIS/DSP/Source/TransformFunctions/arm_bitreversal.c **** {
  28              		.loc 1 46 1
  29              		.cfi_startproc
  30              		@ args = 0, pretend = 0, frame = 32
  31              		@ frame_needed = 1, uses_anonymous_args = 0
  32              		@ link register save eliminated.
  33 0000 80B4     		push	{r7}
  34              	.LCFI0:
  35              		.cfi_def_cfa_offset 4
  36              		.cfi_offset 7, -4
  37 0002 89B0     		sub	sp, sp, #36
  38              	.LCFI1:
  39              		.cfi_def_cfa_offset 40
  40 0004 00AF     		add	r7, sp, #0
  41              	.LCFI2:
  42              		.cfi_def_cfa_register 7
  43 0006 F860     		str	r0, [r7, #12]
  44 0008 7B60     		str	r3, [r7, #4]
  45 000a 0B46     		mov	r3, r1	@ movhi
  46 000c 7B81     		strh	r3, [r7, #10]	@ movhi
  47 000e 1346     		mov	r3, r2	@ movhi
  48 0010 3B81     		strh	r3, [r7, #8]	@ movhi
  47:./Libraries/CMSIS/DSP/Source/TransformFunctions/arm_bitreversal.c ****    uint16_t fftLenBy2, fftLenBy2p1;
  48:./Libraries/CMSIS/DSP/Source/TransformFunctions/arm_bitreversal.c ****    uint16_t i, j;
  49:./Libraries/CMSIS/DSP/Source/TransformFunctions/arm_bitreversal.c ****    float32_t in;
  50:./Libraries/CMSIS/DSP/Source/TransformFunctions/arm_bitreversal.c **** 
  51:./Libraries/CMSIS/DSP/Source/TransformFunctions/arm_bitreversal.c ****    /*  Initializations */
  52:./Libraries/CMSIS/DSP/Source/TransformFunctions/arm_bitreversal.c ****    j = 0U;
  49              		.loc 1 52 6
  50 0012 0023     		movs	r3, #0
  51 0014 BB83     		strh	r3, [r7, #28]	@ movhi
  53:./Libraries/CMSIS/DSP/Source/TransformFunctions/arm_bitreversal.c ****    fftLenBy2 = fftSize >> 1U;
  52              		.loc 1 53 14
  53 0016 7B89     		ldrh	r3, [r7, #10]
  54 0018 5B08     		lsrs	r3, r3, #1
  55 001a 7B83     		strh	r3, [r7, #26]	@ movhi
  54:./Libraries/CMSIS/DSP/Source/TransformFunctions/arm_bitreversal.c ****    fftLenBy2p1 = (fftSize >> 1U) + 1U;
  56              		.loc 1 54 34
  57 001c 7B89     		ldrh	r3, [r7, #10]
  58 001e 5B08     		lsrs	r3, r3, #1
  59 0020 9BB2     		uxth	r3, r3
  60              		.loc 1 54 16
  61 0022 0133     		adds	r3, r3, #1
ARM GAS  /tmp/ccLeX0i3.s 			page 3


  62 0024 3B83     		strh	r3, [r7, #24]	@ movhi
  55:./Libraries/CMSIS/DSP/Source/TransformFunctions/arm_bitreversal.c **** 
  56:./Libraries/CMSIS/DSP/Source/TransformFunctions/arm_bitreversal.c ****    /* Bit Reversal Implementation */
  57:./Libraries/CMSIS/DSP/Source/TransformFunctions/arm_bitreversal.c ****    for (i = 0U; i <= (fftLenBy2 - 2U); i += 2U)
  63              		.loc 1 57 11
  64 0026 0023     		movs	r3, #0
  65 0028 FB83     		strh	r3, [r7, #30]	@ movhi
  66              		.loc 1 57 4
  67 002a BAE0     		b	.L2
  68              	.L4:
  58:./Libraries/CMSIS/DSP/Source/TransformFunctions/arm_bitreversal.c ****    {
  59:./Libraries/CMSIS/DSP/Source/TransformFunctions/arm_bitreversal.c ****       if (i < j)
  69              		.loc 1 59 10
  70 002c FA8B     		ldrh	r2, [r7, #30]
  71 002e BB8B     		ldrh	r3, [r7, #28]
  72 0030 9A42     		cmp	r2, r3
  73 0032 6FD2     		bcs	.L3
  60:./Libraries/CMSIS/DSP/Source/TransformFunctions/arm_bitreversal.c ****       {
  61:./Libraries/CMSIS/DSP/Source/TransformFunctions/arm_bitreversal.c ****          /*  pSrc[i] <-> pSrc[j]; */
  62:./Libraries/CMSIS/DSP/Source/TransformFunctions/arm_bitreversal.c ****          in = pSrc[2U * i];
  74              		.loc 1 62 19
  75 0034 FB8B     		ldrh	r3, [r7, #30]
  76 0036 DB00     		lsls	r3, r3, #3
  77 0038 FA68     		ldr	r2, [r7, #12]
  78 003a 1344     		add	r3, r3, r2
  79              		.loc 1 62 13
  80 003c 1B68     		ldr	r3, [r3]	@ float
  81 003e 7B61     		str	r3, [r7, #20]	@ float
  63:./Libraries/CMSIS/DSP/Source/TransformFunctions/arm_bitreversal.c ****          pSrc[2U * i] = pSrc[2U * j];
  82              		.loc 1 63 29
  83 0040 BB8B     		ldrh	r3, [r7, #28]
  84 0042 DB00     		lsls	r3, r3, #3
  85 0044 FA68     		ldr	r2, [r7, #12]
  86 0046 1A44     		add	r2, r2, r3
  87              		.loc 1 63 14
  88 0048 FB8B     		ldrh	r3, [r7, #30]
  89 004a DB00     		lsls	r3, r3, #3
  90 004c F968     		ldr	r1, [r7, #12]
  91 004e 0B44     		add	r3, r3, r1
  92              		.loc 1 63 29
  93 0050 1268     		ldr	r2, [r2]	@ float
  94              		.loc 1 63 23
  95 0052 1A60     		str	r2, [r3]	@ float
  64:./Libraries/CMSIS/DSP/Source/TransformFunctions/arm_bitreversal.c ****          pSrc[2U * j] = in;
  96              		.loc 1 64 14
  97 0054 BB8B     		ldrh	r3, [r7, #28]
  98 0056 DB00     		lsls	r3, r3, #3
  99 0058 FA68     		ldr	r2, [r7, #12]
 100 005a 1344     		add	r3, r3, r2
 101              		.loc 1 64 23
 102 005c 7A69     		ldr	r2, [r7, #20]	@ float
 103 005e 1A60     		str	r2, [r3]	@ float
  65:./Libraries/CMSIS/DSP/Source/TransformFunctions/arm_bitreversal.c **** 
  66:./Libraries/CMSIS/DSP/Source/TransformFunctions/arm_bitreversal.c ****          /*  pSrc[i+1U] <-> pSrc[j+1U] */
  67:./Libraries/CMSIS/DSP/Source/TransformFunctions/arm_bitreversal.c ****          in = pSrc[(2U * i) + 1U];
 104              		.loc 1 67 19
 105 0060 FB8B     		ldrh	r3, [r7, #30]
ARM GAS  /tmp/ccLeX0i3.s 			page 4


 106 0062 DB00     		lsls	r3, r3, #3
 107 0064 0433     		adds	r3, r3, #4
 108 0066 FA68     		ldr	r2, [r7, #12]
 109 0068 1344     		add	r3, r3, r2
 110              		.loc 1 67 13
 111 006a 1B68     		ldr	r3, [r3]	@ float
 112 006c 7B61     		str	r3, [r7, #20]	@ float
  68:./Libraries/CMSIS/DSP/Source/TransformFunctions/arm_bitreversal.c ****          pSrc[(2U * i) + 1U] = pSrc[(2U * j) + 1U];
 113              		.loc 1 68 36
 114 006e BB8B     		ldrh	r3, [r7, #28]
 115 0070 DB00     		lsls	r3, r3, #3
 116 0072 0433     		adds	r3, r3, #4
 117 0074 FA68     		ldr	r2, [r7, #12]
 118 0076 1A44     		add	r2, r2, r3
 119              		.loc 1 68 14
 120 0078 FB8B     		ldrh	r3, [r7, #30]
 121 007a DB00     		lsls	r3, r3, #3
 122 007c 0433     		adds	r3, r3, #4
 123 007e F968     		ldr	r1, [r7, #12]
 124 0080 0B44     		add	r3, r3, r1
 125              		.loc 1 68 36
 126 0082 1268     		ldr	r2, [r2]	@ float
 127              		.loc 1 68 30
 128 0084 1A60     		str	r2, [r3]	@ float
  69:./Libraries/CMSIS/DSP/Source/TransformFunctions/arm_bitreversal.c ****          pSrc[(2U * j) + 1U] = in;
 129              		.loc 1 69 14
 130 0086 BB8B     		ldrh	r3, [r7, #28]
 131 0088 DB00     		lsls	r3, r3, #3
 132 008a 0433     		adds	r3, r3, #4
 133 008c FA68     		ldr	r2, [r7, #12]
 134 008e 1344     		add	r3, r3, r2
 135              		.loc 1 69 30
 136 0090 7A69     		ldr	r2, [r7, #20]	@ float
 137 0092 1A60     		str	r2, [r3]	@ float
  70:./Libraries/CMSIS/DSP/Source/TransformFunctions/arm_bitreversal.c **** 
  71:./Libraries/CMSIS/DSP/Source/TransformFunctions/arm_bitreversal.c ****          /*  pSrc[i+fftLenBy2p1] <-> pSrc[j+fftLenBy2p1] */
  72:./Libraries/CMSIS/DSP/Source/TransformFunctions/arm_bitreversal.c ****          in = pSrc[2U * (i + fftLenBy2p1)];
 138              		.loc 1 72 28
 139 0094 FA8B     		ldrh	r2, [r7, #30]
 140 0096 3B8B     		ldrh	r3, [r7, #24]
 141 0098 1344     		add	r3, r3, r2
 142              		.loc 1 72 19
 143 009a DB00     		lsls	r3, r3, #3
 144 009c FA68     		ldr	r2, [r7, #12]
 145 009e 1344     		add	r3, r3, r2
 146              		.loc 1 72 13
 147 00a0 1B68     		ldr	r3, [r3]	@ float
 148 00a2 7B61     		str	r3, [r7, #20]	@ float
  73:./Libraries/CMSIS/DSP/Source/TransformFunctions/arm_bitreversal.c ****          pSrc[2U * (i + fftLenBy2p1)] = pSrc[2U * (j + fftLenBy2p1)];
 149              		.loc 1 73 54
 150 00a4 BA8B     		ldrh	r2, [r7, #28]
 151 00a6 3B8B     		ldrh	r3, [r7, #24]
 152 00a8 1344     		add	r3, r3, r2
 153              		.loc 1 73 45
 154 00aa DB00     		lsls	r3, r3, #3
 155 00ac FA68     		ldr	r2, [r7, #12]
 156 00ae 1A44     		add	r2, r2, r3
ARM GAS  /tmp/ccLeX0i3.s 			page 5


 157              		.loc 1 73 23
 158 00b0 F98B     		ldrh	r1, [r7, #30]
 159 00b2 3B8B     		ldrh	r3, [r7, #24]
 160 00b4 0B44     		add	r3, r3, r1
 161              		.loc 1 73 14
 162 00b6 DB00     		lsls	r3, r3, #3
 163 00b8 F968     		ldr	r1, [r7, #12]
 164 00ba 0B44     		add	r3, r3, r1
 165              		.loc 1 73 45
 166 00bc 1268     		ldr	r2, [r2]	@ float
 167              		.loc 1 73 39
 168 00be 1A60     		str	r2, [r3]	@ float
  74:./Libraries/CMSIS/DSP/Source/TransformFunctions/arm_bitreversal.c ****          pSrc[2U * (j + fftLenBy2p1)] = in;
 169              		.loc 1 74 23
 170 00c0 BA8B     		ldrh	r2, [r7, #28]
 171 00c2 3B8B     		ldrh	r3, [r7, #24]
 172 00c4 1344     		add	r3, r3, r2
 173              		.loc 1 74 14
 174 00c6 DB00     		lsls	r3, r3, #3
 175 00c8 FA68     		ldr	r2, [r7, #12]
 176 00ca 1344     		add	r3, r3, r2
 177              		.loc 1 74 39
 178 00cc 7A69     		ldr	r2, [r7, #20]	@ float
 179 00ce 1A60     		str	r2, [r3]	@ float
  75:./Libraries/CMSIS/DSP/Source/TransformFunctions/arm_bitreversal.c **** 
  76:./Libraries/CMSIS/DSP/Source/TransformFunctions/arm_bitreversal.c ****          /*  pSrc[i+fftLenBy2p1+1U] <-> pSrc[j+fftLenBy2p1+1U] */
  77:./Libraries/CMSIS/DSP/Source/TransformFunctions/arm_bitreversal.c ****          in = pSrc[(2U * (i + fftLenBy2p1)) + 1U];
 180              		.loc 1 77 29
 181 00d0 FA8B     		ldrh	r2, [r7, #30]
 182 00d2 3B8B     		ldrh	r3, [r7, #24]
 183 00d4 1344     		add	r3, r3, r2
 184              		.loc 1 77 19
 185 00d6 DB00     		lsls	r3, r3, #3
 186 00d8 0433     		adds	r3, r3, #4
 187 00da FA68     		ldr	r2, [r7, #12]
 188 00dc 1344     		add	r3, r3, r2
 189              		.loc 1 77 13
 190 00de 1B68     		ldr	r3, [r3]	@ float
 191 00e0 7B61     		str	r3, [r7, #20]	@ float
  78:./Libraries/CMSIS/DSP/Source/TransformFunctions/arm_bitreversal.c ****          pSrc[(2U * (i + fftLenBy2p1)) + 1U] =
  79:./Libraries/CMSIS/DSP/Source/TransformFunctions/arm_bitreversal.c ****          pSrc[(2U * (j + fftLenBy2p1)) + 1U];
 192              		.loc 1 79 24
 193 00e2 BA8B     		ldrh	r2, [r7, #28]
 194 00e4 3B8B     		ldrh	r3, [r7, #24]
 195 00e6 1344     		add	r3, r3, r2
 196              		.loc 1 79 14
 197 00e8 DB00     		lsls	r3, r3, #3
 198 00ea 0433     		adds	r3, r3, #4
 199 00ec FA68     		ldr	r2, [r7, #12]
 200 00ee 1A44     		add	r2, r2, r3
  78:./Libraries/CMSIS/DSP/Source/TransformFunctions/arm_bitreversal.c ****          pSrc[(2U * (i + fftLenBy2p1)) + 1U] =
 201              		.loc 1 78 24
 202 00f0 F98B     		ldrh	r1, [r7, #30]
 203 00f2 3B8B     		ldrh	r3, [r7, #24]
 204 00f4 0B44     		add	r3, r3, r1
  78:./Libraries/CMSIS/DSP/Source/TransformFunctions/arm_bitreversal.c ****          pSrc[(2U * (i + fftLenBy2p1)) + 1U] =
 205              		.loc 1 78 14
ARM GAS  /tmp/ccLeX0i3.s 			page 6


 206 00f6 DB00     		lsls	r3, r3, #3
 207 00f8 0433     		adds	r3, r3, #4
 208 00fa F968     		ldr	r1, [r7, #12]
 209 00fc 0B44     		add	r3, r3, r1
 210              		.loc 1 79 14
 211 00fe 1268     		ldr	r2, [r2]	@ float
  78:./Libraries/CMSIS/DSP/Source/TransformFunctions/arm_bitreversal.c ****          pSrc[(2U * (i + fftLenBy2p1)) + 1U] =
 212              		.loc 1 78 46
 213 0100 1A60     		str	r2, [r3]	@ float
  80:./Libraries/CMSIS/DSP/Source/TransformFunctions/arm_bitreversal.c ****          pSrc[(2U * (j + fftLenBy2p1)) + 1U] = in;
 214              		.loc 1 80 24
 215 0102 BA8B     		ldrh	r2, [r7, #28]
 216 0104 3B8B     		ldrh	r3, [r7, #24]
 217 0106 1344     		add	r3, r3, r2
 218              		.loc 1 80 14
 219 0108 DB00     		lsls	r3, r3, #3
 220 010a 0433     		adds	r3, r3, #4
 221 010c FA68     		ldr	r2, [r7, #12]
 222 010e 1344     		add	r3, r3, r2
 223              		.loc 1 80 46
 224 0110 7A69     		ldr	r2, [r7, #20]	@ float
 225 0112 1A60     		str	r2, [r3]	@ float
 226              	.L3:
  81:./Libraries/CMSIS/DSP/Source/TransformFunctions/arm_bitreversal.c **** 
  82:./Libraries/CMSIS/DSP/Source/TransformFunctions/arm_bitreversal.c ****       }
  83:./Libraries/CMSIS/DSP/Source/TransformFunctions/arm_bitreversal.c **** 
  84:./Libraries/CMSIS/DSP/Source/TransformFunctions/arm_bitreversal.c ****       /*  pSrc[i+1U] <-> pSrc[j+1U] */
  85:./Libraries/CMSIS/DSP/Source/TransformFunctions/arm_bitreversal.c ****       in = pSrc[2U * (i + 1U)];
 227              		.loc 1 85 25 discriminator 2
 228 0114 FB8B     		ldrh	r3, [r7, #30]
 229 0116 0133     		adds	r3, r3, #1
 230              		.loc 1 85 16 discriminator 2
 231 0118 DB00     		lsls	r3, r3, #3
 232 011a FA68     		ldr	r2, [r7, #12]
 233 011c 1344     		add	r3, r3, r2
 234              		.loc 1 85 10 discriminator 2
 235 011e 1B68     		ldr	r3, [r3]	@ float
 236 0120 7B61     		str	r3, [r7, #20]	@ float
  86:./Libraries/CMSIS/DSP/Source/TransformFunctions/arm_bitreversal.c ****       pSrc[2U * (i + 1U)] = pSrc[2U * (j + fftLenBy2)];
 237              		.loc 1 86 42 discriminator 2
 238 0122 BA8B     		ldrh	r2, [r7, #28]
 239 0124 7B8B     		ldrh	r3, [r7, #26]
 240 0126 1344     		add	r3, r3, r2
 241              		.loc 1 86 33 discriminator 2
 242 0128 DB00     		lsls	r3, r3, #3
 243 012a FA68     		ldr	r2, [r7, #12]
 244 012c 1A44     		add	r2, r2, r3
 245              		.loc 1 86 20 discriminator 2
 246 012e FB8B     		ldrh	r3, [r7, #30]
 247 0130 0133     		adds	r3, r3, #1
 248              		.loc 1 86 11 discriminator 2
 249 0132 DB00     		lsls	r3, r3, #3
 250 0134 F968     		ldr	r1, [r7, #12]
 251 0136 0B44     		add	r3, r3, r1
 252              		.loc 1 86 33 discriminator 2
 253 0138 1268     		ldr	r2, [r2]	@ float
 254              		.loc 1 86 27 discriminator 2
ARM GAS  /tmp/ccLeX0i3.s 			page 7


 255 013a 1A60     		str	r2, [r3]	@ float
  87:./Libraries/CMSIS/DSP/Source/TransformFunctions/arm_bitreversal.c ****       pSrc[2U * (j + fftLenBy2)] = in;
 256              		.loc 1 87 20 discriminator 2
 257 013c BA8B     		ldrh	r2, [r7, #28]
 258 013e 7B8B     		ldrh	r3, [r7, #26]
 259 0140 1344     		add	r3, r3, r2
 260              		.loc 1 87 11 discriminator 2
 261 0142 DB00     		lsls	r3, r3, #3
 262 0144 FA68     		ldr	r2, [r7, #12]
 263 0146 1344     		add	r3, r3, r2
 264              		.loc 1 87 34 discriminator 2
 265 0148 7A69     		ldr	r2, [r7, #20]	@ float
 266 014a 1A60     		str	r2, [r3]	@ float
  88:./Libraries/CMSIS/DSP/Source/TransformFunctions/arm_bitreversal.c **** 
  89:./Libraries/CMSIS/DSP/Source/TransformFunctions/arm_bitreversal.c ****       /*  pSrc[i+2U] <-> pSrc[j+2U] */
  90:./Libraries/CMSIS/DSP/Source/TransformFunctions/arm_bitreversal.c ****       in = pSrc[(2U * (i + 1U)) + 1U];
 267              		.loc 1 90 26 discriminator 2
 268 014c FB8B     		ldrh	r3, [r7, #30]
 269 014e 0133     		adds	r3, r3, #1
 270              		.loc 1 90 16 discriminator 2
 271 0150 DB00     		lsls	r3, r3, #3
 272 0152 0433     		adds	r3, r3, #4
 273 0154 FA68     		ldr	r2, [r7, #12]
 274 0156 1344     		add	r3, r3, r2
 275              		.loc 1 90 10 discriminator 2
 276 0158 1B68     		ldr	r3, [r3]	@ float
 277 015a 7B61     		str	r3, [r7, #20]	@ float
  91:./Libraries/CMSIS/DSP/Source/TransformFunctions/arm_bitreversal.c ****       pSrc[(2U * (i + 1U)) + 1U] = pSrc[(2U * (j + fftLenBy2)) + 1U];
 278              		.loc 1 91 50 discriminator 2
 279 015c BA8B     		ldrh	r2, [r7, #28]
 280 015e 7B8B     		ldrh	r3, [r7, #26]
 281 0160 1344     		add	r3, r3, r2
 282              		.loc 1 91 40 discriminator 2
 283 0162 DB00     		lsls	r3, r3, #3
 284 0164 0433     		adds	r3, r3, #4
 285 0166 FA68     		ldr	r2, [r7, #12]
 286 0168 1A44     		add	r2, r2, r3
 287              		.loc 1 91 21 discriminator 2
 288 016a FB8B     		ldrh	r3, [r7, #30]
 289 016c 0133     		adds	r3, r3, #1
 290              		.loc 1 91 11 discriminator 2
 291 016e DB00     		lsls	r3, r3, #3
 292 0170 0433     		adds	r3, r3, #4
 293 0172 F968     		ldr	r1, [r7, #12]
 294 0174 0B44     		add	r3, r3, r1
 295              		.loc 1 91 40 discriminator 2
 296 0176 1268     		ldr	r2, [r2]	@ float
 297              		.loc 1 91 34 discriminator 2
 298 0178 1A60     		str	r2, [r3]	@ float
  92:./Libraries/CMSIS/DSP/Source/TransformFunctions/arm_bitreversal.c ****       pSrc[(2U * (j + fftLenBy2)) + 1U] = in;
 299              		.loc 1 92 21 discriminator 2
 300 017a BA8B     		ldrh	r2, [r7, #28]
 301 017c 7B8B     		ldrh	r3, [r7, #26]
 302 017e 1344     		add	r3, r3, r2
 303              		.loc 1 92 11 discriminator 2
 304 0180 DB00     		lsls	r3, r3, #3
 305 0182 0433     		adds	r3, r3, #4
ARM GAS  /tmp/ccLeX0i3.s 			page 8


 306 0184 FA68     		ldr	r2, [r7, #12]
 307 0186 1344     		add	r3, r3, r2
 308              		.loc 1 92 41 discriminator 2
 309 0188 7A69     		ldr	r2, [r7, #20]	@ float
 310 018a 1A60     		str	r2, [r3]	@ float
  93:./Libraries/CMSIS/DSP/Source/TransformFunctions/arm_bitreversal.c **** 
  94:./Libraries/CMSIS/DSP/Source/TransformFunctions/arm_bitreversal.c ****       /*  Reading the index for the bit reversal */
  95:./Libraries/CMSIS/DSP/Source/TransformFunctions/arm_bitreversal.c ****       j = *pBitRevTab;
 311              		.loc 1 95 9 discriminator 2
 312 018c 7B68     		ldr	r3, [r7, #4]
 313 018e 1B88     		ldrh	r3, [r3]	@ movhi
 314 0190 BB83     		strh	r3, [r7, #28]	@ movhi
  96:./Libraries/CMSIS/DSP/Source/TransformFunctions/arm_bitreversal.c **** 
  97:./Libraries/CMSIS/DSP/Source/TransformFunctions/arm_bitreversal.c ****       /*  Updating the bit reversal index depending on the fft length  */
  98:./Libraries/CMSIS/DSP/Source/TransformFunctions/arm_bitreversal.c ****       pBitRevTab += bitRevFactor;
 315              		.loc 1 98 18 discriminator 2
 316 0192 3B89     		ldrh	r3, [r7, #8]
 317 0194 5B00     		lsls	r3, r3, #1
 318 0196 7A68     		ldr	r2, [r7, #4]
 319 0198 1344     		add	r3, r3, r2
 320 019a 7B60     		str	r3, [r7, #4]
  57:./Libraries/CMSIS/DSP/Source/TransformFunctions/arm_bitreversal.c ****    {
 321              		.loc 1 57 42 discriminator 2
 322 019c FB8B     		ldrh	r3, [r7, #30]	@ movhi
 323 019e 0233     		adds	r3, r3, #2
 324 01a0 FB83     		strh	r3, [r7, #30]	@ movhi
 325              	.L2:
  57:./Libraries/CMSIS/DSP/Source/TransformFunctions/arm_bitreversal.c ****    {
 326              		.loc 1 57 19 discriminator 1
 327 01a2 FA8B     		ldrh	r2, [r7, #30]
  57:./Libraries/CMSIS/DSP/Source/TransformFunctions/arm_bitreversal.c ****    {
 328              		.loc 1 57 33 discriminator 1
 329 01a4 7B8B     		ldrh	r3, [r7, #26]
 330 01a6 023B     		subs	r3, r3, #2
  57:./Libraries/CMSIS/DSP/Source/TransformFunctions/arm_bitreversal.c ****    {
 331              		.loc 1 57 4 discriminator 1
 332 01a8 9A42     		cmp	r2, r3
 333 01aa 7FF63FAF 		bls	.L4
  99:./Libraries/CMSIS/DSP/Source/TransformFunctions/arm_bitreversal.c ****    }
 100:./Libraries/CMSIS/DSP/Source/TransformFunctions/arm_bitreversal.c **** }
 334              		.loc 1 100 1
 335 01ae 00BF     		nop
 336 01b0 00BF     		nop
 337 01b2 2437     		adds	r7, r7, #36
 338              	.LCFI3:
 339              		.cfi_def_cfa_offset 4
 340 01b4 BD46     		mov	sp, r7
 341              	.LCFI4:
 342              		.cfi_def_cfa_register 13
 343              		@ sp needed
 344 01b6 5DF8047B 		ldr	r7, [sp], #4
 345              	.LCFI5:
 346              		.cfi_restore 7
 347              		.cfi_def_cfa_offset 0
 348 01ba 7047     		bx	lr
 349              		.cfi_endproc
 350              	.LFE145:
ARM GAS  /tmp/ccLeX0i3.s 			page 9


 352              		.section	.text.arm_bitreversal_q31,"ax",%progbits
 353              		.align	1
 354              		.global	arm_bitreversal_q31
 355              		.syntax unified
 356              		.thumb
 357              		.thumb_func
 358              		.fpu fpv5-d16
 360              	arm_bitreversal_q31:
 361              	.LFB146:
 101:./Libraries/CMSIS/DSP/Source/TransformFunctions/arm_bitreversal.c **** 
 102:./Libraries/CMSIS/DSP/Source/TransformFunctions/arm_bitreversal.c **** 
 103:./Libraries/CMSIS/DSP/Source/TransformFunctions/arm_bitreversal.c **** /**
 104:./Libraries/CMSIS/DSP/Source/TransformFunctions/arm_bitreversal.c ****   @brief         In-place Q31 bit reversal function.
 105:./Libraries/CMSIS/DSP/Source/TransformFunctions/arm_bitreversal.c ****   @param[in,out] pSrc         points to in-place Q31 data buffer.
 106:./Libraries/CMSIS/DSP/Source/TransformFunctions/arm_bitreversal.c ****   @param[in]     fftLen       length of FFT.
 107:./Libraries/CMSIS/DSP/Source/TransformFunctions/arm_bitreversal.c ****   @param[in]     bitRevFactor bit reversal modifier that supports different size FFTs with the same
 108:./Libraries/CMSIS/DSP/Source/TransformFunctions/arm_bitreversal.c ****   @param[in]     pBitRevTab   points to bit reversal table
 109:./Libraries/CMSIS/DSP/Source/TransformFunctions/arm_bitreversal.c ****   @return        none
 110:./Libraries/CMSIS/DSP/Source/TransformFunctions/arm_bitreversal.c **** */
 111:./Libraries/CMSIS/DSP/Source/TransformFunctions/arm_bitreversal.c **** 
 112:./Libraries/CMSIS/DSP/Source/TransformFunctions/arm_bitreversal.c **** void arm_bitreversal_q31(
 113:./Libraries/CMSIS/DSP/Source/TransformFunctions/arm_bitreversal.c ****         q31_t * pSrc,
 114:./Libraries/CMSIS/DSP/Source/TransformFunctions/arm_bitreversal.c ****         uint32_t fftLen,
 115:./Libraries/CMSIS/DSP/Source/TransformFunctions/arm_bitreversal.c ****         uint16_t bitRevFactor,
 116:./Libraries/CMSIS/DSP/Source/TransformFunctions/arm_bitreversal.c ****   const uint16_t * pBitRevTab)
 117:./Libraries/CMSIS/DSP/Source/TransformFunctions/arm_bitreversal.c **** {
 362              		.loc 1 117 1
 363              		.cfi_startproc
 364              		@ args = 0, pretend = 0, frame = 40
 365              		@ frame_needed = 1, uses_anonymous_args = 0
 366              		@ link register save eliminated.
 367 0000 80B4     		push	{r7}
 368              	.LCFI6:
 369              		.cfi_def_cfa_offset 4
 370              		.cfi_offset 7, -4
 371 0002 8BB0     		sub	sp, sp, #44
 372              	.LCFI7:
 373              		.cfi_def_cfa_offset 48
 374 0004 00AF     		add	r7, sp, #0
 375              	.LCFI8:
 376              		.cfi_def_cfa_register 7
 377 0006 F860     		str	r0, [r7, #12]
 378 0008 B960     		str	r1, [r7, #8]
 379 000a 3B60     		str	r3, [r7]
 380 000c 1346     		mov	r3, r2	@ movhi
 381 000e FB80     		strh	r3, [r7, #6]	@ movhi
 118:./Libraries/CMSIS/DSP/Source/TransformFunctions/arm_bitreversal.c ****    uint32_t fftLenBy2, fftLenBy2p1, i, j;
 119:./Libraries/CMSIS/DSP/Source/TransformFunctions/arm_bitreversal.c ****    q31_t in;
 120:./Libraries/CMSIS/DSP/Source/TransformFunctions/arm_bitreversal.c **** 
 121:./Libraries/CMSIS/DSP/Source/TransformFunctions/arm_bitreversal.c ****    /*  Initializations      */
 122:./Libraries/CMSIS/DSP/Source/TransformFunctions/arm_bitreversal.c ****    j = 0U;
 382              		.loc 1 122 6
 383 0010 0023     		movs	r3, #0
 384 0012 3B62     		str	r3, [r7, #32]
 123:./Libraries/CMSIS/DSP/Source/TransformFunctions/arm_bitreversal.c ****    fftLenBy2 = fftLen / 2U;
 385              		.loc 1 123 14
 386 0014 BB68     		ldr	r3, [r7, #8]
ARM GAS  /tmp/ccLeX0i3.s 			page 10


 387 0016 5B08     		lsrs	r3, r3, #1
 388 0018 FB61     		str	r3, [r7, #28]
 124:./Libraries/CMSIS/DSP/Source/TransformFunctions/arm_bitreversal.c ****    fftLenBy2p1 = (fftLen / 2U) + 1U;
 389              		.loc 1 124 26
 390 001a BB68     		ldr	r3, [r7, #8]
 391 001c 5B08     		lsrs	r3, r3, #1
 392              		.loc 1 124 16
 393 001e 0133     		adds	r3, r3, #1
 394 0020 BB61     		str	r3, [r7, #24]
 125:./Libraries/CMSIS/DSP/Source/TransformFunctions/arm_bitreversal.c **** 
 126:./Libraries/CMSIS/DSP/Source/TransformFunctions/arm_bitreversal.c ****    /* Bit Reversal Implementation */
 127:./Libraries/CMSIS/DSP/Source/TransformFunctions/arm_bitreversal.c ****    for (i = 0U; i <= (fftLenBy2 - 2U); i += 2U)
 395              		.loc 1 127 11
 396 0022 0023     		movs	r3, #0
 397 0024 7B62     		str	r3, [r7, #36]
 398              		.loc 1 127 4
 399 0026 BAE0     		b	.L6
 400              	.L8:
 128:./Libraries/CMSIS/DSP/Source/TransformFunctions/arm_bitreversal.c ****    {
 129:./Libraries/CMSIS/DSP/Source/TransformFunctions/arm_bitreversal.c ****       if (i < j)
 401              		.loc 1 129 10
 402 0028 7A6A     		ldr	r2, [r7, #36]
 403 002a 3B6A     		ldr	r3, [r7, #32]
 404 002c 9A42     		cmp	r2, r3
 405 002e 6FD2     		bcs	.L7
 130:./Libraries/CMSIS/DSP/Source/TransformFunctions/arm_bitreversal.c ****       {
 131:./Libraries/CMSIS/DSP/Source/TransformFunctions/arm_bitreversal.c ****          /*  pSrc[i] <-> pSrc[j]; */
 132:./Libraries/CMSIS/DSP/Source/TransformFunctions/arm_bitreversal.c ****          in = pSrc[2U * i];
 406              		.loc 1 132 19
 407 0030 7B6A     		ldr	r3, [r7, #36]
 408 0032 DB00     		lsls	r3, r3, #3
 409 0034 FA68     		ldr	r2, [r7, #12]
 410 0036 1344     		add	r3, r3, r2
 411              		.loc 1 132 13
 412 0038 1B68     		ldr	r3, [r3]
 413 003a 7B61     		str	r3, [r7, #20]
 133:./Libraries/CMSIS/DSP/Source/TransformFunctions/arm_bitreversal.c ****          pSrc[2U * i] = pSrc[2U * j];
 414              		.loc 1 133 29
 415 003c 3B6A     		ldr	r3, [r7, #32]
 416 003e DB00     		lsls	r3, r3, #3
 417 0040 FA68     		ldr	r2, [r7, #12]
 418 0042 1A44     		add	r2, r2, r3
 419              		.loc 1 133 14
 420 0044 7B6A     		ldr	r3, [r7, #36]
 421 0046 DB00     		lsls	r3, r3, #3
 422 0048 F968     		ldr	r1, [r7, #12]
 423 004a 0B44     		add	r3, r3, r1
 424              		.loc 1 133 29
 425 004c 1268     		ldr	r2, [r2]
 426              		.loc 1 133 23
 427 004e 1A60     		str	r2, [r3]
 134:./Libraries/CMSIS/DSP/Source/TransformFunctions/arm_bitreversal.c ****          pSrc[2U * j] = in;
 428              		.loc 1 134 14
 429 0050 3B6A     		ldr	r3, [r7, #32]
 430 0052 DB00     		lsls	r3, r3, #3
 431 0054 FA68     		ldr	r2, [r7, #12]
 432 0056 1344     		add	r3, r3, r2
ARM GAS  /tmp/ccLeX0i3.s 			page 11


 433              		.loc 1 134 23
 434 0058 7A69     		ldr	r2, [r7, #20]
 435 005a 1A60     		str	r2, [r3]
 135:./Libraries/CMSIS/DSP/Source/TransformFunctions/arm_bitreversal.c **** 
 136:./Libraries/CMSIS/DSP/Source/TransformFunctions/arm_bitreversal.c ****          /*  pSrc[i+1U] <-> pSrc[j+1U] */
 137:./Libraries/CMSIS/DSP/Source/TransformFunctions/arm_bitreversal.c ****          in = pSrc[(2U * i) + 1U];
 436              		.loc 1 137 19
 437 005c 7B6A     		ldr	r3, [r7, #36]
 438 005e DB00     		lsls	r3, r3, #3
 439 0060 0433     		adds	r3, r3, #4
 440 0062 FA68     		ldr	r2, [r7, #12]
 441 0064 1344     		add	r3, r3, r2
 442              		.loc 1 137 13
 443 0066 1B68     		ldr	r3, [r3]
 444 0068 7B61     		str	r3, [r7, #20]
 138:./Libraries/CMSIS/DSP/Source/TransformFunctions/arm_bitreversal.c ****          pSrc[(2U * i) + 1U] = pSrc[(2U * j) + 1U];
 445              		.loc 1 138 36
 446 006a 3B6A     		ldr	r3, [r7, #32]
 447 006c DB00     		lsls	r3, r3, #3
 448 006e 0433     		adds	r3, r3, #4
 449 0070 FA68     		ldr	r2, [r7, #12]
 450 0072 1A44     		add	r2, r2, r3
 451              		.loc 1 138 14
 452 0074 7B6A     		ldr	r3, [r7, #36]
 453 0076 DB00     		lsls	r3, r3, #3
 454 0078 0433     		adds	r3, r3, #4
 455 007a F968     		ldr	r1, [r7, #12]
 456 007c 0B44     		add	r3, r3, r1
 457              		.loc 1 138 36
 458 007e 1268     		ldr	r2, [r2]
 459              		.loc 1 138 30
 460 0080 1A60     		str	r2, [r3]
 139:./Libraries/CMSIS/DSP/Source/TransformFunctions/arm_bitreversal.c ****          pSrc[(2U * j) + 1U] = in;
 461              		.loc 1 139 14
 462 0082 3B6A     		ldr	r3, [r7, #32]
 463 0084 DB00     		lsls	r3, r3, #3
 464 0086 0433     		adds	r3, r3, #4
 465 0088 FA68     		ldr	r2, [r7, #12]
 466 008a 1344     		add	r3, r3, r2
 467              		.loc 1 139 30
 468 008c 7A69     		ldr	r2, [r7, #20]
 469 008e 1A60     		str	r2, [r3]
 140:./Libraries/CMSIS/DSP/Source/TransformFunctions/arm_bitreversal.c **** 
 141:./Libraries/CMSIS/DSP/Source/TransformFunctions/arm_bitreversal.c ****          /*  pSrc[i+fftLenBy2p1] <-> pSrc[j+fftLenBy2p1] */
 142:./Libraries/CMSIS/DSP/Source/TransformFunctions/arm_bitreversal.c ****          in = pSrc[2U * (i + fftLenBy2p1)];
 470              		.loc 1 142 28
 471 0090 7A6A     		ldr	r2, [r7, #36]
 472 0092 BB69     		ldr	r3, [r7, #24]
 473 0094 1344     		add	r3, r3, r2
 474              		.loc 1 142 19
 475 0096 DB00     		lsls	r3, r3, #3
 476 0098 FA68     		ldr	r2, [r7, #12]
 477 009a 1344     		add	r3, r3, r2
 478              		.loc 1 142 13
 479 009c 1B68     		ldr	r3, [r3]
 480 009e 7B61     		str	r3, [r7, #20]
 143:./Libraries/CMSIS/DSP/Source/TransformFunctions/arm_bitreversal.c ****          pSrc[2U * (i + fftLenBy2p1)] = pSrc[2U * (j + fftLenBy2p1)];
ARM GAS  /tmp/ccLeX0i3.s 			page 12


 481              		.loc 1 143 54
 482 00a0 3A6A     		ldr	r2, [r7, #32]
 483 00a2 BB69     		ldr	r3, [r7, #24]
 484 00a4 1344     		add	r3, r3, r2
 485              		.loc 1 143 45
 486 00a6 DB00     		lsls	r3, r3, #3
 487 00a8 FA68     		ldr	r2, [r7, #12]
 488 00aa 1A44     		add	r2, r2, r3
 489              		.loc 1 143 23
 490 00ac 796A     		ldr	r1, [r7, #36]
 491 00ae BB69     		ldr	r3, [r7, #24]
 492 00b0 0B44     		add	r3, r3, r1
 493              		.loc 1 143 14
 494 00b2 DB00     		lsls	r3, r3, #3
 495 00b4 F968     		ldr	r1, [r7, #12]
 496 00b6 0B44     		add	r3, r3, r1
 497              		.loc 1 143 45
 498 00b8 1268     		ldr	r2, [r2]
 499              		.loc 1 143 39
 500 00ba 1A60     		str	r2, [r3]
 144:./Libraries/CMSIS/DSP/Source/TransformFunctions/arm_bitreversal.c ****          pSrc[2U * (j + fftLenBy2p1)] = in;
 501              		.loc 1 144 23
 502 00bc 3A6A     		ldr	r2, [r7, #32]
 503 00be BB69     		ldr	r3, [r7, #24]
 504 00c0 1344     		add	r3, r3, r2
 505              		.loc 1 144 14
 506 00c2 DB00     		lsls	r3, r3, #3
 507 00c4 FA68     		ldr	r2, [r7, #12]
 508 00c6 1344     		add	r3, r3, r2
 509              		.loc 1 144 39
 510 00c8 7A69     		ldr	r2, [r7, #20]
 511 00ca 1A60     		str	r2, [r3]
 145:./Libraries/CMSIS/DSP/Source/TransformFunctions/arm_bitreversal.c **** 
 146:./Libraries/CMSIS/DSP/Source/TransformFunctions/arm_bitreversal.c ****          /*  pSrc[i+fftLenBy2p1+1U] <-> pSrc[j+fftLenBy2p1+1U] */
 147:./Libraries/CMSIS/DSP/Source/TransformFunctions/arm_bitreversal.c ****          in = pSrc[(2U * (i + fftLenBy2p1)) + 1U];
 512              		.loc 1 147 29
 513 00cc 7A6A     		ldr	r2, [r7, #36]
 514 00ce BB69     		ldr	r3, [r7, #24]
 515 00d0 1344     		add	r3, r3, r2
 516              		.loc 1 147 19
 517 00d2 DB00     		lsls	r3, r3, #3
 518 00d4 0433     		adds	r3, r3, #4
 519 00d6 FA68     		ldr	r2, [r7, #12]
 520 00d8 1344     		add	r3, r3, r2
 521              		.loc 1 147 13
 522 00da 1B68     		ldr	r3, [r3]
 523 00dc 7B61     		str	r3, [r7, #20]
 148:./Libraries/CMSIS/DSP/Source/TransformFunctions/arm_bitreversal.c ****          pSrc[(2U * (i + fftLenBy2p1)) + 1U] =
 149:./Libraries/CMSIS/DSP/Source/TransformFunctions/arm_bitreversal.c ****          pSrc[(2U * (j + fftLenBy2p1)) + 1U];
 524              		.loc 1 149 24
 525 00de 3A6A     		ldr	r2, [r7, #32]
 526 00e0 BB69     		ldr	r3, [r7, #24]
 527 00e2 1344     		add	r3, r3, r2
 528              		.loc 1 149 14
 529 00e4 DB00     		lsls	r3, r3, #3
 530 00e6 0433     		adds	r3, r3, #4
 531 00e8 FA68     		ldr	r2, [r7, #12]
ARM GAS  /tmp/ccLeX0i3.s 			page 13


 532 00ea 1A44     		add	r2, r2, r3
 148:./Libraries/CMSIS/DSP/Source/TransformFunctions/arm_bitreversal.c ****          pSrc[(2U * (i + fftLenBy2p1)) + 1U] =
 533              		.loc 1 148 24
 534 00ec 796A     		ldr	r1, [r7, #36]
 535 00ee BB69     		ldr	r3, [r7, #24]
 536 00f0 0B44     		add	r3, r3, r1
 148:./Libraries/CMSIS/DSP/Source/TransformFunctions/arm_bitreversal.c ****          pSrc[(2U * (i + fftLenBy2p1)) + 1U] =
 537              		.loc 1 148 14
 538 00f2 DB00     		lsls	r3, r3, #3
 539 00f4 0433     		adds	r3, r3, #4
 540 00f6 F968     		ldr	r1, [r7, #12]
 541 00f8 0B44     		add	r3, r3, r1
 542              		.loc 1 149 14
 543 00fa 1268     		ldr	r2, [r2]
 148:./Libraries/CMSIS/DSP/Source/TransformFunctions/arm_bitreversal.c ****          pSrc[(2U * (i + fftLenBy2p1)) + 1U] =
 544              		.loc 1 148 46
 545 00fc 1A60     		str	r2, [r3]
 150:./Libraries/CMSIS/DSP/Source/TransformFunctions/arm_bitreversal.c ****          pSrc[(2U * (j + fftLenBy2p1)) + 1U] = in;
 546              		.loc 1 150 24
 547 00fe 3A6A     		ldr	r2, [r7, #32]
 548 0100 BB69     		ldr	r3, [r7, #24]
 549 0102 1344     		add	r3, r3, r2
 550              		.loc 1 150 14
 551 0104 DB00     		lsls	r3, r3, #3
 552 0106 0433     		adds	r3, r3, #4
 553 0108 FA68     		ldr	r2, [r7, #12]
 554 010a 1344     		add	r3, r3, r2
 555              		.loc 1 150 46
 556 010c 7A69     		ldr	r2, [r7, #20]
 557 010e 1A60     		str	r2, [r3]
 558              	.L7:
 151:./Libraries/CMSIS/DSP/Source/TransformFunctions/arm_bitreversal.c **** 
 152:./Libraries/CMSIS/DSP/Source/TransformFunctions/arm_bitreversal.c ****       }
 153:./Libraries/CMSIS/DSP/Source/TransformFunctions/arm_bitreversal.c **** 
 154:./Libraries/CMSIS/DSP/Source/TransformFunctions/arm_bitreversal.c ****       /*  pSrc[i+1U] <-> pSrc[j+1U] */
 155:./Libraries/CMSIS/DSP/Source/TransformFunctions/arm_bitreversal.c ****       in = pSrc[2U * (i + 1U)];
 559              		.loc 1 155 25 discriminator 2
 560 0110 7B6A     		ldr	r3, [r7, #36]
 561 0112 0133     		adds	r3, r3, #1
 562              		.loc 1 155 16 discriminator 2
 563 0114 DB00     		lsls	r3, r3, #3
 564 0116 FA68     		ldr	r2, [r7, #12]
 565 0118 1344     		add	r3, r3, r2
 566              		.loc 1 155 10 discriminator 2
 567 011a 1B68     		ldr	r3, [r3]
 568 011c 7B61     		str	r3, [r7, #20]
 156:./Libraries/CMSIS/DSP/Source/TransformFunctions/arm_bitreversal.c ****       pSrc[2U * (i + 1U)] = pSrc[2U * (j + fftLenBy2)];
 569              		.loc 1 156 42 discriminator 2
 570 011e 3A6A     		ldr	r2, [r7, #32]
 571 0120 FB69     		ldr	r3, [r7, #28]
 572 0122 1344     		add	r3, r3, r2
 573              		.loc 1 156 33 discriminator 2
 574 0124 DB00     		lsls	r3, r3, #3
 575 0126 FA68     		ldr	r2, [r7, #12]
 576 0128 1A44     		add	r2, r2, r3
 577              		.loc 1 156 20 discriminator 2
 578 012a 7B6A     		ldr	r3, [r7, #36]
ARM GAS  /tmp/ccLeX0i3.s 			page 14


 579 012c 0133     		adds	r3, r3, #1
 580              		.loc 1 156 11 discriminator 2
 581 012e DB00     		lsls	r3, r3, #3
 582 0130 F968     		ldr	r1, [r7, #12]
 583 0132 0B44     		add	r3, r3, r1
 584              		.loc 1 156 33 discriminator 2
 585 0134 1268     		ldr	r2, [r2]
 586              		.loc 1 156 27 discriminator 2
 587 0136 1A60     		str	r2, [r3]
 157:./Libraries/CMSIS/DSP/Source/TransformFunctions/arm_bitreversal.c ****       pSrc[2U * (j + fftLenBy2)] = in;
 588              		.loc 1 157 20 discriminator 2
 589 0138 3A6A     		ldr	r2, [r7, #32]
 590 013a FB69     		ldr	r3, [r7, #28]
 591 013c 1344     		add	r3, r3, r2
 592              		.loc 1 157 11 discriminator 2
 593 013e DB00     		lsls	r3, r3, #3
 594 0140 FA68     		ldr	r2, [r7, #12]
 595 0142 1344     		add	r3, r3, r2
 596              		.loc 1 157 34 discriminator 2
 597 0144 7A69     		ldr	r2, [r7, #20]
 598 0146 1A60     		str	r2, [r3]
 158:./Libraries/CMSIS/DSP/Source/TransformFunctions/arm_bitreversal.c **** 
 159:./Libraries/CMSIS/DSP/Source/TransformFunctions/arm_bitreversal.c ****       /*  pSrc[i+2U] <-> pSrc[j+2U] */
 160:./Libraries/CMSIS/DSP/Source/TransformFunctions/arm_bitreversal.c ****       in = pSrc[(2U * (i + 1U)) + 1U];
 599              		.loc 1 160 26 discriminator 2
 600 0148 7B6A     		ldr	r3, [r7, #36]
 601 014a 0133     		adds	r3, r3, #1
 602              		.loc 1 160 16 discriminator 2
 603 014c DB00     		lsls	r3, r3, #3
 604 014e 0433     		adds	r3, r3, #4
 605 0150 FA68     		ldr	r2, [r7, #12]
 606 0152 1344     		add	r3, r3, r2
 607              		.loc 1 160 10 discriminator 2
 608 0154 1B68     		ldr	r3, [r3]
 609 0156 7B61     		str	r3, [r7, #20]
 161:./Libraries/CMSIS/DSP/Source/TransformFunctions/arm_bitreversal.c ****       pSrc[(2U * (i + 1U)) + 1U] = pSrc[(2U * (j + fftLenBy2)) + 1U];
 610              		.loc 1 161 50 discriminator 2
 611 0158 3A6A     		ldr	r2, [r7, #32]
 612 015a FB69     		ldr	r3, [r7, #28]
 613 015c 1344     		add	r3, r3, r2
 614              		.loc 1 161 40 discriminator 2
 615 015e DB00     		lsls	r3, r3, #3
 616 0160 0433     		adds	r3, r3, #4
 617 0162 FA68     		ldr	r2, [r7, #12]
 618 0164 1A44     		add	r2, r2, r3
 619              		.loc 1 161 21 discriminator 2
 620 0166 7B6A     		ldr	r3, [r7, #36]
 621 0168 0133     		adds	r3, r3, #1
 622              		.loc 1 161 11 discriminator 2
 623 016a DB00     		lsls	r3, r3, #3
 624 016c 0433     		adds	r3, r3, #4
 625 016e F968     		ldr	r1, [r7, #12]
 626 0170 0B44     		add	r3, r3, r1
 627              		.loc 1 161 40 discriminator 2
 628 0172 1268     		ldr	r2, [r2]
 629              		.loc 1 161 34 discriminator 2
 630 0174 1A60     		str	r2, [r3]
ARM GAS  /tmp/ccLeX0i3.s 			page 15


 162:./Libraries/CMSIS/DSP/Source/TransformFunctions/arm_bitreversal.c ****       pSrc[(2U * (j + fftLenBy2)) + 1U] = in;
 631              		.loc 1 162 21 discriminator 2
 632 0176 3A6A     		ldr	r2, [r7, #32]
 633 0178 FB69     		ldr	r3, [r7, #28]
 634 017a 1344     		add	r3, r3, r2
 635              		.loc 1 162 11 discriminator 2
 636 017c DB00     		lsls	r3, r3, #3
 637 017e 0433     		adds	r3, r3, #4
 638 0180 FA68     		ldr	r2, [r7, #12]
 639 0182 1344     		add	r3, r3, r2
 640              		.loc 1 162 41 discriminator 2
 641 0184 7A69     		ldr	r2, [r7, #20]
 642 0186 1A60     		str	r2, [r3]
 163:./Libraries/CMSIS/DSP/Source/TransformFunctions/arm_bitreversal.c **** 
 164:./Libraries/CMSIS/DSP/Source/TransformFunctions/arm_bitreversal.c ****       /*  Reading the index for the bit reversal */
 165:./Libraries/CMSIS/DSP/Source/TransformFunctions/arm_bitreversal.c ****       j = *pBitRevTab;
 643              		.loc 1 165 11 discriminator 2
 644 0188 3B68     		ldr	r3, [r7]
 645 018a 1B88     		ldrh	r3, [r3]
 646              		.loc 1 165 9 discriminator 2
 647 018c 3B62     		str	r3, [r7, #32]
 166:./Libraries/CMSIS/DSP/Source/TransformFunctions/arm_bitreversal.c **** 
 167:./Libraries/CMSIS/DSP/Source/TransformFunctions/arm_bitreversal.c ****       /*  Updating the bit reversal index depending on the fft length */
 168:./Libraries/CMSIS/DSP/Source/TransformFunctions/arm_bitreversal.c ****       pBitRevTab += bitRevFactor;
 648              		.loc 1 168 18 discriminator 2
 649 018e FB88     		ldrh	r3, [r7, #6]
 650 0190 5B00     		lsls	r3, r3, #1
 651 0192 3A68     		ldr	r2, [r7]
 652 0194 1344     		add	r3, r3, r2
 653 0196 3B60     		str	r3, [r7]
 127:./Libraries/CMSIS/DSP/Source/TransformFunctions/arm_bitreversal.c ****    {
 654              		.loc 1 127 42 discriminator 2
 655 0198 7B6A     		ldr	r3, [r7, #36]
 656 019a 0233     		adds	r3, r3, #2
 657 019c 7B62     		str	r3, [r7, #36]
 658              	.L6:
 127:./Libraries/CMSIS/DSP/Source/TransformFunctions/arm_bitreversal.c ****    {
 659              		.loc 1 127 33 discriminator 1
 660 019e FB69     		ldr	r3, [r7, #28]
 661 01a0 023B     		subs	r3, r3, #2
 127:./Libraries/CMSIS/DSP/Source/TransformFunctions/arm_bitreversal.c ****    {
 662              		.loc 1 127 4 discriminator 1
 663 01a2 7A6A     		ldr	r2, [r7, #36]
 664 01a4 9A42     		cmp	r2, r3
 665 01a6 7FF63FAF 		bls	.L8
 169:./Libraries/CMSIS/DSP/Source/TransformFunctions/arm_bitreversal.c ****    }
 170:./Libraries/CMSIS/DSP/Source/TransformFunctions/arm_bitreversal.c **** }
 666              		.loc 1 170 1
 667 01aa 00BF     		nop
 668 01ac 00BF     		nop
 669 01ae 2C37     		adds	r7, r7, #44
 670              	.LCFI9:
 671              		.cfi_def_cfa_offset 4
 672 01b0 BD46     		mov	sp, r7
 673              	.LCFI10:
 674              		.cfi_def_cfa_register 13
 675              		@ sp needed
ARM GAS  /tmp/ccLeX0i3.s 			page 16


 676 01b2 5DF8047B 		ldr	r7, [sp], #4
 677              	.LCFI11:
 678              		.cfi_restore 7
 679              		.cfi_def_cfa_offset 0
 680 01b6 7047     		bx	lr
 681              		.cfi_endproc
 682              	.LFE146:
 684              		.section	.text.arm_bitreversal_q15,"ax",%progbits
 685              		.align	1
 686              		.global	arm_bitreversal_q15
 687              		.syntax unified
 688              		.thumb
 689              		.thumb_func
 690              		.fpu fpv5-d16
 692              	arm_bitreversal_q15:
 693              	.LFB147:
 171:./Libraries/CMSIS/DSP/Source/TransformFunctions/arm_bitreversal.c **** 
 172:./Libraries/CMSIS/DSP/Source/TransformFunctions/arm_bitreversal.c **** 
 173:./Libraries/CMSIS/DSP/Source/TransformFunctions/arm_bitreversal.c **** 
 174:./Libraries/CMSIS/DSP/Source/TransformFunctions/arm_bitreversal.c **** /**
 175:./Libraries/CMSIS/DSP/Source/TransformFunctions/arm_bitreversal.c ****   @brief         In-place Q15 bit reversal function.
 176:./Libraries/CMSIS/DSP/Source/TransformFunctions/arm_bitreversal.c ****   @param[in,out] pSrc16       points to in-place Q15 data buffer
 177:./Libraries/CMSIS/DSP/Source/TransformFunctions/arm_bitreversal.c ****   @param[in]     fftLen       length of FFT
 178:./Libraries/CMSIS/DSP/Source/TransformFunctions/arm_bitreversal.c ****   @param[in]     bitRevFactor bit reversal modifier that supports different size FFTs with the same
 179:./Libraries/CMSIS/DSP/Source/TransformFunctions/arm_bitreversal.c ****   @param[in]     pBitRevTab   points to bit reversal table
 180:./Libraries/CMSIS/DSP/Source/TransformFunctions/arm_bitreversal.c ****   @return        none
 181:./Libraries/CMSIS/DSP/Source/TransformFunctions/arm_bitreversal.c **** */
 182:./Libraries/CMSIS/DSP/Source/TransformFunctions/arm_bitreversal.c **** 
 183:./Libraries/CMSIS/DSP/Source/TransformFunctions/arm_bitreversal.c **** void arm_bitreversal_q15(
 184:./Libraries/CMSIS/DSP/Source/TransformFunctions/arm_bitreversal.c ****         q15_t * pSrc16,
 185:./Libraries/CMSIS/DSP/Source/TransformFunctions/arm_bitreversal.c ****         uint32_t fftLen,
 186:./Libraries/CMSIS/DSP/Source/TransformFunctions/arm_bitreversal.c ****         uint16_t bitRevFactor,
 187:./Libraries/CMSIS/DSP/Source/TransformFunctions/arm_bitreversal.c ****   const uint16_t * pBitRevTab)
 188:./Libraries/CMSIS/DSP/Source/TransformFunctions/arm_bitreversal.c **** {
 694              		.loc 1 188 1
 695              		.cfi_startproc
 696              		@ args = 0, pretend = 0, frame = 40
 697              		@ frame_needed = 1, uses_anonymous_args = 0
 698              		@ link register save eliminated.
 699 0000 80B4     		push	{r7}
 700              	.LCFI12:
 701              		.cfi_def_cfa_offset 4
 702              		.cfi_offset 7, -4
 703 0002 8BB0     		sub	sp, sp, #44
 704              	.LCFI13:
 705              		.cfi_def_cfa_offset 48
 706 0004 00AF     		add	r7, sp, #0
 707              	.LCFI14:
 708              		.cfi_def_cfa_register 7
 709 0006 F860     		str	r0, [r7, #12]
 710 0008 B960     		str	r1, [r7, #8]
 711 000a 3B60     		str	r3, [r7]
 712 000c 1346     		mov	r3, r2	@ movhi
 713 000e FB80     		strh	r3, [r7, #6]	@ movhi
 189:./Libraries/CMSIS/DSP/Source/TransformFunctions/arm_bitreversal.c ****    q31_t *pSrc = (q31_t *) pSrc16;
 714              		.loc 1 189 11
 715 0010 FB68     		ldr	r3, [r7, #12]
ARM GAS  /tmp/ccLeX0i3.s 			page 17


 716 0012 FB61     		str	r3, [r7, #28]
 190:./Libraries/CMSIS/DSP/Source/TransformFunctions/arm_bitreversal.c ****    q31_t in;
 191:./Libraries/CMSIS/DSP/Source/TransformFunctions/arm_bitreversal.c ****    uint32_t fftLenBy2, fftLenBy2p1;
 192:./Libraries/CMSIS/DSP/Source/TransformFunctions/arm_bitreversal.c ****    uint32_t i, j;
 193:./Libraries/CMSIS/DSP/Source/TransformFunctions/arm_bitreversal.c **** 
 194:./Libraries/CMSIS/DSP/Source/TransformFunctions/arm_bitreversal.c ****    /*  Initializations */
 195:./Libraries/CMSIS/DSP/Source/TransformFunctions/arm_bitreversal.c ****    j = 0U;
 717              		.loc 1 195 6
 718 0014 0023     		movs	r3, #0
 719 0016 3B62     		str	r3, [r7, #32]
 196:./Libraries/CMSIS/DSP/Source/TransformFunctions/arm_bitreversal.c ****    fftLenBy2 = fftLen / 2U;
 720              		.loc 1 196 14
 721 0018 BB68     		ldr	r3, [r7, #8]
 722 001a 5B08     		lsrs	r3, r3, #1
 723 001c BB61     		str	r3, [r7, #24]
 197:./Libraries/CMSIS/DSP/Source/TransformFunctions/arm_bitreversal.c ****    fftLenBy2p1 = (fftLen / 2U) + 1U;
 724              		.loc 1 197 26
 725 001e BB68     		ldr	r3, [r7, #8]
 726 0020 5B08     		lsrs	r3, r3, #1
 727              		.loc 1 197 16
 728 0022 0133     		adds	r3, r3, #1
 729 0024 7B61     		str	r3, [r7, #20]
 198:./Libraries/CMSIS/DSP/Source/TransformFunctions/arm_bitreversal.c **** 
 199:./Libraries/CMSIS/DSP/Source/TransformFunctions/arm_bitreversal.c ****    /* Bit Reversal Implementation */
 200:./Libraries/CMSIS/DSP/Source/TransformFunctions/arm_bitreversal.c ****    for (i = 0U; i <= (fftLenBy2 - 2U); i += 2U)
 730              		.loc 1 200 11
 731 0026 0023     		movs	r3, #0
 732 0028 7B62     		str	r3, [r7, #36]
 733              		.loc 1 200 4
 734 002a 5EE0     		b	.L10
 735              	.L12:
 201:./Libraries/CMSIS/DSP/Source/TransformFunctions/arm_bitreversal.c ****    {
 202:./Libraries/CMSIS/DSP/Source/TransformFunctions/arm_bitreversal.c ****       if (i < j)
 736              		.loc 1 202 10
 737 002c 7A6A     		ldr	r2, [r7, #36]
 738 002e 3B6A     		ldr	r3, [r7, #32]
 739 0030 9A42     		cmp	r2, r3
 740 0032 33D2     		bcs	.L11
 203:./Libraries/CMSIS/DSP/Source/TransformFunctions/arm_bitreversal.c ****       {
 204:./Libraries/CMSIS/DSP/Source/TransformFunctions/arm_bitreversal.c ****          /*  pSrc[i] <-> pSrc[j]; */
 205:./Libraries/CMSIS/DSP/Source/TransformFunctions/arm_bitreversal.c ****          /*  pSrc[i+1U] <-> pSrc[j+1U] */
 206:./Libraries/CMSIS/DSP/Source/TransformFunctions/arm_bitreversal.c ****          in = pSrc[i];
 741              		.loc 1 206 19
 742 0034 7B6A     		ldr	r3, [r7, #36]
 743 0036 9B00     		lsls	r3, r3, #2
 744 0038 FA69     		ldr	r2, [r7, #28]
 745 003a 1344     		add	r3, r3, r2
 746              		.loc 1 206 13
 747 003c 1B68     		ldr	r3, [r3]
 748 003e 3B61     		str	r3, [r7, #16]
 207:./Libraries/CMSIS/DSP/Source/TransformFunctions/arm_bitreversal.c ****          pSrc[i] = pSrc[j];
 749              		.loc 1 207 24
 750 0040 3B6A     		ldr	r3, [r7, #32]
 751 0042 9B00     		lsls	r3, r3, #2
 752 0044 FA69     		ldr	r2, [r7, #28]
 753 0046 1A44     		add	r2, r2, r3
 754              		.loc 1 207 14
ARM GAS  /tmp/ccLeX0i3.s 			page 18


 755 0048 7B6A     		ldr	r3, [r7, #36]
 756 004a 9B00     		lsls	r3, r3, #2
 757 004c F969     		ldr	r1, [r7, #28]
 758 004e 0B44     		add	r3, r3, r1
 759              		.loc 1 207 24
 760 0050 1268     		ldr	r2, [r2]
 761              		.loc 1 207 18
 762 0052 1A60     		str	r2, [r3]
 208:./Libraries/CMSIS/DSP/Source/TransformFunctions/arm_bitreversal.c ****          pSrc[j] = in;
 763              		.loc 1 208 14
 764 0054 3B6A     		ldr	r3, [r7, #32]
 765 0056 9B00     		lsls	r3, r3, #2
 766 0058 FA69     		ldr	r2, [r7, #28]
 767 005a 1344     		add	r3, r3, r2
 768              		.loc 1 208 18
 769 005c 3A69     		ldr	r2, [r7, #16]
 770 005e 1A60     		str	r2, [r3]
 209:./Libraries/CMSIS/DSP/Source/TransformFunctions/arm_bitreversal.c **** 
 210:./Libraries/CMSIS/DSP/Source/TransformFunctions/arm_bitreversal.c ****          /*  pSrc[i + fftLenBy2p1] <-> pSrc[j + fftLenBy2p1];  */
 211:./Libraries/CMSIS/DSP/Source/TransformFunctions/arm_bitreversal.c ****          /*  pSrc[i + fftLenBy2p1+1U] <-> pSrc[j + fftLenBy2p1+1U] */
 212:./Libraries/CMSIS/DSP/Source/TransformFunctions/arm_bitreversal.c ****          in = pSrc[i + fftLenBy2p1];
 771              		.loc 1 212 22
 772 0060 7A6A     		ldr	r2, [r7, #36]
 773 0062 7B69     		ldr	r3, [r7, #20]
 774 0064 1344     		add	r3, r3, r2
 775              		.loc 1 212 19
 776 0066 9B00     		lsls	r3, r3, #2
 777 0068 FA69     		ldr	r2, [r7, #28]
 778 006a 1344     		add	r3, r3, r2
 779              		.loc 1 212 13
 780 006c 1B68     		ldr	r3, [r3]
 781 006e 3B61     		str	r3, [r7, #16]
 213:./Libraries/CMSIS/DSP/Source/TransformFunctions/arm_bitreversal.c ****          pSrc[i + fftLenBy2p1] = pSrc[j + fftLenBy2p1];
 782              		.loc 1 213 41
 783 0070 3A6A     		ldr	r2, [r7, #32]
 784 0072 7B69     		ldr	r3, [r7, #20]
 785 0074 1344     		add	r3, r3, r2
 786              		.loc 1 213 38
 787 0076 9B00     		lsls	r3, r3, #2
 788 0078 FA69     		ldr	r2, [r7, #28]
 789 007a 1A44     		add	r2, r2, r3
 790              		.loc 1 213 17
 791 007c 796A     		ldr	r1, [r7, #36]
 792 007e 7B69     		ldr	r3, [r7, #20]
 793 0080 0B44     		add	r3, r3, r1
 794              		.loc 1 213 14
 795 0082 9B00     		lsls	r3, r3, #2
 796 0084 F969     		ldr	r1, [r7, #28]
 797 0086 0B44     		add	r3, r3, r1
 798              		.loc 1 213 38
 799 0088 1268     		ldr	r2, [r2]
 800              		.loc 1 213 32
 801 008a 1A60     		str	r2, [r3]
 214:./Libraries/CMSIS/DSP/Source/TransformFunctions/arm_bitreversal.c ****          pSrc[j + fftLenBy2p1] = in;
 802              		.loc 1 214 17
 803 008c 3A6A     		ldr	r2, [r7, #32]
 804 008e 7B69     		ldr	r3, [r7, #20]
ARM GAS  /tmp/ccLeX0i3.s 			page 19


 805 0090 1344     		add	r3, r3, r2
 806              		.loc 1 214 14
 807 0092 9B00     		lsls	r3, r3, #2
 808 0094 FA69     		ldr	r2, [r7, #28]
 809 0096 1344     		add	r3, r3, r2
 810              		.loc 1 214 32
 811 0098 3A69     		ldr	r2, [r7, #16]
 812 009a 1A60     		str	r2, [r3]
 813              	.L11:
 215:./Libraries/CMSIS/DSP/Source/TransformFunctions/arm_bitreversal.c ****       }
 216:./Libraries/CMSIS/DSP/Source/TransformFunctions/arm_bitreversal.c **** 
 217:./Libraries/CMSIS/DSP/Source/TransformFunctions/arm_bitreversal.c ****       /*  pSrc[i+1U] <-> pSrc[j+fftLenBy2];         */
 218:./Libraries/CMSIS/DSP/Source/TransformFunctions/arm_bitreversal.c ****       /*  pSrc[i+2] <-> pSrc[j+fftLenBy2+1U]  */
 219:./Libraries/CMSIS/DSP/Source/TransformFunctions/arm_bitreversal.c ****       in = pSrc[i + 1U];
 814              		.loc 1 219 16 discriminator 2
 815 009c 7B6A     		ldr	r3, [r7, #36]
 816 009e 0133     		adds	r3, r3, #1
 817 00a0 9B00     		lsls	r3, r3, #2
 818 00a2 FA69     		ldr	r2, [r7, #28]
 819 00a4 1344     		add	r3, r3, r2
 820              		.loc 1 219 10 discriminator 2
 821 00a6 1B68     		ldr	r3, [r3]
 822 00a8 3B61     		str	r3, [r7, #16]
 220:./Libraries/CMSIS/DSP/Source/TransformFunctions/arm_bitreversal.c ****       pSrc[i + 1U] = pSrc[j + fftLenBy2];
 823              		.loc 1 220 29 discriminator 2
 824 00aa 3A6A     		ldr	r2, [r7, #32]
 825 00ac BB69     		ldr	r3, [r7, #24]
 826 00ae 1344     		add	r3, r3, r2
 827              		.loc 1 220 26 discriminator 2
 828 00b0 9B00     		lsls	r3, r3, #2
 829 00b2 FA69     		ldr	r2, [r7, #28]
 830 00b4 1A44     		add	r2, r2, r3
 831              		.loc 1 220 11 discriminator 2
 832 00b6 7B6A     		ldr	r3, [r7, #36]
 833 00b8 0133     		adds	r3, r3, #1
 834 00ba 9B00     		lsls	r3, r3, #2
 835 00bc F969     		ldr	r1, [r7, #28]
 836 00be 0B44     		add	r3, r3, r1
 837              		.loc 1 220 26 discriminator 2
 838 00c0 1268     		ldr	r2, [r2]
 839              		.loc 1 220 20 discriminator 2
 840 00c2 1A60     		str	r2, [r3]
 221:./Libraries/CMSIS/DSP/Source/TransformFunctions/arm_bitreversal.c ****       pSrc[j + fftLenBy2] = in;
 841              		.loc 1 221 14 discriminator 2
 842 00c4 3A6A     		ldr	r2, [r7, #32]
 843 00c6 BB69     		ldr	r3, [r7, #24]
 844 00c8 1344     		add	r3, r3, r2
 845              		.loc 1 221 11 discriminator 2
 846 00ca 9B00     		lsls	r3, r3, #2
 847 00cc FA69     		ldr	r2, [r7, #28]
 848 00ce 1344     		add	r3, r3, r2
 849              		.loc 1 221 27 discriminator 2
 850 00d0 3A69     		ldr	r2, [r7, #16]
 851 00d2 1A60     		str	r2, [r3]
 222:./Libraries/CMSIS/DSP/Source/TransformFunctions/arm_bitreversal.c **** 
 223:./Libraries/CMSIS/DSP/Source/TransformFunctions/arm_bitreversal.c ****       /*  Reading the index for the bit reversal */
 224:./Libraries/CMSIS/DSP/Source/TransformFunctions/arm_bitreversal.c ****       j = *pBitRevTab;
ARM GAS  /tmp/ccLeX0i3.s 			page 20


 852              		.loc 1 224 11 discriminator 2
 853 00d4 3B68     		ldr	r3, [r7]
 854 00d6 1B88     		ldrh	r3, [r3]
 855              		.loc 1 224 9 discriminator 2
 856 00d8 3B62     		str	r3, [r7, #32]
 225:./Libraries/CMSIS/DSP/Source/TransformFunctions/arm_bitreversal.c **** 
 226:./Libraries/CMSIS/DSP/Source/TransformFunctions/arm_bitreversal.c ****       /*  Updating the bit reversal index depending on the fft length  */
 227:./Libraries/CMSIS/DSP/Source/TransformFunctions/arm_bitreversal.c ****       pBitRevTab += bitRevFactor;
 857              		.loc 1 227 18 discriminator 2
 858 00da FB88     		ldrh	r3, [r7, #6]
 859 00dc 5B00     		lsls	r3, r3, #1
 860 00de 3A68     		ldr	r2, [r7]
 861 00e0 1344     		add	r3, r3, r2
 862 00e2 3B60     		str	r3, [r7]
 200:./Libraries/CMSIS/DSP/Source/TransformFunctions/arm_bitreversal.c ****    {
 863              		.loc 1 200 42 discriminator 2
 864 00e4 7B6A     		ldr	r3, [r7, #36]
 865 00e6 0233     		adds	r3, r3, #2
 866 00e8 7B62     		str	r3, [r7, #36]
 867              	.L10:
 200:./Libraries/CMSIS/DSP/Source/TransformFunctions/arm_bitreversal.c ****    {
 868              		.loc 1 200 33 discriminator 1
 869 00ea BB69     		ldr	r3, [r7, #24]
 870 00ec 023B     		subs	r3, r3, #2
 200:./Libraries/CMSIS/DSP/Source/TransformFunctions/arm_bitreversal.c ****    {
 871              		.loc 1 200 4 discriminator 1
 872 00ee 7A6A     		ldr	r2, [r7, #36]
 873 00f0 9A42     		cmp	r2, r3
 874 00f2 9BD9     		bls	.L12
 228:./Libraries/CMSIS/DSP/Source/TransformFunctions/arm_bitreversal.c ****    }
 229:./Libraries/CMSIS/DSP/Source/TransformFunctions/arm_bitreversal.c **** }
 875              		.loc 1 229 1
 876 00f4 00BF     		nop
 877 00f6 00BF     		nop
 878 00f8 2C37     		adds	r7, r7, #44
 879              	.LCFI15:
 880              		.cfi_def_cfa_offset 4
 881 00fa BD46     		mov	sp, r7
 882              	.LCFI16:
 883              		.cfi_def_cfa_register 13
 884              		@ sp needed
 885 00fc 5DF8047B 		ldr	r7, [sp], #4
 886              	.LCFI17:
 887              		.cfi_restore 7
 888              		.cfi_def_cfa_offset 0
 889 0100 7047     		bx	lr
 890              		.cfi_endproc
 891              	.LFE147:
 893              		.text
 894              	.Letext0:
 895              		.file 2 "/usr/lib/gcc/arm-none-eabi/9.2.1/include/stdint.h"
 896              		.file 3 "/usr/lib/gcc/arm-none-eabi/9.2.1/include/stddef.h"
 897              		.file 4 "/usr/include/newlib/sys/_types.h"
 898              		.file 5 "/usr/include/newlib/sys/reent.h"
 899              		.file 6 "/usr/include/newlib/sys/lock.h"
 900              		.file 7 "/usr/include/newlib/math.h"
 901              		.file 8 "./Libraries/CMSIS/DSP/Include/arm_math.h"
ARM GAS  /tmp/ccLeX0i3.s 			page 21


 902              		.file 9 "./Libraries/CMSIS/DSP/Include/arm_common_tables.h"
ARM GAS  /tmp/ccLeX0i3.s 			page 22


DEFINED SYMBOLS
                            *ABS*:0000000000000000 arm_bitreversal.c
     /tmp/ccLeX0i3.s:17     .text.arm_bitreversal_f32:0000000000000000 $t
     /tmp/ccLeX0i3.s:25     .text.arm_bitreversal_f32:0000000000000000 arm_bitreversal_f32
     /tmp/ccLeX0i3.s:353    .text.arm_bitreversal_q31:0000000000000000 $t
     /tmp/ccLeX0i3.s:360    .text.arm_bitreversal_q31:0000000000000000 arm_bitreversal_q31
     /tmp/ccLeX0i3.s:685    .text.arm_bitreversal_q15:0000000000000000 $t
     /tmp/ccLeX0i3.s:692    .text.arm_bitreversal_q15:0000000000000000 arm_bitreversal_q15

NO UNDEFINED SYMBOLS
