ARM GAS  /tmp/cc9jV1uH.s 			page 1


   1              		.cpu cortex-m7
   2              		.eabi_attribute 28, 1
   3              		.eabi_attribute 20, 1
   4              		.eabi_attribute 21, 1
   5              		.eabi_attribute 23, 3
   6              		.eabi_attribute 24, 1
   7              		.eabi_attribute 25, 1
   8              		.eabi_attribute 26, 1
   9              		.eabi_attribute 30, 6
  10              		.eabi_attribute 34, 1
  11              		.eabi_attribute 18, 4
  12              		.file	"arm_iir_lattice_q15.c"
  13              		.text
  14              	.Ltext0:
  15              		.cfi_sections	.debug_frame
  16              		.section	.text.arm_iir_lattice_q15,"ax",%progbits
  17              		.align	1
  18              		.global	arm_iir_lattice_q15
  19              		.arch armv7e-m
  20              		.syntax unified
  21              		.thumb
  22              		.thumb_func
  23              		.fpu fpv5-d16
  25              	arm_iir_lattice_q15:
  26              	.LFB145:
  27              		.file 1 "./Libraries/CMSIS/DSP/Source/FilteringFunctions/arm_iir_lattice_q15.c"
   1:./Libraries/CMSIS/DSP/Source/FilteringFunctions/arm_iir_lattice_q15.c **** /* ----------------------------------------------------------------------
   2:./Libraries/CMSIS/DSP/Source/FilteringFunctions/arm_iir_lattice_q15.c ****  * Project:      CMSIS DSP Library
   3:./Libraries/CMSIS/DSP/Source/FilteringFunctions/arm_iir_lattice_q15.c ****  * Title:        arm_iir_lattice_q15.c
   4:./Libraries/CMSIS/DSP/Source/FilteringFunctions/arm_iir_lattice_q15.c ****  * Description:  Q15 IIR Lattice filter processing function
   5:./Libraries/CMSIS/DSP/Source/FilteringFunctions/arm_iir_lattice_q15.c ****  *
   6:./Libraries/CMSIS/DSP/Source/FilteringFunctions/arm_iir_lattice_q15.c ****  * $Date:        18. March 2019
   7:./Libraries/CMSIS/DSP/Source/FilteringFunctions/arm_iir_lattice_q15.c ****  * $Revision:    V1.6.0
   8:./Libraries/CMSIS/DSP/Source/FilteringFunctions/arm_iir_lattice_q15.c ****  *
   9:./Libraries/CMSIS/DSP/Source/FilteringFunctions/arm_iir_lattice_q15.c ****  * Target Processor: Cortex-M cores
  10:./Libraries/CMSIS/DSP/Source/FilteringFunctions/arm_iir_lattice_q15.c ****  * -------------------------------------------------------------------- */
  11:./Libraries/CMSIS/DSP/Source/FilteringFunctions/arm_iir_lattice_q15.c **** /*
  12:./Libraries/CMSIS/DSP/Source/FilteringFunctions/arm_iir_lattice_q15.c ****  * Copyright (C) 2010-2019 ARM Limited or its affiliates. All rights reserved.
  13:./Libraries/CMSIS/DSP/Source/FilteringFunctions/arm_iir_lattice_q15.c ****  *
  14:./Libraries/CMSIS/DSP/Source/FilteringFunctions/arm_iir_lattice_q15.c ****  * SPDX-License-Identifier: Apache-2.0
  15:./Libraries/CMSIS/DSP/Source/FilteringFunctions/arm_iir_lattice_q15.c ****  *
  16:./Libraries/CMSIS/DSP/Source/FilteringFunctions/arm_iir_lattice_q15.c ****  * Licensed under the Apache License, Version 2.0 (the License); you may
  17:./Libraries/CMSIS/DSP/Source/FilteringFunctions/arm_iir_lattice_q15.c ****  * not use this file except in compliance with the License.
  18:./Libraries/CMSIS/DSP/Source/FilteringFunctions/arm_iir_lattice_q15.c ****  * You may obtain a copy of the License at
  19:./Libraries/CMSIS/DSP/Source/FilteringFunctions/arm_iir_lattice_q15.c ****  *
  20:./Libraries/CMSIS/DSP/Source/FilteringFunctions/arm_iir_lattice_q15.c ****  * www.apache.org/licenses/LICENSE-2.0
  21:./Libraries/CMSIS/DSP/Source/FilteringFunctions/arm_iir_lattice_q15.c ****  *
  22:./Libraries/CMSIS/DSP/Source/FilteringFunctions/arm_iir_lattice_q15.c ****  * Unless required by applicable law or agreed to in writing, software
  23:./Libraries/CMSIS/DSP/Source/FilteringFunctions/arm_iir_lattice_q15.c ****  * distributed under the License is distributed on an AS IS BASIS, WITHOUT
  24:./Libraries/CMSIS/DSP/Source/FilteringFunctions/arm_iir_lattice_q15.c ****  * WARRANTIES OR CONDITIONS OF ANY KIND, either express or implied.
  25:./Libraries/CMSIS/DSP/Source/FilteringFunctions/arm_iir_lattice_q15.c ****  * See the License for the specific language governing permissions and
  26:./Libraries/CMSIS/DSP/Source/FilteringFunctions/arm_iir_lattice_q15.c ****  * limitations under the License.
  27:./Libraries/CMSIS/DSP/Source/FilteringFunctions/arm_iir_lattice_q15.c ****  */
  28:./Libraries/CMSIS/DSP/Source/FilteringFunctions/arm_iir_lattice_q15.c **** 
  29:./Libraries/CMSIS/DSP/Source/FilteringFunctions/arm_iir_lattice_q15.c **** #include "arm_math.h"
  30:./Libraries/CMSIS/DSP/Source/FilteringFunctions/arm_iir_lattice_q15.c **** 
  31:./Libraries/CMSIS/DSP/Source/FilteringFunctions/arm_iir_lattice_q15.c **** /**
ARM GAS  /tmp/cc9jV1uH.s 			page 2


  32:./Libraries/CMSIS/DSP/Source/FilteringFunctions/arm_iir_lattice_q15.c ****   @ingroup groupFilters
  33:./Libraries/CMSIS/DSP/Source/FilteringFunctions/arm_iir_lattice_q15.c ****  */
  34:./Libraries/CMSIS/DSP/Source/FilteringFunctions/arm_iir_lattice_q15.c **** 
  35:./Libraries/CMSIS/DSP/Source/FilteringFunctions/arm_iir_lattice_q15.c **** /**
  36:./Libraries/CMSIS/DSP/Source/FilteringFunctions/arm_iir_lattice_q15.c ****   @addtogroup IIR_Lattice
  37:./Libraries/CMSIS/DSP/Source/FilteringFunctions/arm_iir_lattice_q15.c ****   @{
  38:./Libraries/CMSIS/DSP/Source/FilteringFunctions/arm_iir_lattice_q15.c ****  */
  39:./Libraries/CMSIS/DSP/Source/FilteringFunctions/arm_iir_lattice_q15.c **** 
  40:./Libraries/CMSIS/DSP/Source/FilteringFunctions/arm_iir_lattice_q15.c **** /**
  41:./Libraries/CMSIS/DSP/Source/FilteringFunctions/arm_iir_lattice_q15.c ****   @brief         Processing function for the Q15 IIR lattice filter.
  42:./Libraries/CMSIS/DSP/Source/FilteringFunctions/arm_iir_lattice_q15.c ****   @param[in]     S          points to an instance of the Q15 IIR lattice structure
  43:./Libraries/CMSIS/DSP/Source/FilteringFunctions/arm_iir_lattice_q15.c ****   @param[in]     pSrc       points to the block of input data
  44:./Libraries/CMSIS/DSP/Source/FilteringFunctions/arm_iir_lattice_q15.c ****   @param[out]    pDst       points to the block of output data
  45:./Libraries/CMSIS/DSP/Source/FilteringFunctions/arm_iir_lattice_q15.c ****   @param[in]     blockSize  number of samples to process
  46:./Libraries/CMSIS/DSP/Source/FilteringFunctions/arm_iir_lattice_q15.c ****   @return        none
  47:./Libraries/CMSIS/DSP/Source/FilteringFunctions/arm_iir_lattice_q15.c **** 
  48:./Libraries/CMSIS/DSP/Source/FilteringFunctions/arm_iir_lattice_q15.c ****   @par           Scaling and Overflow Behavior
  49:./Libraries/CMSIS/DSP/Source/FilteringFunctions/arm_iir_lattice_q15.c ****                    The function is implemented using an internal 64-bit accumulator.
  50:./Libraries/CMSIS/DSP/Source/FilteringFunctions/arm_iir_lattice_q15.c ****                    Both coefficients and state variables are represented in 1.15 format and multipl
  51:./Libraries/CMSIS/DSP/Source/FilteringFunctions/arm_iir_lattice_q15.c ****                    The 2.30 intermediate results are accumulated in a 64-bit accumulator in 34.30 f
  52:./Libraries/CMSIS/DSP/Source/FilteringFunctions/arm_iir_lattice_q15.c ****                    There is no risk of internal overflow with this approach and the full precision 
  53:./Libraries/CMSIS/DSP/Source/FilteringFunctions/arm_iir_lattice_q15.c ****                    After all additions have been performed, the accumulator is truncated to 34.15 f
  54:./Libraries/CMSIS/DSP/Source/FilteringFunctions/arm_iir_lattice_q15.c ****                    Lastly, the accumulator is saturated to yield a result in 1.15 format.
  55:./Libraries/CMSIS/DSP/Source/FilteringFunctions/arm_iir_lattice_q15.c ****  */
  56:./Libraries/CMSIS/DSP/Source/FilteringFunctions/arm_iir_lattice_q15.c **** 
  57:./Libraries/CMSIS/DSP/Source/FilteringFunctions/arm_iir_lattice_q15.c **** void arm_iir_lattice_q15(
  58:./Libraries/CMSIS/DSP/Source/FilteringFunctions/arm_iir_lattice_q15.c ****   const arm_iir_lattice_instance_q15 * S,
  59:./Libraries/CMSIS/DSP/Source/FilteringFunctions/arm_iir_lattice_q15.c ****   const q15_t * pSrc,
  60:./Libraries/CMSIS/DSP/Source/FilteringFunctions/arm_iir_lattice_q15.c ****         q15_t * pDst,
  61:./Libraries/CMSIS/DSP/Source/FilteringFunctions/arm_iir_lattice_q15.c ****         uint32_t blockSize)
  62:./Libraries/CMSIS/DSP/Source/FilteringFunctions/arm_iir_lattice_q15.c **** {
  28              		.loc 1 62 1
  29              		.cfi_startproc
  30              		@ args = 0, pretend = 0, frame = 120
  31              		@ frame_needed = 1, uses_anonymous_args = 0
  32              		@ link register save eliminated.
  33 0000 2DE9B00F 		push	{r4, r5, r7, r8, r9, r10, fp}
  34              	.LCFI0:
  35              		.cfi_def_cfa_offset 28
  36              		.cfi_offset 4, -28
  37              		.cfi_offset 5, -24
  38              		.cfi_offset 7, -20
  39              		.cfi_offset 8, -16
  40              		.cfi_offset 9, -12
  41              		.cfi_offset 10, -8
  42              		.cfi_offset 11, -4
  43 0004 9FB0     		sub	sp, sp, #124
  44              	.LCFI1:
  45              		.cfi_def_cfa_offset 152
  46 0006 00AF     		add	r7, sp, #0
  47              	.LCFI2:
  48              		.cfi_def_cfa_register 7
  49 0008 F860     		str	r0, [r7, #12]
  50 000a B960     		str	r1, [r7, #8]
  51 000c 7A60     		str	r2, [r7, #4]
  52 000e 3B60     		str	r3, [r7]
  63:./Libraries/CMSIS/DSP/Source/FilteringFunctions/arm_iir_lattice_q15.c ****         q15_t *pState = S->pState;                     /* State pointer */
ARM GAS  /tmp/cc9jV1uH.s 			page 3


  53              		.loc 1 63 16
  54 0010 FB68     		ldr	r3, [r7, #12]
  55 0012 5B68     		ldr	r3, [r3, #4]
  56 0014 7B67     		str	r3, [r7, #116]
  64:./Libraries/CMSIS/DSP/Source/FilteringFunctions/arm_iir_lattice_q15.c ****         q15_t *pStateCur;                              /* State current pointer */
  65:./Libraries/CMSIS/DSP/Source/FilteringFunctions/arm_iir_lattice_q15.c ****         q31_t fcurr, fnext = 0, gcurr = 0, gnext;      /* Temporary variables for lattice stages */
  57              		.loc 1 65 22
  58 0016 0023     		movs	r3, #0
  59 0018 BB66     		str	r3, [r7, #104]
  60              		.loc 1 65 33
  61 001a 0023     		movs	r3, #0
  62 001c 7B64     		str	r3, [r7, #68]
  66:./Libraries/CMSIS/DSP/Source/FilteringFunctions/arm_iir_lattice_q15.c ****         q63_t acc;                                     /* Accumlator */
  67:./Libraries/CMSIS/DSP/Source/FilteringFunctions/arm_iir_lattice_q15.c ****         q15_t *px1, *px2, *pk, *pv;                    /* Temporary pointers for state and coef */
  68:./Libraries/CMSIS/DSP/Source/FilteringFunctions/arm_iir_lattice_q15.c ****         uint32_t numStages = S->numStages;             /* Number of stages */
  63              		.loc 1 68 31
  64 001e FB68     		ldr	r3, [r7, #12]
  65 0020 1B88     		ldrh	r3, [r3]
  66              		.loc 1 68 18
  67 0022 3B64     		str	r3, [r7, #64]
  69:./Libraries/CMSIS/DSP/Source/FilteringFunctions/arm_iir_lattice_q15.c ****         uint32_t blkCnt, tapCnt;                       /* Temporary variables for counts */
  70:./Libraries/CMSIS/DSP/Source/FilteringFunctions/arm_iir_lattice_q15.c ****         q15_t out;                                     /* Temporary variable for output */
  71:./Libraries/CMSIS/DSP/Source/FilteringFunctions/arm_iir_lattice_q15.c **** 
  72:./Libraries/CMSIS/DSP/Source/FilteringFunctions/arm_iir_lattice_q15.c **** #if defined (ARM_MATH_DSP) && defined (ARM_MATH_LOOPUNROLL)
  73:./Libraries/CMSIS/DSP/Source/FilteringFunctions/arm_iir_lattice_q15.c ****         q15_t gnext1, gnext2;                          /* Temporary variables for lattice stages */
  74:./Libraries/CMSIS/DSP/Source/FilteringFunctions/arm_iir_lattice_q15.c ****         q31_t v;                                       /* Temporary variable for ladder coefficient
  75:./Libraries/CMSIS/DSP/Source/FilteringFunctions/arm_iir_lattice_q15.c **** #endif
  76:./Libraries/CMSIS/DSP/Source/FilteringFunctions/arm_iir_lattice_q15.c **** 
  77:./Libraries/CMSIS/DSP/Source/FilteringFunctions/arm_iir_lattice_q15.c ****   /* initialise loop count */
  78:./Libraries/CMSIS/DSP/Source/FilteringFunctions/arm_iir_lattice_q15.c ****   blkCnt = blockSize;
  68              		.loc 1 78 10
  69 0024 3B68     		ldr	r3, [r7]
  70 0026 FB64     		str	r3, [r7, #76]
  79:./Libraries/CMSIS/DSP/Source/FilteringFunctions/arm_iir_lattice_q15.c **** 
  80:./Libraries/CMSIS/DSP/Source/FilteringFunctions/arm_iir_lattice_q15.c **** #if defined (ARM_MATH_DSP)
  81:./Libraries/CMSIS/DSP/Source/FilteringFunctions/arm_iir_lattice_q15.c **** 
  82:./Libraries/CMSIS/DSP/Source/FilteringFunctions/arm_iir_lattice_q15.c ****   /* Sample processing */
  83:./Libraries/CMSIS/DSP/Source/FilteringFunctions/arm_iir_lattice_q15.c ****   while (blkCnt > 0U)
  71              		.loc 1 83 9
  72 0028 E9E0     		b	.L2
  73              	.L5:
  84:./Libraries/CMSIS/DSP/Source/FilteringFunctions/arm_iir_lattice_q15.c ****   {
  85:./Libraries/CMSIS/DSP/Source/FilteringFunctions/arm_iir_lattice_q15.c ****     /* Read Sample from input buffer */
  86:./Libraries/CMSIS/DSP/Source/FilteringFunctions/arm_iir_lattice_q15.c ****     /* fN(n) = x(n) */
  87:./Libraries/CMSIS/DSP/Source/FilteringFunctions/arm_iir_lattice_q15.c ****     fcurr = *pSrc++;
  74              		.loc 1 87 18
  75 002a BB68     		ldr	r3, [r7, #8]
  76 002c 9A1C     		adds	r2, r3, #2
  77 002e BA60     		str	r2, [r7, #8]
  78              		.loc 1 87 13
  79 0030 B3F90030 		ldrsh	r3, [r3]
  80              		.loc 1 87 11
  81 0034 FB66     		str	r3, [r7, #108]
  88:./Libraries/CMSIS/DSP/Source/FilteringFunctions/arm_iir_lattice_q15.c **** 
  89:./Libraries/CMSIS/DSP/Source/FilteringFunctions/arm_iir_lattice_q15.c ****     /* Initialize Ladder coeff pointer */
  90:./Libraries/CMSIS/DSP/Source/FilteringFunctions/arm_iir_lattice_q15.c ****     pv = &S->pvCoeffs[0];
  82              		.loc 1 90 8
ARM GAS  /tmp/cc9jV1uH.s 			page 4


  83 0036 FB68     		ldr	r3, [r7, #12]
  84 0038 DB68     		ldr	r3, [r3, #12]
  85 003a 3B65     		str	r3, [r7, #80]
  91:./Libraries/CMSIS/DSP/Source/FilteringFunctions/arm_iir_lattice_q15.c **** 
  92:./Libraries/CMSIS/DSP/Source/FilteringFunctions/arm_iir_lattice_q15.c ****     /* Initialize Reflection coeff pointer */
  93:./Libraries/CMSIS/DSP/Source/FilteringFunctions/arm_iir_lattice_q15.c ****     pk = &S->pkCoeffs[0];
  86              		.loc 1 93 8
  87 003c FB68     		ldr	r3, [r7, #12]
  88 003e 9B68     		ldr	r3, [r3, #8]
  89 0040 7B65     		str	r3, [r7, #84]
  94:./Libraries/CMSIS/DSP/Source/FilteringFunctions/arm_iir_lattice_q15.c **** 
  95:./Libraries/CMSIS/DSP/Source/FilteringFunctions/arm_iir_lattice_q15.c ****     /* Initialize state read pointer */
  96:./Libraries/CMSIS/DSP/Source/FilteringFunctions/arm_iir_lattice_q15.c ****     px1 = pState;
  90              		.loc 1 96 9
  91 0042 7B6F     		ldr	r3, [r7, #116]
  92 0044 FB65     		str	r3, [r7, #92]
  97:./Libraries/CMSIS/DSP/Source/FilteringFunctions/arm_iir_lattice_q15.c **** 
  98:./Libraries/CMSIS/DSP/Source/FilteringFunctions/arm_iir_lattice_q15.c ****     /* Initialize state write pointer */
  99:./Libraries/CMSIS/DSP/Source/FilteringFunctions/arm_iir_lattice_q15.c ****     px2 = pState;
  93              		.loc 1 99 9
  94 0046 7B6F     		ldr	r3, [r7, #116]
  95 0048 BB65     		str	r3, [r7, #88]
 100:./Libraries/CMSIS/DSP/Source/FilteringFunctions/arm_iir_lattice_q15.c **** 
 101:./Libraries/CMSIS/DSP/Source/FilteringFunctions/arm_iir_lattice_q15.c ****     /* Set accumulator to zero */
 102:./Libraries/CMSIS/DSP/Source/FilteringFunctions/arm_iir_lattice_q15.c ****     acc = 0;
  96              		.loc 1 102 9
  97 004a 4FF00002 		mov	r2, #0
  98 004e 4FF00003 		mov	r3, #0
  99 0052 C7E91823 		strd	r2, [r7, #96]
 103:./Libraries/CMSIS/DSP/Source/FilteringFunctions/arm_iir_lattice_q15.c **** 
 104:./Libraries/CMSIS/DSP/Source/FilteringFunctions/arm_iir_lattice_q15.c ****     /* Process sample for first tap */
 105:./Libraries/CMSIS/DSP/Source/FilteringFunctions/arm_iir_lattice_q15.c ****     gcurr = *px1++;
 100              		.loc 1 105 17
 101 0056 FB6D     		ldr	r3, [r7, #92]
 102 0058 9A1C     		adds	r2, r3, #2
 103 005a FA65     		str	r2, [r7, #92]
 104              		.loc 1 105 13
 105 005c B3F90030 		ldrsh	r3, [r3]
 106              		.loc 1 105 11
 107 0060 7B64     		str	r3, [r7, #68]
 106:./Libraries/CMSIS/DSP/Source/FilteringFunctions/arm_iir_lattice_q15.c ****     /* fN-1(n) = fN(n) - kN * gN-1(n-1) */
 107:./Libraries/CMSIS/DSP/Source/FilteringFunctions/arm_iir_lattice_q15.c ****     fnext = fcurr - (((q31_t) gcurr * (*pk)) >> 15);
 108              		.loc 1 107 40
 109 0062 7B6D     		ldr	r3, [r7, #84]
 110 0064 B3F90030 		ldrsh	r3, [r3]
 111 0068 1A46     		mov	r2, r3
 112              		.loc 1 107 37
 113 006a 7B6C     		ldr	r3, [r7, #68]
 114 006c 03FB02F3 		mul	r3, r3, r2
 115              		.loc 1 107 46
 116 0070 DB13     		asrs	r3, r3, #15
 117              		.loc 1 107 11
 118 0072 FA6E     		ldr	r2, [r7, #108]
 119 0074 D31A     		subs	r3, r2, r3
 120 0076 BB66     		str	r3, [r7, #104]
 121              	.LBB2:
 108:./Libraries/CMSIS/DSP/Source/FilteringFunctions/arm_iir_lattice_q15.c ****     fnext = __SSAT(fnext, 16);
ARM GAS  /tmp/cc9jV1uH.s 			page 5


 122              		.loc 1 108 13
 123 0078 BB6E     		ldr	r3, [r7, #104]
 124 007a FB63     		str	r3, [r7, #60]
 125 007c FB6B     		ldr	r3, [r7, #60]
 126              		.syntax unified
 127              	@ 108 "./Libraries/CMSIS/DSP/Source/FilteringFunctions/arm_iir_lattice_q15.c" 1
 128 007e 03F30F03 		ssat r3, #16, r3
 129              	@ 0 "" 2
 130              		.thumb
 131              		.syntax unified
 132 0082 BB63     		str	r3, [r7, #56]
 133 0084 BB6B     		ldr	r3, [r7, #56]
 134              	.LBE2:
 135              		.loc 1 108 11
 136 0086 BB66     		str	r3, [r7, #104]
 109:./Libraries/CMSIS/DSP/Source/FilteringFunctions/arm_iir_lattice_q15.c **** 
 110:./Libraries/CMSIS/DSP/Source/FilteringFunctions/arm_iir_lattice_q15.c ****     /* gN(n) = kN * fN-1(n) + gN-1(n-1) */
 111:./Libraries/CMSIS/DSP/Source/FilteringFunctions/arm_iir_lattice_q15.c ****     gnext = (((q31_t) fnext * (*pk++)) >> 15) + gcurr;
 137              		.loc 1 111 35
 138 0088 7B6D     		ldr	r3, [r7, #84]
 139 008a 9A1C     		adds	r2, r3, #2
 140 008c 7A65     		str	r2, [r7, #84]
 141              		.loc 1 111 32
 142 008e B3F90030 		ldrsh	r3, [r3]
 143 0092 1A46     		mov	r2, r3
 144              		.loc 1 111 29
 145 0094 BB6E     		ldr	r3, [r7, #104]
 146 0096 03FB02F3 		mul	r3, r3, r2
 147              		.loc 1 111 40
 148 009a DB13     		asrs	r3, r3, #15
 149              		.loc 1 111 11
 150 009c 7A6C     		ldr	r2, [r7, #68]
 151 009e 1344     		add	r3, r3, r2
 152 00a0 7B63     		str	r3, [r7, #52]
 153              	.LBB3:
 112:./Libraries/CMSIS/DSP/Source/FilteringFunctions/arm_iir_lattice_q15.c ****     gnext = __SSAT(gnext, 16);
 154              		.loc 1 112 13
 155 00a2 7B6B     		ldr	r3, [r7, #52]
 156 00a4 3B63     		str	r3, [r7, #48]
 157 00a6 3B6B     		ldr	r3, [r7, #48]
 158              		.syntax unified
 159              	@ 112 "./Libraries/CMSIS/DSP/Source/FilteringFunctions/arm_iir_lattice_q15.c" 1
 160 00a8 03F30F03 		ssat r3, #16, r3
 161              	@ 0 "" 2
 162              		.thumb
 163              		.syntax unified
 164 00ac FB62     		str	r3, [r7, #44]
 165 00ae FB6A     		ldr	r3, [r7, #44]
 166              	.LBE3:
 167              		.loc 1 112 11
 168 00b0 7B63     		str	r3, [r7, #52]
 113:./Libraries/CMSIS/DSP/Source/FilteringFunctions/arm_iir_lattice_q15.c **** 
 114:./Libraries/CMSIS/DSP/Source/FilteringFunctions/arm_iir_lattice_q15.c ****     /* write gN(n) into state for next sample processing */
 115:./Libraries/CMSIS/DSP/Source/FilteringFunctions/arm_iir_lattice_q15.c ****     *px2++ = (q15_t) gnext;
 169              		.loc 1 115 9
 170 00b2 BB6D     		ldr	r3, [r7, #88]
 171 00b4 9A1C     		adds	r2, r3, #2
ARM GAS  /tmp/cc9jV1uH.s 			page 6


 172 00b6 BA65     		str	r2, [r7, #88]
 173              		.loc 1 115 14
 174 00b8 7A6B     		ldr	r2, [r7, #52]
 175 00ba 12B2     		sxth	r2, r2
 176              		.loc 1 115 12
 177 00bc 1A80     		strh	r2, [r3]	@ movhi
 116:./Libraries/CMSIS/DSP/Source/FilteringFunctions/arm_iir_lattice_q15.c **** 
 117:./Libraries/CMSIS/DSP/Source/FilteringFunctions/arm_iir_lattice_q15.c ****     /* y(n) += gN(n) * vN */
 118:./Libraries/CMSIS/DSP/Source/FilteringFunctions/arm_iir_lattice_q15.c ****     acc += (q31_t) ((gnext * (*pv++)));
 178              		.loc 1 118 34
 179 00be 3B6D     		ldr	r3, [r7, #80]
 180 00c0 9A1C     		adds	r2, r3, #2
 181 00c2 3A65     		str	r2, [r7, #80]
 182              		.loc 1 118 31
 183 00c4 B3F90030 		ldrsh	r3, [r3]
 184 00c8 1A46     		mov	r2, r3
 185              		.loc 1 118 12
 186 00ca 7B6B     		ldr	r3, [r7, #52]
 187 00cc 03FB02F3 		mul	r3, r3, r2
 188 00d0 1A46     		mov	r2, r3
 189 00d2 4FEAE273 		asr	r3, r2, #31
 190              		.loc 1 118 9
 191 00d6 D7E91801 		ldrd	r0, [r7, #96]
 192 00da 8418     		adds	r4, r0, r2
 193 00dc 41EB0305 		adc	r5, r1, r3
 194 00e0 C7E91845 		strd	r4, [r7, #96]
 119:./Libraries/CMSIS/DSP/Source/FilteringFunctions/arm_iir_lattice_q15.c **** 
 120:./Libraries/CMSIS/DSP/Source/FilteringFunctions/arm_iir_lattice_q15.c ****     /* Update f values for next coefficient processing */
 121:./Libraries/CMSIS/DSP/Source/FilteringFunctions/arm_iir_lattice_q15.c ****     fcurr = fnext;
 195              		.loc 1 121 11
 196 00e4 BB6E     		ldr	r3, [r7, #104]
 197 00e6 FB66     		str	r3, [r7, #108]
 122:./Libraries/CMSIS/DSP/Source/FilteringFunctions/arm_iir_lattice_q15.c **** 
 123:./Libraries/CMSIS/DSP/Source/FilteringFunctions/arm_iir_lattice_q15.c **** 
 124:./Libraries/CMSIS/DSP/Source/FilteringFunctions/arm_iir_lattice_q15.c **** #if defined (ARM_MATH_LOOPUNROLL)
 125:./Libraries/CMSIS/DSP/Source/FilteringFunctions/arm_iir_lattice_q15.c **** 
 126:./Libraries/CMSIS/DSP/Source/FilteringFunctions/arm_iir_lattice_q15.c ****     /* Loop unrolling: Compute 4 taps at a time. */
 127:./Libraries/CMSIS/DSP/Source/FilteringFunctions/arm_iir_lattice_q15.c ****     tapCnt = (numStages - 1U) >> 2U;
 128:./Libraries/CMSIS/DSP/Source/FilteringFunctions/arm_iir_lattice_q15.c **** 
 129:./Libraries/CMSIS/DSP/Source/FilteringFunctions/arm_iir_lattice_q15.c ****     while (tapCnt > 0U)
 130:./Libraries/CMSIS/DSP/Source/FilteringFunctions/arm_iir_lattice_q15.c ****     {
 131:./Libraries/CMSIS/DSP/Source/FilteringFunctions/arm_iir_lattice_q15.c ****       /* Process sample for 2nd, 6th ...taps */
 132:./Libraries/CMSIS/DSP/Source/FilteringFunctions/arm_iir_lattice_q15.c ****       /* Read gN-2(n-1) from state buffer */
 133:./Libraries/CMSIS/DSP/Source/FilteringFunctions/arm_iir_lattice_q15.c ****       gcurr = *px1++;
 134:./Libraries/CMSIS/DSP/Source/FilteringFunctions/arm_iir_lattice_q15.c ****       /* fN-2(n) = fN-1(n) - kN-1 * gN-2(n-1) */
 135:./Libraries/CMSIS/DSP/Source/FilteringFunctions/arm_iir_lattice_q15.c ****       fnext = fcurr - (((q31_t) gcurr * (*pk)) >> 15);
 136:./Libraries/CMSIS/DSP/Source/FilteringFunctions/arm_iir_lattice_q15.c ****       fnext = __SSAT(fnext, 16);
 137:./Libraries/CMSIS/DSP/Source/FilteringFunctions/arm_iir_lattice_q15.c ****       /* gN-1(n) = kN-1 * fN-2(n) + gN-2(n-1) */
 138:./Libraries/CMSIS/DSP/Source/FilteringFunctions/arm_iir_lattice_q15.c ****       gnext = (((q31_t) fnext * (*pk++)) >> 15) + gcurr;
 139:./Libraries/CMSIS/DSP/Source/FilteringFunctions/arm_iir_lattice_q15.c ****       gnext1 = (q15_t) __SSAT(gnext, 16);
 140:./Libraries/CMSIS/DSP/Source/FilteringFunctions/arm_iir_lattice_q15.c ****       /* write gN-1(n) into state for next sample processing */
 141:./Libraries/CMSIS/DSP/Source/FilteringFunctions/arm_iir_lattice_q15.c ****       *px2++ = (q15_t) gnext1;
 142:./Libraries/CMSIS/DSP/Source/FilteringFunctions/arm_iir_lattice_q15.c **** 
 143:./Libraries/CMSIS/DSP/Source/FilteringFunctions/arm_iir_lattice_q15.c ****       /* Process sample for 3nd, 7th ...taps */
 144:./Libraries/CMSIS/DSP/Source/FilteringFunctions/arm_iir_lattice_q15.c ****       /* Read gN-3(n-1) from state buffer */
 145:./Libraries/CMSIS/DSP/Source/FilteringFunctions/arm_iir_lattice_q15.c ****       gcurr = *px1++;
 146:./Libraries/CMSIS/DSP/Source/FilteringFunctions/arm_iir_lattice_q15.c ****       /* Process sample for 3rd, 7th .. taps */
ARM GAS  /tmp/cc9jV1uH.s 			page 7


 147:./Libraries/CMSIS/DSP/Source/FilteringFunctions/arm_iir_lattice_q15.c ****       /* fN-3(n) = fN-2(n) - kN-2 * gN-3(n-1) */
 148:./Libraries/CMSIS/DSP/Source/FilteringFunctions/arm_iir_lattice_q15.c ****       fcurr = fnext - (((q31_t) gcurr * (*pk)) >> 15);
 149:./Libraries/CMSIS/DSP/Source/FilteringFunctions/arm_iir_lattice_q15.c ****       fcurr = __SSAT(fcurr, 16);
 150:./Libraries/CMSIS/DSP/Source/FilteringFunctions/arm_iir_lattice_q15.c ****       /* gN-2(n) = kN-2 * fN-3(n) + gN-3(n-1) */
 151:./Libraries/CMSIS/DSP/Source/FilteringFunctions/arm_iir_lattice_q15.c ****       gnext = (((q31_t) fcurr * (*pk++)) >> 15) + gcurr;
 152:./Libraries/CMSIS/DSP/Source/FilteringFunctions/arm_iir_lattice_q15.c ****       gnext2 = (q15_t) __SSAT(gnext, 16);
 153:./Libraries/CMSIS/DSP/Source/FilteringFunctions/arm_iir_lattice_q15.c ****       /* write gN-2(n) into state */
 154:./Libraries/CMSIS/DSP/Source/FilteringFunctions/arm_iir_lattice_q15.c ****       *px2++ = (q15_t) gnext2;
 155:./Libraries/CMSIS/DSP/Source/FilteringFunctions/arm_iir_lattice_q15.c **** 
 156:./Libraries/CMSIS/DSP/Source/FilteringFunctions/arm_iir_lattice_q15.c ****       /* Read vN-1 and vN-2 at a time */
 157:./Libraries/CMSIS/DSP/Source/FilteringFunctions/arm_iir_lattice_q15.c ****       v = read_q15x2_ia (&pv);
 158:./Libraries/CMSIS/DSP/Source/FilteringFunctions/arm_iir_lattice_q15.c **** 
 159:./Libraries/CMSIS/DSP/Source/FilteringFunctions/arm_iir_lattice_q15.c ****       /* Pack gN-1(n) and gN-2(n) */
 160:./Libraries/CMSIS/DSP/Source/FilteringFunctions/arm_iir_lattice_q15.c **** 
 161:./Libraries/CMSIS/DSP/Source/FilteringFunctions/arm_iir_lattice_q15.c **** #ifndef  ARM_MATH_BIG_ENDIAN
 162:./Libraries/CMSIS/DSP/Source/FilteringFunctions/arm_iir_lattice_q15.c ****       gnext = __PKHBT(gnext1, gnext2, 16);
 163:./Libraries/CMSIS/DSP/Source/FilteringFunctions/arm_iir_lattice_q15.c **** #else
 164:./Libraries/CMSIS/DSP/Source/FilteringFunctions/arm_iir_lattice_q15.c ****       gnext = __PKHBT(gnext2, gnext1, 16);
 165:./Libraries/CMSIS/DSP/Source/FilteringFunctions/arm_iir_lattice_q15.c **** #endif /* #ifndef  ARM_MATH_BIG_ENDIAN */
 166:./Libraries/CMSIS/DSP/Source/FilteringFunctions/arm_iir_lattice_q15.c **** 
 167:./Libraries/CMSIS/DSP/Source/FilteringFunctions/arm_iir_lattice_q15.c ****       /* y(n) += gN-1(n) * vN-1  */
 168:./Libraries/CMSIS/DSP/Source/FilteringFunctions/arm_iir_lattice_q15.c ****       /* process for gN-5(n) * vN-5, gN-9(n) * vN-9 ... */
 169:./Libraries/CMSIS/DSP/Source/FilteringFunctions/arm_iir_lattice_q15.c ****       /* y(n) += gN-2(n) * vN-2  */
 170:./Libraries/CMSIS/DSP/Source/FilteringFunctions/arm_iir_lattice_q15.c ****       /* process for gN-6(n) * vN-6, gN-10(n) * vN-10 ... */
 171:./Libraries/CMSIS/DSP/Source/FilteringFunctions/arm_iir_lattice_q15.c ****       acc = __SMLALD(gnext, v, acc);
 172:./Libraries/CMSIS/DSP/Source/FilteringFunctions/arm_iir_lattice_q15.c **** 
 173:./Libraries/CMSIS/DSP/Source/FilteringFunctions/arm_iir_lattice_q15.c ****       /* Process sample for 4th, 8th ...taps */
 174:./Libraries/CMSIS/DSP/Source/FilteringFunctions/arm_iir_lattice_q15.c ****       /* Read gN-4(n-1) from state buffer */
 175:./Libraries/CMSIS/DSP/Source/FilteringFunctions/arm_iir_lattice_q15.c ****       gcurr = *px1++;
 176:./Libraries/CMSIS/DSP/Source/FilteringFunctions/arm_iir_lattice_q15.c ****       /* Process sample for 4th, 8th .. taps */
 177:./Libraries/CMSIS/DSP/Source/FilteringFunctions/arm_iir_lattice_q15.c ****       /* fN-4(n) = fN-3(n) - kN-3 * gN-4(n-1) */
 178:./Libraries/CMSIS/DSP/Source/FilteringFunctions/arm_iir_lattice_q15.c ****       fnext = fcurr - (((q31_t) gcurr * (*pk)) >> 15);
 179:./Libraries/CMSIS/DSP/Source/FilteringFunctions/arm_iir_lattice_q15.c ****       fnext = __SSAT(fnext, 16);
 180:./Libraries/CMSIS/DSP/Source/FilteringFunctions/arm_iir_lattice_q15.c ****       /* gN-3(n) = kN-3 * fN-1(n) + gN-1(n-1) */
 181:./Libraries/CMSIS/DSP/Source/FilteringFunctions/arm_iir_lattice_q15.c ****       gnext = (((q31_t) fnext * (*pk++)) >> 15) + gcurr;
 182:./Libraries/CMSIS/DSP/Source/FilteringFunctions/arm_iir_lattice_q15.c ****       gnext1 = (q15_t) __SSAT(gnext, 16);
 183:./Libraries/CMSIS/DSP/Source/FilteringFunctions/arm_iir_lattice_q15.c ****       /* write  gN-3(n) for the next sample process */
 184:./Libraries/CMSIS/DSP/Source/FilteringFunctions/arm_iir_lattice_q15.c ****       *px2++ = (q15_t) gnext1;
 185:./Libraries/CMSIS/DSP/Source/FilteringFunctions/arm_iir_lattice_q15.c **** 
 186:./Libraries/CMSIS/DSP/Source/FilteringFunctions/arm_iir_lattice_q15.c ****       /* Process sample for 5th, 9th ...taps */
 187:./Libraries/CMSIS/DSP/Source/FilteringFunctions/arm_iir_lattice_q15.c ****       /* Read gN-5(n-1) from state buffer */
 188:./Libraries/CMSIS/DSP/Source/FilteringFunctions/arm_iir_lattice_q15.c ****       gcurr = *px1++;
 189:./Libraries/CMSIS/DSP/Source/FilteringFunctions/arm_iir_lattice_q15.c ****       /* Process sample for 5th, 9th .. taps */
 190:./Libraries/CMSIS/DSP/Source/FilteringFunctions/arm_iir_lattice_q15.c ****       /* fN-5(n) = fN-4(n) - kN-4 * gN-5(n-1) */
 191:./Libraries/CMSIS/DSP/Source/FilteringFunctions/arm_iir_lattice_q15.c ****       fcurr = fnext - (((q31_t) gcurr * (*pk)) >> 15);
 192:./Libraries/CMSIS/DSP/Source/FilteringFunctions/arm_iir_lattice_q15.c ****       fcurr = __SSAT(fcurr, 16);
 193:./Libraries/CMSIS/DSP/Source/FilteringFunctions/arm_iir_lattice_q15.c ****       /* gN-4(n) = kN-4 * fN-5(n) + gN-5(n-1) */
 194:./Libraries/CMSIS/DSP/Source/FilteringFunctions/arm_iir_lattice_q15.c ****       gnext = (((q31_t) fcurr * (*pk++)) >> 15) + gcurr;
 195:./Libraries/CMSIS/DSP/Source/FilteringFunctions/arm_iir_lattice_q15.c ****       gnext2 = (q15_t) __SSAT(gnext, 16);
 196:./Libraries/CMSIS/DSP/Source/FilteringFunctions/arm_iir_lattice_q15.c ****       /* write      gN-4(n) for the next sample process */
 197:./Libraries/CMSIS/DSP/Source/FilteringFunctions/arm_iir_lattice_q15.c ****       *px2++ = (q15_t) gnext2;
 198:./Libraries/CMSIS/DSP/Source/FilteringFunctions/arm_iir_lattice_q15.c **** 
 199:./Libraries/CMSIS/DSP/Source/FilteringFunctions/arm_iir_lattice_q15.c ****       /* Read vN-3 and vN-4 at a time */
 200:./Libraries/CMSIS/DSP/Source/FilteringFunctions/arm_iir_lattice_q15.c ****       v = read_q15x2_ia (&pv);
 201:./Libraries/CMSIS/DSP/Source/FilteringFunctions/arm_iir_lattice_q15.c **** 
 202:./Libraries/CMSIS/DSP/Source/FilteringFunctions/arm_iir_lattice_q15.c ****       /* Pack gN-3(n) and gN-4(n) */
 203:./Libraries/CMSIS/DSP/Source/FilteringFunctions/arm_iir_lattice_q15.c **** #ifndef ARM_MATH_BIG_ENDIAN
ARM GAS  /tmp/cc9jV1uH.s 			page 8


 204:./Libraries/CMSIS/DSP/Source/FilteringFunctions/arm_iir_lattice_q15.c ****       gnext = __PKHBT(gnext1, gnext2, 16);
 205:./Libraries/CMSIS/DSP/Source/FilteringFunctions/arm_iir_lattice_q15.c **** #else
 206:./Libraries/CMSIS/DSP/Source/FilteringFunctions/arm_iir_lattice_q15.c ****       gnext = __PKHBT(gnext2, gnext1, 16);
 207:./Libraries/CMSIS/DSP/Source/FilteringFunctions/arm_iir_lattice_q15.c **** #endif /* #ifndef ARM_MATH_BIG_ENDIAN */
 208:./Libraries/CMSIS/DSP/Source/FilteringFunctions/arm_iir_lattice_q15.c **** 
 209:./Libraries/CMSIS/DSP/Source/FilteringFunctions/arm_iir_lattice_q15.c ****       /* y(n) += gN-4(n) * vN-4  */
 210:./Libraries/CMSIS/DSP/Source/FilteringFunctions/arm_iir_lattice_q15.c ****       /* process for gN-8(n) * vN-8, gN-12(n) * vN-12 ... */
 211:./Libraries/CMSIS/DSP/Source/FilteringFunctions/arm_iir_lattice_q15.c ****       /* y(n) += gN-3(n) * vN-3  */
 212:./Libraries/CMSIS/DSP/Source/FilteringFunctions/arm_iir_lattice_q15.c ****       /* process for gN-7(n) * vN-7, gN-11(n) * vN-11 ... */
 213:./Libraries/CMSIS/DSP/Source/FilteringFunctions/arm_iir_lattice_q15.c ****       acc = __SMLALD(gnext, v, acc);
 214:./Libraries/CMSIS/DSP/Source/FilteringFunctions/arm_iir_lattice_q15.c **** 
 215:./Libraries/CMSIS/DSP/Source/FilteringFunctions/arm_iir_lattice_q15.c ****       /* Decrement loop counter */
 216:./Libraries/CMSIS/DSP/Source/FilteringFunctions/arm_iir_lattice_q15.c ****       tapCnt--;
 217:./Libraries/CMSIS/DSP/Source/FilteringFunctions/arm_iir_lattice_q15.c ****     }
 218:./Libraries/CMSIS/DSP/Source/FilteringFunctions/arm_iir_lattice_q15.c **** 
 219:./Libraries/CMSIS/DSP/Source/FilteringFunctions/arm_iir_lattice_q15.c ****     fnext = fcurr;
 220:./Libraries/CMSIS/DSP/Source/FilteringFunctions/arm_iir_lattice_q15.c **** 
 221:./Libraries/CMSIS/DSP/Source/FilteringFunctions/arm_iir_lattice_q15.c ****     /* Loop unrolling: Compute remaining taps */
 222:./Libraries/CMSIS/DSP/Source/FilteringFunctions/arm_iir_lattice_q15.c ****     tapCnt = (numStages - 1U) % 0x4U;
 223:./Libraries/CMSIS/DSP/Source/FilteringFunctions/arm_iir_lattice_q15.c **** 
 224:./Libraries/CMSIS/DSP/Source/FilteringFunctions/arm_iir_lattice_q15.c **** #else
 225:./Libraries/CMSIS/DSP/Source/FilteringFunctions/arm_iir_lattice_q15.c **** 
 226:./Libraries/CMSIS/DSP/Source/FilteringFunctions/arm_iir_lattice_q15.c ****     /* Initialize blkCnt with number of samples */
 227:./Libraries/CMSIS/DSP/Source/FilteringFunctions/arm_iir_lattice_q15.c ****     tapCnt = (numStages - 1U);
 198              		.loc 1 227 12
 199 00e8 3B6C     		ldr	r3, [r7, #64]
 200 00ea 013B     		subs	r3, r3, #1
 201 00ec BB64     		str	r3, [r7, #72]
 228:./Libraries/CMSIS/DSP/Source/FilteringFunctions/arm_iir_lattice_q15.c **** 
 229:./Libraries/CMSIS/DSP/Source/FilteringFunctions/arm_iir_lattice_q15.c **** #endif /* #if defined (ARM_MATH_LOOPUNROLL) */
 230:./Libraries/CMSIS/DSP/Source/FilteringFunctions/arm_iir_lattice_q15.c **** 
 231:./Libraries/CMSIS/DSP/Source/FilteringFunctions/arm_iir_lattice_q15.c ****     while (tapCnt > 0U)
 202              		.loc 1 231 11
 203 00ee 4CE0     		b	.L3
 204              	.L4:
 232:./Libraries/CMSIS/DSP/Source/FilteringFunctions/arm_iir_lattice_q15.c ****     {
 233:./Libraries/CMSIS/DSP/Source/FilteringFunctions/arm_iir_lattice_q15.c ****       gcurr = *px1++;
 205              		.loc 1 233 19
 206 00f0 FB6D     		ldr	r3, [r7, #92]
 207 00f2 9A1C     		adds	r2, r3, #2
 208 00f4 FA65     		str	r2, [r7, #92]
 209              		.loc 1 233 15
 210 00f6 B3F90030 		ldrsh	r3, [r3]
 211              		.loc 1 233 13
 212 00fa 7B64     		str	r3, [r7, #68]
 234:./Libraries/CMSIS/DSP/Source/FilteringFunctions/arm_iir_lattice_q15.c ****       /* Process sample for last taps */
 235:./Libraries/CMSIS/DSP/Source/FilteringFunctions/arm_iir_lattice_q15.c ****       fnext = fcurr - (((q31_t) gcurr * (*pk)) >> 15);
 213              		.loc 1 235 42
 214 00fc 7B6D     		ldr	r3, [r7, #84]
 215 00fe B3F90030 		ldrsh	r3, [r3]
 216 0102 1A46     		mov	r2, r3
 217              		.loc 1 235 39
 218 0104 7B6C     		ldr	r3, [r7, #68]
 219 0106 03FB02F3 		mul	r3, r3, r2
 220              		.loc 1 235 48
 221 010a DB13     		asrs	r3, r3, #15
 222              		.loc 1 235 13
ARM GAS  /tmp/cc9jV1uH.s 			page 9


 223 010c FA6E     		ldr	r2, [r7, #108]
 224 010e D31A     		subs	r3, r2, r3
 225 0110 BB66     		str	r3, [r7, #104]
 226              	.LBB4:
 236:./Libraries/CMSIS/DSP/Source/FilteringFunctions/arm_iir_lattice_q15.c ****       fnext = __SSAT(fnext, 16);
 227              		.loc 1 236 15
 228 0112 BB6E     		ldr	r3, [r7, #104]
 229 0114 FB61     		str	r3, [r7, #28]
 230 0116 FB69     		ldr	r3, [r7, #28]
 231              		.syntax unified
 232              	@ 236 "./Libraries/CMSIS/DSP/Source/FilteringFunctions/arm_iir_lattice_q15.c" 1
 233 0118 03F30F03 		ssat r3, #16, r3
 234              	@ 0 "" 2
 235              		.thumb
 236              		.syntax unified
 237 011c BB61     		str	r3, [r7, #24]
 238 011e BB69     		ldr	r3, [r7, #24]
 239              	.LBE4:
 240              		.loc 1 236 13
 241 0120 BB66     		str	r3, [r7, #104]
 237:./Libraries/CMSIS/DSP/Source/FilteringFunctions/arm_iir_lattice_q15.c ****       gnext = (((q31_t) fnext * (*pk++)) >> 15) + gcurr;
 242              		.loc 1 237 37
 243 0122 7B6D     		ldr	r3, [r7, #84]
 244 0124 9A1C     		adds	r2, r3, #2
 245 0126 7A65     		str	r2, [r7, #84]
 246              		.loc 1 237 34
 247 0128 B3F90030 		ldrsh	r3, [r3]
 248 012c 1A46     		mov	r2, r3
 249              		.loc 1 237 31
 250 012e BB6E     		ldr	r3, [r7, #104]
 251 0130 03FB02F3 		mul	r3, r3, r2
 252              		.loc 1 237 42
 253 0134 DB13     		asrs	r3, r3, #15
 254              		.loc 1 237 13
 255 0136 7A6C     		ldr	r2, [r7, #68]
 256 0138 1344     		add	r3, r3, r2
 257 013a 7B63     		str	r3, [r7, #52]
 258              	.LBB5:
 238:./Libraries/CMSIS/DSP/Source/FilteringFunctions/arm_iir_lattice_q15.c ****       gnext = __SSAT(gnext, 16);
 259              		.loc 1 238 15
 260 013c 7B6B     		ldr	r3, [r7, #52]
 261 013e 7B61     		str	r3, [r7, #20]
 262 0140 7B69     		ldr	r3, [r7, #20]
 263              		.syntax unified
 264              	@ 238 "./Libraries/CMSIS/DSP/Source/FilteringFunctions/arm_iir_lattice_q15.c" 1
 265 0142 03F30F03 		ssat r3, #16, r3
 266              	@ 0 "" 2
 267              		.thumb
 268              		.syntax unified
 269 0146 3B61     		str	r3, [r7, #16]
 270 0148 3B69     		ldr	r3, [r7, #16]
 271              	.LBE5:
 272              		.loc 1 238 13
 273 014a 7B63     		str	r3, [r7, #52]
 239:./Libraries/CMSIS/DSP/Source/FilteringFunctions/arm_iir_lattice_q15.c **** 
 240:./Libraries/CMSIS/DSP/Source/FilteringFunctions/arm_iir_lattice_q15.c ****       /* Output samples for last taps */
 241:./Libraries/CMSIS/DSP/Source/FilteringFunctions/arm_iir_lattice_q15.c ****       acc += (q31_t) (((q31_t) gnext * (*pv++)));
ARM GAS  /tmp/cc9jV1uH.s 			page 10


 274              		.loc 1 241 44
 275 014c 3B6D     		ldr	r3, [r7, #80]
 276 014e 9A1C     		adds	r2, r3, #2
 277 0150 3A65     		str	r2, [r7, #80]
 278              		.loc 1 241 41
 279 0152 B3F90030 		ldrsh	r3, [r3]
 280 0156 1A46     		mov	r2, r3
 281              		.loc 1 241 14
 282 0158 7B6B     		ldr	r3, [r7, #52]
 283 015a 03FB02F3 		mul	r3, r3, r2
 284 015e 1A46     		mov	r2, r3
 285 0160 4FEAE273 		asr	r3, r2, #31
 286              		.loc 1 241 11
 287 0164 D7E91801 		ldrd	r0, [r7, #96]
 288 0168 10EB0208 		adds	r8, r0, r2
 289 016c 41EB0309 		adc	r9, r1, r3
 290 0170 C7E91889 		strd	r8, [r7, #96]
 242:./Libraries/CMSIS/DSP/Source/FilteringFunctions/arm_iir_lattice_q15.c ****       *px2++ = (q15_t) gnext;
 291              		.loc 1 242 11
 292 0174 BB6D     		ldr	r3, [r7, #88]
 293 0176 9A1C     		adds	r2, r3, #2
 294 0178 BA65     		str	r2, [r7, #88]
 295              		.loc 1 242 16
 296 017a 7A6B     		ldr	r2, [r7, #52]
 297 017c 12B2     		sxth	r2, r2
 298              		.loc 1 242 14
 299 017e 1A80     		strh	r2, [r3]	@ movhi
 243:./Libraries/CMSIS/DSP/Source/FilteringFunctions/arm_iir_lattice_q15.c ****       fcurr = fnext;
 300              		.loc 1 243 13
 301 0180 BB6E     		ldr	r3, [r7, #104]
 302 0182 FB66     		str	r3, [r7, #108]
 244:./Libraries/CMSIS/DSP/Source/FilteringFunctions/arm_iir_lattice_q15.c **** 
 245:./Libraries/CMSIS/DSP/Source/FilteringFunctions/arm_iir_lattice_q15.c ****       /* Decrement loop counter */
 246:./Libraries/CMSIS/DSP/Source/FilteringFunctions/arm_iir_lattice_q15.c ****       tapCnt--;
 303              		.loc 1 246 13
 304 0184 BB6C     		ldr	r3, [r7, #72]
 305 0186 013B     		subs	r3, r3, #1
 306 0188 BB64     		str	r3, [r7, #72]
 307              	.L3:
 231:./Libraries/CMSIS/DSP/Source/FilteringFunctions/arm_iir_lattice_q15.c ****     {
 308              		.loc 1 231 11
 309 018a BB6C     		ldr	r3, [r7, #72]
 310 018c 002B     		cmp	r3, #0
 311 018e AFD1     		bne	.L4
 247:./Libraries/CMSIS/DSP/Source/FilteringFunctions/arm_iir_lattice_q15.c ****     }
 248:./Libraries/CMSIS/DSP/Source/FilteringFunctions/arm_iir_lattice_q15.c **** 
 249:./Libraries/CMSIS/DSP/Source/FilteringFunctions/arm_iir_lattice_q15.c ****     /* y(n) += g0(n) * v0 */
 250:./Libraries/CMSIS/DSP/Source/FilteringFunctions/arm_iir_lattice_q15.c ****     acc += (q31_t) (((q31_t) fnext * (*pv++)));
 312              		.loc 1 250 42
 313 0190 3B6D     		ldr	r3, [r7, #80]
 314 0192 9A1C     		adds	r2, r3, #2
 315 0194 3A65     		str	r2, [r7, #80]
 316              		.loc 1 250 39
 317 0196 B3F90030 		ldrsh	r3, [r3]
 318 019a 1A46     		mov	r2, r3
 319              		.loc 1 250 12
 320 019c BB6E     		ldr	r3, [r7, #104]
ARM GAS  /tmp/cc9jV1uH.s 			page 11


 321 019e 03FB02F3 		mul	r3, r3, r2
 322 01a2 1A46     		mov	r2, r3
 323 01a4 4FEAE273 		asr	r3, r2, #31
 324              		.loc 1 250 9
 325 01a8 D7E91801 		ldrd	r0, [r7, #96]
 326 01ac 10EB020A 		adds	r10, r0, r2
 327 01b0 41EB030B 		adc	fp, r1, r3
 328 01b4 C7E918AB 		strd	r10, [r7, #96]
 329              	.LBB6:
 251:./Libraries/CMSIS/DSP/Source/FilteringFunctions/arm_iir_lattice_q15.c **** 
 252:./Libraries/CMSIS/DSP/Source/FilteringFunctions/arm_iir_lattice_q15.c ****     out = (q15_t) __SSAT(acc >> 15, 16);
 330              		.loc 1 252 19
 331 01b8 D7E91801 		ldrd	r0, [r7, #96]
 332 01bc 4FF00002 		mov	r2, #0
 333 01c0 4FF00003 		mov	r3, #0
 334 01c4 C20B     		lsrs	r2, r0, #15
 335 01c6 42EA4142 		orr	r2, r2, r1, lsl #17
 336 01ca CB13     		asrs	r3, r1, #15
 337 01cc 1346     		mov	r3, r2
 338 01ce BB62     		str	r3, [r7, #40]
 339 01d0 BB6A     		ldr	r3, [r7, #40]
 340              		.syntax unified
 341              	@ 252 "./Libraries/CMSIS/DSP/Source/FilteringFunctions/arm_iir_lattice_q15.c" 1
 342 01d2 03F30F03 		ssat r3, #16, r3
 343              	@ 0 "" 2
 344              		.thumb
 345              		.syntax unified
 346 01d6 7B62     		str	r3, [r7, #36]
 347 01d8 7B6A     		ldr	r3, [r7, #36]
 348              	.LBE6:
 349              		.loc 1 252 9
 350 01da 7B84     		strh	r3, [r7, #34]	@ movhi
 253:./Libraries/CMSIS/DSP/Source/FilteringFunctions/arm_iir_lattice_q15.c ****     *px2++ = (q15_t) fnext;
 351              		.loc 1 253 9
 352 01dc BB6D     		ldr	r3, [r7, #88]
 353 01de 9A1C     		adds	r2, r3, #2
 354 01e0 BA65     		str	r2, [r7, #88]
 355              		.loc 1 253 14
 356 01e2 BA6E     		ldr	r2, [r7, #104]
 357 01e4 12B2     		sxth	r2, r2
 358              		.loc 1 253 12
 359 01e6 1A80     		strh	r2, [r3]	@ movhi
 254:./Libraries/CMSIS/DSP/Source/FilteringFunctions/arm_iir_lattice_q15.c **** 
 255:./Libraries/CMSIS/DSP/Source/FilteringFunctions/arm_iir_lattice_q15.c ****     /* write out into pDst */
 256:./Libraries/CMSIS/DSP/Source/FilteringFunctions/arm_iir_lattice_q15.c ****     *pDst++ = out;
 360              		.loc 1 256 10
 361 01e8 7B68     		ldr	r3, [r7, #4]
 362 01ea 9A1C     		adds	r2, r3, #2
 363 01ec 7A60     		str	r2, [r7, #4]
 364              		.loc 1 256 13
 365 01ee 7A8C     		ldrh	r2, [r7, #34]	@ movhi
 366 01f0 1A80     		strh	r2, [r3]	@ movhi
 257:./Libraries/CMSIS/DSP/Source/FilteringFunctions/arm_iir_lattice_q15.c **** 
 258:./Libraries/CMSIS/DSP/Source/FilteringFunctions/arm_iir_lattice_q15.c ****     /* Advance the state pointer by 4 to process the next group of 4 samples */
 259:./Libraries/CMSIS/DSP/Source/FilteringFunctions/arm_iir_lattice_q15.c ****     pState = pState + 1U;
 367              		.loc 1 259 12
 368 01f2 7B6F     		ldr	r3, [r7, #116]
ARM GAS  /tmp/cc9jV1uH.s 			page 12


 369 01f4 0233     		adds	r3, r3, #2
 370 01f6 7B67     		str	r3, [r7, #116]
 260:./Libraries/CMSIS/DSP/Source/FilteringFunctions/arm_iir_lattice_q15.c **** 
 261:./Libraries/CMSIS/DSP/Source/FilteringFunctions/arm_iir_lattice_q15.c ****     /* Decrement loop counter */
 262:./Libraries/CMSIS/DSP/Source/FilteringFunctions/arm_iir_lattice_q15.c ****     blkCnt--;
 371              		.loc 1 262 11
 372 01f8 FB6C     		ldr	r3, [r7, #76]
 373 01fa 013B     		subs	r3, r3, #1
 374 01fc FB64     		str	r3, [r7, #76]
 375              	.L2:
  83:./Libraries/CMSIS/DSP/Source/FilteringFunctions/arm_iir_lattice_q15.c ****   {
 376              		.loc 1 83 9
 377 01fe FB6C     		ldr	r3, [r7, #76]
 378 0200 002B     		cmp	r3, #0
 379 0202 7FF412AF 		bne	.L5
 263:./Libraries/CMSIS/DSP/Source/FilteringFunctions/arm_iir_lattice_q15.c ****   }
 264:./Libraries/CMSIS/DSP/Source/FilteringFunctions/arm_iir_lattice_q15.c **** 
 265:./Libraries/CMSIS/DSP/Source/FilteringFunctions/arm_iir_lattice_q15.c ****   /* Processing is complete. Now copy last S->numStages samples to start of the buffer
 266:./Libraries/CMSIS/DSP/Source/FilteringFunctions/arm_iir_lattice_q15.c ****      for the preperation of next frame process */
 267:./Libraries/CMSIS/DSP/Source/FilteringFunctions/arm_iir_lattice_q15.c **** 
 268:./Libraries/CMSIS/DSP/Source/FilteringFunctions/arm_iir_lattice_q15.c ****   /* Points to the start of the state buffer */
 269:./Libraries/CMSIS/DSP/Source/FilteringFunctions/arm_iir_lattice_q15.c ****   pStateCur = &S->pState[0];
 380              		.loc 1 269 13
 381 0206 FB68     		ldr	r3, [r7, #12]
 382 0208 5B68     		ldr	r3, [r3, #4]
 383 020a 3B67     		str	r3, [r7, #112]
 270:./Libraries/CMSIS/DSP/Source/FilteringFunctions/arm_iir_lattice_q15.c ****   pState = &S->pState[blockSize];
 384              		.loc 1 270 14
 385 020c FB68     		ldr	r3, [r7, #12]
 386 020e 5A68     		ldr	r2, [r3, #4]
 387              		.loc 1 270 22
 388 0210 3B68     		ldr	r3, [r7]
 389 0212 5B00     		lsls	r3, r3, #1
 390              		.loc 1 270 10
 391 0214 1344     		add	r3, r3, r2
 392 0216 7B67     		str	r3, [r7, #116]
 271:./Libraries/CMSIS/DSP/Source/FilteringFunctions/arm_iir_lattice_q15.c **** 
 272:./Libraries/CMSIS/DSP/Source/FilteringFunctions/arm_iir_lattice_q15.c ****   /* copy data */
 273:./Libraries/CMSIS/DSP/Source/FilteringFunctions/arm_iir_lattice_q15.c **** #if defined (ARM_MATH_LOOPUNROLL)
 274:./Libraries/CMSIS/DSP/Source/FilteringFunctions/arm_iir_lattice_q15.c **** 
 275:./Libraries/CMSIS/DSP/Source/FilteringFunctions/arm_iir_lattice_q15.c ****   /* Loop unrolling: Compute 4 taps at a time. */
 276:./Libraries/CMSIS/DSP/Source/FilteringFunctions/arm_iir_lattice_q15.c ****   tapCnt = numStages >> 2U;
 277:./Libraries/CMSIS/DSP/Source/FilteringFunctions/arm_iir_lattice_q15.c **** 
 278:./Libraries/CMSIS/DSP/Source/FilteringFunctions/arm_iir_lattice_q15.c ****   while (tapCnt > 0U)
 279:./Libraries/CMSIS/DSP/Source/FilteringFunctions/arm_iir_lattice_q15.c ****   {
 280:./Libraries/CMSIS/DSP/Source/FilteringFunctions/arm_iir_lattice_q15.c ****     write_q15x2_ia (&pStateCur, read_q15x2_ia (&pState));
 281:./Libraries/CMSIS/DSP/Source/FilteringFunctions/arm_iir_lattice_q15.c ****     write_q15x2_ia (&pStateCur, read_q15x2_ia (&pState));
 282:./Libraries/CMSIS/DSP/Source/FilteringFunctions/arm_iir_lattice_q15.c **** 
 283:./Libraries/CMSIS/DSP/Source/FilteringFunctions/arm_iir_lattice_q15.c ****     /* Decrement loop counter */
 284:./Libraries/CMSIS/DSP/Source/FilteringFunctions/arm_iir_lattice_q15.c ****     tapCnt--;
 285:./Libraries/CMSIS/DSP/Source/FilteringFunctions/arm_iir_lattice_q15.c ****   }
 286:./Libraries/CMSIS/DSP/Source/FilteringFunctions/arm_iir_lattice_q15.c **** 
 287:./Libraries/CMSIS/DSP/Source/FilteringFunctions/arm_iir_lattice_q15.c ****   /* Loop unrolling: Compute remaining taps */
 288:./Libraries/CMSIS/DSP/Source/FilteringFunctions/arm_iir_lattice_q15.c ****   tapCnt = numStages % 0x4U;
 289:./Libraries/CMSIS/DSP/Source/FilteringFunctions/arm_iir_lattice_q15.c **** 
 290:./Libraries/CMSIS/DSP/Source/FilteringFunctions/arm_iir_lattice_q15.c **** #else
 291:./Libraries/CMSIS/DSP/Source/FilteringFunctions/arm_iir_lattice_q15.c **** 
ARM GAS  /tmp/cc9jV1uH.s 			page 13


 292:./Libraries/CMSIS/DSP/Source/FilteringFunctions/arm_iir_lattice_q15.c ****   /* Initialize blkCnt with number of samples */
 293:./Libraries/CMSIS/DSP/Source/FilteringFunctions/arm_iir_lattice_q15.c ****   tapCnt = (numStages - 1U);
 393              		.loc 1 293 10
 394 0218 3B6C     		ldr	r3, [r7, #64]
 395 021a 013B     		subs	r3, r3, #1
 396 021c BB64     		str	r3, [r7, #72]
 294:./Libraries/CMSIS/DSP/Source/FilteringFunctions/arm_iir_lattice_q15.c **** 
 295:./Libraries/CMSIS/DSP/Source/FilteringFunctions/arm_iir_lattice_q15.c **** #endif /* #if defined (ARM_MATH_LOOPUNROLL) */
 296:./Libraries/CMSIS/DSP/Source/FilteringFunctions/arm_iir_lattice_q15.c **** 
 297:./Libraries/CMSIS/DSP/Source/FilteringFunctions/arm_iir_lattice_q15.c ****   while (tapCnt > 0U)
 397              		.loc 1 297 9
 398 021e 0BE0     		b	.L6
 399              	.L7:
 298:./Libraries/CMSIS/DSP/Source/FilteringFunctions/arm_iir_lattice_q15.c ****   {
 299:./Libraries/CMSIS/DSP/Source/FilteringFunctions/arm_iir_lattice_q15.c ****     *pStateCur++ = *pState++;
 400              		.loc 1 299 27
 401 0220 7A6F     		ldr	r2, [r7, #116]
 402 0222 931C     		adds	r3, r2, #2
 403 0224 7B67     		str	r3, [r7, #116]
 404              		.loc 1 299 15
 405 0226 3B6F     		ldr	r3, [r7, #112]
 406 0228 991C     		adds	r1, r3, #2
 407 022a 3967     		str	r1, [r7, #112]
 408              		.loc 1 299 20
 409 022c B2F90020 		ldrsh	r2, [r2]
 410              		.loc 1 299 18
 411 0230 1A80     		strh	r2, [r3]	@ movhi
 300:./Libraries/CMSIS/DSP/Source/FilteringFunctions/arm_iir_lattice_q15.c **** 
 301:./Libraries/CMSIS/DSP/Source/FilteringFunctions/arm_iir_lattice_q15.c ****     /* Decrement loop counter */
 302:./Libraries/CMSIS/DSP/Source/FilteringFunctions/arm_iir_lattice_q15.c ****     tapCnt--;
 412              		.loc 1 302 11
 413 0232 BB6C     		ldr	r3, [r7, #72]
 414 0234 013B     		subs	r3, r3, #1
 415 0236 BB64     		str	r3, [r7, #72]
 416              	.L6:
 297:./Libraries/CMSIS/DSP/Source/FilteringFunctions/arm_iir_lattice_q15.c ****   {
 417              		.loc 1 297 9
 418 0238 BB6C     		ldr	r3, [r7, #72]
 419 023a 002B     		cmp	r3, #0
 420 023c F0D1     		bne	.L7
 303:./Libraries/CMSIS/DSP/Source/FilteringFunctions/arm_iir_lattice_q15.c ****   }
 304:./Libraries/CMSIS/DSP/Source/FilteringFunctions/arm_iir_lattice_q15.c **** 
 305:./Libraries/CMSIS/DSP/Source/FilteringFunctions/arm_iir_lattice_q15.c **** #else /* #if defined (ARM_MATH_DSP) */
 306:./Libraries/CMSIS/DSP/Source/FilteringFunctions/arm_iir_lattice_q15.c **** 
 307:./Libraries/CMSIS/DSP/Source/FilteringFunctions/arm_iir_lattice_q15.c ****   /* Sample processing */
 308:./Libraries/CMSIS/DSP/Source/FilteringFunctions/arm_iir_lattice_q15.c ****   while (blkCnt > 0U)
 309:./Libraries/CMSIS/DSP/Source/FilteringFunctions/arm_iir_lattice_q15.c ****   {
 310:./Libraries/CMSIS/DSP/Source/FilteringFunctions/arm_iir_lattice_q15.c ****     /* Read Sample from input buffer */
 311:./Libraries/CMSIS/DSP/Source/FilteringFunctions/arm_iir_lattice_q15.c ****     /* fN(n) = x(n) */
 312:./Libraries/CMSIS/DSP/Source/FilteringFunctions/arm_iir_lattice_q15.c ****     fcurr = *pSrc++;
 313:./Libraries/CMSIS/DSP/Source/FilteringFunctions/arm_iir_lattice_q15.c **** 
 314:./Libraries/CMSIS/DSP/Source/FilteringFunctions/arm_iir_lattice_q15.c ****     /* Initialize Ladder coeff pointer */
 315:./Libraries/CMSIS/DSP/Source/FilteringFunctions/arm_iir_lattice_q15.c ****     pv = &S->pvCoeffs[0];
 316:./Libraries/CMSIS/DSP/Source/FilteringFunctions/arm_iir_lattice_q15.c **** 
 317:./Libraries/CMSIS/DSP/Source/FilteringFunctions/arm_iir_lattice_q15.c ****     /* Initialize Reflection coeff pointer */
 318:./Libraries/CMSIS/DSP/Source/FilteringFunctions/arm_iir_lattice_q15.c ****     pk = &S->pkCoeffs[0];
 319:./Libraries/CMSIS/DSP/Source/FilteringFunctions/arm_iir_lattice_q15.c **** 
ARM GAS  /tmp/cc9jV1uH.s 			page 14


 320:./Libraries/CMSIS/DSP/Source/FilteringFunctions/arm_iir_lattice_q15.c ****     /* Initialize state read pointer */
 321:./Libraries/CMSIS/DSP/Source/FilteringFunctions/arm_iir_lattice_q15.c ****     px1 = pState;
 322:./Libraries/CMSIS/DSP/Source/FilteringFunctions/arm_iir_lattice_q15.c **** 
 323:./Libraries/CMSIS/DSP/Source/FilteringFunctions/arm_iir_lattice_q15.c ****     /* Initialize state write pointer */
 324:./Libraries/CMSIS/DSP/Source/FilteringFunctions/arm_iir_lattice_q15.c ****     px2 = pState;
 325:./Libraries/CMSIS/DSP/Source/FilteringFunctions/arm_iir_lattice_q15.c **** 
 326:./Libraries/CMSIS/DSP/Source/FilteringFunctions/arm_iir_lattice_q15.c ****     /* Set accumulator to zero */
 327:./Libraries/CMSIS/DSP/Source/FilteringFunctions/arm_iir_lattice_q15.c ****     acc = 0;
 328:./Libraries/CMSIS/DSP/Source/FilteringFunctions/arm_iir_lattice_q15.c **** 
 329:./Libraries/CMSIS/DSP/Source/FilteringFunctions/arm_iir_lattice_q15.c ****     tapCnt = numStages;
 330:./Libraries/CMSIS/DSP/Source/FilteringFunctions/arm_iir_lattice_q15.c **** 
 331:./Libraries/CMSIS/DSP/Source/FilteringFunctions/arm_iir_lattice_q15.c ****     while (tapCnt > 0U)
 332:./Libraries/CMSIS/DSP/Source/FilteringFunctions/arm_iir_lattice_q15.c ****     {
 333:./Libraries/CMSIS/DSP/Source/FilteringFunctions/arm_iir_lattice_q15.c ****       gcurr = *px1++;
 334:./Libraries/CMSIS/DSP/Source/FilteringFunctions/arm_iir_lattice_q15.c ****       /* Process sample */
 335:./Libraries/CMSIS/DSP/Source/FilteringFunctions/arm_iir_lattice_q15.c ****       /* fN-1(n) = fN(n) - kN * gN-1(n-1) */
 336:./Libraries/CMSIS/DSP/Source/FilteringFunctions/arm_iir_lattice_q15.c ****       fnext = fcurr - ((gcurr * (*pk)) >> 15);
 337:./Libraries/CMSIS/DSP/Source/FilteringFunctions/arm_iir_lattice_q15.c ****       fnext = __SSAT(fnext, 16);
 338:./Libraries/CMSIS/DSP/Source/FilteringFunctions/arm_iir_lattice_q15.c **** 
 339:./Libraries/CMSIS/DSP/Source/FilteringFunctions/arm_iir_lattice_q15.c ****       /* gN(n) = kN * fN-1(n) + gN-1(n-1) */
 340:./Libraries/CMSIS/DSP/Source/FilteringFunctions/arm_iir_lattice_q15.c ****       gnext = ((fnext * (*pk++)) >> 15) + gcurr;
 341:./Libraries/CMSIS/DSP/Source/FilteringFunctions/arm_iir_lattice_q15.c ****       gnext = __SSAT(gnext, 16);
 342:./Libraries/CMSIS/DSP/Source/FilteringFunctions/arm_iir_lattice_q15.c **** 
 343:./Libraries/CMSIS/DSP/Source/FilteringFunctions/arm_iir_lattice_q15.c ****       /* Output samples */
 344:./Libraries/CMSIS/DSP/Source/FilteringFunctions/arm_iir_lattice_q15.c ****       /* y(n) += gN(n) * vN */
 345:./Libraries/CMSIS/DSP/Source/FilteringFunctions/arm_iir_lattice_q15.c ****       acc += (q31_t) ((gnext * (*pv++)));
 346:./Libraries/CMSIS/DSP/Source/FilteringFunctions/arm_iir_lattice_q15.c **** 
 347:./Libraries/CMSIS/DSP/Source/FilteringFunctions/arm_iir_lattice_q15.c ****       /* write gN(n) into state for next sample processing */
 348:./Libraries/CMSIS/DSP/Source/FilteringFunctions/arm_iir_lattice_q15.c ****       *px2++ = (q15_t) gnext;
 349:./Libraries/CMSIS/DSP/Source/FilteringFunctions/arm_iir_lattice_q15.c **** 
 350:./Libraries/CMSIS/DSP/Source/FilteringFunctions/arm_iir_lattice_q15.c ****       /* Update f values for next coefficient processing */
 351:./Libraries/CMSIS/DSP/Source/FilteringFunctions/arm_iir_lattice_q15.c ****       fcurr = fnext;
 352:./Libraries/CMSIS/DSP/Source/FilteringFunctions/arm_iir_lattice_q15.c **** 
 353:./Libraries/CMSIS/DSP/Source/FilteringFunctions/arm_iir_lattice_q15.c ****       tapCnt--;
 354:./Libraries/CMSIS/DSP/Source/FilteringFunctions/arm_iir_lattice_q15.c ****     }
 355:./Libraries/CMSIS/DSP/Source/FilteringFunctions/arm_iir_lattice_q15.c **** 
 356:./Libraries/CMSIS/DSP/Source/FilteringFunctions/arm_iir_lattice_q15.c ****     /* y(n) += g0(n) * v0 */
 357:./Libraries/CMSIS/DSP/Source/FilteringFunctions/arm_iir_lattice_q15.c ****     acc += (q31_t) ((fnext * (*pv++)));
 358:./Libraries/CMSIS/DSP/Source/FilteringFunctions/arm_iir_lattice_q15.c **** 
 359:./Libraries/CMSIS/DSP/Source/FilteringFunctions/arm_iir_lattice_q15.c ****     out = (q15_t) __SSAT(acc >> 15, 16);
 360:./Libraries/CMSIS/DSP/Source/FilteringFunctions/arm_iir_lattice_q15.c ****     *px2++ = (q15_t) fnext;
 361:./Libraries/CMSIS/DSP/Source/FilteringFunctions/arm_iir_lattice_q15.c **** 
 362:./Libraries/CMSIS/DSP/Source/FilteringFunctions/arm_iir_lattice_q15.c ****     /* write out into pDst */
 363:./Libraries/CMSIS/DSP/Source/FilteringFunctions/arm_iir_lattice_q15.c ****     *pDst++ = out;
 364:./Libraries/CMSIS/DSP/Source/FilteringFunctions/arm_iir_lattice_q15.c **** 
 365:./Libraries/CMSIS/DSP/Source/FilteringFunctions/arm_iir_lattice_q15.c ****     /* Advance the state pointer by 1 to process the next group of samples */
 366:./Libraries/CMSIS/DSP/Source/FilteringFunctions/arm_iir_lattice_q15.c ****     pState = pState + 1U;
 367:./Libraries/CMSIS/DSP/Source/FilteringFunctions/arm_iir_lattice_q15.c **** 
 368:./Libraries/CMSIS/DSP/Source/FilteringFunctions/arm_iir_lattice_q15.c ****     /* Decrement loop counter */
 369:./Libraries/CMSIS/DSP/Source/FilteringFunctions/arm_iir_lattice_q15.c ****     blkCnt--;
 370:./Libraries/CMSIS/DSP/Source/FilteringFunctions/arm_iir_lattice_q15.c ****   }
 371:./Libraries/CMSIS/DSP/Source/FilteringFunctions/arm_iir_lattice_q15.c **** 
 372:./Libraries/CMSIS/DSP/Source/FilteringFunctions/arm_iir_lattice_q15.c ****   /* Processing is complete. Now copy last S->numStages samples to start of the buffer
 373:./Libraries/CMSIS/DSP/Source/FilteringFunctions/arm_iir_lattice_q15.c ****      for the preperation of next frame process */
 374:./Libraries/CMSIS/DSP/Source/FilteringFunctions/arm_iir_lattice_q15.c **** 
 375:./Libraries/CMSIS/DSP/Source/FilteringFunctions/arm_iir_lattice_q15.c ****   /* Points to the start of the state buffer */
 376:./Libraries/CMSIS/DSP/Source/FilteringFunctions/arm_iir_lattice_q15.c ****   pStateCur = &S->pState[0];
ARM GAS  /tmp/cc9jV1uH.s 			page 15


 377:./Libraries/CMSIS/DSP/Source/FilteringFunctions/arm_iir_lattice_q15.c ****   pState = &S->pState[blockSize];
 378:./Libraries/CMSIS/DSP/Source/FilteringFunctions/arm_iir_lattice_q15.c **** 
 379:./Libraries/CMSIS/DSP/Source/FilteringFunctions/arm_iir_lattice_q15.c ****   tapCnt = numStages;
 380:./Libraries/CMSIS/DSP/Source/FilteringFunctions/arm_iir_lattice_q15.c **** 
 381:./Libraries/CMSIS/DSP/Source/FilteringFunctions/arm_iir_lattice_q15.c ****   /* Copy data */
 382:./Libraries/CMSIS/DSP/Source/FilteringFunctions/arm_iir_lattice_q15.c ****   while (tapCnt > 0U)
 383:./Libraries/CMSIS/DSP/Source/FilteringFunctions/arm_iir_lattice_q15.c ****   {
 384:./Libraries/CMSIS/DSP/Source/FilteringFunctions/arm_iir_lattice_q15.c ****     *pStateCur++ = *pState++;
 385:./Libraries/CMSIS/DSP/Source/FilteringFunctions/arm_iir_lattice_q15.c **** 
 386:./Libraries/CMSIS/DSP/Source/FilteringFunctions/arm_iir_lattice_q15.c ****     /* Decrement loop counter */
 387:./Libraries/CMSIS/DSP/Source/FilteringFunctions/arm_iir_lattice_q15.c ****     tapCnt--;
 388:./Libraries/CMSIS/DSP/Source/FilteringFunctions/arm_iir_lattice_q15.c ****   }
 389:./Libraries/CMSIS/DSP/Source/FilteringFunctions/arm_iir_lattice_q15.c **** 
 390:./Libraries/CMSIS/DSP/Source/FilteringFunctions/arm_iir_lattice_q15.c **** #endif /* #if defined (ARM_MATH_DSP) */
 391:./Libraries/CMSIS/DSP/Source/FilteringFunctions/arm_iir_lattice_q15.c **** 
 392:./Libraries/CMSIS/DSP/Source/FilteringFunctions/arm_iir_lattice_q15.c **** }
 421              		.loc 1 392 1
 422 023e 00BF     		nop
 423 0240 00BF     		nop
 424 0242 7C37     		adds	r7, r7, #124
 425              	.LCFI3:
 426              		.cfi_def_cfa_offset 28
 427 0244 BD46     		mov	sp, r7
 428              	.LCFI4:
 429              		.cfi_def_cfa_register 13
 430              		@ sp needed
 431 0246 BDE8B00F 		pop	{r4, r5, r7, r8, r9, r10, fp}
 432              	.LCFI5:
 433              		.cfi_restore 11
 434              		.cfi_restore 10
 435              		.cfi_restore 9
 436              		.cfi_restore 8
 437              		.cfi_restore 7
 438              		.cfi_restore 5
 439              		.cfi_restore 4
 440              		.cfi_def_cfa_offset 0
 441 024a 7047     		bx	lr
 442              		.cfi_endproc
 443              	.LFE145:
 445              		.text
 446              	.Letext0:
 447              		.file 2 "/usr/lib/gcc/arm-none-eabi/9.2.1/include/stdint.h"
 448              		.file 3 "/usr/lib/gcc/arm-none-eabi/9.2.1/include/stddef.h"
 449              		.file 4 "/usr/include/newlib/sys/_types.h"
 450              		.file 5 "/usr/include/newlib/sys/reent.h"
 451              		.file 6 "/usr/include/newlib/sys/lock.h"
 452              		.file 7 "/usr/include/newlib/math.h"
 453              		.file 8 "./Libraries/CMSIS/DSP/Include/arm_math.h"
ARM GAS  /tmp/cc9jV1uH.s 			page 16

