ARM GAS  /tmp/ccsRY4dG.s 			page 1


   1              		.cpu cortex-m7
   2              		.eabi_attribute 28, 1
   3              		.eabi_attribute 20, 1
   4              		.eabi_attribute 21, 1
   5              		.eabi_attribute 23, 3
   6              		.eabi_attribute 24, 1
   7              		.eabi_attribute 25, 1
   8              		.eabi_attribute 26, 1
   9              		.eabi_attribute 30, 6
  10              		.eabi_attribute 34, 1
  11              		.eabi_attribute 18, 4
  12              		.file	"arm_convolve_HWC_q7_basic_nonsquare.c"
  13              		.text
  14              	.Ltext0:
  15              		.cfi_sections	.debug_frame
  16              		.section	.text.arm_convolve_HWC_q7_basic_nonsquare,"ax",%progbits
  17              		.align	1
  18              		.global	arm_convolve_HWC_q7_basic_nonsquare
  19              		.arch armv7e-m
  20              		.syntax unified
  21              		.thumb
  22              		.thumb_func
  23              		.fpu fpv5-d16
  25              	arm_convolve_HWC_q7_basic_nonsquare:
  26              	.LFB149:
  27              		.file 1 "./Libraries/CMSIS/NN/Source/ConvolutionFunctions/arm_convolve_HWC_q7_basic_nonsquare.c"
   1:./Libraries/CMSIS/NN/Source/ConvolutionFunctions/arm_convolve_HWC_q7_basic_nonsquare.c **** /*
   2:./Libraries/CMSIS/NN/Source/ConvolutionFunctions/arm_convolve_HWC_q7_basic_nonsquare.c ****  * Copyright (C) 2010-2018 Arm Limited or its affiliates. All rights reserved.
   3:./Libraries/CMSIS/NN/Source/ConvolutionFunctions/arm_convolve_HWC_q7_basic_nonsquare.c ****  *
   4:./Libraries/CMSIS/NN/Source/ConvolutionFunctions/arm_convolve_HWC_q7_basic_nonsquare.c ****  * SPDX-License-Identifier: Apache-2.0
   5:./Libraries/CMSIS/NN/Source/ConvolutionFunctions/arm_convolve_HWC_q7_basic_nonsquare.c ****  *
   6:./Libraries/CMSIS/NN/Source/ConvolutionFunctions/arm_convolve_HWC_q7_basic_nonsquare.c ****  * Licensed under the Apache License, Version 2.0 (the License); you may
   7:./Libraries/CMSIS/NN/Source/ConvolutionFunctions/arm_convolve_HWC_q7_basic_nonsquare.c ****  * not use this file except in compliance with the License.
   8:./Libraries/CMSIS/NN/Source/ConvolutionFunctions/arm_convolve_HWC_q7_basic_nonsquare.c ****  * You may obtain a copy of the License at
   9:./Libraries/CMSIS/NN/Source/ConvolutionFunctions/arm_convolve_HWC_q7_basic_nonsquare.c ****  *
  10:./Libraries/CMSIS/NN/Source/ConvolutionFunctions/arm_convolve_HWC_q7_basic_nonsquare.c ****  * www.apache.org/licenses/LICENSE-2.0
  11:./Libraries/CMSIS/NN/Source/ConvolutionFunctions/arm_convolve_HWC_q7_basic_nonsquare.c ****  *
  12:./Libraries/CMSIS/NN/Source/ConvolutionFunctions/arm_convolve_HWC_q7_basic_nonsquare.c ****  * Unless required by applicable law or agreed to in writing, software
  13:./Libraries/CMSIS/NN/Source/ConvolutionFunctions/arm_convolve_HWC_q7_basic_nonsquare.c ****  * distributed under the License is distributed on an AS IS BASIS, WITHOUT
  14:./Libraries/CMSIS/NN/Source/ConvolutionFunctions/arm_convolve_HWC_q7_basic_nonsquare.c ****  * WARRANTIES OR CONDITIONS OF ANY KIND, either express or implied.
  15:./Libraries/CMSIS/NN/Source/ConvolutionFunctions/arm_convolve_HWC_q7_basic_nonsquare.c ****  * See the License for the specific language governing permissions and
  16:./Libraries/CMSIS/NN/Source/ConvolutionFunctions/arm_convolve_HWC_q7_basic_nonsquare.c ****  * limitations under the License.
  17:./Libraries/CMSIS/NN/Source/ConvolutionFunctions/arm_convolve_HWC_q7_basic_nonsquare.c ****  */
  18:./Libraries/CMSIS/NN/Source/ConvolutionFunctions/arm_convolve_HWC_q7_basic_nonsquare.c **** 
  19:./Libraries/CMSIS/NN/Source/ConvolutionFunctions/arm_convolve_HWC_q7_basic_nonsquare.c **** /* ----------------------------------------------------------------------
  20:./Libraries/CMSIS/NN/Source/ConvolutionFunctions/arm_convolve_HWC_q7_basic_nonsquare.c ****  * Project:      CMSIS NN Library
  21:./Libraries/CMSIS/NN/Source/ConvolutionFunctions/arm_convolve_HWC_q7_basic_nonsquare.c ****  * Title:        arm_convolve_HWC_q7_basic.c
  22:./Libraries/CMSIS/NN/Source/ConvolutionFunctions/arm_convolve_HWC_q7_basic_nonsquare.c ****  * Description:	 Q7 version of convolution
  23:./Libraries/CMSIS/NN/Source/ConvolutionFunctions/arm_convolve_HWC_q7_basic_nonsquare.c ****  *
  24:./Libraries/CMSIS/NN/Source/ConvolutionFunctions/arm_convolve_HWC_q7_basic_nonsquare.c ****  * $Date:        13. July 2018
  25:./Libraries/CMSIS/NN/Source/ConvolutionFunctions/arm_convolve_HWC_q7_basic_nonsquare.c ****  * $Revision:    V.1.0.0
  26:./Libraries/CMSIS/NN/Source/ConvolutionFunctions/arm_convolve_HWC_q7_basic_nonsquare.c ****  *
  27:./Libraries/CMSIS/NN/Source/ConvolutionFunctions/arm_convolve_HWC_q7_basic_nonsquare.c ****  * Target Processor:  Cortex-M cores
  28:./Libraries/CMSIS/NN/Source/ConvolutionFunctions/arm_convolve_HWC_q7_basic_nonsquare.c ****  *
  29:./Libraries/CMSIS/NN/Source/ConvolutionFunctions/arm_convolve_HWC_q7_basic_nonsquare.c ****  * -------------------------------------------------------------------- */
  30:./Libraries/CMSIS/NN/Source/ConvolutionFunctions/arm_convolve_HWC_q7_basic_nonsquare.c **** #include "arm_math.h"
  31:./Libraries/CMSIS/NN/Source/ConvolutionFunctions/arm_convolve_HWC_q7_basic_nonsquare.c **** #include "arm_nnfunctions.h"
ARM GAS  /tmp/ccsRY4dG.s 			page 2


  32:./Libraries/CMSIS/NN/Source/ConvolutionFunctions/arm_convolve_HWC_q7_basic_nonsquare.c **** 
  33:./Libraries/CMSIS/NN/Source/ConvolutionFunctions/arm_convolve_HWC_q7_basic_nonsquare.c **** /**
  34:./Libraries/CMSIS/NN/Source/ConvolutionFunctions/arm_convolve_HWC_q7_basic_nonsquare.c ****  *  @ingroup groupNN
  35:./Libraries/CMSIS/NN/Source/ConvolutionFunctions/arm_convolve_HWC_q7_basic_nonsquare.c ****  */
  36:./Libraries/CMSIS/NN/Source/ConvolutionFunctions/arm_convolve_HWC_q7_basic_nonsquare.c **** 
  37:./Libraries/CMSIS/NN/Source/ConvolutionFunctions/arm_convolve_HWC_q7_basic_nonsquare.c **** /**
  38:./Libraries/CMSIS/NN/Source/ConvolutionFunctions/arm_convolve_HWC_q7_basic_nonsquare.c ****  * @addtogroup NNConv
  39:./Libraries/CMSIS/NN/Source/ConvolutionFunctions/arm_convolve_HWC_q7_basic_nonsquare.c ****  * @{
  40:./Libraries/CMSIS/NN/Source/ConvolutionFunctions/arm_convolve_HWC_q7_basic_nonsquare.c ****  */
  41:./Libraries/CMSIS/NN/Source/ConvolutionFunctions/arm_convolve_HWC_q7_basic_nonsquare.c **** 
  42:./Libraries/CMSIS/NN/Source/ConvolutionFunctions/arm_convolve_HWC_q7_basic_nonsquare.c ****   /**
  43:./Libraries/CMSIS/NN/Source/ConvolutionFunctions/arm_convolve_HWC_q7_basic_nonsquare.c ****    * @brief Basic Q7 convolution function (non-sqaure shape)
  44:./Libraries/CMSIS/NN/Source/ConvolutionFunctions/arm_convolve_HWC_q7_basic_nonsquare.c ****    * @param[in]       Im_in        pointer to input tensor
  45:./Libraries/CMSIS/NN/Source/ConvolutionFunctions/arm_convolve_HWC_q7_basic_nonsquare.c ****    * @param[in]       dim_im_in_x  input tensor dimention x
  46:./Libraries/CMSIS/NN/Source/ConvolutionFunctions/arm_convolve_HWC_q7_basic_nonsquare.c ****    * @param[in]       dim_im_in_y  input tensor dimention y
  47:./Libraries/CMSIS/NN/Source/ConvolutionFunctions/arm_convolve_HWC_q7_basic_nonsquare.c ****    * @param[in]       ch_im_in     number of input tensor channels
  48:./Libraries/CMSIS/NN/Source/ConvolutionFunctions/arm_convolve_HWC_q7_basic_nonsquare.c ****    * @param[in]       wt           pointer to kernel weights
  49:./Libraries/CMSIS/NN/Source/ConvolutionFunctions/arm_convolve_HWC_q7_basic_nonsquare.c ****    * @param[in]       ch_im_out    number of filters, i.e., output tensor channels
  50:./Libraries/CMSIS/NN/Source/ConvolutionFunctions/arm_convolve_HWC_q7_basic_nonsquare.c ****    * @param[in]       dim_kernel_x filter kernel size x
  51:./Libraries/CMSIS/NN/Source/ConvolutionFunctions/arm_convolve_HWC_q7_basic_nonsquare.c ****    * @param[in]       dim_kernel_y filter kernel size y
  52:./Libraries/CMSIS/NN/Source/ConvolutionFunctions/arm_convolve_HWC_q7_basic_nonsquare.c ****    * @param[in]       padding_x    padding size x
  53:./Libraries/CMSIS/NN/Source/ConvolutionFunctions/arm_convolve_HWC_q7_basic_nonsquare.c ****    * @param[in]       padding_y    padding size y
  54:./Libraries/CMSIS/NN/Source/ConvolutionFunctions/arm_convolve_HWC_q7_basic_nonsquare.c ****    * @param[in]       stride_x     convolution stride x
  55:./Libraries/CMSIS/NN/Source/ConvolutionFunctions/arm_convolve_HWC_q7_basic_nonsquare.c ****    * @param[in]       stride_y     convolution stride y
  56:./Libraries/CMSIS/NN/Source/ConvolutionFunctions/arm_convolve_HWC_q7_basic_nonsquare.c ****    * @param[in]       bias         pointer to bias
  57:./Libraries/CMSIS/NN/Source/ConvolutionFunctions/arm_convolve_HWC_q7_basic_nonsquare.c ****    * @param[in]       bias_shift   amount of left-shift for bias
  58:./Libraries/CMSIS/NN/Source/ConvolutionFunctions/arm_convolve_HWC_q7_basic_nonsquare.c ****    * @param[in]       out_shift    amount of right-shift for output
  59:./Libraries/CMSIS/NN/Source/ConvolutionFunctions/arm_convolve_HWC_q7_basic_nonsquare.c ****    * @param[in,out]   Im_out       pointer to output tensor
  60:./Libraries/CMSIS/NN/Source/ConvolutionFunctions/arm_convolve_HWC_q7_basic_nonsquare.c ****    * @param[in]       dim_im_out_x output tensor dimension x
  61:./Libraries/CMSIS/NN/Source/ConvolutionFunctions/arm_convolve_HWC_q7_basic_nonsquare.c ****    * @param[in]       dim_im_out_y output tensor dimension y
  62:./Libraries/CMSIS/NN/Source/ConvolutionFunctions/arm_convolve_HWC_q7_basic_nonsquare.c ****    * @param[in,out]   bufferA      pointer to buffer space for input
  63:./Libraries/CMSIS/NN/Source/ConvolutionFunctions/arm_convolve_HWC_q7_basic_nonsquare.c ****    * @param[in,out]   bufferB      pointer to buffer space for output
  64:./Libraries/CMSIS/NN/Source/ConvolutionFunctions/arm_convolve_HWC_q7_basic_nonsquare.c ****    * @return     The function returns <code>ARM_MATH_SUCCESS</code>
  65:./Libraries/CMSIS/NN/Source/ConvolutionFunctions/arm_convolve_HWC_q7_basic_nonsquare.c ****    */
  66:./Libraries/CMSIS/NN/Source/ConvolutionFunctions/arm_convolve_HWC_q7_basic_nonsquare.c **** 
  67:./Libraries/CMSIS/NN/Source/ConvolutionFunctions/arm_convolve_HWC_q7_basic_nonsquare.c **** arm_status arm_convolve_HWC_q7_basic_nonsquare(const q7_t * Im_in,
  68:./Libraries/CMSIS/NN/Source/ConvolutionFunctions/arm_convolve_HWC_q7_basic_nonsquare.c ****                                                const uint16_t dim_im_in_x,
  69:./Libraries/CMSIS/NN/Source/ConvolutionFunctions/arm_convolve_HWC_q7_basic_nonsquare.c ****                                                const uint16_t dim_im_in_y,
  70:./Libraries/CMSIS/NN/Source/ConvolutionFunctions/arm_convolve_HWC_q7_basic_nonsquare.c ****                                                const uint16_t ch_im_in,
  71:./Libraries/CMSIS/NN/Source/ConvolutionFunctions/arm_convolve_HWC_q7_basic_nonsquare.c ****                                                const q7_t * wt,
  72:./Libraries/CMSIS/NN/Source/ConvolutionFunctions/arm_convolve_HWC_q7_basic_nonsquare.c ****                                                const uint16_t ch_im_out,
  73:./Libraries/CMSIS/NN/Source/ConvolutionFunctions/arm_convolve_HWC_q7_basic_nonsquare.c ****                                                const uint16_t dim_kernel_x,
  74:./Libraries/CMSIS/NN/Source/ConvolutionFunctions/arm_convolve_HWC_q7_basic_nonsquare.c ****                                                const uint16_t dim_kernel_y,
  75:./Libraries/CMSIS/NN/Source/ConvolutionFunctions/arm_convolve_HWC_q7_basic_nonsquare.c ****                                                const uint16_t padding_x,
  76:./Libraries/CMSIS/NN/Source/ConvolutionFunctions/arm_convolve_HWC_q7_basic_nonsquare.c ****                                                const uint16_t padding_y,
  77:./Libraries/CMSIS/NN/Source/ConvolutionFunctions/arm_convolve_HWC_q7_basic_nonsquare.c ****                                                const uint16_t stride_x,
  78:./Libraries/CMSIS/NN/Source/ConvolutionFunctions/arm_convolve_HWC_q7_basic_nonsquare.c ****                                                const uint16_t stride_y,
  79:./Libraries/CMSIS/NN/Source/ConvolutionFunctions/arm_convolve_HWC_q7_basic_nonsquare.c ****                                                const q7_t * bias,
  80:./Libraries/CMSIS/NN/Source/ConvolutionFunctions/arm_convolve_HWC_q7_basic_nonsquare.c ****                                                const uint16_t bias_shift,
  81:./Libraries/CMSIS/NN/Source/ConvolutionFunctions/arm_convolve_HWC_q7_basic_nonsquare.c ****                                                const uint16_t out_shift,
  82:./Libraries/CMSIS/NN/Source/ConvolutionFunctions/arm_convolve_HWC_q7_basic_nonsquare.c ****                                                q7_t * Im_out,
  83:./Libraries/CMSIS/NN/Source/ConvolutionFunctions/arm_convolve_HWC_q7_basic_nonsquare.c ****                                                const uint16_t dim_im_out_x,
  84:./Libraries/CMSIS/NN/Source/ConvolutionFunctions/arm_convolve_HWC_q7_basic_nonsquare.c ****                                                const uint16_t dim_im_out_y,
  85:./Libraries/CMSIS/NN/Source/ConvolutionFunctions/arm_convolve_HWC_q7_basic_nonsquare.c ****                                                q15_t * bufferA,
  86:./Libraries/CMSIS/NN/Source/ConvolutionFunctions/arm_convolve_HWC_q7_basic_nonsquare.c ****                                                q7_t * bufferB)
  87:./Libraries/CMSIS/NN/Source/ConvolutionFunctions/arm_convolve_HWC_q7_basic_nonsquare.c **** {
  28              		.loc 1 87 1
ARM GAS  /tmp/ccsRY4dG.s 			page 3


  29              		.cfi_startproc
  30              		@ args = 64, pretend = 0, frame = 160
  31              		@ frame_needed = 1, uses_anonymous_args = 0
  32 0000 80B5     		push	{r7, lr}
  33              	.LCFI0:
  34              		.cfi_def_cfa_offset 8
  35              		.cfi_offset 7, -8
  36              		.cfi_offset 14, -4
  37 0002 ACB0     		sub	sp, sp, #176
  38              	.LCFI1:
  39              		.cfi_def_cfa_offset 184
  40 0004 04AF     		add	r7, sp, #16
  41              	.LCFI2:
  42              		.cfi_def_cfa 7, 168
  43 0006 F860     		str	r0, [r7, #12]
  44 0008 0846     		mov	r0, r1
  45 000a 1146     		mov	r1, r2
  46 000c 1A46     		mov	r2, r3
  47 000e 0346     		mov	r3, r0	@ movhi
  48 0010 7B81     		strh	r3, [r7, #10]	@ movhi
  49 0012 0B46     		mov	r3, r1	@ movhi
  50 0014 3B81     		strh	r3, [r7, #8]	@ movhi
  51 0016 1346     		mov	r3, r2	@ movhi
  52 0018 FB80     		strh	r3, [r7, #6]	@ movhi
  88:./Libraries/CMSIS/NN/Source/ConvolutionFunctions/arm_convolve_HWC_q7_basic_nonsquare.c **** 
  89:./Libraries/CMSIS/NN/Source/ConvolutionFunctions/arm_convolve_HWC_q7_basic_nonsquare.c **** #if defined (ARM_MATH_DSP)
  90:./Libraries/CMSIS/NN/Source/ConvolutionFunctions/arm_convolve_HWC_q7_basic_nonsquare.c ****     /* Run the following code for Cortex-M4 and Cortex-M7 */
  91:./Libraries/CMSIS/NN/Source/ConvolutionFunctions/arm_convolve_HWC_q7_basic_nonsquare.c **** 
  92:./Libraries/CMSIS/NN/Source/ConvolutionFunctions/arm_convolve_HWC_q7_basic_nonsquare.c ****     int16_t   i_out_y, i_out_x, i_ker_y, i_ker_x;
  93:./Libraries/CMSIS/NN/Source/ConvolutionFunctions/arm_convolve_HWC_q7_basic_nonsquare.c **** 
  94:./Libraries/CMSIS/NN/Source/ConvolutionFunctions/arm_convolve_HWC_q7_basic_nonsquare.c ****     /* 
  95:./Libraries/CMSIS/NN/Source/ConvolutionFunctions/arm_convolve_HWC_q7_basic_nonsquare.c ****      *  Here we use bufferA as q15_t internally as computation are done with q15_t level
  96:./Libraries/CMSIS/NN/Source/ConvolutionFunctions/arm_convolve_HWC_q7_basic_nonsquare.c ****      *  im2col are done to output in q15_t format from q7_t input
  97:./Libraries/CMSIS/NN/Source/ConvolutionFunctions/arm_convolve_HWC_q7_basic_nonsquare.c ****      */
  98:./Libraries/CMSIS/NN/Source/ConvolutionFunctions/arm_convolve_HWC_q7_basic_nonsquare.c ****     q15_t    *pBuffer = bufferA;
  53              		.loc 1 98 15
  54 001a D7F8E030 		ldr	r3, [r7, #224]
  55 001e C7F89430 		str	r3, [r7, #148]
  99:./Libraries/CMSIS/NN/Source/ConvolutionFunctions/arm_convolve_HWC_q7_basic_nonsquare.c ****     q7_t     *pOut = Im_out;
  56              		.loc 1 99 15
  57 0022 D7F8D430 		ldr	r3, [r7, #212]
  58 0026 C7F89030 		str	r3, [r7, #144]
 100:./Libraries/CMSIS/NN/Source/ConvolutionFunctions/arm_convolve_HWC_q7_basic_nonsquare.c **** 
 101:./Libraries/CMSIS/NN/Source/ConvolutionFunctions/arm_convolve_HWC_q7_basic_nonsquare.c ****     /* This part implements the im2col function */
 102:./Libraries/CMSIS/NN/Source/ConvolutionFunctions/arm_convolve_HWC_q7_basic_nonsquare.c ****     for (i_out_y = 0; i_out_y < dim_im_out_y; i_out_y++)
  59              		.loc 1 102 18
  60 002a 0023     		movs	r3, #0
  61 002c A7F89E30 		strh	r3, [r7, #158]	@ movhi
  62              		.loc 1 102 5
  63 0030 CFE0     		b	.L2
  64              	.L13:
 103:./Libraries/CMSIS/NN/Source/ConvolutionFunctions/arm_convolve_HWC_q7_basic_nonsquare.c ****     {
 104:./Libraries/CMSIS/NN/Source/ConvolutionFunctions/arm_convolve_HWC_q7_basic_nonsquare.c ****         for (i_out_x = 0; i_out_x < dim_im_out_x; i_out_x++)
  65              		.loc 1 104 22
  66 0032 0023     		movs	r3, #0
  67 0034 A7F89C30 		strh	r3, [r7, #156]	@ movhi
  68              		.loc 1 104 9
ARM GAS  /tmp/ccsRY4dG.s 			page 4


  69 0038 BDE0     		b	.L3
  70              	.L12:
 105:./Libraries/CMSIS/NN/Source/ConvolutionFunctions/arm_convolve_HWC_q7_basic_nonsquare.c ****         {
 106:./Libraries/CMSIS/NN/Source/ConvolutionFunctions/arm_convolve_HWC_q7_basic_nonsquare.c ****             for (i_ker_y = i_out_y * stride_y - padding_y; i_ker_y < i_out_y * stride_y - padding_y
  71              		.loc 1 106 47
  72 003a B7F89E30 		ldrh	r3, [r7, #158]
  73 003e B7F8C420 		ldrh	r2, [r7, #196]	@ movhi
  74 0042 12FB03F3 		smulbb	r3, r2, r3
  75 0046 9AB2     		uxth	r2, r3
  76 0048 B7F8BC30 		ldrh	r3, [r7, #188]	@ movhi
  77 004c D31A     		subs	r3, r2, r3
  78 004e 9BB2     		uxth	r3, r3
  79              		.loc 1 106 26
  80 0050 A7F89A30 		strh	r3, [r7, #154]	@ movhi
  81              		.loc 1 106 13
  82 0054 61E0     		b	.L4
  83              	.L10:
 107:./Libraries/CMSIS/NN/Source/ConvolutionFunctions/arm_convolve_HWC_q7_basic_nonsquare.c ****             {
 108:./Libraries/CMSIS/NN/Source/ConvolutionFunctions/arm_convolve_HWC_q7_basic_nonsquare.c ****                 for (i_ker_x = i_out_x * stride_x - padding_x; i_ker_x < i_out_x * stride_x - paddi
  84              		.loc 1 108 51
  85 0056 B7F89C30 		ldrh	r3, [r7, #156]
  86 005a B7F8C020 		ldrh	r2, [r7, #192]	@ movhi
  87 005e 12FB03F3 		smulbb	r3, r2, r3
  88 0062 9AB2     		uxth	r2, r3
  89 0064 B7F8B830 		ldrh	r3, [r7, #184]	@ movhi
  90 0068 D31A     		subs	r3, r2, r3
  91 006a 9BB2     		uxth	r3, r3
  92              		.loc 1 108 30
  93 006c A7F89830 		strh	r3, [r7, #152]	@ movhi
  94              		.loc 1 108 17
  95 0070 3CE0     		b	.L5
  96              	.L9:
 109:./Libraries/CMSIS/NN/Source/ConvolutionFunctions/arm_convolve_HWC_q7_basic_nonsquare.c ****                 {
 110:./Libraries/CMSIS/NN/Source/ConvolutionFunctions/arm_convolve_HWC_q7_basic_nonsquare.c ****                     if (i_ker_y < 0 || i_ker_y >= dim_im_in_y || i_ker_x < 0 || i_ker_x >= dim_im_i
  97              		.loc 1 110 24
  98 0072 B7F99A30 		ldrsh	r3, [r7, #154]
  99 0076 002B     		cmp	r3, #0
 100 0078 0DDB     		blt	.L6
 101              		.loc 1 110 48 discriminator 1
 102 007a B7F99A20 		ldrsh	r2, [r7, #154]
 103 007e 3B89     		ldrh	r3, [r7, #8]
 104              		.loc 1 110 37 discriminator 1
 105 0080 9A42     		cmp	r2, r3
 106 0082 08DA     		bge	.L6
 107              		.loc 1 110 63 discriminator 2
 108 0084 B7F99830 		ldrsh	r3, [r7, #152]
 109 0088 002B     		cmp	r3, #0
 110 008a 04DB     		blt	.L6
 111              		.loc 1 110 89 discriminator 3
 112 008c B7F99820 		ldrsh	r2, [r7, #152]
 113 0090 7B89     		ldrh	r3, [r7, #10]
 114              		.loc 1 110 78 discriminator 3
 115 0092 9A42     		cmp	r2, r3
 116 0094 08DB     		blt	.L7
 117              	.L6:
 111:./Libraries/CMSIS/NN/Source/ConvolutionFunctions/arm_convolve_HWC_q7_basic_nonsquare.c ****                     {
 112:./Libraries/CMSIS/NN/Source/ConvolutionFunctions/arm_convolve_HWC_q7_basic_nonsquare.c ****                         /* Filling 0 for out-of-bound paddings */
ARM GAS  /tmp/ccsRY4dG.s 			page 5


 113:./Libraries/CMSIS/NN/Source/ConvolutionFunctions/arm_convolve_HWC_q7_basic_nonsquare.c ****                         /* arm_fill_q15(0, pBuffer, ch_im_in); */
 114:./Libraries/CMSIS/NN/Source/ConvolutionFunctions/arm_convolve_HWC_q7_basic_nonsquare.c ****                         memset(pBuffer, 0, sizeof(q15_t)*ch_im_in);
 118              		.loc 1 114 25
 119 0096 FB88     		ldrh	r3, [r7, #6]
 120 0098 5B00     		lsls	r3, r3, #1
 121 009a 1A46     		mov	r2, r3
 122 009c 0021     		movs	r1, #0
 123 009e D7F89400 		ldr	r0, [r7, #148]
 124 00a2 FFF7FEFF 		bl	memset
 125 00a6 13E0     		b	.L8
 126              	.L7:
 115:./Libraries/CMSIS/NN/Source/ConvolutionFunctions/arm_convolve_HWC_q7_basic_nonsquare.c ****                     } else
 116:./Libraries/CMSIS/NN/Source/ConvolutionFunctions/arm_convolve_HWC_q7_basic_nonsquare.c ****                     {
 117:./Libraries/CMSIS/NN/Source/ConvolutionFunctions/arm_convolve_HWC_q7_basic_nonsquare.c ****                         /* Copying the pixel data to column */
 118:./Libraries/CMSIS/NN/Source/ConvolutionFunctions/arm_convolve_HWC_q7_basic_nonsquare.c ****                         arm_q7_to_q15_no_shift((q7_t *)
 119:./Libraries/CMSIS/NN/Source/ConvolutionFunctions/arm_convolve_HWC_q7_basic_nonsquare.c ****                                                Im_in + (i_ker_y * dim_im_in_x + i_ker_x) * ch_im_in
 127              		.loc 1 119 65
 128 00a8 B7F99A30 		ldrsh	r3, [r7, #154]
 129 00ac 7A89     		ldrh	r2, [r7, #10]
 130 00ae 02FB03F2 		mul	r2, r2, r3
 131              		.loc 1 119 79
 132 00b2 B7F99830 		ldrsh	r3, [r7, #152]
 133 00b6 1344     		add	r3, r3, r2
 134              		.loc 1 119 90
 135 00b8 FA88     		ldrh	r2, [r7, #6]
 136 00ba 02FB03F3 		mul	r3, r2, r3
 137 00be 1A46     		mov	r2, r3
 118:./Libraries/CMSIS/NN/Source/ConvolutionFunctions/arm_convolve_HWC_q7_basic_nonsquare.c ****                                                Im_in + (i_ker_y * dim_im_in_x + i_ker_x) * ch_im_in
 138              		.loc 1 118 25
 139 00c0 FB68     		ldr	r3, [r7, #12]
 140 00c2 1344     		add	r3, r3, r2
 141 00c4 FA88     		ldrh	r2, [r7, #6]
 142 00c6 D7F89410 		ldr	r1, [r7, #148]
 143 00ca 1846     		mov	r0, r3
 144 00cc FFF7FEFF 		bl	arm_q7_to_q15_no_shift
 145              	.L8:
 120:./Libraries/CMSIS/NN/Source/ConvolutionFunctions/arm_convolve_HWC_q7_basic_nonsquare.c ****                     }
 121:./Libraries/CMSIS/NN/Source/ConvolutionFunctions/arm_convolve_HWC_q7_basic_nonsquare.c ****                     pBuffer += ch_im_in;
 146              		.loc 1 121 29 discriminator 2
 147 00d0 FB88     		ldrh	r3, [r7, #6]
 148 00d2 5B00     		lsls	r3, r3, #1
 149 00d4 D7F89420 		ldr	r2, [r7, #148]
 150 00d8 1344     		add	r3, r3, r2
 151 00da C7F89430 		str	r3, [r7, #148]
 108:./Libraries/CMSIS/NN/Source/ConvolutionFunctions/arm_convolve_HWC_q7_basic_nonsquare.c ****                 {
 152              		.loc 1 108 128 discriminator 2
 153 00de B7F99830 		ldrsh	r3, [r7, #152]
 154 00e2 9BB2     		uxth	r3, r3
 155 00e4 0133     		adds	r3, r3, #1
 156 00e6 9BB2     		uxth	r3, r3
 157 00e8 A7F89830 		strh	r3, [r7, #152]	@ movhi
 158              	.L5:
 108:./Libraries/CMSIS/NN/Source/ConvolutionFunctions/arm_convolve_HWC_q7_basic_nonsquare.c ****                 {
 159              		.loc 1 108 72 discriminator 1
 160 00ec B7F99820 		ldrsh	r2, [r7, #152]
 108:./Libraries/CMSIS/NN/Source/ConvolutionFunctions/arm_convolve_HWC_q7_basic_nonsquare.c ****                 {
 161              		.loc 1 108 82 discriminator 1
ARM GAS  /tmp/ccsRY4dG.s 			page 6


 162 00f0 B7F99C30 		ldrsh	r3, [r7, #156]
 163 00f4 B7F8C010 		ldrh	r1, [r7, #192]
 164 00f8 01FB03F1 		mul	r1, r1, r3
 108:./Libraries/CMSIS/NN/Source/ConvolutionFunctions/arm_convolve_HWC_q7_basic_nonsquare.c ****                 {
 165              		.loc 1 108 93 discriminator 1
 166 00fc B7F8B830 		ldrh	r3, [r7, #184]
 167 0100 C91A     		subs	r1, r1, r3
 108:./Libraries/CMSIS/NN/Source/ConvolutionFunctions/arm_convolve_HWC_q7_basic_nonsquare.c ****                 {
 168              		.loc 1 108 105 discriminator 1
 169 0102 B7F8B030 		ldrh	r3, [r7, #176]
 170 0106 0B44     		add	r3, r3, r1
 108:./Libraries/CMSIS/NN/Source/ConvolutionFunctions/arm_convolve_HWC_q7_basic_nonsquare.c ****                 {
 171              		.loc 1 108 17 discriminator 1
 172 0108 9A42     		cmp	r2, r3
 173 010a B2DB     		blt	.L9
 106:./Libraries/CMSIS/NN/Source/ConvolutionFunctions/arm_convolve_HWC_q7_basic_nonsquare.c ****             {
 174              		.loc 1 106 124 discriminator 2
 175 010c B7F99A30 		ldrsh	r3, [r7, #154]
 176 0110 9BB2     		uxth	r3, r3
 177 0112 0133     		adds	r3, r3, #1
 178 0114 9BB2     		uxth	r3, r3
 179 0116 A7F89A30 		strh	r3, [r7, #154]	@ movhi
 180              	.L4:
 106:./Libraries/CMSIS/NN/Source/ConvolutionFunctions/arm_convolve_HWC_q7_basic_nonsquare.c ****             {
 181              		.loc 1 106 68 discriminator 1
 182 011a B7F99A20 		ldrsh	r2, [r7, #154]
 106:./Libraries/CMSIS/NN/Source/ConvolutionFunctions/arm_convolve_HWC_q7_basic_nonsquare.c ****             {
 183              		.loc 1 106 78 discriminator 1
 184 011e B7F99E30 		ldrsh	r3, [r7, #158]
 185 0122 B7F8C410 		ldrh	r1, [r7, #196]
 186 0126 01FB03F1 		mul	r1, r1, r3
 106:./Libraries/CMSIS/NN/Source/ConvolutionFunctions/arm_convolve_HWC_q7_basic_nonsquare.c ****             {
 187              		.loc 1 106 89 discriminator 1
 188 012a B7F8BC30 		ldrh	r3, [r7, #188]
 189 012e C91A     		subs	r1, r1, r3
 106:./Libraries/CMSIS/NN/Source/ConvolutionFunctions/arm_convolve_HWC_q7_basic_nonsquare.c ****             {
 190              		.loc 1 106 101 discriminator 1
 191 0130 B7F8B430 		ldrh	r3, [r7, #180]
 192 0134 0B44     		add	r3, r3, r1
 106:./Libraries/CMSIS/NN/Source/ConvolutionFunctions/arm_convolve_HWC_q7_basic_nonsquare.c ****             {
 193              		.loc 1 106 13 discriminator 1
 194 0136 9A42     		cmp	r2, r3
 195 0138 8DDB     		blt	.L10
 122:./Libraries/CMSIS/NN/Source/ConvolutionFunctions/arm_convolve_HWC_q7_basic_nonsquare.c ****                 }
 123:./Libraries/CMSIS/NN/Source/ConvolutionFunctions/arm_convolve_HWC_q7_basic_nonsquare.c ****             }
 124:./Libraries/CMSIS/NN/Source/ConvolutionFunctions/arm_convolve_HWC_q7_basic_nonsquare.c **** 
 125:./Libraries/CMSIS/NN/Source/ConvolutionFunctions/arm_convolve_HWC_q7_basic_nonsquare.c ****             /* Computation is filed for every 2 columns */
 126:./Libraries/CMSIS/NN/Source/ConvolutionFunctions/arm_convolve_HWC_q7_basic_nonsquare.c ****             if (pBuffer == bufferA + 2 * ch_im_in * dim_kernel_y * dim_kernel_x)
 196              		.loc 1 126 51
 197 013a FB88     		ldrh	r3, [r7, #6]
 198 013c B7F8B420 		ldrh	r2, [r7, #180]
 199 0140 02FB03F3 		mul	r3, r2, r3
 200              		.loc 1 126 66
 201 0144 B7F8B020 		ldrh	r2, [r7, #176]
 202 0148 02FB03F3 		mul	r3, r2, r3
 203              		.loc 1 126 36
 204 014c 9B00     		lsls	r3, r3, #2
ARM GAS  /tmp/ccsRY4dG.s 			page 7


 205 014e D7F8E020 		ldr	r2, [r7, #224]
 206 0152 1344     		add	r3, r3, r2
 207              		.loc 1 126 16
 208 0154 D7F89420 		ldr	r2, [r7, #148]
 209 0158 9A42     		cmp	r2, r3
 210 015a 25D1     		bne	.L11
 127:./Libraries/CMSIS/NN/Source/ConvolutionFunctions/arm_convolve_HWC_q7_basic_nonsquare.c ****             {
 128:./Libraries/CMSIS/NN/Source/ConvolutionFunctions/arm_convolve_HWC_q7_basic_nonsquare.c ****                 pOut =
 129:./Libraries/CMSIS/NN/Source/ConvolutionFunctions/arm_convolve_HWC_q7_basic_nonsquare.c ****                     arm_nn_mat_mult_kernel_q7_q15(wt, bufferA,
 211              		.loc 1 129 21
 212 015c FA88     		ldrh	r2, [r7, #6]	@ movhi
 213 015e B7F8B430 		ldrh	r3, [r7, #180]	@ movhi
 214 0162 12FB03F3 		smulbb	r3, r2, r3
 215 0166 9BB2     		uxth	r3, r3
 216 0168 B7F8B020 		ldrh	r2, [r7, #176]	@ movhi
 217 016c 12FB03F3 		smulbb	r3, r2, r3
 218 0170 99B2     		uxth	r1, r3
 219 0172 B7F8AC20 		ldrh	r2, [r7, #172]
 220 0176 D7F89030 		ldr	r3, [r7, #144]
 221 017a 0393     		str	r3, [sp, #12]
 222 017c D7F8C830 		ldr	r3, [r7, #200]
 223 0180 0293     		str	r3, [sp, #8]
 224 0182 B7F8D030 		ldrh	r3, [r7, #208]
 225 0186 0193     		str	r3, [sp, #4]
 226 0188 B7F8CC30 		ldrh	r3, [r7, #204]
 227 018c 0093     		str	r3, [sp]
 228 018e 0B46     		mov	r3, r1
 229 0190 D7F8E010 		ldr	r1, [r7, #224]
 230 0194 D7F8A800 		ldr	r0, [r7, #168]
 231 0198 FFF7FEFF 		bl	arm_nn_mat_mult_kernel_q7_q15
 232 019c C7F89000 		str	r0, [r7, #144]
 130:./Libraries/CMSIS/NN/Source/ConvolutionFunctions/arm_convolve_HWC_q7_basic_nonsquare.c ****                                                   ch_im_out,
 131:./Libraries/CMSIS/NN/Source/ConvolutionFunctions/arm_convolve_HWC_q7_basic_nonsquare.c ****                                                   ch_im_in *
 132:./Libraries/CMSIS/NN/Source/ConvolutionFunctions/arm_convolve_HWC_q7_basic_nonsquare.c ****                                                   dim_kernel_y * dim_kernel_x, bias_shift, out_shif
 133:./Libraries/CMSIS/NN/Source/ConvolutionFunctions/arm_convolve_HWC_q7_basic_nonsquare.c **** 
 134:./Libraries/CMSIS/NN/Source/ConvolutionFunctions/arm_convolve_HWC_q7_basic_nonsquare.c ****                 /* counter reset */
 135:./Libraries/CMSIS/NN/Source/ConvolutionFunctions/arm_convolve_HWC_q7_basic_nonsquare.c ****                 pBuffer = bufferA;
 233              		.loc 1 135 25
 234 01a0 D7F8E030 		ldr	r3, [r7, #224]
 235 01a4 C7F89430 		str	r3, [r7, #148]
 236              	.L11:
 104:./Libraries/CMSIS/NN/Source/ConvolutionFunctions/arm_convolve_HWC_q7_basic_nonsquare.c ****         {
 237              		.loc 1 104 58 discriminator 2
 238 01a8 B7F99C30 		ldrsh	r3, [r7, #156]
 239 01ac 9BB2     		uxth	r3, r3
 240 01ae 0133     		adds	r3, r3, #1
 241 01b0 9BB2     		uxth	r3, r3
 242 01b2 A7F89C30 		strh	r3, [r7, #156]	@ movhi
 243              	.L3:
 104:./Libraries/CMSIS/NN/Source/ConvolutionFunctions/arm_convolve_HWC_q7_basic_nonsquare.c ****         {
 244              		.loc 1 104 35 discriminator 1
 245 01b6 B7F99C20 		ldrsh	r2, [r7, #156]
 246 01ba B7F8D830 		ldrh	r3, [r7, #216]
 104:./Libraries/CMSIS/NN/Source/ConvolutionFunctions/arm_convolve_HWC_q7_basic_nonsquare.c ****         {
 247              		.loc 1 104 9 discriminator 1
 248 01be 9A42     		cmp	r2, r3
 249 01c0 FFF63BAF 		blt	.L12
ARM GAS  /tmp/ccsRY4dG.s 			page 8


 102:./Libraries/CMSIS/NN/Source/ConvolutionFunctions/arm_convolve_HWC_q7_basic_nonsquare.c ****     {
 250              		.loc 1 102 54 discriminator 2
 251 01c4 B7F99E30 		ldrsh	r3, [r7, #158]
 252 01c8 9BB2     		uxth	r3, r3
 253 01ca 0133     		adds	r3, r3, #1
 254 01cc 9BB2     		uxth	r3, r3
 255 01ce A7F89E30 		strh	r3, [r7, #158]	@ movhi
 256              	.L2:
 102:./Libraries/CMSIS/NN/Source/ConvolutionFunctions/arm_convolve_HWC_q7_basic_nonsquare.c ****     {
 257              		.loc 1 102 31 discriminator 1
 258 01d2 B7F99E20 		ldrsh	r2, [r7, #158]
 259 01d6 B7F8DC30 		ldrh	r3, [r7, #220]
 102:./Libraries/CMSIS/NN/Source/ConvolutionFunctions/arm_convolve_HWC_q7_basic_nonsquare.c ****     {
 260              		.loc 1 102 5 discriminator 1
 261 01da 9A42     		cmp	r2, r3
 262 01dc FFF629AF 		blt	.L13
 136:./Libraries/CMSIS/NN/Source/ConvolutionFunctions/arm_convolve_HWC_q7_basic_nonsquare.c ****             }
 137:./Libraries/CMSIS/NN/Source/ConvolutionFunctions/arm_convolve_HWC_q7_basic_nonsquare.c ****         }
 138:./Libraries/CMSIS/NN/Source/ConvolutionFunctions/arm_convolve_HWC_q7_basic_nonsquare.c ****     }
 139:./Libraries/CMSIS/NN/Source/ConvolutionFunctions/arm_convolve_HWC_q7_basic_nonsquare.c **** 
 140:./Libraries/CMSIS/NN/Source/ConvolutionFunctions/arm_convolve_HWC_q7_basic_nonsquare.c ****     /* left-over because odd number of output pixels */
 141:./Libraries/CMSIS/NN/Source/ConvolutionFunctions/arm_convolve_HWC_q7_basic_nonsquare.c ****     if (pBuffer != bufferA)
 263              		.loc 1 141 8
 264 01e0 D7F89420 		ldr	r2, [r7, #148]
 265 01e4 D7F8E030 		ldr	r3, [r7, #224]
 266 01e8 9A42     		cmp	r2, r3
 267 01ea 00F0FC80 		beq	.L14
 268              	.LBB25:
 142:./Libraries/CMSIS/NN/Source/ConvolutionFunctions/arm_convolve_HWC_q7_basic_nonsquare.c ****     {
 143:./Libraries/CMSIS/NN/Source/ConvolutionFunctions/arm_convolve_HWC_q7_basic_nonsquare.c ****         const q7_t *pA = wt;
 269              		.loc 1 143 21
 270 01ee D7F8A830 		ldr	r3, [r7, #168]
 271 01f2 C7F88C30 		str	r3, [r7, #140]
 144:./Libraries/CMSIS/NN/Source/ConvolutionFunctions/arm_convolve_HWC_q7_basic_nonsquare.c ****         int       i;
 145:./Libraries/CMSIS/NN/Source/ConvolutionFunctions/arm_convolve_HWC_q7_basic_nonsquare.c **** 
 146:./Libraries/CMSIS/NN/Source/ConvolutionFunctions/arm_convolve_HWC_q7_basic_nonsquare.c ****         for (i = 0; i < ch_im_out; i++)
 272              		.loc 1 146 16
 273 01f6 0023     		movs	r3, #0
 274 01f8 C7F88830 		str	r3, [r7, #136]
 275              		.loc 1 146 9
 276 01fc ECE0     		b	.L15
 277              	.L27:
 278              	.LBB26:
 147:./Libraries/CMSIS/NN/Source/ConvolutionFunctions/arm_convolve_HWC_q7_basic_nonsquare.c ****         {
 148:./Libraries/CMSIS/NN/Source/ConvolutionFunctions/arm_convolve_HWC_q7_basic_nonsquare.c ****             /* Load the accumulator with bias first */
 149:./Libraries/CMSIS/NN/Source/ConvolutionFunctions/arm_convolve_HWC_q7_basic_nonsquare.c ****             q31_t     sum = ((q31_t)bias[i] << bias_shift) + NN_ROUND(out_shift);
 279              		.loc 1 149 41
 280 01fe D7F88830 		ldr	r3, [r7, #136]
 281 0202 D7F8C820 		ldr	r2, [r7, #200]
 282 0206 1344     		add	r3, r3, r2
 283 0208 93F90030 		ldrsb	r3, [r3]
 284              		.loc 1 149 30
 285 020c 1A46     		mov	r2, r3
 286              		.loc 1 149 45
 287 020e B7F8CC30 		ldrh	r3, [r7, #204]
 288 0212 02FA03F3 		lsl	r3, r2, r3
 289 0216 1946     		mov	r1, r3
ARM GAS  /tmp/ccsRY4dG.s 			page 9


 290              		.loc 1 149 62
 291 0218 B7F8D030 		ldrh	r3, [r7, #208]
 292 021c 0122     		movs	r2, #1
 293 021e 02FA03F3 		lsl	r3, r2, r3
 294 0222 5B08     		lsrs	r3, r3, #1
 295              		.loc 1 149 60
 296 0224 0B44     		add	r3, r3, r1
 297              		.loc 1 149 23
 298 0226 C7F88430 		str	r3, [r7, #132]
 150:./Libraries/CMSIS/NN/Source/ConvolutionFunctions/arm_convolve_HWC_q7_basic_nonsquare.c **** 
 151:./Libraries/CMSIS/NN/Source/ConvolutionFunctions/arm_convolve_HWC_q7_basic_nonsquare.c ****             /* Point to the beging of the im2col buffer */
 152:./Libraries/CMSIS/NN/Source/ConvolutionFunctions/arm_convolve_HWC_q7_basic_nonsquare.c ****             q15_t    *pB = bufferA;
 299              		.loc 1 152 23
 300 022a D7F8E030 		ldr	r3, [r7, #224]
 301 022e FB61     		str	r3, [r7, #28]
 153:./Libraries/CMSIS/NN/Source/ConvolutionFunctions/arm_convolve_HWC_q7_basic_nonsquare.c **** 
 154:./Libraries/CMSIS/NN/Source/ConvolutionFunctions/arm_convolve_HWC_q7_basic_nonsquare.c ****             /* Each time it process 4 entries */
 155:./Libraries/CMSIS/NN/Source/ConvolutionFunctions/arm_convolve_HWC_q7_basic_nonsquare.c ****             uint16_t  colCnt = ch_im_in * dim_kernel_y * dim_kernel_x >> 2;
 302              		.loc 1 155 41
 303 0230 FB88     		ldrh	r3, [r7, #6]
 304 0232 B7F8B420 		ldrh	r2, [r7, #180]
 305 0236 02FB03F3 		mul	r3, r2, r3
 306              		.loc 1 155 56
 307 023a B7F8B020 		ldrh	r2, [r7, #176]
 308 023e 02FB03F3 		mul	r3, r2, r3
 309              		.loc 1 155 71
 310 0242 9B10     		asrs	r3, r3, #2
 311              		.loc 1 155 23
 312 0244 A7F88230 		strh	r3, [r7, #130]	@ movhi
 156:./Libraries/CMSIS/NN/Source/ConvolutionFunctions/arm_convolve_HWC_q7_basic_nonsquare.c **** 
 157:./Libraries/CMSIS/NN/Source/ConvolutionFunctions/arm_convolve_HWC_q7_basic_nonsquare.c ****             while (colCnt)
 313              		.loc 1 157 19
 314 0248 78E0     		b	.L16
 315              	.L24:
 316 024a D7F88C30 		ldr	r3, [r7, #140]
 317 024e 3B61     		str	r3, [r7, #16]
 318 0250 07F11803 		add	r3, r7, #24
 319 0254 BB64     		str	r3, [r7, #72]
 320 0256 07F11403 		add	r3, r7, #20
 321 025a 7B64     		str	r3, [r7, #68]
 322              	.LBB27:
 323              	.LBB28:
 324              	.LBB29:
 325              		.file 2 "./Libraries/CMSIS/NN/Include/arm_nnsupportfunctions.h"
   1:./Libraries/CMSIS/NN/Include/arm_nnsupportfunctions.h **** /*
   2:./Libraries/CMSIS/NN/Include/arm_nnsupportfunctions.h ****  * Copyright (C) 2010-2018 Arm Limited or its affiliates. All rights reserved.
   3:./Libraries/CMSIS/NN/Include/arm_nnsupportfunctions.h ****  *
   4:./Libraries/CMSIS/NN/Include/arm_nnsupportfunctions.h ****  * SPDX-License-Identifier: Apache-2.0
   5:./Libraries/CMSIS/NN/Include/arm_nnsupportfunctions.h ****  *
   6:./Libraries/CMSIS/NN/Include/arm_nnsupportfunctions.h ****  * Licensed under the Apache License, Version 2.0 (the License); you may
   7:./Libraries/CMSIS/NN/Include/arm_nnsupportfunctions.h ****  * not use this file except in compliance with the License.
   8:./Libraries/CMSIS/NN/Include/arm_nnsupportfunctions.h ****  * You may obtain a copy of the License at
   9:./Libraries/CMSIS/NN/Include/arm_nnsupportfunctions.h ****  *
  10:./Libraries/CMSIS/NN/Include/arm_nnsupportfunctions.h ****  * www.apache.org/licenses/LICENSE-2.0
  11:./Libraries/CMSIS/NN/Include/arm_nnsupportfunctions.h ****  *
  12:./Libraries/CMSIS/NN/Include/arm_nnsupportfunctions.h ****  * Unless required by applicable law or agreed to in writing, software
  13:./Libraries/CMSIS/NN/Include/arm_nnsupportfunctions.h ****  * distributed under the License is distributed on an AS IS BASIS, WITHOUT
ARM GAS  /tmp/ccsRY4dG.s 			page 10


  14:./Libraries/CMSIS/NN/Include/arm_nnsupportfunctions.h ****  * WARRANTIES OR CONDITIONS OF ANY KIND, either express or implied.
  15:./Libraries/CMSIS/NN/Include/arm_nnsupportfunctions.h ****  * See the License for the specific language governing permissions and
  16:./Libraries/CMSIS/NN/Include/arm_nnsupportfunctions.h ****  * limitations under the License.
  17:./Libraries/CMSIS/NN/Include/arm_nnsupportfunctions.h ****  */
  18:./Libraries/CMSIS/NN/Include/arm_nnsupportfunctions.h **** 
  19:./Libraries/CMSIS/NN/Include/arm_nnsupportfunctions.h **** /* ----------------------------------------------------------------------
  20:./Libraries/CMSIS/NN/Include/arm_nnsupportfunctions.h ****  * Project:      CMSIS NN Library
  21:./Libraries/CMSIS/NN/Include/arm_nnsupportfunctions.h ****  * Title:        arm_nnsupportfunctions.h
  22:./Libraries/CMSIS/NN/Include/arm_nnsupportfunctions.h ****  * Description:  Public header file of support functions for CMSIS NN Library
  23:./Libraries/CMSIS/NN/Include/arm_nnsupportfunctions.h ****  *
  24:./Libraries/CMSIS/NN/Include/arm_nnsupportfunctions.h ****  * $Date:        13. July 2018
  25:./Libraries/CMSIS/NN/Include/arm_nnsupportfunctions.h ****  * $Revision:    V.1.0.0
  26:./Libraries/CMSIS/NN/Include/arm_nnsupportfunctions.h ****  *
  27:./Libraries/CMSIS/NN/Include/arm_nnsupportfunctions.h ****  * Target Processor:  Cortex-M cores
  28:./Libraries/CMSIS/NN/Include/arm_nnsupportfunctions.h ****  * -------------------------------------------------------------------- */
  29:./Libraries/CMSIS/NN/Include/arm_nnsupportfunctions.h **** 
  30:./Libraries/CMSIS/NN/Include/arm_nnsupportfunctions.h **** #ifndef _ARM_NNSUPPORTFUNCTIONS_H_
  31:./Libraries/CMSIS/NN/Include/arm_nnsupportfunctions.h **** #define _ARM_NNSUPPORTFUNCTIONS_H_
  32:./Libraries/CMSIS/NN/Include/arm_nnsupportfunctions.h **** 
  33:./Libraries/CMSIS/NN/Include/arm_nnsupportfunctions.h **** #include "arm_math.h"
  34:./Libraries/CMSIS/NN/Include/arm_nnsupportfunctions.h **** #include "arm_common_tables.h"
  35:./Libraries/CMSIS/NN/Include/arm_nnsupportfunctions.h **** 
  36:./Libraries/CMSIS/NN/Include/arm_nnsupportfunctions.h **** #ifdef __cplusplus
  37:./Libraries/CMSIS/NN/Include/arm_nnsupportfunctions.h **** extern    "C"
  38:./Libraries/CMSIS/NN/Include/arm_nnsupportfunctions.h **** {
  39:./Libraries/CMSIS/NN/Include/arm_nnsupportfunctions.h **** #endif
  40:./Libraries/CMSIS/NN/Include/arm_nnsupportfunctions.h **** 
  41:./Libraries/CMSIS/NN/Include/arm_nnsupportfunctions.h **** #define LEFT_SHIFT(_shift)  (_shift > 0 ? _shift : 0)
  42:./Libraries/CMSIS/NN/Include/arm_nnsupportfunctions.h **** #define RIGHT_SHIFT(_shift) (_shift > 0 ? 0 : -_shift)
  43:./Libraries/CMSIS/NN/Include/arm_nnsupportfunctions.h **** #define Q31_MIN (0x80000000L)
  44:./Libraries/CMSIS/NN/Include/arm_nnsupportfunctions.h **** #define Q31_MAX (0x7FFFFFFFL)
  45:./Libraries/CMSIS/NN/Include/arm_nnsupportfunctions.h **** 
  46:./Libraries/CMSIS/NN/Include/arm_nnsupportfunctions.h **** /**
  47:./Libraries/CMSIS/NN/Include/arm_nnsupportfunctions.h ****  * @brief Union for SIMD access of Q31/Q15/Q7 types
  48:./Libraries/CMSIS/NN/Include/arm_nnsupportfunctions.h ****  */
  49:./Libraries/CMSIS/NN/Include/arm_nnsupportfunctions.h **** union arm_nnword
  50:./Libraries/CMSIS/NN/Include/arm_nnsupportfunctions.h **** {
  51:./Libraries/CMSIS/NN/Include/arm_nnsupportfunctions.h ****     q31_t     word;
  52:./Libraries/CMSIS/NN/Include/arm_nnsupportfunctions.h ****                /**< Q31 type */
  53:./Libraries/CMSIS/NN/Include/arm_nnsupportfunctions.h ****     q15_t     half_words[2];
  54:./Libraries/CMSIS/NN/Include/arm_nnsupportfunctions.h ****                /**< Q15 type */
  55:./Libraries/CMSIS/NN/Include/arm_nnsupportfunctions.h ****     q7_t      bytes[4];
  56:./Libraries/CMSIS/NN/Include/arm_nnsupportfunctions.h ****                /**< Q7 type */
  57:./Libraries/CMSIS/NN/Include/arm_nnsupportfunctions.h **** };
  58:./Libraries/CMSIS/NN/Include/arm_nnsupportfunctions.h **** 
  59:./Libraries/CMSIS/NN/Include/arm_nnsupportfunctions.h **** /**
  60:./Libraries/CMSIS/NN/Include/arm_nnsupportfunctions.h ****  * @brief Struct for specifying activation function types
  61:./Libraries/CMSIS/NN/Include/arm_nnsupportfunctions.h ****  *
  62:./Libraries/CMSIS/NN/Include/arm_nnsupportfunctions.h ****  */
  63:./Libraries/CMSIS/NN/Include/arm_nnsupportfunctions.h **** typedef enum
  64:./Libraries/CMSIS/NN/Include/arm_nnsupportfunctions.h **** {
  65:./Libraries/CMSIS/NN/Include/arm_nnsupportfunctions.h ****     ARM_SIGMOID = 0,
  66:./Libraries/CMSIS/NN/Include/arm_nnsupportfunctions.h ****                 /**< Sigmoid activation function */
  67:./Libraries/CMSIS/NN/Include/arm_nnsupportfunctions.h ****     ARM_TANH = 1,
  68:./Libraries/CMSIS/NN/Include/arm_nnsupportfunctions.h ****              /**< Tanh activation function */
  69:./Libraries/CMSIS/NN/Include/arm_nnsupportfunctions.h **** } arm_nn_activation_type;
  70:./Libraries/CMSIS/NN/Include/arm_nnsupportfunctions.h **** 
ARM GAS  /tmp/ccsRY4dG.s 			page 11


  71:./Libraries/CMSIS/NN/Include/arm_nnsupportfunctions.h **** /**
  72:./Libraries/CMSIS/NN/Include/arm_nnsupportfunctions.h ****  * @defgroup nndata_convert Neural Network Data Conversion Functions
  73:./Libraries/CMSIS/NN/Include/arm_nnsupportfunctions.h ****  *
  74:./Libraries/CMSIS/NN/Include/arm_nnsupportfunctions.h ****  * Perform data type conversion in-between neural network operations
  75:./Libraries/CMSIS/NN/Include/arm_nnsupportfunctions.h ****  *
  76:./Libraries/CMSIS/NN/Include/arm_nnsupportfunctions.h ****  */
  77:./Libraries/CMSIS/NN/Include/arm_nnsupportfunctions.h **** 
  78:./Libraries/CMSIS/NN/Include/arm_nnsupportfunctions.h **** /**
  79:./Libraries/CMSIS/NN/Include/arm_nnsupportfunctions.h ****  * @brief Converts the elements of the Q7 vector to Q15 vector without left-shift
  80:./Libraries/CMSIS/NN/Include/arm_nnsupportfunctions.h ****  * @param[in]       *pSrc points to the Q7 input vector
  81:./Libraries/CMSIS/NN/Include/arm_nnsupportfunctions.h ****  * @param[out]      *pDst points to the Q15 output vector
  82:./Libraries/CMSIS/NN/Include/arm_nnsupportfunctions.h ****  * @param[in]       blockSize length of the input vector
  83:./Libraries/CMSIS/NN/Include/arm_nnsupportfunctions.h ****  * @return none.
  84:./Libraries/CMSIS/NN/Include/arm_nnsupportfunctions.h ****  *
  85:./Libraries/CMSIS/NN/Include/arm_nnsupportfunctions.h ****  */
  86:./Libraries/CMSIS/NN/Include/arm_nnsupportfunctions.h **** 
  87:./Libraries/CMSIS/NN/Include/arm_nnsupportfunctions.h **** void      arm_q7_to_q15_no_shift(const q7_t * pSrc, q15_t * pDst, uint32_t blockSize);
  88:./Libraries/CMSIS/NN/Include/arm_nnsupportfunctions.h **** 
  89:./Libraries/CMSIS/NN/Include/arm_nnsupportfunctions.h **** /**
  90:./Libraries/CMSIS/NN/Include/arm_nnsupportfunctions.h ****  * @brief  Converts the elements of the Q7 vector to reordered Q15 vector without left-shift
  91:./Libraries/CMSIS/NN/Include/arm_nnsupportfunctions.h ****  * @param[in]       *pSrc points to the Q7 input vector
  92:./Libraries/CMSIS/NN/Include/arm_nnsupportfunctions.h ****  * @param[out]      *pDst points to the Q15 output vector
  93:./Libraries/CMSIS/NN/Include/arm_nnsupportfunctions.h ****  * @param[in]       blockSize length of the input vector
  94:./Libraries/CMSIS/NN/Include/arm_nnsupportfunctions.h ****  * @return none.
  95:./Libraries/CMSIS/NN/Include/arm_nnsupportfunctions.h ****  *
  96:./Libraries/CMSIS/NN/Include/arm_nnsupportfunctions.h ****  */
  97:./Libraries/CMSIS/NN/Include/arm_nnsupportfunctions.h **** 
  98:./Libraries/CMSIS/NN/Include/arm_nnsupportfunctions.h **** void      arm_q7_to_q15_reordered_no_shift(const q7_t * pSrc, q15_t * pDst, uint32_t blockSize);
  99:./Libraries/CMSIS/NN/Include/arm_nnsupportfunctions.h **** 
 100:./Libraries/CMSIS/NN/Include/arm_nnsupportfunctions.h **** #if defined (ARM_MATH_DSP)
 101:./Libraries/CMSIS/NN/Include/arm_nnsupportfunctions.h **** 
 102:./Libraries/CMSIS/NN/Include/arm_nnsupportfunctions.h **** /**
 103:./Libraries/CMSIS/NN/Include/arm_nnsupportfunctions.h ****  * @brief read and expand one Q7 word into two Q15 words
 104:./Libraries/CMSIS/NN/Include/arm_nnsupportfunctions.h ****  */
 105:./Libraries/CMSIS/NN/Include/arm_nnsupportfunctions.h **** 
 106:./Libraries/CMSIS/NN/Include/arm_nnsupportfunctions.h **** __STATIC_FORCEINLINE void *read_and_pad(void *source, q31_t * out1, q31_t * out2)
 107:./Libraries/CMSIS/NN/Include/arm_nnsupportfunctions.h **** {
 108:./Libraries/CMSIS/NN/Include/arm_nnsupportfunctions.h ****         q31_t     inA = *__SIMD32(source)++;
 326              		.loc 2 108 26
 327 025c 07F11002 		add	r2, r7, #16
 328 0260 1368     		ldr	r3, [r2]
 329              		.loc 2 108 42
 330 0262 191D     		adds	r1, r3, #4
 331 0264 1160     		str	r1, [r2]
 332              		.loc 2 108 19
 333 0266 1B68     		ldr	r3, [r3]
 334 0268 3B64     		str	r3, [r7, #64]
 109:./Libraries/CMSIS/NN/Include/arm_nnsupportfunctions.h ****         q31_t     inAbuf1 = __SXTB16(__ROR(inA, 8));
 335              		.loc 2 109 29
 336 026a 3B6C     		ldr	r3, [r7, #64]
 337 026c FB63     		str	r3, [r7, #60]
 338 026e 0823     		movs	r3, #8
 339 0270 BB63     		str	r3, [r7, #56]
 340              	.LBB30:
 341              	.LBB31:
 342              		.file 3 "./Libraries/CMSIS/Core/Include/cmsis_gcc.h"
   1:./Libraries/CMSIS/Core/Include/cmsis_gcc.h **** /**************************************************************************//**
ARM GAS  /tmp/ccsRY4dG.s 			page 12


   2:./Libraries/CMSIS/Core/Include/cmsis_gcc.h ****  * @file     cmsis_gcc.h
   3:./Libraries/CMSIS/Core/Include/cmsis_gcc.h ****  * @brief    CMSIS compiler GCC header file
   4:./Libraries/CMSIS/Core/Include/cmsis_gcc.h ****  * @version  V5.2.0
   5:./Libraries/CMSIS/Core/Include/cmsis_gcc.h ****  * @date     08. May 2019
   6:./Libraries/CMSIS/Core/Include/cmsis_gcc.h ****  ******************************************************************************/
   7:./Libraries/CMSIS/Core/Include/cmsis_gcc.h **** /*
   8:./Libraries/CMSIS/Core/Include/cmsis_gcc.h ****  * Copyright (c) 2009-2019 Arm Limited. All rights reserved.
   9:./Libraries/CMSIS/Core/Include/cmsis_gcc.h ****  *
  10:./Libraries/CMSIS/Core/Include/cmsis_gcc.h ****  * SPDX-License-Identifier: Apache-2.0
  11:./Libraries/CMSIS/Core/Include/cmsis_gcc.h ****  *
  12:./Libraries/CMSIS/Core/Include/cmsis_gcc.h ****  * Licensed under the Apache License, Version 2.0 (the License); you may
  13:./Libraries/CMSIS/Core/Include/cmsis_gcc.h ****  * not use this file except in compliance with the License.
  14:./Libraries/CMSIS/Core/Include/cmsis_gcc.h ****  * You may obtain a copy of the License at
  15:./Libraries/CMSIS/Core/Include/cmsis_gcc.h ****  *
  16:./Libraries/CMSIS/Core/Include/cmsis_gcc.h ****  * www.apache.org/licenses/LICENSE-2.0
  17:./Libraries/CMSIS/Core/Include/cmsis_gcc.h ****  *
  18:./Libraries/CMSIS/Core/Include/cmsis_gcc.h ****  * Unless required by applicable law or agreed to in writing, software
  19:./Libraries/CMSIS/Core/Include/cmsis_gcc.h ****  * distributed under the License is distributed on an AS IS BASIS, WITHOUT
  20:./Libraries/CMSIS/Core/Include/cmsis_gcc.h ****  * WARRANTIES OR CONDITIONS OF ANY KIND, either express or implied.
  21:./Libraries/CMSIS/Core/Include/cmsis_gcc.h ****  * See the License for the specific language governing permissions and
  22:./Libraries/CMSIS/Core/Include/cmsis_gcc.h ****  * limitations under the License.
  23:./Libraries/CMSIS/Core/Include/cmsis_gcc.h ****  */
  24:./Libraries/CMSIS/Core/Include/cmsis_gcc.h **** 
  25:./Libraries/CMSIS/Core/Include/cmsis_gcc.h **** #ifndef __CMSIS_GCC_H
  26:./Libraries/CMSIS/Core/Include/cmsis_gcc.h **** #define __CMSIS_GCC_H
  27:./Libraries/CMSIS/Core/Include/cmsis_gcc.h **** 
  28:./Libraries/CMSIS/Core/Include/cmsis_gcc.h **** /* ignore some GCC warnings */
  29:./Libraries/CMSIS/Core/Include/cmsis_gcc.h **** #pragma GCC diagnostic push
  30:./Libraries/CMSIS/Core/Include/cmsis_gcc.h **** #pragma GCC diagnostic ignored "-Wsign-conversion"
  31:./Libraries/CMSIS/Core/Include/cmsis_gcc.h **** #pragma GCC diagnostic ignored "-Wconversion"
  32:./Libraries/CMSIS/Core/Include/cmsis_gcc.h **** #pragma GCC diagnostic ignored "-Wunused-parameter"
  33:./Libraries/CMSIS/Core/Include/cmsis_gcc.h **** 
  34:./Libraries/CMSIS/Core/Include/cmsis_gcc.h **** /* Fallback for __has_builtin */
  35:./Libraries/CMSIS/Core/Include/cmsis_gcc.h **** #ifndef __has_builtin
  36:./Libraries/CMSIS/Core/Include/cmsis_gcc.h ****   #define __has_builtin(x) (0)
  37:./Libraries/CMSIS/Core/Include/cmsis_gcc.h **** #endif
  38:./Libraries/CMSIS/Core/Include/cmsis_gcc.h **** 
  39:./Libraries/CMSIS/Core/Include/cmsis_gcc.h **** /* CMSIS compiler specific defines */
  40:./Libraries/CMSIS/Core/Include/cmsis_gcc.h **** #ifndef   __ASM
  41:./Libraries/CMSIS/Core/Include/cmsis_gcc.h ****   #define __ASM                                  __asm
  42:./Libraries/CMSIS/Core/Include/cmsis_gcc.h **** #endif
  43:./Libraries/CMSIS/Core/Include/cmsis_gcc.h **** #ifndef   __INLINE
  44:./Libraries/CMSIS/Core/Include/cmsis_gcc.h ****   #define __INLINE                               inline
  45:./Libraries/CMSIS/Core/Include/cmsis_gcc.h **** #endif
  46:./Libraries/CMSIS/Core/Include/cmsis_gcc.h **** #ifndef   __STATIC_INLINE
  47:./Libraries/CMSIS/Core/Include/cmsis_gcc.h ****   #define __STATIC_INLINE                        static inline
  48:./Libraries/CMSIS/Core/Include/cmsis_gcc.h **** #endif
  49:./Libraries/CMSIS/Core/Include/cmsis_gcc.h **** #ifndef   __STATIC_FORCEINLINE                 
  50:./Libraries/CMSIS/Core/Include/cmsis_gcc.h ****   #define __STATIC_FORCEINLINE                   __attribute__((always_inline)) static inline
  51:./Libraries/CMSIS/Core/Include/cmsis_gcc.h **** #endif                                           
  52:./Libraries/CMSIS/Core/Include/cmsis_gcc.h **** #ifndef   __NO_RETURN
  53:./Libraries/CMSIS/Core/Include/cmsis_gcc.h ****   #define __NO_RETURN                            __attribute__((__noreturn__))
  54:./Libraries/CMSIS/Core/Include/cmsis_gcc.h **** #endif
  55:./Libraries/CMSIS/Core/Include/cmsis_gcc.h **** #ifndef   __USED
  56:./Libraries/CMSIS/Core/Include/cmsis_gcc.h ****   #define __USED                                 __attribute__((used))
  57:./Libraries/CMSIS/Core/Include/cmsis_gcc.h **** #endif
  58:./Libraries/CMSIS/Core/Include/cmsis_gcc.h **** #ifndef   __WEAK
ARM GAS  /tmp/ccsRY4dG.s 			page 13


  59:./Libraries/CMSIS/Core/Include/cmsis_gcc.h ****   #define __WEAK                                 __attribute__((weak))
  60:./Libraries/CMSIS/Core/Include/cmsis_gcc.h **** #endif
  61:./Libraries/CMSIS/Core/Include/cmsis_gcc.h **** #ifndef   __PACKED
  62:./Libraries/CMSIS/Core/Include/cmsis_gcc.h ****   #define __PACKED                               __attribute__((packed, aligned(1)))
  63:./Libraries/CMSIS/Core/Include/cmsis_gcc.h **** #endif
  64:./Libraries/CMSIS/Core/Include/cmsis_gcc.h **** #ifndef   __PACKED_STRUCT
  65:./Libraries/CMSIS/Core/Include/cmsis_gcc.h ****   #define __PACKED_STRUCT                        struct __attribute__((packed, aligned(1)))
  66:./Libraries/CMSIS/Core/Include/cmsis_gcc.h **** #endif
  67:./Libraries/CMSIS/Core/Include/cmsis_gcc.h **** #ifndef   __PACKED_UNION
  68:./Libraries/CMSIS/Core/Include/cmsis_gcc.h ****   #define __PACKED_UNION                         union __attribute__((packed, aligned(1)))
  69:./Libraries/CMSIS/Core/Include/cmsis_gcc.h **** #endif
  70:./Libraries/CMSIS/Core/Include/cmsis_gcc.h **** #ifndef   __UNALIGNED_UINT32        /* deprecated */
  71:./Libraries/CMSIS/Core/Include/cmsis_gcc.h ****   #pragma GCC diagnostic push
  72:./Libraries/CMSIS/Core/Include/cmsis_gcc.h ****   #pragma GCC diagnostic ignored "-Wpacked"
  73:./Libraries/CMSIS/Core/Include/cmsis_gcc.h ****   #pragma GCC diagnostic ignored "-Wattributes"
  74:./Libraries/CMSIS/Core/Include/cmsis_gcc.h ****   struct __attribute__((packed)) T_UINT32 { uint32_t v; };
  75:./Libraries/CMSIS/Core/Include/cmsis_gcc.h ****   #pragma GCC diagnostic pop
  76:./Libraries/CMSIS/Core/Include/cmsis_gcc.h ****   #define __UNALIGNED_UINT32(x)                  (((struct T_UINT32 *)(x))->v)
  77:./Libraries/CMSIS/Core/Include/cmsis_gcc.h **** #endif
  78:./Libraries/CMSIS/Core/Include/cmsis_gcc.h **** #ifndef   __UNALIGNED_UINT16_WRITE
  79:./Libraries/CMSIS/Core/Include/cmsis_gcc.h ****   #pragma GCC diagnostic push
  80:./Libraries/CMSIS/Core/Include/cmsis_gcc.h ****   #pragma GCC diagnostic ignored "-Wpacked"
  81:./Libraries/CMSIS/Core/Include/cmsis_gcc.h ****   #pragma GCC diagnostic ignored "-Wattributes"
  82:./Libraries/CMSIS/Core/Include/cmsis_gcc.h ****   __PACKED_STRUCT T_UINT16_WRITE { uint16_t v; };
  83:./Libraries/CMSIS/Core/Include/cmsis_gcc.h ****   #pragma GCC diagnostic pop
  84:./Libraries/CMSIS/Core/Include/cmsis_gcc.h ****   #define __UNALIGNED_UINT16_WRITE(addr, val)    (void)((((struct T_UINT16_WRITE *)(void *)(addr))-
  85:./Libraries/CMSIS/Core/Include/cmsis_gcc.h **** #endif
  86:./Libraries/CMSIS/Core/Include/cmsis_gcc.h **** #ifndef   __UNALIGNED_UINT16_READ
  87:./Libraries/CMSIS/Core/Include/cmsis_gcc.h ****   #pragma GCC diagnostic push
  88:./Libraries/CMSIS/Core/Include/cmsis_gcc.h ****   #pragma GCC diagnostic ignored "-Wpacked"
  89:./Libraries/CMSIS/Core/Include/cmsis_gcc.h ****   #pragma GCC diagnostic ignored "-Wattributes"
  90:./Libraries/CMSIS/Core/Include/cmsis_gcc.h ****   __PACKED_STRUCT T_UINT16_READ { uint16_t v; };
  91:./Libraries/CMSIS/Core/Include/cmsis_gcc.h ****   #pragma GCC diagnostic pop
  92:./Libraries/CMSIS/Core/Include/cmsis_gcc.h ****   #define __UNALIGNED_UINT16_READ(addr)          (((const struct T_UINT16_READ *)(const void *)(add
  93:./Libraries/CMSIS/Core/Include/cmsis_gcc.h **** #endif
  94:./Libraries/CMSIS/Core/Include/cmsis_gcc.h **** #ifndef   __UNALIGNED_UINT32_WRITE
  95:./Libraries/CMSIS/Core/Include/cmsis_gcc.h ****   #pragma GCC diagnostic push
  96:./Libraries/CMSIS/Core/Include/cmsis_gcc.h ****   #pragma GCC diagnostic ignored "-Wpacked"
  97:./Libraries/CMSIS/Core/Include/cmsis_gcc.h ****   #pragma GCC diagnostic ignored "-Wattributes"
  98:./Libraries/CMSIS/Core/Include/cmsis_gcc.h ****   __PACKED_STRUCT T_UINT32_WRITE { uint32_t v; };
  99:./Libraries/CMSIS/Core/Include/cmsis_gcc.h ****   #pragma GCC diagnostic pop
 100:./Libraries/CMSIS/Core/Include/cmsis_gcc.h ****   #define __UNALIGNED_UINT32_WRITE(addr, val)    (void)((((struct T_UINT32_WRITE *)(void *)(addr))-
 101:./Libraries/CMSIS/Core/Include/cmsis_gcc.h **** #endif
 102:./Libraries/CMSIS/Core/Include/cmsis_gcc.h **** #ifndef   __UNALIGNED_UINT32_READ
 103:./Libraries/CMSIS/Core/Include/cmsis_gcc.h ****   #pragma GCC diagnostic push
 104:./Libraries/CMSIS/Core/Include/cmsis_gcc.h ****   #pragma GCC diagnostic ignored "-Wpacked"
 105:./Libraries/CMSIS/Core/Include/cmsis_gcc.h ****   #pragma GCC diagnostic ignored "-Wattributes"
 106:./Libraries/CMSIS/Core/Include/cmsis_gcc.h ****   __PACKED_STRUCT T_UINT32_READ { uint32_t v; };
 107:./Libraries/CMSIS/Core/Include/cmsis_gcc.h ****   #pragma GCC diagnostic pop
 108:./Libraries/CMSIS/Core/Include/cmsis_gcc.h ****   #define __UNALIGNED_UINT32_READ(addr)          (((const struct T_UINT32_READ *)(const void *)(add
 109:./Libraries/CMSIS/Core/Include/cmsis_gcc.h **** #endif
 110:./Libraries/CMSIS/Core/Include/cmsis_gcc.h **** #ifndef   __ALIGNED
 111:./Libraries/CMSIS/Core/Include/cmsis_gcc.h ****   #define __ALIGNED(x)                           __attribute__((aligned(x)))
 112:./Libraries/CMSIS/Core/Include/cmsis_gcc.h **** #endif
 113:./Libraries/CMSIS/Core/Include/cmsis_gcc.h **** #ifndef   __RESTRICT
 114:./Libraries/CMSIS/Core/Include/cmsis_gcc.h ****   #define __RESTRICT                             __restrict
 115:./Libraries/CMSIS/Core/Include/cmsis_gcc.h **** #endif
ARM GAS  /tmp/ccsRY4dG.s 			page 14


 116:./Libraries/CMSIS/Core/Include/cmsis_gcc.h **** #ifndef   __COMPILER_BARRIER
 117:./Libraries/CMSIS/Core/Include/cmsis_gcc.h ****   #define __COMPILER_BARRIER()                   __ASM volatile("":::"memory")
 118:./Libraries/CMSIS/Core/Include/cmsis_gcc.h **** #endif
 119:./Libraries/CMSIS/Core/Include/cmsis_gcc.h **** 
 120:./Libraries/CMSIS/Core/Include/cmsis_gcc.h **** /* #########################  Startup and Lowlevel Init  ######################## */
 121:./Libraries/CMSIS/Core/Include/cmsis_gcc.h **** 
 122:./Libraries/CMSIS/Core/Include/cmsis_gcc.h **** #ifndef __PROGRAM_START
 123:./Libraries/CMSIS/Core/Include/cmsis_gcc.h **** 
 124:./Libraries/CMSIS/Core/Include/cmsis_gcc.h **** /**
 125:./Libraries/CMSIS/Core/Include/cmsis_gcc.h ****   \brief   Initializes data and bss sections
 126:./Libraries/CMSIS/Core/Include/cmsis_gcc.h ****   \details This default implementations initialized all data and additional bss
 127:./Libraries/CMSIS/Core/Include/cmsis_gcc.h ****            sections relying on .copy.table and .zero.table specified properly
 128:./Libraries/CMSIS/Core/Include/cmsis_gcc.h ****            in the used linker script.
 129:./Libraries/CMSIS/Core/Include/cmsis_gcc.h ****   
 130:./Libraries/CMSIS/Core/Include/cmsis_gcc.h ****  */
 131:./Libraries/CMSIS/Core/Include/cmsis_gcc.h **** __STATIC_FORCEINLINE __NO_RETURN void __cmsis_start(void)
 132:./Libraries/CMSIS/Core/Include/cmsis_gcc.h **** {
 133:./Libraries/CMSIS/Core/Include/cmsis_gcc.h ****   extern void _start(void) __NO_RETURN;
 134:./Libraries/CMSIS/Core/Include/cmsis_gcc.h ****   
 135:./Libraries/CMSIS/Core/Include/cmsis_gcc.h ****   typedef struct {
 136:./Libraries/CMSIS/Core/Include/cmsis_gcc.h ****     uint32_t const* src;
 137:./Libraries/CMSIS/Core/Include/cmsis_gcc.h ****     uint32_t* dest;
 138:./Libraries/CMSIS/Core/Include/cmsis_gcc.h ****     uint32_t  wlen;
 139:./Libraries/CMSIS/Core/Include/cmsis_gcc.h ****   } __copy_table_t;
 140:./Libraries/CMSIS/Core/Include/cmsis_gcc.h ****   
 141:./Libraries/CMSIS/Core/Include/cmsis_gcc.h ****   typedef struct {
 142:./Libraries/CMSIS/Core/Include/cmsis_gcc.h ****     uint32_t* dest;
 143:./Libraries/CMSIS/Core/Include/cmsis_gcc.h ****     uint32_t  wlen;
 144:./Libraries/CMSIS/Core/Include/cmsis_gcc.h ****   } __zero_table_t;
 145:./Libraries/CMSIS/Core/Include/cmsis_gcc.h ****   
 146:./Libraries/CMSIS/Core/Include/cmsis_gcc.h ****   extern const __copy_table_t __copy_table_start__;
 147:./Libraries/CMSIS/Core/Include/cmsis_gcc.h ****   extern const __copy_table_t __copy_table_end__;
 148:./Libraries/CMSIS/Core/Include/cmsis_gcc.h ****   extern const __zero_table_t __zero_table_start__;
 149:./Libraries/CMSIS/Core/Include/cmsis_gcc.h ****   extern const __zero_table_t __zero_table_end__;
 150:./Libraries/CMSIS/Core/Include/cmsis_gcc.h **** 
 151:./Libraries/CMSIS/Core/Include/cmsis_gcc.h ****   for (__copy_table_t const* pTable = &__copy_table_start__; pTable < &__copy_table_end__; ++pTable
 152:./Libraries/CMSIS/Core/Include/cmsis_gcc.h ****     for(uint32_t i=0u; i<pTable->wlen; ++i) {
 153:./Libraries/CMSIS/Core/Include/cmsis_gcc.h ****       pTable->dest[i] = pTable->src[i];
 154:./Libraries/CMSIS/Core/Include/cmsis_gcc.h ****     }
 155:./Libraries/CMSIS/Core/Include/cmsis_gcc.h ****   }
 156:./Libraries/CMSIS/Core/Include/cmsis_gcc.h ****  
 157:./Libraries/CMSIS/Core/Include/cmsis_gcc.h ****   for (__zero_table_t const* pTable = &__zero_table_start__; pTable < &__zero_table_end__; ++pTable
 158:./Libraries/CMSIS/Core/Include/cmsis_gcc.h ****     for(uint32_t i=0u; i<pTable->wlen; ++i) {
 159:./Libraries/CMSIS/Core/Include/cmsis_gcc.h ****       pTable->dest[i] = 0u;
 160:./Libraries/CMSIS/Core/Include/cmsis_gcc.h ****     }
 161:./Libraries/CMSIS/Core/Include/cmsis_gcc.h ****   }
 162:./Libraries/CMSIS/Core/Include/cmsis_gcc.h ****  
 163:./Libraries/CMSIS/Core/Include/cmsis_gcc.h ****   _start();
 164:./Libraries/CMSIS/Core/Include/cmsis_gcc.h **** }
 165:./Libraries/CMSIS/Core/Include/cmsis_gcc.h ****   
 166:./Libraries/CMSIS/Core/Include/cmsis_gcc.h **** #define __PROGRAM_START           __cmsis_start
 167:./Libraries/CMSIS/Core/Include/cmsis_gcc.h **** #endif
 168:./Libraries/CMSIS/Core/Include/cmsis_gcc.h **** 
 169:./Libraries/CMSIS/Core/Include/cmsis_gcc.h **** #ifndef __INITIAL_SP
 170:./Libraries/CMSIS/Core/Include/cmsis_gcc.h **** #define __INITIAL_SP              __StackTop
 171:./Libraries/CMSIS/Core/Include/cmsis_gcc.h **** #endif
 172:./Libraries/CMSIS/Core/Include/cmsis_gcc.h **** 
ARM GAS  /tmp/ccsRY4dG.s 			page 15


 173:./Libraries/CMSIS/Core/Include/cmsis_gcc.h **** #ifndef __STACK_LIMIT
 174:./Libraries/CMSIS/Core/Include/cmsis_gcc.h **** #define __STACK_LIMIT             __StackLimit
 175:./Libraries/CMSIS/Core/Include/cmsis_gcc.h **** #endif
 176:./Libraries/CMSIS/Core/Include/cmsis_gcc.h **** 
 177:./Libraries/CMSIS/Core/Include/cmsis_gcc.h **** #ifndef __VECTOR_TABLE
 178:./Libraries/CMSIS/Core/Include/cmsis_gcc.h **** #define __VECTOR_TABLE            __Vectors
 179:./Libraries/CMSIS/Core/Include/cmsis_gcc.h **** #endif
 180:./Libraries/CMSIS/Core/Include/cmsis_gcc.h **** 
 181:./Libraries/CMSIS/Core/Include/cmsis_gcc.h **** #ifndef __VECTOR_TABLE_ATTRIBUTE
 182:./Libraries/CMSIS/Core/Include/cmsis_gcc.h **** #define __VECTOR_TABLE_ATTRIBUTE  __attribute((used, section(".vectors")))
 183:./Libraries/CMSIS/Core/Include/cmsis_gcc.h **** #endif
 184:./Libraries/CMSIS/Core/Include/cmsis_gcc.h **** 
 185:./Libraries/CMSIS/Core/Include/cmsis_gcc.h **** /* ###########################  Core Function Access  ########################### */
 186:./Libraries/CMSIS/Core/Include/cmsis_gcc.h **** /** \ingroup  CMSIS_Core_FunctionInterface
 187:./Libraries/CMSIS/Core/Include/cmsis_gcc.h ****     \defgroup CMSIS_Core_RegAccFunctions CMSIS Core Register Access Functions
 188:./Libraries/CMSIS/Core/Include/cmsis_gcc.h ****   @{
 189:./Libraries/CMSIS/Core/Include/cmsis_gcc.h ****  */
 190:./Libraries/CMSIS/Core/Include/cmsis_gcc.h **** 
 191:./Libraries/CMSIS/Core/Include/cmsis_gcc.h **** /**
 192:./Libraries/CMSIS/Core/Include/cmsis_gcc.h ****   \brief   Enable IRQ Interrupts
 193:./Libraries/CMSIS/Core/Include/cmsis_gcc.h ****   \details Enables IRQ interrupts by clearing the I-bit in the CPSR.
 194:./Libraries/CMSIS/Core/Include/cmsis_gcc.h ****            Can only be executed in Privileged modes.
 195:./Libraries/CMSIS/Core/Include/cmsis_gcc.h ****  */
 196:./Libraries/CMSIS/Core/Include/cmsis_gcc.h **** __STATIC_FORCEINLINE void __enable_irq(void)
 197:./Libraries/CMSIS/Core/Include/cmsis_gcc.h **** {
 198:./Libraries/CMSIS/Core/Include/cmsis_gcc.h ****   __ASM volatile ("cpsie i" : : : "memory");
 199:./Libraries/CMSIS/Core/Include/cmsis_gcc.h **** }
 200:./Libraries/CMSIS/Core/Include/cmsis_gcc.h **** 
 201:./Libraries/CMSIS/Core/Include/cmsis_gcc.h **** 
 202:./Libraries/CMSIS/Core/Include/cmsis_gcc.h **** /**
 203:./Libraries/CMSIS/Core/Include/cmsis_gcc.h ****   \brief   Disable IRQ Interrupts
 204:./Libraries/CMSIS/Core/Include/cmsis_gcc.h ****   \details Disables IRQ interrupts by setting the I-bit in the CPSR.
 205:./Libraries/CMSIS/Core/Include/cmsis_gcc.h ****            Can only be executed in Privileged modes.
 206:./Libraries/CMSIS/Core/Include/cmsis_gcc.h ****  */
 207:./Libraries/CMSIS/Core/Include/cmsis_gcc.h **** __STATIC_FORCEINLINE void __disable_irq(void)
 208:./Libraries/CMSIS/Core/Include/cmsis_gcc.h **** {
 209:./Libraries/CMSIS/Core/Include/cmsis_gcc.h ****   __ASM volatile ("cpsid i" : : : "memory");
 210:./Libraries/CMSIS/Core/Include/cmsis_gcc.h **** }
 211:./Libraries/CMSIS/Core/Include/cmsis_gcc.h **** 
 212:./Libraries/CMSIS/Core/Include/cmsis_gcc.h **** 
 213:./Libraries/CMSIS/Core/Include/cmsis_gcc.h **** /**
 214:./Libraries/CMSIS/Core/Include/cmsis_gcc.h ****   \brief   Get Control Register
 215:./Libraries/CMSIS/Core/Include/cmsis_gcc.h ****   \details Returns the content of the Control Register.
 216:./Libraries/CMSIS/Core/Include/cmsis_gcc.h ****   \return               Control Register value
 217:./Libraries/CMSIS/Core/Include/cmsis_gcc.h ****  */
 218:./Libraries/CMSIS/Core/Include/cmsis_gcc.h **** __STATIC_FORCEINLINE uint32_t __get_CONTROL(void)
 219:./Libraries/CMSIS/Core/Include/cmsis_gcc.h **** {
 220:./Libraries/CMSIS/Core/Include/cmsis_gcc.h ****   uint32_t result;
 221:./Libraries/CMSIS/Core/Include/cmsis_gcc.h **** 
 222:./Libraries/CMSIS/Core/Include/cmsis_gcc.h ****   __ASM volatile ("MRS %0, control" : "=r" (result) );
 223:./Libraries/CMSIS/Core/Include/cmsis_gcc.h ****   return(result);
 224:./Libraries/CMSIS/Core/Include/cmsis_gcc.h **** }
 225:./Libraries/CMSIS/Core/Include/cmsis_gcc.h **** 
 226:./Libraries/CMSIS/Core/Include/cmsis_gcc.h **** 
 227:./Libraries/CMSIS/Core/Include/cmsis_gcc.h **** #if (defined (__ARM_FEATURE_CMSE ) && (__ARM_FEATURE_CMSE == 3))
 228:./Libraries/CMSIS/Core/Include/cmsis_gcc.h **** /**
 229:./Libraries/CMSIS/Core/Include/cmsis_gcc.h ****   \brief   Get Control Register (non-secure)
ARM GAS  /tmp/ccsRY4dG.s 			page 16


 230:./Libraries/CMSIS/Core/Include/cmsis_gcc.h ****   \details Returns the content of the non-secure Control Register when in secure mode.
 231:./Libraries/CMSIS/Core/Include/cmsis_gcc.h ****   \return               non-secure Control Register value
 232:./Libraries/CMSIS/Core/Include/cmsis_gcc.h ****  */
 233:./Libraries/CMSIS/Core/Include/cmsis_gcc.h **** __STATIC_FORCEINLINE uint32_t __TZ_get_CONTROL_NS(void)
 234:./Libraries/CMSIS/Core/Include/cmsis_gcc.h **** {
 235:./Libraries/CMSIS/Core/Include/cmsis_gcc.h ****   uint32_t result;
 236:./Libraries/CMSIS/Core/Include/cmsis_gcc.h **** 
 237:./Libraries/CMSIS/Core/Include/cmsis_gcc.h ****   __ASM volatile ("MRS %0, control_ns" : "=r" (result) );
 238:./Libraries/CMSIS/Core/Include/cmsis_gcc.h ****   return(result);
 239:./Libraries/CMSIS/Core/Include/cmsis_gcc.h **** }
 240:./Libraries/CMSIS/Core/Include/cmsis_gcc.h **** #endif
 241:./Libraries/CMSIS/Core/Include/cmsis_gcc.h **** 
 242:./Libraries/CMSIS/Core/Include/cmsis_gcc.h **** 
 243:./Libraries/CMSIS/Core/Include/cmsis_gcc.h **** /**
 244:./Libraries/CMSIS/Core/Include/cmsis_gcc.h ****   \brief   Set Control Register
 245:./Libraries/CMSIS/Core/Include/cmsis_gcc.h ****   \details Writes the given value to the Control Register.
 246:./Libraries/CMSIS/Core/Include/cmsis_gcc.h ****   \param [in]    control  Control Register value to set
 247:./Libraries/CMSIS/Core/Include/cmsis_gcc.h ****  */
 248:./Libraries/CMSIS/Core/Include/cmsis_gcc.h **** __STATIC_FORCEINLINE void __set_CONTROL(uint32_t control)
 249:./Libraries/CMSIS/Core/Include/cmsis_gcc.h **** {
 250:./Libraries/CMSIS/Core/Include/cmsis_gcc.h ****   __ASM volatile ("MSR control, %0" : : "r" (control) : "memory");
 251:./Libraries/CMSIS/Core/Include/cmsis_gcc.h **** }
 252:./Libraries/CMSIS/Core/Include/cmsis_gcc.h **** 
 253:./Libraries/CMSIS/Core/Include/cmsis_gcc.h **** 
 254:./Libraries/CMSIS/Core/Include/cmsis_gcc.h **** #if (defined (__ARM_FEATURE_CMSE ) && (__ARM_FEATURE_CMSE == 3))
 255:./Libraries/CMSIS/Core/Include/cmsis_gcc.h **** /**
 256:./Libraries/CMSIS/Core/Include/cmsis_gcc.h ****   \brief   Set Control Register (non-secure)
 257:./Libraries/CMSIS/Core/Include/cmsis_gcc.h ****   \details Writes the given value to the non-secure Control Register when in secure state.
 258:./Libraries/CMSIS/Core/Include/cmsis_gcc.h ****   \param [in]    control  Control Register value to set
 259:./Libraries/CMSIS/Core/Include/cmsis_gcc.h ****  */
 260:./Libraries/CMSIS/Core/Include/cmsis_gcc.h **** __STATIC_FORCEINLINE void __TZ_set_CONTROL_NS(uint32_t control)
 261:./Libraries/CMSIS/Core/Include/cmsis_gcc.h **** {
 262:./Libraries/CMSIS/Core/Include/cmsis_gcc.h ****   __ASM volatile ("MSR control_ns, %0" : : "r" (control) : "memory");
 263:./Libraries/CMSIS/Core/Include/cmsis_gcc.h **** }
 264:./Libraries/CMSIS/Core/Include/cmsis_gcc.h **** #endif
 265:./Libraries/CMSIS/Core/Include/cmsis_gcc.h **** 
 266:./Libraries/CMSIS/Core/Include/cmsis_gcc.h **** 
 267:./Libraries/CMSIS/Core/Include/cmsis_gcc.h **** /**
 268:./Libraries/CMSIS/Core/Include/cmsis_gcc.h ****   \brief   Get IPSR Register
 269:./Libraries/CMSIS/Core/Include/cmsis_gcc.h ****   \details Returns the content of the IPSR Register.
 270:./Libraries/CMSIS/Core/Include/cmsis_gcc.h ****   \return               IPSR Register value
 271:./Libraries/CMSIS/Core/Include/cmsis_gcc.h ****  */
 272:./Libraries/CMSIS/Core/Include/cmsis_gcc.h **** __STATIC_FORCEINLINE uint32_t __get_IPSR(void)
 273:./Libraries/CMSIS/Core/Include/cmsis_gcc.h **** {
 274:./Libraries/CMSIS/Core/Include/cmsis_gcc.h ****   uint32_t result;
 275:./Libraries/CMSIS/Core/Include/cmsis_gcc.h **** 
 276:./Libraries/CMSIS/Core/Include/cmsis_gcc.h ****   __ASM volatile ("MRS %0, ipsr" : "=r" (result) );
 277:./Libraries/CMSIS/Core/Include/cmsis_gcc.h ****   return(result);
 278:./Libraries/CMSIS/Core/Include/cmsis_gcc.h **** }
 279:./Libraries/CMSIS/Core/Include/cmsis_gcc.h **** 
 280:./Libraries/CMSIS/Core/Include/cmsis_gcc.h **** 
 281:./Libraries/CMSIS/Core/Include/cmsis_gcc.h **** /**
 282:./Libraries/CMSIS/Core/Include/cmsis_gcc.h ****   \brief   Get APSR Register
 283:./Libraries/CMSIS/Core/Include/cmsis_gcc.h ****   \details Returns the content of the APSR Register.
 284:./Libraries/CMSIS/Core/Include/cmsis_gcc.h ****   \return               APSR Register value
 285:./Libraries/CMSIS/Core/Include/cmsis_gcc.h ****  */
 286:./Libraries/CMSIS/Core/Include/cmsis_gcc.h **** __STATIC_FORCEINLINE uint32_t __get_APSR(void)
ARM GAS  /tmp/ccsRY4dG.s 			page 17


 287:./Libraries/CMSIS/Core/Include/cmsis_gcc.h **** {
 288:./Libraries/CMSIS/Core/Include/cmsis_gcc.h ****   uint32_t result;
 289:./Libraries/CMSIS/Core/Include/cmsis_gcc.h **** 
 290:./Libraries/CMSIS/Core/Include/cmsis_gcc.h ****   __ASM volatile ("MRS %0, apsr" : "=r" (result) );
 291:./Libraries/CMSIS/Core/Include/cmsis_gcc.h ****   return(result);
 292:./Libraries/CMSIS/Core/Include/cmsis_gcc.h **** }
 293:./Libraries/CMSIS/Core/Include/cmsis_gcc.h **** 
 294:./Libraries/CMSIS/Core/Include/cmsis_gcc.h **** 
 295:./Libraries/CMSIS/Core/Include/cmsis_gcc.h **** /**
 296:./Libraries/CMSIS/Core/Include/cmsis_gcc.h ****   \brief   Get xPSR Register
 297:./Libraries/CMSIS/Core/Include/cmsis_gcc.h ****   \details Returns the content of the xPSR Register.
 298:./Libraries/CMSIS/Core/Include/cmsis_gcc.h ****   \return               xPSR Register value
 299:./Libraries/CMSIS/Core/Include/cmsis_gcc.h ****  */
 300:./Libraries/CMSIS/Core/Include/cmsis_gcc.h **** __STATIC_FORCEINLINE uint32_t __get_xPSR(void)
 301:./Libraries/CMSIS/Core/Include/cmsis_gcc.h **** {
 302:./Libraries/CMSIS/Core/Include/cmsis_gcc.h ****   uint32_t result;
 303:./Libraries/CMSIS/Core/Include/cmsis_gcc.h **** 
 304:./Libraries/CMSIS/Core/Include/cmsis_gcc.h ****   __ASM volatile ("MRS %0, xpsr" : "=r" (result) );
 305:./Libraries/CMSIS/Core/Include/cmsis_gcc.h ****   return(result);
 306:./Libraries/CMSIS/Core/Include/cmsis_gcc.h **** }
 307:./Libraries/CMSIS/Core/Include/cmsis_gcc.h **** 
 308:./Libraries/CMSIS/Core/Include/cmsis_gcc.h **** 
 309:./Libraries/CMSIS/Core/Include/cmsis_gcc.h **** /**
 310:./Libraries/CMSIS/Core/Include/cmsis_gcc.h ****   \brief   Get Process Stack Pointer
 311:./Libraries/CMSIS/Core/Include/cmsis_gcc.h ****   \details Returns the current value of the Process Stack Pointer (PSP).
 312:./Libraries/CMSIS/Core/Include/cmsis_gcc.h ****   \return               PSP Register value
 313:./Libraries/CMSIS/Core/Include/cmsis_gcc.h ****  */
 314:./Libraries/CMSIS/Core/Include/cmsis_gcc.h **** __STATIC_FORCEINLINE uint32_t __get_PSP(void)
 315:./Libraries/CMSIS/Core/Include/cmsis_gcc.h **** {
 316:./Libraries/CMSIS/Core/Include/cmsis_gcc.h ****   uint32_t result;
 317:./Libraries/CMSIS/Core/Include/cmsis_gcc.h **** 
 318:./Libraries/CMSIS/Core/Include/cmsis_gcc.h ****   __ASM volatile ("MRS %0, psp"  : "=r" (result) );
 319:./Libraries/CMSIS/Core/Include/cmsis_gcc.h ****   return(result);
 320:./Libraries/CMSIS/Core/Include/cmsis_gcc.h **** }
 321:./Libraries/CMSIS/Core/Include/cmsis_gcc.h **** 
 322:./Libraries/CMSIS/Core/Include/cmsis_gcc.h **** 
 323:./Libraries/CMSIS/Core/Include/cmsis_gcc.h **** #if (defined (__ARM_FEATURE_CMSE ) && (__ARM_FEATURE_CMSE == 3))
 324:./Libraries/CMSIS/Core/Include/cmsis_gcc.h **** /**
 325:./Libraries/CMSIS/Core/Include/cmsis_gcc.h ****   \brief   Get Process Stack Pointer (non-secure)
 326:./Libraries/CMSIS/Core/Include/cmsis_gcc.h ****   \details Returns the current value of the non-secure Process Stack Pointer (PSP) when in secure s
 327:./Libraries/CMSIS/Core/Include/cmsis_gcc.h ****   \return               PSP Register value
 328:./Libraries/CMSIS/Core/Include/cmsis_gcc.h ****  */
 329:./Libraries/CMSIS/Core/Include/cmsis_gcc.h **** __STATIC_FORCEINLINE uint32_t __TZ_get_PSP_NS(void)
 330:./Libraries/CMSIS/Core/Include/cmsis_gcc.h **** {
 331:./Libraries/CMSIS/Core/Include/cmsis_gcc.h ****   uint32_t result;
 332:./Libraries/CMSIS/Core/Include/cmsis_gcc.h **** 
 333:./Libraries/CMSIS/Core/Include/cmsis_gcc.h ****   __ASM volatile ("MRS %0, psp_ns"  : "=r" (result) );
 334:./Libraries/CMSIS/Core/Include/cmsis_gcc.h ****   return(result);
 335:./Libraries/CMSIS/Core/Include/cmsis_gcc.h **** }
 336:./Libraries/CMSIS/Core/Include/cmsis_gcc.h **** #endif
 337:./Libraries/CMSIS/Core/Include/cmsis_gcc.h **** 
 338:./Libraries/CMSIS/Core/Include/cmsis_gcc.h **** 
 339:./Libraries/CMSIS/Core/Include/cmsis_gcc.h **** /**
 340:./Libraries/CMSIS/Core/Include/cmsis_gcc.h ****   \brief   Set Process Stack Pointer
 341:./Libraries/CMSIS/Core/Include/cmsis_gcc.h ****   \details Assigns the given value to the Process Stack Pointer (PSP).
 342:./Libraries/CMSIS/Core/Include/cmsis_gcc.h ****   \param [in]    topOfProcStack  Process Stack Pointer value to set
 343:./Libraries/CMSIS/Core/Include/cmsis_gcc.h ****  */
ARM GAS  /tmp/ccsRY4dG.s 			page 18


 344:./Libraries/CMSIS/Core/Include/cmsis_gcc.h **** __STATIC_FORCEINLINE void __set_PSP(uint32_t topOfProcStack)
 345:./Libraries/CMSIS/Core/Include/cmsis_gcc.h **** {
 346:./Libraries/CMSIS/Core/Include/cmsis_gcc.h ****   __ASM volatile ("MSR psp, %0" : : "r" (topOfProcStack) : );
 347:./Libraries/CMSIS/Core/Include/cmsis_gcc.h **** }
 348:./Libraries/CMSIS/Core/Include/cmsis_gcc.h **** 
 349:./Libraries/CMSIS/Core/Include/cmsis_gcc.h **** 
 350:./Libraries/CMSIS/Core/Include/cmsis_gcc.h **** #if (defined (__ARM_FEATURE_CMSE ) && (__ARM_FEATURE_CMSE == 3))
 351:./Libraries/CMSIS/Core/Include/cmsis_gcc.h **** /**
 352:./Libraries/CMSIS/Core/Include/cmsis_gcc.h ****   \brief   Set Process Stack Pointer (non-secure)
 353:./Libraries/CMSIS/Core/Include/cmsis_gcc.h ****   \details Assigns the given value to the non-secure Process Stack Pointer (PSP) when in secure sta
 354:./Libraries/CMSIS/Core/Include/cmsis_gcc.h ****   \param [in]    topOfProcStack  Process Stack Pointer value to set
 355:./Libraries/CMSIS/Core/Include/cmsis_gcc.h ****  */
 356:./Libraries/CMSIS/Core/Include/cmsis_gcc.h **** __STATIC_FORCEINLINE void __TZ_set_PSP_NS(uint32_t topOfProcStack)
 357:./Libraries/CMSIS/Core/Include/cmsis_gcc.h **** {
 358:./Libraries/CMSIS/Core/Include/cmsis_gcc.h ****   __ASM volatile ("MSR psp_ns, %0" : : "r" (topOfProcStack) : );
 359:./Libraries/CMSIS/Core/Include/cmsis_gcc.h **** }
 360:./Libraries/CMSIS/Core/Include/cmsis_gcc.h **** #endif
 361:./Libraries/CMSIS/Core/Include/cmsis_gcc.h **** 
 362:./Libraries/CMSIS/Core/Include/cmsis_gcc.h **** 
 363:./Libraries/CMSIS/Core/Include/cmsis_gcc.h **** /**
 364:./Libraries/CMSIS/Core/Include/cmsis_gcc.h ****   \brief   Get Main Stack Pointer
 365:./Libraries/CMSIS/Core/Include/cmsis_gcc.h ****   \details Returns the current value of the Main Stack Pointer (MSP).
 366:./Libraries/CMSIS/Core/Include/cmsis_gcc.h ****   \return               MSP Register value
 367:./Libraries/CMSIS/Core/Include/cmsis_gcc.h ****  */
 368:./Libraries/CMSIS/Core/Include/cmsis_gcc.h **** __STATIC_FORCEINLINE uint32_t __get_MSP(void)
 369:./Libraries/CMSIS/Core/Include/cmsis_gcc.h **** {
 370:./Libraries/CMSIS/Core/Include/cmsis_gcc.h ****   uint32_t result;
 371:./Libraries/CMSIS/Core/Include/cmsis_gcc.h **** 
 372:./Libraries/CMSIS/Core/Include/cmsis_gcc.h ****   __ASM volatile ("MRS %0, msp" : "=r" (result) );
 373:./Libraries/CMSIS/Core/Include/cmsis_gcc.h ****   return(result);
 374:./Libraries/CMSIS/Core/Include/cmsis_gcc.h **** }
 375:./Libraries/CMSIS/Core/Include/cmsis_gcc.h **** 
 376:./Libraries/CMSIS/Core/Include/cmsis_gcc.h **** 
 377:./Libraries/CMSIS/Core/Include/cmsis_gcc.h **** #if (defined (__ARM_FEATURE_CMSE ) && (__ARM_FEATURE_CMSE == 3))
 378:./Libraries/CMSIS/Core/Include/cmsis_gcc.h **** /**
 379:./Libraries/CMSIS/Core/Include/cmsis_gcc.h ****   \brief   Get Main Stack Pointer (non-secure)
 380:./Libraries/CMSIS/Core/Include/cmsis_gcc.h ****   \details Returns the current value of the non-secure Main Stack Pointer (MSP) when in secure stat
 381:./Libraries/CMSIS/Core/Include/cmsis_gcc.h ****   \return               MSP Register value
 382:./Libraries/CMSIS/Core/Include/cmsis_gcc.h ****  */
 383:./Libraries/CMSIS/Core/Include/cmsis_gcc.h **** __STATIC_FORCEINLINE uint32_t __TZ_get_MSP_NS(void)
 384:./Libraries/CMSIS/Core/Include/cmsis_gcc.h **** {
 385:./Libraries/CMSIS/Core/Include/cmsis_gcc.h ****   uint32_t result;
 386:./Libraries/CMSIS/Core/Include/cmsis_gcc.h **** 
 387:./Libraries/CMSIS/Core/Include/cmsis_gcc.h ****   __ASM volatile ("MRS %0, msp_ns" : "=r" (result) );
 388:./Libraries/CMSIS/Core/Include/cmsis_gcc.h ****   return(result);
 389:./Libraries/CMSIS/Core/Include/cmsis_gcc.h **** }
 390:./Libraries/CMSIS/Core/Include/cmsis_gcc.h **** #endif
 391:./Libraries/CMSIS/Core/Include/cmsis_gcc.h **** 
 392:./Libraries/CMSIS/Core/Include/cmsis_gcc.h **** 
 393:./Libraries/CMSIS/Core/Include/cmsis_gcc.h **** /**
 394:./Libraries/CMSIS/Core/Include/cmsis_gcc.h ****   \brief   Set Main Stack Pointer
 395:./Libraries/CMSIS/Core/Include/cmsis_gcc.h ****   \details Assigns the given value to the Main Stack Pointer (MSP).
 396:./Libraries/CMSIS/Core/Include/cmsis_gcc.h ****   \param [in]    topOfMainStack  Main Stack Pointer value to set
 397:./Libraries/CMSIS/Core/Include/cmsis_gcc.h ****  */
 398:./Libraries/CMSIS/Core/Include/cmsis_gcc.h **** __STATIC_FORCEINLINE void __set_MSP(uint32_t topOfMainStack)
 399:./Libraries/CMSIS/Core/Include/cmsis_gcc.h **** {
 400:./Libraries/CMSIS/Core/Include/cmsis_gcc.h ****   __ASM volatile ("MSR msp, %0" : : "r" (topOfMainStack) : );
ARM GAS  /tmp/ccsRY4dG.s 			page 19


 401:./Libraries/CMSIS/Core/Include/cmsis_gcc.h **** }
 402:./Libraries/CMSIS/Core/Include/cmsis_gcc.h **** 
 403:./Libraries/CMSIS/Core/Include/cmsis_gcc.h **** 
 404:./Libraries/CMSIS/Core/Include/cmsis_gcc.h **** #if (defined (__ARM_FEATURE_CMSE ) && (__ARM_FEATURE_CMSE == 3))
 405:./Libraries/CMSIS/Core/Include/cmsis_gcc.h **** /**
 406:./Libraries/CMSIS/Core/Include/cmsis_gcc.h ****   \brief   Set Main Stack Pointer (non-secure)
 407:./Libraries/CMSIS/Core/Include/cmsis_gcc.h ****   \details Assigns the given value to the non-secure Main Stack Pointer (MSP) when in secure state.
 408:./Libraries/CMSIS/Core/Include/cmsis_gcc.h ****   \param [in]    topOfMainStack  Main Stack Pointer value to set
 409:./Libraries/CMSIS/Core/Include/cmsis_gcc.h ****  */
 410:./Libraries/CMSIS/Core/Include/cmsis_gcc.h **** __STATIC_FORCEINLINE void __TZ_set_MSP_NS(uint32_t topOfMainStack)
 411:./Libraries/CMSIS/Core/Include/cmsis_gcc.h **** {
 412:./Libraries/CMSIS/Core/Include/cmsis_gcc.h ****   __ASM volatile ("MSR msp_ns, %0" : : "r" (topOfMainStack) : );
 413:./Libraries/CMSIS/Core/Include/cmsis_gcc.h **** }
 414:./Libraries/CMSIS/Core/Include/cmsis_gcc.h **** #endif
 415:./Libraries/CMSIS/Core/Include/cmsis_gcc.h **** 
 416:./Libraries/CMSIS/Core/Include/cmsis_gcc.h **** 
 417:./Libraries/CMSIS/Core/Include/cmsis_gcc.h **** #if (defined (__ARM_FEATURE_CMSE ) && (__ARM_FEATURE_CMSE == 3))
 418:./Libraries/CMSIS/Core/Include/cmsis_gcc.h **** /**
 419:./Libraries/CMSIS/Core/Include/cmsis_gcc.h ****   \brief   Get Stack Pointer (non-secure)
 420:./Libraries/CMSIS/Core/Include/cmsis_gcc.h ****   \details Returns the current value of the non-secure Stack Pointer (SP) when in secure state.
 421:./Libraries/CMSIS/Core/Include/cmsis_gcc.h ****   \return               SP Register value
 422:./Libraries/CMSIS/Core/Include/cmsis_gcc.h ****  */
 423:./Libraries/CMSIS/Core/Include/cmsis_gcc.h **** __STATIC_FORCEINLINE uint32_t __TZ_get_SP_NS(void)
 424:./Libraries/CMSIS/Core/Include/cmsis_gcc.h **** {
 425:./Libraries/CMSIS/Core/Include/cmsis_gcc.h ****   uint32_t result;
 426:./Libraries/CMSIS/Core/Include/cmsis_gcc.h **** 
 427:./Libraries/CMSIS/Core/Include/cmsis_gcc.h ****   __ASM volatile ("MRS %0, sp_ns" : "=r" (result) );
 428:./Libraries/CMSIS/Core/Include/cmsis_gcc.h ****   return(result);
 429:./Libraries/CMSIS/Core/Include/cmsis_gcc.h **** }
 430:./Libraries/CMSIS/Core/Include/cmsis_gcc.h **** 
 431:./Libraries/CMSIS/Core/Include/cmsis_gcc.h **** 
 432:./Libraries/CMSIS/Core/Include/cmsis_gcc.h **** /**
 433:./Libraries/CMSIS/Core/Include/cmsis_gcc.h ****   \brief   Set Stack Pointer (non-secure)
 434:./Libraries/CMSIS/Core/Include/cmsis_gcc.h ****   \details Assigns the given value to the non-secure Stack Pointer (SP) when in secure state.
 435:./Libraries/CMSIS/Core/Include/cmsis_gcc.h ****   \param [in]    topOfStack  Stack Pointer value to set
 436:./Libraries/CMSIS/Core/Include/cmsis_gcc.h ****  */
 437:./Libraries/CMSIS/Core/Include/cmsis_gcc.h **** __STATIC_FORCEINLINE void __TZ_set_SP_NS(uint32_t topOfStack)
 438:./Libraries/CMSIS/Core/Include/cmsis_gcc.h **** {
 439:./Libraries/CMSIS/Core/Include/cmsis_gcc.h ****   __ASM volatile ("MSR sp_ns, %0" : : "r" (topOfStack) : );
 440:./Libraries/CMSIS/Core/Include/cmsis_gcc.h **** }
 441:./Libraries/CMSIS/Core/Include/cmsis_gcc.h **** #endif
 442:./Libraries/CMSIS/Core/Include/cmsis_gcc.h **** 
 443:./Libraries/CMSIS/Core/Include/cmsis_gcc.h **** 
 444:./Libraries/CMSIS/Core/Include/cmsis_gcc.h **** /**
 445:./Libraries/CMSIS/Core/Include/cmsis_gcc.h ****   \brief   Get Priority Mask
 446:./Libraries/CMSIS/Core/Include/cmsis_gcc.h ****   \details Returns the current state of the priority mask bit from the Priority Mask Register.
 447:./Libraries/CMSIS/Core/Include/cmsis_gcc.h ****   \return               Priority Mask value
 448:./Libraries/CMSIS/Core/Include/cmsis_gcc.h ****  */
 449:./Libraries/CMSIS/Core/Include/cmsis_gcc.h **** __STATIC_FORCEINLINE uint32_t __get_PRIMASK(void)
 450:./Libraries/CMSIS/Core/Include/cmsis_gcc.h **** {
 451:./Libraries/CMSIS/Core/Include/cmsis_gcc.h ****   uint32_t result;
 452:./Libraries/CMSIS/Core/Include/cmsis_gcc.h **** 
 453:./Libraries/CMSIS/Core/Include/cmsis_gcc.h ****   __ASM volatile ("MRS %0, primask" : "=r" (result) :: "memory");
 454:./Libraries/CMSIS/Core/Include/cmsis_gcc.h ****   return(result);
 455:./Libraries/CMSIS/Core/Include/cmsis_gcc.h **** }
 456:./Libraries/CMSIS/Core/Include/cmsis_gcc.h **** 
 457:./Libraries/CMSIS/Core/Include/cmsis_gcc.h **** 
ARM GAS  /tmp/ccsRY4dG.s 			page 20


 458:./Libraries/CMSIS/Core/Include/cmsis_gcc.h **** #if (defined (__ARM_FEATURE_CMSE ) && (__ARM_FEATURE_CMSE == 3))
 459:./Libraries/CMSIS/Core/Include/cmsis_gcc.h **** /**
 460:./Libraries/CMSIS/Core/Include/cmsis_gcc.h ****   \brief   Get Priority Mask (non-secure)
 461:./Libraries/CMSIS/Core/Include/cmsis_gcc.h ****   \details Returns the current state of the non-secure priority mask bit from the Priority Mask Reg
 462:./Libraries/CMSIS/Core/Include/cmsis_gcc.h ****   \return               Priority Mask value
 463:./Libraries/CMSIS/Core/Include/cmsis_gcc.h ****  */
 464:./Libraries/CMSIS/Core/Include/cmsis_gcc.h **** __STATIC_FORCEINLINE uint32_t __TZ_get_PRIMASK_NS(void)
 465:./Libraries/CMSIS/Core/Include/cmsis_gcc.h **** {
 466:./Libraries/CMSIS/Core/Include/cmsis_gcc.h ****   uint32_t result;
 467:./Libraries/CMSIS/Core/Include/cmsis_gcc.h **** 
 468:./Libraries/CMSIS/Core/Include/cmsis_gcc.h ****   __ASM volatile ("MRS %0, primask_ns" : "=r" (result) :: "memory");
 469:./Libraries/CMSIS/Core/Include/cmsis_gcc.h ****   return(result);
 470:./Libraries/CMSIS/Core/Include/cmsis_gcc.h **** }
 471:./Libraries/CMSIS/Core/Include/cmsis_gcc.h **** #endif
 472:./Libraries/CMSIS/Core/Include/cmsis_gcc.h **** 
 473:./Libraries/CMSIS/Core/Include/cmsis_gcc.h **** 
 474:./Libraries/CMSIS/Core/Include/cmsis_gcc.h **** /**
 475:./Libraries/CMSIS/Core/Include/cmsis_gcc.h ****   \brief   Set Priority Mask
 476:./Libraries/CMSIS/Core/Include/cmsis_gcc.h ****   \details Assigns the given value to the Priority Mask Register.
 477:./Libraries/CMSIS/Core/Include/cmsis_gcc.h ****   \param [in]    priMask  Priority Mask
 478:./Libraries/CMSIS/Core/Include/cmsis_gcc.h ****  */
 479:./Libraries/CMSIS/Core/Include/cmsis_gcc.h **** __STATIC_FORCEINLINE void __set_PRIMASK(uint32_t priMask)
 480:./Libraries/CMSIS/Core/Include/cmsis_gcc.h **** {
 481:./Libraries/CMSIS/Core/Include/cmsis_gcc.h ****   __ASM volatile ("MSR primask, %0" : : "r" (priMask) : "memory");
 482:./Libraries/CMSIS/Core/Include/cmsis_gcc.h **** }
 483:./Libraries/CMSIS/Core/Include/cmsis_gcc.h **** 
 484:./Libraries/CMSIS/Core/Include/cmsis_gcc.h **** 
 485:./Libraries/CMSIS/Core/Include/cmsis_gcc.h **** #if (defined (__ARM_FEATURE_CMSE ) && (__ARM_FEATURE_CMSE == 3))
 486:./Libraries/CMSIS/Core/Include/cmsis_gcc.h **** /**
 487:./Libraries/CMSIS/Core/Include/cmsis_gcc.h ****   \brief   Set Priority Mask (non-secure)
 488:./Libraries/CMSIS/Core/Include/cmsis_gcc.h ****   \details Assigns the given value to the non-secure Priority Mask Register when in secure state.
 489:./Libraries/CMSIS/Core/Include/cmsis_gcc.h ****   \param [in]    priMask  Priority Mask
 490:./Libraries/CMSIS/Core/Include/cmsis_gcc.h ****  */
 491:./Libraries/CMSIS/Core/Include/cmsis_gcc.h **** __STATIC_FORCEINLINE void __TZ_set_PRIMASK_NS(uint32_t priMask)
 492:./Libraries/CMSIS/Core/Include/cmsis_gcc.h **** {
 493:./Libraries/CMSIS/Core/Include/cmsis_gcc.h ****   __ASM volatile ("MSR primask_ns, %0" : : "r" (priMask) : "memory");
 494:./Libraries/CMSIS/Core/Include/cmsis_gcc.h **** }
 495:./Libraries/CMSIS/Core/Include/cmsis_gcc.h **** #endif
 496:./Libraries/CMSIS/Core/Include/cmsis_gcc.h **** 
 497:./Libraries/CMSIS/Core/Include/cmsis_gcc.h **** 
 498:./Libraries/CMSIS/Core/Include/cmsis_gcc.h **** #if ((defined (__ARM_ARCH_7M__      ) && (__ARM_ARCH_7M__      == 1)) || \
 499:./Libraries/CMSIS/Core/Include/cmsis_gcc.h ****      (defined (__ARM_ARCH_7EM__     ) && (__ARM_ARCH_7EM__     == 1)) || \
 500:./Libraries/CMSIS/Core/Include/cmsis_gcc.h ****      (defined (__ARM_ARCH_8M_MAIN__ ) && (__ARM_ARCH_8M_MAIN__ == 1))    )
 501:./Libraries/CMSIS/Core/Include/cmsis_gcc.h **** /**
 502:./Libraries/CMSIS/Core/Include/cmsis_gcc.h ****   \brief   Enable FIQ
 503:./Libraries/CMSIS/Core/Include/cmsis_gcc.h ****   \details Enables FIQ interrupts by clearing the F-bit in the CPSR.
 504:./Libraries/CMSIS/Core/Include/cmsis_gcc.h ****            Can only be executed in Privileged modes.
 505:./Libraries/CMSIS/Core/Include/cmsis_gcc.h ****  */
 506:./Libraries/CMSIS/Core/Include/cmsis_gcc.h **** __STATIC_FORCEINLINE void __enable_fault_irq(void)
 507:./Libraries/CMSIS/Core/Include/cmsis_gcc.h **** {
 508:./Libraries/CMSIS/Core/Include/cmsis_gcc.h ****   __ASM volatile ("cpsie f" : : : "memory");
 509:./Libraries/CMSIS/Core/Include/cmsis_gcc.h **** }
 510:./Libraries/CMSIS/Core/Include/cmsis_gcc.h **** 
 511:./Libraries/CMSIS/Core/Include/cmsis_gcc.h **** 
 512:./Libraries/CMSIS/Core/Include/cmsis_gcc.h **** /**
 513:./Libraries/CMSIS/Core/Include/cmsis_gcc.h ****   \brief   Disable FIQ
 514:./Libraries/CMSIS/Core/Include/cmsis_gcc.h ****   \details Disables FIQ interrupts by setting the F-bit in the CPSR.
ARM GAS  /tmp/ccsRY4dG.s 			page 21


 515:./Libraries/CMSIS/Core/Include/cmsis_gcc.h ****            Can only be executed in Privileged modes.
 516:./Libraries/CMSIS/Core/Include/cmsis_gcc.h ****  */
 517:./Libraries/CMSIS/Core/Include/cmsis_gcc.h **** __STATIC_FORCEINLINE void __disable_fault_irq(void)
 518:./Libraries/CMSIS/Core/Include/cmsis_gcc.h **** {
 519:./Libraries/CMSIS/Core/Include/cmsis_gcc.h ****   __ASM volatile ("cpsid f" : : : "memory");
 520:./Libraries/CMSIS/Core/Include/cmsis_gcc.h **** }
 521:./Libraries/CMSIS/Core/Include/cmsis_gcc.h **** 
 522:./Libraries/CMSIS/Core/Include/cmsis_gcc.h **** 
 523:./Libraries/CMSIS/Core/Include/cmsis_gcc.h **** /**
 524:./Libraries/CMSIS/Core/Include/cmsis_gcc.h ****   \brief   Get Base Priority
 525:./Libraries/CMSIS/Core/Include/cmsis_gcc.h ****   \details Returns the current value of the Base Priority register.
 526:./Libraries/CMSIS/Core/Include/cmsis_gcc.h ****   \return               Base Priority register value
 527:./Libraries/CMSIS/Core/Include/cmsis_gcc.h ****  */
 528:./Libraries/CMSIS/Core/Include/cmsis_gcc.h **** __STATIC_FORCEINLINE uint32_t __get_BASEPRI(void)
 529:./Libraries/CMSIS/Core/Include/cmsis_gcc.h **** {
 530:./Libraries/CMSIS/Core/Include/cmsis_gcc.h ****   uint32_t result;
 531:./Libraries/CMSIS/Core/Include/cmsis_gcc.h **** 
 532:./Libraries/CMSIS/Core/Include/cmsis_gcc.h ****   __ASM volatile ("MRS %0, basepri" : "=r" (result) );
 533:./Libraries/CMSIS/Core/Include/cmsis_gcc.h ****   return(result);
 534:./Libraries/CMSIS/Core/Include/cmsis_gcc.h **** }
 535:./Libraries/CMSIS/Core/Include/cmsis_gcc.h **** 
 536:./Libraries/CMSIS/Core/Include/cmsis_gcc.h **** 
 537:./Libraries/CMSIS/Core/Include/cmsis_gcc.h **** #if (defined (__ARM_FEATURE_CMSE ) && (__ARM_FEATURE_CMSE == 3))
 538:./Libraries/CMSIS/Core/Include/cmsis_gcc.h **** /**
 539:./Libraries/CMSIS/Core/Include/cmsis_gcc.h ****   \brief   Get Base Priority (non-secure)
 540:./Libraries/CMSIS/Core/Include/cmsis_gcc.h ****   \details Returns the current value of the non-secure Base Priority register when in secure state.
 541:./Libraries/CMSIS/Core/Include/cmsis_gcc.h ****   \return               Base Priority register value
 542:./Libraries/CMSIS/Core/Include/cmsis_gcc.h ****  */
 543:./Libraries/CMSIS/Core/Include/cmsis_gcc.h **** __STATIC_FORCEINLINE uint32_t __TZ_get_BASEPRI_NS(void)
 544:./Libraries/CMSIS/Core/Include/cmsis_gcc.h **** {
 545:./Libraries/CMSIS/Core/Include/cmsis_gcc.h ****   uint32_t result;
 546:./Libraries/CMSIS/Core/Include/cmsis_gcc.h **** 
 547:./Libraries/CMSIS/Core/Include/cmsis_gcc.h ****   __ASM volatile ("MRS %0, basepri_ns" : "=r" (result) );
 548:./Libraries/CMSIS/Core/Include/cmsis_gcc.h ****   return(result);
 549:./Libraries/CMSIS/Core/Include/cmsis_gcc.h **** }
 550:./Libraries/CMSIS/Core/Include/cmsis_gcc.h **** #endif
 551:./Libraries/CMSIS/Core/Include/cmsis_gcc.h **** 
 552:./Libraries/CMSIS/Core/Include/cmsis_gcc.h **** 
 553:./Libraries/CMSIS/Core/Include/cmsis_gcc.h **** /**
 554:./Libraries/CMSIS/Core/Include/cmsis_gcc.h ****   \brief   Set Base Priority
 555:./Libraries/CMSIS/Core/Include/cmsis_gcc.h ****   \details Assigns the given value to the Base Priority register.
 556:./Libraries/CMSIS/Core/Include/cmsis_gcc.h ****   \param [in]    basePri  Base Priority value to set
 557:./Libraries/CMSIS/Core/Include/cmsis_gcc.h ****  */
 558:./Libraries/CMSIS/Core/Include/cmsis_gcc.h **** __STATIC_FORCEINLINE void __set_BASEPRI(uint32_t basePri)
 559:./Libraries/CMSIS/Core/Include/cmsis_gcc.h **** {
 560:./Libraries/CMSIS/Core/Include/cmsis_gcc.h ****   __ASM volatile ("MSR basepri, %0" : : "r" (basePri) : "memory");
 561:./Libraries/CMSIS/Core/Include/cmsis_gcc.h **** }
 562:./Libraries/CMSIS/Core/Include/cmsis_gcc.h **** 
 563:./Libraries/CMSIS/Core/Include/cmsis_gcc.h **** 
 564:./Libraries/CMSIS/Core/Include/cmsis_gcc.h **** #if (defined (__ARM_FEATURE_CMSE ) && (__ARM_FEATURE_CMSE == 3))
 565:./Libraries/CMSIS/Core/Include/cmsis_gcc.h **** /**
 566:./Libraries/CMSIS/Core/Include/cmsis_gcc.h ****   \brief   Set Base Priority (non-secure)
 567:./Libraries/CMSIS/Core/Include/cmsis_gcc.h ****   \details Assigns the given value to the non-secure Base Priority register when in secure state.
 568:./Libraries/CMSIS/Core/Include/cmsis_gcc.h ****   \param [in]    basePri  Base Priority value to set
 569:./Libraries/CMSIS/Core/Include/cmsis_gcc.h ****  */
 570:./Libraries/CMSIS/Core/Include/cmsis_gcc.h **** __STATIC_FORCEINLINE void __TZ_set_BASEPRI_NS(uint32_t basePri)
 571:./Libraries/CMSIS/Core/Include/cmsis_gcc.h **** {
ARM GAS  /tmp/ccsRY4dG.s 			page 22


 572:./Libraries/CMSIS/Core/Include/cmsis_gcc.h ****   __ASM volatile ("MSR basepri_ns, %0" : : "r" (basePri) : "memory");
 573:./Libraries/CMSIS/Core/Include/cmsis_gcc.h **** }
 574:./Libraries/CMSIS/Core/Include/cmsis_gcc.h **** #endif
 575:./Libraries/CMSIS/Core/Include/cmsis_gcc.h **** 
 576:./Libraries/CMSIS/Core/Include/cmsis_gcc.h **** 
 577:./Libraries/CMSIS/Core/Include/cmsis_gcc.h **** /**
 578:./Libraries/CMSIS/Core/Include/cmsis_gcc.h ****   \brief   Set Base Priority with condition
 579:./Libraries/CMSIS/Core/Include/cmsis_gcc.h ****   \details Assigns the given value to the Base Priority register only if BASEPRI masking is disable
 580:./Libraries/CMSIS/Core/Include/cmsis_gcc.h ****            or the new value increases the BASEPRI priority level.
 581:./Libraries/CMSIS/Core/Include/cmsis_gcc.h ****   \param [in]    basePri  Base Priority value to set
 582:./Libraries/CMSIS/Core/Include/cmsis_gcc.h ****  */
 583:./Libraries/CMSIS/Core/Include/cmsis_gcc.h **** __STATIC_FORCEINLINE void __set_BASEPRI_MAX(uint32_t basePri)
 584:./Libraries/CMSIS/Core/Include/cmsis_gcc.h **** {
 585:./Libraries/CMSIS/Core/Include/cmsis_gcc.h ****   __ASM volatile ("MSR basepri_max, %0" : : "r" (basePri) : "memory");
 586:./Libraries/CMSIS/Core/Include/cmsis_gcc.h **** }
 587:./Libraries/CMSIS/Core/Include/cmsis_gcc.h **** 
 588:./Libraries/CMSIS/Core/Include/cmsis_gcc.h **** 
 589:./Libraries/CMSIS/Core/Include/cmsis_gcc.h **** /**
 590:./Libraries/CMSIS/Core/Include/cmsis_gcc.h ****   \brief   Get Fault Mask
 591:./Libraries/CMSIS/Core/Include/cmsis_gcc.h ****   \details Returns the current value of the Fault Mask register.
 592:./Libraries/CMSIS/Core/Include/cmsis_gcc.h ****   \return               Fault Mask register value
 593:./Libraries/CMSIS/Core/Include/cmsis_gcc.h ****  */
 594:./Libraries/CMSIS/Core/Include/cmsis_gcc.h **** __STATIC_FORCEINLINE uint32_t __get_FAULTMASK(void)
 595:./Libraries/CMSIS/Core/Include/cmsis_gcc.h **** {
 596:./Libraries/CMSIS/Core/Include/cmsis_gcc.h ****   uint32_t result;
 597:./Libraries/CMSIS/Core/Include/cmsis_gcc.h **** 
 598:./Libraries/CMSIS/Core/Include/cmsis_gcc.h ****   __ASM volatile ("MRS %0, faultmask" : "=r" (result) );
 599:./Libraries/CMSIS/Core/Include/cmsis_gcc.h ****   return(result);
 600:./Libraries/CMSIS/Core/Include/cmsis_gcc.h **** }
 601:./Libraries/CMSIS/Core/Include/cmsis_gcc.h **** 
 602:./Libraries/CMSIS/Core/Include/cmsis_gcc.h **** 
 603:./Libraries/CMSIS/Core/Include/cmsis_gcc.h **** #if (defined (__ARM_FEATURE_CMSE ) && (__ARM_FEATURE_CMSE == 3))
 604:./Libraries/CMSIS/Core/Include/cmsis_gcc.h **** /**
 605:./Libraries/CMSIS/Core/Include/cmsis_gcc.h ****   \brief   Get Fault Mask (non-secure)
 606:./Libraries/CMSIS/Core/Include/cmsis_gcc.h ****   \details Returns the current value of the non-secure Fault Mask register when in secure state.
 607:./Libraries/CMSIS/Core/Include/cmsis_gcc.h ****   \return               Fault Mask register value
 608:./Libraries/CMSIS/Core/Include/cmsis_gcc.h ****  */
 609:./Libraries/CMSIS/Core/Include/cmsis_gcc.h **** __STATIC_FORCEINLINE uint32_t __TZ_get_FAULTMASK_NS(void)
 610:./Libraries/CMSIS/Core/Include/cmsis_gcc.h **** {
 611:./Libraries/CMSIS/Core/Include/cmsis_gcc.h ****   uint32_t result;
 612:./Libraries/CMSIS/Core/Include/cmsis_gcc.h **** 
 613:./Libraries/CMSIS/Core/Include/cmsis_gcc.h ****   __ASM volatile ("MRS %0, faultmask_ns" : "=r" (result) );
 614:./Libraries/CMSIS/Core/Include/cmsis_gcc.h ****   return(result);
 615:./Libraries/CMSIS/Core/Include/cmsis_gcc.h **** }
 616:./Libraries/CMSIS/Core/Include/cmsis_gcc.h **** #endif
 617:./Libraries/CMSIS/Core/Include/cmsis_gcc.h **** 
 618:./Libraries/CMSIS/Core/Include/cmsis_gcc.h **** 
 619:./Libraries/CMSIS/Core/Include/cmsis_gcc.h **** /**
 620:./Libraries/CMSIS/Core/Include/cmsis_gcc.h ****   \brief   Set Fault Mask
 621:./Libraries/CMSIS/Core/Include/cmsis_gcc.h ****   \details Assigns the given value to the Fault Mask register.
 622:./Libraries/CMSIS/Core/Include/cmsis_gcc.h ****   \param [in]    faultMask  Fault Mask value to set
 623:./Libraries/CMSIS/Core/Include/cmsis_gcc.h ****  */
 624:./Libraries/CMSIS/Core/Include/cmsis_gcc.h **** __STATIC_FORCEINLINE void __set_FAULTMASK(uint32_t faultMask)
 625:./Libraries/CMSIS/Core/Include/cmsis_gcc.h **** {
 626:./Libraries/CMSIS/Core/Include/cmsis_gcc.h ****   __ASM volatile ("MSR faultmask, %0" : : "r" (faultMask) : "memory");
 627:./Libraries/CMSIS/Core/Include/cmsis_gcc.h **** }
 628:./Libraries/CMSIS/Core/Include/cmsis_gcc.h **** 
ARM GAS  /tmp/ccsRY4dG.s 			page 23


 629:./Libraries/CMSIS/Core/Include/cmsis_gcc.h **** 
 630:./Libraries/CMSIS/Core/Include/cmsis_gcc.h **** #if (defined (__ARM_FEATURE_CMSE ) && (__ARM_FEATURE_CMSE == 3))
 631:./Libraries/CMSIS/Core/Include/cmsis_gcc.h **** /**
 632:./Libraries/CMSIS/Core/Include/cmsis_gcc.h ****   \brief   Set Fault Mask (non-secure)
 633:./Libraries/CMSIS/Core/Include/cmsis_gcc.h ****   \details Assigns the given value to the non-secure Fault Mask register when in secure state.
 634:./Libraries/CMSIS/Core/Include/cmsis_gcc.h ****   \param [in]    faultMask  Fault Mask value to set
 635:./Libraries/CMSIS/Core/Include/cmsis_gcc.h ****  */
 636:./Libraries/CMSIS/Core/Include/cmsis_gcc.h **** __STATIC_FORCEINLINE void __TZ_set_FAULTMASK_NS(uint32_t faultMask)
 637:./Libraries/CMSIS/Core/Include/cmsis_gcc.h **** {
 638:./Libraries/CMSIS/Core/Include/cmsis_gcc.h ****   __ASM volatile ("MSR faultmask_ns, %0" : : "r" (faultMask) : "memory");
 639:./Libraries/CMSIS/Core/Include/cmsis_gcc.h **** }
 640:./Libraries/CMSIS/Core/Include/cmsis_gcc.h **** #endif
 641:./Libraries/CMSIS/Core/Include/cmsis_gcc.h **** 
 642:./Libraries/CMSIS/Core/Include/cmsis_gcc.h **** #endif /* ((defined (__ARM_ARCH_7M__      ) && (__ARM_ARCH_7M__      == 1)) || \
 643:./Libraries/CMSIS/Core/Include/cmsis_gcc.h ****            (defined (__ARM_ARCH_7EM__     ) && (__ARM_ARCH_7EM__     == 1)) || \
 644:./Libraries/CMSIS/Core/Include/cmsis_gcc.h ****            (defined (__ARM_ARCH_8M_MAIN__ ) && (__ARM_ARCH_8M_MAIN__ == 1))    ) */
 645:./Libraries/CMSIS/Core/Include/cmsis_gcc.h **** 
 646:./Libraries/CMSIS/Core/Include/cmsis_gcc.h **** 
 647:./Libraries/CMSIS/Core/Include/cmsis_gcc.h **** #if ((defined (__ARM_ARCH_8M_MAIN__ ) && (__ARM_ARCH_8M_MAIN__ == 1)) || \
 648:./Libraries/CMSIS/Core/Include/cmsis_gcc.h ****      (defined (__ARM_ARCH_8M_BASE__ ) && (__ARM_ARCH_8M_BASE__ == 1))    )
 649:./Libraries/CMSIS/Core/Include/cmsis_gcc.h **** 
 650:./Libraries/CMSIS/Core/Include/cmsis_gcc.h **** /**
 651:./Libraries/CMSIS/Core/Include/cmsis_gcc.h ****   \brief   Get Process Stack Pointer Limit
 652:./Libraries/CMSIS/Core/Include/cmsis_gcc.h ****   Devices without ARMv8-M Main Extensions (i.e. Cortex-M23) lack the non-secure
 653:./Libraries/CMSIS/Core/Include/cmsis_gcc.h ****   Stack Pointer Limit register hence zero is returned always in non-secure
 654:./Libraries/CMSIS/Core/Include/cmsis_gcc.h ****   mode.
 655:./Libraries/CMSIS/Core/Include/cmsis_gcc.h ****   
 656:./Libraries/CMSIS/Core/Include/cmsis_gcc.h ****   \details Returns the current value of the Process Stack Pointer Limit (PSPLIM).
 657:./Libraries/CMSIS/Core/Include/cmsis_gcc.h ****   \return               PSPLIM Register value
 658:./Libraries/CMSIS/Core/Include/cmsis_gcc.h ****  */
 659:./Libraries/CMSIS/Core/Include/cmsis_gcc.h **** __STATIC_FORCEINLINE uint32_t __get_PSPLIM(void)
 660:./Libraries/CMSIS/Core/Include/cmsis_gcc.h **** {
 661:./Libraries/CMSIS/Core/Include/cmsis_gcc.h **** #if (!(defined (__ARM_ARCH_8M_MAIN__ ) && (__ARM_ARCH_8M_MAIN__ == 1)) && \
 662:./Libraries/CMSIS/Core/Include/cmsis_gcc.h ****     (!defined (__ARM_FEATURE_CMSE) || (__ARM_FEATURE_CMSE < 3)))
 663:./Libraries/CMSIS/Core/Include/cmsis_gcc.h ****     // without main extensions, the non-secure PSPLIM is RAZ/WI
 664:./Libraries/CMSIS/Core/Include/cmsis_gcc.h ****   return 0U;
 665:./Libraries/CMSIS/Core/Include/cmsis_gcc.h **** #else
 666:./Libraries/CMSIS/Core/Include/cmsis_gcc.h ****   uint32_t result;
 667:./Libraries/CMSIS/Core/Include/cmsis_gcc.h ****   __ASM volatile ("MRS %0, psplim"  : "=r" (result) );
 668:./Libraries/CMSIS/Core/Include/cmsis_gcc.h ****   return result;
 669:./Libraries/CMSIS/Core/Include/cmsis_gcc.h **** #endif
 670:./Libraries/CMSIS/Core/Include/cmsis_gcc.h **** }
 671:./Libraries/CMSIS/Core/Include/cmsis_gcc.h **** 
 672:./Libraries/CMSIS/Core/Include/cmsis_gcc.h **** #if (defined (__ARM_FEATURE_CMSE) && (__ARM_FEATURE_CMSE == 3))
 673:./Libraries/CMSIS/Core/Include/cmsis_gcc.h **** /**
 674:./Libraries/CMSIS/Core/Include/cmsis_gcc.h ****   \brief   Get Process Stack Pointer Limit (non-secure)
 675:./Libraries/CMSIS/Core/Include/cmsis_gcc.h ****   Devices without ARMv8-M Main Extensions (i.e. Cortex-M23) lack the non-secure
 676:./Libraries/CMSIS/Core/Include/cmsis_gcc.h ****   Stack Pointer Limit register hence zero is returned always.
 677:./Libraries/CMSIS/Core/Include/cmsis_gcc.h **** 
 678:./Libraries/CMSIS/Core/Include/cmsis_gcc.h ****   \details Returns the current value of the non-secure Process Stack Pointer Limit (PSPLIM) when in
 679:./Libraries/CMSIS/Core/Include/cmsis_gcc.h ****   \return               PSPLIM Register value
 680:./Libraries/CMSIS/Core/Include/cmsis_gcc.h ****  */
 681:./Libraries/CMSIS/Core/Include/cmsis_gcc.h **** __STATIC_FORCEINLINE uint32_t __TZ_get_PSPLIM_NS(void)
 682:./Libraries/CMSIS/Core/Include/cmsis_gcc.h **** {
 683:./Libraries/CMSIS/Core/Include/cmsis_gcc.h **** #if (!(defined (__ARM_ARCH_8M_MAIN__ ) && (__ARM_ARCH_8M_MAIN__ == 1)))
 684:./Libraries/CMSIS/Core/Include/cmsis_gcc.h ****   // without main extensions, the non-secure PSPLIM is RAZ/WI
 685:./Libraries/CMSIS/Core/Include/cmsis_gcc.h ****   return 0U;
ARM GAS  /tmp/ccsRY4dG.s 			page 24


 686:./Libraries/CMSIS/Core/Include/cmsis_gcc.h **** #else
 687:./Libraries/CMSIS/Core/Include/cmsis_gcc.h ****   uint32_t result;
 688:./Libraries/CMSIS/Core/Include/cmsis_gcc.h ****   __ASM volatile ("MRS %0, psplim_ns"  : "=r" (result) );
 689:./Libraries/CMSIS/Core/Include/cmsis_gcc.h ****   return result;
 690:./Libraries/CMSIS/Core/Include/cmsis_gcc.h **** #endif
 691:./Libraries/CMSIS/Core/Include/cmsis_gcc.h **** }
 692:./Libraries/CMSIS/Core/Include/cmsis_gcc.h **** #endif
 693:./Libraries/CMSIS/Core/Include/cmsis_gcc.h **** 
 694:./Libraries/CMSIS/Core/Include/cmsis_gcc.h **** 
 695:./Libraries/CMSIS/Core/Include/cmsis_gcc.h **** /**
 696:./Libraries/CMSIS/Core/Include/cmsis_gcc.h ****   \brief   Set Process Stack Pointer Limit
 697:./Libraries/CMSIS/Core/Include/cmsis_gcc.h ****   Devices without ARMv8-M Main Extensions (i.e. Cortex-M23) lack the non-secure
 698:./Libraries/CMSIS/Core/Include/cmsis_gcc.h ****   Stack Pointer Limit register hence the write is silently ignored in non-secure
 699:./Libraries/CMSIS/Core/Include/cmsis_gcc.h ****   mode.
 700:./Libraries/CMSIS/Core/Include/cmsis_gcc.h ****   
 701:./Libraries/CMSIS/Core/Include/cmsis_gcc.h ****   \details Assigns the given value to the Process Stack Pointer Limit (PSPLIM).
 702:./Libraries/CMSIS/Core/Include/cmsis_gcc.h ****   \param [in]    ProcStackPtrLimit  Process Stack Pointer Limit value to set
 703:./Libraries/CMSIS/Core/Include/cmsis_gcc.h ****  */
 704:./Libraries/CMSIS/Core/Include/cmsis_gcc.h **** __STATIC_FORCEINLINE void __set_PSPLIM(uint32_t ProcStackPtrLimit)
 705:./Libraries/CMSIS/Core/Include/cmsis_gcc.h **** {
 706:./Libraries/CMSIS/Core/Include/cmsis_gcc.h **** #if (!(defined (__ARM_ARCH_8M_MAIN__ ) && (__ARM_ARCH_8M_MAIN__ == 1)) && \
 707:./Libraries/CMSIS/Core/Include/cmsis_gcc.h ****     (!defined (__ARM_FEATURE_CMSE) || (__ARM_FEATURE_CMSE < 3)))
 708:./Libraries/CMSIS/Core/Include/cmsis_gcc.h ****   // without main extensions, the non-secure PSPLIM is RAZ/WI
 709:./Libraries/CMSIS/Core/Include/cmsis_gcc.h ****   (void)ProcStackPtrLimit;
 710:./Libraries/CMSIS/Core/Include/cmsis_gcc.h **** #else
 711:./Libraries/CMSIS/Core/Include/cmsis_gcc.h ****   __ASM volatile ("MSR psplim, %0" : : "r" (ProcStackPtrLimit));
 712:./Libraries/CMSIS/Core/Include/cmsis_gcc.h **** #endif
 713:./Libraries/CMSIS/Core/Include/cmsis_gcc.h **** }
 714:./Libraries/CMSIS/Core/Include/cmsis_gcc.h **** 
 715:./Libraries/CMSIS/Core/Include/cmsis_gcc.h **** 
 716:./Libraries/CMSIS/Core/Include/cmsis_gcc.h **** #if (defined (__ARM_FEATURE_CMSE  ) && (__ARM_FEATURE_CMSE   == 3))
 717:./Libraries/CMSIS/Core/Include/cmsis_gcc.h **** /**
 718:./Libraries/CMSIS/Core/Include/cmsis_gcc.h ****   \brief   Set Process Stack Pointer (non-secure)
 719:./Libraries/CMSIS/Core/Include/cmsis_gcc.h ****   Devices without ARMv8-M Main Extensions (i.e. Cortex-M23) lack the non-secure
 720:./Libraries/CMSIS/Core/Include/cmsis_gcc.h ****   Stack Pointer Limit register hence the write is silently ignored.
 721:./Libraries/CMSIS/Core/Include/cmsis_gcc.h **** 
 722:./Libraries/CMSIS/Core/Include/cmsis_gcc.h ****   \details Assigns the given value to the non-secure Process Stack Pointer Limit (PSPLIM) when in s
 723:./Libraries/CMSIS/Core/Include/cmsis_gcc.h ****   \param [in]    ProcStackPtrLimit  Process Stack Pointer Limit value to set
 724:./Libraries/CMSIS/Core/Include/cmsis_gcc.h ****  */
 725:./Libraries/CMSIS/Core/Include/cmsis_gcc.h **** __STATIC_FORCEINLINE void __TZ_set_PSPLIM_NS(uint32_t ProcStackPtrLimit)
 726:./Libraries/CMSIS/Core/Include/cmsis_gcc.h **** {
 727:./Libraries/CMSIS/Core/Include/cmsis_gcc.h **** #if (!(defined (__ARM_ARCH_8M_MAIN__ ) && (__ARM_ARCH_8M_MAIN__ == 1)))
 728:./Libraries/CMSIS/Core/Include/cmsis_gcc.h ****   // without main extensions, the non-secure PSPLIM is RAZ/WI
 729:./Libraries/CMSIS/Core/Include/cmsis_gcc.h ****   (void)ProcStackPtrLimit;
 730:./Libraries/CMSIS/Core/Include/cmsis_gcc.h **** #else
 731:./Libraries/CMSIS/Core/Include/cmsis_gcc.h ****   __ASM volatile ("MSR psplim_ns, %0\n" : : "r" (ProcStackPtrLimit));
 732:./Libraries/CMSIS/Core/Include/cmsis_gcc.h **** #endif
 733:./Libraries/CMSIS/Core/Include/cmsis_gcc.h **** }
 734:./Libraries/CMSIS/Core/Include/cmsis_gcc.h **** #endif
 735:./Libraries/CMSIS/Core/Include/cmsis_gcc.h **** 
 736:./Libraries/CMSIS/Core/Include/cmsis_gcc.h **** 
 737:./Libraries/CMSIS/Core/Include/cmsis_gcc.h **** /**
 738:./Libraries/CMSIS/Core/Include/cmsis_gcc.h ****   \brief   Get Main Stack Pointer Limit
 739:./Libraries/CMSIS/Core/Include/cmsis_gcc.h ****   Devices without ARMv8-M Main Extensions (i.e. Cortex-M23) lack the non-secure
 740:./Libraries/CMSIS/Core/Include/cmsis_gcc.h ****   Stack Pointer Limit register hence zero is returned always in non-secure
 741:./Libraries/CMSIS/Core/Include/cmsis_gcc.h ****   mode.
 742:./Libraries/CMSIS/Core/Include/cmsis_gcc.h **** 
ARM GAS  /tmp/ccsRY4dG.s 			page 25


 743:./Libraries/CMSIS/Core/Include/cmsis_gcc.h ****   \details Returns the current value of the Main Stack Pointer Limit (MSPLIM).
 744:./Libraries/CMSIS/Core/Include/cmsis_gcc.h ****   \return               MSPLIM Register value
 745:./Libraries/CMSIS/Core/Include/cmsis_gcc.h ****  */
 746:./Libraries/CMSIS/Core/Include/cmsis_gcc.h **** __STATIC_FORCEINLINE uint32_t __get_MSPLIM(void)
 747:./Libraries/CMSIS/Core/Include/cmsis_gcc.h **** {
 748:./Libraries/CMSIS/Core/Include/cmsis_gcc.h **** #if (!(defined (__ARM_ARCH_8M_MAIN__ ) && (__ARM_ARCH_8M_MAIN__ == 1)) && \
 749:./Libraries/CMSIS/Core/Include/cmsis_gcc.h ****     (!defined (__ARM_FEATURE_CMSE) || (__ARM_FEATURE_CMSE < 3)))
 750:./Libraries/CMSIS/Core/Include/cmsis_gcc.h ****   // without main extensions, the non-secure MSPLIM is RAZ/WI
 751:./Libraries/CMSIS/Core/Include/cmsis_gcc.h ****   return 0U;
 752:./Libraries/CMSIS/Core/Include/cmsis_gcc.h **** #else
 753:./Libraries/CMSIS/Core/Include/cmsis_gcc.h ****   uint32_t result;
 754:./Libraries/CMSIS/Core/Include/cmsis_gcc.h ****   __ASM volatile ("MRS %0, msplim" : "=r" (result) );
 755:./Libraries/CMSIS/Core/Include/cmsis_gcc.h ****   return result;
 756:./Libraries/CMSIS/Core/Include/cmsis_gcc.h **** #endif
 757:./Libraries/CMSIS/Core/Include/cmsis_gcc.h **** }
 758:./Libraries/CMSIS/Core/Include/cmsis_gcc.h **** 
 759:./Libraries/CMSIS/Core/Include/cmsis_gcc.h **** 
 760:./Libraries/CMSIS/Core/Include/cmsis_gcc.h **** #if (defined (__ARM_FEATURE_CMSE  ) && (__ARM_FEATURE_CMSE   == 3))
 761:./Libraries/CMSIS/Core/Include/cmsis_gcc.h **** /**
 762:./Libraries/CMSIS/Core/Include/cmsis_gcc.h ****   \brief   Get Main Stack Pointer Limit (non-secure)
 763:./Libraries/CMSIS/Core/Include/cmsis_gcc.h ****   Devices without ARMv8-M Main Extensions (i.e. Cortex-M23) lack the non-secure
 764:./Libraries/CMSIS/Core/Include/cmsis_gcc.h ****   Stack Pointer Limit register hence zero is returned always.
 765:./Libraries/CMSIS/Core/Include/cmsis_gcc.h **** 
 766:./Libraries/CMSIS/Core/Include/cmsis_gcc.h ****   \details Returns the current value of the non-secure Main Stack Pointer Limit(MSPLIM) when in sec
 767:./Libraries/CMSIS/Core/Include/cmsis_gcc.h ****   \return               MSPLIM Register value
 768:./Libraries/CMSIS/Core/Include/cmsis_gcc.h ****  */
 769:./Libraries/CMSIS/Core/Include/cmsis_gcc.h **** __STATIC_FORCEINLINE uint32_t __TZ_get_MSPLIM_NS(void)
 770:./Libraries/CMSIS/Core/Include/cmsis_gcc.h **** {
 771:./Libraries/CMSIS/Core/Include/cmsis_gcc.h **** #if (!(defined (__ARM_ARCH_8M_MAIN__ ) && (__ARM_ARCH_8M_MAIN__ == 1)))
 772:./Libraries/CMSIS/Core/Include/cmsis_gcc.h ****   // without main extensions, the non-secure MSPLIM is RAZ/WI
 773:./Libraries/CMSIS/Core/Include/cmsis_gcc.h ****   return 0U;
 774:./Libraries/CMSIS/Core/Include/cmsis_gcc.h **** #else
 775:./Libraries/CMSIS/Core/Include/cmsis_gcc.h ****   uint32_t result;
 776:./Libraries/CMSIS/Core/Include/cmsis_gcc.h ****   __ASM volatile ("MRS %0, msplim_ns" : "=r" (result) );
 777:./Libraries/CMSIS/Core/Include/cmsis_gcc.h ****   return result;
 778:./Libraries/CMSIS/Core/Include/cmsis_gcc.h **** #endif
 779:./Libraries/CMSIS/Core/Include/cmsis_gcc.h **** }
 780:./Libraries/CMSIS/Core/Include/cmsis_gcc.h **** #endif
 781:./Libraries/CMSIS/Core/Include/cmsis_gcc.h **** 
 782:./Libraries/CMSIS/Core/Include/cmsis_gcc.h **** 
 783:./Libraries/CMSIS/Core/Include/cmsis_gcc.h **** /**
 784:./Libraries/CMSIS/Core/Include/cmsis_gcc.h ****   \brief   Set Main Stack Pointer Limit
 785:./Libraries/CMSIS/Core/Include/cmsis_gcc.h ****   Devices without ARMv8-M Main Extensions (i.e. Cortex-M23) lack the non-secure
 786:./Libraries/CMSIS/Core/Include/cmsis_gcc.h ****   Stack Pointer Limit register hence the write is silently ignored in non-secure
 787:./Libraries/CMSIS/Core/Include/cmsis_gcc.h ****   mode.
 788:./Libraries/CMSIS/Core/Include/cmsis_gcc.h **** 
 789:./Libraries/CMSIS/Core/Include/cmsis_gcc.h ****   \details Assigns the given value to the Main Stack Pointer Limit (MSPLIM).
 790:./Libraries/CMSIS/Core/Include/cmsis_gcc.h ****   \param [in]    MainStackPtrLimit  Main Stack Pointer Limit value to set
 791:./Libraries/CMSIS/Core/Include/cmsis_gcc.h ****  */
 792:./Libraries/CMSIS/Core/Include/cmsis_gcc.h **** __STATIC_FORCEINLINE void __set_MSPLIM(uint32_t MainStackPtrLimit)
 793:./Libraries/CMSIS/Core/Include/cmsis_gcc.h **** {
 794:./Libraries/CMSIS/Core/Include/cmsis_gcc.h **** #if (!(defined (__ARM_ARCH_8M_MAIN__ ) && (__ARM_ARCH_8M_MAIN__ == 1)) && \
 795:./Libraries/CMSIS/Core/Include/cmsis_gcc.h ****     (!defined (__ARM_FEATURE_CMSE) || (__ARM_FEATURE_CMSE < 3)))
 796:./Libraries/CMSIS/Core/Include/cmsis_gcc.h ****   // without main extensions, the non-secure MSPLIM is RAZ/WI
 797:./Libraries/CMSIS/Core/Include/cmsis_gcc.h ****   (void)MainStackPtrLimit;
 798:./Libraries/CMSIS/Core/Include/cmsis_gcc.h **** #else
 799:./Libraries/CMSIS/Core/Include/cmsis_gcc.h ****   __ASM volatile ("MSR msplim, %0" : : "r" (MainStackPtrLimit));
ARM GAS  /tmp/ccsRY4dG.s 			page 26


 800:./Libraries/CMSIS/Core/Include/cmsis_gcc.h **** #endif
 801:./Libraries/CMSIS/Core/Include/cmsis_gcc.h **** }
 802:./Libraries/CMSIS/Core/Include/cmsis_gcc.h **** 
 803:./Libraries/CMSIS/Core/Include/cmsis_gcc.h **** 
 804:./Libraries/CMSIS/Core/Include/cmsis_gcc.h **** #if (defined (__ARM_FEATURE_CMSE  ) && (__ARM_FEATURE_CMSE   == 3))
 805:./Libraries/CMSIS/Core/Include/cmsis_gcc.h **** /**
 806:./Libraries/CMSIS/Core/Include/cmsis_gcc.h ****   \brief   Set Main Stack Pointer Limit (non-secure)
 807:./Libraries/CMSIS/Core/Include/cmsis_gcc.h ****   Devices without ARMv8-M Main Extensions (i.e. Cortex-M23) lack the non-secure
 808:./Libraries/CMSIS/Core/Include/cmsis_gcc.h ****   Stack Pointer Limit register hence the write is silently ignored.
 809:./Libraries/CMSIS/Core/Include/cmsis_gcc.h **** 
 810:./Libraries/CMSIS/Core/Include/cmsis_gcc.h ****   \details Assigns the given value to the non-secure Main Stack Pointer Limit (MSPLIM) when in secu
 811:./Libraries/CMSIS/Core/Include/cmsis_gcc.h ****   \param [in]    MainStackPtrLimit  Main Stack Pointer value to set
 812:./Libraries/CMSIS/Core/Include/cmsis_gcc.h ****  */
 813:./Libraries/CMSIS/Core/Include/cmsis_gcc.h **** __STATIC_FORCEINLINE void __TZ_set_MSPLIM_NS(uint32_t MainStackPtrLimit)
 814:./Libraries/CMSIS/Core/Include/cmsis_gcc.h **** {
 815:./Libraries/CMSIS/Core/Include/cmsis_gcc.h **** #if (!(defined (__ARM_ARCH_8M_MAIN__ ) && (__ARM_ARCH_8M_MAIN__ == 1)))
 816:./Libraries/CMSIS/Core/Include/cmsis_gcc.h ****   // without main extensions, the non-secure MSPLIM is RAZ/WI
 817:./Libraries/CMSIS/Core/Include/cmsis_gcc.h ****   (void)MainStackPtrLimit;
 818:./Libraries/CMSIS/Core/Include/cmsis_gcc.h **** #else
 819:./Libraries/CMSIS/Core/Include/cmsis_gcc.h ****   __ASM volatile ("MSR msplim_ns, %0" : : "r" (MainStackPtrLimit));
 820:./Libraries/CMSIS/Core/Include/cmsis_gcc.h **** #endif
 821:./Libraries/CMSIS/Core/Include/cmsis_gcc.h **** }
 822:./Libraries/CMSIS/Core/Include/cmsis_gcc.h **** #endif
 823:./Libraries/CMSIS/Core/Include/cmsis_gcc.h **** 
 824:./Libraries/CMSIS/Core/Include/cmsis_gcc.h **** #endif /* ((defined (__ARM_ARCH_8M_MAIN__ ) && (__ARM_ARCH_8M_MAIN__ == 1)) || \
 825:./Libraries/CMSIS/Core/Include/cmsis_gcc.h ****            (defined (__ARM_ARCH_8M_BASE__ ) && (__ARM_ARCH_8M_BASE__ == 1))    ) */
 826:./Libraries/CMSIS/Core/Include/cmsis_gcc.h **** 
 827:./Libraries/CMSIS/Core/Include/cmsis_gcc.h **** 
 828:./Libraries/CMSIS/Core/Include/cmsis_gcc.h **** /**
 829:./Libraries/CMSIS/Core/Include/cmsis_gcc.h ****   \brief   Get FPSCR
 830:./Libraries/CMSIS/Core/Include/cmsis_gcc.h ****   \details Returns the current value of the Floating Point Status/Control register.
 831:./Libraries/CMSIS/Core/Include/cmsis_gcc.h ****   \return               Floating Point Status/Control register value
 832:./Libraries/CMSIS/Core/Include/cmsis_gcc.h ****  */
 833:./Libraries/CMSIS/Core/Include/cmsis_gcc.h **** __STATIC_FORCEINLINE uint32_t __get_FPSCR(void)
 834:./Libraries/CMSIS/Core/Include/cmsis_gcc.h **** {
 835:./Libraries/CMSIS/Core/Include/cmsis_gcc.h **** #if ((defined (__FPU_PRESENT) && (__FPU_PRESENT == 1U)) && \
 836:./Libraries/CMSIS/Core/Include/cmsis_gcc.h ****      (defined (__FPU_USED   ) && (__FPU_USED    == 1U))     )
 837:./Libraries/CMSIS/Core/Include/cmsis_gcc.h **** #if __has_builtin(__builtin_arm_get_fpscr) 
 838:./Libraries/CMSIS/Core/Include/cmsis_gcc.h **** // Re-enable using built-in when GCC has been fixed
 839:./Libraries/CMSIS/Core/Include/cmsis_gcc.h **** // || (__GNUC__ > 7) || (__GNUC__ == 7 && __GNUC_MINOR__ >= 2)
 840:./Libraries/CMSIS/Core/Include/cmsis_gcc.h ****   /* see https://gcc.gnu.org/ml/gcc-patches/2017-04/msg00443.html */
 841:./Libraries/CMSIS/Core/Include/cmsis_gcc.h ****   return __builtin_arm_get_fpscr();
 842:./Libraries/CMSIS/Core/Include/cmsis_gcc.h **** #else
 843:./Libraries/CMSIS/Core/Include/cmsis_gcc.h ****   uint32_t result;
 844:./Libraries/CMSIS/Core/Include/cmsis_gcc.h **** 
 845:./Libraries/CMSIS/Core/Include/cmsis_gcc.h ****   __ASM volatile ("VMRS %0, fpscr" : "=r" (result) );
 846:./Libraries/CMSIS/Core/Include/cmsis_gcc.h ****   return(result);
 847:./Libraries/CMSIS/Core/Include/cmsis_gcc.h **** #endif
 848:./Libraries/CMSIS/Core/Include/cmsis_gcc.h **** #else
 849:./Libraries/CMSIS/Core/Include/cmsis_gcc.h ****   return(0U);
 850:./Libraries/CMSIS/Core/Include/cmsis_gcc.h **** #endif
 851:./Libraries/CMSIS/Core/Include/cmsis_gcc.h **** }
 852:./Libraries/CMSIS/Core/Include/cmsis_gcc.h **** 
 853:./Libraries/CMSIS/Core/Include/cmsis_gcc.h **** 
 854:./Libraries/CMSIS/Core/Include/cmsis_gcc.h **** /**
 855:./Libraries/CMSIS/Core/Include/cmsis_gcc.h ****   \brief   Set FPSCR
 856:./Libraries/CMSIS/Core/Include/cmsis_gcc.h ****   \details Assigns the given value to the Floating Point Status/Control register.
ARM GAS  /tmp/ccsRY4dG.s 			page 27


 857:./Libraries/CMSIS/Core/Include/cmsis_gcc.h ****   \param [in]    fpscr  Floating Point Status/Control value to set
 858:./Libraries/CMSIS/Core/Include/cmsis_gcc.h ****  */
 859:./Libraries/CMSIS/Core/Include/cmsis_gcc.h **** __STATIC_FORCEINLINE void __set_FPSCR(uint32_t fpscr)
 860:./Libraries/CMSIS/Core/Include/cmsis_gcc.h **** {
 861:./Libraries/CMSIS/Core/Include/cmsis_gcc.h **** #if ((defined (__FPU_PRESENT) && (__FPU_PRESENT == 1U)) && \
 862:./Libraries/CMSIS/Core/Include/cmsis_gcc.h ****      (defined (__FPU_USED   ) && (__FPU_USED    == 1U))     )
 863:./Libraries/CMSIS/Core/Include/cmsis_gcc.h **** #if __has_builtin(__builtin_arm_set_fpscr)
 864:./Libraries/CMSIS/Core/Include/cmsis_gcc.h **** // Re-enable using built-in when GCC has been fixed
 865:./Libraries/CMSIS/Core/Include/cmsis_gcc.h **** // || (__GNUC__ > 7) || (__GNUC__ == 7 && __GNUC_MINOR__ >= 2)
 866:./Libraries/CMSIS/Core/Include/cmsis_gcc.h ****   /* see https://gcc.gnu.org/ml/gcc-patches/2017-04/msg00443.html */
 867:./Libraries/CMSIS/Core/Include/cmsis_gcc.h ****   __builtin_arm_set_fpscr(fpscr);
 868:./Libraries/CMSIS/Core/Include/cmsis_gcc.h **** #else
 869:./Libraries/CMSIS/Core/Include/cmsis_gcc.h ****   __ASM volatile ("VMSR fpscr, %0" : : "r" (fpscr) : "vfpcc", "memory");
 870:./Libraries/CMSIS/Core/Include/cmsis_gcc.h **** #endif
 871:./Libraries/CMSIS/Core/Include/cmsis_gcc.h **** #else
 872:./Libraries/CMSIS/Core/Include/cmsis_gcc.h ****   (void)fpscr;
 873:./Libraries/CMSIS/Core/Include/cmsis_gcc.h **** #endif
 874:./Libraries/CMSIS/Core/Include/cmsis_gcc.h **** }
 875:./Libraries/CMSIS/Core/Include/cmsis_gcc.h **** 
 876:./Libraries/CMSIS/Core/Include/cmsis_gcc.h **** 
 877:./Libraries/CMSIS/Core/Include/cmsis_gcc.h **** /*@} end of CMSIS_Core_RegAccFunctions */
 878:./Libraries/CMSIS/Core/Include/cmsis_gcc.h **** 
 879:./Libraries/CMSIS/Core/Include/cmsis_gcc.h **** 
 880:./Libraries/CMSIS/Core/Include/cmsis_gcc.h **** /* ##########################  Core Instruction Access  ######################### */
 881:./Libraries/CMSIS/Core/Include/cmsis_gcc.h **** /** \defgroup CMSIS_Core_InstructionInterface CMSIS Core Instruction Interface
 882:./Libraries/CMSIS/Core/Include/cmsis_gcc.h ****   Access to dedicated instructions
 883:./Libraries/CMSIS/Core/Include/cmsis_gcc.h ****   @{
 884:./Libraries/CMSIS/Core/Include/cmsis_gcc.h **** */
 885:./Libraries/CMSIS/Core/Include/cmsis_gcc.h **** 
 886:./Libraries/CMSIS/Core/Include/cmsis_gcc.h **** /* Define macros for porting to both thumb1 and thumb2.
 887:./Libraries/CMSIS/Core/Include/cmsis_gcc.h ****  * For thumb1, use low register (r0-r7), specified by constraint "l"
 888:./Libraries/CMSIS/Core/Include/cmsis_gcc.h ****  * Otherwise, use general registers, specified by constraint "r" */
 889:./Libraries/CMSIS/Core/Include/cmsis_gcc.h **** #if defined (__thumb__) && !defined (__thumb2__)
 890:./Libraries/CMSIS/Core/Include/cmsis_gcc.h **** #define __CMSIS_GCC_OUT_REG(r) "=l" (r)
 891:./Libraries/CMSIS/Core/Include/cmsis_gcc.h **** #define __CMSIS_GCC_RW_REG(r) "+l" (r)
 892:./Libraries/CMSIS/Core/Include/cmsis_gcc.h **** #define __CMSIS_GCC_USE_REG(r) "l" (r)
 893:./Libraries/CMSIS/Core/Include/cmsis_gcc.h **** #else
 894:./Libraries/CMSIS/Core/Include/cmsis_gcc.h **** #define __CMSIS_GCC_OUT_REG(r) "=r" (r)
 895:./Libraries/CMSIS/Core/Include/cmsis_gcc.h **** #define __CMSIS_GCC_RW_REG(r) "+r" (r)
 896:./Libraries/CMSIS/Core/Include/cmsis_gcc.h **** #define __CMSIS_GCC_USE_REG(r) "r" (r)
 897:./Libraries/CMSIS/Core/Include/cmsis_gcc.h **** #endif
 898:./Libraries/CMSIS/Core/Include/cmsis_gcc.h **** 
 899:./Libraries/CMSIS/Core/Include/cmsis_gcc.h **** /**
 900:./Libraries/CMSIS/Core/Include/cmsis_gcc.h ****   \brief   No Operation
 901:./Libraries/CMSIS/Core/Include/cmsis_gcc.h ****   \details No Operation does nothing. This instruction can be used for code alignment purposes.
 902:./Libraries/CMSIS/Core/Include/cmsis_gcc.h ****  */
 903:./Libraries/CMSIS/Core/Include/cmsis_gcc.h **** #define __NOP()                             __ASM volatile ("nop")
 904:./Libraries/CMSIS/Core/Include/cmsis_gcc.h **** 
 905:./Libraries/CMSIS/Core/Include/cmsis_gcc.h **** /**
 906:./Libraries/CMSIS/Core/Include/cmsis_gcc.h ****   \brief   Wait For Interrupt
 907:./Libraries/CMSIS/Core/Include/cmsis_gcc.h ****   \details Wait For Interrupt is a hint instruction that suspends execution until one of a number o
 908:./Libraries/CMSIS/Core/Include/cmsis_gcc.h ****  */
 909:./Libraries/CMSIS/Core/Include/cmsis_gcc.h **** #define __WFI()                             __ASM volatile ("wfi")
 910:./Libraries/CMSIS/Core/Include/cmsis_gcc.h **** 
 911:./Libraries/CMSIS/Core/Include/cmsis_gcc.h **** 
 912:./Libraries/CMSIS/Core/Include/cmsis_gcc.h **** /**
 913:./Libraries/CMSIS/Core/Include/cmsis_gcc.h ****   \brief   Wait For Event
ARM GAS  /tmp/ccsRY4dG.s 			page 28


 914:./Libraries/CMSIS/Core/Include/cmsis_gcc.h ****   \details Wait For Event is a hint instruction that permits the processor to enter
 915:./Libraries/CMSIS/Core/Include/cmsis_gcc.h ****            a low-power state until one of a number of events occurs.
 916:./Libraries/CMSIS/Core/Include/cmsis_gcc.h ****  */
 917:./Libraries/CMSIS/Core/Include/cmsis_gcc.h **** #define __WFE()                             __ASM volatile ("wfe")
 918:./Libraries/CMSIS/Core/Include/cmsis_gcc.h **** 
 919:./Libraries/CMSIS/Core/Include/cmsis_gcc.h **** 
 920:./Libraries/CMSIS/Core/Include/cmsis_gcc.h **** /**
 921:./Libraries/CMSIS/Core/Include/cmsis_gcc.h ****   \brief   Send Event
 922:./Libraries/CMSIS/Core/Include/cmsis_gcc.h ****   \details Send Event is a hint instruction. It causes an event to be signaled to the CPU.
 923:./Libraries/CMSIS/Core/Include/cmsis_gcc.h ****  */
 924:./Libraries/CMSIS/Core/Include/cmsis_gcc.h **** #define __SEV()                             __ASM volatile ("sev")
 925:./Libraries/CMSIS/Core/Include/cmsis_gcc.h **** 
 926:./Libraries/CMSIS/Core/Include/cmsis_gcc.h **** 
 927:./Libraries/CMSIS/Core/Include/cmsis_gcc.h **** /**
 928:./Libraries/CMSIS/Core/Include/cmsis_gcc.h ****   \brief   Instruction Synchronization Barrier
 929:./Libraries/CMSIS/Core/Include/cmsis_gcc.h ****   \details Instruction Synchronization Barrier flushes the pipeline in the processor,
 930:./Libraries/CMSIS/Core/Include/cmsis_gcc.h ****            so that all instructions following the ISB are fetched from cache or memory,
 931:./Libraries/CMSIS/Core/Include/cmsis_gcc.h ****            after the instruction has been completed.
 932:./Libraries/CMSIS/Core/Include/cmsis_gcc.h ****  */
 933:./Libraries/CMSIS/Core/Include/cmsis_gcc.h **** __STATIC_FORCEINLINE void __ISB(void)
 934:./Libraries/CMSIS/Core/Include/cmsis_gcc.h **** {
 935:./Libraries/CMSIS/Core/Include/cmsis_gcc.h ****   __ASM volatile ("isb 0xF":::"memory");
 936:./Libraries/CMSIS/Core/Include/cmsis_gcc.h **** }
 937:./Libraries/CMSIS/Core/Include/cmsis_gcc.h **** 
 938:./Libraries/CMSIS/Core/Include/cmsis_gcc.h **** 
 939:./Libraries/CMSIS/Core/Include/cmsis_gcc.h **** /**
 940:./Libraries/CMSIS/Core/Include/cmsis_gcc.h ****   \brief   Data Synchronization Barrier
 941:./Libraries/CMSIS/Core/Include/cmsis_gcc.h ****   \details Acts as a special kind of Data Memory Barrier.
 942:./Libraries/CMSIS/Core/Include/cmsis_gcc.h ****            It completes when all explicit memory accesses before this instruction complete.
 943:./Libraries/CMSIS/Core/Include/cmsis_gcc.h ****  */
 944:./Libraries/CMSIS/Core/Include/cmsis_gcc.h **** __STATIC_FORCEINLINE void __DSB(void)
 945:./Libraries/CMSIS/Core/Include/cmsis_gcc.h **** {
 946:./Libraries/CMSIS/Core/Include/cmsis_gcc.h ****   __ASM volatile ("dsb 0xF":::"memory");
 947:./Libraries/CMSIS/Core/Include/cmsis_gcc.h **** }
 948:./Libraries/CMSIS/Core/Include/cmsis_gcc.h **** 
 949:./Libraries/CMSIS/Core/Include/cmsis_gcc.h **** 
 950:./Libraries/CMSIS/Core/Include/cmsis_gcc.h **** /**
 951:./Libraries/CMSIS/Core/Include/cmsis_gcc.h ****   \brief   Data Memory Barrier
 952:./Libraries/CMSIS/Core/Include/cmsis_gcc.h ****   \details Ensures the apparent order of the explicit memory operations before
 953:./Libraries/CMSIS/Core/Include/cmsis_gcc.h ****            and after the instruction, without ensuring their completion.
 954:./Libraries/CMSIS/Core/Include/cmsis_gcc.h ****  */
 955:./Libraries/CMSIS/Core/Include/cmsis_gcc.h **** __STATIC_FORCEINLINE void __DMB(void)
 956:./Libraries/CMSIS/Core/Include/cmsis_gcc.h **** {
 957:./Libraries/CMSIS/Core/Include/cmsis_gcc.h ****   __ASM volatile ("dmb 0xF":::"memory");
 958:./Libraries/CMSIS/Core/Include/cmsis_gcc.h **** }
 959:./Libraries/CMSIS/Core/Include/cmsis_gcc.h **** 
 960:./Libraries/CMSIS/Core/Include/cmsis_gcc.h **** 
 961:./Libraries/CMSIS/Core/Include/cmsis_gcc.h **** /**
 962:./Libraries/CMSIS/Core/Include/cmsis_gcc.h ****   \brief   Reverse byte order (32 bit)
 963:./Libraries/CMSIS/Core/Include/cmsis_gcc.h ****   \details Reverses the byte order in unsigned integer value. For example, 0x12345678 becomes 0x785
 964:./Libraries/CMSIS/Core/Include/cmsis_gcc.h ****   \param [in]    value  Value to reverse
 965:./Libraries/CMSIS/Core/Include/cmsis_gcc.h ****   \return               Reversed value
 966:./Libraries/CMSIS/Core/Include/cmsis_gcc.h ****  */
 967:./Libraries/CMSIS/Core/Include/cmsis_gcc.h **** __STATIC_FORCEINLINE uint32_t __REV(uint32_t value)
 968:./Libraries/CMSIS/Core/Include/cmsis_gcc.h **** {
 969:./Libraries/CMSIS/Core/Include/cmsis_gcc.h **** #if (__GNUC__ > 4) || (__GNUC__ == 4 && __GNUC_MINOR__ >= 5)
 970:./Libraries/CMSIS/Core/Include/cmsis_gcc.h ****   return __builtin_bswap32(value);
ARM GAS  /tmp/ccsRY4dG.s 			page 29


 971:./Libraries/CMSIS/Core/Include/cmsis_gcc.h **** #else
 972:./Libraries/CMSIS/Core/Include/cmsis_gcc.h ****   uint32_t result;
 973:./Libraries/CMSIS/Core/Include/cmsis_gcc.h **** 
 974:./Libraries/CMSIS/Core/Include/cmsis_gcc.h ****   __ASM volatile ("rev %0, %1" : __CMSIS_GCC_OUT_REG (result) : __CMSIS_GCC_USE_REG (value) );
 975:./Libraries/CMSIS/Core/Include/cmsis_gcc.h ****   return result;
 976:./Libraries/CMSIS/Core/Include/cmsis_gcc.h **** #endif
 977:./Libraries/CMSIS/Core/Include/cmsis_gcc.h **** }
 978:./Libraries/CMSIS/Core/Include/cmsis_gcc.h **** 
 979:./Libraries/CMSIS/Core/Include/cmsis_gcc.h **** 
 980:./Libraries/CMSIS/Core/Include/cmsis_gcc.h **** /**
 981:./Libraries/CMSIS/Core/Include/cmsis_gcc.h ****   \brief   Reverse byte order (16 bit)
 982:./Libraries/CMSIS/Core/Include/cmsis_gcc.h ****   \details Reverses the byte order within each halfword of a word. For example, 0x12345678 becomes 
 983:./Libraries/CMSIS/Core/Include/cmsis_gcc.h ****   \param [in]    value  Value to reverse
 984:./Libraries/CMSIS/Core/Include/cmsis_gcc.h ****   \return               Reversed value
 985:./Libraries/CMSIS/Core/Include/cmsis_gcc.h ****  */
 986:./Libraries/CMSIS/Core/Include/cmsis_gcc.h **** __STATIC_FORCEINLINE uint32_t __REV16(uint32_t value)
 987:./Libraries/CMSIS/Core/Include/cmsis_gcc.h **** {
 988:./Libraries/CMSIS/Core/Include/cmsis_gcc.h ****   uint32_t result;
 989:./Libraries/CMSIS/Core/Include/cmsis_gcc.h **** 
 990:./Libraries/CMSIS/Core/Include/cmsis_gcc.h ****   __ASM volatile ("rev16 %0, %1" : __CMSIS_GCC_OUT_REG (result) : __CMSIS_GCC_USE_REG (value) );
 991:./Libraries/CMSIS/Core/Include/cmsis_gcc.h ****   return result;
 992:./Libraries/CMSIS/Core/Include/cmsis_gcc.h **** }
 993:./Libraries/CMSIS/Core/Include/cmsis_gcc.h **** 
 994:./Libraries/CMSIS/Core/Include/cmsis_gcc.h **** 
 995:./Libraries/CMSIS/Core/Include/cmsis_gcc.h **** /**
 996:./Libraries/CMSIS/Core/Include/cmsis_gcc.h ****   \brief   Reverse byte order (16 bit)
 997:./Libraries/CMSIS/Core/Include/cmsis_gcc.h ****   \details Reverses the byte order in a 16-bit value and returns the signed 16-bit result. For exam
 998:./Libraries/CMSIS/Core/Include/cmsis_gcc.h ****   \param [in]    value  Value to reverse
 999:./Libraries/CMSIS/Core/Include/cmsis_gcc.h ****   \return               Reversed value
1000:./Libraries/CMSIS/Core/Include/cmsis_gcc.h ****  */
1001:./Libraries/CMSIS/Core/Include/cmsis_gcc.h **** __STATIC_FORCEINLINE int16_t __REVSH(int16_t value)
1002:./Libraries/CMSIS/Core/Include/cmsis_gcc.h **** {
1003:./Libraries/CMSIS/Core/Include/cmsis_gcc.h **** #if (__GNUC__ > 4) || (__GNUC__ == 4 && __GNUC_MINOR__ >= 8)
1004:./Libraries/CMSIS/Core/Include/cmsis_gcc.h ****   return (int16_t)__builtin_bswap16(value);
1005:./Libraries/CMSIS/Core/Include/cmsis_gcc.h **** #else
1006:./Libraries/CMSIS/Core/Include/cmsis_gcc.h ****   int16_t result;
1007:./Libraries/CMSIS/Core/Include/cmsis_gcc.h **** 
1008:./Libraries/CMSIS/Core/Include/cmsis_gcc.h ****   __ASM volatile ("revsh %0, %1" : __CMSIS_GCC_OUT_REG (result) : __CMSIS_GCC_USE_REG (value) );
1009:./Libraries/CMSIS/Core/Include/cmsis_gcc.h ****   return result;
1010:./Libraries/CMSIS/Core/Include/cmsis_gcc.h **** #endif
1011:./Libraries/CMSIS/Core/Include/cmsis_gcc.h **** }
1012:./Libraries/CMSIS/Core/Include/cmsis_gcc.h **** 
1013:./Libraries/CMSIS/Core/Include/cmsis_gcc.h **** 
1014:./Libraries/CMSIS/Core/Include/cmsis_gcc.h **** /**
1015:./Libraries/CMSIS/Core/Include/cmsis_gcc.h ****   \brief   Rotate Right in unsigned value (32 bit)
1016:./Libraries/CMSIS/Core/Include/cmsis_gcc.h ****   \details Rotate Right (immediate) provides the value of the contents of a register rotated by a v
1017:./Libraries/CMSIS/Core/Include/cmsis_gcc.h ****   \param [in]    op1  Value to rotate
1018:./Libraries/CMSIS/Core/Include/cmsis_gcc.h ****   \param [in]    op2  Number of Bits to rotate
1019:./Libraries/CMSIS/Core/Include/cmsis_gcc.h ****   \return               Rotated value
1020:./Libraries/CMSIS/Core/Include/cmsis_gcc.h ****  */
1021:./Libraries/CMSIS/Core/Include/cmsis_gcc.h **** __STATIC_FORCEINLINE uint32_t __ROR(uint32_t op1, uint32_t op2)
1022:./Libraries/CMSIS/Core/Include/cmsis_gcc.h **** {
1023:./Libraries/CMSIS/Core/Include/cmsis_gcc.h ****   op2 %= 32U;
 343              		.loc 3 1023 7
 344 0272 BB6B     		ldr	r3, [r7, #56]
 345 0274 03F01F03 		and	r3, r3, #31
 346 0278 BB63     		str	r3, [r7, #56]
ARM GAS  /tmp/ccsRY4dG.s 			page 30


1024:./Libraries/CMSIS/Core/Include/cmsis_gcc.h ****   if (op2 == 0U)
 347              		.loc 3 1024 6
 348 027a BB6B     		ldr	r3, [r7, #56]
 349 027c 002B     		cmp	r3, #0
 350 027e 01D1     		bne	.L17
1025:./Libraries/CMSIS/Core/Include/cmsis_gcc.h ****   {
1026:./Libraries/CMSIS/Core/Include/cmsis_gcc.h ****     return op1;
 351              		.loc 3 1026 12
 352 0280 FB6B     		ldr	r3, [r7, #60]
 353 0282 03E0     		b	.L18
 354              	.L17:
1027:./Libraries/CMSIS/Core/Include/cmsis_gcc.h ****   }
1028:./Libraries/CMSIS/Core/Include/cmsis_gcc.h ****   return (op1 >> op2) | (op1 << (32U - op2));
 355              		.loc 3 1028 23
 356 0284 FA6B     		ldr	r2, [r7, #60]
 357 0286 BB6B     		ldr	r3, [r7, #56]
 358 0288 62FA03F3 		ror	r3, r2, r3
 359              	.L18:
 360 028c 7B63     		str	r3, [r7, #52]
 361              	.LBE31:
 362              	.LBE30:
 363              	.LBB32:
 364              	.LBB33:
1029:./Libraries/CMSIS/Core/Include/cmsis_gcc.h **** }
1030:./Libraries/CMSIS/Core/Include/cmsis_gcc.h **** 
1031:./Libraries/CMSIS/Core/Include/cmsis_gcc.h **** 
1032:./Libraries/CMSIS/Core/Include/cmsis_gcc.h **** /**
1033:./Libraries/CMSIS/Core/Include/cmsis_gcc.h ****   \brief   Breakpoint
1034:./Libraries/CMSIS/Core/Include/cmsis_gcc.h ****   \details Causes the processor to enter Debug state.
1035:./Libraries/CMSIS/Core/Include/cmsis_gcc.h ****            Debug tools can use this to investigate system state when the instruction at a particula
1036:./Libraries/CMSIS/Core/Include/cmsis_gcc.h ****   \param [in]    value  is ignored by the processor.
1037:./Libraries/CMSIS/Core/Include/cmsis_gcc.h ****                  If required, a debugger can use it to store additional information about the break
1038:./Libraries/CMSIS/Core/Include/cmsis_gcc.h ****  */
1039:./Libraries/CMSIS/Core/Include/cmsis_gcc.h **** #define __BKPT(value)                       __ASM volatile ("bkpt "#value)
1040:./Libraries/CMSIS/Core/Include/cmsis_gcc.h **** 
1041:./Libraries/CMSIS/Core/Include/cmsis_gcc.h **** 
1042:./Libraries/CMSIS/Core/Include/cmsis_gcc.h **** /**
1043:./Libraries/CMSIS/Core/Include/cmsis_gcc.h ****   \brief   Reverse bit order of value
1044:./Libraries/CMSIS/Core/Include/cmsis_gcc.h ****   \details Reverses the bit order of the given value.
1045:./Libraries/CMSIS/Core/Include/cmsis_gcc.h ****   \param [in]    value  Value to reverse
1046:./Libraries/CMSIS/Core/Include/cmsis_gcc.h ****   \return               Reversed value
1047:./Libraries/CMSIS/Core/Include/cmsis_gcc.h ****  */
1048:./Libraries/CMSIS/Core/Include/cmsis_gcc.h **** __STATIC_FORCEINLINE uint32_t __RBIT(uint32_t value)
1049:./Libraries/CMSIS/Core/Include/cmsis_gcc.h **** {
1050:./Libraries/CMSIS/Core/Include/cmsis_gcc.h ****   uint32_t result;
1051:./Libraries/CMSIS/Core/Include/cmsis_gcc.h **** 
1052:./Libraries/CMSIS/Core/Include/cmsis_gcc.h **** #if ((defined (__ARM_ARCH_7M__      ) && (__ARM_ARCH_7M__      == 1)) || \
1053:./Libraries/CMSIS/Core/Include/cmsis_gcc.h ****      (defined (__ARM_ARCH_7EM__     ) && (__ARM_ARCH_7EM__     == 1)) || \
1054:./Libraries/CMSIS/Core/Include/cmsis_gcc.h ****      (defined (__ARM_ARCH_8M_MAIN__ ) && (__ARM_ARCH_8M_MAIN__ == 1))    )
1055:./Libraries/CMSIS/Core/Include/cmsis_gcc.h ****    __ASM volatile ("rbit %0, %1" : "=r" (result) : "r" (value) );
1056:./Libraries/CMSIS/Core/Include/cmsis_gcc.h **** #else
1057:./Libraries/CMSIS/Core/Include/cmsis_gcc.h ****   uint32_t s = (4U /*sizeof(v)*/ * 8U) - 1U; /* extra shift needed at end */
1058:./Libraries/CMSIS/Core/Include/cmsis_gcc.h **** 
1059:./Libraries/CMSIS/Core/Include/cmsis_gcc.h ****   result = value;                      /* r will be reversed bits of v; first get LSB of v */
1060:./Libraries/CMSIS/Core/Include/cmsis_gcc.h ****   for (value >>= 1U; value != 0U; value >>= 1U)
1061:./Libraries/CMSIS/Core/Include/cmsis_gcc.h ****   {
1062:./Libraries/CMSIS/Core/Include/cmsis_gcc.h ****     result <<= 1U;
ARM GAS  /tmp/ccsRY4dG.s 			page 31


1063:./Libraries/CMSIS/Core/Include/cmsis_gcc.h ****     result |= value & 1U;
1064:./Libraries/CMSIS/Core/Include/cmsis_gcc.h ****     s--;
1065:./Libraries/CMSIS/Core/Include/cmsis_gcc.h ****   }
1066:./Libraries/CMSIS/Core/Include/cmsis_gcc.h ****   result <<= s;                        /* shift when v's highest bits are zero */
1067:./Libraries/CMSIS/Core/Include/cmsis_gcc.h **** #endif
1068:./Libraries/CMSIS/Core/Include/cmsis_gcc.h ****   return result;
1069:./Libraries/CMSIS/Core/Include/cmsis_gcc.h **** }
1070:./Libraries/CMSIS/Core/Include/cmsis_gcc.h **** 
1071:./Libraries/CMSIS/Core/Include/cmsis_gcc.h **** 
1072:./Libraries/CMSIS/Core/Include/cmsis_gcc.h **** /**
1073:./Libraries/CMSIS/Core/Include/cmsis_gcc.h ****   \brief   Count leading zeros
1074:./Libraries/CMSIS/Core/Include/cmsis_gcc.h ****   \details Counts the number of leading zeros of a data value.
1075:./Libraries/CMSIS/Core/Include/cmsis_gcc.h ****   \param [in]  value  Value to count the leading zeros
1076:./Libraries/CMSIS/Core/Include/cmsis_gcc.h ****   \return             number of leading zeros in value
1077:./Libraries/CMSIS/Core/Include/cmsis_gcc.h ****  */
1078:./Libraries/CMSIS/Core/Include/cmsis_gcc.h **** __STATIC_FORCEINLINE uint8_t __CLZ(uint32_t value)
1079:./Libraries/CMSIS/Core/Include/cmsis_gcc.h **** {
1080:./Libraries/CMSIS/Core/Include/cmsis_gcc.h ****   /* Even though __builtin_clz produces a CLZ instruction on ARM, formally
1081:./Libraries/CMSIS/Core/Include/cmsis_gcc.h ****      __builtin_clz(0) is undefined behaviour, so handle this case specially.
1082:./Libraries/CMSIS/Core/Include/cmsis_gcc.h ****      This guarantees ARM-compatible results if happening to compile on a non-ARM
1083:./Libraries/CMSIS/Core/Include/cmsis_gcc.h ****      target, and ensures the compiler doesn't decide to activate any
1084:./Libraries/CMSIS/Core/Include/cmsis_gcc.h ****      optimisations using the logic "value was passed to __builtin_clz, so it
1085:./Libraries/CMSIS/Core/Include/cmsis_gcc.h ****      is non-zero".
1086:./Libraries/CMSIS/Core/Include/cmsis_gcc.h ****      ARM GCC 7.3 and possibly earlier will optimise this test away, leaving a
1087:./Libraries/CMSIS/Core/Include/cmsis_gcc.h ****      single CLZ instruction.
1088:./Libraries/CMSIS/Core/Include/cmsis_gcc.h ****    */
1089:./Libraries/CMSIS/Core/Include/cmsis_gcc.h ****   if (value == 0U)
1090:./Libraries/CMSIS/Core/Include/cmsis_gcc.h ****   {
1091:./Libraries/CMSIS/Core/Include/cmsis_gcc.h ****     return 32U;
1092:./Libraries/CMSIS/Core/Include/cmsis_gcc.h ****   }
1093:./Libraries/CMSIS/Core/Include/cmsis_gcc.h ****   return __builtin_clz(value);
1094:./Libraries/CMSIS/Core/Include/cmsis_gcc.h **** }
1095:./Libraries/CMSIS/Core/Include/cmsis_gcc.h **** 
1096:./Libraries/CMSIS/Core/Include/cmsis_gcc.h **** 
1097:./Libraries/CMSIS/Core/Include/cmsis_gcc.h **** #if ((defined (__ARM_ARCH_7M__      ) && (__ARM_ARCH_7M__      == 1)) || \
1098:./Libraries/CMSIS/Core/Include/cmsis_gcc.h ****      (defined (__ARM_ARCH_7EM__     ) && (__ARM_ARCH_7EM__     == 1)) || \
1099:./Libraries/CMSIS/Core/Include/cmsis_gcc.h ****      (defined (__ARM_ARCH_8M_MAIN__ ) && (__ARM_ARCH_8M_MAIN__ == 1)) || \
1100:./Libraries/CMSIS/Core/Include/cmsis_gcc.h ****      (defined (__ARM_ARCH_8M_BASE__ ) && (__ARM_ARCH_8M_BASE__ == 1))    )
1101:./Libraries/CMSIS/Core/Include/cmsis_gcc.h **** /**
1102:./Libraries/CMSIS/Core/Include/cmsis_gcc.h ****   \brief   LDR Exclusive (8 bit)
1103:./Libraries/CMSIS/Core/Include/cmsis_gcc.h ****   \details Executes a exclusive LDR instruction for 8 bit value.
1104:./Libraries/CMSIS/Core/Include/cmsis_gcc.h ****   \param [in]    ptr  Pointer to data
1105:./Libraries/CMSIS/Core/Include/cmsis_gcc.h ****   \return             value of type uint8_t at (*ptr)
1106:./Libraries/CMSIS/Core/Include/cmsis_gcc.h ****  */
1107:./Libraries/CMSIS/Core/Include/cmsis_gcc.h **** __STATIC_FORCEINLINE uint8_t __LDREXB(volatile uint8_t *addr)
1108:./Libraries/CMSIS/Core/Include/cmsis_gcc.h **** {
1109:./Libraries/CMSIS/Core/Include/cmsis_gcc.h ****     uint32_t result;
1110:./Libraries/CMSIS/Core/Include/cmsis_gcc.h **** 
1111:./Libraries/CMSIS/Core/Include/cmsis_gcc.h **** #if (__GNUC__ > 4) || (__GNUC__ == 4 && __GNUC_MINOR__ >= 8)
1112:./Libraries/CMSIS/Core/Include/cmsis_gcc.h ****    __ASM volatile ("ldrexb %0, %1" : "=r" (result) : "Q" (*addr) );
1113:./Libraries/CMSIS/Core/Include/cmsis_gcc.h **** #else
1114:./Libraries/CMSIS/Core/Include/cmsis_gcc.h ****     /* Prior to GCC 4.8, "Q" will be expanded to [rx, #0] which is not
1115:./Libraries/CMSIS/Core/Include/cmsis_gcc.h ****        accepted by assembler. So has to use following less efficient pattern.
1116:./Libraries/CMSIS/Core/Include/cmsis_gcc.h ****     */
1117:./Libraries/CMSIS/Core/Include/cmsis_gcc.h ****    __ASM volatile ("ldrexb %0, [%1]" : "=r" (result) : "r" (addr) : "memory" );
1118:./Libraries/CMSIS/Core/Include/cmsis_gcc.h **** #endif
1119:./Libraries/CMSIS/Core/Include/cmsis_gcc.h ****    return ((uint8_t) result);    /* Add explicit type cast here */
ARM GAS  /tmp/ccsRY4dG.s 			page 32


1120:./Libraries/CMSIS/Core/Include/cmsis_gcc.h **** }
1121:./Libraries/CMSIS/Core/Include/cmsis_gcc.h **** 
1122:./Libraries/CMSIS/Core/Include/cmsis_gcc.h **** 
1123:./Libraries/CMSIS/Core/Include/cmsis_gcc.h **** /**
1124:./Libraries/CMSIS/Core/Include/cmsis_gcc.h ****   \brief   LDR Exclusive (16 bit)
1125:./Libraries/CMSIS/Core/Include/cmsis_gcc.h ****   \details Executes a exclusive LDR instruction for 16 bit values.
1126:./Libraries/CMSIS/Core/Include/cmsis_gcc.h ****   \param [in]    ptr  Pointer to data
1127:./Libraries/CMSIS/Core/Include/cmsis_gcc.h ****   \return        value of type uint16_t at (*ptr)
1128:./Libraries/CMSIS/Core/Include/cmsis_gcc.h ****  */
1129:./Libraries/CMSIS/Core/Include/cmsis_gcc.h **** __STATIC_FORCEINLINE uint16_t __LDREXH(volatile uint16_t *addr)
1130:./Libraries/CMSIS/Core/Include/cmsis_gcc.h **** {
1131:./Libraries/CMSIS/Core/Include/cmsis_gcc.h ****     uint32_t result;
1132:./Libraries/CMSIS/Core/Include/cmsis_gcc.h **** 
1133:./Libraries/CMSIS/Core/Include/cmsis_gcc.h **** #if (__GNUC__ > 4) || (__GNUC__ == 4 && __GNUC_MINOR__ >= 8)
1134:./Libraries/CMSIS/Core/Include/cmsis_gcc.h ****    __ASM volatile ("ldrexh %0, %1" : "=r" (result) : "Q" (*addr) );
1135:./Libraries/CMSIS/Core/Include/cmsis_gcc.h **** #else
1136:./Libraries/CMSIS/Core/Include/cmsis_gcc.h ****     /* Prior to GCC 4.8, "Q" will be expanded to [rx, #0] which is not
1137:./Libraries/CMSIS/Core/Include/cmsis_gcc.h ****        accepted by assembler. So has to use following less efficient pattern.
1138:./Libraries/CMSIS/Core/Include/cmsis_gcc.h ****     */
1139:./Libraries/CMSIS/Core/Include/cmsis_gcc.h ****    __ASM volatile ("ldrexh %0, [%1]" : "=r" (result) : "r" (addr) : "memory" );
1140:./Libraries/CMSIS/Core/Include/cmsis_gcc.h **** #endif
1141:./Libraries/CMSIS/Core/Include/cmsis_gcc.h ****    return ((uint16_t) result);    /* Add explicit type cast here */
1142:./Libraries/CMSIS/Core/Include/cmsis_gcc.h **** }
1143:./Libraries/CMSIS/Core/Include/cmsis_gcc.h **** 
1144:./Libraries/CMSIS/Core/Include/cmsis_gcc.h **** 
1145:./Libraries/CMSIS/Core/Include/cmsis_gcc.h **** /**
1146:./Libraries/CMSIS/Core/Include/cmsis_gcc.h ****   \brief   LDR Exclusive (32 bit)
1147:./Libraries/CMSIS/Core/Include/cmsis_gcc.h ****   \details Executes a exclusive LDR instruction for 32 bit values.
1148:./Libraries/CMSIS/Core/Include/cmsis_gcc.h ****   \param [in]    ptr  Pointer to data
1149:./Libraries/CMSIS/Core/Include/cmsis_gcc.h ****   \return        value of type uint32_t at (*ptr)
1150:./Libraries/CMSIS/Core/Include/cmsis_gcc.h ****  */
1151:./Libraries/CMSIS/Core/Include/cmsis_gcc.h **** __STATIC_FORCEINLINE uint32_t __LDREXW(volatile uint32_t *addr)
1152:./Libraries/CMSIS/Core/Include/cmsis_gcc.h **** {
1153:./Libraries/CMSIS/Core/Include/cmsis_gcc.h ****     uint32_t result;
1154:./Libraries/CMSIS/Core/Include/cmsis_gcc.h **** 
1155:./Libraries/CMSIS/Core/Include/cmsis_gcc.h ****    __ASM volatile ("ldrex %0, %1" : "=r" (result) : "Q" (*addr) );
1156:./Libraries/CMSIS/Core/Include/cmsis_gcc.h ****    return(result);
1157:./Libraries/CMSIS/Core/Include/cmsis_gcc.h **** }
1158:./Libraries/CMSIS/Core/Include/cmsis_gcc.h **** 
1159:./Libraries/CMSIS/Core/Include/cmsis_gcc.h **** 
1160:./Libraries/CMSIS/Core/Include/cmsis_gcc.h **** /**
1161:./Libraries/CMSIS/Core/Include/cmsis_gcc.h ****   \brief   STR Exclusive (8 bit)
1162:./Libraries/CMSIS/Core/Include/cmsis_gcc.h ****   \details Executes a exclusive STR instruction for 8 bit values.
1163:./Libraries/CMSIS/Core/Include/cmsis_gcc.h ****   \param [in]  value  Value to store
1164:./Libraries/CMSIS/Core/Include/cmsis_gcc.h ****   \param [in]    ptr  Pointer to location
1165:./Libraries/CMSIS/Core/Include/cmsis_gcc.h ****   \return          0  Function succeeded
1166:./Libraries/CMSIS/Core/Include/cmsis_gcc.h ****   \return          1  Function failed
1167:./Libraries/CMSIS/Core/Include/cmsis_gcc.h ****  */
1168:./Libraries/CMSIS/Core/Include/cmsis_gcc.h **** __STATIC_FORCEINLINE uint32_t __STREXB(uint8_t value, volatile uint8_t *addr)
1169:./Libraries/CMSIS/Core/Include/cmsis_gcc.h **** {
1170:./Libraries/CMSIS/Core/Include/cmsis_gcc.h ****    uint32_t result;
1171:./Libraries/CMSIS/Core/Include/cmsis_gcc.h **** 
1172:./Libraries/CMSIS/Core/Include/cmsis_gcc.h ****    __ASM volatile ("strexb %0, %2, %1" : "=&r" (result), "=Q" (*addr) : "r" ((uint32_t)value) );
1173:./Libraries/CMSIS/Core/Include/cmsis_gcc.h ****    return(result);
1174:./Libraries/CMSIS/Core/Include/cmsis_gcc.h **** }
1175:./Libraries/CMSIS/Core/Include/cmsis_gcc.h **** 
1176:./Libraries/CMSIS/Core/Include/cmsis_gcc.h **** 
ARM GAS  /tmp/ccsRY4dG.s 			page 33


1177:./Libraries/CMSIS/Core/Include/cmsis_gcc.h **** /**
1178:./Libraries/CMSIS/Core/Include/cmsis_gcc.h ****   \brief   STR Exclusive (16 bit)
1179:./Libraries/CMSIS/Core/Include/cmsis_gcc.h ****   \details Executes a exclusive STR instruction for 16 bit values.
1180:./Libraries/CMSIS/Core/Include/cmsis_gcc.h ****   \param [in]  value  Value to store
1181:./Libraries/CMSIS/Core/Include/cmsis_gcc.h ****   \param [in]    ptr  Pointer to location
1182:./Libraries/CMSIS/Core/Include/cmsis_gcc.h ****   \return          0  Function succeeded
1183:./Libraries/CMSIS/Core/Include/cmsis_gcc.h ****   \return          1  Function failed
1184:./Libraries/CMSIS/Core/Include/cmsis_gcc.h ****  */
1185:./Libraries/CMSIS/Core/Include/cmsis_gcc.h **** __STATIC_FORCEINLINE uint32_t __STREXH(uint16_t value, volatile uint16_t *addr)
1186:./Libraries/CMSIS/Core/Include/cmsis_gcc.h **** {
1187:./Libraries/CMSIS/Core/Include/cmsis_gcc.h ****    uint32_t result;
1188:./Libraries/CMSIS/Core/Include/cmsis_gcc.h **** 
1189:./Libraries/CMSIS/Core/Include/cmsis_gcc.h ****    __ASM volatile ("strexh %0, %2, %1" : "=&r" (result), "=Q" (*addr) : "r" ((uint32_t)value) );
1190:./Libraries/CMSIS/Core/Include/cmsis_gcc.h ****    return(result);
1191:./Libraries/CMSIS/Core/Include/cmsis_gcc.h **** }
1192:./Libraries/CMSIS/Core/Include/cmsis_gcc.h **** 
1193:./Libraries/CMSIS/Core/Include/cmsis_gcc.h **** 
1194:./Libraries/CMSIS/Core/Include/cmsis_gcc.h **** /**
1195:./Libraries/CMSIS/Core/Include/cmsis_gcc.h ****   \brief   STR Exclusive (32 bit)
1196:./Libraries/CMSIS/Core/Include/cmsis_gcc.h ****   \details Executes a exclusive STR instruction for 32 bit values.
1197:./Libraries/CMSIS/Core/Include/cmsis_gcc.h ****   \param [in]  value  Value to store
1198:./Libraries/CMSIS/Core/Include/cmsis_gcc.h ****   \param [in]    ptr  Pointer to location
1199:./Libraries/CMSIS/Core/Include/cmsis_gcc.h ****   \return          0  Function succeeded
1200:./Libraries/CMSIS/Core/Include/cmsis_gcc.h ****   \return          1  Function failed
1201:./Libraries/CMSIS/Core/Include/cmsis_gcc.h ****  */
1202:./Libraries/CMSIS/Core/Include/cmsis_gcc.h **** __STATIC_FORCEINLINE uint32_t __STREXW(uint32_t value, volatile uint32_t *addr)
1203:./Libraries/CMSIS/Core/Include/cmsis_gcc.h **** {
1204:./Libraries/CMSIS/Core/Include/cmsis_gcc.h ****    uint32_t result;
1205:./Libraries/CMSIS/Core/Include/cmsis_gcc.h **** 
1206:./Libraries/CMSIS/Core/Include/cmsis_gcc.h ****    __ASM volatile ("strex %0, %2, %1" : "=&r" (result), "=Q" (*addr) : "r" (value) );
1207:./Libraries/CMSIS/Core/Include/cmsis_gcc.h ****    return(result);
1208:./Libraries/CMSIS/Core/Include/cmsis_gcc.h **** }
1209:./Libraries/CMSIS/Core/Include/cmsis_gcc.h **** 
1210:./Libraries/CMSIS/Core/Include/cmsis_gcc.h **** 
1211:./Libraries/CMSIS/Core/Include/cmsis_gcc.h **** /**
1212:./Libraries/CMSIS/Core/Include/cmsis_gcc.h ****   \brief   Remove the exclusive lock
1213:./Libraries/CMSIS/Core/Include/cmsis_gcc.h ****   \details Removes the exclusive lock which is created by LDREX.
1214:./Libraries/CMSIS/Core/Include/cmsis_gcc.h ****  */
1215:./Libraries/CMSIS/Core/Include/cmsis_gcc.h **** __STATIC_FORCEINLINE void __CLREX(void)
1216:./Libraries/CMSIS/Core/Include/cmsis_gcc.h **** {
1217:./Libraries/CMSIS/Core/Include/cmsis_gcc.h ****   __ASM volatile ("clrex" ::: "memory");
1218:./Libraries/CMSIS/Core/Include/cmsis_gcc.h **** }
1219:./Libraries/CMSIS/Core/Include/cmsis_gcc.h **** 
1220:./Libraries/CMSIS/Core/Include/cmsis_gcc.h **** #endif /* ((defined (__ARM_ARCH_7M__      ) && (__ARM_ARCH_7M__      == 1)) || \
1221:./Libraries/CMSIS/Core/Include/cmsis_gcc.h ****            (defined (__ARM_ARCH_7EM__     ) && (__ARM_ARCH_7EM__     == 1)) || \
1222:./Libraries/CMSIS/Core/Include/cmsis_gcc.h ****            (defined (__ARM_ARCH_8M_MAIN__ ) && (__ARM_ARCH_8M_MAIN__ == 1)) || \
1223:./Libraries/CMSIS/Core/Include/cmsis_gcc.h ****            (defined (__ARM_ARCH_8M_BASE__ ) && (__ARM_ARCH_8M_BASE__ == 1))    ) */
1224:./Libraries/CMSIS/Core/Include/cmsis_gcc.h **** 
1225:./Libraries/CMSIS/Core/Include/cmsis_gcc.h **** 
1226:./Libraries/CMSIS/Core/Include/cmsis_gcc.h **** #if ((defined (__ARM_ARCH_7M__      ) && (__ARM_ARCH_7M__      == 1)) || \
1227:./Libraries/CMSIS/Core/Include/cmsis_gcc.h ****      (defined (__ARM_ARCH_7EM__     ) && (__ARM_ARCH_7EM__     == 1)) || \
1228:./Libraries/CMSIS/Core/Include/cmsis_gcc.h ****      (defined (__ARM_ARCH_8M_MAIN__ ) && (__ARM_ARCH_8M_MAIN__ == 1))    )
1229:./Libraries/CMSIS/Core/Include/cmsis_gcc.h **** /**
1230:./Libraries/CMSIS/Core/Include/cmsis_gcc.h ****   \brief   Signed Saturate
1231:./Libraries/CMSIS/Core/Include/cmsis_gcc.h ****   \details Saturates a signed value.
1232:./Libraries/CMSIS/Core/Include/cmsis_gcc.h ****   \param [in]  ARG1  Value to be saturated
1233:./Libraries/CMSIS/Core/Include/cmsis_gcc.h ****   \param [in]  ARG2  Bit position to saturate to (1..32)
ARM GAS  /tmp/ccsRY4dG.s 			page 34


1234:./Libraries/CMSIS/Core/Include/cmsis_gcc.h ****   \return             Saturated value
1235:./Libraries/CMSIS/Core/Include/cmsis_gcc.h ****  */
1236:./Libraries/CMSIS/Core/Include/cmsis_gcc.h **** #define __SSAT(ARG1,ARG2) \
1237:./Libraries/CMSIS/Core/Include/cmsis_gcc.h **** __extension__ \
1238:./Libraries/CMSIS/Core/Include/cmsis_gcc.h **** ({                          \
1239:./Libraries/CMSIS/Core/Include/cmsis_gcc.h ****   int32_t __RES, __ARG1 = (ARG1); \
1240:./Libraries/CMSIS/Core/Include/cmsis_gcc.h ****   __ASM ("ssat %0, %1, %2" : "=r" (__RES) :  "I" (ARG2), "r" (__ARG1) ); \
1241:./Libraries/CMSIS/Core/Include/cmsis_gcc.h ****   __RES; \
1242:./Libraries/CMSIS/Core/Include/cmsis_gcc.h ****  })
1243:./Libraries/CMSIS/Core/Include/cmsis_gcc.h **** 
1244:./Libraries/CMSIS/Core/Include/cmsis_gcc.h **** 
1245:./Libraries/CMSIS/Core/Include/cmsis_gcc.h **** /**
1246:./Libraries/CMSIS/Core/Include/cmsis_gcc.h ****   \brief   Unsigned Saturate
1247:./Libraries/CMSIS/Core/Include/cmsis_gcc.h ****   \details Saturates an unsigned value.
1248:./Libraries/CMSIS/Core/Include/cmsis_gcc.h ****   \param [in]  ARG1  Value to be saturated
1249:./Libraries/CMSIS/Core/Include/cmsis_gcc.h ****   \param [in]  ARG2  Bit position to saturate to (0..31)
1250:./Libraries/CMSIS/Core/Include/cmsis_gcc.h ****   \return             Saturated value
1251:./Libraries/CMSIS/Core/Include/cmsis_gcc.h ****  */
1252:./Libraries/CMSIS/Core/Include/cmsis_gcc.h **** #define __USAT(ARG1,ARG2) \
1253:./Libraries/CMSIS/Core/Include/cmsis_gcc.h ****  __extension__ \
1254:./Libraries/CMSIS/Core/Include/cmsis_gcc.h **** ({                          \
1255:./Libraries/CMSIS/Core/Include/cmsis_gcc.h ****   uint32_t __RES, __ARG1 = (ARG1); \
1256:./Libraries/CMSIS/Core/Include/cmsis_gcc.h ****   __ASM ("usat %0, %1, %2" : "=r" (__RES) :  "I" (ARG2), "r" (__ARG1) ); \
1257:./Libraries/CMSIS/Core/Include/cmsis_gcc.h ****   __RES; \
1258:./Libraries/CMSIS/Core/Include/cmsis_gcc.h ****  })
1259:./Libraries/CMSIS/Core/Include/cmsis_gcc.h **** 
1260:./Libraries/CMSIS/Core/Include/cmsis_gcc.h **** 
1261:./Libraries/CMSIS/Core/Include/cmsis_gcc.h **** /**
1262:./Libraries/CMSIS/Core/Include/cmsis_gcc.h ****   \brief   Rotate Right with Extend (32 bit)
1263:./Libraries/CMSIS/Core/Include/cmsis_gcc.h ****   \details Moves each bit of a bitstring right by one bit.
1264:./Libraries/CMSIS/Core/Include/cmsis_gcc.h ****            The carry input is shifted in at the left end of the bitstring.
1265:./Libraries/CMSIS/Core/Include/cmsis_gcc.h ****   \param [in]    value  Value to rotate
1266:./Libraries/CMSIS/Core/Include/cmsis_gcc.h ****   \return               Rotated value
1267:./Libraries/CMSIS/Core/Include/cmsis_gcc.h ****  */
1268:./Libraries/CMSIS/Core/Include/cmsis_gcc.h **** __STATIC_FORCEINLINE uint32_t __RRX(uint32_t value)
1269:./Libraries/CMSIS/Core/Include/cmsis_gcc.h **** {
1270:./Libraries/CMSIS/Core/Include/cmsis_gcc.h ****   uint32_t result;
1271:./Libraries/CMSIS/Core/Include/cmsis_gcc.h **** 
1272:./Libraries/CMSIS/Core/Include/cmsis_gcc.h ****   __ASM volatile ("rrx %0, %1" : __CMSIS_GCC_OUT_REG (result) : __CMSIS_GCC_USE_REG (value) );
1273:./Libraries/CMSIS/Core/Include/cmsis_gcc.h ****   return(result);
1274:./Libraries/CMSIS/Core/Include/cmsis_gcc.h **** }
1275:./Libraries/CMSIS/Core/Include/cmsis_gcc.h **** 
1276:./Libraries/CMSIS/Core/Include/cmsis_gcc.h **** 
1277:./Libraries/CMSIS/Core/Include/cmsis_gcc.h **** /**
1278:./Libraries/CMSIS/Core/Include/cmsis_gcc.h ****   \brief   LDRT Unprivileged (8 bit)
1279:./Libraries/CMSIS/Core/Include/cmsis_gcc.h ****   \details Executes a Unprivileged LDRT instruction for 8 bit value.
1280:./Libraries/CMSIS/Core/Include/cmsis_gcc.h ****   \param [in]    ptr  Pointer to data
1281:./Libraries/CMSIS/Core/Include/cmsis_gcc.h ****   \return             value of type uint8_t at (*ptr)
1282:./Libraries/CMSIS/Core/Include/cmsis_gcc.h ****  */
1283:./Libraries/CMSIS/Core/Include/cmsis_gcc.h **** __STATIC_FORCEINLINE uint8_t __LDRBT(volatile uint8_t *ptr)
1284:./Libraries/CMSIS/Core/Include/cmsis_gcc.h **** {
1285:./Libraries/CMSIS/Core/Include/cmsis_gcc.h ****     uint32_t result;
1286:./Libraries/CMSIS/Core/Include/cmsis_gcc.h **** 
1287:./Libraries/CMSIS/Core/Include/cmsis_gcc.h **** #if (__GNUC__ > 4) || (__GNUC__ == 4 && __GNUC_MINOR__ >= 8)
1288:./Libraries/CMSIS/Core/Include/cmsis_gcc.h ****    __ASM volatile ("ldrbt %0, %1" : "=r" (result) : "Q" (*ptr) );
1289:./Libraries/CMSIS/Core/Include/cmsis_gcc.h **** #else
1290:./Libraries/CMSIS/Core/Include/cmsis_gcc.h ****     /* Prior to GCC 4.8, "Q" will be expanded to [rx, #0] which is not
ARM GAS  /tmp/ccsRY4dG.s 			page 35


1291:./Libraries/CMSIS/Core/Include/cmsis_gcc.h ****        accepted by assembler. So has to use following less efficient pattern.
1292:./Libraries/CMSIS/Core/Include/cmsis_gcc.h ****     */
1293:./Libraries/CMSIS/Core/Include/cmsis_gcc.h ****    __ASM volatile ("ldrbt %0, [%1]" : "=r" (result) : "r" (ptr) : "memory" );
1294:./Libraries/CMSIS/Core/Include/cmsis_gcc.h **** #endif
1295:./Libraries/CMSIS/Core/Include/cmsis_gcc.h ****    return ((uint8_t) result);    /* Add explicit type cast here */
1296:./Libraries/CMSIS/Core/Include/cmsis_gcc.h **** }
1297:./Libraries/CMSIS/Core/Include/cmsis_gcc.h **** 
1298:./Libraries/CMSIS/Core/Include/cmsis_gcc.h **** 
1299:./Libraries/CMSIS/Core/Include/cmsis_gcc.h **** /**
1300:./Libraries/CMSIS/Core/Include/cmsis_gcc.h ****   \brief   LDRT Unprivileged (16 bit)
1301:./Libraries/CMSIS/Core/Include/cmsis_gcc.h ****   \details Executes a Unprivileged LDRT instruction for 16 bit values.
1302:./Libraries/CMSIS/Core/Include/cmsis_gcc.h ****   \param [in]    ptr  Pointer to data
1303:./Libraries/CMSIS/Core/Include/cmsis_gcc.h ****   \return        value of type uint16_t at (*ptr)
1304:./Libraries/CMSIS/Core/Include/cmsis_gcc.h ****  */
1305:./Libraries/CMSIS/Core/Include/cmsis_gcc.h **** __STATIC_FORCEINLINE uint16_t __LDRHT(volatile uint16_t *ptr)
1306:./Libraries/CMSIS/Core/Include/cmsis_gcc.h **** {
1307:./Libraries/CMSIS/Core/Include/cmsis_gcc.h ****     uint32_t result;
1308:./Libraries/CMSIS/Core/Include/cmsis_gcc.h **** 
1309:./Libraries/CMSIS/Core/Include/cmsis_gcc.h **** #if (__GNUC__ > 4) || (__GNUC__ == 4 && __GNUC_MINOR__ >= 8)
1310:./Libraries/CMSIS/Core/Include/cmsis_gcc.h ****    __ASM volatile ("ldrht %0, %1" : "=r" (result) : "Q" (*ptr) );
1311:./Libraries/CMSIS/Core/Include/cmsis_gcc.h **** #else
1312:./Libraries/CMSIS/Core/Include/cmsis_gcc.h ****     /* Prior to GCC 4.8, "Q" will be expanded to [rx, #0] which is not
1313:./Libraries/CMSIS/Core/Include/cmsis_gcc.h ****        accepted by assembler. So has to use following less efficient pattern.
1314:./Libraries/CMSIS/Core/Include/cmsis_gcc.h ****     */
1315:./Libraries/CMSIS/Core/Include/cmsis_gcc.h ****    __ASM volatile ("ldrht %0, [%1]" : "=r" (result) : "r" (ptr) : "memory" );
1316:./Libraries/CMSIS/Core/Include/cmsis_gcc.h **** #endif
1317:./Libraries/CMSIS/Core/Include/cmsis_gcc.h ****    return ((uint16_t) result);    /* Add explicit type cast here */
1318:./Libraries/CMSIS/Core/Include/cmsis_gcc.h **** }
1319:./Libraries/CMSIS/Core/Include/cmsis_gcc.h **** 
1320:./Libraries/CMSIS/Core/Include/cmsis_gcc.h **** 
1321:./Libraries/CMSIS/Core/Include/cmsis_gcc.h **** /**
1322:./Libraries/CMSIS/Core/Include/cmsis_gcc.h ****   \brief   LDRT Unprivileged (32 bit)
1323:./Libraries/CMSIS/Core/Include/cmsis_gcc.h ****   \details Executes a Unprivileged LDRT instruction for 32 bit values.
1324:./Libraries/CMSIS/Core/Include/cmsis_gcc.h ****   \param [in]    ptr  Pointer to data
1325:./Libraries/CMSIS/Core/Include/cmsis_gcc.h ****   \return        value of type uint32_t at (*ptr)
1326:./Libraries/CMSIS/Core/Include/cmsis_gcc.h ****  */
1327:./Libraries/CMSIS/Core/Include/cmsis_gcc.h **** __STATIC_FORCEINLINE uint32_t __LDRT(volatile uint32_t *ptr)
1328:./Libraries/CMSIS/Core/Include/cmsis_gcc.h **** {
1329:./Libraries/CMSIS/Core/Include/cmsis_gcc.h ****     uint32_t result;
1330:./Libraries/CMSIS/Core/Include/cmsis_gcc.h **** 
1331:./Libraries/CMSIS/Core/Include/cmsis_gcc.h ****    __ASM volatile ("ldrt %0, %1" : "=r" (result) : "Q" (*ptr) );
1332:./Libraries/CMSIS/Core/Include/cmsis_gcc.h ****    return(result);
1333:./Libraries/CMSIS/Core/Include/cmsis_gcc.h **** }
1334:./Libraries/CMSIS/Core/Include/cmsis_gcc.h **** 
1335:./Libraries/CMSIS/Core/Include/cmsis_gcc.h **** 
1336:./Libraries/CMSIS/Core/Include/cmsis_gcc.h **** /**
1337:./Libraries/CMSIS/Core/Include/cmsis_gcc.h ****   \brief   STRT Unprivileged (8 bit)
1338:./Libraries/CMSIS/Core/Include/cmsis_gcc.h ****   \details Executes a Unprivileged STRT instruction for 8 bit values.
1339:./Libraries/CMSIS/Core/Include/cmsis_gcc.h ****   \param [in]  value  Value to store
1340:./Libraries/CMSIS/Core/Include/cmsis_gcc.h ****   \param [in]    ptr  Pointer to location
1341:./Libraries/CMSIS/Core/Include/cmsis_gcc.h ****  */
1342:./Libraries/CMSIS/Core/Include/cmsis_gcc.h **** __STATIC_FORCEINLINE void __STRBT(uint8_t value, volatile uint8_t *ptr)
1343:./Libraries/CMSIS/Core/Include/cmsis_gcc.h **** {
1344:./Libraries/CMSIS/Core/Include/cmsis_gcc.h ****    __ASM volatile ("strbt %1, %0" : "=Q" (*ptr) : "r" ((uint32_t)value) );
1345:./Libraries/CMSIS/Core/Include/cmsis_gcc.h **** }
1346:./Libraries/CMSIS/Core/Include/cmsis_gcc.h **** 
1347:./Libraries/CMSIS/Core/Include/cmsis_gcc.h **** 
ARM GAS  /tmp/ccsRY4dG.s 			page 36


1348:./Libraries/CMSIS/Core/Include/cmsis_gcc.h **** /**
1349:./Libraries/CMSIS/Core/Include/cmsis_gcc.h ****   \brief   STRT Unprivileged (16 bit)
1350:./Libraries/CMSIS/Core/Include/cmsis_gcc.h ****   \details Executes a Unprivileged STRT instruction for 16 bit values.
1351:./Libraries/CMSIS/Core/Include/cmsis_gcc.h ****   \param [in]  value  Value to store
1352:./Libraries/CMSIS/Core/Include/cmsis_gcc.h ****   \param [in]    ptr  Pointer to location
1353:./Libraries/CMSIS/Core/Include/cmsis_gcc.h ****  */
1354:./Libraries/CMSIS/Core/Include/cmsis_gcc.h **** __STATIC_FORCEINLINE void __STRHT(uint16_t value, volatile uint16_t *ptr)
1355:./Libraries/CMSIS/Core/Include/cmsis_gcc.h **** {
1356:./Libraries/CMSIS/Core/Include/cmsis_gcc.h ****    __ASM volatile ("strht %1, %0" : "=Q" (*ptr) : "r" ((uint32_t)value) );
1357:./Libraries/CMSIS/Core/Include/cmsis_gcc.h **** }
1358:./Libraries/CMSIS/Core/Include/cmsis_gcc.h **** 
1359:./Libraries/CMSIS/Core/Include/cmsis_gcc.h **** 
1360:./Libraries/CMSIS/Core/Include/cmsis_gcc.h **** /**
1361:./Libraries/CMSIS/Core/Include/cmsis_gcc.h ****   \brief   STRT Unprivileged (32 bit)
1362:./Libraries/CMSIS/Core/Include/cmsis_gcc.h ****   \details Executes a Unprivileged STRT instruction for 32 bit values.
1363:./Libraries/CMSIS/Core/Include/cmsis_gcc.h ****   \param [in]  value  Value to store
1364:./Libraries/CMSIS/Core/Include/cmsis_gcc.h ****   \param [in]    ptr  Pointer to location
1365:./Libraries/CMSIS/Core/Include/cmsis_gcc.h ****  */
1366:./Libraries/CMSIS/Core/Include/cmsis_gcc.h **** __STATIC_FORCEINLINE void __STRT(uint32_t value, volatile uint32_t *ptr)
1367:./Libraries/CMSIS/Core/Include/cmsis_gcc.h **** {
1368:./Libraries/CMSIS/Core/Include/cmsis_gcc.h ****    __ASM volatile ("strt %1, %0" : "=Q" (*ptr) : "r" (value) );
1369:./Libraries/CMSIS/Core/Include/cmsis_gcc.h **** }
1370:./Libraries/CMSIS/Core/Include/cmsis_gcc.h **** 
1371:./Libraries/CMSIS/Core/Include/cmsis_gcc.h **** #else  /* ((defined (__ARM_ARCH_7M__      ) && (__ARM_ARCH_7M__      == 1)) || \
1372:./Libraries/CMSIS/Core/Include/cmsis_gcc.h ****            (defined (__ARM_ARCH_7EM__     ) && (__ARM_ARCH_7EM__     == 1)) || \
1373:./Libraries/CMSIS/Core/Include/cmsis_gcc.h ****            (defined (__ARM_ARCH_8M_MAIN__ ) && (__ARM_ARCH_8M_MAIN__ == 1))    ) */
1374:./Libraries/CMSIS/Core/Include/cmsis_gcc.h **** 
1375:./Libraries/CMSIS/Core/Include/cmsis_gcc.h **** /**
1376:./Libraries/CMSIS/Core/Include/cmsis_gcc.h ****   \brief   Signed Saturate
1377:./Libraries/CMSIS/Core/Include/cmsis_gcc.h ****   \details Saturates a signed value.
1378:./Libraries/CMSIS/Core/Include/cmsis_gcc.h ****   \param [in]  value  Value to be saturated
1379:./Libraries/CMSIS/Core/Include/cmsis_gcc.h ****   \param [in]    sat  Bit position to saturate to (1..32)
1380:./Libraries/CMSIS/Core/Include/cmsis_gcc.h ****   \return             Saturated value
1381:./Libraries/CMSIS/Core/Include/cmsis_gcc.h ****  */
1382:./Libraries/CMSIS/Core/Include/cmsis_gcc.h **** __STATIC_FORCEINLINE int32_t __SSAT(int32_t val, uint32_t sat)
1383:./Libraries/CMSIS/Core/Include/cmsis_gcc.h **** {
1384:./Libraries/CMSIS/Core/Include/cmsis_gcc.h ****   if ((sat >= 1U) && (sat <= 32U))
1385:./Libraries/CMSIS/Core/Include/cmsis_gcc.h ****   {
1386:./Libraries/CMSIS/Core/Include/cmsis_gcc.h ****     const int32_t max = (int32_t)((1U << (sat - 1U)) - 1U);
1387:./Libraries/CMSIS/Core/Include/cmsis_gcc.h ****     const int32_t min = -1 - max ;
1388:./Libraries/CMSIS/Core/Include/cmsis_gcc.h ****     if (val > max)
1389:./Libraries/CMSIS/Core/Include/cmsis_gcc.h ****     {
1390:./Libraries/CMSIS/Core/Include/cmsis_gcc.h ****       return max;
1391:./Libraries/CMSIS/Core/Include/cmsis_gcc.h ****     }
1392:./Libraries/CMSIS/Core/Include/cmsis_gcc.h ****     else if (val < min)
1393:./Libraries/CMSIS/Core/Include/cmsis_gcc.h ****     {
1394:./Libraries/CMSIS/Core/Include/cmsis_gcc.h ****       return min;
1395:./Libraries/CMSIS/Core/Include/cmsis_gcc.h ****     }
1396:./Libraries/CMSIS/Core/Include/cmsis_gcc.h ****   }
1397:./Libraries/CMSIS/Core/Include/cmsis_gcc.h ****   return val;
1398:./Libraries/CMSIS/Core/Include/cmsis_gcc.h **** }
1399:./Libraries/CMSIS/Core/Include/cmsis_gcc.h **** 
1400:./Libraries/CMSIS/Core/Include/cmsis_gcc.h **** /**
1401:./Libraries/CMSIS/Core/Include/cmsis_gcc.h ****   \brief   Unsigned Saturate
1402:./Libraries/CMSIS/Core/Include/cmsis_gcc.h ****   \details Saturates an unsigned value.
1403:./Libraries/CMSIS/Core/Include/cmsis_gcc.h ****   \param [in]  value  Value to be saturated
1404:./Libraries/CMSIS/Core/Include/cmsis_gcc.h ****   \param [in]    sat  Bit position to saturate to (0..31)
ARM GAS  /tmp/ccsRY4dG.s 			page 37


1405:./Libraries/CMSIS/Core/Include/cmsis_gcc.h ****   \return             Saturated value
1406:./Libraries/CMSIS/Core/Include/cmsis_gcc.h ****  */
1407:./Libraries/CMSIS/Core/Include/cmsis_gcc.h **** __STATIC_FORCEINLINE uint32_t __USAT(int32_t val, uint32_t sat)
1408:./Libraries/CMSIS/Core/Include/cmsis_gcc.h **** {
1409:./Libraries/CMSIS/Core/Include/cmsis_gcc.h ****   if (sat <= 31U)
1410:./Libraries/CMSIS/Core/Include/cmsis_gcc.h ****   {
1411:./Libraries/CMSIS/Core/Include/cmsis_gcc.h ****     const uint32_t max = ((1U << sat) - 1U);
1412:./Libraries/CMSIS/Core/Include/cmsis_gcc.h ****     if (val > (int32_t)max)
1413:./Libraries/CMSIS/Core/Include/cmsis_gcc.h ****     {
1414:./Libraries/CMSIS/Core/Include/cmsis_gcc.h ****       return max;
1415:./Libraries/CMSIS/Core/Include/cmsis_gcc.h ****     }
1416:./Libraries/CMSIS/Core/Include/cmsis_gcc.h ****     else if (val < 0)
1417:./Libraries/CMSIS/Core/Include/cmsis_gcc.h ****     {
1418:./Libraries/CMSIS/Core/Include/cmsis_gcc.h ****       return 0U;
1419:./Libraries/CMSIS/Core/Include/cmsis_gcc.h ****     }
1420:./Libraries/CMSIS/Core/Include/cmsis_gcc.h ****   }
1421:./Libraries/CMSIS/Core/Include/cmsis_gcc.h ****   return (uint32_t)val;
1422:./Libraries/CMSIS/Core/Include/cmsis_gcc.h **** }
1423:./Libraries/CMSIS/Core/Include/cmsis_gcc.h **** 
1424:./Libraries/CMSIS/Core/Include/cmsis_gcc.h **** #endif /* ((defined (__ARM_ARCH_7M__      ) && (__ARM_ARCH_7M__      == 1)) || \
1425:./Libraries/CMSIS/Core/Include/cmsis_gcc.h ****            (defined (__ARM_ARCH_7EM__     ) && (__ARM_ARCH_7EM__     == 1)) || \
1426:./Libraries/CMSIS/Core/Include/cmsis_gcc.h ****            (defined (__ARM_ARCH_8M_MAIN__ ) && (__ARM_ARCH_8M_MAIN__ == 1))    ) */
1427:./Libraries/CMSIS/Core/Include/cmsis_gcc.h **** 
1428:./Libraries/CMSIS/Core/Include/cmsis_gcc.h **** 
1429:./Libraries/CMSIS/Core/Include/cmsis_gcc.h **** #if ((defined (__ARM_ARCH_8M_MAIN__ ) && (__ARM_ARCH_8M_MAIN__ == 1)) || \
1430:./Libraries/CMSIS/Core/Include/cmsis_gcc.h ****      (defined (__ARM_ARCH_8M_BASE__ ) && (__ARM_ARCH_8M_BASE__ == 1))    )
1431:./Libraries/CMSIS/Core/Include/cmsis_gcc.h **** /**
1432:./Libraries/CMSIS/Core/Include/cmsis_gcc.h ****   \brief   Load-Acquire (8 bit)
1433:./Libraries/CMSIS/Core/Include/cmsis_gcc.h ****   \details Executes a LDAB instruction for 8 bit value.
1434:./Libraries/CMSIS/Core/Include/cmsis_gcc.h ****   \param [in]    ptr  Pointer to data
1435:./Libraries/CMSIS/Core/Include/cmsis_gcc.h ****   \return             value of type uint8_t at (*ptr)
1436:./Libraries/CMSIS/Core/Include/cmsis_gcc.h ****  */
1437:./Libraries/CMSIS/Core/Include/cmsis_gcc.h **** __STATIC_FORCEINLINE uint8_t __LDAB(volatile uint8_t *ptr)
1438:./Libraries/CMSIS/Core/Include/cmsis_gcc.h **** {
1439:./Libraries/CMSIS/Core/Include/cmsis_gcc.h ****     uint32_t result;
1440:./Libraries/CMSIS/Core/Include/cmsis_gcc.h **** 
1441:./Libraries/CMSIS/Core/Include/cmsis_gcc.h ****    __ASM volatile ("ldab %0, %1" : "=r" (result) : "Q" (*ptr) );
1442:./Libraries/CMSIS/Core/Include/cmsis_gcc.h ****    return ((uint8_t) result);
1443:./Libraries/CMSIS/Core/Include/cmsis_gcc.h **** }
1444:./Libraries/CMSIS/Core/Include/cmsis_gcc.h **** 
1445:./Libraries/CMSIS/Core/Include/cmsis_gcc.h **** 
1446:./Libraries/CMSIS/Core/Include/cmsis_gcc.h **** /**
1447:./Libraries/CMSIS/Core/Include/cmsis_gcc.h ****   \brief   Load-Acquire (16 bit)
1448:./Libraries/CMSIS/Core/Include/cmsis_gcc.h ****   \details Executes a LDAH instruction for 16 bit values.
1449:./Libraries/CMSIS/Core/Include/cmsis_gcc.h ****   \param [in]    ptr  Pointer to data
1450:./Libraries/CMSIS/Core/Include/cmsis_gcc.h ****   \return        value of type uint16_t at (*ptr)
1451:./Libraries/CMSIS/Core/Include/cmsis_gcc.h ****  */
1452:./Libraries/CMSIS/Core/Include/cmsis_gcc.h **** __STATIC_FORCEINLINE uint16_t __LDAH(volatile uint16_t *ptr)
1453:./Libraries/CMSIS/Core/Include/cmsis_gcc.h **** {
1454:./Libraries/CMSIS/Core/Include/cmsis_gcc.h ****     uint32_t result;
1455:./Libraries/CMSIS/Core/Include/cmsis_gcc.h **** 
1456:./Libraries/CMSIS/Core/Include/cmsis_gcc.h ****    __ASM volatile ("ldah %0, %1" : "=r" (result) : "Q" (*ptr) );
1457:./Libraries/CMSIS/Core/Include/cmsis_gcc.h ****    return ((uint16_t) result);
1458:./Libraries/CMSIS/Core/Include/cmsis_gcc.h **** }
1459:./Libraries/CMSIS/Core/Include/cmsis_gcc.h **** 
1460:./Libraries/CMSIS/Core/Include/cmsis_gcc.h **** 
1461:./Libraries/CMSIS/Core/Include/cmsis_gcc.h **** /**
ARM GAS  /tmp/ccsRY4dG.s 			page 38


1462:./Libraries/CMSIS/Core/Include/cmsis_gcc.h ****   \brief   Load-Acquire (32 bit)
1463:./Libraries/CMSIS/Core/Include/cmsis_gcc.h ****   \details Executes a LDA instruction for 32 bit values.
1464:./Libraries/CMSIS/Core/Include/cmsis_gcc.h ****   \param [in]    ptr  Pointer to data
1465:./Libraries/CMSIS/Core/Include/cmsis_gcc.h ****   \return        value of type uint32_t at (*ptr)
1466:./Libraries/CMSIS/Core/Include/cmsis_gcc.h ****  */
1467:./Libraries/CMSIS/Core/Include/cmsis_gcc.h **** __STATIC_FORCEINLINE uint32_t __LDA(volatile uint32_t *ptr)
1468:./Libraries/CMSIS/Core/Include/cmsis_gcc.h **** {
1469:./Libraries/CMSIS/Core/Include/cmsis_gcc.h ****     uint32_t result;
1470:./Libraries/CMSIS/Core/Include/cmsis_gcc.h **** 
1471:./Libraries/CMSIS/Core/Include/cmsis_gcc.h ****    __ASM volatile ("lda %0, %1" : "=r" (result) : "Q" (*ptr) );
1472:./Libraries/CMSIS/Core/Include/cmsis_gcc.h ****    return(result);
1473:./Libraries/CMSIS/Core/Include/cmsis_gcc.h **** }
1474:./Libraries/CMSIS/Core/Include/cmsis_gcc.h **** 
1475:./Libraries/CMSIS/Core/Include/cmsis_gcc.h **** 
1476:./Libraries/CMSIS/Core/Include/cmsis_gcc.h **** /**
1477:./Libraries/CMSIS/Core/Include/cmsis_gcc.h ****   \brief   Store-Release (8 bit)
1478:./Libraries/CMSIS/Core/Include/cmsis_gcc.h ****   \details Executes a STLB instruction for 8 bit values.
1479:./Libraries/CMSIS/Core/Include/cmsis_gcc.h ****   \param [in]  value  Value to store
1480:./Libraries/CMSIS/Core/Include/cmsis_gcc.h ****   \param [in]    ptr  Pointer to location
1481:./Libraries/CMSIS/Core/Include/cmsis_gcc.h ****  */
1482:./Libraries/CMSIS/Core/Include/cmsis_gcc.h **** __STATIC_FORCEINLINE void __STLB(uint8_t value, volatile uint8_t *ptr)
1483:./Libraries/CMSIS/Core/Include/cmsis_gcc.h **** {
1484:./Libraries/CMSIS/Core/Include/cmsis_gcc.h ****    __ASM volatile ("stlb %1, %0" : "=Q" (*ptr) : "r" ((uint32_t)value) );
1485:./Libraries/CMSIS/Core/Include/cmsis_gcc.h **** }
1486:./Libraries/CMSIS/Core/Include/cmsis_gcc.h **** 
1487:./Libraries/CMSIS/Core/Include/cmsis_gcc.h **** 
1488:./Libraries/CMSIS/Core/Include/cmsis_gcc.h **** /**
1489:./Libraries/CMSIS/Core/Include/cmsis_gcc.h ****   \brief   Store-Release (16 bit)
1490:./Libraries/CMSIS/Core/Include/cmsis_gcc.h ****   \details Executes a STLH instruction for 16 bit values.
1491:./Libraries/CMSIS/Core/Include/cmsis_gcc.h ****   \param [in]  value  Value to store
1492:./Libraries/CMSIS/Core/Include/cmsis_gcc.h ****   \param [in]    ptr  Pointer to location
1493:./Libraries/CMSIS/Core/Include/cmsis_gcc.h ****  */
1494:./Libraries/CMSIS/Core/Include/cmsis_gcc.h **** __STATIC_FORCEINLINE void __STLH(uint16_t value, volatile uint16_t *ptr)
1495:./Libraries/CMSIS/Core/Include/cmsis_gcc.h **** {
1496:./Libraries/CMSIS/Core/Include/cmsis_gcc.h ****    __ASM volatile ("stlh %1, %0" : "=Q" (*ptr) : "r" ((uint32_t)value) );
1497:./Libraries/CMSIS/Core/Include/cmsis_gcc.h **** }
1498:./Libraries/CMSIS/Core/Include/cmsis_gcc.h **** 
1499:./Libraries/CMSIS/Core/Include/cmsis_gcc.h **** 
1500:./Libraries/CMSIS/Core/Include/cmsis_gcc.h **** /**
1501:./Libraries/CMSIS/Core/Include/cmsis_gcc.h ****   \brief   Store-Release (32 bit)
1502:./Libraries/CMSIS/Core/Include/cmsis_gcc.h ****   \details Executes a STL instruction for 32 bit values.
1503:./Libraries/CMSIS/Core/Include/cmsis_gcc.h ****   \param [in]  value  Value to store
1504:./Libraries/CMSIS/Core/Include/cmsis_gcc.h ****   \param [in]    ptr  Pointer to location
1505:./Libraries/CMSIS/Core/Include/cmsis_gcc.h ****  */
1506:./Libraries/CMSIS/Core/Include/cmsis_gcc.h **** __STATIC_FORCEINLINE void __STL(uint32_t value, volatile uint32_t *ptr)
1507:./Libraries/CMSIS/Core/Include/cmsis_gcc.h **** {
1508:./Libraries/CMSIS/Core/Include/cmsis_gcc.h ****    __ASM volatile ("stl %1, %0" : "=Q" (*ptr) : "r" ((uint32_t)value) );
1509:./Libraries/CMSIS/Core/Include/cmsis_gcc.h **** }
1510:./Libraries/CMSIS/Core/Include/cmsis_gcc.h **** 
1511:./Libraries/CMSIS/Core/Include/cmsis_gcc.h **** 
1512:./Libraries/CMSIS/Core/Include/cmsis_gcc.h **** /**
1513:./Libraries/CMSIS/Core/Include/cmsis_gcc.h ****   \brief   Load-Acquire Exclusive (8 bit)
1514:./Libraries/CMSIS/Core/Include/cmsis_gcc.h ****   \details Executes a LDAB exclusive instruction for 8 bit value.
1515:./Libraries/CMSIS/Core/Include/cmsis_gcc.h ****   \param [in]    ptr  Pointer to data
1516:./Libraries/CMSIS/Core/Include/cmsis_gcc.h ****   \return             value of type uint8_t at (*ptr)
1517:./Libraries/CMSIS/Core/Include/cmsis_gcc.h ****  */
1518:./Libraries/CMSIS/Core/Include/cmsis_gcc.h **** __STATIC_FORCEINLINE uint8_t __LDAEXB(volatile uint8_t *ptr)
ARM GAS  /tmp/ccsRY4dG.s 			page 39


1519:./Libraries/CMSIS/Core/Include/cmsis_gcc.h **** {
1520:./Libraries/CMSIS/Core/Include/cmsis_gcc.h ****     uint32_t result;
1521:./Libraries/CMSIS/Core/Include/cmsis_gcc.h **** 
1522:./Libraries/CMSIS/Core/Include/cmsis_gcc.h ****    __ASM volatile ("ldaexb %0, %1" : "=r" (result) : "Q" (*ptr) );
1523:./Libraries/CMSIS/Core/Include/cmsis_gcc.h ****    return ((uint8_t) result);
1524:./Libraries/CMSIS/Core/Include/cmsis_gcc.h **** }
1525:./Libraries/CMSIS/Core/Include/cmsis_gcc.h **** 
1526:./Libraries/CMSIS/Core/Include/cmsis_gcc.h **** 
1527:./Libraries/CMSIS/Core/Include/cmsis_gcc.h **** /**
1528:./Libraries/CMSIS/Core/Include/cmsis_gcc.h ****   \brief   Load-Acquire Exclusive (16 bit)
1529:./Libraries/CMSIS/Core/Include/cmsis_gcc.h ****   \details Executes a LDAH exclusive instruction for 16 bit values.
1530:./Libraries/CMSIS/Core/Include/cmsis_gcc.h ****   \param [in]    ptr  Pointer to data
1531:./Libraries/CMSIS/Core/Include/cmsis_gcc.h ****   \return        value of type uint16_t at (*ptr)
1532:./Libraries/CMSIS/Core/Include/cmsis_gcc.h ****  */
1533:./Libraries/CMSIS/Core/Include/cmsis_gcc.h **** __STATIC_FORCEINLINE uint16_t __LDAEXH(volatile uint16_t *ptr)
1534:./Libraries/CMSIS/Core/Include/cmsis_gcc.h **** {
1535:./Libraries/CMSIS/Core/Include/cmsis_gcc.h ****     uint32_t result;
1536:./Libraries/CMSIS/Core/Include/cmsis_gcc.h **** 
1537:./Libraries/CMSIS/Core/Include/cmsis_gcc.h ****    __ASM volatile ("ldaexh %0, %1" : "=r" (result) : "Q" (*ptr) );
1538:./Libraries/CMSIS/Core/Include/cmsis_gcc.h ****    return ((uint16_t) result);
1539:./Libraries/CMSIS/Core/Include/cmsis_gcc.h **** }
1540:./Libraries/CMSIS/Core/Include/cmsis_gcc.h **** 
1541:./Libraries/CMSIS/Core/Include/cmsis_gcc.h **** 
1542:./Libraries/CMSIS/Core/Include/cmsis_gcc.h **** /**
1543:./Libraries/CMSIS/Core/Include/cmsis_gcc.h ****   \brief   Load-Acquire Exclusive (32 bit)
1544:./Libraries/CMSIS/Core/Include/cmsis_gcc.h ****   \details Executes a LDA exclusive instruction for 32 bit values.
1545:./Libraries/CMSIS/Core/Include/cmsis_gcc.h ****   \param [in]    ptr  Pointer to data
1546:./Libraries/CMSIS/Core/Include/cmsis_gcc.h ****   \return        value of type uint32_t at (*ptr)
1547:./Libraries/CMSIS/Core/Include/cmsis_gcc.h ****  */
1548:./Libraries/CMSIS/Core/Include/cmsis_gcc.h **** __STATIC_FORCEINLINE uint32_t __LDAEX(volatile uint32_t *ptr)
1549:./Libraries/CMSIS/Core/Include/cmsis_gcc.h **** {
1550:./Libraries/CMSIS/Core/Include/cmsis_gcc.h ****     uint32_t result;
1551:./Libraries/CMSIS/Core/Include/cmsis_gcc.h **** 
1552:./Libraries/CMSIS/Core/Include/cmsis_gcc.h ****    __ASM volatile ("ldaex %0, %1" : "=r" (result) : "Q" (*ptr) );
1553:./Libraries/CMSIS/Core/Include/cmsis_gcc.h ****    return(result);
1554:./Libraries/CMSIS/Core/Include/cmsis_gcc.h **** }
1555:./Libraries/CMSIS/Core/Include/cmsis_gcc.h **** 
1556:./Libraries/CMSIS/Core/Include/cmsis_gcc.h **** 
1557:./Libraries/CMSIS/Core/Include/cmsis_gcc.h **** /**
1558:./Libraries/CMSIS/Core/Include/cmsis_gcc.h ****   \brief   Store-Release Exclusive (8 bit)
1559:./Libraries/CMSIS/Core/Include/cmsis_gcc.h ****   \details Executes a STLB exclusive instruction for 8 bit values.
1560:./Libraries/CMSIS/Core/Include/cmsis_gcc.h ****   \param [in]  value  Value to store
1561:./Libraries/CMSIS/Core/Include/cmsis_gcc.h ****   \param [in]    ptr  Pointer to location
1562:./Libraries/CMSIS/Core/Include/cmsis_gcc.h ****   \return          0  Function succeeded
1563:./Libraries/CMSIS/Core/Include/cmsis_gcc.h ****   \return          1  Function failed
1564:./Libraries/CMSIS/Core/Include/cmsis_gcc.h ****  */
1565:./Libraries/CMSIS/Core/Include/cmsis_gcc.h **** __STATIC_FORCEINLINE uint32_t __STLEXB(uint8_t value, volatile uint8_t *ptr)
1566:./Libraries/CMSIS/Core/Include/cmsis_gcc.h **** {
1567:./Libraries/CMSIS/Core/Include/cmsis_gcc.h ****    uint32_t result;
1568:./Libraries/CMSIS/Core/Include/cmsis_gcc.h **** 
1569:./Libraries/CMSIS/Core/Include/cmsis_gcc.h ****    __ASM volatile ("stlexb %0, %2, %1" : "=&r" (result), "=Q" (*ptr) : "r" ((uint32_t)value) );
1570:./Libraries/CMSIS/Core/Include/cmsis_gcc.h ****    return(result);
1571:./Libraries/CMSIS/Core/Include/cmsis_gcc.h **** }
1572:./Libraries/CMSIS/Core/Include/cmsis_gcc.h **** 
1573:./Libraries/CMSIS/Core/Include/cmsis_gcc.h **** 
1574:./Libraries/CMSIS/Core/Include/cmsis_gcc.h **** /**
1575:./Libraries/CMSIS/Core/Include/cmsis_gcc.h ****   \brief   Store-Release Exclusive (16 bit)
ARM GAS  /tmp/ccsRY4dG.s 			page 40


1576:./Libraries/CMSIS/Core/Include/cmsis_gcc.h ****   \details Executes a STLH exclusive instruction for 16 bit values.
1577:./Libraries/CMSIS/Core/Include/cmsis_gcc.h ****   \param [in]  value  Value to store
1578:./Libraries/CMSIS/Core/Include/cmsis_gcc.h ****   \param [in]    ptr  Pointer to location
1579:./Libraries/CMSIS/Core/Include/cmsis_gcc.h ****   \return          0  Function succeeded
1580:./Libraries/CMSIS/Core/Include/cmsis_gcc.h ****   \return          1  Function failed
1581:./Libraries/CMSIS/Core/Include/cmsis_gcc.h ****  */
1582:./Libraries/CMSIS/Core/Include/cmsis_gcc.h **** __STATIC_FORCEINLINE uint32_t __STLEXH(uint16_t value, volatile uint16_t *ptr)
1583:./Libraries/CMSIS/Core/Include/cmsis_gcc.h **** {
1584:./Libraries/CMSIS/Core/Include/cmsis_gcc.h ****    uint32_t result;
1585:./Libraries/CMSIS/Core/Include/cmsis_gcc.h **** 
1586:./Libraries/CMSIS/Core/Include/cmsis_gcc.h ****    __ASM volatile ("stlexh %0, %2, %1" : "=&r" (result), "=Q" (*ptr) : "r" ((uint32_t)value) );
1587:./Libraries/CMSIS/Core/Include/cmsis_gcc.h ****    return(result);
1588:./Libraries/CMSIS/Core/Include/cmsis_gcc.h **** }
1589:./Libraries/CMSIS/Core/Include/cmsis_gcc.h **** 
1590:./Libraries/CMSIS/Core/Include/cmsis_gcc.h **** 
1591:./Libraries/CMSIS/Core/Include/cmsis_gcc.h **** /**
1592:./Libraries/CMSIS/Core/Include/cmsis_gcc.h ****   \brief   Store-Release Exclusive (32 bit)
1593:./Libraries/CMSIS/Core/Include/cmsis_gcc.h ****   \details Executes a STL exclusive instruction for 32 bit values.
1594:./Libraries/CMSIS/Core/Include/cmsis_gcc.h ****   \param [in]  value  Value to store
1595:./Libraries/CMSIS/Core/Include/cmsis_gcc.h ****   \param [in]    ptr  Pointer to location
1596:./Libraries/CMSIS/Core/Include/cmsis_gcc.h ****   \return          0  Function succeeded
1597:./Libraries/CMSIS/Core/Include/cmsis_gcc.h ****   \return          1  Function failed
1598:./Libraries/CMSIS/Core/Include/cmsis_gcc.h ****  */
1599:./Libraries/CMSIS/Core/Include/cmsis_gcc.h **** __STATIC_FORCEINLINE uint32_t __STLEX(uint32_t value, volatile uint32_t *ptr)
1600:./Libraries/CMSIS/Core/Include/cmsis_gcc.h **** {
1601:./Libraries/CMSIS/Core/Include/cmsis_gcc.h ****    uint32_t result;
1602:./Libraries/CMSIS/Core/Include/cmsis_gcc.h **** 
1603:./Libraries/CMSIS/Core/Include/cmsis_gcc.h ****    __ASM volatile ("stlex %0, %2, %1" : "=&r" (result), "=Q" (*ptr) : "r" ((uint32_t)value) );
1604:./Libraries/CMSIS/Core/Include/cmsis_gcc.h ****    return(result);
1605:./Libraries/CMSIS/Core/Include/cmsis_gcc.h **** }
1606:./Libraries/CMSIS/Core/Include/cmsis_gcc.h **** 
1607:./Libraries/CMSIS/Core/Include/cmsis_gcc.h **** #endif /* ((defined (__ARM_ARCH_8M_MAIN__ ) && (__ARM_ARCH_8M_MAIN__ == 1)) || \
1608:./Libraries/CMSIS/Core/Include/cmsis_gcc.h ****            (defined (__ARM_ARCH_8M_BASE__ ) && (__ARM_ARCH_8M_BASE__ == 1))    ) */
1609:./Libraries/CMSIS/Core/Include/cmsis_gcc.h **** 
1610:./Libraries/CMSIS/Core/Include/cmsis_gcc.h **** /*@}*/ /* end of group CMSIS_Core_InstructionInterface */
1611:./Libraries/CMSIS/Core/Include/cmsis_gcc.h **** 
1612:./Libraries/CMSIS/Core/Include/cmsis_gcc.h **** 
1613:./Libraries/CMSIS/Core/Include/cmsis_gcc.h **** /* ###################  Compiler specific Intrinsics  ########################### */
1614:./Libraries/CMSIS/Core/Include/cmsis_gcc.h **** /** \defgroup CMSIS_SIMD_intrinsics CMSIS SIMD Intrinsics
1615:./Libraries/CMSIS/Core/Include/cmsis_gcc.h ****   Access to dedicated SIMD instructions
1616:./Libraries/CMSIS/Core/Include/cmsis_gcc.h ****   @{
1617:./Libraries/CMSIS/Core/Include/cmsis_gcc.h **** */
1618:./Libraries/CMSIS/Core/Include/cmsis_gcc.h **** 
1619:./Libraries/CMSIS/Core/Include/cmsis_gcc.h **** #if (defined (__ARM_FEATURE_DSP) && (__ARM_FEATURE_DSP == 1))
1620:./Libraries/CMSIS/Core/Include/cmsis_gcc.h **** 
1621:./Libraries/CMSIS/Core/Include/cmsis_gcc.h **** __STATIC_FORCEINLINE uint32_t __SADD8(uint32_t op1, uint32_t op2)
1622:./Libraries/CMSIS/Core/Include/cmsis_gcc.h **** {
1623:./Libraries/CMSIS/Core/Include/cmsis_gcc.h ****   uint32_t result;
1624:./Libraries/CMSIS/Core/Include/cmsis_gcc.h **** 
1625:./Libraries/CMSIS/Core/Include/cmsis_gcc.h ****   __ASM volatile ("sadd8 %0, %1, %2" : "=r" (result) : "r" (op1), "r" (op2) );
1626:./Libraries/CMSIS/Core/Include/cmsis_gcc.h ****   return(result);
1627:./Libraries/CMSIS/Core/Include/cmsis_gcc.h **** }
1628:./Libraries/CMSIS/Core/Include/cmsis_gcc.h **** 
1629:./Libraries/CMSIS/Core/Include/cmsis_gcc.h **** __STATIC_FORCEINLINE uint32_t __QADD8(uint32_t op1, uint32_t op2)
1630:./Libraries/CMSIS/Core/Include/cmsis_gcc.h **** {
1631:./Libraries/CMSIS/Core/Include/cmsis_gcc.h ****   uint32_t result;
1632:./Libraries/CMSIS/Core/Include/cmsis_gcc.h **** 
ARM GAS  /tmp/ccsRY4dG.s 			page 41


1633:./Libraries/CMSIS/Core/Include/cmsis_gcc.h ****   __ASM volatile ("qadd8 %0, %1, %2" : "=r" (result) : "r" (op1), "r" (op2) );
1634:./Libraries/CMSIS/Core/Include/cmsis_gcc.h ****   return(result);
1635:./Libraries/CMSIS/Core/Include/cmsis_gcc.h **** }
1636:./Libraries/CMSIS/Core/Include/cmsis_gcc.h **** 
1637:./Libraries/CMSIS/Core/Include/cmsis_gcc.h **** __STATIC_FORCEINLINE uint32_t __SHADD8(uint32_t op1, uint32_t op2)
1638:./Libraries/CMSIS/Core/Include/cmsis_gcc.h **** {
1639:./Libraries/CMSIS/Core/Include/cmsis_gcc.h ****   uint32_t result;
1640:./Libraries/CMSIS/Core/Include/cmsis_gcc.h **** 
1641:./Libraries/CMSIS/Core/Include/cmsis_gcc.h ****   __ASM volatile ("shadd8 %0, %1, %2" : "=r" (result) : "r" (op1), "r" (op2) );
1642:./Libraries/CMSIS/Core/Include/cmsis_gcc.h ****   return(result);
1643:./Libraries/CMSIS/Core/Include/cmsis_gcc.h **** }
1644:./Libraries/CMSIS/Core/Include/cmsis_gcc.h **** 
1645:./Libraries/CMSIS/Core/Include/cmsis_gcc.h **** __STATIC_FORCEINLINE uint32_t __UADD8(uint32_t op1, uint32_t op2)
1646:./Libraries/CMSIS/Core/Include/cmsis_gcc.h **** {
1647:./Libraries/CMSIS/Core/Include/cmsis_gcc.h ****   uint32_t result;
1648:./Libraries/CMSIS/Core/Include/cmsis_gcc.h **** 
1649:./Libraries/CMSIS/Core/Include/cmsis_gcc.h ****   __ASM volatile ("uadd8 %0, %1, %2" : "=r" (result) : "r" (op1), "r" (op2) );
1650:./Libraries/CMSIS/Core/Include/cmsis_gcc.h ****   return(result);
1651:./Libraries/CMSIS/Core/Include/cmsis_gcc.h **** }
1652:./Libraries/CMSIS/Core/Include/cmsis_gcc.h **** 
1653:./Libraries/CMSIS/Core/Include/cmsis_gcc.h **** __STATIC_FORCEINLINE uint32_t __UQADD8(uint32_t op1, uint32_t op2)
1654:./Libraries/CMSIS/Core/Include/cmsis_gcc.h **** {
1655:./Libraries/CMSIS/Core/Include/cmsis_gcc.h ****   uint32_t result;
1656:./Libraries/CMSIS/Core/Include/cmsis_gcc.h **** 
1657:./Libraries/CMSIS/Core/Include/cmsis_gcc.h ****   __ASM volatile ("uqadd8 %0, %1, %2" : "=r" (result) : "r" (op1), "r" (op2) );
1658:./Libraries/CMSIS/Core/Include/cmsis_gcc.h ****   return(result);
1659:./Libraries/CMSIS/Core/Include/cmsis_gcc.h **** }
1660:./Libraries/CMSIS/Core/Include/cmsis_gcc.h **** 
1661:./Libraries/CMSIS/Core/Include/cmsis_gcc.h **** __STATIC_FORCEINLINE uint32_t __UHADD8(uint32_t op1, uint32_t op2)
1662:./Libraries/CMSIS/Core/Include/cmsis_gcc.h **** {
1663:./Libraries/CMSIS/Core/Include/cmsis_gcc.h ****   uint32_t result;
1664:./Libraries/CMSIS/Core/Include/cmsis_gcc.h **** 
1665:./Libraries/CMSIS/Core/Include/cmsis_gcc.h ****   __ASM volatile ("uhadd8 %0, %1, %2" : "=r" (result) : "r" (op1), "r" (op2) );
1666:./Libraries/CMSIS/Core/Include/cmsis_gcc.h ****   return(result);
1667:./Libraries/CMSIS/Core/Include/cmsis_gcc.h **** }
1668:./Libraries/CMSIS/Core/Include/cmsis_gcc.h **** 
1669:./Libraries/CMSIS/Core/Include/cmsis_gcc.h **** 
1670:./Libraries/CMSIS/Core/Include/cmsis_gcc.h **** __STATIC_FORCEINLINE uint32_t __SSUB8(uint32_t op1, uint32_t op2)
1671:./Libraries/CMSIS/Core/Include/cmsis_gcc.h **** {
1672:./Libraries/CMSIS/Core/Include/cmsis_gcc.h ****   uint32_t result;
1673:./Libraries/CMSIS/Core/Include/cmsis_gcc.h **** 
1674:./Libraries/CMSIS/Core/Include/cmsis_gcc.h ****   __ASM volatile ("ssub8 %0, %1, %2" : "=r" (result) : "r" (op1), "r" (op2) );
1675:./Libraries/CMSIS/Core/Include/cmsis_gcc.h ****   return(result);
1676:./Libraries/CMSIS/Core/Include/cmsis_gcc.h **** }
1677:./Libraries/CMSIS/Core/Include/cmsis_gcc.h **** 
1678:./Libraries/CMSIS/Core/Include/cmsis_gcc.h **** __STATIC_FORCEINLINE uint32_t __QSUB8(uint32_t op1, uint32_t op2)
1679:./Libraries/CMSIS/Core/Include/cmsis_gcc.h **** {
1680:./Libraries/CMSIS/Core/Include/cmsis_gcc.h ****   uint32_t result;
1681:./Libraries/CMSIS/Core/Include/cmsis_gcc.h **** 
1682:./Libraries/CMSIS/Core/Include/cmsis_gcc.h ****   __ASM volatile ("qsub8 %0, %1, %2" : "=r" (result) : "r" (op1), "r" (op2) );
1683:./Libraries/CMSIS/Core/Include/cmsis_gcc.h ****   return(result);
1684:./Libraries/CMSIS/Core/Include/cmsis_gcc.h **** }
1685:./Libraries/CMSIS/Core/Include/cmsis_gcc.h **** 
1686:./Libraries/CMSIS/Core/Include/cmsis_gcc.h **** __STATIC_FORCEINLINE uint32_t __SHSUB8(uint32_t op1, uint32_t op2)
1687:./Libraries/CMSIS/Core/Include/cmsis_gcc.h **** {
1688:./Libraries/CMSIS/Core/Include/cmsis_gcc.h ****   uint32_t result;
1689:./Libraries/CMSIS/Core/Include/cmsis_gcc.h **** 
ARM GAS  /tmp/ccsRY4dG.s 			page 42


1690:./Libraries/CMSIS/Core/Include/cmsis_gcc.h ****   __ASM volatile ("shsub8 %0, %1, %2" : "=r" (result) : "r" (op1), "r" (op2) );
1691:./Libraries/CMSIS/Core/Include/cmsis_gcc.h ****   return(result);
1692:./Libraries/CMSIS/Core/Include/cmsis_gcc.h **** }
1693:./Libraries/CMSIS/Core/Include/cmsis_gcc.h **** 
1694:./Libraries/CMSIS/Core/Include/cmsis_gcc.h **** __STATIC_FORCEINLINE uint32_t __USUB8(uint32_t op1, uint32_t op2)
1695:./Libraries/CMSIS/Core/Include/cmsis_gcc.h **** {
1696:./Libraries/CMSIS/Core/Include/cmsis_gcc.h ****   uint32_t result;
1697:./Libraries/CMSIS/Core/Include/cmsis_gcc.h **** 
1698:./Libraries/CMSIS/Core/Include/cmsis_gcc.h ****   __ASM volatile ("usub8 %0, %1, %2" : "=r" (result) : "r" (op1), "r" (op2) );
1699:./Libraries/CMSIS/Core/Include/cmsis_gcc.h ****   return(result);
1700:./Libraries/CMSIS/Core/Include/cmsis_gcc.h **** }
1701:./Libraries/CMSIS/Core/Include/cmsis_gcc.h **** 
1702:./Libraries/CMSIS/Core/Include/cmsis_gcc.h **** __STATIC_FORCEINLINE uint32_t __UQSUB8(uint32_t op1, uint32_t op2)
1703:./Libraries/CMSIS/Core/Include/cmsis_gcc.h **** {
1704:./Libraries/CMSIS/Core/Include/cmsis_gcc.h ****   uint32_t result;
1705:./Libraries/CMSIS/Core/Include/cmsis_gcc.h **** 
1706:./Libraries/CMSIS/Core/Include/cmsis_gcc.h ****   __ASM volatile ("uqsub8 %0, %1, %2" : "=r" (result) : "r" (op1), "r" (op2) );
1707:./Libraries/CMSIS/Core/Include/cmsis_gcc.h ****   return(result);
1708:./Libraries/CMSIS/Core/Include/cmsis_gcc.h **** }
1709:./Libraries/CMSIS/Core/Include/cmsis_gcc.h **** 
1710:./Libraries/CMSIS/Core/Include/cmsis_gcc.h **** __STATIC_FORCEINLINE uint32_t __UHSUB8(uint32_t op1, uint32_t op2)
1711:./Libraries/CMSIS/Core/Include/cmsis_gcc.h **** {
1712:./Libraries/CMSIS/Core/Include/cmsis_gcc.h ****   uint32_t result;
1713:./Libraries/CMSIS/Core/Include/cmsis_gcc.h **** 
1714:./Libraries/CMSIS/Core/Include/cmsis_gcc.h ****   __ASM volatile ("uhsub8 %0, %1, %2" : "=r" (result) : "r" (op1), "r" (op2) );
1715:./Libraries/CMSIS/Core/Include/cmsis_gcc.h ****   return(result);
1716:./Libraries/CMSIS/Core/Include/cmsis_gcc.h **** }
1717:./Libraries/CMSIS/Core/Include/cmsis_gcc.h **** 
1718:./Libraries/CMSIS/Core/Include/cmsis_gcc.h **** 
1719:./Libraries/CMSIS/Core/Include/cmsis_gcc.h **** __STATIC_FORCEINLINE uint32_t __SADD16(uint32_t op1, uint32_t op2)
1720:./Libraries/CMSIS/Core/Include/cmsis_gcc.h **** {
1721:./Libraries/CMSIS/Core/Include/cmsis_gcc.h ****   uint32_t result;
1722:./Libraries/CMSIS/Core/Include/cmsis_gcc.h **** 
1723:./Libraries/CMSIS/Core/Include/cmsis_gcc.h ****   __ASM volatile ("sadd16 %0, %1, %2" : "=r" (result) : "r" (op1), "r" (op2) );
1724:./Libraries/CMSIS/Core/Include/cmsis_gcc.h ****   return(result);
1725:./Libraries/CMSIS/Core/Include/cmsis_gcc.h **** }
1726:./Libraries/CMSIS/Core/Include/cmsis_gcc.h **** 
1727:./Libraries/CMSIS/Core/Include/cmsis_gcc.h **** __STATIC_FORCEINLINE uint32_t __QADD16(uint32_t op1, uint32_t op2)
1728:./Libraries/CMSIS/Core/Include/cmsis_gcc.h **** {
1729:./Libraries/CMSIS/Core/Include/cmsis_gcc.h ****   uint32_t result;
1730:./Libraries/CMSIS/Core/Include/cmsis_gcc.h **** 
1731:./Libraries/CMSIS/Core/Include/cmsis_gcc.h ****   __ASM volatile ("qadd16 %0, %1, %2" : "=r" (result) : "r" (op1), "r" (op2) );
1732:./Libraries/CMSIS/Core/Include/cmsis_gcc.h ****   return(result);
1733:./Libraries/CMSIS/Core/Include/cmsis_gcc.h **** }
1734:./Libraries/CMSIS/Core/Include/cmsis_gcc.h **** 
1735:./Libraries/CMSIS/Core/Include/cmsis_gcc.h **** __STATIC_FORCEINLINE uint32_t __SHADD16(uint32_t op1, uint32_t op2)
1736:./Libraries/CMSIS/Core/Include/cmsis_gcc.h **** {
1737:./Libraries/CMSIS/Core/Include/cmsis_gcc.h ****   uint32_t result;
1738:./Libraries/CMSIS/Core/Include/cmsis_gcc.h **** 
1739:./Libraries/CMSIS/Core/Include/cmsis_gcc.h ****   __ASM volatile ("shadd16 %0, %1, %2" : "=r" (result) : "r" (op1), "r" (op2) );
1740:./Libraries/CMSIS/Core/Include/cmsis_gcc.h ****   return(result);
1741:./Libraries/CMSIS/Core/Include/cmsis_gcc.h **** }
1742:./Libraries/CMSIS/Core/Include/cmsis_gcc.h **** 
1743:./Libraries/CMSIS/Core/Include/cmsis_gcc.h **** __STATIC_FORCEINLINE uint32_t __UADD16(uint32_t op1, uint32_t op2)
1744:./Libraries/CMSIS/Core/Include/cmsis_gcc.h **** {
1745:./Libraries/CMSIS/Core/Include/cmsis_gcc.h ****   uint32_t result;
1746:./Libraries/CMSIS/Core/Include/cmsis_gcc.h **** 
ARM GAS  /tmp/ccsRY4dG.s 			page 43


1747:./Libraries/CMSIS/Core/Include/cmsis_gcc.h ****   __ASM volatile ("uadd16 %0, %1, %2" : "=r" (result) : "r" (op1), "r" (op2) );
1748:./Libraries/CMSIS/Core/Include/cmsis_gcc.h ****   return(result);
1749:./Libraries/CMSIS/Core/Include/cmsis_gcc.h **** }
1750:./Libraries/CMSIS/Core/Include/cmsis_gcc.h **** 
1751:./Libraries/CMSIS/Core/Include/cmsis_gcc.h **** __STATIC_FORCEINLINE uint32_t __UQADD16(uint32_t op1, uint32_t op2)
1752:./Libraries/CMSIS/Core/Include/cmsis_gcc.h **** {
1753:./Libraries/CMSIS/Core/Include/cmsis_gcc.h ****   uint32_t result;
1754:./Libraries/CMSIS/Core/Include/cmsis_gcc.h **** 
1755:./Libraries/CMSIS/Core/Include/cmsis_gcc.h ****   __ASM volatile ("uqadd16 %0, %1, %2" : "=r" (result) : "r" (op1), "r" (op2) );
1756:./Libraries/CMSIS/Core/Include/cmsis_gcc.h ****   return(result);
1757:./Libraries/CMSIS/Core/Include/cmsis_gcc.h **** }
1758:./Libraries/CMSIS/Core/Include/cmsis_gcc.h **** 
1759:./Libraries/CMSIS/Core/Include/cmsis_gcc.h **** __STATIC_FORCEINLINE uint32_t __UHADD16(uint32_t op1, uint32_t op2)
1760:./Libraries/CMSIS/Core/Include/cmsis_gcc.h **** {
1761:./Libraries/CMSIS/Core/Include/cmsis_gcc.h ****   uint32_t result;
1762:./Libraries/CMSIS/Core/Include/cmsis_gcc.h **** 
1763:./Libraries/CMSIS/Core/Include/cmsis_gcc.h ****   __ASM volatile ("uhadd16 %0, %1, %2" : "=r" (result) : "r" (op1), "r" (op2) );
1764:./Libraries/CMSIS/Core/Include/cmsis_gcc.h ****   return(result);
1765:./Libraries/CMSIS/Core/Include/cmsis_gcc.h **** }
1766:./Libraries/CMSIS/Core/Include/cmsis_gcc.h **** 
1767:./Libraries/CMSIS/Core/Include/cmsis_gcc.h **** __STATIC_FORCEINLINE uint32_t __SSUB16(uint32_t op1, uint32_t op2)
1768:./Libraries/CMSIS/Core/Include/cmsis_gcc.h **** {
1769:./Libraries/CMSIS/Core/Include/cmsis_gcc.h ****   uint32_t result;
1770:./Libraries/CMSIS/Core/Include/cmsis_gcc.h **** 
1771:./Libraries/CMSIS/Core/Include/cmsis_gcc.h ****   __ASM volatile ("ssub16 %0, %1, %2" : "=r" (result) : "r" (op1), "r" (op2) );
1772:./Libraries/CMSIS/Core/Include/cmsis_gcc.h ****   return(result);
1773:./Libraries/CMSIS/Core/Include/cmsis_gcc.h **** }
1774:./Libraries/CMSIS/Core/Include/cmsis_gcc.h **** 
1775:./Libraries/CMSIS/Core/Include/cmsis_gcc.h **** __STATIC_FORCEINLINE uint32_t __QSUB16(uint32_t op1, uint32_t op2)
1776:./Libraries/CMSIS/Core/Include/cmsis_gcc.h **** {
1777:./Libraries/CMSIS/Core/Include/cmsis_gcc.h ****   uint32_t result;
1778:./Libraries/CMSIS/Core/Include/cmsis_gcc.h **** 
1779:./Libraries/CMSIS/Core/Include/cmsis_gcc.h ****   __ASM volatile ("qsub16 %0, %1, %2" : "=r" (result) : "r" (op1), "r" (op2) );
1780:./Libraries/CMSIS/Core/Include/cmsis_gcc.h ****   return(result);
1781:./Libraries/CMSIS/Core/Include/cmsis_gcc.h **** }
1782:./Libraries/CMSIS/Core/Include/cmsis_gcc.h **** 
1783:./Libraries/CMSIS/Core/Include/cmsis_gcc.h **** __STATIC_FORCEINLINE uint32_t __SHSUB16(uint32_t op1, uint32_t op2)
1784:./Libraries/CMSIS/Core/Include/cmsis_gcc.h **** {
1785:./Libraries/CMSIS/Core/Include/cmsis_gcc.h ****   uint32_t result;
1786:./Libraries/CMSIS/Core/Include/cmsis_gcc.h **** 
1787:./Libraries/CMSIS/Core/Include/cmsis_gcc.h ****   __ASM volatile ("shsub16 %0, %1, %2" : "=r" (result) : "r" (op1), "r" (op2) );
1788:./Libraries/CMSIS/Core/Include/cmsis_gcc.h ****   return(result);
1789:./Libraries/CMSIS/Core/Include/cmsis_gcc.h **** }
1790:./Libraries/CMSIS/Core/Include/cmsis_gcc.h **** 
1791:./Libraries/CMSIS/Core/Include/cmsis_gcc.h **** __STATIC_FORCEINLINE uint32_t __USUB16(uint32_t op1, uint32_t op2)
1792:./Libraries/CMSIS/Core/Include/cmsis_gcc.h **** {
1793:./Libraries/CMSIS/Core/Include/cmsis_gcc.h ****   uint32_t result;
1794:./Libraries/CMSIS/Core/Include/cmsis_gcc.h **** 
1795:./Libraries/CMSIS/Core/Include/cmsis_gcc.h ****   __ASM volatile ("usub16 %0, %1, %2" : "=r" (result) : "r" (op1), "r" (op2) );
1796:./Libraries/CMSIS/Core/Include/cmsis_gcc.h ****   return(result);
1797:./Libraries/CMSIS/Core/Include/cmsis_gcc.h **** }
1798:./Libraries/CMSIS/Core/Include/cmsis_gcc.h **** 
1799:./Libraries/CMSIS/Core/Include/cmsis_gcc.h **** __STATIC_FORCEINLINE uint32_t __UQSUB16(uint32_t op1, uint32_t op2)
1800:./Libraries/CMSIS/Core/Include/cmsis_gcc.h **** {
1801:./Libraries/CMSIS/Core/Include/cmsis_gcc.h ****   uint32_t result;
1802:./Libraries/CMSIS/Core/Include/cmsis_gcc.h **** 
1803:./Libraries/CMSIS/Core/Include/cmsis_gcc.h ****   __ASM volatile ("uqsub16 %0, %1, %2" : "=r" (result) : "r" (op1), "r" (op2) );
ARM GAS  /tmp/ccsRY4dG.s 			page 44


1804:./Libraries/CMSIS/Core/Include/cmsis_gcc.h ****   return(result);
1805:./Libraries/CMSIS/Core/Include/cmsis_gcc.h **** }
1806:./Libraries/CMSIS/Core/Include/cmsis_gcc.h **** 
1807:./Libraries/CMSIS/Core/Include/cmsis_gcc.h **** __STATIC_FORCEINLINE uint32_t __UHSUB16(uint32_t op1, uint32_t op2)
1808:./Libraries/CMSIS/Core/Include/cmsis_gcc.h **** {
1809:./Libraries/CMSIS/Core/Include/cmsis_gcc.h ****   uint32_t result;
1810:./Libraries/CMSIS/Core/Include/cmsis_gcc.h **** 
1811:./Libraries/CMSIS/Core/Include/cmsis_gcc.h ****   __ASM volatile ("uhsub16 %0, %1, %2" : "=r" (result) : "r" (op1), "r" (op2) );
1812:./Libraries/CMSIS/Core/Include/cmsis_gcc.h ****   return(result);
1813:./Libraries/CMSIS/Core/Include/cmsis_gcc.h **** }
1814:./Libraries/CMSIS/Core/Include/cmsis_gcc.h **** 
1815:./Libraries/CMSIS/Core/Include/cmsis_gcc.h **** __STATIC_FORCEINLINE uint32_t __SASX(uint32_t op1, uint32_t op2)
1816:./Libraries/CMSIS/Core/Include/cmsis_gcc.h **** {
1817:./Libraries/CMSIS/Core/Include/cmsis_gcc.h ****   uint32_t result;
1818:./Libraries/CMSIS/Core/Include/cmsis_gcc.h **** 
1819:./Libraries/CMSIS/Core/Include/cmsis_gcc.h ****   __ASM volatile ("sasx %0, %1, %2" : "=r" (result) : "r" (op1), "r" (op2) );
1820:./Libraries/CMSIS/Core/Include/cmsis_gcc.h ****   return(result);
1821:./Libraries/CMSIS/Core/Include/cmsis_gcc.h **** }
1822:./Libraries/CMSIS/Core/Include/cmsis_gcc.h **** 
1823:./Libraries/CMSIS/Core/Include/cmsis_gcc.h **** __STATIC_FORCEINLINE uint32_t __QASX(uint32_t op1, uint32_t op2)
1824:./Libraries/CMSIS/Core/Include/cmsis_gcc.h **** {
1825:./Libraries/CMSIS/Core/Include/cmsis_gcc.h ****   uint32_t result;
1826:./Libraries/CMSIS/Core/Include/cmsis_gcc.h **** 
1827:./Libraries/CMSIS/Core/Include/cmsis_gcc.h ****   __ASM volatile ("qasx %0, %1, %2" : "=r" (result) : "r" (op1), "r" (op2) );
1828:./Libraries/CMSIS/Core/Include/cmsis_gcc.h ****   return(result);
1829:./Libraries/CMSIS/Core/Include/cmsis_gcc.h **** }
1830:./Libraries/CMSIS/Core/Include/cmsis_gcc.h **** 
1831:./Libraries/CMSIS/Core/Include/cmsis_gcc.h **** __STATIC_FORCEINLINE uint32_t __SHASX(uint32_t op1, uint32_t op2)
1832:./Libraries/CMSIS/Core/Include/cmsis_gcc.h **** {
1833:./Libraries/CMSIS/Core/Include/cmsis_gcc.h ****   uint32_t result;
1834:./Libraries/CMSIS/Core/Include/cmsis_gcc.h **** 
1835:./Libraries/CMSIS/Core/Include/cmsis_gcc.h ****   __ASM volatile ("shasx %0, %1, %2" : "=r" (result) : "r" (op1), "r" (op2) );
1836:./Libraries/CMSIS/Core/Include/cmsis_gcc.h ****   return(result);
1837:./Libraries/CMSIS/Core/Include/cmsis_gcc.h **** }
1838:./Libraries/CMSIS/Core/Include/cmsis_gcc.h **** 
1839:./Libraries/CMSIS/Core/Include/cmsis_gcc.h **** __STATIC_FORCEINLINE uint32_t __UASX(uint32_t op1, uint32_t op2)
1840:./Libraries/CMSIS/Core/Include/cmsis_gcc.h **** {
1841:./Libraries/CMSIS/Core/Include/cmsis_gcc.h ****   uint32_t result;
1842:./Libraries/CMSIS/Core/Include/cmsis_gcc.h **** 
1843:./Libraries/CMSIS/Core/Include/cmsis_gcc.h ****   __ASM volatile ("uasx %0, %1, %2" : "=r" (result) : "r" (op1), "r" (op2) );
1844:./Libraries/CMSIS/Core/Include/cmsis_gcc.h ****   return(result);
1845:./Libraries/CMSIS/Core/Include/cmsis_gcc.h **** }
1846:./Libraries/CMSIS/Core/Include/cmsis_gcc.h **** 
1847:./Libraries/CMSIS/Core/Include/cmsis_gcc.h **** __STATIC_FORCEINLINE uint32_t __UQASX(uint32_t op1, uint32_t op2)
1848:./Libraries/CMSIS/Core/Include/cmsis_gcc.h **** {
1849:./Libraries/CMSIS/Core/Include/cmsis_gcc.h ****   uint32_t result;
1850:./Libraries/CMSIS/Core/Include/cmsis_gcc.h **** 
1851:./Libraries/CMSIS/Core/Include/cmsis_gcc.h ****   __ASM volatile ("uqasx %0, %1, %2" : "=r" (result) : "r" (op1), "r" (op2) );
1852:./Libraries/CMSIS/Core/Include/cmsis_gcc.h ****   return(result);
1853:./Libraries/CMSIS/Core/Include/cmsis_gcc.h **** }
1854:./Libraries/CMSIS/Core/Include/cmsis_gcc.h **** 
1855:./Libraries/CMSIS/Core/Include/cmsis_gcc.h **** __STATIC_FORCEINLINE uint32_t __UHASX(uint32_t op1, uint32_t op2)
1856:./Libraries/CMSIS/Core/Include/cmsis_gcc.h **** {
1857:./Libraries/CMSIS/Core/Include/cmsis_gcc.h ****   uint32_t result;
1858:./Libraries/CMSIS/Core/Include/cmsis_gcc.h **** 
1859:./Libraries/CMSIS/Core/Include/cmsis_gcc.h ****   __ASM volatile ("uhasx %0, %1, %2" : "=r" (result) : "r" (op1), "r" (op2) );
1860:./Libraries/CMSIS/Core/Include/cmsis_gcc.h ****   return(result);
ARM GAS  /tmp/ccsRY4dG.s 			page 45


1861:./Libraries/CMSIS/Core/Include/cmsis_gcc.h **** }
1862:./Libraries/CMSIS/Core/Include/cmsis_gcc.h **** 
1863:./Libraries/CMSIS/Core/Include/cmsis_gcc.h **** __STATIC_FORCEINLINE uint32_t __SSAX(uint32_t op1, uint32_t op2)
1864:./Libraries/CMSIS/Core/Include/cmsis_gcc.h **** {
1865:./Libraries/CMSIS/Core/Include/cmsis_gcc.h ****   uint32_t result;
1866:./Libraries/CMSIS/Core/Include/cmsis_gcc.h **** 
1867:./Libraries/CMSIS/Core/Include/cmsis_gcc.h ****   __ASM volatile ("ssax %0, %1, %2" : "=r" (result) : "r" (op1), "r" (op2) );
1868:./Libraries/CMSIS/Core/Include/cmsis_gcc.h ****   return(result);
1869:./Libraries/CMSIS/Core/Include/cmsis_gcc.h **** }
1870:./Libraries/CMSIS/Core/Include/cmsis_gcc.h **** 
1871:./Libraries/CMSIS/Core/Include/cmsis_gcc.h **** __STATIC_FORCEINLINE uint32_t __QSAX(uint32_t op1, uint32_t op2)
1872:./Libraries/CMSIS/Core/Include/cmsis_gcc.h **** {
1873:./Libraries/CMSIS/Core/Include/cmsis_gcc.h ****   uint32_t result;
1874:./Libraries/CMSIS/Core/Include/cmsis_gcc.h **** 
1875:./Libraries/CMSIS/Core/Include/cmsis_gcc.h ****   __ASM volatile ("qsax %0, %1, %2" : "=r" (result) : "r" (op1), "r" (op2) );
1876:./Libraries/CMSIS/Core/Include/cmsis_gcc.h ****   return(result);
1877:./Libraries/CMSIS/Core/Include/cmsis_gcc.h **** }
1878:./Libraries/CMSIS/Core/Include/cmsis_gcc.h **** 
1879:./Libraries/CMSIS/Core/Include/cmsis_gcc.h **** __STATIC_FORCEINLINE uint32_t __SHSAX(uint32_t op1, uint32_t op2)
1880:./Libraries/CMSIS/Core/Include/cmsis_gcc.h **** {
1881:./Libraries/CMSIS/Core/Include/cmsis_gcc.h ****   uint32_t result;
1882:./Libraries/CMSIS/Core/Include/cmsis_gcc.h **** 
1883:./Libraries/CMSIS/Core/Include/cmsis_gcc.h ****   __ASM volatile ("shsax %0, %1, %2" : "=r" (result) : "r" (op1), "r" (op2) );
1884:./Libraries/CMSIS/Core/Include/cmsis_gcc.h ****   return(result);
1885:./Libraries/CMSIS/Core/Include/cmsis_gcc.h **** }
1886:./Libraries/CMSIS/Core/Include/cmsis_gcc.h **** 
1887:./Libraries/CMSIS/Core/Include/cmsis_gcc.h **** __STATIC_FORCEINLINE uint32_t __USAX(uint32_t op1, uint32_t op2)
1888:./Libraries/CMSIS/Core/Include/cmsis_gcc.h **** {
1889:./Libraries/CMSIS/Core/Include/cmsis_gcc.h ****   uint32_t result;
1890:./Libraries/CMSIS/Core/Include/cmsis_gcc.h **** 
1891:./Libraries/CMSIS/Core/Include/cmsis_gcc.h ****   __ASM volatile ("usax %0, %1, %2" : "=r" (result) : "r" (op1), "r" (op2) );
1892:./Libraries/CMSIS/Core/Include/cmsis_gcc.h ****   return(result);
1893:./Libraries/CMSIS/Core/Include/cmsis_gcc.h **** }
1894:./Libraries/CMSIS/Core/Include/cmsis_gcc.h **** 
1895:./Libraries/CMSIS/Core/Include/cmsis_gcc.h **** __STATIC_FORCEINLINE uint32_t __UQSAX(uint32_t op1, uint32_t op2)
1896:./Libraries/CMSIS/Core/Include/cmsis_gcc.h **** {
1897:./Libraries/CMSIS/Core/Include/cmsis_gcc.h ****   uint32_t result;
1898:./Libraries/CMSIS/Core/Include/cmsis_gcc.h **** 
1899:./Libraries/CMSIS/Core/Include/cmsis_gcc.h ****   __ASM volatile ("uqsax %0, %1, %2" : "=r" (result) : "r" (op1), "r" (op2) );
1900:./Libraries/CMSIS/Core/Include/cmsis_gcc.h ****   return(result);
1901:./Libraries/CMSIS/Core/Include/cmsis_gcc.h **** }
1902:./Libraries/CMSIS/Core/Include/cmsis_gcc.h **** 
1903:./Libraries/CMSIS/Core/Include/cmsis_gcc.h **** __STATIC_FORCEINLINE uint32_t __UHSAX(uint32_t op1, uint32_t op2)
1904:./Libraries/CMSIS/Core/Include/cmsis_gcc.h **** {
1905:./Libraries/CMSIS/Core/Include/cmsis_gcc.h ****   uint32_t result;
1906:./Libraries/CMSIS/Core/Include/cmsis_gcc.h **** 
1907:./Libraries/CMSIS/Core/Include/cmsis_gcc.h ****   __ASM volatile ("uhsax %0, %1, %2" : "=r" (result) : "r" (op1), "r" (op2) );
1908:./Libraries/CMSIS/Core/Include/cmsis_gcc.h ****   return(result);
1909:./Libraries/CMSIS/Core/Include/cmsis_gcc.h **** }
1910:./Libraries/CMSIS/Core/Include/cmsis_gcc.h **** 
1911:./Libraries/CMSIS/Core/Include/cmsis_gcc.h **** __STATIC_FORCEINLINE uint32_t __USAD8(uint32_t op1, uint32_t op2)
1912:./Libraries/CMSIS/Core/Include/cmsis_gcc.h **** {
1913:./Libraries/CMSIS/Core/Include/cmsis_gcc.h ****   uint32_t result;
1914:./Libraries/CMSIS/Core/Include/cmsis_gcc.h **** 
1915:./Libraries/CMSIS/Core/Include/cmsis_gcc.h ****   __ASM volatile ("usad8 %0, %1, %2" : "=r" (result) : "r" (op1), "r" (op2) );
1916:./Libraries/CMSIS/Core/Include/cmsis_gcc.h ****   return(result);
1917:./Libraries/CMSIS/Core/Include/cmsis_gcc.h **** }
ARM GAS  /tmp/ccsRY4dG.s 			page 46


1918:./Libraries/CMSIS/Core/Include/cmsis_gcc.h **** 
1919:./Libraries/CMSIS/Core/Include/cmsis_gcc.h **** __STATIC_FORCEINLINE uint32_t __USADA8(uint32_t op1, uint32_t op2, uint32_t op3)
1920:./Libraries/CMSIS/Core/Include/cmsis_gcc.h **** {
1921:./Libraries/CMSIS/Core/Include/cmsis_gcc.h ****   uint32_t result;
1922:./Libraries/CMSIS/Core/Include/cmsis_gcc.h **** 
1923:./Libraries/CMSIS/Core/Include/cmsis_gcc.h ****   __ASM volatile ("usada8 %0, %1, %2, %3" : "=r" (result) : "r" (op1), "r" (op2), "r" (op3) );
1924:./Libraries/CMSIS/Core/Include/cmsis_gcc.h ****   return(result);
1925:./Libraries/CMSIS/Core/Include/cmsis_gcc.h **** }
1926:./Libraries/CMSIS/Core/Include/cmsis_gcc.h **** 
1927:./Libraries/CMSIS/Core/Include/cmsis_gcc.h **** #define __SSAT16(ARG1,ARG2) \
1928:./Libraries/CMSIS/Core/Include/cmsis_gcc.h **** ({                          \
1929:./Libraries/CMSIS/Core/Include/cmsis_gcc.h ****   int32_t __RES, __ARG1 = (ARG1); \
1930:./Libraries/CMSIS/Core/Include/cmsis_gcc.h ****   __ASM ("ssat16 %0, %1, %2" : "=r" (__RES) :  "I" (ARG2), "r" (__ARG1) ); \
1931:./Libraries/CMSIS/Core/Include/cmsis_gcc.h ****   __RES; \
1932:./Libraries/CMSIS/Core/Include/cmsis_gcc.h ****  })
1933:./Libraries/CMSIS/Core/Include/cmsis_gcc.h **** 
1934:./Libraries/CMSIS/Core/Include/cmsis_gcc.h **** #define __USAT16(ARG1,ARG2) \
1935:./Libraries/CMSIS/Core/Include/cmsis_gcc.h **** ({                          \
1936:./Libraries/CMSIS/Core/Include/cmsis_gcc.h ****   uint32_t __RES, __ARG1 = (ARG1); \
1937:./Libraries/CMSIS/Core/Include/cmsis_gcc.h ****   __ASM ("usat16 %0, %1, %2" : "=r" (__RES) :  "I" (ARG2), "r" (__ARG1) ); \
1938:./Libraries/CMSIS/Core/Include/cmsis_gcc.h ****   __RES; \
1939:./Libraries/CMSIS/Core/Include/cmsis_gcc.h ****  })
1940:./Libraries/CMSIS/Core/Include/cmsis_gcc.h **** 
1941:./Libraries/CMSIS/Core/Include/cmsis_gcc.h **** __STATIC_FORCEINLINE uint32_t __UXTB16(uint32_t op1)
1942:./Libraries/CMSIS/Core/Include/cmsis_gcc.h **** {
1943:./Libraries/CMSIS/Core/Include/cmsis_gcc.h ****   uint32_t result;
1944:./Libraries/CMSIS/Core/Include/cmsis_gcc.h **** 
1945:./Libraries/CMSIS/Core/Include/cmsis_gcc.h ****   __ASM volatile ("uxtb16 %0, %1" : "=r" (result) : "r" (op1));
1946:./Libraries/CMSIS/Core/Include/cmsis_gcc.h ****   return(result);
1947:./Libraries/CMSIS/Core/Include/cmsis_gcc.h **** }
1948:./Libraries/CMSIS/Core/Include/cmsis_gcc.h **** 
1949:./Libraries/CMSIS/Core/Include/cmsis_gcc.h **** __STATIC_FORCEINLINE uint32_t __UXTAB16(uint32_t op1, uint32_t op2)
1950:./Libraries/CMSIS/Core/Include/cmsis_gcc.h **** {
1951:./Libraries/CMSIS/Core/Include/cmsis_gcc.h ****   uint32_t result;
1952:./Libraries/CMSIS/Core/Include/cmsis_gcc.h **** 
1953:./Libraries/CMSIS/Core/Include/cmsis_gcc.h ****   __ASM volatile ("uxtab16 %0, %1, %2" : "=r" (result) : "r" (op1), "r" (op2) );
1954:./Libraries/CMSIS/Core/Include/cmsis_gcc.h ****   return(result);
1955:./Libraries/CMSIS/Core/Include/cmsis_gcc.h **** }
1956:./Libraries/CMSIS/Core/Include/cmsis_gcc.h **** 
1957:./Libraries/CMSIS/Core/Include/cmsis_gcc.h **** __STATIC_FORCEINLINE uint32_t __SXTB16(uint32_t op1)
1958:./Libraries/CMSIS/Core/Include/cmsis_gcc.h **** {
1959:./Libraries/CMSIS/Core/Include/cmsis_gcc.h ****   uint32_t result;
1960:./Libraries/CMSIS/Core/Include/cmsis_gcc.h **** 
1961:./Libraries/CMSIS/Core/Include/cmsis_gcc.h ****   __ASM volatile ("sxtb16 %0, %1" : "=r" (result) : "r" (op1));
 365              		.loc 3 1961 3
 366 028e 7B6B     		ldr	r3, [r7, #52]
 367              		.syntax unified
 368              	@ 1961 "./Libraries/CMSIS/Core/Include/cmsis_gcc.h" 1
 369 0290 2FFA83F3 		sxtb16 r3, r3
 370              	@ 0 "" 2
 371              		.thumb
 372              		.syntax unified
 373 0294 3B63     		str	r3, [r7, #48]
1962:./Libraries/CMSIS/Core/Include/cmsis_gcc.h ****   return(result);
 374              		.loc 3 1962 9
 375 0296 3B6B     		ldr	r3, [r7, #48]
 376              	.LBE33:
ARM GAS  /tmp/ccsRY4dG.s 			page 47


 377              	.LBE32:
 378              		.loc 2 109 19
 379 0298 FB62     		str	r3, [r7, #44]
 110:./Libraries/CMSIS/NN/Include/arm_nnsupportfunctions.h ****         q31_t     inAbuf2 = __SXTB16(inA);
 380              		.loc 2 110 29
 381 029a 3B6C     		ldr	r3, [r7, #64]
 382 029c BB62     		str	r3, [r7, #40]
 383              	.LBB34:
 384              	.LBB35:
1961:./Libraries/CMSIS/Core/Include/cmsis_gcc.h ****   return(result);
 385              		.loc 3 1961 3
 386 029e BB6A     		ldr	r3, [r7, #40]
 387              		.syntax unified
 388              	@ 1961 "./Libraries/CMSIS/Core/Include/cmsis_gcc.h" 1
 389 02a0 2FFA83F3 		sxtb16 r3, r3
 390              	@ 0 "" 2
 391              		.thumb
 392              		.syntax unified
 393 02a4 7B62     		str	r3, [r7, #36]
 394              		.loc 3 1962 9
 395 02a6 7B6A     		ldr	r3, [r7, #36]
 396              	.LBE35:
 397              	.LBE34:
 398              		.loc 2 110 19
 399 02a8 3B62     		str	r3, [r7, #32]
 111:./Libraries/CMSIS/NN/Include/arm_nnsupportfunctions.h **** 
 112:./Libraries/CMSIS/NN/Include/arm_nnsupportfunctions.h **** #ifndef ARM_MATH_BIG_ENDIAN
 113:./Libraries/CMSIS/NN/Include/arm_nnsupportfunctions.h ****         *out2 = __PKHTB(inAbuf1, inAbuf2, 16);
 400              		.loc 2 113 17
 401 02aa FA6A     		ldr	r2, [r7, #44]
 402 02ac 504B     		ldr	r3, .L29
 403 02ae 1340     		ands	r3, r3, r2
 404 02b0 3A6A     		ldr	r2, [r7, #32]
 405 02b2 120C     		lsrs	r2, r2, #16
 406 02b4 1343     		orrs	r3, r3, r2
 407 02b6 1A46     		mov	r2, r3
 408              		.loc 2 113 15
 409 02b8 7B6C     		ldr	r3, [r7, #68]
 410 02ba 1A60     		str	r2, [r3]
 114:./Libraries/CMSIS/NN/Include/arm_nnsupportfunctions.h ****         *out1 = __PKHBT(inAbuf2, inAbuf1, 16);
 411              		.loc 2 114 17
 412 02bc 3B6A     		ldr	r3, [r7, #32]
 413 02be 9AB2     		uxth	r2, r3
 414 02c0 FB6A     		ldr	r3, [r7, #44]
 415 02c2 1B04     		lsls	r3, r3, #16
 416 02c4 1343     		orrs	r3, r3, r2
 417 02c6 1A46     		mov	r2, r3
 418              		.loc 2 114 15
 419 02c8 BB6C     		ldr	r3, [r7, #72]
 420 02ca 1A60     		str	r2, [r3]
 115:./Libraries/CMSIS/NN/Include/arm_nnsupportfunctions.h **** #else
 116:./Libraries/CMSIS/NN/Include/arm_nnsupportfunctions.h ****         *out1 = __PKHTB(inAbuf1, inAbuf2, 16);
 117:./Libraries/CMSIS/NN/Include/arm_nnsupportfunctions.h ****         *out2 = __PKHBT(inAbuf2, inAbuf1, 16);
 118:./Libraries/CMSIS/NN/Include/arm_nnsupportfunctions.h **** #endif
 119:./Libraries/CMSIS/NN/Include/arm_nnsupportfunctions.h **** 
 120:./Libraries/CMSIS/NN/Include/arm_nnsupportfunctions.h ****         return source;
 421              		.loc 2 120 16
ARM GAS  /tmp/ccsRY4dG.s 			page 48


 422 02cc 3B69     		ldr	r3, [r7, #16]
 423              	.LBE29:
 424              	.LBE28:
 158:./Libraries/CMSIS/NN/Source/ConvolutionFunctions/arm_convolve_HWC_q7_basic_nonsquare.c ****             {
 159:./Libraries/CMSIS/NN/Source/ConvolutionFunctions/arm_convolve_HWC_q7_basic_nonsquare.c ****                 q31_t     inA1, inA2;
 160:./Libraries/CMSIS/NN/Source/ConvolutionFunctions/arm_convolve_HWC_q7_basic_nonsquare.c ****                 q31_t     inB1, inB2;
 161:./Libraries/CMSIS/NN/Source/ConvolutionFunctions/arm_convolve_HWC_q7_basic_nonsquare.c **** 
 162:./Libraries/CMSIS/NN/Source/ConvolutionFunctions/arm_convolve_HWC_q7_basic_nonsquare.c ****                 pA = (q7_t *) read_and_pad((void *)pA, &inA1, &inA2);
 425              		.loc 1 162 31
 426 02ce C7F88C30 		str	r3, [r7, #140]
 163:./Libraries/CMSIS/NN/Source/ConvolutionFunctions/arm_convolve_HWC_q7_basic_nonsquare.c **** 
 164:./Libraries/CMSIS/NN/Source/ConvolutionFunctions/arm_convolve_HWC_q7_basic_nonsquare.c ****                 inB1 = *__SIMD32(pB)++;
 427              		.loc 1 164 25
 428 02d2 07F11C02 		add	r2, r7, #28
 429 02d6 1368     		ldr	r3, [r2]
 430              		.loc 1 164 37
 431 02d8 191D     		adds	r1, r3, #4
 432 02da 1160     		str	r1, [r2]
 433              		.loc 1 164 22
 434 02dc 1B68     		ldr	r3, [r3]
 435 02de 3B67     		str	r3, [r7, #112]
 165:./Libraries/CMSIS/NN/Source/ConvolutionFunctions/arm_convolve_HWC_q7_basic_nonsquare.c ****                 sum = __SMLAD(inA1, inB1, sum);
 436              		.loc 1 165 23
 437 02e0 BB69     		ldr	r3, [r7, #24]
 438 02e2 1946     		mov	r1, r3
 439 02e4 3A6F     		ldr	r2, [r7, #112]
 440 02e6 D7F88430 		ldr	r3, [r7, #132]
 441 02ea B965     		str	r1, [r7, #88]
 442 02ec 7A65     		str	r2, [r7, #84]
 443 02ee 3B65     		str	r3, [r7, #80]
 444              	.LBB36:
 445              	.LBB37:
1963:./Libraries/CMSIS/Core/Include/cmsis_gcc.h **** }
1964:./Libraries/CMSIS/Core/Include/cmsis_gcc.h **** 
1965:./Libraries/CMSIS/Core/Include/cmsis_gcc.h **** __STATIC_FORCEINLINE uint32_t __SXTAB16(uint32_t op1, uint32_t op2)
1966:./Libraries/CMSIS/Core/Include/cmsis_gcc.h **** {
1967:./Libraries/CMSIS/Core/Include/cmsis_gcc.h ****   uint32_t result;
1968:./Libraries/CMSIS/Core/Include/cmsis_gcc.h **** 
1969:./Libraries/CMSIS/Core/Include/cmsis_gcc.h ****   __ASM volatile ("sxtab16 %0, %1, %2" : "=r" (result) : "r" (op1), "r" (op2) );
1970:./Libraries/CMSIS/Core/Include/cmsis_gcc.h ****   return(result);
1971:./Libraries/CMSIS/Core/Include/cmsis_gcc.h **** }
1972:./Libraries/CMSIS/Core/Include/cmsis_gcc.h **** 
1973:./Libraries/CMSIS/Core/Include/cmsis_gcc.h **** __STATIC_FORCEINLINE uint32_t __SMUAD  (uint32_t op1, uint32_t op2)
1974:./Libraries/CMSIS/Core/Include/cmsis_gcc.h **** {
1975:./Libraries/CMSIS/Core/Include/cmsis_gcc.h ****   uint32_t result;
1976:./Libraries/CMSIS/Core/Include/cmsis_gcc.h **** 
1977:./Libraries/CMSIS/Core/Include/cmsis_gcc.h ****   __ASM volatile ("smuad %0, %1, %2" : "=r" (result) : "r" (op1), "r" (op2) );
1978:./Libraries/CMSIS/Core/Include/cmsis_gcc.h ****   return(result);
1979:./Libraries/CMSIS/Core/Include/cmsis_gcc.h **** }
1980:./Libraries/CMSIS/Core/Include/cmsis_gcc.h **** 
1981:./Libraries/CMSIS/Core/Include/cmsis_gcc.h **** __STATIC_FORCEINLINE uint32_t __SMUADX (uint32_t op1, uint32_t op2)
1982:./Libraries/CMSIS/Core/Include/cmsis_gcc.h **** {
1983:./Libraries/CMSIS/Core/Include/cmsis_gcc.h ****   uint32_t result;
1984:./Libraries/CMSIS/Core/Include/cmsis_gcc.h **** 
1985:./Libraries/CMSIS/Core/Include/cmsis_gcc.h ****   __ASM volatile ("smuadx %0, %1, %2" : "=r" (result) : "r" (op1), "r" (op2) );
1986:./Libraries/CMSIS/Core/Include/cmsis_gcc.h ****   return(result);
1987:./Libraries/CMSIS/Core/Include/cmsis_gcc.h **** }
ARM GAS  /tmp/ccsRY4dG.s 			page 49


1988:./Libraries/CMSIS/Core/Include/cmsis_gcc.h **** 
1989:./Libraries/CMSIS/Core/Include/cmsis_gcc.h **** __STATIC_FORCEINLINE uint32_t __SMLAD (uint32_t op1, uint32_t op2, uint32_t op3)
1990:./Libraries/CMSIS/Core/Include/cmsis_gcc.h **** {
1991:./Libraries/CMSIS/Core/Include/cmsis_gcc.h ****   uint32_t result;
1992:./Libraries/CMSIS/Core/Include/cmsis_gcc.h **** 
1993:./Libraries/CMSIS/Core/Include/cmsis_gcc.h ****   __ASM volatile ("smlad %0, %1, %2, %3" : "=r" (result) : "r" (op1), "r" (op2), "r" (op3) );
 446              		.loc 3 1993 3
 447 02f0 BB6D     		ldr	r3, [r7, #88]
 448 02f2 7A6D     		ldr	r2, [r7, #84]
 449 02f4 396D     		ldr	r1, [r7, #80]
 450              		.syntax unified
 451              	@ 1993 "./Libraries/CMSIS/Core/Include/cmsis_gcc.h" 1
 452 02f6 23FB0213 		smlad r3, r3, r2, r1
 453              	@ 0 "" 2
 454              		.thumb
 455              		.syntax unified
 456 02fa FB64     		str	r3, [r7, #76]
1994:./Libraries/CMSIS/Core/Include/cmsis_gcc.h ****   return(result);
 457              		.loc 3 1994 9
 458 02fc FB6C     		ldr	r3, [r7, #76]
 459              	.LBE37:
 460              	.LBE36:
 461              		.loc 1 165 21
 462 02fe C7F88430 		str	r3, [r7, #132]
 166:./Libraries/CMSIS/NN/Source/ConvolutionFunctions/arm_convolve_HWC_q7_basic_nonsquare.c ****                 inB2 = *__SIMD32(pB)++;
 463              		.loc 1 166 25
 464 0302 07F11C02 		add	r2, r7, #28
 465 0306 1368     		ldr	r3, [r2]
 466              		.loc 1 166 37
 467 0308 191D     		adds	r1, r3, #4
 468 030a 1160     		str	r1, [r2]
 469              		.loc 1 166 22
 470 030c 1B68     		ldr	r3, [r3]
 471 030e FB66     		str	r3, [r7, #108]
 167:./Libraries/CMSIS/NN/Source/ConvolutionFunctions/arm_convolve_HWC_q7_basic_nonsquare.c ****                 sum = __SMLAD(inA2, inB2, sum);
 472              		.loc 1 167 23
 473 0310 7B69     		ldr	r3, [r7, #20]
 474 0312 1946     		mov	r1, r3
 475 0314 FA6E     		ldr	r2, [r7, #108]
 476 0316 D7F88430 		ldr	r3, [r7, #132]
 477 031a B966     		str	r1, [r7, #104]
 478 031c 7A66     		str	r2, [r7, #100]
 479 031e 3B66     		str	r3, [r7, #96]
 480              	.LBB38:
 481              	.LBB39:
1993:./Libraries/CMSIS/Core/Include/cmsis_gcc.h ****   return(result);
 482              		.loc 3 1993 3
 483 0320 BB6E     		ldr	r3, [r7, #104]
 484 0322 7A6E     		ldr	r2, [r7, #100]
 485 0324 396E     		ldr	r1, [r7, #96]
 486              		.syntax unified
 487              	@ 1993 "./Libraries/CMSIS/Core/Include/cmsis_gcc.h" 1
 488 0326 23FB0213 		smlad r3, r3, r2, r1
 489              	@ 0 "" 2
 490              		.thumb
 491              		.syntax unified
 492 032a FB65     		str	r3, [r7, #92]
ARM GAS  /tmp/ccsRY4dG.s 			page 50


 493              		.loc 3 1994 9
 494 032c FB6D     		ldr	r3, [r7, #92]
 495              	.LBE39:
 496              	.LBE38:
 497              		.loc 1 167 21
 498 032e C7F88430 		str	r3, [r7, #132]
 168:./Libraries/CMSIS/NN/Source/ConvolutionFunctions/arm_convolve_HWC_q7_basic_nonsquare.c **** 
 169:./Libraries/CMSIS/NN/Source/ConvolutionFunctions/arm_convolve_HWC_q7_basic_nonsquare.c ****                 colCnt--;
 499              		.loc 1 169 23
 500 0332 B7F88230 		ldrh	r3, [r7, #130]
 501 0336 013B     		subs	r3, r3, #1
 502 0338 A7F88230 		strh	r3, [r7, #130]	@ movhi
 503              	.L16:
 504              	.LBE27:
 157:./Libraries/CMSIS/NN/Source/ConvolutionFunctions/arm_convolve_HWC_q7_basic_nonsquare.c ****             {
 505              		.loc 1 157 19
 506 033c B7F88230 		ldrh	r3, [r7, #130]
 507 0340 002B     		cmp	r3, #0
 508 0342 82D1     		bne	.L24
 170:./Libraries/CMSIS/NN/Source/ConvolutionFunctions/arm_convolve_HWC_q7_basic_nonsquare.c ****             }
 171:./Libraries/CMSIS/NN/Source/ConvolutionFunctions/arm_convolve_HWC_q7_basic_nonsquare.c ****             colCnt = ch_im_in * dim_kernel_y * dim_kernel_x & 0x3;
 509              		.loc 1 171 61
 510 0344 FA88     		ldrh	r2, [r7, #6]	@ movhi
 511 0346 B7F8B430 		ldrh	r3, [r7, #180]	@ movhi
 512 034a 12FB03F3 		smulbb	r3, r2, r3
 513 034e 9BB2     		uxth	r3, r3
 514 0350 B7F8B020 		ldrh	r2, [r7, #176]	@ movhi
 515 0354 12FB03F3 		smulbb	r3, r2, r3
 516 0358 9BB2     		uxth	r3, r3
 517              		.loc 1 171 20
 518 035a 03F00303 		and	r3, r3, #3
 519 035e A7F88230 		strh	r3, [r7, #130]	@ movhi
 172:./Libraries/CMSIS/NN/Source/ConvolutionFunctions/arm_convolve_HWC_q7_basic_nonsquare.c ****             while (colCnt)
 520              		.loc 1 172 19
 521 0362 1DE0     		b	.L25
 522              	.L26:
 523              	.LBB40:
 173:./Libraries/CMSIS/NN/Source/ConvolutionFunctions/arm_convolve_HWC_q7_basic_nonsquare.c ****             {
 174:./Libraries/CMSIS/NN/Source/ConvolutionFunctions/arm_convolve_HWC_q7_basic_nonsquare.c ****                 q7_t      inA1 = *pA++;
 524              		.loc 1 174 37
 525 0364 D7F88C30 		ldr	r3, [r7, #140]
 526 0368 5A1C     		adds	r2, r3, #1
 527 036a C7F88C20 		str	r2, [r7, #140]
 528              		.loc 1 174 27
 529 036e 1B78     		ldrb	r3, [r3]
 530 0370 87F87730 		strb	r3, [r7, #119]
 175:./Libraries/CMSIS/NN/Source/ConvolutionFunctions/arm_convolve_HWC_q7_basic_nonsquare.c ****                 q15_t     inB1 = *pB++;
 531              		.loc 1 175 37
 532 0374 FB69     		ldr	r3, [r7, #28]
 533 0376 9A1C     		adds	r2, r3, #2
 534 0378 FA61     		str	r2, [r7, #28]
 535              		.loc 1 175 27
 536 037a 1B88     		ldrh	r3, [r3]	@ movhi
 537 037c A7F87430 		strh	r3, [r7, #116]	@ movhi
 176:./Libraries/CMSIS/NN/Source/ConvolutionFunctions/arm_convolve_HWC_q7_basic_nonsquare.c ****                 sum += inA1 * inB1;
 538              		.loc 1 176 29
 539 0380 97F97730 		ldrsb	r3, [r7, #119]
ARM GAS  /tmp/ccsRY4dG.s 			page 51


 540 0384 B7F97420 		ldrsh	r2, [r7, #116]
 541 0388 02FB03F3 		mul	r3, r2, r3
 542              		.loc 1 176 21
 543 038c D7F88420 		ldr	r2, [r7, #132]
 544 0390 1344     		add	r3, r3, r2
 545 0392 C7F88430 		str	r3, [r7, #132]
 177:./Libraries/CMSIS/NN/Source/ConvolutionFunctions/arm_convolve_HWC_q7_basic_nonsquare.c ****                 colCnt--;
 546              		.loc 1 177 23
 547 0396 B7F88230 		ldrh	r3, [r7, #130]
 548 039a 013B     		subs	r3, r3, #1
 549 039c A7F88230 		strh	r3, [r7, #130]	@ movhi
 550              	.L25:
 551              	.LBE40:
 172:./Libraries/CMSIS/NN/Source/ConvolutionFunctions/arm_convolve_HWC_q7_basic_nonsquare.c ****             {
 552              		.loc 1 172 19
 553 03a0 B7F88230 		ldrh	r3, [r7, #130]
 554 03a4 002B     		cmp	r3, #0
 555 03a6 DDD1     		bne	.L26
 556              	.LBB41:
 178:./Libraries/CMSIS/NN/Source/ConvolutionFunctions/arm_convolve_HWC_q7_basic_nonsquare.c ****             }
 179:./Libraries/CMSIS/NN/Source/ConvolutionFunctions/arm_convolve_HWC_q7_basic_nonsquare.c ****             *pOut++ = (q7_t) __SSAT((sum >> out_shift), 8);
 557              		.loc 1 179 30 discriminator 2
 558 03a8 B7F8D030 		ldrh	r3, [r7, #208]
 559 03ac D7F88420 		ldr	r2, [r7, #132]
 560 03b0 42FA03F3 		asr	r3, r2, r3
 561 03b4 FB67     		str	r3, [r7, #124]
 562 03b6 FB6F     		ldr	r3, [r7, #124]
 563              		.syntax unified
 564              	@ 179 "./Libraries/CMSIS/NN/Source/ConvolutionFunctions/arm_convolve_HWC_q7_basic_nonsquare.c" 1
 565 03b8 03F30703 		ssat r3, #8, r3
 566              	@ 0 "" 2
 567              		.thumb
 568              		.syntax unified
 569 03bc BB67     		str	r3, [r7, #120]
 570 03be B96F     		ldr	r1, [r7, #120]
 571              	.LBE41:
 572              		.loc 1 179 18 discriminator 2
 573 03c0 D7F89030 		ldr	r3, [r7, #144]
 574 03c4 5A1C     		adds	r2, r3, #1
 575 03c6 C7F89020 		str	r2, [r7, #144]
 576              		.loc 1 179 23 discriminator 2
 577 03ca 4AB2     		sxtb	r2, r1
 578              		.loc 1 179 21 discriminator 2
 579 03cc 1A70     		strb	r2, [r3]
 580              	.LBE26:
 146:./Libraries/CMSIS/NN/Source/ConvolutionFunctions/arm_convolve_HWC_q7_basic_nonsquare.c ****         {
 581              		.loc 1 146 37 discriminator 2
 582 03ce D7F88830 		ldr	r3, [r7, #136]
 583 03d2 0133     		adds	r3, r3, #1
 584 03d4 C7F88830 		str	r3, [r7, #136]
 585              	.L15:
 146:./Libraries/CMSIS/NN/Source/ConvolutionFunctions/arm_convolve_HWC_q7_basic_nonsquare.c ****         {
 586              		.loc 1 146 23 discriminator 1
 587 03d8 B7F8AC30 		ldrh	r3, [r7, #172]
 146:./Libraries/CMSIS/NN/Source/ConvolutionFunctions/arm_convolve_HWC_q7_basic_nonsquare.c ****         {
 588              		.loc 1 146 9 discriminator 1
 589 03dc D7F88820 		ldr	r2, [r7, #136]
ARM GAS  /tmp/ccsRY4dG.s 			page 52


 590 03e0 9A42     		cmp	r2, r3
 591 03e2 FFF60CAF 		blt	.L27
 592              	.L14:
 593              	.LBE25:
 180:./Libraries/CMSIS/NN/Source/ConvolutionFunctions/arm_convolve_HWC_q7_basic_nonsquare.c ****         }
 181:./Libraries/CMSIS/NN/Source/ConvolutionFunctions/arm_convolve_HWC_q7_basic_nonsquare.c ****     }
 182:./Libraries/CMSIS/NN/Source/ConvolutionFunctions/arm_convolve_HWC_q7_basic_nonsquare.c **** #else
 183:./Libraries/CMSIS/NN/Source/ConvolutionFunctions/arm_convolve_HWC_q7_basic_nonsquare.c ****     /* Run the following code as reference implementation for Cortex-M0 and Cortex-M3 */
 184:./Libraries/CMSIS/NN/Source/ConvolutionFunctions/arm_convolve_HWC_q7_basic_nonsquare.c **** 
 185:./Libraries/CMSIS/NN/Source/ConvolutionFunctions/arm_convolve_HWC_q7_basic_nonsquare.c ****     uint16_t  i, j, k, l, m, n;
 186:./Libraries/CMSIS/NN/Source/ConvolutionFunctions/arm_convolve_HWC_q7_basic_nonsquare.c ****     int       conv_out;
 187:./Libraries/CMSIS/NN/Source/ConvolutionFunctions/arm_convolve_HWC_q7_basic_nonsquare.c ****     signed char in_row, in_col;
 188:./Libraries/CMSIS/NN/Source/ConvolutionFunctions/arm_convolve_HWC_q7_basic_nonsquare.c **** 
 189:./Libraries/CMSIS/NN/Source/ConvolutionFunctions/arm_convolve_HWC_q7_basic_nonsquare.c ****     for (i = 0; i < ch_im_out; i++)
 190:./Libraries/CMSIS/NN/Source/ConvolutionFunctions/arm_convolve_HWC_q7_basic_nonsquare.c ****     {
 191:./Libraries/CMSIS/NN/Source/ConvolutionFunctions/arm_convolve_HWC_q7_basic_nonsquare.c ****         for (j = 0; j < dim_im_out_y; j++)
 192:./Libraries/CMSIS/NN/Source/ConvolutionFunctions/arm_convolve_HWC_q7_basic_nonsquare.c ****         {
 193:./Libraries/CMSIS/NN/Source/ConvolutionFunctions/arm_convolve_HWC_q7_basic_nonsquare.c ****             for (k = 0; k < dim_im_out_x; k++)
 194:./Libraries/CMSIS/NN/Source/ConvolutionFunctions/arm_convolve_HWC_q7_basic_nonsquare.c ****             {
 195:./Libraries/CMSIS/NN/Source/ConvolutionFunctions/arm_convolve_HWC_q7_basic_nonsquare.c ****                 conv_out = ((q31_t)bias[i] << bias_shift) + NN_ROUND(out_shift);
 196:./Libraries/CMSIS/NN/Source/ConvolutionFunctions/arm_convolve_HWC_q7_basic_nonsquare.c ****                 for (m = 0; m < dim_kernel_y; m++)
 197:./Libraries/CMSIS/NN/Source/ConvolutionFunctions/arm_convolve_HWC_q7_basic_nonsquare.c ****                 {
 198:./Libraries/CMSIS/NN/Source/ConvolutionFunctions/arm_convolve_HWC_q7_basic_nonsquare.c ****                     for (n = 0; n < dim_kernel_x; n++)
 199:./Libraries/CMSIS/NN/Source/ConvolutionFunctions/arm_convolve_HWC_q7_basic_nonsquare.c ****                     {
 200:./Libraries/CMSIS/NN/Source/ConvolutionFunctions/arm_convolve_HWC_q7_basic_nonsquare.c ****                         // if-for implementation
 201:./Libraries/CMSIS/NN/Source/ConvolutionFunctions/arm_convolve_HWC_q7_basic_nonsquare.c ****                         in_row = stride_y * j + m - padding_y;
 202:./Libraries/CMSIS/NN/Source/ConvolutionFunctions/arm_convolve_HWC_q7_basic_nonsquare.c ****                         in_col = stride_x * k + n - padding_x;
 203:./Libraries/CMSIS/NN/Source/ConvolutionFunctions/arm_convolve_HWC_q7_basic_nonsquare.c ****                         if (in_row >= 0 && in_col >= 0 && in_row < dim_im_in_y && in_col < dim_im_i
 204:./Libraries/CMSIS/NN/Source/ConvolutionFunctions/arm_convolve_HWC_q7_basic_nonsquare.c ****                         {
 205:./Libraries/CMSIS/NN/Source/ConvolutionFunctions/arm_convolve_HWC_q7_basic_nonsquare.c ****                             for (l = 0; l < ch_im_in; l++)
 206:./Libraries/CMSIS/NN/Source/ConvolutionFunctions/arm_convolve_HWC_q7_basic_nonsquare.c ****                             {
 207:./Libraries/CMSIS/NN/Source/ConvolutionFunctions/arm_convolve_HWC_q7_basic_nonsquare.c ****                                 conv_out +=
 208:./Libraries/CMSIS/NN/Source/ConvolutionFunctions/arm_convolve_HWC_q7_basic_nonsquare.c ****                                     Im_in[(in_row * dim_im_in_x + in_col) * ch_im_in + l] * 
 209:./Libraries/CMSIS/NN/Source/ConvolutionFunctions/arm_convolve_HWC_q7_basic_nonsquare.c ****                                          wt[i * ch_im_in * dim_kernel_y * dim_kernel_x + 
 210:./Libraries/CMSIS/NN/Source/ConvolutionFunctions/arm_convolve_HWC_q7_basic_nonsquare.c ****                                          (m * dim_kernel_x + n) * ch_im_in + l];
 211:./Libraries/CMSIS/NN/Source/ConvolutionFunctions/arm_convolve_HWC_q7_basic_nonsquare.c ****                             }
 212:./Libraries/CMSIS/NN/Source/ConvolutionFunctions/arm_convolve_HWC_q7_basic_nonsquare.c ****                         }
 213:./Libraries/CMSIS/NN/Source/ConvolutionFunctions/arm_convolve_HWC_q7_basic_nonsquare.c ****                     }
 214:./Libraries/CMSIS/NN/Source/ConvolutionFunctions/arm_convolve_HWC_q7_basic_nonsquare.c ****                 }
 215:./Libraries/CMSIS/NN/Source/ConvolutionFunctions/arm_convolve_HWC_q7_basic_nonsquare.c ****                 Im_out[i + (j * dim_im_out_x + k) * ch_im_out] = (q7_t) __SSAT((conv_out >> out_shi
 216:./Libraries/CMSIS/NN/Source/ConvolutionFunctions/arm_convolve_HWC_q7_basic_nonsquare.c ****             }
 217:./Libraries/CMSIS/NN/Source/ConvolutionFunctions/arm_convolve_HWC_q7_basic_nonsquare.c ****         }
 218:./Libraries/CMSIS/NN/Source/ConvolutionFunctions/arm_convolve_HWC_q7_basic_nonsquare.c ****     }
 219:./Libraries/CMSIS/NN/Source/ConvolutionFunctions/arm_convolve_HWC_q7_basic_nonsquare.c **** 
 220:./Libraries/CMSIS/NN/Source/ConvolutionFunctions/arm_convolve_HWC_q7_basic_nonsquare.c **** #endif                          /* ARM_MATH_DSP */
 221:./Libraries/CMSIS/NN/Source/ConvolutionFunctions/arm_convolve_HWC_q7_basic_nonsquare.c **** 
 222:./Libraries/CMSIS/NN/Source/ConvolutionFunctions/arm_convolve_HWC_q7_basic_nonsquare.c ****     /* Return to application */
 223:./Libraries/CMSIS/NN/Source/ConvolutionFunctions/arm_convolve_HWC_q7_basic_nonsquare.c ****     return ARM_MATH_SUCCESS;
 594              		.loc 1 223 12
 595 03e6 0023     		movs	r3, #0
 224:./Libraries/CMSIS/NN/Source/ConvolutionFunctions/arm_convolve_HWC_q7_basic_nonsquare.c **** }
 596              		.loc 1 224 1
 597 03e8 1846     		mov	r0, r3
 598 03ea A037     		adds	r7, r7, #160
 599              	.LCFI3:
 600              		.cfi_def_cfa_offset 8
 601 03ec BD46     		mov	sp, r7
ARM GAS  /tmp/ccsRY4dG.s 			page 53


 602              	.LCFI4:
 603              		.cfi_def_cfa_register 13
 604              		@ sp needed
 605 03ee 80BD     		pop	{r7, pc}
 606              	.L30:
 607              		.align	2
 608              	.L29:
 609 03f0 0000FFFF 		.word	-65536
 610              		.cfi_endproc
 611              	.LFE149:
 613              		.text
 614              	.Letext0:
 615              		.file 4 "/usr/lib/gcc/arm-none-eabi/9.2.1/include/stdint.h"
 616              		.file 5 "/usr/lib/gcc/arm-none-eabi/9.2.1/include/stddef.h"
 617              		.file 6 "/usr/include/newlib/sys/_types.h"
 618              		.file 7 "/usr/include/newlib/sys/reent.h"
 619              		.file 8 "/usr/include/newlib/sys/lock.h"
 620              		.file 9 "/usr/include/newlib/math.h"
 621              		.file 10 "./Libraries/CMSIS/DSP/Include/arm_math.h"
 622              		.file 11 "./Libraries/CMSIS/DSP/Include/arm_common_tables.h"
 623              		.file 12 "./Libraries/CMSIS/NN/Include/arm_nn_tables.h"
ARM GAS  /tmp/ccsRY4dG.s 			page 54

