ARM GAS  /tmp/ccuZWt4p.s 			page 1


   1              		.cpu cortex-m7
   2              		.eabi_attribute 28, 1
   3              		.eabi_attribute 20, 1
   4              		.eabi_attribute 21, 1
   5              		.eabi_attribute 23, 3
   6              		.eabi_attribute 24, 1
   7              		.eabi_attribute 25, 1
   8              		.eabi_attribute 26, 1
   9              		.eabi_attribute 30, 6
  10              		.eabi_attribute 34, 1
  11              		.eabi_attribute 18, 4
  12              		.file	"arm_biquad_cascade_df2T_f64.c"
  13              		.text
  14              	.Ltext0:
  15              		.cfi_sections	.debug_frame
  16              		.section	.text.arm_biquad_cascade_df2T_f64,"ax",%progbits
  17              		.align	1
  18              		.global	arm_biquad_cascade_df2T_f64
  19              		.arch armv7e-m
  20              		.syntax unified
  21              		.thumb
  22              		.thumb_func
  23              		.fpu fpv5-d16
  25              	arm_biquad_cascade_df2T_f64:
  26              	.LFB145:
  27              		.file 1 "./Libraries/CMSIS/DSP/Source/FilteringFunctions/arm_biquad_cascade_df2T_f64.c"
   1:./Libraries/CMSIS/DSP/Source/FilteringFunctions/arm_biquad_cascade_df2T_f64.c **** /* ----------------------------------------------------------------------
   2:./Libraries/CMSIS/DSP/Source/FilteringFunctions/arm_biquad_cascade_df2T_f64.c ****  * Project:      CMSIS DSP Library
   3:./Libraries/CMSIS/DSP/Source/FilteringFunctions/arm_biquad_cascade_df2T_f64.c ****  * Title:        arm_biquad_cascade_df2T_f64.c
   4:./Libraries/CMSIS/DSP/Source/FilteringFunctions/arm_biquad_cascade_df2T_f64.c ****  * Description:  Processing function for floating-point transposed direct form II Biquad cascade fi
   5:./Libraries/CMSIS/DSP/Source/FilteringFunctions/arm_biquad_cascade_df2T_f64.c ****  *
   6:./Libraries/CMSIS/DSP/Source/FilteringFunctions/arm_biquad_cascade_df2T_f64.c ****  * $Date:        18. March 2019
   7:./Libraries/CMSIS/DSP/Source/FilteringFunctions/arm_biquad_cascade_df2T_f64.c ****  * $Revision:    V1.6.0
   8:./Libraries/CMSIS/DSP/Source/FilteringFunctions/arm_biquad_cascade_df2T_f64.c ****  *
   9:./Libraries/CMSIS/DSP/Source/FilteringFunctions/arm_biquad_cascade_df2T_f64.c ****  * Target Processor: Cortex-M cores
  10:./Libraries/CMSIS/DSP/Source/FilteringFunctions/arm_biquad_cascade_df2T_f64.c ****  * -------------------------------------------------------------------- */
  11:./Libraries/CMSIS/DSP/Source/FilteringFunctions/arm_biquad_cascade_df2T_f64.c **** /*
  12:./Libraries/CMSIS/DSP/Source/FilteringFunctions/arm_biquad_cascade_df2T_f64.c ****  * Copyright (C) 2010-2019 ARM Limited or its affiliates. All rights reserved.
  13:./Libraries/CMSIS/DSP/Source/FilteringFunctions/arm_biquad_cascade_df2T_f64.c ****  *
  14:./Libraries/CMSIS/DSP/Source/FilteringFunctions/arm_biquad_cascade_df2T_f64.c ****  * SPDX-License-Identifier: Apache-2.0
  15:./Libraries/CMSIS/DSP/Source/FilteringFunctions/arm_biquad_cascade_df2T_f64.c ****  *
  16:./Libraries/CMSIS/DSP/Source/FilteringFunctions/arm_biquad_cascade_df2T_f64.c ****  * Licensed under the Apache License, Version 2.0 (the License); you may
  17:./Libraries/CMSIS/DSP/Source/FilteringFunctions/arm_biquad_cascade_df2T_f64.c ****  * not use this file except in compliance with the License.
  18:./Libraries/CMSIS/DSP/Source/FilteringFunctions/arm_biquad_cascade_df2T_f64.c ****  * You may obtain a copy of the License at
  19:./Libraries/CMSIS/DSP/Source/FilteringFunctions/arm_biquad_cascade_df2T_f64.c ****  *
  20:./Libraries/CMSIS/DSP/Source/FilteringFunctions/arm_biquad_cascade_df2T_f64.c ****  * www.apache.org/licenses/LICENSE-2.0
  21:./Libraries/CMSIS/DSP/Source/FilteringFunctions/arm_biquad_cascade_df2T_f64.c ****  *
  22:./Libraries/CMSIS/DSP/Source/FilteringFunctions/arm_biquad_cascade_df2T_f64.c ****  * Unless required by applicable law or agreed to in writing, software
  23:./Libraries/CMSIS/DSP/Source/FilteringFunctions/arm_biquad_cascade_df2T_f64.c ****  * distributed under the License is distributed on an AS IS BASIS, WITHOUT
  24:./Libraries/CMSIS/DSP/Source/FilteringFunctions/arm_biquad_cascade_df2T_f64.c ****  * WARRANTIES OR CONDITIONS OF ANY KIND, either express or implied.
  25:./Libraries/CMSIS/DSP/Source/FilteringFunctions/arm_biquad_cascade_df2T_f64.c ****  * See the License for the specific language governing permissions and
  26:./Libraries/CMSIS/DSP/Source/FilteringFunctions/arm_biquad_cascade_df2T_f64.c ****  * limitations under the License.
  27:./Libraries/CMSIS/DSP/Source/FilteringFunctions/arm_biquad_cascade_df2T_f64.c ****  */
  28:./Libraries/CMSIS/DSP/Source/FilteringFunctions/arm_biquad_cascade_df2T_f64.c **** 
  29:./Libraries/CMSIS/DSP/Source/FilteringFunctions/arm_biquad_cascade_df2T_f64.c **** #include "arm_math.h"
  30:./Libraries/CMSIS/DSP/Source/FilteringFunctions/arm_biquad_cascade_df2T_f64.c **** 
  31:./Libraries/CMSIS/DSP/Source/FilteringFunctions/arm_biquad_cascade_df2T_f64.c **** /**
ARM GAS  /tmp/ccuZWt4p.s 			page 2


  32:./Libraries/CMSIS/DSP/Source/FilteringFunctions/arm_biquad_cascade_df2T_f64.c ****   @ingroup groupFilters
  33:./Libraries/CMSIS/DSP/Source/FilteringFunctions/arm_biquad_cascade_df2T_f64.c **** */
  34:./Libraries/CMSIS/DSP/Source/FilteringFunctions/arm_biquad_cascade_df2T_f64.c **** 
  35:./Libraries/CMSIS/DSP/Source/FilteringFunctions/arm_biquad_cascade_df2T_f64.c **** /**
  36:./Libraries/CMSIS/DSP/Source/FilteringFunctions/arm_biquad_cascade_df2T_f64.c ****   @defgroup BiquadCascadeDF2T Biquad Cascade IIR Filters Using a Direct Form II Transposed Structur
  37:./Libraries/CMSIS/DSP/Source/FilteringFunctions/arm_biquad_cascade_df2T_f64.c **** 
  38:./Libraries/CMSIS/DSP/Source/FilteringFunctions/arm_biquad_cascade_df2T_f64.c ****   This set of functions implements arbitrary order recursive (IIR) filters using a transposed direc
  39:./Libraries/CMSIS/DSP/Source/FilteringFunctions/arm_biquad_cascade_df2T_f64.c ****   The filters are implemented as a cascade of second order Biquad sections.
  40:./Libraries/CMSIS/DSP/Source/FilteringFunctions/arm_biquad_cascade_df2T_f64.c ****   These functions provide a slight memory savings as compared to the direct form I Biquad filter fu
  41:./Libraries/CMSIS/DSP/Source/FilteringFunctions/arm_biquad_cascade_df2T_f64.c ****   Only floating-point data is supported.
  42:./Libraries/CMSIS/DSP/Source/FilteringFunctions/arm_biquad_cascade_df2T_f64.c **** 
  43:./Libraries/CMSIS/DSP/Source/FilteringFunctions/arm_biquad_cascade_df2T_f64.c ****   This function operate on blocks of input and output data and each call to the function
  44:./Libraries/CMSIS/DSP/Source/FilteringFunctions/arm_biquad_cascade_df2T_f64.c ****   processes <code>blockSize</code> samples through the filter.
  45:./Libraries/CMSIS/DSP/Source/FilteringFunctions/arm_biquad_cascade_df2T_f64.c ****   <code>pSrc</code> points to the array of input data and
  46:./Libraries/CMSIS/DSP/Source/FilteringFunctions/arm_biquad_cascade_df2T_f64.c ****   <code>pDst</code> points to the array of output data.
  47:./Libraries/CMSIS/DSP/Source/FilteringFunctions/arm_biquad_cascade_df2T_f64.c ****   Both arrays contain <code>blockSize</code> values.
  48:./Libraries/CMSIS/DSP/Source/FilteringFunctions/arm_biquad_cascade_df2T_f64.c **** 
  49:./Libraries/CMSIS/DSP/Source/FilteringFunctions/arm_biquad_cascade_df2T_f64.c ****   @par           Algorithm
  50:./Libraries/CMSIS/DSP/Source/FilteringFunctions/arm_biquad_cascade_df2T_f64.c ****                    Each Biquad stage implements a second order filter using the difference equation
  51:./Libraries/CMSIS/DSP/Source/FilteringFunctions/arm_biquad_cascade_df2T_f64.c ****   <pre>
  52:./Libraries/CMSIS/DSP/Source/FilteringFunctions/arm_biquad_cascade_df2T_f64.c ****      y[n] = b0 * x[n] + d1
  53:./Libraries/CMSIS/DSP/Source/FilteringFunctions/arm_biquad_cascade_df2T_f64.c ****      d1 = b1 * x[n] + a1 * y[n] + d2
  54:./Libraries/CMSIS/DSP/Source/FilteringFunctions/arm_biquad_cascade_df2T_f64.c ****      d2 = b2 * x[n] + a2 * y[n]
  55:./Libraries/CMSIS/DSP/Source/FilteringFunctions/arm_biquad_cascade_df2T_f64.c ****   </pre>
  56:./Libraries/CMSIS/DSP/Source/FilteringFunctions/arm_biquad_cascade_df2T_f64.c ****                    where d1 and d2 represent the two state values.
  57:./Libraries/CMSIS/DSP/Source/FilteringFunctions/arm_biquad_cascade_df2T_f64.c ****   @par
  58:./Libraries/CMSIS/DSP/Source/FilteringFunctions/arm_biquad_cascade_df2T_f64.c ****                    A Biquad filter using a transposed Direct Form II structure is shown below.
  59:./Libraries/CMSIS/DSP/Source/FilteringFunctions/arm_biquad_cascade_df2T_f64.c ****                    \image html BiquadDF2Transposed.gif "Single transposed Direct Form II Biquad"
  60:./Libraries/CMSIS/DSP/Source/FilteringFunctions/arm_biquad_cascade_df2T_f64.c ****                    Coefficients <code>b0, b1, and b2 </code> multiply the input signal <code>x[n]</
  61:./Libraries/CMSIS/DSP/Source/FilteringFunctions/arm_biquad_cascade_df2T_f64.c ****                    Coefficients <code>a1</code> and <code>a2</code> multiply the output signal <cod
  62:./Libraries/CMSIS/DSP/Source/FilteringFunctions/arm_biquad_cascade_df2T_f64.c ****                    Pay careful attention to the sign of the feedback coefficients.
  63:./Libraries/CMSIS/DSP/Source/FilteringFunctions/arm_biquad_cascade_df2T_f64.c ****                    Some design tools flip the sign of the feedback coefficients:
  64:./Libraries/CMSIS/DSP/Source/FilteringFunctions/arm_biquad_cascade_df2T_f64.c ****   <pre>
  65:./Libraries/CMSIS/DSP/Source/FilteringFunctions/arm_biquad_cascade_df2T_f64.c ****      y[n] = b0 * x[n] + d1;
  66:./Libraries/CMSIS/DSP/Source/FilteringFunctions/arm_biquad_cascade_df2T_f64.c ****      d1 = b1 * x[n] - a1 * y[n] + d2;
  67:./Libraries/CMSIS/DSP/Source/FilteringFunctions/arm_biquad_cascade_df2T_f64.c ****      d2 = b2 * x[n] - a2 * y[n];
  68:./Libraries/CMSIS/DSP/Source/FilteringFunctions/arm_biquad_cascade_df2T_f64.c ****   </pre>
  69:./Libraries/CMSIS/DSP/Source/FilteringFunctions/arm_biquad_cascade_df2T_f64.c ****                    In this case the feedback coefficients <code>a1</code> and <code>a2</code> must 
  70:./Libraries/CMSIS/DSP/Source/FilteringFunctions/arm_biquad_cascade_df2T_f64.c ****   @par
  71:./Libraries/CMSIS/DSP/Source/FilteringFunctions/arm_biquad_cascade_df2T_f64.c ****                    Higher order filters are realized as a cascade of second order sections.
  72:./Libraries/CMSIS/DSP/Source/FilteringFunctions/arm_biquad_cascade_df2T_f64.c ****                    <code>numStages</code> refers to the number of second order stages used.
  73:./Libraries/CMSIS/DSP/Source/FilteringFunctions/arm_biquad_cascade_df2T_f64.c ****                    For example, an 8th order filter would be realized with <code>numStages=4</code>
  74:./Libraries/CMSIS/DSP/Source/FilteringFunctions/arm_biquad_cascade_df2T_f64.c ****                    A 9th order filter would be realized with <code>numStages=5</code> second order 
  75:./Libraries/CMSIS/DSP/Source/FilteringFunctions/arm_biquad_cascade_df2T_f64.c ****                    coefficients for one of the stages configured as a first order filter (<code>b2=
  76:./Libraries/CMSIS/DSP/Source/FilteringFunctions/arm_biquad_cascade_df2T_f64.c ****   @par
  77:./Libraries/CMSIS/DSP/Source/FilteringFunctions/arm_biquad_cascade_df2T_f64.c ****                    <code>pState</code> points to the state variable array.
  78:./Libraries/CMSIS/DSP/Source/FilteringFunctions/arm_biquad_cascade_df2T_f64.c ****                    Each Biquad stage has 2 state variables <code>d1</code> and <code>d2</code>.
  79:./Libraries/CMSIS/DSP/Source/FilteringFunctions/arm_biquad_cascade_df2T_f64.c ****                    The state variables are arranged in the <code>pState</code> array as:
  80:./Libraries/CMSIS/DSP/Source/FilteringFunctions/arm_biquad_cascade_df2T_f64.c ****   <pre>
  81:./Libraries/CMSIS/DSP/Source/FilteringFunctions/arm_biquad_cascade_df2T_f64.c ****       {d11, d12, d21, d22, ...}
  82:./Libraries/CMSIS/DSP/Source/FilteringFunctions/arm_biquad_cascade_df2T_f64.c ****   </pre>
  83:./Libraries/CMSIS/DSP/Source/FilteringFunctions/arm_biquad_cascade_df2T_f64.c ****                    where <code>d1x</code> refers to the state variables for the first Biquad and
  84:./Libraries/CMSIS/DSP/Source/FilteringFunctions/arm_biquad_cascade_df2T_f64.c ****                    <code>d2x</code> refers to the state variables for the second Biquad.
  85:./Libraries/CMSIS/DSP/Source/FilteringFunctions/arm_biquad_cascade_df2T_f64.c ****                    The state array has a total length of <code>2*numStages</code> values.
  86:./Libraries/CMSIS/DSP/Source/FilteringFunctions/arm_biquad_cascade_df2T_f64.c ****                    The state variables are updated after each block of data is processed; the coeff
  87:./Libraries/CMSIS/DSP/Source/FilteringFunctions/arm_biquad_cascade_df2T_f64.c ****   @par
  88:./Libraries/CMSIS/DSP/Source/FilteringFunctions/arm_biquad_cascade_df2T_f64.c ****                    The CMSIS library contains Biquad filters in both Direct Form I and transposed D
ARM GAS  /tmp/ccuZWt4p.s 			page 3


  89:./Libraries/CMSIS/DSP/Source/FilteringFunctions/arm_biquad_cascade_df2T_f64.c ****                    The advantage of the Direct Form I structure is that it is numerically more robu
  90:./Libraries/CMSIS/DSP/Source/FilteringFunctions/arm_biquad_cascade_df2T_f64.c ****                    That is why the Direct Form I structure supports Q15 and Q31 data types.
  91:./Libraries/CMSIS/DSP/Source/FilteringFunctions/arm_biquad_cascade_df2T_f64.c ****                    The transposed Direct Form II structure, on the other hand, requires a wide dyna
  92:./Libraries/CMSIS/DSP/Source/FilteringFunctions/arm_biquad_cascade_df2T_f64.c ****                    Because of this, the CMSIS library only has a floating-point version of the Dire
  93:./Libraries/CMSIS/DSP/Source/FilteringFunctions/arm_biquad_cascade_df2T_f64.c ****                    The advantage of the Direct Form II Biquad is that it requires half the number o
  94:./Libraries/CMSIS/DSP/Source/FilteringFunctions/arm_biquad_cascade_df2T_f64.c **** 
  95:./Libraries/CMSIS/DSP/Source/FilteringFunctions/arm_biquad_cascade_df2T_f64.c ****   @par           Instance Structure
  96:./Libraries/CMSIS/DSP/Source/FilteringFunctions/arm_biquad_cascade_df2T_f64.c ****                    The coefficients and state variables for a filter are stored together in an inst
  97:./Libraries/CMSIS/DSP/Source/FilteringFunctions/arm_biquad_cascade_df2T_f64.c ****                    A separate instance structure must be defined for each filter.
  98:./Libraries/CMSIS/DSP/Source/FilteringFunctions/arm_biquad_cascade_df2T_f64.c ****                    Coefficient arrays may be shared among several instances while state variable ar
  99:./Libraries/CMSIS/DSP/Source/FilteringFunctions/arm_biquad_cascade_df2T_f64.c **** 
 100:./Libraries/CMSIS/DSP/Source/FilteringFunctions/arm_biquad_cascade_df2T_f64.c ****   @par           Init Functions
 101:./Libraries/CMSIS/DSP/Source/FilteringFunctions/arm_biquad_cascade_df2T_f64.c ****                    There is also an associated initialization function.
 102:./Libraries/CMSIS/DSP/Source/FilteringFunctions/arm_biquad_cascade_df2T_f64.c ****                    The initialization function performs following operations:
 103:./Libraries/CMSIS/DSP/Source/FilteringFunctions/arm_biquad_cascade_df2T_f64.c ****                    - Sets the values of the internal structure fields.
 104:./Libraries/CMSIS/DSP/Source/FilteringFunctions/arm_biquad_cascade_df2T_f64.c ****                    - Zeros out the values in the state buffer.
 105:./Libraries/CMSIS/DSP/Source/FilteringFunctions/arm_biquad_cascade_df2T_f64.c ****                    To do this manually without calling the init function, assign the follow subfiel
 106:./Libraries/CMSIS/DSP/Source/FilteringFunctions/arm_biquad_cascade_df2T_f64.c ****                    numStages, pCoeffs, pState. Also set all of the values in pState to zero.
 107:./Libraries/CMSIS/DSP/Source/FilteringFunctions/arm_biquad_cascade_df2T_f64.c ****   @par
 108:./Libraries/CMSIS/DSP/Source/FilteringFunctions/arm_biquad_cascade_df2T_f64.c ****                    Use of the initialization function is optional.
 109:./Libraries/CMSIS/DSP/Source/FilteringFunctions/arm_biquad_cascade_df2T_f64.c ****                    However, if the initialization function is used, then the instance structure can
 110:./Libraries/CMSIS/DSP/Source/FilteringFunctions/arm_biquad_cascade_df2T_f64.c ****                    To place an instance structure into a const data section, the instance structure
 111:./Libraries/CMSIS/DSP/Source/FilteringFunctions/arm_biquad_cascade_df2T_f64.c ****                    Set the values in the state buffer to zeros before static initialization.
 112:./Libraries/CMSIS/DSP/Source/FilteringFunctions/arm_biquad_cascade_df2T_f64.c ****                    For example, to statically initialize the instance structure use
 113:./Libraries/CMSIS/DSP/Source/FilteringFunctions/arm_biquad_cascade_df2T_f64.c ****   <pre>
 114:./Libraries/CMSIS/DSP/Source/FilteringFunctions/arm_biquad_cascade_df2T_f64.c ****       arm_biquad_cascade_df2T_instance_f64 S1 = {numStages, pState, pCoeffs};
 115:./Libraries/CMSIS/DSP/Source/FilteringFunctions/arm_biquad_cascade_df2T_f64.c ****       arm_biquad_cascade_df2T_instance_f32 S1 = {numStages, pState, pCoeffs};
 116:./Libraries/CMSIS/DSP/Source/FilteringFunctions/arm_biquad_cascade_df2T_f64.c ****   </pre>
 117:./Libraries/CMSIS/DSP/Source/FilteringFunctions/arm_biquad_cascade_df2T_f64.c ****                    where <code>numStages</code> is the number of Biquad stages in the filter;
 118:./Libraries/CMSIS/DSP/Source/FilteringFunctions/arm_biquad_cascade_df2T_f64.c ****                    <code>pState</code> is the address of the state buffer.
 119:./Libraries/CMSIS/DSP/Source/FilteringFunctions/arm_biquad_cascade_df2T_f64.c ****                    <code>pCoeffs</code> is the address of the coefficient buffer;
 120:./Libraries/CMSIS/DSP/Source/FilteringFunctions/arm_biquad_cascade_df2T_f64.c **** */
 121:./Libraries/CMSIS/DSP/Source/FilteringFunctions/arm_biquad_cascade_df2T_f64.c **** 
 122:./Libraries/CMSIS/DSP/Source/FilteringFunctions/arm_biquad_cascade_df2T_f64.c **** /**
 123:./Libraries/CMSIS/DSP/Source/FilteringFunctions/arm_biquad_cascade_df2T_f64.c ****   @addtogroup BiquadCascadeDF2T
 124:./Libraries/CMSIS/DSP/Source/FilteringFunctions/arm_biquad_cascade_df2T_f64.c ****   @{
 125:./Libraries/CMSIS/DSP/Source/FilteringFunctions/arm_biquad_cascade_df2T_f64.c ****  */
 126:./Libraries/CMSIS/DSP/Source/FilteringFunctions/arm_biquad_cascade_df2T_f64.c **** 
 127:./Libraries/CMSIS/DSP/Source/FilteringFunctions/arm_biquad_cascade_df2T_f64.c **** /**
 128:./Libraries/CMSIS/DSP/Source/FilteringFunctions/arm_biquad_cascade_df2T_f64.c ****   @brief         Processing function for the floating-point transposed direct form II Biquad cascad
 129:./Libraries/CMSIS/DSP/Source/FilteringFunctions/arm_biquad_cascade_df2T_f64.c ****   @param[in]     S         points to an instance of the filter data structure
 130:./Libraries/CMSIS/DSP/Source/FilteringFunctions/arm_biquad_cascade_df2T_f64.c ****   @param[in]     pSrc      points to the block of input data
 131:./Libraries/CMSIS/DSP/Source/FilteringFunctions/arm_biquad_cascade_df2T_f64.c ****   @param[out]    pDst      points to the block of output data
 132:./Libraries/CMSIS/DSP/Source/FilteringFunctions/arm_biquad_cascade_df2T_f64.c ****   @param[in]     blockSize number of samples to process
 133:./Libraries/CMSIS/DSP/Source/FilteringFunctions/arm_biquad_cascade_df2T_f64.c ****   @return        none
 134:./Libraries/CMSIS/DSP/Source/FilteringFunctions/arm_biquad_cascade_df2T_f64.c ****  */
 135:./Libraries/CMSIS/DSP/Source/FilteringFunctions/arm_biquad_cascade_df2T_f64.c **** 
 136:./Libraries/CMSIS/DSP/Source/FilteringFunctions/arm_biquad_cascade_df2T_f64.c **** LOW_OPTIMIZATION_ENTER
 137:./Libraries/CMSIS/DSP/Source/FilteringFunctions/arm_biquad_cascade_df2T_f64.c **** void arm_biquad_cascade_df2T_f64(
 138:./Libraries/CMSIS/DSP/Source/FilteringFunctions/arm_biquad_cascade_df2T_f64.c ****   const arm_biquad_cascade_df2T_instance_f64 * S,
 139:./Libraries/CMSIS/DSP/Source/FilteringFunctions/arm_biquad_cascade_df2T_f64.c ****         float64_t * pSrc,
 140:./Libraries/CMSIS/DSP/Source/FilteringFunctions/arm_biquad_cascade_df2T_f64.c ****         float64_t * pDst,
 141:./Libraries/CMSIS/DSP/Source/FilteringFunctions/arm_biquad_cascade_df2T_f64.c ****         uint32_t blockSize)
 142:./Libraries/CMSIS/DSP/Source/FilteringFunctions/arm_biquad_cascade_df2T_f64.c **** {
  28              		.loc 1 142 1
  29              		.cfi_startproc
  30              		@ args = 0, pretend = 0, frame = 0
ARM GAS  /tmp/ccuZWt4p.s 			page 4


  31              		@ frame_needed = 0, uses_anonymous_args = 0
  32              		@ link register save eliminated.
  33 0000 F0B4     		push	{r4, r5, r6, r7}
  34              	.LCFI0:
  35              		.cfi_def_cfa_offset 16
  36              		.cfi_offset 4, -16
  37              		.cfi_offset 5, -12
  38              		.cfi_offset 6, -8
  39              		.cfi_offset 7, -4
  40 0002 2DED028B 		vpush.64	{d8}
  41              	.LCFI1:
  42              		.cfi_def_cfa_offset 24
  43              		.cfi_offset 80, -24
  44              		.cfi_offset 81, -20
 143:./Libraries/CMSIS/DSP/Source/FilteringFunctions/arm_biquad_cascade_df2T_f64.c **** 
 144:./Libraries/CMSIS/DSP/Source/FilteringFunctions/arm_biquad_cascade_df2T_f64.c ****         float64_t *pIn = pSrc;                         /* Source pointer */
 145:./Libraries/CMSIS/DSP/Source/FilteringFunctions/arm_biquad_cascade_df2T_f64.c ****         float64_t *pOut = pDst;                        /* Destination pointer */
 146:./Libraries/CMSIS/DSP/Source/FilteringFunctions/arm_biquad_cascade_df2T_f64.c ****         float64_t *pState = S->pState;                 /* State pointer */
 147:./Libraries/CMSIS/DSP/Source/FilteringFunctions/arm_biquad_cascade_df2T_f64.c ****         float64_t *pCoeffs = S->pCoeffs;               /* Coefficient pointer */
 148:./Libraries/CMSIS/DSP/Source/FilteringFunctions/arm_biquad_cascade_df2T_f64.c ****         float64_t acc1;                                /* Accumulator */
 149:./Libraries/CMSIS/DSP/Source/FilteringFunctions/arm_biquad_cascade_df2T_f64.c ****         float64_t b0, b1, b2, a1, a2;                  /* Filter coefficients */
 150:./Libraries/CMSIS/DSP/Source/FilteringFunctions/arm_biquad_cascade_df2T_f64.c ****         float64_t Xn1;                                 /* Temporary input */
 151:./Libraries/CMSIS/DSP/Source/FilteringFunctions/arm_biquad_cascade_df2T_f64.c ****         float64_t d1, d2;                              /* State variables */
 152:./Libraries/CMSIS/DSP/Source/FilteringFunctions/arm_biquad_cascade_df2T_f64.c ****         uint32_t sample, stage = S->numStages;         /* Loop counters */
  45              		.loc 1 152 26
  46 0006 0778     		ldrb	r7, [r0]	@ zero_extendqisi2
  47 0008 8568     		ldr	r5, [r0, #8]
  48 000a 2835     		adds	r5, r5, #40
  49 000c 4668     		ldr	r6, [r0, #4]
  50 000e 1036     		adds	r6, r6, #16
  51 0010 08E0     		b	.L4
  52              	.L2:
 153:./Libraries/CMSIS/DSP/Source/FilteringFunctions/arm_biquad_cascade_df2T_f64.c **** 
 154:./Libraries/CMSIS/DSP/Source/FilteringFunctions/arm_biquad_cascade_df2T_f64.c **** 
 155:./Libraries/CMSIS/DSP/Source/FilteringFunctions/arm_biquad_cascade_df2T_f64.c ****    do
 156:./Libraries/CMSIS/DSP/Source/FilteringFunctions/arm_biquad_cascade_df2T_f64.c ****    {
 157:./Libraries/CMSIS/DSP/Source/FilteringFunctions/arm_biquad_cascade_df2T_f64.c ****       /* Reading the coefficients */
 158:./Libraries/CMSIS/DSP/Source/FilteringFunctions/arm_biquad_cascade_df2T_f64.c ****       b0 = pCoeffs[0];
 159:./Libraries/CMSIS/DSP/Source/FilteringFunctions/arm_biquad_cascade_df2T_f64.c ****       b1 = pCoeffs[1];
 160:./Libraries/CMSIS/DSP/Source/FilteringFunctions/arm_biquad_cascade_df2T_f64.c ****       b2 = pCoeffs[2];
 161:./Libraries/CMSIS/DSP/Source/FilteringFunctions/arm_biquad_cascade_df2T_f64.c ****       a1 = pCoeffs[3];
 162:./Libraries/CMSIS/DSP/Source/FilteringFunctions/arm_biquad_cascade_df2T_f64.c ****       a2 = pCoeffs[4];
 163:./Libraries/CMSIS/DSP/Source/FilteringFunctions/arm_biquad_cascade_df2T_f64.c **** 
 164:./Libraries/CMSIS/DSP/Source/FilteringFunctions/arm_biquad_cascade_df2T_f64.c ****       /* Reading the state values */
 165:./Libraries/CMSIS/DSP/Source/FilteringFunctions/arm_biquad_cascade_df2T_f64.c ****       d1 = pState[0];
 166:./Libraries/CMSIS/DSP/Source/FilteringFunctions/arm_biquad_cascade_df2T_f64.c ****       d2 = pState[1];
 167:./Libraries/CMSIS/DSP/Source/FilteringFunctions/arm_biquad_cascade_df2T_f64.c **** 
 168:./Libraries/CMSIS/DSP/Source/FilteringFunctions/arm_biquad_cascade_df2T_f64.c ****       pCoeffs += 5U;
 169:./Libraries/CMSIS/DSP/Source/FilteringFunctions/arm_biquad_cascade_df2T_f64.c **** 
 170:./Libraries/CMSIS/DSP/Source/FilteringFunctions/arm_biquad_cascade_df2T_f64.c **** #if defined (ARM_MATH_LOOPUNROLL)
 171:./Libraries/CMSIS/DSP/Source/FilteringFunctions/arm_biquad_cascade_df2T_f64.c **** 
 172:./Libraries/CMSIS/DSP/Source/FilteringFunctions/arm_biquad_cascade_df2T_f64.c ****     /* Loop unrolling: Compute 16 outputs at a time */
 173:./Libraries/CMSIS/DSP/Source/FilteringFunctions/arm_biquad_cascade_df2T_f64.c ****       sample = blockSize >> 4U;
 174:./Libraries/CMSIS/DSP/Source/FilteringFunctions/arm_biquad_cascade_df2T_f64.c **** 
 175:./Libraries/CMSIS/DSP/Source/FilteringFunctions/arm_biquad_cascade_df2T_f64.c ****       while (sample > 0U) {
 176:./Libraries/CMSIS/DSP/Source/FilteringFunctions/arm_biquad_cascade_df2T_f64.c **** 
 177:./Libraries/CMSIS/DSP/Source/FilteringFunctions/arm_biquad_cascade_df2T_f64.c ****          /* y[n] = b0 * x[n] + d1 */
ARM GAS  /tmp/ccuZWt4p.s 			page 5


 178:./Libraries/CMSIS/DSP/Source/FilteringFunctions/arm_biquad_cascade_df2T_f64.c ****          /* d1 = b1 * x[n] + a1 * y[n] + d2 */
 179:./Libraries/CMSIS/DSP/Source/FilteringFunctions/arm_biquad_cascade_df2T_f64.c ****          /* d2 = b2 * x[n] + a2 * y[n] */
 180:./Libraries/CMSIS/DSP/Source/FilteringFunctions/arm_biquad_cascade_df2T_f64.c **** 
 181:./Libraries/CMSIS/DSP/Source/FilteringFunctions/arm_biquad_cascade_df2T_f64.c **** /*  1 */
 182:./Libraries/CMSIS/DSP/Source/FilteringFunctions/arm_biquad_cascade_df2T_f64.c ****          Xn1 = *pIn++;
 183:./Libraries/CMSIS/DSP/Source/FilteringFunctions/arm_biquad_cascade_df2T_f64.c **** 
 184:./Libraries/CMSIS/DSP/Source/FilteringFunctions/arm_biquad_cascade_df2T_f64.c ****          acc1 = b0 * Xn1 + d1;
 185:./Libraries/CMSIS/DSP/Source/FilteringFunctions/arm_biquad_cascade_df2T_f64.c **** 
 186:./Libraries/CMSIS/DSP/Source/FilteringFunctions/arm_biquad_cascade_df2T_f64.c ****          d1 = b1 * Xn1 + d2;
 187:./Libraries/CMSIS/DSP/Source/FilteringFunctions/arm_biquad_cascade_df2T_f64.c ****          d1 += a1 * acc1;
 188:./Libraries/CMSIS/DSP/Source/FilteringFunctions/arm_biquad_cascade_df2T_f64.c **** 
 189:./Libraries/CMSIS/DSP/Source/FilteringFunctions/arm_biquad_cascade_df2T_f64.c ****          d2 = b2 * Xn1;
 190:./Libraries/CMSIS/DSP/Source/FilteringFunctions/arm_biquad_cascade_df2T_f64.c ****          d2 += a2 * acc1;
 191:./Libraries/CMSIS/DSP/Source/FilteringFunctions/arm_biquad_cascade_df2T_f64.c **** 
 192:./Libraries/CMSIS/DSP/Source/FilteringFunctions/arm_biquad_cascade_df2T_f64.c ****          *pOut++ = acc1;
 193:./Libraries/CMSIS/DSP/Source/FilteringFunctions/arm_biquad_cascade_df2T_f64.c **** 
 194:./Libraries/CMSIS/DSP/Source/FilteringFunctions/arm_biquad_cascade_df2T_f64.c **** 
 195:./Libraries/CMSIS/DSP/Source/FilteringFunctions/arm_biquad_cascade_df2T_f64.c **** /*  2 */
 196:./Libraries/CMSIS/DSP/Source/FilteringFunctions/arm_biquad_cascade_df2T_f64.c ****          Xn1 = *pIn++;
 197:./Libraries/CMSIS/DSP/Source/FilteringFunctions/arm_biquad_cascade_df2T_f64.c **** 
 198:./Libraries/CMSIS/DSP/Source/FilteringFunctions/arm_biquad_cascade_df2T_f64.c ****          acc1 = b0 * Xn1 + d1;
 199:./Libraries/CMSIS/DSP/Source/FilteringFunctions/arm_biquad_cascade_df2T_f64.c **** 
 200:./Libraries/CMSIS/DSP/Source/FilteringFunctions/arm_biquad_cascade_df2T_f64.c ****          d1 = b1 * Xn1 + d2;
 201:./Libraries/CMSIS/DSP/Source/FilteringFunctions/arm_biquad_cascade_df2T_f64.c ****          d1 += a1 * acc1;
 202:./Libraries/CMSIS/DSP/Source/FilteringFunctions/arm_biquad_cascade_df2T_f64.c **** 
 203:./Libraries/CMSIS/DSP/Source/FilteringFunctions/arm_biquad_cascade_df2T_f64.c ****          d2 = b2 * Xn1;
 204:./Libraries/CMSIS/DSP/Source/FilteringFunctions/arm_biquad_cascade_df2T_f64.c ****          d2 += a2 * acc1;
 205:./Libraries/CMSIS/DSP/Source/FilteringFunctions/arm_biquad_cascade_df2T_f64.c **** 
 206:./Libraries/CMSIS/DSP/Source/FilteringFunctions/arm_biquad_cascade_df2T_f64.c ****          *pOut++ = acc1;
 207:./Libraries/CMSIS/DSP/Source/FilteringFunctions/arm_biquad_cascade_df2T_f64.c **** 
 208:./Libraries/CMSIS/DSP/Source/FilteringFunctions/arm_biquad_cascade_df2T_f64.c **** /*  3 */
 209:./Libraries/CMSIS/DSP/Source/FilteringFunctions/arm_biquad_cascade_df2T_f64.c ****          Xn1 = *pIn++;
 210:./Libraries/CMSIS/DSP/Source/FilteringFunctions/arm_biquad_cascade_df2T_f64.c **** 
 211:./Libraries/CMSIS/DSP/Source/FilteringFunctions/arm_biquad_cascade_df2T_f64.c ****          acc1 = b0 * Xn1 + d1;
 212:./Libraries/CMSIS/DSP/Source/FilteringFunctions/arm_biquad_cascade_df2T_f64.c **** 
 213:./Libraries/CMSIS/DSP/Source/FilteringFunctions/arm_biquad_cascade_df2T_f64.c ****          d1 = b1 * Xn1 + d2;
 214:./Libraries/CMSIS/DSP/Source/FilteringFunctions/arm_biquad_cascade_df2T_f64.c ****          d1 += a1 * acc1;
 215:./Libraries/CMSIS/DSP/Source/FilteringFunctions/arm_biquad_cascade_df2T_f64.c **** 
 216:./Libraries/CMSIS/DSP/Source/FilteringFunctions/arm_biquad_cascade_df2T_f64.c ****          d2 = b2 * Xn1;
 217:./Libraries/CMSIS/DSP/Source/FilteringFunctions/arm_biquad_cascade_df2T_f64.c ****          d2 += a2 * acc1;
 218:./Libraries/CMSIS/DSP/Source/FilteringFunctions/arm_biquad_cascade_df2T_f64.c **** 
 219:./Libraries/CMSIS/DSP/Source/FilteringFunctions/arm_biquad_cascade_df2T_f64.c ****          *pOut++ = acc1;
 220:./Libraries/CMSIS/DSP/Source/FilteringFunctions/arm_biquad_cascade_df2T_f64.c **** 
 221:./Libraries/CMSIS/DSP/Source/FilteringFunctions/arm_biquad_cascade_df2T_f64.c **** /*  4 */
 222:./Libraries/CMSIS/DSP/Source/FilteringFunctions/arm_biquad_cascade_df2T_f64.c ****          Xn1 = *pIn++;
 223:./Libraries/CMSIS/DSP/Source/FilteringFunctions/arm_biquad_cascade_df2T_f64.c **** 
 224:./Libraries/CMSIS/DSP/Source/FilteringFunctions/arm_biquad_cascade_df2T_f64.c ****          acc1 = b0 * Xn1 + d1;
 225:./Libraries/CMSIS/DSP/Source/FilteringFunctions/arm_biquad_cascade_df2T_f64.c **** 
 226:./Libraries/CMSIS/DSP/Source/FilteringFunctions/arm_biquad_cascade_df2T_f64.c ****          d1 = b1 * Xn1 + d2;
 227:./Libraries/CMSIS/DSP/Source/FilteringFunctions/arm_biquad_cascade_df2T_f64.c ****          d1 += a1 * acc1;
 228:./Libraries/CMSIS/DSP/Source/FilteringFunctions/arm_biquad_cascade_df2T_f64.c **** 
 229:./Libraries/CMSIS/DSP/Source/FilteringFunctions/arm_biquad_cascade_df2T_f64.c ****          d2 = b2 * Xn1;
 230:./Libraries/CMSIS/DSP/Source/FilteringFunctions/arm_biquad_cascade_df2T_f64.c ****          d2 += a2 * acc1;
 231:./Libraries/CMSIS/DSP/Source/FilteringFunctions/arm_biquad_cascade_df2T_f64.c **** 
 232:./Libraries/CMSIS/DSP/Source/FilteringFunctions/arm_biquad_cascade_df2T_f64.c ****          *pOut++ = acc1;
 233:./Libraries/CMSIS/DSP/Source/FilteringFunctions/arm_biquad_cascade_df2T_f64.c **** 
 234:./Libraries/CMSIS/DSP/Source/FilteringFunctions/arm_biquad_cascade_df2T_f64.c **** /*  5 */
ARM GAS  /tmp/ccuZWt4p.s 			page 6


 235:./Libraries/CMSIS/DSP/Source/FilteringFunctions/arm_biquad_cascade_df2T_f64.c ****          Xn1 = *pIn++;
 236:./Libraries/CMSIS/DSP/Source/FilteringFunctions/arm_biquad_cascade_df2T_f64.c **** 
 237:./Libraries/CMSIS/DSP/Source/FilteringFunctions/arm_biquad_cascade_df2T_f64.c ****          acc1 = b0 * Xn1 + d1;
 238:./Libraries/CMSIS/DSP/Source/FilteringFunctions/arm_biquad_cascade_df2T_f64.c **** 
 239:./Libraries/CMSIS/DSP/Source/FilteringFunctions/arm_biquad_cascade_df2T_f64.c ****          d1 = b1 * Xn1 + d2;
 240:./Libraries/CMSIS/DSP/Source/FilteringFunctions/arm_biquad_cascade_df2T_f64.c ****          d1 += a1 * acc1;
 241:./Libraries/CMSIS/DSP/Source/FilteringFunctions/arm_biquad_cascade_df2T_f64.c **** 
 242:./Libraries/CMSIS/DSP/Source/FilteringFunctions/arm_biquad_cascade_df2T_f64.c ****          d2 = b2 * Xn1;
 243:./Libraries/CMSIS/DSP/Source/FilteringFunctions/arm_biquad_cascade_df2T_f64.c ****          d2 += a2 * acc1;
 244:./Libraries/CMSIS/DSP/Source/FilteringFunctions/arm_biquad_cascade_df2T_f64.c **** 
 245:./Libraries/CMSIS/DSP/Source/FilteringFunctions/arm_biquad_cascade_df2T_f64.c ****          *pOut++ = acc1;
 246:./Libraries/CMSIS/DSP/Source/FilteringFunctions/arm_biquad_cascade_df2T_f64.c **** 
 247:./Libraries/CMSIS/DSP/Source/FilteringFunctions/arm_biquad_cascade_df2T_f64.c **** /*  6 */
 248:./Libraries/CMSIS/DSP/Source/FilteringFunctions/arm_biquad_cascade_df2T_f64.c ****          Xn1 = *pIn++;
 249:./Libraries/CMSIS/DSP/Source/FilteringFunctions/arm_biquad_cascade_df2T_f64.c **** 
 250:./Libraries/CMSIS/DSP/Source/FilteringFunctions/arm_biquad_cascade_df2T_f64.c ****          acc1 = b0 * Xn1 + d1;
 251:./Libraries/CMSIS/DSP/Source/FilteringFunctions/arm_biquad_cascade_df2T_f64.c **** 
 252:./Libraries/CMSIS/DSP/Source/FilteringFunctions/arm_biquad_cascade_df2T_f64.c ****          d1 = b1 * Xn1 + d2;
 253:./Libraries/CMSIS/DSP/Source/FilteringFunctions/arm_biquad_cascade_df2T_f64.c ****          d1 += a1 * acc1;
 254:./Libraries/CMSIS/DSP/Source/FilteringFunctions/arm_biquad_cascade_df2T_f64.c **** 
 255:./Libraries/CMSIS/DSP/Source/FilteringFunctions/arm_biquad_cascade_df2T_f64.c ****          d2 = b2 * Xn1;
 256:./Libraries/CMSIS/DSP/Source/FilteringFunctions/arm_biquad_cascade_df2T_f64.c ****          d2 += a2 * acc1;
 257:./Libraries/CMSIS/DSP/Source/FilteringFunctions/arm_biquad_cascade_df2T_f64.c **** 
 258:./Libraries/CMSIS/DSP/Source/FilteringFunctions/arm_biquad_cascade_df2T_f64.c ****          *pOut++ = acc1;
 259:./Libraries/CMSIS/DSP/Source/FilteringFunctions/arm_biquad_cascade_df2T_f64.c **** 
 260:./Libraries/CMSIS/DSP/Source/FilteringFunctions/arm_biquad_cascade_df2T_f64.c **** /*  7 */
 261:./Libraries/CMSIS/DSP/Source/FilteringFunctions/arm_biquad_cascade_df2T_f64.c ****          Xn1 = *pIn++;
 262:./Libraries/CMSIS/DSP/Source/FilteringFunctions/arm_biquad_cascade_df2T_f64.c **** 
 263:./Libraries/CMSIS/DSP/Source/FilteringFunctions/arm_biquad_cascade_df2T_f64.c ****          acc1 = b0 * Xn1 + d1;
 264:./Libraries/CMSIS/DSP/Source/FilteringFunctions/arm_biquad_cascade_df2T_f64.c **** 
 265:./Libraries/CMSIS/DSP/Source/FilteringFunctions/arm_biquad_cascade_df2T_f64.c ****          d1 = b1 * Xn1 + d2;
 266:./Libraries/CMSIS/DSP/Source/FilteringFunctions/arm_biquad_cascade_df2T_f64.c ****          d1 += a1 * acc1;
 267:./Libraries/CMSIS/DSP/Source/FilteringFunctions/arm_biquad_cascade_df2T_f64.c **** 
 268:./Libraries/CMSIS/DSP/Source/FilteringFunctions/arm_biquad_cascade_df2T_f64.c ****          d2 = b2 * Xn1;
 269:./Libraries/CMSIS/DSP/Source/FilteringFunctions/arm_biquad_cascade_df2T_f64.c ****          d2 += a2 * acc1;
 270:./Libraries/CMSIS/DSP/Source/FilteringFunctions/arm_biquad_cascade_df2T_f64.c **** 
 271:./Libraries/CMSIS/DSP/Source/FilteringFunctions/arm_biquad_cascade_df2T_f64.c ****          *pOut++ = acc1;
 272:./Libraries/CMSIS/DSP/Source/FilteringFunctions/arm_biquad_cascade_df2T_f64.c **** 
 273:./Libraries/CMSIS/DSP/Source/FilteringFunctions/arm_biquad_cascade_df2T_f64.c **** /*  8 */
 274:./Libraries/CMSIS/DSP/Source/FilteringFunctions/arm_biquad_cascade_df2T_f64.c ****          Xn1 = *pIn++;
 275:./Libraries/CMSIS/DSP/Source/FilteringFunctions/arm_biquad_cascade_df2T_f64.c **** 
 276:./Libraries/CMSIS/DSP/Source/FilteringFunctions/arm_biquad_cascade_df2T_f64.c ****          acc1 = b0 * Xn1 + d1;
 277:./Libraries/CMSIS/DSP/Source/FilteringFunctions/arm_biquad_cascade_df2T_f64.c **** 
 278:./Libraries/CMSIS/DSP/Source/FilteringFunctions/arm_biquad_cascade_df2T_f64.c ****          d1 = b1 * Xn1 + d2;
 279:./Libraries/CMSIS/DSP/Source/FilteringFunctions/arm_biquad_cascade_df2T_f64.c ****          d1 += a1 * acc1;
 280:./Libraries/CMSIS/DSP/Source/FilteringFunctions/arm_biquad_cascade_df2T_f64.c **** 
 281:./Libraries/CMSIS/DSP/Source/FilteringFunctions/arm_biquad_cascade_df2T_f64.c ****          d2 = b2 * Xn1;
 282:./Libraries/CMSIS/DSP/Source/FilteringFunctions/arm_biquad_cascade_df2T_f64.c ****          d2 += a2 * acc1;
 283:./Libraries/CMSIS/DSP/Source/FilteringFunctions/arm_biquad_cascade_df2T_f64.c **** 
 284:./Libraries/CMSIS/DSP/Source/FilteringFunctions/arm_biquad_cascade_df2T_f64.c ****          *pOut++ = acc1;
 285:./Libraries/CMSIS/DSP/Source/FilteringFunctions/arm_biquad_cascade_df2T_f64.c **** 
 286:./Libraries/CMSIS/DSP/Source/FilteringFunctions/arm_biquad_cascade_df2T_f64.c **** /*  9 */
 287:./Libraries/CMSIS/DSP/Source/FilteringFunctions/arm_biquad_cascade_df2T_f64.c ****          Xn1 = *pIn++;
 288:./Libraries/CMSIS/DSP/Source/FilteringFunctions/arm_biquad_cascade_df2T_f64.c **** 
 289:./Libraries/CMSIS/DSP/Source/FilteringFunctions/arm_biquad_cascade_df2T_f64.c ****          acc1 = b0 * Xn1 + d1;
 290:./Libraries/CMSIS/DSP/Source/FilteringFunctions/arm_biquad_cascade_df2T_f64.c **** 
 291:./Libraries/CMSIS/DSP/Source/FilteringFunctions/arm_biquad_cascade_df2T_f64.c ****          d1 = b1 * Xn1 + d2;
ARM GAS  /tmp/ccuZWt4p.s 			page 7


 292:./Libraries/CMSIS/DSP/Source/FilteringFunctions/arm_biquad_cascade_df2T_f64.c ****          d1 += a1 * acc1;
 293:./Libraries/CMSIS/DSP/Source/FilteringFunctions/arm_biquad_cascade_df2T_f64.c **** 
 294:./Libraries/CMSIS/DSP/Source/FilteringFunctions/arm_biquad_cascade_df2T_f64.c ****          d2 = b2 * Xn1;
 295:./Libraries/CMSIS/DSP/Source/FilteringFunctions/arm_biquad_cascade_df2T_f64.c ****          d2 += a2 * acc1;
 296:./Libraries/CMSIS/DSP/Source/FilteringFunctions/arm_biquad_cascade_df2T_f64.c **** 
 297:./Libraries/CMSIS/DSP/Source/FilteringFunctions/arm_biquad_cascade_df2T_f64.c ****          *pOut++ = acc1;
 298:./Libraries/CMSIS/DSP/Source/FilteringFunctions/arm_biquad_cascade_df2T_f64.c **** 
 299:./Libraries/CMSIS/DSP/Source/FilteringFunctions/arm_biquad_cascade_df2T_f64.c **** /* 10 */
 300:./Libraries/CMSIS/DSP/Source/FilteringFunctions/arm_biquad_cascade_df2T_f64.c ****          Xn1 = *pIn++;
 301:./Libraries/CMSIS/DSP/Source/FilteringFunctions/arm_biquad_cascade_df2T_f64.c **** 
 302:./Libraries/CMSIS/DSP/Source/FilteringFunctions/arm_biquad_cascade_df2T_f64.c ****          acc1 = b0 * Xn1 + d1;
 303:./Libraries/CMSIS/DSP/Source/FilteringFunctions/arm_biquad_cascade_df2T_f64.c **** 
 304:./Libraries/CMSIS/DSP/Source/FilteringFunctions/arm_biquad_cascade_df2T_f64.c ****          d1 = b1 * Xn1 + d2;
 305:./Libraries/CMSIS/DSP/Source/FilteringFunctions/arm_biquad_cascade_df2T_f64.c ****          d1 += a1 * acc1;
 306:./Libraries/CMSIS/DSP/Source/FilteringFunctions/arm_biquad_cascade_df2T_f64.c **** 
 307:./Libraries/CMSIS/DSP/Source/FilteringFunctions/arm_biquad_cascade_df2T_f64.c ****          d2 = b2 * Xn1;
 308:./Libraries/CMSIS/DSP/Source/FilteringFunctions/arm_biquad_cascade_df2T_f64.c ****          d2 += a2 * acc1;
 309:./Libraries/CMSIS/DSP/Source/FilteringFunctions/arm_biquad_cascade_df2T_f64.c **** 
 310:./Libraries/CMSIS/DSP/Source/FilteringFunctions/arm_biquad_cascade_df2T_f64.c ****          *pOut++ = acc1;
 311:./Libraries/CMSIS/DSP/Source/FilteringFunctions/arm_biquad_cascade_df2T_f64.c **** 
 312:./Libraries/CMSIS/DSP/Source/FilteringFunctions/arm_biquad_cascade_df2T_f64.c **** /* 11 */
 313:./Libraries/CMSIS/DSP/Source/FilteringFunctions/arm_biquad_cascade_df2T_f64.c ****          Xn1 = *pIn++;
 314:./Libraries/CMSIS/DSP/Source/FilteringFunctions/arm_biquad_cascade_df2T_f64.c **** 
 315:./Libraries/CMSIS/DSP/Source/FilteringFunctions/arm_biquad_cascade_df2T_f64.c ****          acc1 = b0 * Xn1 + d1;
 316:./Libraries/CMSIS/DSP/Source/FilteringFunctions/arm_biquad_cascade_df2T_f64.c **** 
 317:./Libraries/CMSIS/DSP/Source/FilteringFunctions/arm_biquad_cascade_df2T_f64.c ****          d1 = b1 * Xn1 + d2;
 318:./Libraries/CMSIS/DSP/Source/FilteringFunctions/arm_biquad_cascade_df2T_f64.c ****          d1 += a1 * acc1;
 319:./Libraries/CMSIS/DSP/Source/FilteringFunctions/arm_biquad_cascade_df2T_f64.c **** 
 320:./Libraries/CMSIS/DSP/Source/FilteringFunctions/arm_biquad_cascade_df2T_f64.c ****          d2 = b2 * Xn1;
 321:./Libraries/CMSIS/DSP/Source/FilteringFunctions/arm_biquad_cascade_df2T_f64.c ****          d2 += a2 * acc1;
 322:./Libraries/CMSIS/DSP/Source/FilteringFunctions/arm_biquad_cascade_df2T_f64.c **** 
 323:./Libraries/CMSIS/DSP/Source/FilteringFunctions/arm_biquad_cascade_df2T_f64.c ****          *pOut++ = acc1;
 324:./Libraries/CMSIS/DSP/Source/FilteringFunctions/arm_biquad_cascade_df2T_f64.c **** 
 325:./Libraries/CMSIS/DSP/Source/FilteringFunctions/arm_biquad_cascade_df2T_f64.c **** /* 12 */
 326:./Libraries/CMSIS/DSP/Source/FilteringFunctions/arm_biquad_cascade_df2T_f64.c ****          Xn1 = *pIn++;
 327:./Libraries/CMSIS/DSP/Source/FilteringFunctions/arm_biquad_cascade_df2T_f64.c **** 
 328:./Libraries/CMSIS/DSP/Source/FilteringFunctions/arm_biquad_cascade_df2T_f64.c ****          acc1 = b0 * Xn1 + d1;
 329:./Libraries/CMSIS/DSP/Source/FilteringFunctions/arm_biquad_cascade_df2T_f64.c **** 
 330:./Libraries/CMSIS/DSP/Source/FilteringFunctions/arm_biquad_cascade_df2T_f64.c ****          d1 = b1 * Xn1 + d2;
 331:./Libraries/CMSIS/DSP/Source/FilteringFunctions/arm_biquad_cascade_df2T_f64.c ****          d1 += a1 * acc1;
 332:./Libraries/CMSIS/DSP/Source/FilteringFunctions/arm_biquad_cascade_df2T_f64.c **** 
 333:./Libraries/CMSIS/DSP/Source/FilteringFunctions/arm_biquad_cascade_df2T_f64.c ****          d2 = b2 * Xn1;
 334:./Libraries/CMSIS/DSP/Source/FilteringFunctions/arm_biquad_cascade_df2T_f64.c ****          d2 += a2 * acc1;
 335:./Libraries/CMSIS/DSP/Source/FilteringFunctions/arm_biquad_cascade_df2T_f64.c **** 
 336:./Libraries/CMSIS/DSP/Source/FilteringFunctions/arm_biquad_cascade_df2T_f64.c ****          *pOut++ = acc1;
 337:./Libraries/CMSIS/DSP/Source/FilteringFunctions/arm_biquad_cascade_df2T_f64.c **** 
 338:./Libraries/CMSIS/DSP/Source/FilteringFunctions/arm_biquad_cascade_df2T_f64.c **** /* 13 */
 339:./Libraries/CMSIS/DSP/Source/FilteringFunctions/arm_biquad_cascade_df2T_f64.c ****          Xn1 = *pIn++;
 340:./Libraries/CMSIS/DSP/Source/FilteringFunctions/arm_biquad_cascade_df2T_f64.c **** 
 341:./Libraries/CMSIS/DSP/Source/FilteringFunctions/arm_biquad_cascade_df2T_f64.c ****          acc1 = b0 * Xn1 + d1;
 342:./Libraries/CMSIS/DSP/Source/FilteringFunctions/arm_biquad_cascade_df2T_f64.c **** 
 343:./Libraries/CMSIS/DSP/Source/FilteringFunctions/arm_biquad_cascade_df2T_f64.c ****          d1 = b1 * Xn1 + d2;
 344:./Libraries/CMSIS/DSP/Source/FilteringFunctions/arm_biquad_cascade_df2T_f64.c ****          d1 += a1 * acc1;
 345:./Libraries/CMSIS/DSP/Source/FilteringFunctions/arm_biquad_cascade_df2T_f64.c **** 
 346:./Libraries/CMSIS/DSP/Source/FilteringFunctions/arm_biquad_cascade_df2T_f64.c ****          d2 = b2 * Xn1;
 347:./Libraries/CMSIS/DSP/Source/FilteringFunctions/arm_biquad_cascade_df2T_f64.c ****          d2 += a2 * acc1;
 348:./Libraries/CMSIS/DSP/Source/FilteringFunctions/arm_biquad_cascade_df2T_f64.c **** 
ARM GAS  /tmp/ccuZWt4p.s 			page 8


 349:./Libraries/CMSIS/DSP/Source/FilteringFunctions/arm_biquad_cascade_df2T_f64.c ****          *pOut++ = acc1;
 350:./Libraries/CMSIS/DSP/Source/FilteringFunctions/arm_biquad_cascade_df2T_f64.c **** 
 351:./Libraries/CMSIS/DSP/Source/FilteringFunctions/arm_biquad_cascade_df2T_f64.c **** /* 14 */
 352:./Libraries/CMSIS/DSP/Source/FilteringFunctions/arm_biquad_cascade_df2T_f64.c ****          Xn1 = *pIn++;
 353:./Libraries/CMSIS/DSP/Source/FilteringFunctions/arm_biquad_cascade_df2T_f64.c **** 
 354:./Libraries/CMSIS/DSP/Source/FilteringFunctions/arm_biquad_cascade_df2T_f64.c ****          acc1 = b0 * Xn1 + d1;
 355:./Libraries/CMSIS/DSP/Source/FilteringFunctions/arm_biquad_cascade_df2T_f64.c **** 
 356:./Libraries/CMSIS/DSP/Source/FilteringFunctions/arm_biquad_cascade_df2T_f64.c ****          d1 = b1 * Xn1 + d2;
 357:./Libraries/CMSIS/DSP/Source/FilteringFunctions/arm_biquad_cascade_df2T_f64.c ****          d1 += a1 * acc1;
 358:./Libraries/CMSIS/DSP/Source/FilteringFunctions/arm_biquad_cascade_df2T_f64.c **** 
 359:./Libraries/CMSIS/DSP/Source/FilteringFunctions/arm_biquad_cascade_df2T_f64.c ****          d2 = b2 * Xn1;
 360:./Libraries/CMSIS/DSP/Source/FilteringFunctions/arm_biquad_cascade_df2T_f64.c ****          d2 += a2 * acc1;
 361:./Libraries/CMSIS/DSP/Source/FilteringFunctions/arm_biquad_cascade_df2T_f64.c **** 
 362:./Libraries/CMSIS/DSP/Source/FilteringFunctions/arm_biquad_cascade_df2T_f64.c ****          *pOut++ = acc1;
 363:./Libraries/CMSIS/DSP/Source/FilteringFunctions/arm_biquad_cascade_df2T_f64.c **** 
 364:./Libraries/CMSIS/DSP/Source/FilteringFunctions/arm_biquad_cascade_df2T_f64.c **** /* 15 */
 365:./Libraries/CMSIS/DSP/Source/FilteringFunctions/arm_biquad_cascade_df2T_f64.c ****          Xn1 = *pIn++;
 366:./Libraries/CMSIS/DSP/Source/FilteringFunctions/arm_biquad_cascade_df2T_f64.c **** 
 367:./Libraries/CMSIS/DSP/Source/FilteringFunctions/arm_biquad_cascade_df2T_f64.c ****          acc1 = b0 * Xn1 + d1;
 368:./Libraries/CMSIS/DSP/Source/FilteringFunctions/arm_biquad_cascade_df2T_f64.c **** 
 369:./Libraries/CMSIS/DSP/Source/FilteringFunctions/arm_biquad_cascade_df2T_f64.c ****          d1 = b1 * Xn1 + d2;
 370:./Libraries/CMSIS/DSP/Source/FilteringFunctions/arm_biquad_cascade_df2T_f64.c ****          d1 += a1 * acc1;
 371:./Libraries/CMSIS/DSP/Source/FilteringFunctions/arm_biquad_cascade_df2T_f64.c **** 
 372:./Libraries/CMSIS/DSP/Source/FilteringFunctions/arm_biquad_cascade_df2T_f64.c ****          d2 = b2 * Xn1;
 373:./Libraries/CMSIS/DSP/Source/FilteringFunctions/arm_biquad_cascade_df2T_f64.c ****          d2 += a2 * acc1;
 374:./Libraries/CMSIS/DSP/Source/FilteringFunctions/arm_biquad_cascade_df2T_f64.c **** 
 375:./Libraries/CMSIS/DSP/Source/FilteringFunctions/arm_biquad_cascade_df2T_f64.c ****          *pOut++ = acc1;
 376:./Libraries/CMSIS/DSP/Source/FilteringFunctions/arm_biquad_cascade_df2T_f64.c **** 
 377:./Libraries/CMSIS/DSP/Source/FilteringFunctions/arm_biquad_cascade_df2T_f64.c **** /* 16 */
 378:./Libraries/CMSIS/DSP/Source/FilteringFunctions/arm_biquad_cascade_df2T_f64.c ****          Xn1 = *pIn++;
 379:./Libraries/CMSIS/DSP/Source/FilteringFunctions/arm_biquad_cascade_df2T_f64.c **** 
 380:./Libraries/CMSIS/DSP/Source/FilteringFunctions/arm_biquad_cascade_df2T_f64.c ****          acc1 = b0 * Xn1 + d1;
 381:./Libraries/CMSIS/DSP/Source/FilteringFunctions/arm_biquad_cascade_df2T_f64.c **** 
 382:./Libraries/CMSIS/DSP/Source/FilteringFunctions/arm_biquad_cascade_df2T_f64.c ****          d1 = b1 * Xn1 + d2;
 383:./Libraries/CMSIS/DSP/Source/FilteringFunctions/arm_biquad_cascade_df2T_f64.c ****          d1 += a1 * acc1;
 384:./Libraries/CMSIS/DSP/Source/FilteringFunctions/arm_biquad_cascade_df2T_f64.c **** 
 385:./Libraries/CMSIS/DSP/Source/FilteringFunctions/arm_biquad_cascade_df2T_f64.c ****          d2 = b2 * Xn1;
 386:./Libraries/CMSIS/DSP/Source/FilteringFunctions/arm_biquad_cascade_df2T_f64.c ****          d2 += a2 * acc1;
 387:./Libraries/CMSIS/DSP/Source/FilteringFunctions/arm_biquad_cascade_df2T_f64.c **** 
 388:./Libraries/CMSIS/DSP/Source/FilteringFunctions/arm_biquad_cascade_df2T_f64.c ****          *pOut++ = acc1;
 389:./Libraries/CMSIS/DSP/Source/FilteringFunctions/arm_biquad_cascade_df2T_f64.c **** 
 390:./Libraries/CMSIS/DSP/Source/FilteringFunctions/arm_biquad_cascade_df2T_f64.c ****          /* decrement loop counter */
 391:./Libraries/CMSIS/DSP/Source/FilteringFunctions/arm_biquad_cascade_df2T_f64.c ****          sample--;
 392:./Libraries/CMSIS/DSP/Source/FilteringFunctions/arm_biquad_cascade_df2T_f64.c ****       }
 393:./Libraries/CMSIS/DSP/Source/FilteringFunctions/arm_biquad_cascade_df2T_f64.c **** 
 394:./Libraries/CMSIS/DSP/Source/FilteringFunctions/arm_biquad_cascade_df2T_f64.c ****     /* Loop unrolling: Compute remaining outputs */
 395:./Libraries/CMSIS/DSP/Source/FilteringFunctions/arm_biquad_cascade_df2T_f64.c ****       sample = blockSize & 0xFU;
 396:./Libraries/CMSIS/DSP/Source/FilteringFunctions/arm_biquad_cascade_df2T_f64.c **** 
 397:./Libraries/CMSIS/DSP/Source/FilteringFunctions/arm_biquad_cascade_df2T_f64.c **** #else
 398:./Libraries/CMSIS/DSP/Source/FilteringFunctions/arm_biquad_cascade_df2T_f64.c **** 
 399:./Libraries/CMSIS/DSP/Source/FilteringFunctions/arm_biquad_cascade_df2T_f64.c ****     /* Initialize blkCnt with number of samples */
 400:./Libraries/CMSIS/DSP/Source/FilteringFunctions/arm_biquad_cascade_df2T_f64.c ****     sample = blockSize;
 401:./Libraries/CMSIS/DSP/Source/FilteringFunctions/arm_biquad_cascade_df2T_f64.c **** 
 402:./Libraries/CMSIS/DSP/Source/FilteringFunctions/arm_biquad_cascade_df2T_f64.c **** #endif /* #if defined (ARM_MATH_LOOPUNROLL) */
 403:./Libraries/CMSIS/DSP/Source/FilteringFunctions/arm_biquad_cascade_df2T_f64.c **** 
 404:./Libraries/CMSIS/DSP/Source/FilteringFunctions/arm_biquad_cascade_df2T_f64.c ****       while (sample > 0U) {
 405:./Libraries/CMSIS/DSP/Source/FilteringFunctions/arm_biquad_cascade_df2T_f64.c ****          Xn1 = *pIn++;
ARM GAS  /tmp/ccuZWt4p.s 			page 9


 406:./Libraries/CMSIS/DSP/Source/FilteringFunctions/arm_biquad_cascade_df2T_f64.c **** 
 407:./Libraries/CMSIS/DSP/Source/FilteringFunctions/arm_biquad_cascade_df2T_f64.c ****          acc1 = b0 * Xn1 + d1;
 408:./Libraries/CMSIS/DSP/Source/FilteringFunctions/arm_biquad_cascade_df2T_f64.c **** 
 409:./Libraries/CMSIS/DSP/Source/FilteringFunctions/arm_biquad_cascade_df2T_f64.c ****          d1 = b1 * Xn1 + d2;
 410:./Libraries/CMSIS/DSP/Source/FilteringFunctions/arm_biquad_cascade_df2T_f64.c ****          d1 += a1 * acc1;
 411:./Libraries/CMSIS/DSP/Source/FilteringFunctions/arm_biquad_cascade_df2T_f64.c **** 
 412:./Libraries/CMSIS/DSP/Source/FilteringFunctions/arm_biquad_cascade_df2T_f64.c ****          d2 = b2 * Xn1;
 413:./Libraries/CMSIS/DSP/Source/FilteringFunctions/arm_biquad_cascade_df2T_f64.c ****          d2 += a2 * acc1;
 414:./Libraries/CMSIS/DSP/Source/FilteringFunctions/arm_biquad_cascade_df2T_f64.c **** 
 415:./Libraries/CMSIS/DSP/Source/FilteringFunctions/arm_biquad_cascade_df2T_f64.c ****          *pOut++ = acc1;
 416:./Libraries/CMSIS/DSP/Source/FilteringFunctions/arm_biquad_cascade_df2T_f64.c **** 
 417:./Libraries/CMSIS/DSP/Source/FilteringFunctions/arm_biquad_cascade_df2T_f64.c ****          /* decrement loop counter */
 418:./Libraries/CMSIS/DSP/Source/FilteringFunctions/arm_biquad_cascade_df2T_f64.c ****          sample--;
 419:./Libraries/CMSIS/DSP/Source/FilteringFunctions/arm_biquad_cascade_df2T_f64.c ****       }
 420:./Libraries/CMSIS/DSP/Source/FilteringFunctions/arm_biquad_cascade_df2T_f64.c **** 
 421:./Libraries/CMSIS/DSP/Source/FilteringFunctions/arm_biquad_cascade_df2T_f64.c ****       /* Store the updated state variables back into the state array */
 422:./Libraries/CMSIS/DSP/Source/FilteringFunctions/arm_biquad_cascade_df2T_f64.c ****       pState[0] = d1;
  53              		.loc 1 422 17
  54 0012 0CED044B 		vstr.64	d4, [ip, #-16]
 423:./Libraries/CMSIS/DSP/Source/FilteringFunctions/arm_biquad_cascade_df2T_f64.c ****       pState[1] = d2;
  55              		.loc 1 423 17
  56 0016 0CED027B 		vstr.64	d7, [ip, #-8]
  57 001a 2835     		adds	r5, r5, #40
  58 001c 1036     		adds	r6, r6, #16
 424:./Libraries/CMSIS/DSP/Source/FilteringFunctions/arm_biquad_cascade_df2T_f64.c **** 
 425:./Libraries/CMSIS/DSP/Source/FilteringFunctions/arm_biquad_cascade_df2T_f64.c ****       pState += 2U;
 426:./Libraries/CMSIS/DSP/Source/FilteringFunctions/arm_biquad_cascade_df2T_f64.c **** 
 427:./Libraries/CMSIS/DSP/Source/FilteringFunctions/arm_biquad_cascade_df2T_f64.c ****       /* The current stage input is given as the output to the next stage */
 428:./Libraries/CMSIS/DSP/Source/FilteringFunctions/arm_biquad_cascade_df2T_f64.c ****       pIn = pDst;
 429:./Libraries/CMSIS/DSP/Source/FilteringFunctions/arm_biquad_cascade_df2T_f64.c **** 
 430:./Libraries/CMSIS/DSP/Source/FilteringFunctions/arm_biquad_cascade_df2T_f64.c ****       /* Reset the output working pointer */
 431:./Libraries/CMSIS/DSP/Source/FilteringFunctions/arm_biquad_cascade_df2T_f64.c ****       pOut = pDst;
 432:./Libraries/CMSIS/DSP/Source/FilteringFunctions/arm_biquad_cascade_df2T_f64.c **** 
 433:./Libraries/CMSIS/DSP/Source/FilteringFunctions/arm_biquad_cascade_df2T_f64.c ****       /* decrement loop counter */
 434:./Libraries/CMSIS/DSP/Source/FilteringFunctions/arm_biquad_cascade_df2T_f64.c ****       stage--;
 435:./Libraries/CMSIS/DSP/Source/FilteringFunctions/arm_biquad_cascade_df2T_f64.c **** 
 436:./Libraries/CMSIS/DSP/Source/FilteringFunctions/arm_biquad_cascade_df2T_f64.c ****    } while (stage > 0U);
  59              		.loc 1 436 4
  60 001e 013F     		subs	r7, r7, #1
  61 0020 28D0     		beq	.L8
 428:./Libraries/CMSIS/DSP/Source/FilteringFunctions/arm_biquad_cascade_df2T_f64.c **** 
  62              		.loc 1 428 11
  63 0022 1146     		mov	r1, r2
  64              	.L4:
 158:./Libraries/CMSIS/DSP/Source/FilteringFunctions/arm_biquad_cascade_df2T_f64.c ****       b1 = pCoeffs[1];
  65              		.loc 1 158 10
  66 0024 15ED0A8B 		vldr.64	d8, [r5, #-40]
 159:./Libraries/CMSIS/DSP/Source/FilteringFunctions/arm_biquad_cascade_df2T_f64.c ****       b2 = pCoeffs[2];
  67              		.loc 1 159 10
  68 0028 15ED080B 		vldr.64	d0, [r5, #-32]
 160:./Libraries/CMSIS/DSP/Source/FilteringFunctions/arm_biquad_cascade_df2T_f64.c ****       a1 = pCoeffs[3];
  69              		.loc 1 160 10
  70 002c 15ED063B 		vldr.64	d3, [r5, #-24]
 161:./Libraries/CMSIS/DSP/Source/FilteringFunctions/arm_biquad_cascade_df2T_f64.c ****       a2 = pCoeffs[4];
  71              		.loc 1 161 10
  72 0030 15ED041B 		vldr.64	d1, [r5, #-16]
 162:./Libraries/CMSIS/DSP/Source/FilteringFunctions/arm_biquad_cascade_df2T_f64.c **** 
ARM GAS  /tmp/ccuZWt4p.s 			page 10


  73              		.loc 1 162 10
  74 0034 15ED022B 		vldr.64	d2, [r5, #-8]
  75 0038 B446     		mov	ip, r6
 165:./Libraries/CMSIS/DSP/Source/FilteringFunctions/arm_biquad_cascade_df2T_f64.c ****       d2 = pState[1];
  76              		.loc 1 165 10
  77 003a 16ED044B 		vldr.64	d4, [r6, #-16]
 166:./Libraries/CMSIS/DSP/Source/FilteringFunctions/arm_biquad_cascade_df2T_f64.c **** 
  78              		.loc 1 166 10
  79 003e 16ED027B 		vldr.64	d7, [r6, #-8]
 404:./Libraries/CMSIS/DSP/Source/FilteringFunctions/arm_biquad_cascade_df2T_f64.c ****          Xn1 = *pIn++;
  80              		.loc 1 404 13
  81 0042 002B     		cmp	r3, #0
  82 0044 E5D0     		beq	.L2
 400:./Libraries/CMSIS/DSP/Source/FilteringFunctions/arm_biquad_cascade_df2T_f64.c **** 
  83              		.loc 1 400 12
  84 0046 1846     		mov	r0, r3
 404:./Libraries/CMSIS/DSP/Source/FilteringFunctions/arm_biquad_cascade_df2T_f64.c ****          Xn1 = *pIn++;
  85              		.loc 1 404 13
  86 0048 1446     		mov	r4, r2
  87              	.L3:
 405:./Libraries/CMSIS/DSP/Source/FilteringFunctions/arm_biquad_cascade_df2T_f64.c **** 
  88              		.loc 1 405 14
  89 004a B1EC025B 		vldmia.64	r1!, {d5}
 407:./Libraries/CMSIS/DSP/Source/FilteringFunctions/arm_biquad_cascade_df2T_f64.c **** 
  90              		.loc 1 407 15
  91 004e B0EE446B 		vmov.f64	d6, d4
  92 0052 08EE056B 		vmla.f64	d6, d8, d5
 409:./Libraries/CMSIS/DSP/Source/FilteringFunctions/arm_biquad_cascade_df2T_f64.c ****          d1 += a1 * acc1;
  93              		.loc 1 409 13
  94 0056 00EE057B 		vmla.f64	d7, d0, d5
 410:./Libraries/CMSIS/DSP/Source/FilteringFunctions/arm_biquad_cascade_df2T_f64.c **** 
  95              		.loc 1 410 13
  96 005a 01EE067B 		vmla.f64	d7, d1, d6
  97 005e B0EE474B 		vmov.f64	d4, d7
 413:./Libraries/CMSIS/DSP/Source/FilteringFunctions/arm_biquad_cascade_df2T_f64.c **** 
  98              		.loc 1 413 19
  99 0062 22EE067B 		vmul.f64	d7, d2, d6
 413:./Libraries/CMSIS/DSP/Source/FilteringFunctions/arm_biquad_cascade_df2T_f64.c **** 
 100              		.loc 1 413 13
 101 0066 03EE057B 		vmla.f64	d7, d3, d5
 415:./Libraries/CMSIS/DSP/Source/FilteringFunctions/arm_biquad_cascade_df2T_f64.c **** 
 102              		.loc 1 415 18
 103 006a A4EC026B 		vstmia.64	r4!, {d6}
 404:./Libraries/CMSIS/DSP/Source/FilteringFunctions/arm_biquad_cascade_df2T_f64.c ****          Xn1 = *pIn++;
 104              		.loc 1 404 13
 105 006e 0138     		subs	r0, r0, #1
 106 0070 EBD1     		bne	.L3
 107 0072 CEE7     		b	.L2
 108              	.L8:
 437:./Libraries/CMSIS/DSP/Source/FilteringFunctions/arm_biquad_cascade_df2T_f64.c **** 
 438:./Libraries/CMSIS/DSP/Source/FilteringFunctions/arm_biquad_cascade_df2T_f64.c **** }
 109              		.loc 1 438 1
 110 0074 BDEC028B 		vldm	sp!, {d8}
 111              	.LCFI2:
 112              		.cfi_restore 80
 113              		.cfi_restore 81
 114              		.cfi_def_cfa_offset 16
ARM GAS  /tmp/ccuZWt4p.s 			page 11


 115 0078 F0BC     		pop	{r4, r5, r6, r7}
 116              	.LCFI3:
 117              		.cfi_restore 7
 118              		.cfi_restore 6
 119              		.cfi_restore 5
 120              		.cfi_restore 4
 121              		.cfi_def_cfa_offset 0
 122 007a 7047     		bx	lr
 123              		.cfi_endproc
 124              	.LFE145:
 126              		.text
 127              	.Letext0:
 128              		.file 2 "/usr/lib/gcc/arm-none-eabi/9.2.1/include/stdint.h"
 129              		.file 3 "/usr/lib/gcc/arm-none-eabi/9.2.1/include/stddef.h"
 130              		.file 4 "/usr/include/newlib/sys/_types.h"
 131              		.file 5 "/usr/include/newlib/sys/reent.h"
 132              		.file 6 "/usr/include/newlib/sys/lock.h"
 133              		.file 7 "/usr/include/newlib/math.h"
 134              		.file 8 "./Libraries/CMSIS/DSP/Include/arm_math.h"
ARM GAS  /tmp/ccuZWt4p.s 			page 12

