ARM GAS  /tmp/cc7Qiqtl.s 			page 1


   1              		.cpu cortex-m7
   2              		.eabi_attribute 28, 1
   3              		.eabi_attribute 20, 1
   4              		.eabi_attribute 21, 1
   5              		.eabi_attribute 23, 3
   6              		.eabi_attribute 24, 1
   7              		.eabi_attribute 25, 1
   8              		.eabi_attribute 26, 1
   9              		.eabi_attribute 30, 6
  10              		.eabi_attribute 34, 1
  11              		.eabi_attribute 18, 4
  12              		.file	"arm_cfft_radix2_init_q15.c"
  13              		.text
  14              	.Ltext0:
  15              		.cfi_sections	.debug_frame
  16              		.section	.text.arm_cfft_radix2_init_q15,"ax",%progbits
  17              		.align	1
  18              		.global	arm_cfft_radix2_init_q15
  19              		.arch armv7e-m
  20              		.syntax unified
  21              		.thumb
  22              		.thumb_func
  23              		.fpu fpv5-d16
  25              	arm_cfft_radix2_init_q15:
  26              	.LFB145:
  27              		.file 1 "./Libraries/CMSIS/DSP/Source/TransformFunctions/arm_cfft_radix2_init_q15.c"
   1:./Libraries/CMSIS/DSP/Source/TransformFunctions/arm_cfft_radix2_init_q15.c **** /* ----------------------------------------------------------------------
   2:./Libraries/CMSIS/DSP/Source/TransformFunctions/arm_cfft_radix2_init_q15.c ****  * Project:      CMSIS DSP Library
   3:./Libraries/CMSIS/DSP/Source/TransformFunctions/arm_cfft_radix2_init_q15.c ****  * Title:        arm_cfft_radix2_init_q15.c
   4:./Libraries/CMSIS/DSP/Source/TransformFunctions/arm_cfft_radix2_init_q15.c ****  * Description:  Radix-2 Decimation in Frequency Q15 FFT & IFFT initialization function
   5:./Libraries/CMSIS/DSP/Source/TransformFunctions/arm_cfft_radix2_init_q15.c ****  *
   6:./Libraries/CMSIS/DSP/Source/TransformFunctions/arm_cfft_radix2_init_q15.c ****  * $Date:        18. March 2019
   7:./Libraries/CMSIS/DSP/Source/TransformFunctions/arm_cfft_radix2_init_q15.c ****  * $Revision:    V1.6.0
   8:./Libraries/CMSIS/DSP/Source/TransformFunctions/arm_cfft_radix2_init_q15.c ****  *
   9:./Libraries/CMSIS/DSP/Source/TransformFunctions/arm_cfft_radix2_init_q15.c ****  * Target Processor: Cortex-M cores
  10:./Libraries/CMSIS/DSP/Source/TransformFunctions/arm_cfft_radix2_init_q15.c ****  * -------------------------------------------------------------------- */
  11:./Libraries/CMSIS/DSP/Source/TransformFunctions/arm_cfft_radix2_init_q15.c **** /*
  12:./Libraries/CMSIS/DSP/Source/TransformFunctions/arm_cfft_radix2_init_q15.c ****  * Copyright (C) 2010-2019 ARM Limited or its affiliates. All rights reserved.
  13:./Libraries/CMSIS/DSP/Source/TransformFunctions/arm_cfft_radix2_init_q15.c ****  *
  14:./Libraries/CMSIS/DSP/Source/TransformFunctions/arm_cfft_radix2_init_q15.c ****  * SPDX-License-Identifier: Apache-2.0
  15:./Libraries/CMSIS/DSP/Source/TransformFunctions/arm_cfft_radix2_init_q15.c ****  *
  16:./Libraries/CMSIS/DSP/Source/TransformFunctions/arm_cfft_radix2_init_q15.c ****  * Licensed under the Apache License, Version 2.0 (the License); you may
  17:./Libraries/CMSIS/DSP/Source/TransformFunctions/arm_cfft_radix2_init_q15.c ****  * not use this file except in compliance with the License.
  18:./Libraries/CMSIS/DSP/Source/TransformFunctions/arm_cfft_radix2_init_q15.c ****  * You may obtain a copy of the License at
  19:./Libraries/CMSIS/DSP/Source/TransformFunctions/arm_cfft_radix2_init_q15.c ****  *
  20:./Libraries/CMSIS/DSP/Source/TransformFunctions/arm_cfft_radix2_init_q15.c ****  * www.apache.org/licenses/LICENSE-2.0
  21:./Libraries/CMSIS/DSP/Source/TransformFunctions/arm_cfft_radix2_init_q15.c ****  *
  22:./Libraries/CMSIS/DSP/Source/TransformFunctions/arm_cfft_radix2_init_q15.c ****  * Unless required by applicable law or agreed to in writing, software
  23:./Libraries/CMSIS/DSP/Source/TransformFunctions/arm_cfft_radix2_init_q15.c ****  * distributed under the License is distributed on an AS IS BASIS, WITHOUT
  24:./Libraries/CMSIS/DSP/Source/TransformFunctions/arm_cfft_radix2_init_q15.c ****  * WARRANTIES OR CONDITIONS OF ANY KIND, either express or implied.
  25:./Libraries/CMSIS/DSP/Source/TransformFunctions/arm_cfft_radix2_init_q15.c ****  * See the License for the specific language governing permissions and
  26:./Libraries/CMSIS/DSP/Source/TransformFunctions/arm_cfft_radix2_init_q15.c ****  * limitations under the License.
  27:./Libraries/CMSIS/DSP/Source/TransformFunctions/arm_cfft_radix2_init_q15.c ****  */
  28:./Libraries/CMSIS/DSP/Source/TransformFunctions/arm_cfft_radix2_init_q15.c **** 
  29:./Libraries/CMSIS/DSP/Source/TransformFunctions/arm_cfft_radix2_init_q15.c **** #include "arm_math.h"
  30:./Libraries/CMSIS/DSP/Source/TransformFunctions/arm_cfft_radix2_init_q15.c **** #include "arm_common_tables.h"
  31:./Libraries/CMSIS/DSP/Source/TransformFunctions/arm_cfft_radix2_init_q15.c **** 
ARM GAS  /tmp/cc7Qiqtl.s 			page 2


  32:./Libraries/CMSIS/DSP/Source/TransformFunctions/arm_cfft_radix2_init_q15.c **** /**
  33:./Libraries/CMSIS/DSP/Source/TransformFunctions/arm_cfft_radix2_init_q15.c ****   @ingroup groupTransforms
  34:./Libraries/CMSIS/DSP/Source/TransformFunctions/arm_cfft_radix2_init_q15.c ****  */
  35:./Libraries/CMSIS/DSP/Source/TransformFunctions/arm_cfft_radix2_init_q15.c **** 
  36:./Libraries/CMSIS/DSP/Source/TransformFunctions/arm_cfft_radix2_init_q15.c **** 
  37:./Libraries/CMSIS/DSP/Source/TransformFunctions/arm_cfft_radix2_init_q15.c **** /**
  38:./Libraries/CMSIS/DSP/Source/TransformFunctions/arm_cfft_radix2_init_q15.c ****   @addtogroup ComplexFFT
  39:./Libraries/CMSIS/DSP/Source/TransformFunctions/arm_cfft_radix2_init_q15.c ****   @{
  40:./Libraries/CMSIS/DSP/Source/TransformFunctions/arm_cfft_radix2_init_q15.c ****  */
  41:./Libraries/CMSIS/DSP/Source/TransformFunctions/arm_cfft_radix2_init_q15.c **** 
  42:./Libraries/CMSIS/DSP/Source/TransformFunctions/arm_cfft_radix2_init_q15.c **** /**
  43:./Libraries/CMSIS/DSP/Source/TransformFunctions/arm_cfft_radix2_init_q15.c ****   @brief                        Initialization function for the Q15 CFFT/CIFFT.
  44:./Libraries/CMSIS/DSP/Source/TransformFunctions/arm_cfft_radix2_init_q15.c ****   @deprecated                   Do not use this function. It has been superseded by \ref arm_cfft_q
  45:./Libraries/CMSIS/DSP/Source/TransformFunctions/arm_cfft_radix2_init_q15.c ****   @param[in,out] S              points to an instance of the Q15 CFFT/CIFFT structure.
  46:./Libraries/CMSIS/DSP/Source/TransformFunctions/arm_cfft_radix2_init_q15.c ****   @param[in]     fftLen         length of the FFT.
  47:./Libraries/CMSIS/DSP/Source/TransformFunctions/arm_cfft_radix2_init_q15.c ****   @param[in]     ifftFlag       flag that selects transform direction
  48:./Libraries/CMSIS/DSP/Source/TransformFunctions/arm_cfft_radix2_init_q15.c ****                    - value = 0: forward transform
  49:./Libraries/CMSIS/DSP/Source/TransformFunctions/arm_cfft_radix2_init_q15.c ****                    - value = 1: inverse transform
  50:./Libraries/CMSIS/DSP/Source/TransformFunctions/arm_cfft_radix2_init_q15.c ****   @param[in]     bitReverseFlag flag that enables / disables bit reversal of output
  51:./Libraries/CMSIS/DSP/Source/TransformFunctions/arm_cfft_radix2_init_q15.c ****                    - value = 0: disables bit reversal of output
  52:./Libraries/CMSIS/DSP/Source/TransformFunctions/arm_cfft_radix2_init_q15.c ****                    - value = 1: enables bit reversal of output
  53:./Libraries/CMSIS/DSP/Source/TransformFunctions/arm_cfft_radix2_init_q15.c ****   @return        execution status
  54:./Libraries/CMSIS/DSP/Source/TransformFunctions/arm_cfft_radix2_init_q15.c ****                    - \ref ARM_MATH_SUCCESS        : Operation successful
  55:./Libraries/CMSIS/DSP/Source/TransformFunctions/arm_cfft_radix2_init_q15.c ****                    - \ref ARM_MATH_ARGUMENT_ERROR : <code>fftLen</code> is not a supported length
  56:./Libraries/CMSIS/DSP/Source/TransformFunctions/arm_cfft_radix2_init_q15.c **** 
  57:./Libraries/CMSIS/DSP/Source/TransformFunctions/arm_cfft_radix2_init_q15.c ****   @par           Details
  58:./Libraries/CMSIS/DSP/Source/TransformFunctions/arm_cfft_radix2_init_q15.c ****                    The parameter <code>ifftFlag</code> controls whether a forward or inverse transf
  59:./Libraries/CMSIS/DSP/Source/TransformFunctions/arm_cfft_radix2_init_q15.c ****                    Set(=1) ifftFlag for calculation of CIFFT otherwise  CFFT is calculated
  60:./Libraries/CMSIS/DSP/Source/TransformFunctions/arm_cfft_radix2_init_q15.c ****   @par
  61:./Libraries/CMSIS/DSP/Source/TransformFunctions/arm_cfft_radix2_init_q15.c ****                    The parameter <code>bitReverseFlag</code> controls whether output is in normal o
  62:./Libraries/CMSIS/DSP/Source/TransformFunctions/arm_cfft_radix2_init_q15.c ****                    Set(=1) bitReverseFlag for output to be in normal order otherwise output is in b
  63:./Libraries/CMSIS/DSP/Source/TransformFunctions/arm_cfft_radix2_init_q15.c ****   @par
  64:./Libraries/CMSIS/DSP/Source/TransformFunctions/arm_cfft_radix2_init_q15.c ****                    The parameter <code>fftLen</code> Specifies length of CFFT/CIFFT process. Suppor
  65:./Libraries/CMSIS/DSP/Source/TransformFunctions/arm_cfft_radix2_init_q15.c ****   @par
  66:./Libraries/CMSIS/DSP/Source/TransformFunctions/arm_cfft_radix2_init_q15.c ****                    This Function also initializes Twiddle factor table pointer and Bit reversal tab
  67:./Libraries/CMSIS/DSP/Source/TransformFunctions/arm_cfft_radix2_init_q15.c **** */
  68:./Libraries/CMSIS/DSP/Source/TransformFunctions/arm_cfft_radix2_init_q15.c **** 
  69:./Libraries/CMSIS/DSP/Source/TransformFunctions/arm_cfft_radix2_init_q15.c **** arm_status arm_cfft_radix2_init_q15(
  70:./Libraries/CMSIS/DSP/Source/TransformFunctions/arm_cfft_radix2_init_q15.c ****   arm_cfft_radix2_instance_q15 * S,
  71:./Libraries/CMSIS/DSP/Source/TransformFunctions/arm_cfft_radix2_init_q15.c ****   uint16_t fftLen,
  72:./Libraries/CMSIS/DSP/Source/TransformFunctions/arm_cfft_radix2_init_q15.c ****   uint8_t ifftFlag,
  73:./Libraries/CMSIS/DSP/Source/TransformFunctions/arm_cfft_radix2_init_q15.c ****   uint8_t bitReverseFlag)
  74:./Libraries/CMSIS/DSP/Source/TransformFunctions/arm_cfft_radix2_init_q15.c **** {
  28              		.loc 1 74 1
  29              		.cfi_startproc
  30              		@ args = 0, pretend = 0, frame = 16
  31              		@ frame_needed = 1, uses_anonymous_args = 0
  32              		@ link register save eliminated.
  33 0000 80B4     		push	{r7}
  34              	.LCFI0:
  35              		.cfi_def_cfa_offset 4
  36              		.cfi_offset 7, -4
  37 0002 85B0     		sub	sp, sp, #20
  38              	.LCFI1:
  39              		.cfi_def_cfa_offset 24
  40 0004 00AF     		add	r7, sp, #0
  41              	.LCFI2:
ARM GAS  /tmp/cc7Qiqtl.s 			page 3


  42              		.cfi_def_cfa_register 7
  43 0006 7860     		str	r0, [r7, #4]
  44 0008 0846     		mov	r0, r1
  45 000a 1146     		mov	r1, r2
  46 000c 1A46     		mov	r2, r3
  47 000e 0346     		mov	r3, r0	@ movhi
  48 0010 7B80     		strh	r3, [r7, #2]	@ movhi
  49 0012 0B46     		mov	r3, r1
  50 0014 7B70     		strb	r3, [r7, #1]
  51 0016 1346     		mov	r3, r2
  52 0018 3B70     		strb	r3, [r7]
  75:./Libraries/CMSIS/DSP/Source/TransformFunctions/arm_cfft_radix2_init_q15.c ****   /*  Initialise the default arm status */
  76:./Libraries/CMSIS/DSP/Source/TransformFunctions/arm_cfft_radix2_init_q15.c ****   arm_status status = ARM_MATH_SUCCESS;
  53              		.loc 1 76 14
  54 001a 0023     		movs	r3, #0
  55 001c FB73     		strb	r3, [r7, #15]
  77:./Libraries/CMSIS/DSP/Source/TransformFunctions/arm_cfft_radix2_init_q15.c **** 
  78:./Libraries/CMSIS/DSP/Source/TransformFunctions/arm_cfft_radix2_init_q15.c ****   /*  Initialise the FFT length */
  79:./Libraries/CMSIS/DSP/Source/TransformFunctions/arm_cfft_radix2_init_q15.c ****   S->fftLen = fftLen;
  56              		.loc 1 79 13
  57 001e 7B68     		ldr	r3, [r7, #4]
  58 0020 7A88     		ldrh	r2, [r7, #2]	@ movhi
  59 0022 1A80     		strh	r2, [r3]	@ movhi
  80:./Libraries/CMSIS/DSP/Source/TransformFunctions/arm_cfft_radix2_init_q15.c **** 
  81:./Libraries/CMSIS/DSP/Source/TransformFunctions/arm_cfft_radix2_init_q15.c ****   /*  Initialise the Twiddle coefficient pointer */
  82:./Libraries/CMSIS/DSP/Source/TransformFunctions/arm_cfft_radix2_init_q15.c ****   S->pTwiddle = (q15_t *) twiddleCoef_4096_q15;
  60              		.loc 1 82 15
  61 0024 7B68     		ldr	r3, [r7, #4]
  62 0026 4E4A     		ldr	r2, .L14
  63 0028 5A60     		str	r2, [r3, #4]
  83:./Libraries/CMSIS/DSP/Source/TransformFunctions/arm_cfft_radix2_init_q15.c ****   /*  Initialise the Flag for selection of CFFT or CIFFT */
  84:./Libraries/CMSIS/DSP/Source/TransformFunctions/arm_cfft_radix2_init_q15.c ****   S->ifftFlag = ifftFlag;
  64              		.loc 1 84 15
  65 002a 7B68     		ldr	r3, [r7, #4]
  66 002c 7A78     		ldrb	r2, [r7, #1]
  67 002e 9A70     		strb	r2, [r3, #2]
  85:./Libraries/CMSIS/DSP/Source/TransformFunctions/arm_cfft_radix2_init_q15.c ****   /*  Initialise the Flag for calculation Bit reversal or not */
  86:./Libraries/CMSIS/DSP/Source/TransformFunctions/arm_cfft_radix2_init_q15.c ****   S->bitReverseFlag = bitReverseFlag;
  68              		.loc 1 86 21
  69 0030 7B68     		ldr	r3, [r7, #4]
  70 0032 3A78     		ldrb	r2, [r7]
  71 0034 DA70     		strb	r2, [r3, #3]
  87:./Libraries/CMSIS/DSP/Source/TransformFunctions/arm_cfft_radix2_init_q15.c **** 
  88:./Libraries/CMSIS/DSP/Source/TransformFunctions/arm_cfft_radix2_init_q15.c ****   /*  Initializations of structure parameters depending on the FFT length */
  89:./Libraries/CMSIS/DSP/Source/TransformFunctions/arm_cfft_radix2_init_q15.c ****   switch (S->fftLen)
  72              		.loc 1 89 12
  73 0036 7B68     		ldr	r3, [r7, #4]
  74 0038 1B88     		ldrh	r3, [r3]
  75              		.loc 1 89 3
  76 003a B3F5805F 		cmp	r3, #4096
  77 003e 28D0     		beq	.L2
  78 0040 B3F5805F 		cmp	r3, #4096
  79 0044 00F38180 		bgt	.L3
  80 0048 B3F5006F 		cmp	r3, #2048
  81 004c 2BD0     		beq	.L4
  82 004e B3F5006F 		cmp	r3, #2048
  83 0052 7ADC     		bgt	.L3
ARM GAS  /tmp/cc7Qiqtl.s 			page 4


  84 0054 B3F5806F 		cmp	r3, #1024
  85 0058 2FD0     		beq	.L5
  86 005a B3F5806F 		cmp	r3, #1024
  87 005e 74DC     		bgt	.L3
  88 0060 B3F5007F 		cmp	r3, #512
  89 0064 33D0     		beq	.L6
  90 0066 B3F5007F 		cmp	r3, #512
  91 006a 6EDC     		bgt	.L3
  92 006c B3F5807F 		cmp	r3, #256
  93 0070 37D0     		beq	.L7
  94 0072 B3F5807F 		cmp	r3, #256
  95 0076 68DC     		bgt	.L3
  96 0078 802B     		cmp	r3, #128
  97 007a 3CD0     		beq	.L8
  98 007c 802B     		cmp	r3, #128
  99 007e 64DC     		bgt	.L3
 100 0080 402B     		cmp	r3, #64
 101 0082 42D0     		beq	.L9
 102 0084 402B     		cmp	r3, #64
 103 0086 60DC     		bgt	.L3
 104 0088 102B     		cmp	r3, #16
 105 008a 52D0     		beq	.L10
 106 008c 202B     		cmp	r3, #32
 107 008e 46D0     		beq	.L11
 108 0090 5BE0     		b	.L3
 109              	.L2:
  90:./Libraries/CMSIS/DSP/Source/TransformFunctions/arm_cfft_radix2_init_q15.c ****   {
  91:./Libraries/CMSIS/DSP/Source/TransformFunctions/arm_cfft_radix2_init_q15.c ****   case 4096U:
  92:./Libraries/CMSIS/DSP/Source/TransformFunctions/arm_cfft_radix2_init_q15.c ****     /*  Initializations of structure parameters for 4096 point FFT */
  93:./Libraries/CMSIS/DSP/Source/TransformFunctions/arm_cfft_radix2_init_q15.c **** 
  94:./Libraries/CMSIS/DSP/Source/TransformFunctions/arm_cfft_radix2_init_q15.c ****     /*  Initialise the twiddle coef modifier value */
  95:./Libraries/CMSIS/DSP/Source/TransformFunctions/arm_cfft_radix2_init_q15.c ****     S->twidCoefModifier = 1U;
 110              		.loc 1 95 25
 111 0092 7B68     		ldr	r3, [r7, #4]
 112 0094 0122     		movs	r2, #1
 113 0096 9A81     		strh	r2, [r3, #12]	@ movhi
  96:./Libraries/CMSIS/DSP/Source/TransformFunctions/arm_cfft_radix2_init_q15.c ****     /*  Initialise the bit reversal table modifier */
  97:./Libraries/CMSIS/DSP/Source/TransformFunctions/arm_cfft_radix2_init_q15.c ****     S->bitRevFactor = 1U;
 114              		.loc 1 97 21
 115 0098 7B68     		ldr	r3, [r7, #4]
 116 009a 0122     		movs	r2, #1
 117 009c DA81     		strh	r2, [r3, #14]	@ movhi
  98:./Libraries/CMSIS/DSP/Source/TransformFunctions/arm_cfft_radix2_init_q15.c ****     /*  Initialise the bit reversal table pointer */
  99:./Libraries/CMSIS/DSP/Source/TransformFunctions/arm_cfft_radix2_init_q15.c ****     S->pBitRevTable = (uint16_t *) armBitRevTable;
 118              		.loc 1 99 21
 119 009e 7B68     		ldr	r3, [r7, #4]
 120 00a0 304A     		ldr	r2, .L14+4
 121 00a2 9A60     		str	r2, [r3, #8]
 100:./Libraries/CMSIS/DSP/Source/TransformFunctions/arm_cfft_radix2_init_q15.c **** 
 101:./Libraries/CMSIS/DSP/Source/TransformFunctions/arm_cfft_radix2_init_q15.c ****     break;
 122              		.loc 1 101 5
 123 00a4 54E0     		b	.L12
 124              	.L4:
 102:./Libraries/CMSIS/DSP/Source/TransformFunctions/arm_cfft_radix2_init_q15.c **** 
 103:./Libraries/CMSIS/DSP/Source/TransformFunctions/arm_cfft_radix2_init_q15.c ****   case 2048U:
 104:./Libraries/CMSIS/DSP/Source/TransformFunctions/arm_cfft_radix2_init_q15.c ****     /*  Initializations of structure parameters for 2048 point FFT */
 105:./Libraries/CMSIS/DSP/Source/TransformFunctions/arm_cfft_radix2_init_q15.c **** 
ARM GAS  /tmp/cc7Qiqtl.s 			page 5


 106:./Libraries/CMSIS/DSP/Source/TransformFunctions/arm_cfft_radix2_init_q15.c ****     /*  Initialise the twiddle coef modifier value */
 107:./Libraries/CMSIS/DSP/Source/TransformFunctions/arm_cfft_radix2_init_q15.c ****     S->twidCoefModifier = 2U;
 125              		.loc 1 107 25
 126 00a6 7B68     		ldr	r3, [r7, #4]
 127 00a8 0222     		movs	r2, #2
 128 00aa 9A81     		strh	r2, [r3, #12]	@ movhi
 108:./Libraries/CMSIS/DSP/Source/TransformFunctions/arm_cfft_radix2_init_q15.c ****     /*  Initialise the bit reversal table modifier */
 109:./Libraries/CMSIS/DSP/Source/TransformFunctions/arm_cfft_radix2_init_q15.c ****     S->bitRevFactor = 2U;
 129              		.loc 1 109 21
 130 00ac 7B68     		ldr	r3, [r7, #4]
 131 00ae 0222     		movs	r2, #2
 132 00b0 DA81     		strh	r2, [r3, #14]	@ movhi
 110:./Libraries/CMSIS/DSP/Source/TransformFunctions/arm_cfft_radix2_init_q15.c ****     /*  Initialise the bit reversal table pointer */
 111:./Libraries/CMSIS/DSP/Source/TransformFunctions/arm_cfft_radix2_init_q15.c ****     S->pBitRevTable = (uint16_t *) & armBitRevTable[1];
 133              		.loc 1 111 21
 134 00b2 7B68     		ldr	r3, [r7, #4]
 135 00b4 2C4A     		ldr	r2, .L14+8
 136 00b6 9A60     		str	r2, [r3, #8]
 112:./Libraries/CMSIS/DSP/Source/TransformFunctions/arm_cfft_radix2_init_q15.c **** 
 113:./Libraries/CMSIS/DSP/Source/TransformFunctions/arm_cfft_radix2_init_q15.c ****     break;
 137              		.loc 1 113 5
 138 00b8 4AE0     		b	.L12
 139              	.L5:
 114:./Libraries/CMSIS/DSP/Source/TransformFunctions/arm_cfft_radix2_init_q15.c **** 
 115:./Libraries/CMSIS/DSP/Source/TransformFunctions/arm_cfft_radix2_init_q15.c ****   case 1024U:
 116:./Libraries/CMSIS/DSP/Source/TransformFunctions/arm_cfft_radix2_init_q15.c ****     /*  Initializations of structure parameters for 1024 point FFT */
 117:./Libraries/CMSIS/DSP/Source/TransformFunctions/arm_cfft_radix2_init_q15.c ****     S->twidCoefModifier = 4U;
 140              		.loc 1 117 25
 141 00ba 7B68     		ldr	r3, [r7, #4]
 142 00bc 0422     		movs	r2, #4
 143 00be 9A81     		strh	r2, [r3, #12]	@ movhi
 118:./Libraries/CMSIS/DSP/Source/TransformFunctions/arm_cfft_radix2_init_q15.c ****     S->bitRevFactor = 4U;
 144              		.loc 1 118 21
 145 00c0 7B68     		ldr	r3, [r7, #4]
 146 00c2 0422     		movs	r2, #4
 147 00c4 DA81     		strh	r2, [r3, #14]	@ movhi
 119:./Libraries/CMSIS/DSP/Source/TransformFunctions/arm_cfft_radix2_init_q15.c ****     S->pBitRevTable = (uint16_t *) & armBitRevTable[3];
 148              		.loc 1 119 21
 149 00c6 7B68     		ldr	r3, [r7, #4]
 150 00c8 284A     		ldr	r2, .L14+12
 151 00ca 9A60     		str	r2, [r3, #8]
 120:./Libraries/CMSIS/DSP/Source/TransformFunctions/arm_cfft_radix2_init_q15.c **** 
 121:./Libraries/CMSIS/DSP/Source/TransformFunctions/arm_cfft_radix2_init_q15.c ****     break;
 152              		.loc 1 121 5
 153 00cc 40E0     		b	.L12
 154              	.L6:
 122:./Libraries/CMSIS/DSP/Source/TransformFunctions/arm_cfft_radix2_init_q15.c **** 
 123:./Libraries/CMSIS/DSP/Source/TransformFunctions/arm_cfft_radix2_init_q15.c ****   case 512U:
 124:./Libraries/CMSIS/DSP/Source/TransformFunctions/arm_cfft_radix2_init_q15.c ****     /*  Initializations of structure parameters for 512 point FFT */
 125:./Libraries/CMSIS/DSP/Source/TransformFunctions/arm_cfft_radix2_init_q15.c ****     S->twidCoefModifier = 8U;
 155              		.loc 1 125 25
 156 00ce 7B68     		ldr	r3, [r7, #4]
 157 00d0 0822     		movs	r2, #8
 158 00d2 9A81     		strh	r2, [r3, #12]	@ movhi
 126:./Libraries/CMSIS/DSP/Source/TransformFunctions/arm_cfft_radix2_init_q15.c ****     S->bitRevFactor = 8U;
 159              		.loc 1 126 21
 160 00d4 7B68     		ldr	r3, [r7, #4]
ARM GAS  /tmp/cc7Qiqtl.s 			page 6


 161 00d6 0822     		movs	r2, #8
 162 00d8 DA81     		strh	r2, [r3, #14]	@ movhi
 127:./Libraries/CMSIS/DSP/Source/TransformFunctions/arm_cfft_radix2_init_q15.c ****     S->pBitRevTable = (uint16_t *) & armBitRevTable[7];
 163              		.loc 1 127 21
 164 00da 7B68     		ldr	r3, [r7, #4]
 165 00dc 244A     		ldr	r2, .L14+16
 166 00de 9A60     		str	r2, [r3, #8]
 128:./Libraries/CMSIS/DSP/Source/TransformFunctions/arm_cfft_radix2_init_q15.c **** 
 129:./Libraries/CMSIS/DSP/Source/TransformFunctions/arm_cfft_radix2_init_q15.c ****     break;
 167              		.loc 1 129 5
 168 00e0 36E0     		b	.L12
 169              	.L7:
 130:./Libraries/CMSIS/DSP/Source/TransformFunctions/arm_cfft_radix2_init_q15.c **** 
 131:./Libraries/CMSIS/DSP/Source/TransformFunctions/arm_cfft_radix2_init_q15.c ****   case 256U:
 132:./Libraries/CMSIS/DSP/Source/TransformFunctions/arm_cfft_radix2_init_q15.c ****     /*  Initializations of structure parameters for 256 point FFT */
 133:./Libraries/CMSIS/DSP/Source/TransformFunctions/arm_cfft_radix2_init_q15.c ****     S->twidCoefModifier = 16U;
 170              		.loc 1 133 25
 171 00e2 7B68     		ldr	r3, [r7, #4]
 172 00e4 1022     		movs	r2, #16
 173 00e6 9A81     		strh	r2, [r3, #12]	@ movhi
 134:./Libraries/CMSIS/DSP/Source/TransformFunctions/arm_cfft_radix2_init_q15.c ****     S->bitRevFactor = 16U;
 174              		.loc 1 134 21
 175 00e8 7B68     		ldr	r3, [r7, #4]
 176 00ea 1022     		movs	r2, #16
 177 00ec DA81     		strh	r2, [r3, #14]	@ movhi
 135:./Libraries/CMSIS/DSP/Source/TransformFunctions/arm_cfft_radix2_init_q15.c ****     S->pBitRevTable = (uint16_t *) & armBitRevTable[15];
 178              		.loc 1 135 21
 179 00ee 7B68     		ldr	r3, [r7, #4]
 180 00f0 204A     		ldr	r2, .L14+20
 181 00f2 9A60     		str	r2, [r3, #8]
 136:./Libraries/CMSIS/DSP/Source/TransformFunctions/arm_cfft_radix2_init_q15.c **** 
 137:./Libraries/CMSIS/DSP/Source/TransformFunctions/arm_cfft_radix2_init_q15.c ****     break;
 182              		.loc 1 137 5
 183 00f4 2CE0     		b	.L12
 184              	.L8:
 138:./Libraries/CMSIS/DSP/Source/TransformFunctions/arm_cfft_radix2_init_q15.c **** 
 139:./Libraries/CMSIS/DSP/Source/TransformFunctions/arm_cfft_radix2_init_q15.c ****   case 128U:
 140:./Libraries/CMSIS/DSP/Source/TransformFunctions/arm_cfft_radix2_init_q15.c ****     /*  Initializations of structure parameters for 128 point FFT */
 141:./Libraries/CMSIS/DSP/Source/TransformFunctions/arm_cfft_radix2_init_q15.c ****     S->twidCoefModifier = 32U;
 185              		.loc 1 141 25
 186 00f6 7B68     		ldr	r3, [r7, #4]
 187 00f8 2022     		movs	r2, #32
 188 00fa 9A81     		strh	r2, [r3, #12]	@ movhi
 142:./Libraries/CMSIS/DSP/Source/TransformFunctions/arm_cfft_radix2_init_q15.c ****     S->bitRevFactor = 32U;
 189              		.loc 1 142 21
 190 00fc 7B68     		ldr	r3, [r7, #4]
 191 00fe 2022     		movs	r2, #32
 192 0100 DA81     		strh	r2, [r3, #14]	@ movhi
 143:./Libraries/CMSIS/DSP/Source/TransformFunctions/arm_cfft_radix2_init_q15.c ****     S->pBitRevTable = (uint16_t *) & armBitRevTable[31];
 193              		.loc 1 143 21
 194 0102 7B68     		ldr	r3, [r7, #4]
 195 0104 1C4A     		ldr	r2, .L14+24
 196 0106 9A60     		str	r2, [r3, #8]
 144:./Libraries/CMSIS/DSP/Source/TransformFunctions/arm_cfft_radix2_init_q15.c **** 
 145:./Libraries/CMSIS/DSP/Source/TransformFunctions/arm_cfft_radix2_init_q15.c ****     break;
 197              		.loc 1 145 5
 198 0108 22E0     		b	.L12
ARM GAS  /tmp/cc7Qiqtl.s 			page 7


 199              	.L9:
 146:./Libraries/CMSIS/DSP/Source/TransformFunctions/arm_cfft_radix2_init_q15.c **** 
 147:./Libraries/CMSIS/DSP/Source/TransformFunctions/arm_cfft_radix2_init_q15.c ****   case 64U:
 148:./Libraries/CMSIS/DSP/Source/TransformFunctions/arm_cfft_radix2_init_q15.c ****     /*  Initializations of structure parameters for 64 point FFT */
 149:./Libraries/CMSIS/DSP/Source/TransformFunctions/arm_cfft_radix2_init_q15.c ****     S->twidCoefModifier = 64U;
 200              		.loc 1 149 25
 201 010a 7B68     		ldr	r3, [r7, #4]
 202 010c 4022     		movs	r2, #64
 203 010e 9A81     		strh	r2, [r3, #12]	@ movhi
 150:./Libraries/CMSIS/DSP/Source/TransformFunctions/arm_cfft_radix2_init_q15.c ****     S->bitRevFactor = 64U;
 204              		.loc 1 150 21
 205 0110 7B68     		ldr	r3, [r7, #4]
 206 0112 4022     		movs	r2, #64
 207 0114 DA81     		strh	r2, [r3, #14]	@ movhi
 151:./Libraries/CMSIS/DSP/Source/TransformFunctions/arm_cfft_radix2_init_q15.c ****     S->pBitRevTable = (uint16_t *) & armBitRevTable[63];
 208              		.loc 1 151 21
 209 0116 7B68     		ldr	r3, [r7, #4]
 210 0118 184A     		ldr	r2, .L14+28
 211 011a 9A60     		str	r2, [r3, #8]
 152:./Libraries/CMSIS/DSP/Source/TransformFunctions/arm_cfft_radix2_init_q15.c **** 
 153:./Libraries/CMSIS/DSP/Source/TransformFunctions/arm_cfft_radix2_init_q15.c ****     break;
 212              		.loc 1 153 5
 213 011c 18E0     		b	.L12
 214              	.L11:
 154:./Libraries/CMSIS/DSP/Source/TransformFunctions/arm_cfft_radix2_init_q15.c **** 
 155:./Libraries/CMSIS/DSP/Source/TransformFunctions/arm_cfft_radix2_init_q15.c ****   case 32U:
 156:./Libraries/CMSIS/DSP/Source/TransformFunctions/arm_cfft_radix2_init_q15.c ****     /*  Initializations of structure parameters for 32 point FFT */
 157:./Libraries/CMSIS/DSP/Source/TransformFunctions/arm_cfft_radix2_init_q15.c ****     S->twidCoefModifier = 128U;
 215              		.loc 1 157 25
 216 011e 7B68     		ldr	r3, [r7, #4]
 217 0120 8022     		movs	r2, #128
 218 0122 9A81     		strh	r2, [r3, #12]	@ movhi
 158:./Libraries/CMSIS/DSP/Source/TransformFunctions/arm_cfft_radix2_init_q15.c ****     S->bitRevFactor = 128U;
 219              		.loc 1 158 21
 220 0124 7B68     		ldr	r3, [r7, #4]
 221 0126 8022     		movs	r2, #128
 222 0128 DA81     		strh	r2, [r3, #14]	@ movhi
 159:./Libraries/CMSIS/DSP/Source/TransformFunctions/arm_cfft_radix2_init_q15.c ****     S->pBitRevTable = (uint16_t *) & armBitRevTable[127];
 223              		.loc 1 159 21
 224 012a 7B68     		ldr	r3, [r7, #4]
 225 012c 144A     		ldr	r2, .L14+32
 226 012e 9A60     		str	r2, [r3, #8]
 160:./Libraries/CMSIS/DSP/Source/TransformFunctions/arm_cfft_radix2_init_q15.c **** 
 161:./Libraries/CMSIS/DSP/Source/TransformFunctions/arm_cfft_radix2_init_q15.c ****     break;
 227              		.loc 1 161 5
 228 0130 0EE0     		b	.L12
 229              	.L10:
 162:./Libraries/CMSIS/DSP/Source/TransformFunctions/arm_cfft_radix2_init_q15.c **** 
 163:./Libraries/CMSIS/DSP/Source/TransformFunctions/arm_cfft_radix2_init_q15.c ****   case 16U:
 164:./Libraries/CMSIS/DSP/Source/TransformFunctions/arm_cfft_radix2_init_q15.c ****     /*  Initializations of structure parameters for 16 point FFT */
 165:./Libraries/CMSIS/DSP/Source/TransformFunctions/arm_cfft_radix2_init_q15.c ****     S->twidCoefModifier = 256U;
 230              		.loc 1 165 25
 231 0132 7B68     		ldr	r3, [r7, #4]
 232 0134 4FF48072 		mov	r2, #256
 233 0138 9A81     		strh	r2, [r3, #12]	@ movhi
 166:./Libraries/CMSIS/DSP/Source/TransformFunctions/arm_cfft_radix2_init_q15.c ****     S->bitRevFactor = 256U;
 234              		.loc 1 166 21
ARM GAS  /tmp/cc7Qiqtl.s 			page 8


 235 013a 7B68     		ldr	r3, [r7, #4]
 236 013c 4FF48072 		mov	r2, #256
 237 0140 DA81     		strh	r2, [r3, #14]	@ movhi
 167:./Libraries/CMSIS/DSP/Source/TransformFunctions/arm_cfft_radix2_init_q15.c ****     S->pBitRevTable = (uint16_t *) & armBitRevTable[255];
 238              		.loc 1 167 21
 239 0142 7B68     		ldr	r3, [r7, #4]
 240 0144 0F4A     		ldr	r2, .L14+36
 241 0146 9A60     		str	r2, [r3, #8]
 168:./Libraries/CMSIS/DSP/Source/TransformFunctions/arm_cfft_radix2_init_q15.c **** 
 169:./Libraries/CMSIS/DSP/Source/TransformFunctions/arm_cfft_radix2_init_q15.c ****     break;
 242              		.loc 1 169 5
 243 0148 02E0     		b	.L12
 244              	.L3:
 170:./Libraries/CMSIS/DSP/Source/TransformFunctions/arm_cfft_radix2_init_q15.c **** 
 171:./Libraries/CMSIS/DSP/Source/TransformFunctions/arm_cfft_radix2_init_q15.c ****   default:
 172:./Libraries/CMSIS/DSP/Source/TransformFunctions/arm_cfft_radix2_init_q15.c ****     /*  Reporting argument error if fftSize is not valid value */
 173:./Libraries/CMSIS/DSP/Source/TransformFunctions/arm_cfft_radix2_init_q15.c ****     status = ARM_MATH_ARGUMENT_ERROR;
 245              		.loc 1 173 12
 246 014a FF23     		movs	r3, #255
 247 014c FB73     		strb	r3, [r7, #15]
 174:./Libraries/CMSIS/DSP/Source/TransformFunctions/arm_cfft_radix2_init_q15.c ****     break;
 248              		.loc 1 174 5
 249 014e 00BF     		nop
 250              	.L12:
 175:./Libraries/CMSIS/DSP/Source/TransformFunctions/arm_cfft_radix2_init_q15.c ****   }
 176:./Libraries/CMSIS/DSP/Source/TransformFunctions/arm_cfft_radix2_init_q15.c **** 
 177:./Libraries/CMSIS/DSP/Source/TransformFunctions/arm_cfft_radix2_init_q15.c ****   return (status);
 251              		.loc 1 177 10
 252 0150 97F90F30 		ldrsb	r3, [r7, #15]
 178:./Libraries/CMSIS/DSP/Source/TransformFunctions/arm_cfft_radix2_init_q15.c **** }
 253              		.loc 1 178 1
 254 0154 1846     		mov	r0, r3
 255 0156 1437     		adds	r7, r7, #20
 256              	.LCFI3:
 257              		.cfi_def_cfa_offset 4
 258 0158 BD46     		mov	sp, r7
 259              	.LCFI4:
 260              		.cfi_def_cfa_register 13
 261              		@ sp needed
 262 015a 5DF8047B 		ldr	r7, [sp], #4
 263              	.LCFI5:
 264              		.cfi_restore 7
 265              		.cfi_def_cfa_offset 0
 266 015e 7047     		bx	lr
 267              	.L15:
 268              		.align	2
 269              	.L14:
 270 0160 00000000 		.word	twiddleCoef_4096_q15
 271 0164 00000000 		.word	armBitRevTable
 272 0168 02000000 		.word	armBitRevTable+2
 273 016c 06000000 		.word	armBitRevTable+6
 274 0170 0E000000 		.word	armBitRevTable+14
 275 0174 1E000000 		.word	armBitRevTable+30
 276 0178 3E000000 		.word	armBitRevTable+62
 277 017c 7E000000 		.word	armBitRevTable+126
 278 0180 FE000000 		.word	armBitRevTable+254
 279 0184 FE010000 		.word	armBitRevTable+510
ARM GAS  /tmp/cc7Qiqtl.s 			page 9


 280              		.cfi_endproc
 281              	.LFE145:
 283              		.text
 284              	.Letext0:
 285              		.file 2 "/usr/lib/gcc/arm-none-eabi/9.2.1/include/stdint.h"
 286              		.file 3 "/usr/lib/gcc/arm-none-eabi/9.2.1/include/stddef.h"
 287              		.file 4 "/usr/include/newlib/sys/_types.h"
 288              		.file 5 "/usr/include/newlib/sys/reent.h"
 289              		.file 6 "/usr/include/newlib/sys/lock.h"
 290              		.file 7 "/usr/include/newlib/math.h"
 291              		.file 8 "./Libraries/CMSIS/DSP/Include/arm_math.h"
 292              		.file 9 "./Libraries/CMSIS/DSP/Include/arm_common_tables.h"
ARM GAS  /tmp/cc7Qiqtl.s 			page 10

