ARM GAS  /tmp/ccanIW00.s 			page 1


   1              		.cpu cortex-m7
   2              		.eabi_attribute 28, 1
   3              		.eabi_attribute 20, 1
   4              		.eabi_attribute 21, 1
   5              		.eabi_attribute 23, 3
   6              		.eabi_attribute 24, 1
   7              		.eabi_attribute 25, 1
   8              		.eabi_attribute 26, 1
   9              		.eabi_attribute 30, 6
  10              		.eabi_attribute 34, 1
  11              		.eabi_attribute 18, 4
  12              		.file	"arm_cfft_radix4_q31.c"
  13              		.text
  14              	.Ltext0:
  15              		.cfi_sections	.debug_frame
  16              		.section	.text.arm_cfft_radix4_q31,"ax",%progbits
  17              		.align	1
  18              		.global	arm_cfft_radix4_q31
  19              		.arch armv7e-m
  20              		.syntax unified
  21              		.thumb
  22              		.thumb_func
  23              		.fpu fpv5-d16
  25              	arm_cfft_radix4_q31:
  26              	.LFB145:
  27              		.file 1 "./Libraries/CMSIS/DSP/Source/TransformFunctions/arm_cfft_radix4_q31.c"
   1:./Libraries/CMSIS/DSP/Source/TransformFunctions/arm_cfft_radix4_q31.c **** /* ----------------------------------------------------------------------
   2:./Libraries/CMSIS/DSP/Source/TransformFunctions/arm_cfft_radix4_q31.c ****  * Project:      CMSIS DSP Library
   3:./Libraries/CMSIS/DSP/Source/TransformFunctions/arm_cfft_radix4_q31.c ****  * Title:        arm_cfft_radix4_q31.c
   4:./Libraries/CMSIS/DSP/Source/TransformFunctions/arm_cfft_radix4_q31.c ****  * Description:  This file has function definition of Radix-4 FFT & IFFT function and
   5:./Libraries/CMSIS/DSP/Source/TransformFunctions/arm_cfft_radix4_q31.c ****  *               In-place bit reversal using bit reversal table
   6:./Libraries/CMSIS/DSP/Source/TransformFunctions/arm_cfft_radix4_q31.c ****  *
   7:./Libraries/CMSIS/DSP/Source/TransformFunctions/arm_cfft_radix4_q31.c ****  * $Date:        18. March 2019
   8:./Libraries/CMSIS/DSP/Source/TransformFunctions/arm_cfft_radix4_q31.c ****  * $Revision:    V1.6.0
   9:./Libraries/CMSIS/DSP/Source/TransformFunctions/arm_cfft_radix4_q31.c ****  *
  10:./Libraries/CMSIS/DSP/Source/TransformFunctions/arm_cfft_radix4_q31.c ****  * Target Processor: Cortex-M cores
  11:./Libraries/CMSIS/DSP/Source/TransformFunctions/arm_cfft_radix4_q31.c ****  * -------------------------------------------------------------------- */
  12:./Libraries/CMSIS/DSP/Source/TransformFunctions/arm_cfft_radix4_q31.c **** /*
  13:./Libraries/CMSIS/DSP/Source/TransformFunctions/arm_cfft_radix4_q31.c ****  * Copyright (C) 2010-2019 ARM Limited or its affiliates. All rights reserved.
  14:./Libraries/CMSIS/DSP/Source/TransformFunctions/arm_cfft_radix4_q31.c ****  *
  15:./Libraries/CMSIS/DSP/Source/TransformFunctions/arm_cfft_radix4_q31.c ****  * SPDX-License-Identifier: Apache-2.0
  16:./Libraries/CMSIS/DSP/Source/TransformFunctions/arm_cfft_radix4_q31.c ****  *
  17:./Libraries/CMSIS/DSP/Source/TransformFunctions/arm_cfft_radix4_q31.c ****  * Licensed under the Apache License, Version 2.0 (the License); you may
  18:./Libraries/CMSIS/DSP/Source/TransformFunctions/arm_cfft_radix4_q31.c ****  * not use this file except in compliance with the License.
  19:./Libraries/CMSIS/DSP/Source/TransformFunctions/arm_cfft_radix4_q31.c ****  * You may obtain a copy of the License at
  20:./Libraries/CMSIS/DSP/Source/TransformFunctions/arm_cfft_radix4_q31.c ****  *
  21:./Libraries/CMSIS/DSP/Source/TransformFunctions/arm_cfft_radix4_q31.c ****  * www.apache.org/licenses/LICENSE-2.0
  22:./Libraries/CMSIS/DSP/Source/TransformFunctions/arm_cfft_radix4_q31.c ****  *
  23:./Libraries/CMSIS/DSP/Source/TransformFunctions/arm_cfft_radix4_q31.c ****  * Unless required by applicable law or agreed to in writing, software
  24:./Libraries/CMSIS/DSP/Source/TransformFunctions/arm_cfft_radix4_q31.c ****  * distributed under the License is distributed on an AS IS BASIS, WITHOUT
  25:./Libraries/CMSIS/DSP/Source/TransformFunctions/arm_cfft_radix4_q31.c ****  * WARRANTIES OR CONDITIONS OF ANY KIND, either express or implied.
  26:./Libraries/CMSIS/DSP/Source/TransformFunctions/arm_cfft_radix4_q31.c ****  * See the License for the specific language governing permissions and
  27:./Libraries/CMSIS/DSP/Source/TransformFunctions/arm_cfft_radix4_q31.c ****  * limitations under the License.
  28:./Libraries/CMSIS/DSP/Source/TransformFunctions/arm_cfft_radix4_q31.c ****  */
  29:./Libraries/CMSIS/DSP/Source/TransformFunctions/arm_cfft_radix4_q31.c **** 
  30:./Libraries/CMSIS/DSP/Source/TransformFunctions/arm_cfft_radix4_q31.c **** #include "arm_math.h"
  31:./Libraries/CMSIS/DSP/Source/TransformFunctions/arm_cfft_radix4_q31.c **** 
ARM GAS  /tmp/ccanIW00.s 			page 2


  32:./Libraries/CMSIS/DSP/Source/TransformFunctions/arm_cfft_radix4_q31.c **** void arm_radix4_butterfly_inverse_q31(
  33:./Libraries/CMSIS/DSP/Source/TransformFunctions/arm_cfft_radix4_q31.c ****         q31_t * pSrc,
  34:./Libraries/CMSIS/DSP/Source/TransformFunctions/arm_cfft_radix4_q31.c ****         uint32_t fftLen,
  35:./Libraries/CMSIS/DSP/Source/TransformFunctions/arm_cfft_radix4_q31.c ****   const q31_t * pCoef,
  36:./Libraries/CMSIS/DSP/Source/TransformFunctions/arm_cfft_radix4_q31.c ****         uint32_t twidCoefModifier);
  37:./Libraries/CMSIS/DSP/Source/TransformFunctions/arm_cfft_radix4_q31.c **** 
  38:./Libraries/CMSIS/DSP/Source/TransformFunctions/arm_cfft_radix4_q31.c **** void arm_radix4_butterfly_q31(
  39:./Libraries/CMSIS/DSP/Source/TransformFunctions/arm_cfft_radix4_q31.c ****         q31_t * pSrc,
  40:./Libraries/CMSIS/DSP/Source/TransformFunctions/arm_cfft_radix4_q31.c ****         uint32_t fftLen,
  41:./Libraries/CMSIS/DSP/Source/TransformFunctions/arm_cfft_radix4_q31.c ****   const q31_t * pCoef,
  42:./Libraries/CMSIS/DSP/Source/TransformFunctions/arm_cfft_radix4_q31.c ****         uint32_t twidCoefModifier);
  43:./Libraries/CMSIS/DSP/Source/TransformFunctions/arm_cfft_radix4_q31.c **** 
  44:./Libraries/CMSIS/DSP/Source/TransformFunctions/arm_cfft_radix4_q31.c **** void arm_bitreversal_q31(
  45:./Libraries/CMSIS/DSP/Source/TransformFunctions/arm_cfft_radix4_q31.c ****         q31_t * pSrc,
  46:./Libraries/CMSIS/DSP/Source/TransformFunctions/arm_cfft_radix4_q31.c ****         uint32_t fftLen,
  47:./Libraries/CMSIS/DSP/Source/TransformFunctions/arm_cfft_radix4_q31.c ****         uint16_t bitRevFactor,
  48:./Libraries/CMSIS/DSP/Source/TransformFunctions/arm_cfft_radix4_q31.c ****   const uint16_t * pBitRevTab);
  49:./Libraries/CMSIS/DSP/Source/TransformFunctions/arm_cfft_radix4_q31.c **** 
  50:./Libraries/CMSIS/DSP/Source/TransformFunctions/arm_cfft_radix4_q31.c **** /**
  51:./Libraries/CMSIS/DSP/Source/TransformFunctions/arm_cfft_radix4_q31.c ****   @ingroup groupTransforms
  52:./Libraries/CMSIS/DSP/Source/TransformFunctions/arm_cfft_radix4_q31.c ****  */
  53:./Libraries/CMSIS/DSP/Source/TransformFunctions/arm_cfft_radix4_q31.c **** 
  54:./Libraries/CMSIS/DSP/Source/TransformFunctions/arm_cfft_radix4_q31.c **** /**
  55:./Libraries/CMSIS/DSP/Source/TransformFunctions/arm_cfft_radix4_q31.c ****   @addtogroup ComplexFFT
  56:./Libraries/CMSIS/DSP/Source/TransformFunctions/arm_cfft_radix4_q31.c ****   @{
  57:./Libraries/CMSIS/DSP/Source/TransformFunctions/arm_cfft_radix4_q31.c ****  */
  58:./Libraries/CMSIS/DSP/Source/TransformFunctions/arm_cfft_radix4_q31.c **** 
  59:./Libraries/CMSIS/DSP/Source/TransformFunctions/arm_cfft_radix4_q31.c **** /**
  60:./Libraries/CMSIS/DSP/Source/TransformFunctions/arm_cfft_radix4_q31.c ****   @brief         Processing function for the Q31 CFFT/CIFFT.
  61:./Libraries/CMSIS/DSP/Source/TransformFunctions/arm_cfft_radix4_q31.c ****   @deprecated    Do not use this function.  It has been superseded by \ref arm_cfft_q31 and will be
  62:./Libraries/CMSIS/DSP/Source/TransformFunctions/arm_cfft_radix4_q31.c ****   @param[in]     S    points to an instance of the Q31 CFFT/CIFFT structure
  63:./Libraries/CMSIS/DSP/Source/TransformFunctions/arm_cfft_radix4_q31.c ****   @param[in,out] pSrc points to the complex data buffer of size <code>2*fftLen</code>. Processing o
  64:./Libraries/CMSIS/DSP/Source/TransformFunctions/arm_cfft_radix4_q31.c ****   @return        none
  65:./Libraries/CMSIS/DSP/Source/TransformFunctions/arm_cfft_radix4_q31.c ****  
  66:./Libraries/CMSIS/DSP/Source/TransformFunctions/arm_cfft_radix4_q31.c ****   @par Input and output formats:
  67:./Libraries/CMSIS/DSP/Source/TransformFunctions/arm_cfft_radix4_q31.c ****                  Internally input is downscaled by 2 for every stage to avoid saturations inside CF
  68:./Libraries/CMSIS/DSP/Source/TransformFunctions/arm_cfft_radix4_q31.c ****                  Hence the output format is different for different FFT sizes.
  69:./Libraries/CMSIS/DSP/Source/TransformFunctions/arm_cfft_radix4_q31.c ****                  The input and output formats for different FFT sizes and number of bits to upscale
  70:./Libraries/CMSIS/DSP/Source/TransformFunctions/arm_cfft_radix4_q31.c ****   @par
  71:./Libraries/CMSIS/DSP/Source/TransformFunctions/arm_cfft_radix4_q31.c ****                  \image html CFFTQ31.gif "Input and Output Formats for Q31 CFFT"
  72:./Libraries/CMSIS/DSP/Source/TransformFunctions/arm_cfft_radix4_q31.c ****                  \image html CIFFTQ31.gif "Input and Output Formats for Q31 CIFFT"
  73:./Libraries/CMSIS/DSP/Source/TransformFunctions/arm_cfft_radix4_q31.c ****  */
  74:./Libraries/CMSIS/DSP/Source/TransformFunctions/arm_cfft_radix4_q31.c **** 
  75:./Libraries/CMSIS/DSP/Source/TransformFunctions/arm_cfft_radix4_q31.c **** void arm_cfft_radix4_q31(
  76:./Libraries/CMSIS/DSP/Source/TransformFunctions/arm_cfft_radix4_q31.c ****   const arm_cfft_radix4_instance_q31 * S,
  77:./Libraries/CMSIS/DSP/Source/TransformFunctions/arm_cfft_radix4_q31.c ****         q31_t * pSrc)
  78:./Libraries/CMSIS/DSP/Source/TransformFunctions/arm_cfft_radix4_q31.c **** {
  28              		.loc 1 78 1
  29              		.cfi_startproc
  30              		@ args = 0, pretend = 0, frame = 8
  31              		@ frame_needed = 1, uses_anonymous_args = 0
  32 0000 80B5     		push	{r7, lr}
  33              	.LCFI0:
  34              		.cfi_def_cfa_offset 8
  35              		.cfi_offset 7, -8
  36              		.cfi_offset 14, -4
  37 0002 82B0     		sub	sp, sp, #8
ARM GAS  /tmp/ccanIW00.s 			page 3


  38              	.LCFI1:
  39              		.cfi_def_cfa_offset 16
  40 0004 00AF     		add	r7, sp, #0
  41              	.LCFI2:
  42              		.cfi_def_cfa_register 7
  43 0006 7860     		str	r0, [r7, #4]
  44 0008 3960     		str	r1, [r7]
  79:./Libraries/CMSIS/DSP/Source/TransformFunctions/arm_cfft_radix4_q31.c ****   if (S->ifftFlag == 1U)
  45              		.loc 1 79 8
  46 000a 7B68     		ldr	r3, [r7, #4]
  47 000c 9B78     		ldrb	r3, [r3, #2]	@ zero_extendqisi2
  48              		.loc 1 79 6
  49 000e 012B     		cmp	r3, #1
  50 0010 0AD1     		bne	.L2
  80:./Libraries/CMSIS/DSP/Source/TransformFunctions/arm_cfft_radix4_q31.c ****   {
  81:./Libraries/CMSIS/DSP/Source/TransformFunctions/arm_cfft_radix4_q31.c ****     /* Complex IFFT radix-4 */
  82:./Libraries/CMSIS/DSP/Source/TransformFunctions/arm_cfft_radix4_q31.c ****     arm_radix4_butterfly_inverse_q31(pSrc, S->fftLen, S->pTwiddle, S->twidCoefModifier);
  51              		.loc 1 82 45
  52 0012 7B68     		ldr	r3, [r7, #4]
  53 0014 1B88     		ldrh	r3, [r3]
  54              		.loc 1 82 5
  55 0016 1946     		mov	r1, r3
  56 0018 7B68     		ldr	r3, [r7, #4]
  57 001a 5A68     		ldr	r2, [r3, #4]
  58              		.loc 1 82 69
  59 001c 7B68     		ldr	r3, [r7, #4]
  60 001e 9B89     		ldrh	r3, [r3, #12]
  61              		.loc 1 82 5
  62 0020 3868     		ldr	r0, [r7]
  63 0022 FFF7FEFF 		bl	arm_radix4_butterfly_inverse_q31
  64 0026 09E0     		b	.L3
  65              	.L2:
  83:./Libraries/CMSIS/DSP/Source/TransformFunctions/arm_cfft_radix4_q31.c ****   }
  84:./Libraries/CMSIS/DSP/Source/TransformFunctions/arm_cfft_radix4_q31.c ****   else
  85:./Libraries/CMSIS/DSP/Source/TransformFunctions/arm_cfft_radix4_q31.c ****   {
  86:./Libraries/CMSIS/DSP/Source/TransformFunctions/arm_cfft_radix4_q31.c ****     /* Complex FFT radix-4 */
  87:./Libraries/CMSIS/DSP/Source/TransformFunctions/arm_cfft_radix4_q31.c ****     arm_radix4_butterfly_q31(pSrc, S->fftLen, S->pTwiddle, S->twidCoefModifier);
  66              		.loc 1 87 37
  67 0028 7B68     		ldr	r3, [r7, #4]
  68 002a 1B88     		ldrh	r3, [r3]
  69              		.loc 1 87 5
  70 002c 1946     		mov	r1, r3
  71 002e 7B68     		ldr	r3, [r7, #4]
  72 0030 5A68     		ldr	r2, [r3, #4]
  73              		.loc 1 87 61
  74 0032 7B68     		ldr	r3, [r7, #4]
  75 0034 9B89     		ldrh	r3, [r3, #12]
  76              		.loc 1 87 5
  77 0036 3868     		ldr	r0, [r7]
  78 0038 FFF7FEFF 		bl	arm_radix4_butterfly_q31
  79              	.L3:
  88:./Libraries/CMSIS/DSP/Source/TransformFunctions/arm_cfft_radix4_q31.c ****   }
  89:./Libraries/CMSIS/DSP/Source/TransformFunctions/arm_cfft_radix4_q31.c **** 
  90:./Libraries/CMSIS/DSP/Source/TransformFunctions/arm_cfft_radix4_q31.c ****   if (S->bitReverseFlag == 1U)
  80              		.loc 1 90 8
  81 003c 7B68     		ldr	r3, [r7, #4]
  82 003e DB78     		ldrb	r3, [r3, #3]	@ zero_extendqisi2
ARM GAS  /tmp/ccanIW00.s 			page 4


  83              		.loc 1 90 6
  84 0040 012B     		cmp	r3, #1
  85 0042 09D1     		bne	.L5
  91:./Libraries/CMSIS/DSP/Source/TransformFunctions/arm_cfft_radix4_q31.c ****   {
  92:./Libraries/CMSIS/DSP/Source/TransformFunctions/arm_cfft_radix4_q31.c ****     /*  Bit Reversal */
  93:./Libraries/CMSIS/DSP/Source/TransformFunctions/arm_cfft_radix4_q31.c ****     arm_bitreversal_q31(pSrc, S->fftLen, S->bitRevFactor, S->pBitRevTable);
  86              		.loc 1 93 32
  87 0044 7B68     		ldr	r3, [r7, #4]
  88 0046 1B88     		ldrh	r3, [r3]
  89              		.loc 1 93 5
  90 0048 1946     		mov	r1, r3
  91 004a 7B68     		ldr	r3, [r7, #4]
  92 004c DA89     		ldrh	r2, [r3, #14]
  93 004e 7B68     		ldr	r3, [r7, #4]
  94 0050 9B68     		ldr	r3, [r3, #8]
  95 0052 3868     		ldr	r0, [r7]
  96 0054 FFF7FEFF 		bl	arm_bitreversal_q31
  97              	.L5:
  94:./Libraries/CMSIS/DSP/Source/TransformFunctions/arm_cfft_radix4_q31.c ****   }
  95:./Libraries/CMSIS/DSP/Source/TransformFunctions/arm_cfft_radix4_q31.c **** 
  96:./Libraries/CMSIS/DSP/Source/TransformFunctions/arm_cfft_radix4_q31.c **** }
  98              		.loc 1 96 1
  99 0058 00BF     		nop
 100 005a 0837     		adds	r7, r7, #8
 101              	.LCFI3:
 102              		.cfi_def_cfa_offset 8
 103 005c BD46     		mov	sp, r7
 104              	.LCFI4:
 105              		.cfi_def_cfa_register 13
 106              		@ sp needed
 107 005e 80BD     		pop	{r7, pc}
 108              		.cfi_endproc
 109              	.LFE145:
 111              		.section	.text.arm_radix4_butterfly_q31,"ax",%progbits
 112              		.align	1
 113              		.global	arm_radix4_butterfly_q31
 114              		.syntax unified
 115              		.thumb
 116              		.thumb_func
 117              		.fpu fpv5-d16
 119              	arm_radix4_butterfly_q31:
 120              	.LFB146:
  97:./Libraries/CMSIS/DSP/Source/TransformFunctions/arm_cfft_radix4_q31.c **** 
  98:./Libraries/CMSIS/DSP/Source/TransformFunctions/arm_cfft_radix4_q31.c **** /**
  99:./Libraries/CMSIS/DSP/Source/TransformFunctions/arm_cfft_radix4_q31.c ****   @} end of ComplexFFT group
 100:./Libraries/CMSIS/DSP/Source/TransformFunctions/arm_cfft_radix4_q31.c ****  */
 101:./Libraries/CMSIS/DSP/Source/TransformFunctions/arm_cfft_radix4_q31.c **** 
 102:./Libraries/CMSIS/DSP/Source/TransformFunctions/arm_cfft_radix4_q31.c **** /*
 103:./Libraries/CMSIS/DSP/Source/TransformFunctions/arm_cfft_radix4_q31.c ****  * Radix-4 FFT algorithm used is :
 104:./Libraries/CMSIS/DSP/Source/TransformFunctions/arm_cfft_radix4_q31.c ****  *
 105:./Libraries/CMSIS/DSP/Source/TransformFunctions/arm_cfft_radix4_q31.c ****  * Input real and imaginary data:
 106:./Libraries/CMSIS/DSP/Source/TransformFunctions/arm_cfft_radix4_q31.c ****  * x(n) = xa + j * ya
 107:./Libraries/CMSIS/DSP/Source/TransformFunctions/arm_cfft_radix4_q31.c ****  * x(n+N/4 ) = xb + j * yb
 108:./Libraries/CMSIS/DSP/Source/TransformFunctions/arm_cfft_radix4_q31.c ****  * x(n+N/2 ) = xc + j * yc
 109:./Libraries/CMSIS/DSP/Source/TransformFunctions/arm_cfft_radix4_q31.c ****  * x(n+3N 4) = xd + j * yd
 110:./Libraries/CMSIS/DSP/Source/TransformFunctions/arm_cfft_radix4_q31.c ****  *
 111:./Libraries/CMSIS/DSP/Source/TransformFunctions/arm_cfft_radix4_q31.c ****  *
ARM GAS  /tmp/ccanIW00.s 			page 5


 112:./Libraries/CMSIS/DSP/Source/TransformFunctions/arm_cfft_radix4_q31.c ****  * Output real and imaginary data:
 113:./Libraries/CMSIS/DSP/Source/TransformFunctions/arm_cfft_radix4_q31.c ****  * x(4r) = xa'+ j * ya'
 114:./Libraries/CMSIS/DSP/Source/TransformFunctions/arm_cfft_radix4_q31.c ****  * x(4r+1) = xb'+ j * yb'
 115:./Libraries/CMSIS/DSP/Source/TransformFunctions/arm_cfft_radix4_q31.c ****  * x(4r+2) = xc'+ j * yc'
 116:./Libraries/CMSIS/DSP/Source/TransformFunctions/arm_cfft_radix4_q31.c ****  * x(4r+3) = xd'+ j * yd'
 117:./Libraries/CMSIS/DSP/Source/TransformFunctions/arm_cfft_radix4_q31.c ****  *
 118:./Libraries/CMSIS/DSP/Source/TransformFunctions/arm_cfft_radix4_q31.c ****  *
 119:./Libraries/CMSIS/DSP/Source/TransformFunctions/arm_cfft_radix4_q31.c ****  * Twiddle factors for radix-4 FFT:
 120:./Libraries/CMSIS/DSP/Source/TransformFunctions/arm_cfft_radix4_q31.c ****  * Wn = co1 + j * (- si1)
 121:./Libraries/CMSIS/DSP/Source/TransformFunctions/arm_cfft_radix4_q31.c ****  * W2n = co2 + j * (- si2)
 122:./Libraries/CMSIS/DSP/Source/TransformFunctions/arm_cfft_radix4_q31.c ****  * W3n = co3 + j * (- si3)
 123:./Libraries/CMSIS/DSP/Source/TransformFunctions/arm_cfft_radix4_q31.c ****  *
 124:./Libraries/CMSIS/DSP/Source/TransformFunctions/arm_cfft_radix4_q31.c ****  *  Butterfly implementation:
 125:./Libraries/CMSIS/DSP/Source/TransformFunctions/arm_cfft_radix4_q31.c ****  * xa' = xa + xb + xc + xd
 126:./Libraries/CMSIS/DSP/Source/TransformFunctions/arm_cfft_radix4_q31.c ****  * ya' = ya + yb + yc + yd
 127:./Libraries/CMSIS/DSP/Source/TransformFunctions/arm_cfft_radix4_q31.c ****  * xb' = (xa+yb-xc-yd)* co1 + (ya-xb-yc+xd)* (si1)
 128:./Libraries/CMSIS/DSP/Source/TransformFunctions/arm_cfft_radix4_q31.c ****  * yb' = (ya-xb-yc+xd)* co1 - (xa+yb-xc-yd)* (si1)
 129:./Libraries/CMSIS/DSP/Source/TransformFunctions/arm_cfft_radix4_q31.c ****  * xc' = (xa-xb+xc-xd)* co2 + (ya-yb+yc-yd)* (si2)
 130:./Libraries/CMSIS/DSP/Source/TransformFunctions/arm_cfft_radix4_q31.c ****  * yc' = (ya-yb+yc-yd)* co2 - (xa-xb+xc-xd)* (si2)
 131:./Libraries/CMSIS/DSP/Source/TransformFunctions/arm_cfft_radix4_q31.c ****  * xd' = (xa-yb-xc+yd)* co3 + (ya+xb-yc-xd)* (si3)
 132:./Libraries/CMSIS/DSP/Source/TransformFunctions/arm_cfft_radix4_q31.c ****  * yd' = (ya+xb-yc-xd)* co3 - (xa-yb-xc+yd)* (si3)
 133:./Libraries/CMSIS/DSP/Source/TransformFunctions/arm_cfft_radix4_q31.c ****  *
 134:./Libraries/CMSIS/DSP/Source/TransformFunctions/arm_cfft_radix4_q31.c ****  */
 135:./Libraries/CMSIS/DSP/Source/TransformFunctions/arm_cfft_radix4_q31.c **** 
 136:./Libraries/CMSIS/DSP/Source/TransformFunctions/arm_cfft_radix4_q31.c **** /**
 137:./Libraries/CMSIS/DSP/Source/TransformFunctions/arm_cfft_radix4_q31.c ****   @brief         Core function for the Q31 CFFT butterfly process.
 138:./Libraries/CMSIS/DSP/Source/TransformFunctions/arm_cfft_radix4_q31.c ****   @param[in,out] pSrc             points to the in-place buffer of Q31 data type.
 139:./Libraries/CMSIS/DSP/Source/TransformFunctions/arm_cfft_radix4_q31.c ****   @param[in]     fftLen           length of the FFT.
 140:./Libraries/CMSIS/DSP/Source/TransformFunctions/arm_cfft_radix4_q31.c ****   @param[in]     pCoef            points to twiddle coefficient buffer.
 141:./Libraries/CMSIS/DSP/Source/TransformFunctions/arm_cfft_radix4_q31.c ****   @param[in]     twidCoefModifier twiddle coefficient modifier that supports different size FFTs wi
 142:./Libraries/CMSIS/DSP/Source/TransformFunctions/arm_cfft_radix4_q31.c ****   @return        none
 143:./Libraries/CMSIS/DSP/Source/TransformFunctions/arm_cfft_radix4_q31.c ****  */
 144:./Libraries/CMSIS/DSP/Source/TransformFunctions/arm_cfft_radix4_q31.c **** 
 145:./Libraries/CMSIS/DSP/Source/TransformFunctions/arm_cfft_radix4_q31.c **** void arm_radix4_butterfly_q31(
 146:./Libraries/CMSIS/DSP/Source/TransformFunctions/arm_cfft_radix4_q31.c ****         q31_t * pSrc,
 147:./Libraries/CMSIS/DSP/Source/TransformFunctions/arm_cfft_radix4_q31.c ****         uint32_t fftLen,
 148:./Libraries/CMSIS/DSP/Source/TransformFunctions/arm_cfft_radix4_q31.c ****   const q31_t * pCoef,
 149:./Libraries/CMSIS/DSP/Source/TransformFunctions/arm_cfft_radix4_q31.c ****         uint32_t twidCoefModifier)
 150:./Libraries/CMSIS/DSP/Source/TransformFunctions/arm_cfft_radix4_q31.c **** {
 121              		.loc 1 150 1
 122              		.cfi_startproc
 123              		@ args = 0, pretend = 0, frame = 176
 124              		@ frame_needed = 1, uses_anonymous_args = 0
 125              		@ link register save eliminated.
 126 0000 F0B4     		push	{r4, r5, r6, r7}
 127              	.LCFI5:
 128              		.cfi_def_cfa_offset 16
 129              		.cfi_offset 4, -16
 130              		.cfi_offset 5, -12
 131              		.cfi_offset 6, -8
 132              		.cfi_offset 7, -4
 133 0002 ACB0     		sub	sp, sp, #176
 134              	.LCFI6:
 135              		.cfi_def_cfa_offset 192
 136 0004 00AF     		add	r7, sp, #0
 137              	.LCFI7:
 138              		.cfi_def_cfa_register 7
ARM GAS  /tmp/ccanIW00.s 			page 6


 139 0006 F860     		str	r0, [r7, #12]
 140 0008 B960     		str	r1, [r7, #8]
 141 000a 7A60     		str	r2, [r7, #4]
 142 000c 3B60     		str	r3, [r7]
 151:./Libraries/CMSIS/DSP/Source/TransformFunctions/arm_cfft_radix4_q31.c ****         uint32_t n1, n2, ia1, ia2, ia3, i0, i1, i2, i3, j, k;
 152:./Libraries/CMSIS/DSP/Source/TransformFunctions/arm_cfft_radix4_q31.c ****         q31_t t1, t2, r1, r2, s1, s2, co1, co2, co3, si1, si2, si3;
 153:./Libraries/CMSIS/DSP/Source/TransformFunctions/arm_cfft_radix4_q31.c ****         
 154:./Libraries/CMSIS/DSP/Source/TransformFunctions/arm_cfft_radix4_q31.c ****         q31_t xa, xb, xc, xd;
 155:./Libraries/CMSIS/DSP/Source/TransformFunctions/arm_cfft_radix4_q31.c ****         q31_t ya, yb, yc, yd;
 156:./Libraries/CMSIS/DSP/Source/TransformFunctions/arm_cfft_radix4_q31.c ****         q31_t xa_out, xb_out, xc_out, xd_out;
 157:./Libraries/CMSIS/DSP/Source/TransformFunctions/arm_cfft_radix4_q31.c ****         q31_t ya_out, yb_out, yc_out, yd_out;
 158:./Libraries/CMSIS/DSP/Source/TransformFunctions/arm_cfft_radix4_q31.c ****         
 159:./Libraries/CMSIS/DSP/Source/TransformFunctions/arm_cfft_radix4_q31.c ****         q31_t *ptr1;
 160:./Libraries/CMSIS/DSP/Source/TransformFunctions/arm_cfft_radix4_q31.c **** 
 161:./Libraries/CMSIS/DSP/Source/TransformFunctions/arm_cfft_radix4_q31.c ****   /* Total process is divided into three stages */
 162:./Libraries/CMSIS/DSP/Source/TransformFunctions/arm_cfft_radix4_q31.c **** 
 163:./Libraries/CMSIS/DSP/Source/TransformFunctions/arm_cfft_radix4_q31.c ****   /* process first stage, middle stages, & last stage */
 164:./Libraries/CMSIS/DSP/Source/TransformFunctions/arm_cfft_radix4_q31.c **** 
 165:./Libraries/CMSIS/DSP/Source/TransformFunctions/arm_cfft_radix4_q31.c **** 
 166:./Libraries/CMSIS/DSP/Source/TransformFunctions/arm_cfft_radix4_q31.c ****   /* start of first stage process */
 167:./Libraries/CMSIS/DSP/Source/TransformFunctions/arm_cfft_radix4_q31.c **** 
 168:./Libraries/CMSIS/DSP/Source/TransformFunctions/arm_cfft_radix4_q31.c ****   /*  Initializations for the first stage */
 169:./Libraries/CMSIS/DSP/Source/TransformFunctions/arm_cfft_radix4_q31.c ****   n2 = fftLen;
 143              		.loc 1 169 6
 144 000e BB68     		ldr	r3, [r7, #8]
 145 0010 C7F8AC30 		str	r3, [r7, #172]
 170:./Libraries/CMSIS/DSP/Source/TransformFunctions/arm_cfft_radix4_q31.c ****   n1 = n2;
 146              		.loc 1 170 6
 147 0014 D7F8AC30 		ldr	r3, [r7, #172]
 148 0018 C7F89430 		str	r3, [r7, #148]
 171:./Libraries/CMSIS/DSP/Source/TransformFunctions/arm_cfft_radix4_q31.c ****   /* n2 = fftLen/4 */
 172:./Libraries/CMSIS/DSP/Source/TransformFunctions/arm_cfft_radix4_q31.c ****   n2 >>= 2U;
 149              		.loc 1 172 6
 150 001c D7F8AC30 		ldr	r3, [r7, #172]
 151 0020 9B08     		lsrs	r3, r3, #2
 152 0022 C7F8AC30 		str	r3, [r7, #172]
 173:./Libraries/CMSIS/DSP/Source/TransformFunctions/arm_cfft_radix4_q31.c ****   i0 = 0U;
 153              		.loc 1 173 6
 154 0026 0023     		movs	r3, #0
 155 0028 C7F8A430 		str	r3, [r7, #164]
 174:./Libraries/CMSIS/DSP/Source/TransformFunctions/arm_cfft_radix4_q31.c ****   ia1 = 0U;
 156              		.loc 1 174 7
 157 002c 0023     		movs	r3, #0
 158 002e C7F8A830 		str	r3, [r7, #168]
 175:./Libraries/CMSIS/DSP/Source/TransformFunctions/arm_cfft_radix4_q31.c **** 
 176:./Libraries/CMSIS/DSP/Source/TransformFunctions/arm_cfft_radix4_q31.c ****   j = n2;
 159              		.loc 1 176 5
 160 0032 D7F8AC30 		ldr	r3, [r7, #172]
 161 0036 C7F8A030 		str	r3, [r7, #160]
 162              	.L7:
 177:./Libraries/CMSIS/DSP/Source/TransformFunctions/arm_cfft_radix4_q31.c **** 
 178:./Libraries/CMSIS/DSP/Source/TransformFunctions/arm_cfft_radix4_q31.c ****   /*  Calculation of first stage */
 179:./Libraries/CMSIS/DSP/Source/TransformFunctions/arm_cfft_radix4_q31.c ****   do
 180:./Libraries/CMSIS/DSP/Source/TransformFunctions/arm_cfft_radix4_q31.c ****   {
 181:./Libraries/CMSIS/DSP/Source/TransformFunctions/arm_cfft_radix4_q31.c ****     /*  index calculation for the input as, */
 182:./Libraries/CMSIS/DSP/Source/TransformFunctions/arm_cfft_radix4_q31.c ****     /*  pSrc[i0 + 0], pSrc[i0 + fftLen/4], pSrc[i0 + fftLen/2U], pSrc[i0 + 3fftLen/4] */
 183:./Libraries/CMSIS/DSP/Source/TransformFunctions/arm_cfft_radix4_q31.c ****     i1 = i0 + n2;
ARM GAS  /tmp/ccanIW00.s 			page 7


 163              		.loc 1 183 8 discriminator 1
 164 003a D7F8A420 		ldr	r2, [r7, #164]
 165 003e D7F8AC30 		ldr	r3, [r7, #172]
 166 0042 1344     		add	r3, r3, r2
 167 0044 C7F89030 		str	r3, [r7, #144]
 184:./Libraries/CMSIS/DSP/Source/TransformFunctions/arm_cfft_radix4_q31.c ****     i2 = i1 + n2;
 168              		.loc 1 184 8 discriminator 1
 169 0048 D7F89020 		ldr	r2, [r7, #144]
 170 004c D7F8AC30 		ldr	r3, [r7, #172]
 171 0050 1344     		add	r3, r3, r2
 172 0052 C7F88C30 		str	r3, [r7, #140]
 185:./Libraries/CMSIS/DSP/Source/TransformFunctions/arm_cfft_radix4_q31.c ****     i3 = i2 + n2;
 173              		.loc 1 185 8 discriminator 1
 174 0056 D7F88C20 		ldr	r2, [r7, #140]
 175 005a D7F8AC30 		ldr	r3, [r7, #172]
 176 005e 1344     		add	r3, r3, r2
 177 0060 C7F88830 		str	r3, [r7, #136]
 186:./Libraries/CMSIS/DSP/Source/TransformFunctions/arm_cfft_radix4_q31.c **** 
 187:./Libraries/CMSIS/DSP/Source/TransformFunctions/arm_cfft_radix4_q31.c ****     /* input is in 1.31(q31) format and provide 4 guard bits for the input */
 188:./Libraries/CMSIS/DSP/Source/TransformFunctions/arm_cfft_radix4_q31.c **** 
 189:./Libraries/CMSIS/DSP/Source/TransformFunctions/arm_cfft_radix4_q31.c ****     /*  Butterfly implementation */
 190:./Libraries/CMSIS/DSP/Source/TransformFunctions/arm_cfft_radix4_q31.c ****     /* xa + xc */
 191:./Libraries/CMSIS/DSP/Source/TransformFunctions/arm_cfft_radix4_q31.c ****     r1 = (pSrc[(2U * i0)] >> 4U) + (pSrc[(2U * i2)] >> 4U);
 178              		.loc 1 191 15 discriminator 1
 179 0064 D7F8A430 		ldr	r3, [r7, #164]
 180 0068 DB00     		lsls	r3, r3, #3
 181 006a FA68     		ldr	r2, [r7, #12]
 182 006c 1344     		add	r3, r3, r2
 183 006e 1B68     		ldr	r3, [r3]
 184              		.loc 1 191 27 discriminator 1
 185 0070 1A11     		asrs	r2, r3, #4
 186              		.loc 1 191 41 discriminator 1
 187 0072 D7F88C30 		ldr	r3, [r7, #140]
 188 0076 DB00     		lsls	r3, r3, #3
 189 0078 F968     		ldr	r1, [r7, #12]
 190 007a 0B44     		add	r3, r3, r1
 191 007c 1B68     		ldr	r3, [r3]
 192              		.loc 1 191 53 discriminator 1
 193 007e 1B11     		asrs	r3, r3, #4
 194              		.loc 1 191 8 discriminator 1
 195 0080 1344     		add	r3, r3, r2
 196 0082 C7F88430 		str	r3, [r7, #132]
 192:./Libraries/CMSIS/DSP/Source/TransformFunctions/arm_cfft_radix4_q31.c ****     /* xa - xc */
 193:./Libraries/CMSIS/DSP/Source/TransformFunctions/arm_cfft_radix4_q31.c ****     r2 = (pSrc[(2U * i0)] >> 4U) - (pSrc[(2U * i2)] >> 4U);
 197              		.loc 1 193 15 discriminator 1
 198 0086 D7F8A430 		ldr	r3, [r7, #164]
 199 008a DB00     		lsls	r3, r3, #3
 200 008c FA68     		ldr	r2, [r7, #12]
 201 008e 1344     		add	r3, r3, r2
 202 0090 1B68     		ldr	r3, [r3]
 203              		.loc 1 193 27 discriminator 1
 204 0092 1A11     		asrs	r2, r3, #4
 205              		.loc 1 193 41 discriminator 1
 206 0094 D7F88C30 		ldr	r3, [r7, #140]
 207 0098 DB00     		lsls	r3, r3, #3
 208 009a F968     		ldr	r1, [r7, #12]
 209 009c 0B44     		add	r3, r3, r1
ARM GAS  /tmp/ccanIW00.s 			page 8


 210 009e 1B68     		ldr	r3, [r3]
 211              		.loc 1 193 53 discriminator 1
 212 00a0 1B11     		asrs	r3, r3, #4
 213              		.loc 1 193 8 discriminator 1
 214 00a2 D31A     		subs	r3, r2, r3
 215 00a4 C7F88030 		str	r3, [r7, #128]
 194:./Libraries/CMSIS/DSP/Source/TransformFunctions/arm_cfft_radix4_q31.c **** 
 195:./Libraries/CMSIS/DSP/Source/TransformFunctions/arm_cfft_radix4_q31.c ****     /* xb + xd */
 196:./Libraries/CMSIS/DSP/Source/TransformFunctions/arm_cfft_radix4_q31.c ****     t1 = (pSrc[(2U * i1)] >> 4U) + (pSrc[(2U * i3)] >> 4U);
 216              		.loc 1 196 15 discriminator 1
 217 00a8 D7F89030 		ldr	r3, [r7, #144]
 218 00ac DB00     		lsls	r3, r3, #3
 219 00ae FA68     		ldr	r2, [r7, #12]
 220 00b0 1344     		add	r3, r3, r2
 221 00b2 1B68     		ldr	r3, [r3]
 222              		.loc 1 196 27 discriminator 1
 223 00b4 1A11     		asrs	r2, r3, #4
 224              		.loc 1 196 41 discriminator 1
 225 00b6 D7F88830 		ldr	r3, [r7, #136]
 226 00ba DB00     		lsls	r3, r3, #3
 227 00bc F968     		ldr	r1, [r7, #12]
 228 00be 0B44     		add	r3, r3, r1
 229 00c0 1B68     		ldr	r3, [r3]
 230              		.loc 1 196 53 discriminator 1
 231 00c2 1B11     		asrs	r3, r3, #4
 232              		.loc 1 196 8 discriminator 1
 233 00c4 1344     		add	r3, r3, r2
 234 00c6 FB67     		str	r3, [r7, #124]
 197:./Libraries/CMSIS/DSP/Source/TransformFunctions/arm_cfft_radix4_q31.c **** 
 198:./Libraries/CMSIS/DSP/Source/TransformFunctions/arm_cfft_radix4_q31.c ****     /* ya + yc */
 199:./Libraries/CMSIS/DSP/Source/TransformFunctions/arm_cfft_radix4_q31.c ****     s1 = (pSrc[(2U * i0) + 1U] >> 4U) + (pSrc[(2U * i2) + 1U] >> 4U);
 235              		.loc 1 199 15 discriminator 1
 236 00c8 D7F8A430 		ldr	r3, [r7, #164]
 237 00cc DB00     		lsls	r3, r3, #3
 238 00ce 0433     		adds	r3, r3, #4
 239 00d0 FA68     		ldr	r2, [r7, #12]
 240 00d2 1344     		add	r3, r3, r2
 241 00d4 1B68     		ldr	r3, [r3]
 242              		.loc 1 199 32 discriminator 1
 243 00d6 1A11     		asrs	r2, r3, #4
 244              		.loc 1 199 46 discriminator 1
 245 00d8 D7F88C30 		ldr	r3, [r7, #140]
 246 00dc DB00     		lsls	r3, r3, #3
 247 00de 0433     		adds	r3, r3, #4
 248 00e0 F968     		ldr	r1, [r7, #12]
 249 00e2 0B44     		add	r3, r3, r1
 250 00e4 1B68     		ldr	r3, [r3]
 251              		.loc 1 199 63 discriminator 1
 252 00e6 1B11     		asrs	r3, r3, #4
 253              		.loc 1 199 8 discriminator 1
 254 00e8 1344     		add	r3, r3, r2
 255 00ea BB67     		str	r3, [r7, #120]
 200:./Libraries/CMSIS/DSP/Source/TransformFunctions/arm_cfft_radix4_q31.c ****     /* ya - yc */
 201:./Libraries/CMSIS/DSP/Source/TransformFunctions/arm_cfft_radix4_q31.c ****     s2 = (pSrc[(2U * i0) + 1U] >> 4U) - (pSrc[(2U * i2) + 1U] >> 4U);
 256              		.loc 1 201 15 discriminator 1
 257 00ec D7F8A430 		ldr	r3, [r7, #164]
 258 00f0 DB00     		lsls	r3, r3, #3
ARM GAS  /tmp/ccanIW00.s 			page 9


 259 00f2 0433     		adds	r3, r3, #4
 260 00f4 FA68     		ldr	r2, [r7, #12]
 261 00f6 1344     		add	r3, r3, r2
 262 00f8 1B68     		ldr	r3, [r3]
 263              		.loc 1 201 32 discriminator 1
 264 00fa 1A11     		asrs	r2, r3, #4
 265              		.loc 1 201 46 discriminator 1
 266 00fc D7F88C30 		ldr	r3, [r7, #140]
 267 0100 DB00     		lsls	r3, r3, #3
 268 0102 0433     		adds	r3, r3, #4
 269 0104 F968     		ldr	r1, [r7, #12]
 270 0106 0B44     		add	r3, r3, r1
 271 0108 1B68     		ldr	r3, [r3]
 272              		.loc 1 201 63 discriminator 1
 273 010a 1B11     		asrs	r3, r3, #4
 274              		.loc 1 201 8 discriminator 1
 275 010c D31A     		subs	r3, r2, r3
 276 010e 7B67     		str	r3, [r7, #116]
 202:./Libraries/CMSIS/DSP/Source/TransformFunctions/arm_cfft_radix4_q31.c **** 
 203:./Libraries/CMSIS/DSP/Source/TransformFunctions/arm_cfft_radix4_q31.c ****     /* xa' = xa + xb + xc + xd */
 204:./Libraries/CMSIS/DSP/Source/TransformFunctions/arm_cfft_radix4_q31.c ****     pSrc[2U * i0] = (r1 + t1);
 277              		.loc 1 204 9 discriminator 1
 278 0110 D7F8A430 		ldr	r3, [r7, #164]
 279 0114 DB00     		lsls	r3, r3, #3
 280 0116 FA68     		ldr	r2, [r7, #12]
 281 0118 1344     		add	r3, r3, r2
 282              		.loc 1 204 25 discriminator 1
 283 011a D7F88410 		ldr	r1, [r7, #132]
 284 011e FA6F     		ldr	r2, [r7, #124]
 285 0120 0A44     		add	r2, r2, r1
 286              		.loc 1 204 19 discriminator 1
 287 0122 1A60     		str	r2, [r3]
 205:./Libraries/CMSIS/DSP/Source/TransformFunctions/arm_cfft_radix4_q31.c ****     /* (xa + xc) - (xb + xd) */
 206:./Libraries/CMSIS/DSP/Source/TransformFunctions/arm_cfft_radix4_q31.c ****     r1 = r1 - t1;
 288              		.loc 1 206 8 discriminator 1
 289 0124 D7F88420 		ldr	r2, [r7, #132]
 290 0128 FB6F     		ldr	r3, [r7, #124]
 291 012a D31A     		subs	r3, r2, r3
 292 012c C7F88430 		str	r3, [r7, #132]
 207:./Libraries/CMSIS/DSP/Source/TransformFunctions/arm_cfft_radix4_q31.c ****     /* yb + yd */
 208:./Libraries/CMSIS/DSP/Source/TransformFunctions/arm_cfft_radix4_q31.c ****     t2 = (pSrc[(2U * i1) + 1U] >> 4U) + (pSrc[(2U * i3) + 1U] >> 4U);
 293              		.loc 1 208 15 discriminator 1
 294 0130 D7F89030 		ldr	r3, [r7, #144]
 295 0134 DB00     		lsls	r3, r3, #3
 296 0136 0433     		adds	r3, r3, #4
 297 0138 FA68     		ldr	r2, [r7, #12]
 298 013a 1344     		add	r3, r3, r2
 299 013c 1B68     		ldr	r3, [r3]
 300              		.loc 1 208 32 discriminator 1
 301 013e 1A11     		asrs	r2, r3, #4
 302              		.loc 1 208 46 discriminator 1
 303 0140 D7F88830 		ldr	r3, [r7, #136]
 304 0144 DB00     		lsls	r3, r3, #3
 305 0146 0433     		adds	r3, r3, #4
 306 0148 F968     		ldr	r1, [r7, #12]
 307 014a 0B44     		add	r3, r3, r1
 308 014c 1B68     		ldr	r3, [r3]
ARM GAS  /tmp/ccanIW00.s 			page 10


 309              		.loc 1 208 63 discriminator 1
 310 014e 1B11     		asrs	r3, r3, #4
 311              		.loc 1 208 8 discriminator 1
 312 0150 1344     		add	r3, r3, r2
 313 0152 3B67     		str	r3, [r7, #112]
 209:./Libraries/CMSIS/DSP/Source/TransformFunctions/arm_cfft_radix4_q31.c **** 
 210:./Libraries/CMSIS/DSP/Source/TransformFunctions/arm_cfft_radix4_q31.c ****     /* ya' = ya + yb + yc + yd */
 211:./Libraries/CMSIS/DSP/Source/TransformFunctions/arm_cfft_radix4_q31.c ****     pSrc[(2U * i0) + 1U] = (s1 + t2);
 314              		.loc 1 211 9 discriminator 1
 315 0154 D7F8A430 		ldr	r3, [r7, #164]
 316 0158 DB00     		lsls	r3, r3, #3
 317 015a 0433     		adds	r3, r3, #4
 318 015c FA68     		ldr	r2, [r7, #12]
 319 015e 1344     		add	r3, r3, r2
 320              		.loc 1 211 32 discriminator 1
 321 0160 B96F     		ldr	r1, [r7, #120]
 322 0162 3A6F     		ldr	r2, [r7, #112]
 323 0164 0A44     		add	r2, r2, r1
 324              		.loc 1 211 26 discriminator 1
 325 0166 1A60     		str	r2, [r3]
 212:./Libraries/CMSIS/DSP/Source/TransformFunctions/arm_cfft_radix4_q31.c **** 
 213:./Libraries/CMSIS/DSP/Source/TransformFunctions/arm_cfft_radix4_q31.c ****     /* (ya + yc) - (yb + yd) */
 214:./Libraries/CMSIS/DSP/Source/TransformFunctions/arm_cfft_radix4_q31.c ****     s1 = s1 - t2;
 326              		.loc 1 214 8 discriminator 1
 327 0168 BA6F     		ldr	r2, [r7, #120]
 328 016a 3B6F     		ldr	r3, [r7, #112]
 329 016c D31A     		subs	r3, r2, r3
 330 016e BB67     		str	r3, [r7, #120]
 215:./Libraries/CMSIS/DSP/Source/TransformFunctions/arm_cfft_radix4_q31.c **** 
 216:./Libraries/CMSIS/DSP/Source/TransformFunctions/arm_cfft_radix4_q31.c ****     /* yb - yd */
 217:./Libraries/CMSIS/DSP/Source/TransformFunctions/arm_cfft_radix4_q31.c ****     t1 = (pSrc[(2U * i1) + 1U] >> 4U) - (pSrc[(2U * i3) + 1U] >> 4U);
 331              		.loc 1 217 15 discriminator 1
 332 0170 D7F89030 		ldr	r3, [r7, #144]
 333 0174 DB00     		lsls	r3, r3, #3
 334 0176 0433     		adds	r3, r3, #4
 335 0178 FA68     		ldr	r2, [r7, #12]
 336 017a 1344     		add	r3, r3, r2
 337 017c 1B68     		ldr	r3, [r3]
 338              		.loc 1 217 32 discriminator 1
 339 017e 1A11     		asrs	r2, r3, #4
 340              		.loc 1 217 46 discriminator 1
 341 0180 D7F88830 		ldr	r3, [r7, #136]
 342 0184 DB00     		lsls	r3, r3, #3
 343 0186 0433     		adds	r3, r3, #4
 344 0188 F968     		ldr	r1, [r7, #12]
 345 018a 0B44     		add	r3, r3, r1
 346 018c 1B68     		ldr	r3, [r3]
 347              		.loc 1 217 63 discriminator 1
 348 018e 1B11     		asrs	r3, r3, #4
 349              		.loc 1 217 8 discriminator 1
 350 0190 D31A     		subs	r3, r2, r3
 351 0192 FB67     		str	r3, [r7, #124]
 218:./Libraries/CMSIS/DSP/Source/TransformFunctions/arm_cfft_radix4_q31.c ****     /* xb - xd */
 219:./Libraries/CMSIS/DSP/Source/TransformFunctions/arm_cfft_radix4_q31.c ****     t2 = (pSrc[(2U * i1)] >> 4U) - (pSrc[(2U * i3)] >> 4U);
 352              		.loc 1 219 15 discriminator 1
 353 0194 D7F89030 		ldr	r3, [r7, #144]
 354 0198 DB00     		lsls	r3, r3, #3
ARM GAS  /tmp/ccanIW00.s 			page 11


 355 019a FA68     		ldr	r2, [r7, #12]
 356 019c 1344     		add	r3, r3, r2
 357 019e 1B68     		ldr	r3, [r3]
 358              		.loc 1 219 27 discriminator 1
 359 01a0 1A11     		asrs	r2, r3, #4
 360              		.loc 1 219 41 discriminator 1
 361 01a2 D7F88830 		ldr	r3, [r7, #136]
 362 01a6 DB00     		lsls	r3, r3, #3
 363 01a8 F968     		ldr	r1, [r7, #12]
 364 01aa 0B44     		add	r3, r3, r1
 365 01ac 1B68     		ldr	r3, [r3]
 366              		.loc 1 219 53 discriminator 1
 367 01ae 1B11     		asrs	r3, r3, #4
 368              		.loc 1 219 8 discriminator 1
 369 01b0 D31A     		subs	r3, r2, r3
 370 01b2 3B67     		str	r3, [r7, #112]
 220:./Libraries/CMSIS/DSP/Source/TransformFunctions/arm_cfft_radix4_q31.c **** 
 221:./Libraries/CMSIS/DSP/Source/TransformFunctions/arm_cfft_radix4_q31.c ****     /*  index calculation for the coefficients */
 222:./Libraries/CMSIS/DSP/Source/TransformFunctions/arm_cfft_radix4_q31.c ****     ia2 = 2U * ia1;
 371              		.loc 1 222 9 discriminator 1
 372 01b4 D7F8A830 		ldr	r3, [r7, #168]
 373 01b8 5B00     		lsls	r3, r3, #1
 374 01ba FB66     		str	r3, [r7, #108]
 223:./Libraries/CMSIS/DSP/Source/TransformFunctions/arm_cfft_radix4_q31.c ****     co2 = pCoef[(ia2 * 2U)];
 375              		.loc 1 223 16 discriminator 1
 376 01bc FB6E     		ldr	r3, [r7, #108]
 377 01be DB00     		lsls	r3, r3, #3
 378 01c0 7A68     		ldr	r2, [r7, #4]
 379 01c2 1344     		add	r3, r3, r2
 380              		.loc 1 223 9 discriminator 1
 381 01c4 1B68     		ldr	r3, [r3]
 382 01c6 BB66     		str	r3, [r7, #104]
 224:./Libraries/CMSIS/DSP/Source/TransformFunctions/arm_cfft_radix4_q31.c ****     si2 = pCoef[(ia2 * 2U) + 1U];
 383              		.loc 1 224 16 discriminator 1
 384 01c8 FB6E     		ldr	r3, [r7, #108]
 385 01ca DB00     		lsls	r3, r3, #3
 386 01cc 0433     		adds	r3, r3, #4
 387 01ce 7A68     		ldr	r2, [r7, #4]
 388 01d0 1344     		add	r3, r3, r2
 389              		.loc 1 224 9 discriminator 1
 390 01d2 1B68     		ldr	r3, [r3]
 391 01d4 7B66     		str	r3, [r7, #100]
 225:./Libraries/CMSIS/DSP/Source/TransformFunctions/arm_cfft_radix4_q31.c **** 
 226:./Libraries/CMSIS/DSP/Source/TransformFunctions/arm_cfft_radix4_q31.c ****     /* xc' = (xa-xb+xc-xd)co2 + (ya-yb+yc-yd)(si2) */
 227:./Libraries/CMSIS/DSP/Source/TransformFunctions/arm_cfft_radix4_q31.c ****     pSrc[2U * i1] = (((int32_t) (((q63_t) r1 * co2) >> 32)) +
 392              		.loc 1 227 35 discriminator 1
 393 01d6 D7F88430 		ldr	r3, [r7, #132]
 394 01da 1846     		mov	r0, r3
 395 01dc 4FEAE071 		asr	r1, r0, #31
 396              		.loc 1 227 46 discriminator 1
 397 01e0 BB6E     		ldr	r3, [r7, #104]
 398 01e2 1A46     		mov	r2, r3
 399 01e4 4FEAE273 		asr	r3, r2, #31
 400 01e8 02FB01F5 		mul	r5, r2, r1
 401 01ec 00FB03F4 		mul	r4, r0, r3
 402 01f0 2C44     		add	r4, r4, r5
 403 01f2 A0FB0223 		umull	r2, r3, r0, r2
ARM GAS  /tmp/ccanIW00.s 			page 12


 404 01f6 E118     		adds	r1, r4, r3
 405 01f8 0B46     		mov	r3, r1
 406              		.loc 1 227 53 discriminator 1
 407 01fa 4FF00000 		mov	r0, #0
 408 01fe 4FF00001 		mov	r1, #0
 409 0202 1800     		movs	r0, r3
 410 0204 D917     		asrs	r1, r3, #31
 411              		.loc 1 227 23 discriminator 1
 412 0206 0646     		mov	r6, r0
 228:./Libraries/CMSIS/DSP/Source/TransformFunctions/arm_cfft_radix4_q31.c ****                      ((int32_t) (((q63_t) s1 * si2) >> 32))) << 1U;
 413              		.loc 1 228 35 discriminator 1
 414 0208 BB6F     		ldr	r3, [r7, #120]
 415 020a 1846     		mov	r0, r3
 416 020c 4FEAE071 		asr	r1, r0, #31
 417              		.loc 1 228 46 discriminator 1
 418 0210 7B6E     		ldr	r3, [r7, #100]
 419 0212 1A46     		mov	r2, r3
 420 0214 4FEAE273 		asr	r3, r2, #31
 421 0218 02FB01F5 		mul	r5, r2, r1
 422 021c 00FB03F4 		mul	r4, r0, r3
 423 0220 2C44     		add	r4, r4, r5
 424 0222 A0FB0223 		umull	r2, r3, r0, r2
 425 0226 E118     		adds	r1, r4, r3
 426 0228 0B46     		mov	r3, r1
 427              		.loc 1 228 53 discriminator 1
 428 022a 4FF00000 		mov	r0, #0
 429 022e 4FF00001 		mov	r1, #0
 430 0232 1800     		movs	r0, r3
 431 0234 D917     		asrs	r1, r3, #31
 432              		.loc 1 228 23 discriminator 1
 433 0236 0346     		mov	r3, r0
 227:./Libraries/CMSIS/DSP/Source/TransformFunctions/arm_cfft_radix4_q31.c ****                      ((int32_t) (((q63_t) s1 * si2) >> 32))) << 1U;
 434              		.loc 1 227 61 discriminator 1
 435 0238 F218     		adds	r2, r6, r3
 227:./Libraries/CMSIS/DSP/Source/TransformFunctions/arm_cfft_radix4_q31.c ****                      ((int32_t) (((q63_t) s1 * si2) >> 32))) << 1U;
 436              		.loc 1 227 9 discriminator 1
 437 023a D7F89030 		ldr	r3, [r7, #144]
 438 023e DB00     		lsls	r3, r3, #3
 439 0240 F968     		ldr	r1, [r7, #12]
 440 0242 0B44     		add	r3, r3, r1
 441              		.loc 1 228 62 discriminator 1
 442 0244 5200     		lsls	r2, r2, #1
 227:./Libraries/CMSIS/DSP/Source/TransformFunctions/arm_cfft_radix4_q31.c ****                      ((int32_t) (((q63_t) s1 * si2) >> 32))) << 1U;
 443              		.loc 1 227 19 discriminator 1
 444 0246 1A60     		str	r2, [r3]
 229:./Libraries/CMSIS/DSP/Source/TransformFunctions/arm_cfft_radix4_q31.c **** 
 230:./Libraries/CMSIS/DSP/Source/TransformFunctions/arm_cfft_radix4_q31.c ****     /* yc' = (ya-yb+yc-yd)co2 - (xa-xb+xc-xd)(si2) */
 231:./Libraries/CMSIS/DSP/Source/TransformFunctions/arm_cfft_radix4_q31.c ****     pSrc[(2U * i1) + 1U] = (((int32_t) (((q63_t) s1 * co2) >> 32)) -
 445              		.loc 1 231 42 discriminator 1
 446 0248 BB6F     		ldr	r3, [r7, #120]
 447 024a 1846     		mov	r0, r3
 448 024c 4FEAE071 		asr	r1, r0, #31
 449              		.loc 1 231 53 discriminator 1
 450 0250 BB6E     		ldr	r3, [r7, #104]
 451 0252 1A46     		mov	r2, r3
 452 0254 4FEAE273 		asr	r3, r2, #31
 453 0258 02FB01F5 		mul	r5, r2, r1
ARM GAS  /tmp/ccanIW00.s 			page 13


 454 025c 00FB03F4 		mul	r4, r0, r3
 455 0260 2C44     		add	r4, r4, r5
 456 0262 A0FB0223 		umull	r2, r3, r0, r2
 457 0266 E118     		adds	r1, r4, r3
 458 0268 0B46     		mov	r3, r1
 459              		.loc 1 231 60 discriminator 1
 460 026a 4FF00000 		mov	r0, #0
 461 026e 4FF00001 		mov	r1, #0
 462 0272 1800     		movs	r0, r3
 463 0274 D917     		asrs	r1, r3, #31
 464              		.loc 1 231 30 discriminator 1
 465 0276 0646     		mov	r6, r0
 232:./Libraries/CMSIS/DSP/Source/TransformFunctions/arm_cfft_radix4_q31.c ****                             ((int32_t) (((q63_t) r1 * si2) >> 32))) << 1U;
 466              		.loc 1 232 42 discriminator 1
 467 0278 D7F88430 		ldr	r3, [r7, #132]
 468 027c 1846     		mov	r0, r3
 469 027e 4FEAE071 		asr	r1, r0, #31
 470              		.loc 1 232 53 discriminator 1
 471 0282 7B6E     		ldr	r3, [r7, #100]
 472 0284 1A46     		mov	r2, r3
 473 0286 4FEAE273 		asr	r3, r2, #31
 474 028a 02FB01F5 		mul	r5, r2, r1
 475 028e 00FB03F4 		mul	r4, r0, r3
 476 0292 2C44     		add	r4, r4, r5
 477 0294 A0FB0223 		umull	r2, r3, r0, r2
 478 0298 E118     		adds	r1, r4, r3
 479 029a 0B46     		mov	r3, r1
 480              		.loc 1 232 60 discriminator 1
 481 029c 4FF00000 		mov	r0, #0
 482 02a0 4FF00001 		mov	r1, #0
 483 02a4 1800     		movs	r0, r3
 484 02a6 D917     		asrs	r1, r3, #31
 485              		.loc 1 232 30 discriminator 1
 486 02a8 0346     		mov	r3, r0
 231:./Libraries/CMSIS/DSP/Source/TransformFunctions/arm_cfft_radix4_q31.c ****                             ((int32_t) (((q63_t) r1 * si2) >> 32))) << 1U;
 487              		.loc 1 231 68 discriminator 1
 488 02aa F21A     		subs	r2, r6, r3
 231:./Libraries/CMSIS/DSP/Source/TransformFunctions/arm_cfft_radix4_q31.c ****                             ((int32_t) (((q63_t) r1 * si2) >> 32))) << 1U;
 489              		.loc 1 231 9 discriminator 1
 490 02ac D7F89030 		ldr	r3, [r7, #144]
 491 02b0 DB00     		lsls	r3, r3, #3
 492 02b2 0433     		adds	r3, r3, #4
 493 02b4 F968     		ldr	r1, [r7, #12]
 494 02b6 0B44     		add	r3, r3, r1
 495              		.loc 1 232 69 discriminator 1
 496 02b8 5200     		lsls	r2, r2, #1
 231:./Libraries/CMSIS/DSP/Source/TransformFunctions/arm_cfft_radix4_q31.c ****                             ((int32_t) (((q63_t) r1 * si2) >> 32))) << 1U;
 497              		.loc 1 231 26 discriminator 1
 498 02ba 1A60     		str	r2, [r3]
 233:./Libraries/CMSIS/DSP/Source/TransformFunctions/arm_cfft_radix4_q31.c **** 
 234:./Libraries/CMSIS/DSP/Source/TransformFunctions/arm_cfft_radix4_q31.c ****     /* (xa - xc) + (yb - yd) */
 235:./Libraries/CMSIS/DSP/Source/TransformFunctions/arm_cfft_radix4_q31.c ****     r1 = r2 + t1;
 499              		.loc 1 235 8 discriminator 1
 500 02bc D7F88020 		ldr	r2, [r7, #128]
 501 02c0 FB6F     		ldr	r3, [r7, #124]
 502 02c2 1344     		add	r3, r3, r2
 503 02c4 C7F88430 		str	r3, [r7, #132]
ARM GAS  /tmp/ccanIW00.s 			page 14


 236:./Libraries/CMSIS/DSP/Source/TransformFunctions/arm_cfft_radix4_q31.c ****     /* (xa - xc) - (yb - yd) */
 237:./Libraries/CMSIS/DSP/Source/TransformFunctions/arm_cfft_radix4_q31.c ****     r2 = r2 - t1;
 504              		.loc 1 237 8 discriminator 1
 505 02c8 D7F88020 		ldr	r2, [r7, #128]
 506 02cc FB6F     		ldr	r3, [r7, #124]
 507 02ce D31A     		subs	r3, r2, r3
 508 02d0 C7F88030 		str	r3, [r7, #128]
 238:./Libraries/CMSIS/DSP/Source/TransformFunctions/arm_cfft_radix4_q31.c **** 
 239:./Libraries/CMSIS/DSP/Source/TransformFunctions/arm_cfft_radix4_q31.c ****     /* (ya - yc) - (xb - xd) */
 240:./Libraries/CMSIS/DSP/Source/TransformFunctions/arm_cfft_radix4_q31.c ****     s1 = s2 - t2;
 509              		.loc 1 240 8 discriminator 1
 510 02d4 7A6F     		ldr	r2, [r7, #116]
 511 02d6 3B6F     		ldr	r3, [r7, #112]
 512 02d8 D31A     		subs	r3, r2, r3
 513 02da BB67     		str	r3, [r7, #120]
 241:./Libraries/CMSIS/DSP/Source/TransformFunctions/arm_cfft_radix4_q31.c ****     /* (ya - yc) + (xb - xd) */
 242:./Libraries/CMSIS/DSP/Source/TransformFunctions/arm_cfft_radix4_q31.c ****     s2 = s2 + t2;
 514              		.loc 1 242 8 discriminator 1
 515 02dc 7A6F     		ldr	r2, [r7, #116]
 516 02de 3B6F     		ldr	r3, [r7, #112]
 517 02e0 1344     		add	r3, r3, r2
 518 02e2 7B67     		str	r3, [r7, #116]
 243:./Libraries/CMSIS/DSP/Source/TransformFunctions/arm_cfft_radix4_q31.c **** 
 244:./Libraries/CMSIS/DSP/Source/TransformFunctions/arm_cfft_radix4_q31.c ****     co1 = pCoef[(ia1 * 2U)];
 519              		.loc 1 244 16 discriminator 1
 520 02e4 D7F8A830 		ldr	r3, [r7, #168]
 521 02e8 DB00     		lsls	r3, r3, #3
 522 02ea 7A68     		ldr	r2, [r7, #4]
 523 02ec 1344     		add	r3, r3, r2
 524              		.loc 1 244 9 discriminator 1
 525 02ee 1B68     		ldr	r3, [r3]
 526 02f0 3B66     		str	r3, [r7, #96]
 245:./Libraries/CMSIS/DSP/Source/TransformFunctions/arm_cfft_radix4_q31.c ****     si1 = pCoef[(ia1 * 2U) + 1U];
 527              		.loc 1 245 16 discriminator 1
 528 02f2 D7F8A830 		ldr	r3, [r7, #168]
 529 02f6 DB00     		lsls	r3, r3, #3
 530 02f8 0433     		adds	r3, r3, #4
 531 02fa 7A68     		ldr	r2, [r7, #4]
 532 02fc 1344     		add	r3, r3, r2
 533              		.loc 1 245 9 discriminator 1
 534 02fe 1B68     		ldr	r3, [r3]
 535 0300 FB65     		str	r3, [r7, #92]
 246:./Libraries/CMSIS/DSP/Source/TransformFunctions/arm_cfft_radix4_q31.c **** 
 247:./Libraries/CMSIS/DSP/Source/TransformFunctions/arm_cfft_radix4_q31.c ****     /* xb' = (xa+yb-xc-yd)co1 + (ya-xb-yc+xd)(si1) */
 248:./Libraries/CMSIS/DSP/Source/TransformFunctions/arm_cfft_radix4_q31.c ****     pSrc[2U * i2] = (((int32_t) (((q63_t) r1 * co1) >> 32)) +
 536              		.loc 1 248 35 discriminator 1
 537 0302 D7F88430 		ldr	r3, [r7, #132]
 538 0306 1846     		mov	r0, r3
 539 0308 4FEAE071 		asr	r1, r0, #31
 540              		.loc 1 248 46 discriminator 1
 541 030c 3B6E     		ldr	r3, [r7, #96]
 542 030e 1A46     		mov	r2, r3
 543 0310 4FEAE273 		asr	r3, r2, #31
 544 0314 02FB01F5 		mul	r5, r2, r1
 545 0318 00FB03F4 		mul	r4, r0, r3
 546 031c 2C44     		add	r4, r4, r5
 547 031e A0FB0223 		umull	r2, r3, r0, r2
ARM GAS  /tmp/ccanIW00.s 			page 15


 548 0322 E118     		adds	r1, r4, r3
 549 0324 0B46     		mov	r3, r1
 550              		.loc 1 248 53 discriminator 1
 551 0326 4FF00000 		mov	r0, #0
 552 032a 4FF00001 		mov	r1, #0
 553 032e 1800     		movs	r0, r3
 554 0330 D917     		asrs	r1, r3, #31
 555              		.loc 1 248 23 discriminator 1
 556 0332 0646     		mov	r6, r0
 249:./Libraries/CMSIS/DSP/Source/TransformFunctions/arm_cfft_radix4_q31.c ****                      ((int32_t) (((q63_t) s1 * si1) >> 32))) << 1U;
 557              		.loc 1 249 35 discriminator 1
 558 0334 BB6F     		ldr	r3, [r7, #120]
 559 0336 1846     		mov	r0, r3
 560 0338 4FEAE071 		asr	r1, r0, #31
 561              		.loc 1 249 46 discriminator 1
 562 033c FB6D     		ldr	r3, [r7, #92]
 563 033e 1A46     		mov	r2, r3
 564 0340 4FEAE273 		asr	r3, r2, #31
 565 0344 02FB01F5 		mul	r5, r2, r1
 566 0348 00FB03F4 		mul	r4, r0, r3
 567 034c 2C44     		add	r4, r4, r5
 568 034e A0FB0223 		umull	r2, r3, r0, r2
 569 0352 E118     		adds	r1, r4, r3
 570 0354 0B46     		mov	r3, r1
 571              		.loc 1 249 53 discriminator 1
 572 0356 4FF00000 		mov	r0, #0
 573 035a 4FF00001 		mov	r1, #0
 574 035e 1800     		movs	r0, r3
 575 0360 D917     		asrs	r1, r3, #31
 576              		.loc 1 249 23 discriminator 1
 577 0362 0346     		mov	r3, r0
 248:./Libraries/CMSIS/DSP/Source/TransformFunctions/arm_cfft_radix4_q31.c ****                      ((int32_t) (((q63_t) s1 * si1) >> 32))) << 1U;
 578              		.loc 1 248 61 discriminator 1
 579 0364 F218     		adds	r2, r6, r3
 248:./Libraries/CMSIS/DSP/Source/TransformFunctions/arm_cfft_radix4_q31.c ****                      ((int32_t) (((q63_t) s1 * si1) >> 32))) << 1U;
 580              		.loc 1 248 9 discriminator 1
 581 0366 D7F88C30 		ldr	r3, [r7, #140]
 582 036a DB00     		lsls	r3, r3, #3
 583 036c F968     		ldr	r1, [r7, #12]
 584 036e 0B44     		add	r3, r3, r1
 585              		.loc 1 249 62 discriminator 1
 586 0370 5200     		lsls	r2, r2, #1
 248:./Libraries/CMSIS/DSP/Source/TransformFunctions/arm_cfft_radix4_q31.c ****                      ((int32_t) (((q63_t) s1 * si1) >> 32))) << 1U;
 587              		.loc 1 248 19 discriminator 1
 588 0372 1A60     		str	r2, [r3]
 250:./Libraries/CMSIS/DSP/Source/TransformFunctions/arm_cfft_radix4_q31.c **** 
 251:./Libraries/CMSIS/DSP/Source/TransformFunctions/arm_cfft_radix4_q31.c ****     /* yb' = (ya-xb-yc+xd)co1 - (xa+yb-xc-yd)(si1) */
 252:./Libraries/CMSIS/DSP/Source/TransformFunctions/arm_cfft_radix4_q31.c ****     pSrc[(2U * i2) + 1U] = (((int32_t) (((q63_t) s1 * co1) >> 32)) -
 589              		.loc 1 252 42 discriminator 1
 590 0374 BB6F     		ldr	r3, [r7, #120]
 591 0376 1846     		mov	r0, r3
 592 0378 4FEAE071 		asr	r1, r0, #31
 593              		.loc 1 252 53 discriminator 1
 594 037c 3B6E     		ldr	r3, [r7, #96]
 595 037e 1A46     		mov	r2, r3
 596 0380 4FEAE273 		asr	r3, r2, #31
 597 0384 02FB01F5 		mul	r5, r2, r1
ARM GAS  /tmp/ccanIW00.s 			page 16


 598 0388 00FB03F4 		mul	r4, r0, r3
 599 038c 2C44     		add	r4, r4, r5
 600 038e A0FB0223 		umull	r2, r3, r0, r2
 601 0392 E118     		adds	r1, r4, r3
 602 0394 0B46     		mov	r3, r1
 603              		.loc 1 252 60 discriminator 1
 604 0396 4FF00000 		mov	r0, #0
 605 039a 4FF00001 		mov	r1, #0
 606 039e 1800     		movs	r0, r3
 607 03a0 D917     		asrs	r1, r3, #31
 608              		.loc 1 252 30 discriminator 1
 609 03a2 0646     		mov	r6, r0
 253:./Libraries/CMSIS/DSP/Source/TransformFunctions/arm_cfft_radix4_q31.c ****                             ((int32_t) (((q63_t) r1 * si1) >> 32))) << 1U;
 610              		.loc 1 253 42 discriminator 1
 611 03a4 D7F88430 		ldr	r3, [r7, #132]
 612 03a8 1846     		mov	r0, r3
 613 03aa 4FEAE071 		asr	r1, r0, #31
 614              		.loc 1 253 53 discriminator 1
 615 03ae FB6D     		ldr	r3, [r7, #92]
 616 03b0 1A46     		mov	r2, r3
 617 03b2 4FEAE273 		asr	r3, r2, #31
 618 03b6 02FB01F5 		mul	r5, r2, r1
 619 03ba 00FB03F4 		mul	r4, r0, r3
 620 03be 2C44     		add	r4, r4, r5
 621 03c0 A0FB0223 		umull	r2, r3, r0, r2
 622 03c4 E118     		adds	r1, r4, r3
 623 03c6 0B46     		mov	r3, r1
 624              		.loc 1 253 60 discriminator 1
 625 03c8 4FF00000 		mov	r0, #0
 626 03cc 4FF00001 		mov	r1, #0
 627 03d0 1800     		movs	r0, r3
 628 03d2 D917     		asrs	r1, r3, #31
 629              		.loc 1 253 30 discriminator 1
 630 03d4 0346     		mov	r3, r0
 252:./Libraries/CMSIS/DSP/Source/TransformFunctions/arm_cfft_radix4_q31.c ****                             ((int32_t) (((q63_t) r1 * si1) >> 32))) << 1U;
 631              		.loc 1 252 68 discriminator 1
 632 03d6 F21A     		subs	r2, r6, r3
 252:./Libraries/CMSIS/DSP/Source/TransformFunctions/arm_cfft_radix4_q31.c ****                             ((int32_t) (((q63_t) r1 * si1) >> 32))) << 1U;
 633              		.loc 1 252 9 discriminator 1
 634 03d8 D7F88C30 		ldr	r3, [r7, #140]
 635 03dc DB00     		lsls	r3, r3, #3
 636 03de 0433     		adds	r3, r3, #4
 637 03e0 F968     		ldr	r1, [r7, #12]
 638 03e2 0B44     		add	r3, r3, r1
 639              		.loc 1 253 69 discriminator 1
 640 03e4 5200     		lsls	r2, r2, #1
 252:./Libraries/CMSIS/DSP/Source/TransformFunctions/arm_cfft_radix4_q31.c ****                             ((int32_t) (((q63_t) r1 * si1) >> 32))) << 1U;
 641              		.loc 1 252 26 discriminator 1
 642 03e6 1A60     		str	r2, [r3]
 254:./Libraries/CMSIS/DSP/Source/TransformFunctions/arm_cfft_radix4_q31.c **** 
 255:./Libraries/CMSIS/DSP/Source/TransformFunctions/arm_cfft_radix4_q31.c ****     /*  index calculation for the coefficients */
 256:./Libraries/CMSIS/DSP/Source/TransformFunctions/arm_cfft_radix4_q31.c ****     ia3 = 3U * ia1;
 643              		.loc 1 256 9 discriminator 1
 644 03e8 D7F8A820 		ldr	r2, [r7, #168]
 645 03ec 1346     		mov	r3, r2
 646 03ee 5B00     		lsls	r3, r3, #1
 647 03f0 1344     		add	r3, r3, r2
ARM GAS  /tmp/ccanIW00.s 			page 17


 648 03f2 BB65     		str	r3, [r7, #88]
 257:./Libraries/CMSIS/DSP/Source/TransformFunctions/arm_cfft_radix4_q31.c ****     co3 = pCoef[(ia3 * 2U)];
 649              		.loc 1 257 16 discriminator 1
 650 03f4 BB6D     		ldr	r3, [r7, #88]
 651 03f6 DB00     		lsls	r3, r3, #3
 652 03f8 7A68     		ldr	r2, [r7, #4]
 653 03fa 1344     		add	r3, r3, r2
 654              		.loc 1 257 9 discriminator 1
 655 03fc 1B68     		ldr	r3, [r3]
 656 03fe 7B65     		str	r3, [r7, #84]
 258:./Libraries/CMSIS/DSP/Source/TransformFunctions/arm_cfft_radix4_q31.c ****     si3 = pCoef[(ia3 * 2U) + 1U];
 657              		.loc 1 258 16 discriminator 1
 658 0400 BB6D     		ldr	r3, [r7, #88]
 659 0402 DB00     		lsls	r3, r3, #3
 660 0404 0433     		adds	r3, r3, #4
 661 0406 7A68     		ldr	r2, [r7, #4]
 662 0408 1344     		add	r3, r3, r2
 663              		.loc 1 258 9 discriminator 1
 664 040a 1B68     		ldr	r3, [r3]
 665 040c 3B65     		str	r3, [r7, #80]
 259:./Libraries/CMSIS/DSP/Source/TransformFunctions/arm_cfft_radix4_q31.c **** 
 260:./Libraries/CMSIS/DSP/Source/TransformFunctions/arm_cfft_radix4_q31.c ****     /* xd' = (xa-yb-xc+yd)co3 + (ya+xb-yc-xd)(si3) */
 261:./Libraries/CMSIS/DSP/Source/TransformFunctions/arm_cfft_radix4_q31.c ****     pSrc[2U * i3] = (((int32_t) (((q63_t) r2 * co3) >> 32)) +
 666              		.loc 1 261 35 discriminator 1
 667 040e D7F88030 		ldr	r3, [r7, #128]
 668 0412 1846     		mov	r0, r3
 669 0414 4FEAE071 		asr	r1, r0, #31
 670              		.loc 1 261 46 discriminator 1
 671 0418 7B6D     		ldr	r3, [r7, #84]
 672 041a 1A46     		mov	r2, r3
 673 041c 4FEAE273 		asr	r3, r2, #31
 674 0420 02FB01F5 		mul	r5, r2, r1
 675 0424 00FB03F4 		mul	r4, r0, r3
 676 0428 2C44     		add	r4, r4, r5
 677 042a A0FB0223 		umull	r2, r3, r0, r2
 678 042e E118     		adds	r1, r4, r3
 679 0430 0B46     		mov	r3, r1
 680              		.loc 1 261 53 discriminator 1
 681 0432 4FF00000 		mov	r0, #0
 682 0436 4FF00001 		mov	r1, #0
 683 043a 1800     		movs	r0, r3
 684 043c D917     		asrs	r1, r3, #31
 685              		.loc 1 261 23 discriminator 1
 686 043e 0646     		mov	r6, r0
 262:./Libraries/CMSIS/DSP/Source/TransformFunctions/arm_cfft_radix4_q31.c ****                      ((int32_t) (((q63_t) s2 * si3) >> 32))) << 1U;
 687              		.loc 1 262 35 discriminator 1
 688 0440 7B6F     		ldr	r3, [r7, #116]
 689 0442 1846     		mov	r0, r3
 690 0444 4FEAE071 		asr	r1, r0, #31
 691              		.loc 1 262 46 discriminator 1
 692 0448 3B6D     		ldr	r3, [r7, #80]
 693 044a 1A46     		mov	r2, r3
 694 044c 4FEAE273 		asr	r3, r2, #31
 695 0450 02FB01F5 		mul	r5, r2, r1
 696 0454 00FB03F4 		mul	r4, r0, r3
 697 0458 2C44     		add	r4, r4, r5
 698 045a A0FB0223 		umull	r2, r3, r0, r2
ARM GAS  /tmp/ccanIW00.s 			page 18


 699 045e E118     		adds	r1, r4, r3
 700 0460 0B46     		mov	r3, r1
 701              		.loc 1 262 53 discriminator 1
 702 0462 4FF00000 		mov	r0, #0
 703 0466 4FF00001 		mov	r1, #0
 704 046a 1800     		movs	r0, r3
 705 046c D917     		asrs	r1, r3, #31
 706              		.loc 1 262 23 discriminator 1
 707 046e 0346     		mov	r3, r0
 261:./Libraries/CMSIS/DSP/Source/TransformFunctions/arm_cfft_radix4_q31.c ****                      ((int32_t) (((q63_t) s2 * si3) >> 32))) << 1U;
 708              		.loc 1 261 61 discriminator 1
 709 0470 F218     		adds	r2, r6, r3
 261:./Libraries/CMSIS/DSP/Source/TransformFunctions/arm_cfft_radix4_q31.c ****                      ((int32_t) (((q63_t) s2 * si3) >> 32))) << 1U;
 710              		.loc 1 261 9 discriminator 1
 711 0472 D7F88830 		ldr	r3, [r7, #136]
 712 0476 DB00     		lsls	r3, r3, #3
 713 0478 F968     		ldr	r1, [r7, #12]
 714 047a 0B44     		add	r3, r3, r1
 715              		.loc 1 262 62 discriminator 1
 716 047c 5200     		lsls	r2, r2, #1
 261:./Libraries/CMSIS/DSP/Source/TransformFunctions/arm_cfft_radix4_q31.c ****                      ((int32_t) (((q63_t) s2 * si3) >> 32))) << 1U;
 717              		.loc 1 261 19 discriminator 1
 718 047e 1A60     		str	r2, [r3]
 263:./Libraries/CMSIS/DSP/Source/TransformFunctions/arm_cfft_radix4_q31.c **** 
 264:./Libraries/CMSIS/DSP/Source/TransformFunctions/arm_cfft_radix4_q31.c ****     /* yd' = (ya+xb-yc-xd)co3 - (xa-yb-xc+yd)(si3) */
 265:./Libraries/CMSIS/DSP/Source/TransformFunctions/arm_cfft_radix4_q31.c ****     pSrc[(2U * i3) + 1U] = (((int32_t) (((q63_t) s2 * co3) >> 32)) -
 719              		.loc 1 265 42 discriminator 1
 720 0480 7B6F     		ldr	r3, [r7, #116]
 721 0482 1846     		mov	r0, r3
 722 0484 4FEAE071 		asr	r1, r0, #31
 723              		.loc 1 265 53 discriminator 1
 724 0488 7B6D     		ldr	r3, [r7, #84]
 725 048a 1A46     		mov	r2, r3
 726 048c 4FEAE273 		asr	r3, r2, #31
 727 0490 02FB01F5 		mul	r5, r2, r1
 728 0494 00FB03F4 		mul	r4, r0, r3
 729 0498 2C44     		add	r4, r4, r5
 730 049a A0FB0223 		umull	r2, r3, r0, r2
 731 049e E118     		adds	r1, r4, r3
 732 04a0 0B46     		mov	r3, r1
 733              		.loc 1 265 60 discriminator 1
 734 04a2 4FF00000 		mov	r0, #0
 735 04a6 4FF00001 		mov	r1, #0
 736 04aa 1800     		movs	r0, r3
 737 04ac D917     		asrs	r1, r3, #31
 738              		.loc 1 265 30 discriminator 1
 739 04ae 0646     		mov	r6, r0
 266:./Libraries/CMSIS/DSP/Source/TransformFunctions/arm_cfft_radix4_q31.c ****                             ((int32_t) (((q63_t) r2 * si3) >> 32))) << 1U;
 740              		.loc 1 266 42 discriminator 1
 741 04b0 D7F88030 		ldr	r3, [r7, #128]
 742 04b4 1846     		mov	r0, r3
 743 04b6 4FEAE071 		asr	r1, r0, #31
 744              		.loc 1 266 53 discriminator 1
 745 04ba 3B6D     		ldr	r3, [r7, #80]
 746 04bc 1A46     		mov	r2, r3
 747 04be 4FEAE273 		asr	r3, r2, #31
 748 04c2 02FB01F5 		mul	r5, r2, r1
ARM GAS  /tmp/ccanIW00.s 			page 19


 749 04c6 00FB03F4 		mul	r4, r0, r3
 750 04ca 2C44     		add	r4, r4, r5
 751 04cc A0FB0223 		umull	r2, r3, r0, r2
 752 04d0 E118     		adds	r1, r4, r3
 753 04d2 0B46     		mov	r3, r1
 754              		.loc 1 266 60 discriminator 1
 755 04d4 4FF00000 		mov	r0, #0
 756 04d8 4FF00001 		mov	r1, #0
 757 04dc 1800     		movs	r0, r3
 758 04de D917     		asrs	r1, r3, #31
 759              		.loc 1 266 30 discriminator 1
 760 04e0 0346     		mov	r3, r0
 265:./Libraries/CMSIS/DSP/Source/TransformFunctions/arm_cfft_radix4_q31.c ****                             ((int32_t) (((q63_t) r2 * si3) >> 32))) << 1U;
 761              		.loc 1 265 68 discriminator 1
 762 04e2 F21A     		subs	r2, r6, r3
 265:./Libraries/CMSIS/DSP/Source/TransformFunctions/arm_cfft_radix4_q31.c ****                             ((int32_t) (((q63_t) r2 * si3) >> 32))) << 1U;
 763              		.loc 1 265 9 discriminator 1
 764 04e4 D7F88830 		ldr	r3, [r7, #136]
 765 04e8 DB00     		lsls	r3, r3, #3
 766 04ea 0433     		adds	r3, r3, #4
 767 04ec F968     		ldr	r1, [r7, #12]
 768 04ee 0B44     		add	r3, r3, r1
 769              		.loc 1 266 69 discriminator 1
 770 04f0 5200     		lsls	r2, r2, #1
 265:./Libraries/CMSIS/DSP/Source/TransformFunctions/arm_cfft_radix4_q31.c ****                             ((int32_t) (((q63_t) r2 * si3) >> 32))) << 1U;
 771              		.loc 1 265 26 discriminator 1
 772 04f2 1A60     		str	r2, [r3]
 267:./Libraries/CMSIS/DSP/Source/TransformFunctions/arm_cfft_radix4_q31.c **** 
 268:./Libraries/CMSIS/DSP/Source/TransformFunctions/arm_cfft_radix4_q31.c ****     /*  Twiddle coefficients index modifier */
 269:./Libraries/CMSIS/DSP/Source/TransformFunctions/arm_cfft_radix4_q31.c ****     ia1 = ia1 + twidCoefModifier;
 773              		.loc 1 269 9 discriminator 1
 774 04f4 D7F8A820 		ldr	r2, [r7, #168]
 775 04f8 3B68     		ldr	r3, [r7]
 776 04fa 1344     		add	r3, r3, r2
 777 04fc C7F8A830 		str	r3, [r7, #168]
 270:./Libraries/CMSIS/DSP/Source/TransformFunctions/arm_cfft_radix4_q31.c **** 
 271:./Libraries/CMSIS/DSP/Source/TransformFunctions/arm_cfft_radix4_q31.c ****     /*  Updating input index */
 272:./Libraries/CMSIS/DSP/Source/TransformFunctions/arm_cfft_radix4_q31.c ****     i0 = i0 + 1U;
 778              		.loc 1 272 8 discriminator 1
 779 0500 D7F8A430 		ldr	r3, [r7, #164]
 780 0504 0133     		adds	r3, r3, #1
 781 0506 C7F8A430 		str	r3, [r7, #164]
 273:./Libraries/CMSIS/DSP/Source/TransformFunctions/arm_cfft_radix4_q31.c **** 
 274:./Libraries/CMSIS/DSP/Source/TransformFunctions/arm_cfft_radix4_q31.c ****   } while (--j);
 782              		.loc 1 274 3 discriminator 1
 783 050a D7F8A030 		ldr	r3, [r7, #160]
 784 050e 013B     		subs	r3, r3, #1
 785 0510 C7F8A030 		str	r3, [r7, #160]
 786 0514 D7F8A030 		ldr	r3, [r7, #160]
 787 0518 002B     		cmp	r3, #0
 788 051a 7FF48EAD 		bne	.L7
 275:./Libraries/CMSIS/DSP/Source/TransformFunctions/arm_cfft_radix4_q31.c **** 
 276:./Libraries/CMSIS/DSP/Source/TransformFunctions/arm_cfft_radix4_q31.c ****   /* end of first stage process */
 277:./Libraries/CMSIS/DSP/Source/TransformFunctions/arm_cfft_radix4_q31.c **** 
 278:./Libraries/CMSIS/DSP/Source/TransformFunctions/arm_cfft_radix4_q31.c ****   /* data is in 5.27(q27) format */
 279:./Libraries/CMSIS/DSP/Source/TransformFunctions/arm_cfft_radix4_q31.c **** 
 280:./Libraries/CMSIS/DSP/Source/TransformFunctions/arm_cfft_radix4_q31.c **** 
ARM GAS  /tmp/ccanIW00.s 			page 20


 281:./Libraries/CMSIS/DSP/Source/TransformFunctions/arm_cfft_radix4_q31.c ****   /* start of Middle stages process */
 282:./Libraries/CMSIS/DSP/Source/TransformFunctions/arm_cfft_radix4_q31.c **** 
 283:./Libraries/CMSIS/DSP/Source/TransformFunctions/arm_cfft_radix4_q31.c **** 
 284:./Libraries/CMSIS/DSP/Source/TransformFunctions/arm_cfft_radix4_q31.c ****   /* each stage in middle stages provides two down scaling of the input */
 285:./Libraries/CMSIS/DSP/Source/TransformFunctions/arm_cfft_radix4_q31.c **** 
 286:./Libraries/CMSIS/DSP/Source/TransformFunctions/arm_cfft_radix4_q31.c ****   twidCoefModifier <<= 2U;
 789              		.loc 1 286 20
 790 051e 3B68     		ldr	r3, [r7]
 791 0520 9B00     		lsls	r3, r3, #2
 792 0522 3B60     		str	r3, [r7]
 287:./Libraries/CMSIS/DSP/Source/TransformFunctions/arm_cfft_radix4_q31.c **** 
 288:./Libraries/CMSIS/DSP/Source/TransformFunctions/arm_cfft_radix4_q31.c **** 
 289:./Libraries/CMSIS/DSP/Source/TransformFunctions/arm_cfft_radix4_q31.c ****   for (k = fftLen / 4U; k > 4U; k >>= 2U)
 793              		.loc 1 289 10
 794 0524 BB68     		ldr	r3, [r7, #8]
 795 0526 9B08     		lsrs	r3, r3, #2
 796 0528 C7F89C30 		str	r3, [r7, #156]
 797              		.loc 1 289 3
 798 052c 8AE2     		b	.L8
 799              	.L13:
 290:./Libraries/CMSIS/DSP/Source/TransformFunctions/arm_cfft_radix4_q31.c ****   {
 291:./Libraries/CMSIS/DSP/Source/TransformFunctions/arm_cfft_radix4_q31.c ****     /*  Initializations for the first stage */
 292:./Libraries/CMSIS/DSP/Source/TransformFunctions/arm_cfft_radix4_q31.c ****     n1 = n2;
 800              		.loc 1 292 8
 801 052e D7F8AC30 		ldr	r3, [r7, #172]
 802 0532 C7F89430 		str	r3, [r7, #148]
 293:./Libraries/CMSIS/DSP/Source/TransformFunctions/arm_cfft_radix4_q31.c ****     n2 >>= 2U;
 803              		.loc 1 293 8
 804 0536 D7F8AC30 		ldr	r3, [r7, #172]
 805 053a 9B08     		lsrs	r3, r3, #2
 806 053c C7F8AC30 		str	r3, [r7, #172]
 294:./Libraries/CMSIS/DSP/Source/TransformFunctions/arm_cfft_radix4_q31.c ****     ia1 = 0U;
 807              		.loc 1 294 9
 808 0540 0023     		movs	r3, #0
 809 0542 C7F8A830 		str	r3, [r7, #168]
 295:./Libraries/CMSIS/DSP/Source/TransformFunctions/arm_cfft_radix4_q31.c **** 
 296:./Libraries/CMSIS/DSP/Source/TransformFunctions/arm_cfft_radix4_q31.c ****     /*  Calculation of first stage */
 297:./Libraries/CMSIS/DSP/Source/TransformFunctions/arm_cfft_radix4_q31.c ****     for (j = 0U; j <= (n2 - 1U); j++)
 810              		.loc 1 297 12
 811 0546 0023     		movs	r3, #0
 812 0548 C7F8A030 		str	r3, [r7, #160]
 813              		.loc 1 297 5
 814 054c 6AE2     		b	.L9
 815              	.L12:
 298:./Libraries/CMSIS/DSP/Source/TransformFunctions/arm_cfft_radix4_q31.c ****     {
 299:./Libraries/CMSIS/DSP/Source/TransformFunctions/arm_cfft_radix4_q31.c ****       /*  index calculation for the coefficients */
 300:./Libraries/CMSIS/DSP/Source/TransformFunctions/arm_cfft_radix4_q31.c ****       ia2 = ia1 + ia1;
 816              		.loc 1 300 11
 817 054e D7F8A830 		ldr	r3, [r7, #168]
 818 0552 5B00     		lsls	r3, r3, #1
 819 0554 FB66     		str	r3, [r7, #108]
 301:./Libraries/CMSIS/DSP/Source/TransformFunctions/arm_cfft_radix4_q31.c ****       ia3 = ia2 + ia1;
 820              		.loc 1 301 11
 821 0556 FA6E     		ldr	r2, [r7, #108]
 822 0558 D7F8A830 		ldr	r3, [r7, #168]
 823 055c 1344     		add	r3, r3, r2
 824 055e BB65     		str	r3, [r7, #88]
ARM GAS  /tmp/ccanIW00.s 			page 21


 302:./Libraries/CMSIS/DSP/Source/TransformFunctions/arm_cfft_radix4_q31.c ****       co1 = pCoef[(ia1 * 2U)];
 825              		.loc 1 302 18
 826 0560 D7F8A830 		ldr	r3, [r7, #168]
 827 0564 DB00     		lsls	r3, r3, #3
 828 0566 7A68     		ldr	r2, [r7, #4]
 829 0568 1344     		add	r3, r3, r2
 830              		.loc 1 302 11
 831 056a 1B68     		ldr	r3, [r3]
 832 056c 3B66     		str	r3, [r7, #96]
 303:./Libraries/CMSIS/DSP/Source/TransformFunctions/arm_cfft_radix4_q31.c ****       si1 = pCoef[(ia1 * 2U) + 1U];
 833              		.loc 1 303 18
 834 056e D7F8A830 		ldr	r3, [r7, #168]
 835 0572 DB00     		lsls	r3, r3, #3
 836 0574 0433     		adds	r3, r3, #4
 837 0576 7A68     		ldr	r2, [r7, #4]
 838 0578 1344     		add	r3, r3, r2
 839              		.loc 1 303 11
 840 057a 1B68     		ldr	r3, [r3]
 841 057c FB65     		str	r3, [r7, #92]
 304:./Libraries/CMSIS/DSP/Source/TransformFunctions/arm_cfft_radix4_q31.c ****       co2 = pCoef[(ia2 * 2U)];
 842              		.loc 1 304 18
 843 057e FB6E     		ldr	r3, [r7, #108]
 844 0580 DB00     		lsls	r3, r3, #3
 845 0582 7A68     		ldr	r2, [r7, #4]
 846 0584 1344     		add	r3, r3, r2
 847              		.loc 1 304 11
 848 0586 1B68     		ldr	r3, [r3]
 849 0588 BB66     		str	r3, [r7, #104]
 305:./Libraries/CMSIS/DSP/Source/TransformFunctions/arm_cfft_radix4_q31.c ****       si2 = pCoef[(ia2 * 2U) + 1U];
 850              		.loc 1 305 18
 851 058a FB6E     		ldr	r3, [r7, #108]
 852 058c DB00     		lsls	r3, r3, #3
 853 058e 0433     		adds	r3, r3, #4
 854 0590 7A68     		ldr	r2, [r7, #4]
 855 0592 1344     		add	r3, r3, r2
 856              		.loc 1 305 11
 857 0594 1B68     		ldr	r3, [r3]
 858 0596 7B66     		str	r3, [r7, #100]
 306:./Libraries/CMSIS/DSP/Source/TransformFunctions/arm_cfft_radix4_q31.c ****       co3 = pCoef[(ia3 * 2U)];
 859              		.loc 1 306 18
 860 0598 BB6D     		ldr	r3, [r7, #88]
 861 059a DB00     		lsls	r3, r3, #3
 862 059c 7A68     		ldr	r2, [r7, #4]
 863 059e 1344     		add	r3, r3, r2
 864              		.loc 1 306 11
 865 05a0 1B68     		ldr	r3, [r3]
 866 05a2 7B65     		str	r3, [r7, #84]
 307:./Libraries/CMSIS/DSP/Source/TransformFunctions/arm_cfft_radix4_q31.c ****       si3 = pCoef[(ia3 * 2U) + 1U];
 867              		.loc 1 307 18
 868 05a4 BB6D     		ldr	r3, [r7, #88]
 869 05a6 DB00     		lsls	r3, r3, #3
 870 05a8 0433     		adds	r3, r3, #4
 871 05aa 7A68     		ldr	r2, [r7, #4]
 872 05ac 1344     		add	r3, r3, r2
 873              		.loc 1 307 11
 874 05ae 1B68     		ldr	r3, [r3]
 875 05b0 3B65     		str	r3, [r7, #80]
ARM GAS  /tmp/ccanIW00.s 			page 22


 308:./Libraries/CMSIS/DSP/Source/TransformFunctions/arm_cfft_radix4_q31.c ****       /*  Twiddle coefficients index modifier */
 309:./Libraries/CMSIS/DSP/Source/TransformFunctions/arm_cfft_radix4_q31.c ****       ia1 = ia1 + twidCoefModifier;
 876              		.loc 1 309 11
 877 05b2 D7F8A820 		ldr	r2, [r7, #168]
 878 05b6 3B68     		ldr	r3, [r7]
 879 05b8 1344     		add	r3, r3, r2
 880 05ba C7F8A830 		str	r3, [r7, #168]
 310:./Libraries/CMSIS/DSP/Source/TransformFunctions/arm_cfft_radix4_q31.c **** 
 311:./Libraries/CMSIS/DSP/Source/TransformFunctions/arm_cfft_radix4_q31.c ****       for (i0 = j; i0 < fftLen; i0 += n1)
 881              		.loc 1 311 15
 882 05be D7F8A030 		ldr	r3, [r7, #160]
 883 05c2 C7F8A430 		str	r3, [r7, #164]
 884              		.loc 1 311 7
 885 05c6 22E2     		b	.L10
 886              	.L11:
 312:./Libraries/CMSIS/DSP/Source/TransformFunctions/arm_cfft_radix4_q31.c ****       {
 313:./Libraries/CMSIS/DSP/Source/TransformFunctions/arm_cfft_radix4_q31.c ****         /*  index calculation for the input as, */
 314:./Libraries/CMSIS/DSP/Source/TransformFunctions/arm_cfft_radix4_q31.c ****         /*  pSrc[i0 + 0], pSrc[i0 + fftLen/4], pSrc[i0 + fftLen/2U], pSrc[i0 + 3fftLen/4] */
 315:./Libraries/CMSIS/DSP/Source/TransformFunctions/arm_cfft_radix4_q31.c ****         i1 = i0 + n2;
 887              		.loc 1 315 12 discriminator 3
 888 05c8 D7F8A420 		ldr	r2, [r7, #164]
 889 05cc D7F8AC30 		ldr	r3, [r7, #172]
 890 05d0 1344     		add	r3, r3, r2
 891 05d2 C7F89030 		str	r3, [r7, #144]
 316:./Libraries/CMSIS/DSP/Source/TransformFunctions/arm_cfft_radix4_q31.c ****         i2 = i1 + n2;
 892              		.loc 1 316 12 discriminator 3
 893 05d6 D7F89020 		ldr	r2, [r7, #144]
 894 05da D7F8AC30 		ldr	r3, [r7, #172]
 895 05de 1344     		add	r3, r3, r2
 896 05e0 C7F88C30 		str	r3, [r7, #140]
 317:./Libraries/CMSIS/DSP/Source/TransformFunctions/arm_cfft_radix4_q31.c ****         i3 = i2 + n2;
 897              		.loc 1 317 12 discriminator 3
 898 05e4 D7F88C20 		ldr	r2, [r7, #140]
 899 05e8 D7F8AC30 		ldr	r3, [r7, #172]
 900 05ec 1344     		add	r3, r3, r2
 901 05ee C7F88830 		str	r3, [r7, #136]
 318:./Libraries/CMSIS/DSP/Source/TransformFunctions/arm_cfft_radix4_q31.c **** 
 319:./Libraries/CMSIS/DSP/Source/TransformFunctions/arm_cfft_radix4_q31.c ****         /*  Butterfly implementation */
 320:./Libraries/CMSIS/DSP/Source/TransformFunctions/arm_cfft_radix4_q31.c ****         /* xa + xc */
 321:./Libraries/CMSIS/DSP/Source/TransformFunctions/arm_cfft_radix4_q31.c ****         r1 = pSrc[2U * i0] + pSrc[2U * i2];
 902              		.loc 1 321 18 discriminator 3
 903 05f2 D7F8A430 		ldr	r3, [r7, #164]
 904 05f6 DB00     		lsls	r3, r3, #3
 905 05f8 FA68     		ldr	r2, [r7, #12]
 906 05fa 1344     		add	r3, r3, r2
 907 05fc 1A68     		ldr	r2, [r3]
 908              		.loc 1 321 34 discriminator 3
 909 05fe D7F88C30 		ldr	r3, [r7, #140]
 910 0602 DB00     		lsls	r3, r3, #3
 911 0604 F968     		ldr	r1, [r7, #12]
 912 0606 0B44     		add	r3, r3, r1
 913 0608 1B68     		ldr	r3, [r3]
 914              		.loc 1 321 12 discriminator 3
 915 060a 1344     		add	r3, r3, r2
 916 060c C7F88430 		str	r3, [r7, #132]
 322:./Libraries/CMSIS/DSP/Source/TransformFunctions/arm_cfft_radix4_q31.c ****         /* xa - xc */
 323:./Libraries/CMSIS/DSP/Source/TransformFunctions/arm_cfft_radix4_q31.c ****         r2 = pSrc[2U * i0] - pSrc[2U * i2];
ARM GAS  /tmp/ccanIW00.s 			page 23


 917              		.loc 1 323 18 discriminator 3
 918 0610 D7F8A430 		ldr	r3, [r7, #164]
 919 0614 DB00     		lsls	r3, r3, #3
 920 0616 FA68     		ldr	r2, [r7, #12]
 921 0618 1344     		add	r3, r3, r2
 922 061a 1A68     		ldr	r2, [r3]
 923              		.loc 1 323 34 discriminator 3
 924 061c D7F88C30 		ldr	r3, [r7, #140]
 925 0620 DB00     		lsls	r3, r3, #3
 926 0622 F968     		ldr	r1, [r7, #12]
 927 0624 0B44     		add	r3, r3, r1
 928 0626 1B68     		ldr	r3, [r3]
 929              		.loc 1 323 12 discriminator 3
 930 0628 D31A     		subs	r3, r2, r3
 931 062a C7F88030 		str	r3, [r7, #128]
 324:./Libraries/CMSIS/DSP/Source/TransformFunctions/arm_cfft_radix4_q31.c **** 
 325:./Libraries/CMSIS/DSP/Source/TransformFunctions/arm_cfft_radix4_q31.c ****         /* ya + yc */
 326:./Libraries/CMSIS/DSP/Source/TransformFunctions/arm_cfft_radix4_q31.c ****         s1 = pSrc[(2U * i0) + 1U] + pSrc[(2U * i2) + 1U];
 932              		.loc 1 326 18 discriminator 3
 933 062e D7F8A430 		ldr	r3, [r7, #164]
 934 0632 DB00     		lsls	r3, r3, #3
 935 0634 0433     		adds	r3, r3, #4
 936 0636 FA68     		ldr	r2, [r7, #12]
 937 0638 1344     		add	r3, r3, r2
 938 063a 1A68     		ldr	r2, [r3]
 939              		.loc 1 326 41 discriminator 3
 940 063c D7F88C30 		ldr	r3, [r7, #140]
 941 0640 DB00     		lsls	r3, r3, #3
 942 0642 0433     		adds	r3, r3, #4
 943 0644 F968     		ldr	r1, [r7, #12]
 944 0646 0B44     		add	r3, r3, r1
 945 0648 1B68     		ldr	r3, [r3]
 946              		.loc 1 326 12 discriminator 3
 947 064a 1344     		add	r3, r3, r2
 948 064c BB67     		str	r3, [r7, #120]
 327:./Libraries/CMSIS/DSP/Source/TransformFunctions/arm_cfft_radix4_q31.c ****         /* ya - yc */
 328:./Libraries/CMSIS/DSP/Source/TransformFunctions/arm_cfft_radix4_q31.c ****         s2 = pSrc[(2U * i0) + 1U] - pSrc[(2U * i2) + 1U];
 949              		.loc 1 328 18 discriminator 3
 950 064e D7F8A430 		ldr	r3, [r7, #164]
 951 0652 DB00     		lsls	r3, r3, #3
 952 0654 0433     		adds	r3, r3, #4
 953 0656 FA68     		ldr	r2, [r7, #12]
 954 0658 1344     		add	r3, r3, r2
 955 065a 1A68     		ldr	r2, [r3]
 956              		.loc 1 328 41 discriminator 3
 957 065c D7F88C30 		ldr	r3, [r7, #140]
 958 0660 DB00     		lsls	r3, r3, #3
 959 0662 0433     		adds	r3, r3, #4
 960 0664 F968     		ldr	r1, [r7, #12]
 961 0666 0B44     		add	r3, r3, r1
 962 0668 1B68     		ldr	r3, [r3]
 963              		.loc 1 328 12 discriminator 3
 964 066a D31A     		subs	r3, r2, r3
 965 066c 7B67     		str	r3, [r7, #116]
 329:./Libraries/CMSIS/DSP/Source/TransformFunctions/arm_cfft_radix4_q31.c **** 
 330:./Libraries/CMSIS/DSP/Source/TransformFunctions/arm_cfft_radix4_q31.c ****         /* xb + xd */
 331:./Libraries/CMSIS/DSP/Source/TransformFunctions/arm_cfft_radix4_q31.c ****         t1 = pSrc[2U * i1] + pSrc[2U * i3];
ARM GAS  /tmp/ccanIW00.s 			page 24


 966              		.loc 1 331 18 discriminator 3
 967 066e D7F89030 		ldr	r3, [r7, #144]
 968 0672 DB00     		lsls	r3, r3, #3
 969 0674 FA68     		ldr	r2, [r7, #12]
 970 0676 1344     		add	r3, r3, r2
 971 0678 1A68     		ldr	r2, [r3]
 972              		.loc 1 331 34 discriminator 3
 973 067a D7F88830 		ldr	r3, [r7, #136]
 974 067e DB00     		lsls	r3, r3, #3
 975 0680 F968     		ldr	r1, [r7, #12]
 976 0682 0B44     		add	r3, r3, r1
 977 0684 1B68     		ldr	r3, [r3]
 978              		.loc 1 331 12 discriminator 3
 979 0686 1344     		add	r3, r3, r2
 980 0688 FB67     		str	r3, [r7, #124]
 332:./Libraries/CMSIS/DSP/Source/TransformFunctions/arm_cfft_radix4_q31.c **** 
 333:./Libraries/CMSIS/DSP/Source/TransformFunctions/arm_cfft_radix4_q31.c ****         /* xa' = xa + xb + xc + xd */
 334:./Libraries/CMSIS/DSP/Source/TransformFunctions/arm_cfft_radix4_q31.c ****         pSrc[2U * i0] = (r1 + t1) >> 2U;
 981              		.loc 1 334 29 discriminator 3
 982 068a D7F88420 		ldr	r2, [r7, #132]
 983 068e FB6F     		ldr	r3, [r7, #124]
 984 0690 1A44     		add	r2, r2, r3
 985              		.loc 1 334 13 discriminator 3
 986 0692 D7F8A430 		ldr	r3, [r7, #164]
 987 0696 DB00     		lsls	r3, r3, #3
 988 0698 F968     		ldr	r1, [r7, #12]
 989 069a 0B44     		add	r3, r3, r1
 990              		.loc 1 334 35 discriminator 3
 991 069c 9210     		asrs	r2, r2, #2
 992              		.loc 1 334 23 discriminator 3
 993 069e 1A60     		str	r2, [r3]
 335:./Libraries/CMSIS/DSP/Source/TransformFunctions/arm_cfft_radix4_q31.c ****         /* xa + xc -(xb + xd) */
 336:./Libraries/CMSIS/DSP/Source/TransformFunctions/arm_cfft_radix4_q31.c ****         r1 = r1 - t1;
 994              		.loc 1 336 12 discriminator 3
 995 06a0 D7F88420 		ldr	r2, [r7, #132]
 996 06a4 FB6F     		ldr	r3, [r7, #124]
 997 06a6 D31A     		subs	r3, r2, r3
 998 06a8 C7F88430 		str	r3, [r7, #132]
 337:./Libraries/CMSIS/DSP/Source/TransformFunctions/arm_cfft_radix4_q31.c **** 
 338:./Libraries/CMSIS/DSP/Source/TransformFunctions/arm_cfft_radix4_q31.c ****         /* yb + yd */
 339:./Libraries/CMSIS/DSP/Source/TransformFunctions/arm_cfft_radix4_q31.c ****         t2 = pSrc[(2U * i1) + 1U] + pSrc[(2U * i3) + 1U];
 999              		.loc 1 339 18 discriminator 3
 1000 06ac D7F89030 		ldr	r3, [r7, #144]
 1001 06b0 DB00     		lsls	r3, r3, #3
 1002 06b2 0433     		adds	r3, r3, #4
 1003 06b4 FA68     		ldr	r2, [r7, #12]
 1004 06b6 1344     		add	r3, r3, r2
 1005 06b8 1A68     		ldr	r2, [r3]
 1006              		.loc 1 339 41 discriminator 3
 1007 06ba D7F88830 		ldr	r3, [r7, #136]
 1008 06be DB00     		lsls	r3, r3, #3
 1009 06c0 0433     		adds	r3, r3, #4
 1010 06c2 F968     		ldr	r1, [r7, #12]
 1011 06c4 0B44     		add	r3, r3, r1
 1012 06c6 1B68     		ldr	r3, [r3]
 1013              		.loc 1 339 12 discriminator 3
 1014 06c8 1344     		add	r3, r3, r2
ARM GAS  /tmp/ccanIW00.s 			page 25


 1015 06ca 3B67     		str	r3, [r7, #112]
 340:./Libraries/CMSIS/DSP/Source/TransformFunctions/arm_cfft_radix4_q31.c ****         /* ya' = ya + yb + yc + yd */
 341:./Libraries/CMSIS/DSP/Source/TransformFunctions/arm_cfft_radix4_q31.c ****         pSrc[(2U * i0) + 1U] = (s1 + t2) >> 2U;
 1016              		.loc 1 341 36 discriminator 3
 1017 06cc BA6F     		ldr	r2, [r7, #120]
 1018 06ce 3B6F     		ldr	r3, [r7, #112]
 1019 06d0 1A44     		add	r2, r2, r3
 1020              		.loc 1 341 13 discriminator 3
 1021 06d2 D7F8A430 		ldr	r3, [r7, #164]
 1022 06d6 DB00     		lsls	r3, r3, #3
 1023 06d8 0433     		adds	r3, r3, #4
 1024 06da F968     		ldr	r1, [r7, #12]
 1025 06dc 0B44     		add	r3, r3, r1
 1026              		.loc 1 341 42 discriminator 3
 1027 06de 9210     		asrs	r2, r2, #2
 1028              		.loc 1 341 30 discriminator 3
 1029 06e0 1A60     		str	r2, [r3]
 342:./Libraries/CMSIS/DSP/Source/TransformFunctions/arm_cfft_radix4_q31.c **** 
 343:./Libraries/CMSIS/DSP/Source/TransformFunctions/arm_cfft_radix4_q31.c ****         /* (ya + yc) - (yb + yd) */
 344:./Libraries/CMSIS/DSP/Source/TransformFunctions/arm_cfft_radix4_q31.c ****         s1 = s1 - t2;
 1030              		.loc 1 344 12 discriminator 3
 1031 06e2 BA6F     		ldr	r2, [r7, #120]
 1032 06e4 3B6F     		ldr	r3, [r7, #112]
 1033 06e6 D31A     		subs	r3, r2, r3
 1034 06e8 BB67     		str	r3, [r7, #120]
 345:./Libraries/CMSIS/DSP/Source/TransformFunctions/arm_cfft_radix4_q31.c **** 
 346:./Libraries/CMSIS/DSP/Source/TransformFunctions/arm_cfft_radix4_q31.c ****         /* (yb - yd) */
 347:./Libraries/CMSIS/DSP/Source/TransformFunctions/arm_cfft_radix4_q31.c ****         t1 = pSrc[(2U * i1) + 1U] - pSrc[(2U * i3) + 1U];
 1035              		.loc 1 347 18 discriminator 3
 1036 06ea D7F89030 		ldr	r3, [r7, #144]
 1037 06ee DB00     		lsls	r3, r3, #3
 1038 06f0 0433     		adds	r3, r3, #4
 1039 06f2 FA68     		ldr	r2, [r7, #12]
 1040 06f4 1344     		add	r3, r3, r2
 1041 06f6 1A68     		ldr	r2, [r3]
 1042              		.loc 1 347 41 discriminator 3
 1043 06f8 D7F88830 		ldr	r3, [r7, #136]
 1044 06fc DB00     		lsls	r3, r3, #3
 1045 06fe 0433     		adds	r3, r3, #4
 1046 0700 F968     		ldr	r1, [r7, #12]
 1047 0702 0B44     		add	r3, r3, r1
 1048 0704 1B68     		ldr	r3, [r3]
 1049              		.loc 1 347 12 discriminator 3
 1050 0706 D31A     		subs	r3, r2, r3
 1051 0708 FB67     		str	r3, [r7, #124]
 348:./Libraries/CMSIS/DSP/Source/TransformFunctions/arm_cfft_radix4_q31.c ****         /* (xb - xd) */
 349:./Libraries/CMSIS/DSP/Source/TransformFunctions/arm_cfft_radix4_q31.c ****         t2 = pSrc[2U * i1] - pSrc[2U * i3];
 1052              		.loc 1 349 18 discriminator 3
 1053 070a D7F89030 		ldr	r3, [r7, #144]
 1054 070e DB00     		lsls	r3, r3, #3
 1055 0710 FA68     		ldr	r2, [r7, #12]
 1056 0712 1344     		add	r3, r3, r2
 1057 0714 1A68     		ldr	r2, [r3]
 1058              		.loc 1 349 34 discriminator 3
 1059 0716 D7F88830 		ldr	r3, [r7, #136]
 1060 071a DB00     		lsls	r3, r3, #3
 1061 071c F968     		ldr	r1, [r7, #12]
ARM GAS  /tmp/ccanIW00.s 			page 26


 1062 071e 0B44     		add	r3, r3, r1
 1063 0720 1B68     		ldr	r3, [r3]
 1064              		.loc 1 349 12 discriminator 3
 1065 0722 D31A     		subs	r3, r2, r3
 1066 0724 3B67     		str	r3, [r7, #112]
 350:./Libraries/CMSIS/DSP/Source/TransformFunctions/arm_cfft_radix4_q31.c **** 
 351:./Libraries/CMSIS/DSP/Source/TransformFunctions/arm_cfft_radix4_q31.c ****         /* xc' = (xa-xb+xc-xd)co2 + (ya-yb+yc-yd)(si2) */
 352:./Libraries/CMSIS/DSP/Source/TransformFunctions/arm_cfft_radix4_q31.c ****         pSrc[2U * i1] = (((int32_t) (((q63_t) r1 * co2) >> 32)) +
 1067              		.loc 1 352 39 discriminator 3
 1068 0726 D7F88430 		ldr	r3, [r7, #132]
 1069 072a 1846     		mov	r0, r3
 1070 072c 4FEAE071 		asr	r1, r0, #31
 1071              		.loc 1 352 50 discriminator 3
 1072 0730 BB6E     		ldr	r3, [r7, #104]
 1073 0732 1A46     		mov	r2, r3
 1074 0734 4FEAE273 		asr	r3, r2, #31
 1075 0738 02FB01F5 		mul	r5, r2, r1
 1076 073c 00FB03F4 		mul	r4, r0, r3
 1077 0740 2C44     		add	r4, r4, r5
 1078 0742 A0FB0223 		umull	r2, r3, r0, r2
 1079 0746 E118     		adds	r1, r4, r3
 1080 0748 0B46     		mov	r3, r1
 1081              		.loc 1 352 57 discriminator 3
 1082 074a 4FF00000 		mov	r0, #0
 1083 074e 4FF00001 		mov	r1, #0
 1084 0752 1800     		movs	r0, r3
 1085 0754 D917     		asrs	r1, r3, #31
 1086              		.loc 1 352 27 discriminator 3
 1087 0756 0646     		mov	r6, r0
 353:./Libraries/CMSIS/DSP/Source/TransformFunctions/arm_cfft_radix4_q31.c ****                          ((int32_t) (((q63_t) s1 * si2) >> 32))) >> 1U;
 1088              		.loc 1 353 39 discriminator 3
 1089 0758 BB6F     		ldr	r3, [r7, #120]
 1090 075a 1846     		mov	r0, r3
 1091 075c 4FEAE071 		asr	r1, r0, #31
 1092              		.loc 1 353 50 discriminator 3
 1093 0760 7B6E     		ldr	r3, [r7, #100]
 1094 0762 1A46     		mov	r2, r3
 1095 0764 4FEAE273 		asr	r3, r2, #31
 1096 0768 02FB01F5 		mul	r5, r2, r1
 1097 076c 00FB03F4 		mul	r4, r0, r3
 1098 0770 2C44     		add	r4, r4, r5
 1099 0772 A0FB0223 		umull	r2, r3, r0, r2
 1100 0776 E118     		adds	r1, r4, r3
 1101 0778 0B46     		mov	r3, r1
 1102              		.loc 1 353 57 discriminator 3
 1103 077a 4FF00000 		mov	r0, #0
 1104 077e 4FF00001 		mov	r1, #0
 1105 0782 1800     		movs	r0, r3
 1106 0784 D917     		asrs	r1, r3, #31
 1107              		.loc 1 353 27 discriminator 3
 1108 0786 0346     		mov	r3, r0
 352:./Libraries/CMSIS/DSP/Source/TransformFunctions/arm_cfft_radix4_q31.c ****                          ((int32_t) (((q63_t) s1 * si2) >> 32))) >> 1U;
 1109              		.loc 1 352 65 discriminator 3
 1110 0788 F218     		adds	r2, r6, r3
 352:./Libraries/CMSIS/DSP/Source/TransformFunctions/arm_cfft_radix4_q31.c ****                          ((int32_t) (((q63_t) s1 * si2) >> 32))) >> 1U;
 1111              		.loc 1 352 13 discriminator 3
 1112 078a D7F89030 		ldr	r3, [r7, #144]
ARM GAS  /tmp/ccanIW00.s 			page 27


 1113 078e DB00     		lsls	r3, r3, #3
 1114 0790 F968     		ldr	r1, [r7, #12]
 1115 0792 0B44     		add	r3, r3, r1
 1116              		.loc 1 353 66 discriminator 3
 1117 0794 5210     		asrs	r2, r2, #1
 352:./Libraries/CMSIS/DSP/Source/TransformFunctions/arm_cfft_radix4_q31.c ****                          ((int32_t) (((q63_t) s1 * si2) >> 32))) >> 1U;
 1118              		.loc 1 352 23 discriminator 3
 1119 0796 1A60     		str	r2, [r3]
 354:./Libraries/CMSIS/DSP/Source/TransformFunctions/arm_cfft_radix4_q31.c **** 
 355:./Libraries/CMSIS/DSP/Source/TransformFunctions/arm_cfft_radix4_q31.c ****         /* yc' = (ya-yb+yc-yd)co2 - (xa-xb+xc-xd)(si2) */
 356:./Libraries/CMSIS/DSP/Source/TransformFunctions/arm_cfft_radix4_q31.c ****         pSrc[(2U * i1) + 1U] = (((int32_t) (((q63_t) s1 * co2) >> 32)) -
 1120              		.loc 1 356 46 discriminator 3
 1121 0798 BB6F     		ldr	r3, [r7, #120]
 1122 079a 1846     		mov	r0, r3
 1123 079c 4FEAE071 		asr	r1, r0, #31
 1124              		.loc 1 356 57 discriminator 3
 1125 07a0 BB6E     		ldr	r3, [r7, #104]
 1126 07a2 1A46     		mov	r2, r3
 1127 07a4 4FEAE273 		asr	r3, r2, #31
 1128 07a8 02FB01F5 		mul	r5, r2, r1
 1129 07ac 00FB03F4 		mul	r4, r0, r3
 1130 07b0 2C44     		add	r4, r4, r5
 1131 07b2 A0FB0223 		umull	r2, r3, r0, r2
 1132 07b6 E118     		adds	r1, r4, r3
 1133 07b8 0B46     		mov	r3, r1
 1134              		.loc 1 356 64 discriminator 3
 1135 07ba 4FF00000 		mov	r0, #0
 1136 07be 4FF00001 		mov	r1, #0
 1137 07c2 1800     		movs	r0, r3
 1138 07c4 D917     		asrs	r1, r3, #31
 1139              		.loc 1 356 34 discriminator 3
 1140 07c6 0646     		mov	r6, r0
 357:./Libraries/CMSIS/DSP/Source/TransformFunctions/arm_cfft_radix4_q31.c ****                                 ((int32_t) (((q63_t) r1 * si2) >> 32))) >> 1U;
 1141              		.loc 1 357 46 discriminator 3
 1142 07c8 D7F88430 		ldr	r3, [r7, #132]
 1143 07cc 1846     		mov	r0, r3
 1144 07ce 4FEAE071 		asr	r1, r0, #31
 1145              		.loc 1 357 57 discriminator 3
 1146 07d2 7B6E     		ldr	r3, [r7, #100]
 1147 07d4 1A46     		mov	r2, r3
 1148 07d6 4FEAE273 		asr	r3, r2, #31
 1149 07da 02FB01F5 		mul	r5, r2, r1
 1150 07de 00FB03F4 		mul	r4, r0, r3
 1151 07e2 2C44     		add	r4, r4, r5
 1152 07e4 A0FB0223 		umull	r2, r3, r0, r2
 1153 07e8 E118     		adds	r1, r4, r3
 1154 07ea 0B46     		mov	r3, r1
 1155              		.loc 1 357 64 discriminator 3
 1156 07ec 4FF00000 		mov	r0, #0
 1157 07f0 4FF00001 		mov	r1, #0
 1158 07f4 1800     		movs	r0, r3
 1159 07f6 D917     		asrs	r1, r3, #31
 1160              		.loc 1 357 34 discriminator 3
 1161 07f8 0346     		mov	r3, r0
 356:./Libraries/CMSIS/DSP/Source/TransformFunctions/arm_cfft_radix4_q31.c ****                                 ((int32_t) (((q63_t) r1 * si2) >> 32))) >> 1U;
 1162              		.loc 1 356 72 discriminator 3
 1163 07fa F21A     		subs	r2, r6, r3
ARM GAS  /tmp/ccanIW00.s 			page 28


 356:./Libraries/CMSIS/DSP/Source/TransformFunctions/arm_cfft_radix4_q31.c ****                                 ((int32_t) (((q63_t) r1 * si2) >> 32))) >> 1U;
 1164              		.loc 1 356 13 discriminator 3
 1165 07fc D7F89030 		ldr	r3, [r7, #144]
 1166 0800 DB00     		lsls	r3, r3, #3
 1167 0802 0433     		adds	r3, r3, #4
 1168 0804 F968     		ldr	r1, [r7, #12]
 1169 0806 0B44     		add	r3, r3, r1
 1170              		.loc 1 357 73 discriminator 3
 1171 0808 5210     		asrs	r2, r2, #1
 356:./Libraries/CMSIS/DSP/Source/TransformFunctions/arm_cfft_radix4_q31.c ****                                 ((int32_t) (((q63_t) r1 * si2) >> 32))) >> 1U;
 1172              		.loc 1 356 30 discriminator 3
 1173 080a 1A60     		str	r2, [r3]
 358:./Libraries/CMSIS/DSP/Source/TransformFunctions/arm_cfft_radix4_q31.c **** 
 359:./Libraries/CMSIS/DSP/Source/TransformFunctions/arm_cfft_radix4_q31.c ****         /* (xa - xc) + (yb - yd) */
 360:./Libraries/CMSIS/DSP/Source/TransformFunctions/arm_cfft_radix4_q31.c ****         r1 = r2 + t1;
 1174              		.loc 1 360 12 discriminator 3
 1175 080c D7F88020 		ldr	r2, [r7, #128]
 1176 0810 FB6F     		ldr	r3, [r7, #124]
 1177 0812 1344     		add	r3, r3, r2
 1178 0814 C7F88430 		str	r3, [r7, #132]
 361:./Libraries/CMSIS/DSP/Source/TransformFunctions/arm_cfft_radix4_q31.c ****         /* (xa - xc) - (yb - yd) */
 362:./Libraries/CMSIS/DSP/Source/TransformFunctions/arm_cfft_radix4_q31.c ****         r2 = r2 - t1;
 1179              		.loc 1 362 12 discriminator 3
 1180 0818 D7F88020 		ldr	r2, [r7, #128]
 1181 081c FB6F     		ldr	r3, [r7, #124]
 1182 081e D31A     		subs	r3, r2, r3
 1183 0820 C7F88030 		str	r3, [r7, #128]
 363:./Libraries/CMSIS/DSP/Source/TransformFunctions/arm_cfft_radix4_q31.c **** 
 364:./Libraries/CMSIS/DSP/Source/TransformFunctions/arm_cfft_radix4_q31.c ****         /* (ya - yc) -  (xb - xd) */
 365:./Libraries/CMSIS/DSP/Source/TransformFunctions/arm_cfft_radix4_q31.c ****         s1 = s2 - t2;
 1184              		.loc 1 365 12 discriminator 3
 1185 0824 7A6F     		ldr	r2, [r7, #116]
 1186 0826 3B6F     		ldr	r3, [r7, #112]
 1187 0828 D31A     		subs	r3, r2, r3
 1188 082a BB67     		str	r3, [r7, #120]
 366:./Libraries/CMSIS/DSP/Source/TransformFunctions/arm_cfft_radix4_q31.c ****         /* (ya - yc) +  (xb - xd) */
 367:./Libraries/CMSIS/DSP/Source/TransformFunctions/arm_cfft_radix4_q31.c ****         s2 = s2 + t2;
 1189              		.loc 1 367 12 discriminator 3
 1190 082c 7A6F     		ldr	r2, [r7, #116]
 1191 082e 3B6F     		ldr	r3, [r7, #112]
 1192 0830 1344     		add	r3, r3, r2
 1193 0832 7B67     		str	r3, [r7, #116]
 368:./Libraries/CMSIS/DSP/Source/TransformFunctions/arm_cfft_radix4_q31.c **** 
 369:./Libraries/CMSIS/DSP/Source/TransformFunctions/arm_cfft_radix4_q31.c ****         /* xb' = (xa+yb-xc-yd)co1 + (ya-xb-yc+xd)(si1) */
 370:./Libraries/CMSIS/DSP/Source/TransformFunctions/arm_cfft_radix4_q31.c ****         pSrc[2U * i2] = (((int32_t) (((q63_t) r1 * co1) >> 32)) +
 1194              		.loc 1 370 39 discriminator 3
 1195 0834 D7F88430 		ldr	r3, [r7, #132]
 1196 0838 1846     		mov	r0, r3
 1197 083a 4FEAE071 		asr	r1, r0, #31
 1198              		.loc 1 370 50 discriminator 3
 1199 083e 3B6E     		ldr	r3, [r7, #96]
 1200 0840 1A46     		mov	r2, r3
 1201 0842 4FEAE273 		asr	r3, r2, #31
 1202 0846 02FB01F5 		mul	r5, r2, r1
 1203 084a 00FB03F4 		mul	r4, r0, r3
 1204 084e 2C44     		add	r4, r4, r5
 1205 0850 A0FB0223 		umull	r2, r3, r0, r2
ARM GAS  /tmp/ccanIW00.s 			page 29


 1206 0854 E118     		adds	r1, r4, r3
 1207 0856 0B46     		mov	r3, r1
 1208              		.loc 1 370 57 discriminator 3
 1209 0858 4FF00000 		mov	r0, #0
 1210 085c 4FF00001 		mov	r1, #0
 1211 0860 1800     		movs	r0, r3
 1212 0862 D917     		asrs	r1, r3, #31
 1213              		.loc 1 370 27 discriminator 3
 1214 0864 0646     		mov	r6, r0
 371:./Libraries/CMSIS/DSP/Source/TransformFunctions/arm_cfft_radix4_q31.c ****                          ((int32_t) (((q63_t) s1 * si1) >> 32))) >> 1U;
 1215              		.loc 1 371 39 discriminator 3
 1216 0866 BB6F     		ldr	r3, [r7, #120]
 1217 0868 1846     		mov	r0, r3
 1218 086a 4FEAE071 		asr	r1, r0, #31
 1219              		.loc 1 371 50 discriminator 3
 1220 086e FB6D     		ldr	r3, [r7, #92]
 1221 0870 1A46     		mov	r2, r3
 1222 0872 4FEAE273 		asr	r3, r2, #31
 1223 0876 02FB01F5 		mul	r5, r2, r1
 1224 087a 00FB03F4 		mul	r4, r0, r3
 1225 087e 2C44     		add	r4, r4, r5
 1226 0880 A0FB0223 		umull	r2, r3, r0, r2
 1227 0884 E118     		adds	r1, r4, r3
 1228 0886 0B46     		mov	r3, r1
 1229              		.loc 1 371 57 discriminator 3
 1230 0888 4FF00000 		mov	r0, #0
 1231 088c 4FF00001 		mov	r1, #0
 1232 0890 1800     		movs	r0, r3
 1233 0892 D917     		asrs	r1, r3, #31
 1234              		.loc 1 371 27 discriminator 3
 1235 0894 0346     		mov	r3, r0
 370:./Libraries/CMSIS/DSP/Source/TransformFunctions/arm_cfft_radix4_q31.c ****                          ((int32_t) (((q63_t) s1 * si1) >> 32))) >> 1U;
 1236              		.loc 1 370 65 discriminator 3
 1237 0896 F218     		adds	r2, r6, r3
 370:./Libraries/CMSIS/DSP/Source/TransformFunctions/arm_cfft_radix4_q31.c ****                          ((int32_t) (((q63_t) s1 * si1) >> 32))) >> 1U;
 1238              		.loc 1 370 13 discriminator 3
 1239 0898 D7F88C30 		ldr	r3, [r7, #140]
 1240 089c DB00     		lsls	r3, r3, #3
 1241 089e F968     		ldr	r1, [r7, #12]
 1242 08a0 0B44     		add	r3, r3, r1
 1243              		.loc 1 371 66 discriminator 3
 1244 08a2 5210     		asrs	r2, r2, #1
 370:./Libraries/CMSIS/DSP/Source/TransformFunctions/arm_cfft_radix4_q31.c ****                          ((int32_t) (((q63_t) s1 * si1) >> 32))) >> 1U;
 1245              		.loc 1 370 23 discriminator 3
 1246 08a4 1A60     		str	r2, [r3]
 372:./Libraries/CMSIS/DSP/Source/TransformFunctions/arm_cfft_radix4_q31.c **** 
 373:./Libraries/CMSIS/DSP/Source/TransformFunctions/arm_cfft_radix4_q31.c ****         /* yb' = (ya-xb-yc+xd)co1 - (xa+yb-xc-yd)(si1) */
 374:./Libraries/CMSIS/DSP/Source/TransformFunctions/arm_cfft_radix4_q31.c ****         pSrc[(2U * i2) + 1U] = (((int32_t) (((q63_t) s1 * co1) >> 32)) -
 1247              		.loc 1 374 46 discriminator 3
 1248 08a6 BB6F     		ldr	r3, [r7, #120]
 1249 08a8 1846     		mov	r0, r3
 1250 08aa 4FEAE071 		asr	r1, r0, #31
 1251              		.loc 1 374 57 discriminator 3
 1252 08ae 3B6E     		ldr	r3, [r7, #96]
 1253 08b0 1A46     		mov	r2, r3
 1254 08b2 4FEAE273 		asr	r3, r2, #31
 1255 08b6 02FB01F5 		mul	r5, r2, r1
ARM GAS  /tmp/ccanIW00.s 			page 30


 1256 08ba 00FB03F4 		mul	r4, r0, r3
 1257 08be 2C44     		add	r4, r4, r5
 1258 08c0 A0FB0223 		umull	r2, r3, r0, r2
 1259 08c4 E118     		adds	r1, r4, r3
 1260 08c6 0B46     		mov	r3, r1
 1261              		.loc 1 374 64 discriminator 3
 1262 08c8 4FF00000 		mov	r0, #0
 1263 08cc 4FF00001 		mov	r1, #0
 1264 08d0 1800     		movs	r0, r3
 1265 08d2 D917     		asrs	r1, r3, #31
 1266              		.loc 1 374 34 discriminator 3
 1267 08d4 0646     		mov	r6, r0
 375:./Libraries/CMSIS/DSP/Source/TransformFunctions/arm_cfft_radix4_q31.c ****                                 ((int32_t) (((q63_t) r1 * si1) >> 32))) >> 1U;
 1268              		.loc 1 375 46 discriminator 3
 1269 08d6 D7F88430 		ldr	r3, [r7, #132]
 1270 08da 1846     		mov	r0, r3
 1271 08dc 4FEAE071 		asr	r1, r0, #31
 1272              		.loc 1 375 57 discriminator 3
 1273 08e0 FB6D     		ldr	r3, [r7, #92]
 1274 08e2 1A46     		mov	r2, r3
 1275 08e4 4FEAE273 		asr	r3, r2, #31
 1276 08e8 02FB01F5 		mul	r5, r2, r1
 1277 08ec 00FB03F4 		mul	r4, r0, r3
 1278 08f0 2C44     		add	r4, r4, r5
 1279 08f2 A0FB0223 		umull	r2, r3, r0, r2
 1280 08f6 E118     		adds	r1, r4, r3
 1281 08f8 0B46     		mov	r3, r1
 1282              		.loc 1 375 64 discriminator 3
 1283 08fa 4FF00000 		mov	r0, #0
 1284 08fe 4FF00001 		mov	r1, #0
 1285 0902 1800     		movs	r0, r3
 1286 0904 D917     		asrs	r1, r3, #31
 1287              		.loc 1 375 34 discriminator 3
 1288 0906 0346     		mov	r3, r0
 374:./Libraries/CMSIS/DSP/Source/TransformFunctions/arm_cfft_radix4_q31.c ****                                 ((int32_t) (((q63_t) r1 * si1) >> 32))) >> 1U;
 1289              		.loc 1 374 72 discriminator 3
 1290 0908 F21A     		subs	r2, r6, r3
 374:./Libraries/CMSIS/DSP/Source/TransformFunctions/arm_cfft_radix4_q31.c ****                                 ((int32_t) (((q63_t) r1 * si1) >> 32))) >> 1U;
 1291              		.loc 1 374 13 discriminator 3
 1292 090a D7F88C30 		ldr	r3, [r7, #140]
 1293 090e DB00     		lsls	r3, r3, #3
 1294 0910 0433     		adds	r3, r3, #4
 1295 0912 F968     		ldr	r1, [r7, #12]
 1296 0914 0B44     		add	r3, r3, r1
 1297              		.loc 1 375 73 discriminator 3
 1298 0916 5210     		asrs	r2, r2, #1
 374:./Libraries/CMSIS/DSP/Source/TransformFunctions/arm_cfft_radix4_q31.c ****                                 ((int32_t) (((q63_t) r1 * si1) >> 32))) >> 1U;
 1299              		.loc 1 374 30 discriminator 3
 1300 0918 1A60     		str	r2, [r3]
 376:./Libraries/CMSIS/DSP/Source/TransformFunctions/arm_cfft_radix4_q31.c **** 
 377:./Libraries/CMSIS/DSP/Source/TransformFunctions/arm_cfft_radix4_q31.c ****         /* xd' = (xa-yb-xc+yd)co3 + (ya+xb-yc-xd)(si3) */
 378:./Libraries/CMSIS/DSP/Source/TransformFunctions/arm_cfft_radix4_q31.c ****         pSrc[2U * i3] = (((int32_t) (((q63_t) r2 * co3) >> 32)) +
 1301              		.loc 1 378 39 discriminator 3
 1302 091a D7F88030 		ldr	r3, [r7, #128]
 1303 091e 1846     		mov	r0, r3
 1304 0920 4FEAE071 		asr	r1, r0, #31
 1305              		.loc 1 378 50 discriminator 3
ARM GAS  /tmp/ccanIW00.s 			page 31


 1306 0924 7B6D     		ldr	r3, [r7, #84]
 1307 0926 1A46     		mov	r2, r3
 1308 0928 4FEAE273 		asr	r3, r2, #31
 1309 092c 02FB01F5 		mul	r5, r2, r1
 1310 0930 00FB03F4 		mul	r4, r0, r3
 1311 0934 2C44     		add	r4, r4, r5
 1312 0936 A0FB0223 		umull	r2, r3, r0, r2
 1313 093a E118     		adds	r1, r4, r3
 1314 093c 0B46     		mov	r3, r1
 1315              		.loc 1 378 57 discriminator 3
 1316 093e 4FF00000 		mov	r0, #0
 1317 0942 4FF00001 		mov	r1, #0
 1318 0946 1800     		movs	r0, r3
 1319 0948 D917     		asrs	r1, r3, #31
 1320              		.loc 1 378 27 discriminator 3
 1321 094a 0646     		mov	r6, r0
 379:./Libraries/CMSIS/DSP/Source/TransformFunctions/arm_cfft_radix4_q31.c ****                          ((int32_t) (((q63_t) s2 * si3) >> 32))) >> 1U;
 1322              		.loc 1 379 39 discriminator 3
 1323 094c 7B6F     		ldr	r3, [r7, #116]
 1324 094e 1846     		mov	r0, r3
 1325 0950 4FEAE071 		asr	r1, r0, #31
 1326              		.loc 1 379 50 discriminator 3
 1327 0954 3B6D     		ldr	r3, [r7, #80]
 1328 0956 1A46     		mov	r2, r3
 1329 0958 4FEAE273 		asr	r3, r2, #31
 1330 095c 02FB01F5 		mul	r5, r2, r1
 1331 0960 00FB03F4 		mul	r4, r0, r3
 1332 0964 2C44     		add	r4, r4, r5
 1333 0966 A0FB0223 		umull	r2, r3, r0, r2
 1334 096a E118     		adds	r1, r4, r3
 1335 096c 0B46     		mov	r3, r1
 1336              		.loc 1 379 57 discriminator 3
 1337 096e 4FF00000 		mov	r0, #0
 1338 0972 4FF00001 		mov	r1, #0
 1339 0976 1800     		movs	r0, r3
 1340 0978 D917     		asrs	r1, r3, #31
 1341              		.loc 1 379 27 discriminator 3
 1342 097a 0346     		mov	r3, r0
 378:./Libraries/CMSIS/DSP/Source/TransformFunctions/arm_cfft_radix4_q31.c ****                          ((int32_t) (((q63_t) s2 * si3) >> 32))) >> 1U;
 1343              		.loc 1 378 65 discriminator 3
 1344 097c F218     		adds	r2, r6, r3
 378:./Libraries/CMSIS/DSP/Source/TransformFunctions/arm_cfft_radix4_q31.c ****                          ((int32_t) (((q63_t) s2 * si3) >> 32))) >> 1U;
 1345              		.loc 1 378 13 discriminator 3
 1346 097e D7F88830 		ldr	r3, [r7, #136]
 1347 0982 DB00     		lsls	r3, r3, #3
 1348 0984 F968     		ldr	r1, [r7, #12]
 1349 0986 0B44     		add	r3, r3, r1
 1350              		.loc 1 379 66 discriminator 3
 1351 0988 5210     		asrs	r2, r2, #1
 378:./Libraries/CMSIS/DSP/Source/TransformFunctions/arm_cfft_radix4_q31.c ****                          ((int32_t) (((q63_t) s2 * si3) >> 32))) >> 1U;
 1352              		.loc 1 378 23 discriminator 3
 1353 098a 1A60     		str	r2, [r3]
 380:./Libraries/CMSIS/DSP/Source/TransformFunctions/arm_cfft_radix4_q31.c **** 
 381:./Libraries/CMSIS/DSP/Source/TransformFunctions/arm_cfft_radix4_q31.c ****         /* yd' = (ya+xb-yc-xd)co3 - (xa-yb-xc+yd)(si3) */
 382:./Libraries/CMSIS/DSP/Source/TransformFunctions/arm_cfft_radix4_q31.c ****         pSrc[(2U * i3) + 1U] = (((int32_t) (((q63_t) s2 * co3) >> 32)) -
 1354              		.loc 1 382 46 discriminator 3
 1355 098c 7B6F     		ldr	r3, [r7, #116]
ARM GAS  /tmp/ccanIW00.s 			page 32


 1356 098e 1846     		mov	r0, r3
 1357 0990 4FEAE071 		asr	r1, r0, #31
 1358              		.loc 1 382 57 discriminator 3
 1359 0994 7B6D     		ldr	r3, [r7, #84]
 1360 0996 1A46     		mov	r2, r3
 1361 0998 4FEAE273 		asr	r3, r2, #31
 1362 099c 02FB01F5 		mul	r5, r2, r1
 1363 09a0 00FB03F4 		mul	r4, r0, r3
 1364 09a4 2C44     		add	r4, r4, r5
 1365 09a6 A0FB0223 		umull	r2, r3, r0, r2
 1366 09aa E118     		adds	r1, r4, r3
 1367 09ac 0B46     		mov	r3, r1
 1368              		.loc 1 382 64 discriminator 3
 1369 09ae 4FF00000 		mov	r0, #0
 1370 09b2 4FF00001 		mov	r1, #0
 1371 09b6 1800     		movs	r0, r3
 1372 09b8 D917     		asrs	r1, r3, #31
 1373              		.loc 1 382 34 discriminator 3
 1374 09ba 0646     		mov	r6, r0
 383:./Libraries/CMSIS/DSP/Source/TransformFunctions/arm_cfft_radix4_q31.c ****                                 ((int32_t) (((q63_t) r2 * si3) >> 32))) >> 1U;
 1375              		.loc 1 383 46 discriminator 3
 1376 09bc D7F88030 		ldr	r3, [r7, #128]
 1377 09c0 1846     		mov	r0, r3
 1378 09c2 4FEAE071 		asr	r1, r0, #31
 1379              		.loc 1 383 57 discriminator 3
 1380 09c6 3B6D     		ldr	r3, [r7, #80]
 1381 09c8 1A46     		mov	r2, r3
 1382 09ca 4FEAE273 		asr	r3, r2, #31
 1383 09ce 02FB01F5 		mul	r5, r2, r1
 1384 09d2 00FB03F4 		mul	r4, r0, r3
 1385 09d6 2C44     		add	r4, r4, r5
 1386 09d8 A0FB0223 		umull	r2, r3, r0, r2
 1387 09dc E118     		adds	r1, r4, r3
 1388 09de 0B46     		mov	r3, r1
 1389              		.loc 1 383 64 discriminator 3
 1390 09e0 4FF00000 		mov	r0, #0
 1391 09e4 4FF00001 		mov	r1, #0
 1392 09e8 1800     		movs	r0, r3
 1393 09ea D917     		asrs	r1, r3, #31
 1394              		.loc 1 383 34 discriminator 3
 1395 09ec 0346     		mov	r3, r0
 382:./Libraries/CMSIS/DSP/Source/TransformFunctions/arm_cfft_radix4_q31.c ****                                 ((int32_t) (((q63_t) r2 * si3) >> 32))) >> 1U;
 1396              		.loc 1 382 72 discriminator 3
 1397 09ee F21A     		subs	r2, r6, r3
 382:./Libraries/CMSIS/DSP/Source/TransformFunctions/arm_cfft_radix4_q31.c ****                                 ((int32_t) (((q63_t) r2 * si3) >> 32))) >> 1U;
 1398              		.loc 1 382 13 discriminator 3
 1399 09f0 D7F88830 		ldr	r3, [r7, #136]
 1400 09f4 DB00     		lsls	r3, r3, #3
 1401 09f6 0433     		adds	r3, r3, #4
 1402 09f8 F968     		ldr	r1, [r7, #12]
 1403 09fa 0B44     		add	r3, r3, r1
 1404              		.loc 1 383 73 discriminator 3
 1405 09fc 5210     		asrs	r2, r2, #1
 382:./Libraries/CMSIS/DSP/Source/TransformFunctions/arm_cfft_radix4_q31.c ****                                 ((int32_t) (((q63_t) r2 * si3) >> 32))) >> 1U;
 1406              		.loc 1 382 30 discriminator 3
 1407 09fe 1A60     		str	r2, [r3]
 311:./Libraries/CMSIS/DSP/Source/TransformFunctions/arm_cfft_radix4_q31.c ****       {
ARM GAS  /tmp/ccanIW00.s 			page 33


 1408              		.loc 1 311 36 discriminator 3
 1409 0a00 D7F8A420 		ldr	r2, [r7, #164]
 1410 0a04 D7F89430 		ldr	r3, [r7, #148]
 1411 0a08 1344     		add	r3, r3, r2
 1412 0a0a C7F8A430 		str	r3, [r7, #164]
 1413              	.L10:
 311:./Libraries/CMSIS/DSP/Source/TransformFunctions/arm_cfft_radix4_q31.c ****       {
 1414              		.loc 1 311 7 discriminator 1
 1415 0a0e D7F8A420 		ldr	r2, [r7, #164]
 1416 0a12 BB68     		ldr	r3, [r7, #8]
 1417 0a14 9A42     		cmp	r2, r3
 1418 0a16 FFF4D7AD 		bcc	.L11
 297:./Libraries/CMSIS/DSP/Source/TransformFunctions/arm_cfft_radix4_q31.c ****     {
 1419              		.loc 1 297 35 discriminator 2
 1420 0a1a D7F8A030 		ldr	r3, [r7, #160]
 1421 0a1e 0133     		adds	r3, r3, #1
 1422 0a20 C7F8A030 		str	r3, [r7, #160]
 1423              	.L9:
 297:./Libraries/CMSIS/DSP/Source/TransformFunctions/arm_cfft_radix4_q31.c ****     {
 1424              		.loc 1 297 27 discriminator 1
 1425 0a24 D7F8AC30 		ldr	r3, [r7, #172]
 1426 0a28 013B     		subs	r3, r3, #1
 297:./Libraries/CMSIS/DSP/Source/TransformFunctions/arm_cfft_radix4_q31.c ****     {
 1427              		.loc 1 297 5 discriminator 1
 1428 0a2a D7F8A020 		ldr	r2, [r7, #160]
 1429 0a2e 9A42     		cmp	r2, r3
 1430 0a30 7FF68DAD 		bls	.L12
 384:./Libraries/CMSIS/DSP/Source/TransformFunctions/arm_cfft_radix4_q31.c ****       }
 385:./Libraries/CMSIS/DSP/Source/TransformFunctions/arm_cfft_radix4_q31.c ****     }
 386:./Libraries/CMSIS/DSP/Source/TransformFunctions/arm_cfft_radix4_q31.c ****     twidCoefModifier <<= 2U;
 1431              		.loc 1 386 22 discriminator 2
 1432 0a34 3B68     		ldr	r3, [r7]
 1433 0a36 9B00     		lsls	r3, r3, #2
 1434 0a38 3B60     		str	r3, [r7]
 289:./Libraries/CMSIS/DSP/Source/TransformFunctions/arm_cfft_radix4_q31.c ****   {
 1435              		.loc 1 289 35 discriminator 2
 1436 0a3a D7F89C30 		ldr	r3, [r7, #156]
 1437 0a3e 9B08     		lsrs	r3, r3, #2
 1438 0a40 C7F89C30 		str	r3, [r7, #156]
 1439              	.L8:
 289:./Libraries/CMSIS/DSP/Source/TransformFunctions/arm_cfft_radix4_q31.c ****   {
 1440              		.loc 1 289 3 discriminator 1
 1441 0a44 D7F89C30 		ldr	r3, [r7, #156]
 1442 0a48 042B     		cmp	r3, #4
 1443 0a4a 3FF670AD 		bhi	.L13
 387:./Libraries/CMSIS/DSP/Source/TransformFunctions/arm_cfft_radix4_q31.c ****   }
 388:./Libraries/CMSIS/DSP/Source/TransformFunctions/arm_cfft_radix4_q31.c **** 
 389:./Libraries/CMSIS/DSP/Source/TransformFunctions/arm_cfft_radix4_q31.c ****   /* End of Middle stages process */
 390:./Libraries/CMSIS/DSP/Source/TransformFunctions/arm_cfft_radix4_q31.c **** 
 391:./Libraries/CMSIS/DSP/Source/TransformFunctions/arm_cfft_radix4_q31.c ****   /* data is in 11.21(q21) format for the 1024 point as there are 3 middle stages */
 392:./Libraries/CMSIS/DSP/Source/TransformFunctions/arm_cfft_radix4_q31.c ****   /* data is in 9.23(q23) format for the 256 point as there are 2 middle stages */
 393:./Libraries/CMSIS/DSP/Source/TransformFunctions/arm_cfft_radix4_q31.c ****   /* data is in 7.25(q25) format for the 64 point as there are 1 middle stage */
 394:./Libraries/CMSIS/DSP/Source/TransformFunctions/arm_cfft_radix4_q31.c ****   /* data is in 5.27(q27) format for the 16 point as there are no middle stages */
 395:./Libraries/CMSIS/DSP/Source/TransformFunctions/arm_cfft_radix4_q31.c **** 
 396:./Libraries/CMSIS/DSP/Source/TransformFunctions/arm_cfft_radix4_q31.c **** 
 397:./Libraries/CMSIS/DSP/Source/TransformFunctions/arm_cfft_radix4_q31.c ****   /* start of Last stage process */
 398:./Libraries/CMSIS/DSP/Source/TransformFunctions/arm_cfft_radix4_q31.c ****   /*  Initializations for the last stage */
ARM GAS  /tmp/ccanIW00.s 			page 34


 399:./Libraries/CMSIS/DSP/Source/TransformFunctions/arm_cfft_radix4_q31.c ****   j = fftLen >> 2;
 1444              		.loc 1 399 5
 1445 0a4e BB68     		ldr	r3, [r7, #8]
 1446 0a50 9B08     		lsrs	r3, r3, #2
 1447 0a52 C7F8A030 		str	r3, [r7, #160]
 400:./Libraries/CMSIS/DSP/Source/TransformFunctions/arm_cfft_radix4_q31.c ****   ptr1 = &pSrc[0];
 1448              		.loc 1 400 8
 1449 0a56 FB68     		ldr	r3, [r7, #12]
 1450 0a58 C7F89830 		str	r3, [r7, #152]
 1451              	.L14:
 401:./Libraries/CMSIS/DSP/Source/TransformFunctions/arm_cfft_radix4_q31.c **** 
 402:./Libraries/CMSIS/DSP/Source/TransformFunctions/arm_cfft_radix4_q31.c ****   /*  Calculations of last stage */
 403:./Libraries/CMSIS/DSP/Source/TransformFunctions/arm_cfft_radix4_q31.c ****   do
 404:./Libraries/CMSIS/DSP/Source/TransformFunctions/arm_cfft_radix4_q31.c ****   {
 405:./Libraries/CMSIS/DSP/Source/TransformFunctions/arm_cfft_radix4_q31.c ****     /* Read xa (real), ya(imag) input */
 406:./Libraries/CMSIS/DSP/Source/TransformFunctions/arm_cfft_radix4_q31.c ****     xa = *ptr1++;
 1452              		.loc 1 406 15 discriminator 1
 1453 0a5c D7F89830 		ldr	r3, [r7, #152]
 1454 0a60 1A1D     		adds	r2, r3, #4
 1455 0a62 C7F89820 		str	r2, [r7, #152]
 1456              		.loc 1 406 8 discriminator 1
 1457 0a66 1B68     		ldr	r3, [r3]
 1458 0a68 FB64     		str	r3, [r7, #76]
 407:./Libraries/CMSIS/DSP/Source/TransformFunctions/arm_cfft_radix4_q31.c ****     ya = *ptr1++;
 1459              		.loc 1 407 15 discriminator 1
 1460 0a6a D7F89830 		ldr	r3, [r7, #152]
 1461 0a6e 1A1D     		adds	r2, r3, #4
 1462 0a70 C7F89820 		str	r2, [r7, #152]
 1463              		.loc 1 407 8 discriminator 1
 1464 0a74 1B68     		ldr	r3, [r3]
 1465 0a76 BB64     		str	r3, [r7, #72]
 408:./Libraries/CMSIS/DSP/Source/TransformFunctions/arm_cfft_radix4_q31.c **** 
 409:./Libraries/CMSIS/DSP/Source/TransformFunctions/arm_cfft_radix4_q31.c ****     /* Read xb (real), yb(imag) input */
 410:./Libraries/CMSIS/DSP/Source/TransformFunctions/arm_cfft_radix4_q31.c ****     xb = *ptr1++;
 1466              		.loc 1 410 15 discriminator 1
 1467 0a78 D7F89830 		ldr	r3, [r7, #152]
 1468 0a7c 1A1D     		adds	r2, r3, #4
 1469 0a7e C7F89820 		str	r2, [r7, #152]
 1470              		.loc 1 410 8 discriminator 1
 1471 0a82 1B68     		ldr	r3, [r3]
 1472 0a84 7B64     		str	r3, [r7, #68]
 411:./Libraries/CMSIS/DSP/Source/TransformFunctions/arm_cfft_radix4_q31.c ****     yb = *ptr1++;
 1473              		.loc 1 411 15 discriminator 1
 1474 0a86 D7F89830 		ldr	r3, [r7, #152]
 1475 0a8a 1A1D     		adds	r2, r3, #4
 1476 0a8c C7F89820 		str	r2, [r7, #152]
 1477              		.loc 1 411 8 discriminator 1
 1478 0a90 1B68     		ldr	r3, [r3]
 1479 0a92 3B64     		str	r3, [r7, #64]
 412:./Libraries/CMSIS/DSP/Source/TransformFunctions/arm_cfft_radix4_q31.c **** 
 413:./Libraries/CMSIS/DSP/Source/TransformFunctions/arm_cfft_radix4_q31.c ****     /* Read xc (real), yc(imag) input */
 414:./Libraries/CMSIS/DSP/Source/TransformFunctions/arm_cfft_radix4_q31.c ****     xc = *ptr1++;
 1480              		.loc 1 414 15 discriminator 1
 1481 0a94 D7F89830 		ldr	r3, [r7, #152]
 1482 0a98 1A1D     		adds	r2, r3, #4
 1483 0a9a C7F89820 		str	r2, [r7, #152]
 1484              		.loc 1 414 8 discriminator 1
ARM GAS  /tmp/ccanIW00.s 			page 35


 1485 0a9e 1B68     		ldr	r3, [r3]
 1486 0aa0 FB63     		str	r3, [r7, #60]
 415:./Libraries/CMSIS/DSP/Source/TransformFunctions/arm_cfft_radix4_q31.c ****     yc = *ptr1++;
 1487              		.loc 1 415 15 discriminator 1
 1488 0aa2 D7F89830 		ldr	r3, [r7, #152]
 1489 0aa6 1A1D     		adds	r2, r3, #4
 1490 0aa8 C7F89820 		str	r2, [r7, #152]
 1491              		.loc 1 415 8 discriminator 1
 1492 0aac 1B68     		ldr	r3, [r3]
 1493 0aae BB63     		str	r3, [r7, #56]
 416:./Libraries/CMSIS/DSP/Source/TransformFunctions/arm_cfft_radix4_q31.c **** 
 417:./Libraries/CMSIS/DSP/Source/TransformFunctions/arm_cfft_radix4_q31.c ****     /* Read xc (real), yc(imag) input */
 418:./Libraries/CMSIS/DSP/Source/TransformFunctions/arm_cfft_radix4_q31.c ****     xd = *ptr1++;
 1494              		.loc 1 418 15 discriminator 1
 1495 0ab0 D7F89830 		ldr	r3, [r7, #152]
 1496 0ab4 1A1D     		adds	r2, r3, #4
 1497 0ab6 C7F89820 		str	r2, [r7, #152]
 1498              		.loc 1 418 8 discriminator 1
 1499 0aba 1B68     		ldr	r3, [r3]
 1500 0abc 7B63     		str	r3, [r7, #52]
 419:./Libraries/CMSIS/DSP/Source/TransformFunctions/arm_cfft_radix4_q31.c ****     yd = *ptr1++;
 1501              		.loc 1 419 15 discriminator 1
 1502 0abe D7F89830 		ldr	r3, [r7, #152]
 1503 0ac2 1A1D     		adds	r2, r3, #4
 1504 0ac4 C7F89820 		str	r2, [r7, #152]
 1505              		.loc 1 419 8 discriminator 1
 1506 0ac8 1B68     		ldr	r3, [r3]
 1507 0aca 3B63     		str	r3, [r7, #48]
 420:./Libraries/CMSIS/DSP/Source/TransformFunctions/arm_cfft_radix4_q31.c **** 
 421:./Libraries/CMSIS/DSP/Source/TransformFunctions/arm_cfft_radix4_q31.c ****     /* xa' = xa + xb + xc + xd */
 422:./Libraries/CMSIS/DSP/Source/TransformFunctions/arm_cfft_radix4_q31.c ****     xa_out = xa + xb + xc + xd;
 1508              		.loc 1 422 17 discriminator 1
 1509 0acc FA6C     		ldr	r2, [r7, #76]
 1510 0ace 7B6C     		ldr	r3, [r7, #68]
 1511 0ad0 1A44     		add	r2, r2, r3
 1512              		.loc 1 422 22 discriminator 1
 1513 0ad2 FB6B     		ldr	r3, [r7, #60]
 1514 0ad4 1344     		add	r3, r3, r2
 1515              		.loc 1 422 12 discriminator 1
 1516 0ad6 7A6B     		ldr	r2, [r7, #52]
 1517 0ad8 1344     		add	r3, r3, r2
 1518 0ada FB62     		str	r3, [r7, #44]
 423:./Libraries/CMSIS/DSP/Source/TransformFunctions/arm_cfft_radix4_q31.c **** 
 424:./Libraries/CMSIS/DSP/Source/TransformFunctions/arm_cfft_radix4_q31.c ****     /* ya' = ya + yb + yc + yd */
 425:./Libraries/CMSIS/DSP/Source/TransformFunctions/arm_cfft_radix4_q31.c ****     ya_out = ya + yb + yc + yd;
 1519              		.loc 1 425 17 discriminator 1
 1520 0adc BA6C     		ldr	r2, [r7, #72]
 1521 0ade 3B6C     		ldr	r3, [r7, #64]
 1522 0ae0 1A44     		add	r2, r2, r3
 1523              		.loc 1 425 22 discriminator 1
 1524 0ae2 BB6B     		ldr	r3, [r7, #56]
 1525 0ae4 1344     		add	r3, r3, r2
 1526              		.loc 1 425 12 discriminator 1
 1527 0ae6 3A6B     		ldr	r2, [r7, #48]
 1528 0ae8 1344     		add	r3, r3, r2
 1529 0aea BB62     		str	r3, [r7, #40]
 426:./Libraries/CMSIS/DSP/Source/TransformFunctions/arm_cfft_radix4_q31.c **** 
ARM GAS  /tmp/ccanIW00.s 			page 36


 427:./Libraries/CMSIS/DSP/Source/TransformFunctions/arm_cfft_radix4_q31.c ****     /* pointer updation for writing */
 428:./Libraries/CMSIS/DSP/Source/TransformFunctions/arm_cfft_radix4_q31.c ****     ptr1 = ptr1 - 8U;
 1530              		.loc 1 428 10 discriminator 1
 1531 0aec D7F89830 		ldr	r3, [r7, #152]
 1532 0af0 203B     		subs	r3, r3, #32
 1533 0af2 C7F89830 		str	r3, [r7, #152]
 429:./Libraries/CMSIS/DSP/Source/TransformFunctions/arm_cfft_radix4_q31.c **** 
 430:./Libraries/CMSIS/DSP/Source/TransformFunctions/arm_cfft_radix4_q31.c ****     /* writing xa' and ya' */
 431:./Libraries/CMSIS/DSP/Source/TransformFunctions/arm_cfft_radix4_q31.c ****     *ptr1++ = xa_out;
 1534              		.loc 1 431 10 discriminator 1
 1535 0af6 D7F89830 		ldr	r3, [r7, #152]
 1536 0afa 1A1D     		adds	r2, r3, #4
 1537 0afc C7F89820 		str	r2, [r7, #152]
 1538              		.loc 1 431 13 discriminator 1
 1539 0b00 FA6A     		ldr	r2, [r7, #44]
 1540 0b02 1A60     		str	r2, [r3]
 432:./Libraries/CMSIS/DSP/Source/TransformFunctions/arm_cfft_radix4_q31.c ****     *ptr1++ = ya_out;
 1541              		.loc 1 432 10 discriminator 1
 1542 0b04 D7F89830 		ldr	r3, [r7, #152]
 1543 0b08 1A1D     		adds	r2, r3, #4
 1544 0b0a C7F89820 		str	r2, [r7, #152]
 1545              		.loc 1 432 13 discriminator 1
 1546 0b0e BA6A     		ldr	r2, [r7, #40]
 1547 0b10 1A60     		str	r2, [r3]
 433:./Libraries/CMSIS/DSP/Source/TransformFunctions/arm_cfft_radix4_q31.c **** 
 434:./Libraries/CMSIS/DSP/Source/TransformFunctions/arm_cfft_radix4_q31.c ****     xc_out = (xa - xb + xc - xd);
 1548              		.loc 1 434 18 discriminator 1
 1549 0b12 FA6C     		ldr	r2, [r7, #76]
 1550 0b14 7B6C     		ldr	r3, [r7, #68]
 1551 0b16 D21A     		subs	r2, r2, r3
 1552              		.loc 1 434 23 discriminator 1
 1553 0b18 FB6B     		ldr	r3, [r7, #60]
 1554 0b1a 1A44     		add	r2, r2, r3
 1555              		.loc 1 434 12 discriminator 1
 1556 0b1c 7B6B     		ldr	r3, [r7, #52]
 1557 0b1e D31A     		subs	r3, r2, r3
 1558 0b20 7B62     		str	r3, [r7, #36]
 435:./Libraries/CMSIS/DSP/Source/TransformFunctions/arm_cfft_radix4_q31.c ****     yc_out = (ya - yb + yc - yd);
 1559              		.loc 1 435 18 discriminator 1
 1560 0b22 BA6C     		ldr	r2, [r7, #72]
 1561 0b24 3B6C     		ldr	r3, [r7, #64]
 1562 0b26 D21A     		subs	r2, r2, r3
 1563              		.loc 1 435 23 discriminator 1
 1564 0b28 BB6B     		ldr	r3, [r7, #56]
 1565 0b2a 1A44     		add	r2, r2, r3
 1566              		.loc 1 435 12 discriminator 1
 1567 0b2c 3B6B     		ldr	r3, [r7, #48]
 1568 0b2e D31A     		subs	r3, r2, r3
 1569 0b30 3B62     		str	r3, [r7, #32]
 436:./Libraries/CMSIS/DSP/Source/TransformFunctions/arm_cfft_radix4_q31.c **** 
 437:./Libraries/CMSIS/DSP/Source/TransformFunctions/arm_cfft_radix4_q31.c ****     /* writing xc' and yc' */
 438:./Libraries/CMSIS/DSP/Source/TransformFunctions/arm_cfft_radix4_q31.c ****     *ptr1++ = xc_out;
 1570              		.loc 1 438 10 discriminator 1
 1571 0b32 D7F89830 		ldr	r3, [r7, #152]
 1572 0b36 1A1D     		adds	r2, r3, #4
 1573 0b38 C7F89820 		str	r2, [r7, #152]
 1574              		.loc 1 438 13 discriminator 1
ARM GAS  /tmp/ccanIW00.s 			page 37


 1575 0b3c 7A6A     		ldr	r2, [r7, #36]
 1576 0b3e 1A60     		str	r2, [r3]
 439:./Libraries/CMSIS/DSP/Source/TransformFunctions/arm_cfft_radix4_q31.c ****     *ptr1++ = yc_out;
 1577              		.loc 1 439 10 discriminator 1
 1578 0b40 D7F89830 		ldr	r3, [r7, #152]
 1579 0b44 1A1D     		adds	r2, r3, #4
 1580 0b46 C7F89820 		str	r2, [r7, #152]
 1581              		.loc 1 439 13 discriminator 1
 1582 0b4a 3A6A     		ldr	r2, [r7, #32]
 1583 0b4c 1A60     		str	r2, [r3]
 440:./Libraries/CMSIS/DSP/Source/TransformFunctions/arm_cfft_radix4_q31.c **** 
 441:./Libraries/CMSIS/DSP/Source/TransformFunctions/arm_cfft_radix4_q31.c ****     xb_out = (xa + yb - xc - yd);
 1584              		.loc 1 441 18 discriminator 1
 1585 0b4e FA6C     		ldr	r2, [r7, #76]
 1586 0b50 3B6C     		ldr	r3, [r7, #64]
 1587 0b52 1A44     		add	r2, r2, r3
 1588              		.loc 1 441 23 discriminator 1
 1589 0b54 FB6B     		ldr	r3, [r7, #60]
 1590 0b56 D21A     		subs	r2, r2, r3
 1591              		.loc 1 441 12 discriminator 1
 1592 0b58 3B6B     		ldr	r3, [r7, #48]
 1593 0b5a D31A     		subs	r3, r2, r3
 1594 0b5c FB61     		str	r3, [r7, #28]
 442:./Libraries/CMSIS/DSP/Source/TransformFunctions/arm_cfft_radix4_q31.c ****     yb_out = (ya - xb - yc + xd);
 1595              		.loc 1 442 18 discriminator 1
 1596 0b5e BA6C     		ldr	r2, [r7, #72]
 1597 0b60 7B6C     		ldr	r3, [r7, #68]
 1598 0b62 D21A     		subs	r2, r2, r3
 1599              		.loc 1 442 23 discriminator 1
 1600 0b64 BB6B     		ldr	r3, [r7, #56]
 1601 0b66 D31A     		subs	r3, r2, r3
 1602              		.loc 1 442 12 discriminator 1
 1603 0b68 7A6B     		ldr	r2, [r7, #52]
 1604 0b6a 1344     		add	r3, r3, r2
 1605 0b6c BB61     		str	r3, [r7, #24]
 443:./Libraries/CMSIS/DSP/Source/TransformFunctions/arm_cfft_radix4_q31.c **** 
 444:./Libraries/CMSIS/DSP/Source/TransformFunctions/arm_cfft_radix4_q31.c ****     /* writing xb' and yb' */
 445:./Libraries/CMSIS/DSP/Source/TransformFunctions/arm_cfft_radix4_q31.c ****     *ptr1++ = xb_out;
 1606              		.loc 1 445 10 discriminator 1
 1607 0b6e D7F89830 		ldr	r3, [r7, #152]
 1608 0b72 1A1D     		adds	r2, r3, #4
 1609 0b74 C7F89820 		str	r2, [r7, #152]
 1610              		.loc 1 445 13 discriminator 1
 1611 0b78 FA69     		ldr	r2, [r7, #28]
 1612 0b7a 1A60     		str	r2, [r3]
 446:./Libraries/CMSIS/DSP/Source/TransformFunctions/arm_cfft_radix4_q31.c ****     *ptr1++ = yb_out;
 1613              		.loc 1 446 10 discriminator 1
 1614 0b7c D7F89830 		ldr	r3, [r7, #152]
 1615 0b80 1A1D     		adds	r2, r3, #4
 1616 0b82 C7F89820 		str	r2, [r7, #152]
 1617              		.loc 1 446 13 discriminator 1
 1618 0b86 BA69     		ldr	r2, [r7, #24]
 1619 0b88 1A60     		str	r2, [r3]
 447:./Libraries/CMSIS/DSP/Source/TransformFunctions/arm_cfft_radix4_q31.c **** 
 448:./Libraries/CMSIS/DSP/Source/TransformFunctions/arm_cfft_radix4_q31.c ****     xd_out = (xa - yb - xc + yd);
 1620              		.loc 1 448 18 discriminator 1
 1621 0b8a FA6C     		ldr	r2, [r7, #76]
ARM GAS  /tmp/ccanIW00.s 			page 38


 1622 0b8c 3B6C     		ldr	r3, [r7, #64]
 1623 0b8e D21A     		subs	r2, r2, r3
 1624              		.loc 1 448 23 discriminator 1
 1625 0b90 FB6B     		ldr	r3, [r7, #60]
 1626 0b92 D31A     		subs	r3, r2, r3
 1627              		.loc 1 448 12 discriminator 1
 1628 0b94 3A6B     		ldr	r2, [r7, #48]
 1629 0b96 1344     		add	r3, r3, r2
 1630 0b98 7B61     		str	r3, [r7, #20]
 449:./Libraries/CMSIS/DSP/Source/TransformFunctions/arm_cfft_radix4_q31.c ****     yd_out = (ya + xb - yc - xd);
 1631              		.loc 1 449 18 discriminator 1
 1632 0b9a BA6C     		ldr	r2, [r7, #72]
 1633 0b9c 7B6C     		ldr	r3, [r7, #68]
 1634 0b9e 1A44     		add	r2, r2, r3
 1635              		.loc 1 449 23 discriminator 1
 1636 0ba0 BB6B     		ldr	r3, [r7, #56]
 1637 0ba2 D21A     		subs	r2, r2, r3
 1638              		.loc 1 449 12 discriminator 1
 1639 0ba4 7B6B     		ldr	r3, [r7, #52]
 1640 0ba6 D31A     		subs	r3, r2, r3
 1641 0ba8 3B61     		str	r3, [r7, #16]
 450:./Libraries/CMSIS/DSP/Source/TransformFunctions/arm_cfft_radix4_q31.c **** 
 451:./Libraries/CMSIS/DSP/Source/TransformFunctions/arm_cfft_radix4_q31.c ****     /* writing xd' and yd' */
 452:./Libraries/CMSIS/DSP/Source/TransformFunctions/arm_cfft_radix4_q31.c ****     *ptr1++ = xd_out;
 1642              		.loc 1 452 10 discriminator 1
 1643 0baa D7F89830 		ldr	r3, [r7, #152]
 1644 0bae 1A1D     		adds	r2, r3, #4
 1645 0bb0 C7F89820 		str	r2, [r7, #152]
 1646              		.loc 1 452 13 discriminator 1
 1647 0bb4 7A69     		ldr	r2, [r7, #20]
 1648 0bb6 1A60     		str	r2, [r3]
 453:./Libraries/CMSIS/DSP/Source/TransformFunctions/arm_cfft_radix4_q31.c ****     *ptr1++ = yd_out;
 1649              		.loc 1 453 10 discriminator 1
 1650 0bb8 D7F89830 		ldr	r3, [r7, #152]
 1651 0bbc 1A1D     		adds	r2, r3, #4
 1652 0bbe C7F89820 		str	r2, [r7, #152]
 1653              		.loc 1 453 13 discriminator 1
 1654 0bc2 3A69     		ldr	r2, [r7, #16]
 1655 0bc4 1A60     		str	r2, [r3]
 454:./Libraries/CMSIS/DSP/Source/TransformFunctions/arm_cfft_radix4_q31.c **** 
 455:./Libraries/CMSIS/DSP/Source/TransformFunctions/arm_cfft_radix4_q31.c **** 
 456:./Libraries/CMSIS/DSP/Source/TransformFunctions/arm_cfft_radix4_q31.c ****   } while (--j);
 1656              		.loc 1 456 3 discriminator 1
 1657 0bc6 D7F8A030 		ldr	r3, [r7, #160]
 1658 0bca 013B     		subs	r3, r3, #1
 1659 0bcc C7F8A030 		str	r3, [r7, #160]
 1660 0bd0 D7F8A030 		ldr	r3, [r7, #160]
 1661 0bd4 002B     		cmp	r3, #0
 1662 0bd6 7FF441AF 		bne	.L14
 457:./Libraries/CMSIS/DSP/Source/TransformFunctions/arm_cfft_radix4_q31.c **** 
 458:./Libraries/CMSIS/DSP/Source/TransformFunctions/arm_cfft_radix4_q31.c ****   /* output is in 11.21(q21) format for the 1024 point */
 459:./Libraries/CMSIS/DSP/Source/TransformFunctions/arm_cfft_radix4_q31.c ****   /* output is in 9.23(q23) format for the 256 point */
 460:./Libraries/CMSIS/DSP/Source/TransformFunctions/arm_cfft_radix4_q31.c ****   /* output is in 7.25(q25) format for the 64 point */
 461:./Libraries/CMSIS/DSP/Source/TransformFunctions/arm_cfft_radix4_q31.c ****   /* output is in 5.27(q27) format for the 16 point */
 462:./Libraries/CMSIS/DSP/Source/TransformFunctions/arm_cfft_radix4_q31.c **** 
 463:./Libraries/CMSIS/DSP/Source/TransformFunctions/arm_cfft_radix4_q31.c ****   /* End of last stage process */
 464:./Libraries/CMSIS/DSP/Source/TransformFunctions/arm_cfft_radix4_q31.c **** 
ARM GAS  /tmp/ccanIW00.s 			page 39


 465:./Libraries/CMSIS/DSP/Source/TransformFunctions/arm_cfft_radix4_q31.c **** }
 1663              		.loc 1 465 1
 1664 0bda 00BF     		nop
 1665 0bdc 00BF     		nop
 1666 0bde B037     		adds	r7, r7, #176
 1667              	.LCFI8:
 1668              		.cfi_def_cfa_offset 16
 1669 0be0 BD46     		mov	sp, r7
 1670              	.LCFI9:
 1671              		.cfi_def_cfa_register 13
 1672              		@ sp needed
 1673 0be2 F0BC     		pop	{r4, r5, r6, r7}
 1674              	.LCFI10:
 1675              		.cfi_restore 7
 1676              		.cfi_restore 6
 1677              		.cfi_restore 5
 1678              		.cfi_restore 4
 1679              		.cfi_def_cfa_offset 0
 1680 0be4 7047     		bx	lr
 1681              		.cfi_endproc
 1682              	.LFE146:
 1684              		.section	.text.arm_radix4_butterfly_inverse_q31,"ax",%progbits
 1685              		.align	1
 1686              		.global	arm_radix4_butterfly_inverse_q31
 1687              		.syntax unified
 1688              		.thumb
 1689              		.thumb_func
 1690              		.fpu fpv5-d16
 1692              	arm_radix4_butterfly_inverse_q31:
 1693              	.LFB147:
 466:./Libraries/CMSIS/DSP/Source/TransformFunctions/arm_cfft_radix4_q31.c **** 
 467:./Libraries/CMSIS/DSP/Source/TransformFunctions/arm_cfft_radix4_q31.c **** 
 468:./Libraries/CMSIS/DSP/Source/TransformFunctions/arm_cfft_radix4_q31.c **** /**
 469:./Libraries/CMSIS/DSP/Source/TransformFunctions/arm_cfft_radix4_q31.c ****   @brief         Core function for the Q31 CIFFT butterfly process.
 470:./Libraries/CMSIS/DSP/Source/TransformFunctions/arm_cfft_radix4_q31.c ****   @param[in,out] pSrc             points to the in-place buffer of Q31 data type.
 471:./Libraries/CMSIS/DSP/Source/TransformFunctions/arm_cfft_radix4_q31.c ****   @param[in]     fftLen           length of the FFT.
 472:./Libraries/CMSIS/DSP/Source/TransformFunctions/arm_cfft_radix4_q31.c ****   @param[in]     pCoef            points to twiddle coefficient buffer.
 473:./Libraries/CMSIS/DSP/Source/TransformFunctions/arm_cfft_radix4_q31.c ****   @param[in]     twidCoefModifier twiddle coefficient modifier that supports different size FFTs wi
 474:./Libraries/CMSIS/DSP/Source/TransformFunctions/arm_cfft_radix4_q31.c ****   @return        none
 475:./Libraries/CMSIS/DSP/Source/TransformFunctions/arm_cfft_radix4_q31.c ****  */
 476:./Libraries/CMSIS/DSP/Source/TransformFunctions/arm_cfft_radix4_q31.c **** 
 477:./Libraries/CMSIS/DSP/Source/TransformFunctions/arm_cfft_radix4_q31.c **** /*
 478:./Libraries/CMSIS/DSP/Source/TransformFunctions/arm_cfft_radix4_q31.c ****  * Radix-4 IFFT algorithm used is :
 479:./Libraries/CMSIS/DSP/Source/TransformFunctions/arm_cfft_radix4_q31.c ****  *
 480:./Libraries/CMSIS/DSP/Source/TransformFunctions/arm_cfft_radix4_q31.c ****  * CIFFT uses same twiddle coefficients as CFFT Function
 481:./Libraries/CMSIS/DSP/Source/TransformFunctions/arm_cfft_radix4_q31.c ****  *  x[k] = x[n] + (j)k * x[n + fftLen/4] + (-1)k * x[n+fftLen/2] + (-j)k * x[n+3*fftLen/4]
 482:./Libraries/CMSIS/DSP/Source/TransformFunctions/arm_cfft_radix4_q31.c ****  *
 483:./Libraries/CMSIS/DSP/Source/TransformFunctions/arm_cfft_radix4_q31.c ****  *
 484:./Libraries/CMSIS/DSP/Source/TransformFunctions/arm_cfft_radix4_q31.c ****  * IFFT is implemented with following changes in equations from FFT
 485:./Libraries/CMSIS/DSP/Source/TransformFunctions/arm_cfft_radix4_q31.c ****  *
 486:./Libraries/CMSIS/DSP/Source/TransformFunctions/arm_cfft_radix4_q31.c ****  * Input real and imaginary data:
 487:./Libraries/CMSIS/DSP/Source/TransformFunctions/arm_cfft_radix4_q31.c ****  * x(n) = xa + j * ya
 488:./Libraries/CMSIS/DSP/Source/TransformFunctions/arm_cfft_radix4_q31.c ****  * x(n+N/4 ) = xb + j * yb
 489:./Libraries/CMSIS/DSP/Source/TransformFunctions/arm_cfft_radix4_q31.c ****  * x(n+N/2 ) = xc + j * yc
 490:./Libraries/CMSIS/DSP/Source/TransformFunctions/arm_cfft_radix4_q31.c ****  * x(n+3N 4) = xd + j * yd
 491:./Libraries/CMSIS/DSP/Source/TransformFunctions/arm_cfft_radix4_q31.c ****  *
 492:./Libraries/CMSIS/DSP/Source/TransformFunctions/arm_cfft_radix4_q31.c ****  *
ARM GAS  /tmp/ccanIW00.s 			page 40


 493:./Libraries/CMSIS/DSP/Source/TransformFunctions/arm_cfft_radix4_q31.c ****  * Output real and imaginary data:
 494:./Libraries/CMSIS/DSP/Source/TransformFunctions/arm_cfft_radix4_q31.c ****  * x(4r) = xa'+ j * ya'
 495:./Libraries/CMSIS/DSP/Source/TransformFunctions/arm_cfft_radix4_q31.c ****  * x(4r+1) = xb'+ j * yb'
 496:./Libraries/CMSIS/DSP/Source/TransformFunctions/arm_cfft_radix4_q31.c ****  * x(4r+2) = xc'+ j * yc'
 497:./Libraries/CMSIS/DSP/Source/TransformFunctions/arm_cfft_radix4_q31.c ****  * x(4r+3) = xd'+ j * yd'
 498:./Libraries/CMSIS/DSP/Source/TransformFunctions/arm_cfft_radix4_q31.c ****  *
 499:./Libraries/CMSIS/DSP/Source/TransformFunctions/arm_cfft_radix4_q31.c ****  *
 500:./Libraries/CMSIS/DSP/Source/TransformFunctions/arm_cfft_radix4_q31.c ****  * Twiddle factors for radix-4 IFFT:
 501:./Libraries/CMSIS/DSP/Source/TransformFunctions/arm_cfft_radix4_q31.c ****  * Wn = co1 + j * (si1)
 502:./Libraries/CMSIS/DSP/Source/TransformFunctions/arm_cfft_radix4_q31.c ****  * W2n = co2 + j * (si2)
 503:./Libraries/CMSIS/DSP/Source/TransformFunctions/arm_cfft_radix4_q31.c ****  * W3n = co3 + j * (si3)
 504:./Libraries/CMSIS/DSP/Source/TransformFunctions/arm_cfft_radix4_q31.c ****  
 505:./Libraries/CMSIS/DSP/Source/TransformFunctions/arm_cfft_radix4_q31.c ****  * The real and imaginary output values for the radix-4 butterfly are
 506:./Libraries/CMSIS/DSP/Source/TransformFunctions/arm_cfft_radix4_q31.c ****  * xa' = xa + xb + xc + xd
 507:./Libraries/CMSIS/DSP/Source/TransformFunctions/arm_cfft_radix4_q31.c ****  * ya' = ya + yb + yc + yd
 508:./Libraries/CMSIS/DSP/Source/TransformFunctions/arm_cfft_radix4_q31.c ****  * xb' = (xa-yb-xc+yd)* co1 - (ya+xb-yc-xd)* (si1)
 509:./Libraries/CMSIS/DSP/Source/TransformFunctions/arm_cfft_radix4_q31.c ****  * yb' = (ya+xb-yc-xd)* co1 + (xa-yb-xc+yd)* (si1)
 510:./Libraries/CMSIS/DSP/Source/TransformFunctions/arm_cfft_radix4_q31.c ****  * xc' = (xa-xb+xc-xd)* co2 - (ya-yb+yc-yd)* (si2)
 511:./Libraries/CMSIS/DSP/Source/TransformFunctions/arm_cfft_radix4_q31.c ****  * yc' = (ya-yb+yc-yd)* co2 + (xa-xb+xc-xd)* (si2)
 512:./Libraries/CMSIS/DSP/Source/TransformFunctions/arm_cfft_radix4_q31.c ****  * xd' = (xa+yb-xc-yd)* co3 - (ya-xb-yc+xd)* (si3)
 513:./Libraries/CMSIS/DSP/Source/TransformFunctions/arm_cfft_radix4_q31.c ****  * yd' = (ya-xb-yc+xd)* co3 + (xa+yb-xc-yd)* (si3)
 514:./Libraries/CMSIS/DSP/Source/TransformFunctions/arm_cfft_radix4_q31.c ****  *
 515:./Libraries/CMSIS/DSP/Source/TransformFunctions/arm_cfft_radix4_q31.c ****  */
 516:./Libraries/CMSIS/DSP/Source/TransformFunctions/arm_cfft_radix4_q31.c **** 
 517:./Libraries/CMSIS/DSP/Source/TransformFunctions/arm_cfft_radix4_q31.c **** void arm_radix4_butterfly_inverse_q31(
 518:./Libraries/CMSIS/DSP/Source/TransformFunctions/arm_cfft_radix4_q31.c ****         q31_t * pSrc,
 519:./Libraries/CMSIS/DSP/Source/TransformFunctions/arm_cfft_radix4_q31.c ****         uint32_t fftLen,
 520:./Libraries/CMSIS/DSP/Source/TransformFunctions/arm_cfft_radix4_q31.c ****   const q31_t * pCoef,
 521:./Libraries/CMSIS/DSP/Source/TransformFunctions/arm_cfft_radix4_q31.c ****         uint32_t twidCoefModifier)
 522:./Libraries/CMSIS/DSP/Source/TransformFunctions/arm_cfft_radix4_q31.c **** {
 1694              		.loc 1 522 1
 1695              		.cfi_startproc
 1696              		@ args = 0, pretend = 0, frame = 176
 1697              		@ frame_needed = 1, uses_anonymous_args = 0
 1698              		@ link register save eliminated.
 1699 0000 F0B4     		push	{r4, r5, r6, r7}
 1700              	.LCFI11:
 1701              		.cfi_def_cfa_offset 16
 1702              		.cfi_offset 4, -16
 1703              		.cfi_offset 5, -12
 1704              		.cfi_offset 6, -8
 1705              		.cfi_offset 7, -4
 1706 0002 ACB0     		sub	sp, sp, #176
 1707              	.LCFI12:
 1708              		.cfi_def_cfa_offset 192
 1709 0004 00AF     		add	r7, sp, #0
 1710              	.LCFI13:
 1711              		.cfi_def_cfa_register 7
 1712 0006 F860     		str	r0, [r7, #12]
 1713 0008 B960     		str	r1, [r7, #8]
 1714 000a 7A60     		str	r2, [r7, #4]
 1715 000c 3B60     		str	r3, [r7]
 523:./Libraries/CMSIS/DSP/Source/TransformFunctions/arm_cfft_radix4_q31.c ****         uint32_t n1, n2, ia1, ia2, ia3, i0, i1, i2, i3, j, k;
 524:./Libraries/CMSIS/DSP/Source/TransformFunctions/arm_cfft_radix4_q31.c ****         q31_t t1, t2, r1, r2, s1, s2, co1, co2, co3, si1, si2, si3;
 525:./Libraries/CMSIS/DSP/Source/TransformFunctions/arm_cfft_radix4_q31.c ****         q31_t xa, xb, xc, xd;
 526:./Libraries/CMSIS/DSP/Source/TransformFunctions/arm_cfft_radix4_q31.c ****         q31_t ya, yb, yc, yd;
 527:./Libraries/CMSIS/DSP/Source/TransformFunctions/arm_cfft_radix4_q31.c ****         q31_t xa_out, xb_out, xc_out, xd_out;
ARM GAS  /tmp/ccanIW00.s 			page 41


 528:./Libraries/CMSIS/DSP/Source/TransformFunctions/arm_cfft_radix4_q31.c ****         q31_t ya_out, yb_out, yc_out, yd_out;
 529:./Libraries/CMSIS/DSP/Source/TransformFunctions/arm_cfft_radix4_q31.c ****         
 530:./Libraries/CMSIS/DSP/Source/TransformFunctions/arm_cfft_radix4_q31.c ****         q31_t *ptr1;
 531:./Libraries/CMSIS/DSP/Source/TransformFunctions/arm_cfft_radix4_q31.c **** 
 532:./Libraries/CMSIS/DSP/Source/TransformFunctions/arm_cfft_radix4_q31.c ****   /* input is be 1.31(q31) format for all FFT sizes */
 533:./Libraries/CMSIS/DSP/Source/TransformFunctions/arm_cfft_radix4_q31.c ****   /* Total process is divided into three stages */
 534:./Libraries/CMSIS/DSP/Source/TransformFunctions/arm_cfft_radix4_q31.c ****   /* process first stage, middle stages, & last stage */
 535:./Libraries/CMSIS/DSP/Source/TransformFunctions/arm_cfft_radix4_q31.c **** 
 536:./Libraries/CMSIS/DSP/Source/TransformFunctions/arm_cfft_radix4_q31.c ****   /* Start of first stage process */
 537:./Libraries/CMSIS/DSP/Source/TransformFunctions/arm_cfft_radix4_q31.c **** 
 538:./Libraries/CMSIS/DSP/Source/TransformFunctions/arm_cfft_radix4_q31.c ****   /* Initializations for the first stage */
 539:./Libraries/CMSIS/DSP/Source/TransformFunctions/arm_cfft_radix4_q31.c ****   n2 = fftLen;
 1716              		.loc 1 539 6
 1717 000e BB68     		ldr	r3, [r7, #8]
 1718 0010 C7F8AC30 		str	r3, [r7, #172]
 540:./Libraries/CMSIS/DSP/Source/TransformFunctions/arm_cfft_radix4_q31.c ****   n1 = n2;
 1719              		.loc 1 540 6
 1720 0014 D7F8AC30 		ldr	r3, [r7, #172]
 1721 0018 C7F89430 		str	r3, [r7, #148]
 541:./Libraries/CMSIS/DSP/Source/TransformFunctions/arm_cfft_radix4_q31.c ****   /* n2 = fftLen/4 */
 542:./Libraries/CMSIS/DSP/Source/TransformFunctions/arm_cfft_radix4_q31.c ****   n2 >>= 2U;
 1722              		.loc 1 542 6
 1723 001c D7F8AC30 		ldr	r3, [r7, #172]
 1724 0020 9B08     		lsrs	r3, r3, #2
 1725 0022 C7F8AC30 		str	r3, [r7, #172]
 543:./Libraries/CMSIS/DSP/Source/TransformFunctions/arm_cfft_radix4_q31.c ****   i0 = 0U;
 1726              		.loc 1 543 6
 1727 0026 0023     		movs	r3, #0
 1728 0028 C7F8A430 		str	r3, [r7, #164]
 544:./Libraries/CMSIS/DSP/Source/TransformFunctions/arm_cfft_radix4_q31.c ****   ia1 = 0U;
 1729              		.loc 1 544 7
 1730 002c 0023     		movs	r3, #0
 1731 002e C7F8A830 		str	r3, [r7, #168]
 545:./Libraries/CMSIS/DSP/Source/TransformFunctions/arm_cfft_radix4_q31.c **** 
 546:./Libraries/CMSIS/DSP/Source/TransformFunctions/arm_cfft_radix4_q31.c ****   j = n2;
 1732              		.loc 1 546 5
 1733 0032 D7F8AC30 		ldr	r3, [r7, #172]
 1734 0036 C7F8A030 		str	r3, [r7, #160]
 1735              	.L16:
 547:./Libraries/CMSIS/DSP/Source/TransformFunctions/arm_cfft_radix4_q31.c **** 
 548:./Libraries/CMSIS/DSP/Source/TransformFunctions/arm_cfft_radix4_q31.c ****   do
 549:./Libraries/CMSIS/DSP/Source/TransformFunctions/arm_cfft_radix4_q31.c ****   {
 550:./Libraries/CMSIS/DSP/Source/TransformFunctions/arm_cfft_radix4_q31.c ****     /* input is in 1.31(q31) format and provide 4 guard bits for the input */
 551:./Libraries/CMSIS/DSP/Source/TransformFunctions/arm_cfft_radix4_q31.c **** 
 552:./Libraries/CMSIS/DSP/Source/TransformFunctions/arm_cfft_radix4_q31.c ****     /*  index calculation for the input as, */
 553:./Libraries/CMSIS/DSP/Source/TransformFunctions/arm_cfft_radix4_q31.c ****     /*  pSrc[i0 + 0], pSrc[i0 + fftLen/4], pSrc[i0 + fftLen/2U], pSrc[i0 + 3fftLen/4] */
 554:./Libraries/CMSIS/DSP/Source/TransformFunctions/arm_cfft_radix4_q31.c ****     i1 = i0 + n2;
 1736              		.loc 1 554 8 discriminator 1
 1737 003a D7F8A420 		ldr	r2, [r7, #164]
 1738 003e D7F8AC30 		ldr	r3, [r7, #172]
 1739 0042 1344     		add	r3, r3, r2
 1740 0044 C7F89030 		str	r3, [r7, #144]
 555:./Libraries/CMSIS/DSP/Source/TransformFunctions/arm_cfft_radix4_q31.c ****     i2 = i1 + n2;
 1741              		.loc 1 555 8 discriminator 1
 1742 0048 D7F89020 		ldr	r2, [r7, #144]
 1743 004c D7F8AC30 		ldr	r3, [r7, #172]
 1744 0050 1344     		add	r3, r3, r2
ARM GAS  /tmp/ccanIW00.s 			page 42


 1745 0052 C7F88C30 		str	r3, [r7, #140]
 556:./Libraries/CMSIS/DSP/Source/TransformFunctions/arm_cfft_radix4_q31.c ****     i3 = i2 + n2;
 1746              		.loc 1 556 8 discriminator 1
 1747 0056 D7F88C20 		ldr	r2, [r7, #140]
 1748 005a D7F8AC30 		ldr	r3, [r7, #172]
 1749 005e 1344     		add	r3, r3, r2
 1750 0060 C7F88830 		str	r3, [r7, #136]
 557:./Libraries/CMSIS/DSP/Source/TransformFunctions/arm_cfft_radix4_q31.c **** 
 558:./Libraries/CMSIS/DSP/Source/TransformFunctions/arm_cfft_radix4_q31.c ****     /*  Butterfly implementation */
 559:./Libraries/CMSIS/DSP/Source/TransformFunctions/arm_cfft_radix4_q31.c ****     /* xa + xc */
 560:./Libraries/CMSIS/DSP/Source/TransformFunctions/arm_cfft_radix4_q31.c ****     r1 = (pSrc[2U * i0] >> 4U) + (pSrc[2U * i2] >> 4U);
 1751              		.loc 1 560 15 discriminator 1
 1752 0064 D7F8A430 		ldr	r3, [r7, #164]
 1753 0068 DB00     		lsls	r3, r3, #3
 1754 006a FA68     		ldr	r2, [r7, #12]
 1755 006c 1344     		add	r3, r3, r2
 1756 006e 1B68     		ldr	r3, [r3]
 1757              		.loc 1 560 25 discriminator 1
 1758 0070 1A11     		asrs	r2, r3, #4
 1759              		.loc 1 560 39 discriminator 1
 1760 0072 D7F88C30 		ldr	r3, [r7, #140]
 1761 0076 DB00     		lsls	r3, r3, #3
 1762 0078 F968     		ldr	r1, [r7, #12]
 1763 007a 0B44     		add	r3, r3, r1
 1764 007c 1B68     		ldr	r3, [r3]
 1765              		.loc 1 560 49 discriminator 1
 1766 007e 1B11     		asrs	r3, r3, #4
 1767              		.loc 1 560 8 discriminator 1
 1768 0080 1344     		add	r3, r3, r2
 1769 0082 C7F88430 		str	r3, [r7, #132]
 561:./Libraries/CMSIS/DSP/Source/TransformFunctions/arm_cfft_radix4_q31.c ****     /* xa - xc */
 562:./Libraries/CMSIS/DSP/Source/TransformFunctions/arm_cfft_radix4_q31.c ****     r2 = (pSrc[2U * i0] >> 4U) - (pSrc[2U * i2] >> 4U);
 1770              		.loc 1 562 15 discriminator 1
 1771 0086 D7F8A430 		ldr	r3, [r7, #164]
 1772 008a DB00     		lsls	r3, r3, #3
 1773 008c FA68     		ldr	r2, [r7, #12]
 1774 008e 1344     		add	r3, r3, r2
 1775 0090 1B68     		ldr	r3, [r3]
 1776              		.loc 1 562 25 discriminator 1
 1777 0092 1A11     		asrs	r2, r3, #4
 1778              		.loc 1 562 39 discriminator 1
 1779 0094 D7F88C30 		ldr	r3, [r7, #140]
 1780 0098 DB00     		lsls	r3, r3, #3
 1781 009a F968     		ldr	r1, [r7, #12]
 1782 009c 0B44     		add	r3, r3, r1
 1783 009e 1B68     		ldr	r3, [r3]
 1784              		.loc 1 562 49 discriminator 1
 1785 00a0 1B11     		asrs	r3, r3, #4
 1786              		.loc 1 562 8 discriminator 1
 1787 00a2 D31A     		subs	r3, r2, r3
 1788 00a4 C7F88030 		str	r3, [r7, #128]
 563:./Libraries/CMSIS/DSP/Source/TransformFunctions/arm_cfft_radix4_q31.c **** 
 564:./Libraries/CMSIS/DSP/Source/TransformFunctions/arm_cfft_radix4_q31.c ****     /* xb + xd */
 565:./Libraries/CMSIS/DSP/Source/TransformFunctions/arm_cfft_radix4_q31.c ****     t1 = (pSrc[2U * i1] >> 4U) + (pSrc[2U * i3] >> 4U);
 1789              		.loc 1 565 15 discriminator 1
 1790 00a8 D7F89030 		ldr	r3, [r7, #144]
 1791 00ac DB00     		lsls	r3, r3, #3
ARM GAS  /tmp/ccanIW00.s 			page 43


 1792 00ae FA68     		ldr	r2, [r7, #12]
 1793 00b0 1344     		add	r3, r3, r2
 1794 00b2 1B68     		ldr	r3, [r3]
 1795              		.loc 1 565 25 discriminator 1
 1796 00b4 1A11     		asrs	r2, r3, #4
 1797              		.loc 1 565 39 discriminator 1
 1798 00b6 D7F88830 		ldr	r3, [r7, #136]
 1799 00ba DB00     		lsls	r3, r3, #3
 1800 00bc F968     		ldr	r1, [r7, #12]
 1801 00be 0B44     		add	r3, r3, r1
 1802 00c0 1B68     		ldr	r3, [r3]
 1803              		.loc 1 565 49 discriminator 1
 1804 00c2 1B11     		asrs	r3, r3, #4
 1805              		.loc 1 565 8 discriminator 1
 1806 00c4 1344     		add	r3, r3, r2
 1807 00c6 FB67     		str	r3, [r7, #124]
 566:./Libraries/CMSIS/DSP/Source/TransformFunctions/arm_cfft_radix4_q31.c **** 
 567:./Libraries/CMSIS/DSP/Source/TransformFunctions/arm_cfft_radix4_q31.c ****     /* ya + yc */
 568:./Libraries/CMSIS/DSP/Source/TransformFunctions/arm_cfft_radix4_q31.c ****     s1 = (pSrc[(2U * i0) + 1U] >> 4U) + (pSrc[(2U * i2) + 1U] >> 4U);
 1808              		.loc 1 568 15 discriminator 1
 1809 00c8 D7F8A430 		ldr	r3, [r7, #164]
 1810 00cc DB00     		lsls	r3, r3, #3
 1811 00ce 0433     		adds	r3, r3, #4
 1812 00d0 FA68     		ldr	r2, [r7, #12]
 1813 00d2 1344     		add	r3, r3, r2
 1814 00d4 1B68     		ldr	r3, [r3]
 1815              		.loc 1 568 32 discriminator 1
 1816 00d6 1A11     		asrs	r2, r3, #4
 1817              		.loc 1 568 46 discriminator 1
 1818 00d8 D7F88C30 		ldr	r3, [r7, #140]
 1819 00dc DB00     		lsls	r3, r3, #3
 1820 00de 0433     		adds	r3, r3, #4
 1821 00e0 F968     		ldr	r1, [r7, #12]
 1822 00e2 0B44     		add	r3, r3, r1
 1823 00e4 1B68     		ldr	r3, [r3]
 1824              		.loc 1 568 63 discriminator 1
 1825 00e6 1B11     		asrs	r3, r3, #4
 1826              		.loc 1 568 8 discriminator 1
 1827 00e8 1344     		add	r3, r3, r2
 1828 00ea BB67     		str	r3, [r7, #120]
 569:./Libraries/CMSIS/DSP/Source/TransformFunctions/arm_cfft_radix4_q31.c ****     /* ya - yc */
 570:./Libraries/CMSIS/DSP/Source/TransformFunctions/arm_cfft_radix4_q31.c ****     s2 = (pSrc[(2U * i0) + 1U] >> 4U) - (pSrc[(2U * i2) + 1U] >> 4U);
 1829              		.loc 1 570 15 discriminator 1
 1830 00ec D7F8A430 		ldr	r3, [r7, #164]
 1831 00f0 DB00     		lsls	r3, r3, #3
 1832 00f2 0433     		adds	r3, r3, #4
 1833 00f4 FA68     		ldr	r2, [r7, #12]
 1834 00f6 1344     		add	r3, r3, r2
 1835 00f8 1B68     		ldr	r3, [r3]
 1836              		.loc 1 570 32 discriminator 1
 1837 00fa 1A11     		asrs	r2, r3, #4
 1838              		.loc 1 570 46 discriminator 1
 1839 00fc D7F88C30 		ldr	r3, [r7, #140]
 1840 0100 DB00     		lsls	r3, r3, #3
 1841 0102 0433     		adds	r3, r3, #4
 1842 0104 F968     		ldr	r1, [r7, #12]
 1843 0106 0B44     		add	r3, r3, r1
ARM GAS  /tmp/ccanIW00.s 			page 44


 1844 0108 1B68     		ldr	r3, [r3]
 1845              		.loc 1 570 63 discriminator 1
 1846 010a 1B11     		asrs	r3, r3, #4
 1847              		.loc 1 570 8 discriminator 1
 1848 010c D31A     		subs	r3, r2, r3
 1849 010e 7B67     		str	r3, [r7, #116]
 571:./Libraries/CMSIS/DSP/Source/TransformFunctions/arm_cfft_radix4_q31.c **** 
 572:./Libraries/CMSIS/DSP/Source/TransformFunctions/arm_cfft_radix4_q31.c ****     /* xa' = xa + xb + xc + xd */
 573:./Libraries/CMSIS/DSP/Source/TransformFunctions/arm_cfft_radix4_q31.c ****     pSrc[2U * i0] = (r1 + t1);
 1850              		.loc 1 573 9 discriminator 1
 1851 0110 D7F8A430 		ldr	r3, [r7, #164]
 1852 0114 DB00     		lsls	r3, r3, #3
 1853 0116 FA68     		ldr	r2, [r7, #12]
 1854 0118 1344     		add	r3, r3, r2
 1855              		.loc 1 573 25 discriminator 1
 1856 011a D7F88410 		ldr	r1, [r7, #132]
 1857 011e FA6F     		ldr	r2, [r7, #124]
 1858 0120 0A44     		add	r2, r2, r1
 1859              		.loc 1 573 19 discriminator 1
 1860 0122 1A60     		str	r2, [r3]
 574:./Libraries/CMSIS/DSP/Source/TransformFunctions/arm_cfft_radix4_q31.c ****     /* (xa + xc) - (xb + xd) */
 575:./Libraries/CMSIS/DSP/Source/TransformFunctions/arm_cfft_radix4_q31.c ****     r1 = r1 - t1;
 1861              		.loc 1 575 8 discriminator 1
 1862 0124 D7F88420 		ldr	r2, [r7, #132]
 1863 0128 FB6F     		ldr	r3, [r7, #124]
 1864 012a D31A     		subs	r3, r2, r3
 1865 012c C7F88430 		str	r3, [r7, #132]
 576:./Libraries/CMSIS/DSP/Source/TransformFunctions/arm_cfft_radix4_q31.c ****     /* yb + yd */
 577:./Libraries/CMSIS/DSP/Source/TransformFunctions/arm_cfft_radix4_q31.c ****     t2 = (pSrc[(2U * i1) + 1U] >> 4U) + (pSrc[(2U * i3) + 1U] >> 4U);
 1866              		.loc 1 577 15 discriminator 1
 1867 0130 D7F89030 		ldr	r3, [r7, #144]
 1868 0134 DB00     		lsls	r3, r3, #3
 1869 0136 0433     		adds	r3, r3, #4
 1870 0138 FA68     		ldr	r2, [r7, #12]
 1871 013a 1344     		add	r3, r3, r2
 1872 013c 1B68     		ldr	r3, [r3]
 1873              		.loc 1 577 32 discriminator 1
 1874 013e 1A11     		asrs	r2, r3, #4
 1875              		.loc 1 577 46 discriminator 1
 1876 0140 D7F88830 		ldr	r3, [r7, #136]
 1877 0144 DB00     		lsls	r3, r3, #3
 1878 0146 0433     		adds	r3, r3, #4
 1879 0148 F968     		ldr	r1, [r7, #12]
 1880 014a 0B44     		add	r3, r3, r1
 1881 014c 1B68     		ldr	r3, [r3]
 1882              		.loc 1 577 63 discriminator 1
 1883 014e 1B11     		asrs	r3, r3, #4
 1884              		.loc 1 577 8 discriminator 1
 1885 0150 1344     		add	r3, r3, r2
 1886 0152 3B67     		str	r3, [r7, #112]
 578:./Libraries/CMSIS/DSP/Source/TransformFunctions/arm_cfft_radix4_q31.c ****     /* ya' = ya + yb + yc + yd */
 579:./Libraries/CMSIS/DSP/Source/TransformFunctions/arm_cfft_radix4_q31.c ****     pSrc[(2U * i0) + 1U] = (s1 + t2);
 1887              		.loc 1 579 9 discriminator 1
 1888 0154 D7F8A430 		ldr	r3, [r7, #164]
 1889 0158 DB00     		lsls	r3, r3, #3
 1890 015a 0433     		adds	r3, r3, #4
 1891 015c FA68     		ldr	r2, [r7, #12]
ARM GAS  /tmp/ccanIW00.s 			page 45


 1892 015e 1344     		add	r3, r3, r2
 1893              		.loc 1 579 32 discriminator 1
 1894 0160 B96F     		ldr	r1, [r7, #120]
 1895 0162 3A6F     		ldr	r2, [r7, #112]
 1896 0164 0A44     		add	r2, r2, r1
 1897              		.loc 1 579 26 discriminator 1
 1898 0166 1A60     		str	r2, [r3]
 580:./Libraries/CMSIS/DSP/Source/TransformFunctions/arm_cfft_radix4_q31.c **** 
 581:./Libraries/CMSIS/DSP/Source/TransformFunctions/arm_cfft_radix4_q31.c ****     /* (ya + yc) - (yb + yd) */
 582:./Libraries/CMSIS/DSP/Source/TransformFunctions/arm_cfft_radix4_q31.c ****     s1 = s1 - t2;
 1899              		.loc 1 582 8 discriminator 1
 1900 0168 BA6F     		ldr	r2, [r7, #120]
 1901 016a 3B6F     		ldr	r3, [r7, #112]
 1902 016c D31A     		subs	r3, r2, r3
 1903 016e BB67     		str	r3, [r7, #120]
 583:./Libraries/CMSIS/DSP/Source/TransformFunctions/arm_cfft_radix4_q31.c **** 
 584:./Libraries/CMSIS/DSP/Source/TransformFunctions/arm_cfft_radix4_q31.c ****     /* yb - yd */
 585:./Libraries/CMSIS/DSP/Source/TransformFunctions/arm_cfft_radix4_q31.c ****     t1 = (pSrc[(2U * i1) + 1U] >> 4U) - (pSrc[(2U * i3) + 1U] >> 4U);
 1904              		.loc 1 585 15 discriminator 1
 1905 0170 D7F89030 		ldr	r3, [r7, #144]
 1906 0174 DB00     		lsls	r3, r3, #3
 1907 0176 0433     		adds	r3, r3, #4
 1908 0178 FA68     		ldr	r2, [r7, #12]
 1909 017a 1344     		add	r3, r3, r2
 1910 017c 1B68     		ldr	r3, [r3]
 1911              		.loc 1 585 32 discriminator 1
 1912 017e 1A11     		asrs	r2, r3, #4
 1913              		.loc 1 585 46 discriminator 1
 1914 0180 D7F88830 		ldr	r3, [r7, #136]
 1915 0184 DB00     		lsls	r3, r3, #3
 1916 0186 0433     		adds	r3, r3, #4
 1917 0188 F968     		ldr	r1, [r7, #12]
 1918 018a 0B44     		add	r3, r3, r1
 1919 018c 1B68     		ldr	r3, [r3]
 1920              		.loc 1 585 63 discriminator 1
 1921 018e 1B11     		asrs	r3, r3, #4
 1922              		.loc 1 585 8 discriminator 1
 1923 0190 D31A     		subs	r3, r2, r3
 1924 0192 FB67     		str	r3, [r7, #124]
 586:./Libraries/CMSIS/DSP/Source/TransformFunctions/arm_cfft_radix4_q31.c ****     /* xb - xd */
 587:./Libraries/CMSIS/DSP/Source/TransformFunctions/arm_cfft_radix4_q31.c ****     t2 = (pSrc[2U * i1] >> 4U) - (pSrc[2U * i3] >> 4U);
 1925              		.loc 1 587 15 discriminator 1
 1926 0194 D7F89030 		ldr	r3, [r7, #144]
 1927 0198 DB00     		lsls	r3, r3, #3
 1928 019a FA68     		ldr	r2, [r7, #12]
 1929 019c 1344     		add	r3, r3, r2
 1930 019e 1B68     		ldr	r3, [r3]
 1931              		.loc 1 587 25 discriminator 1
 1932 01a0 1A11     		asrs	r2, r3, #4
 1933              		.loc 1 587 39 discriminator 1
 1934 01a2 D7F88830 		ldr	r3, [r7, #136]
 1935 01a6 DB00     		lsls	r3, r3, #3
 1936 01a8 F968     		ldr	r1, [r7, #12]
 1937 01aa 0B44     		add	r3, r3, r1
 1938 01ac 1B68     		ldr	r3, [r3]
 1939              		.loc 1 587 49 discriminator 1
 1940 01ae 1B11     		asrs	r3, r3, #4
ARM GAS  /tmp/ccanIW00.s 			page 46


 1941              		.loc 1 587 8 discriminator 1
 1942 01b0 D31A     		subs	r3, r2, r3
 1943 01b2 3B67     		str	r3, [r7, #112]
 588:./Libraries/CMSIS/DSP/Source/TransformFunctions/arm_cfft_radix4_q31.c **** 
 589:./Libraries/CMSIS/DSP/Source/TransformFunctions/arm_cfft_radix4_q31.c ****     /*  index calculation for the coefficients */
 590:./Libraries/CMSIS/DSP/Source/TransformFunctions/arm_cfft_radix4_q31.c ****     ia2 = 2U * ia1;
 1944              		.loc 1 590 9 discriminator 1
 1945 01b4 D7F8A830 		ldr	r3, [r7, #168]
 1946 01b8 5B00     		lsls	r3, r3, #1
 1947 01ba FB66     		str	r3, [r7, #108]
 591:./Libraries/CMSIS/DSP/Source/TransformFunctions/arm_cfft_radix4_q31.c ****     co2 = pCoef[ia2 * 2U];
 1948              		.loc 1 591 16 discriminator 1
 1949 01bc FB6E     		ldr	r3, [r7, #108]
 1950 01be DB00     		lsls	r3, r3, #3
 1951 01c0 7A68     		ldr	r2, [r7, #4]
 1952 01c2 1344     		add	r3, r3, r2
 1953              		.loc 1 591 9 discriminator 1
 1954 01c4 1B68     		ldr	r3, [r3]
 1955 01c6 BB66     		str	r3, [r7, #104]
 592:./Libraries/CMSIS/DSP/Source/TransformFunctions/arm_cfft_radix4_q31.c ****     si2 = pCoef[(ia2 * 2U) + 1U];
 1956              		.loc 1 592 16 discriminator 1
 1957 01c8 FB6E     		ldr	r3, [r7, #108]
 1958 01ca DB00     		lsls	r3, r3, #3
 1959 01cc 0433     		adds	r3, r3, #4
 1960 01ce 7A68     		ldr	r2, [r7, #4]
 1961 01d0 1344     		add	r3, r3, r2
 1962              		.loc 1 592 9 discriminator 1
 1963 01d2 1B68     		ldr	r3, [r3]
 1964 01d4 7B66     		str	r3, [r7, #100]
 593:./Libraries/CMSIS/DSP/Source/TransformFunctions/arm_cfft_radix4_q31.c **** 
 594:./Libraries/CMSIS/DSP/Source/TransformFunctions/arm_cfft_radix4_q31.c ****     /* xc' = (xa-xb+xc-xd)co2 - (ya-yb+yc-yd)(si2) */
 595:./Libraries/CMSIS/DSP/Source/TransformFunctions/arm_cfft_radix4_q31.c ****     pSrc[2U * i1] = (((int32_t) (((q63_t) r1 * co2) >> 32)) -
 1965              		.loc 1 595 35 discriminator 1
 1966 01d6 D7F88430 		ldr	r3, [r7, #132]
 1967 01da 1846     		mov	r0, r3
 1968 01dc 4FEAE071 		asr	r1, r0, #31
 1969              		.loc 1 595 46 discriminator 1
 1970 01e0 BB6E     		ldr	r3, [r7, #104]
 1971 01e2 1A46     		mov	r2, r3
 1972 01e4 4FEAE273 		asr	r3, r2, #31
 1973 01e8 02FB01F5 		mul	r5, r2, r1
 1974 01ec 00FB03F4 		mul	r4, r0, r3
 1975 01f0 2C44     		add	r4, r4, r5
 1976 01f2 A0FB0223 		umull	r2, r3, r0, r2
 1977 01f6 E118     		adds	r1, r4, r3
 1978 01f8 0B46     		mov	r3, r1
 1979              		.loc 1 595 53 discriminator 1
 1980 01fa 4FF00000 		mov	r0, #0
 1981 01fe 4FF00001 		mov	r1, #0
 1982 0202 1800     		movs	r0, r3
 1983 0204 D917     		asrs	r1, r3, #31
 1984              		.loc 1 595 23 discriminator 1
 1985 0206 0646     		mov	r6, r0
 596:./Libraries/CMSIS/DSP/Source/TransformFunctions/arm_cfft_radix4_q31.c ****                      ((int32_t) (((q63_t) s1 * si2) >> 32))) << 1U;
 1986              		.loc 1 596 35 discriminator 1
 1987 0208 BB6F     		ldr	r3, [r7, #120]
 1988 020a 1846     		mov	r0, r3
ARM GAS  /tmp/ccanIW00.s 			page 47


 1989 020c 4FEAE071 		asr	r1, r0, #31
 1990              		.loc 1 596 46 discriminator 1
 1991 0210 7B6E     		ldr	r3, [r7, #100]
 1992 0212 1A46     		mov	r2, r3
 1993 0214 4FEAE273 		asr	r3, r2, #31
 1994 0218 02FB01F5 		mul	r5, r2, r1
 1995 021c 00FB03F4 		mul	r4, r0, r3
 1996 0220 2C44     		add	r4, r4, r5
 1997 0222 A0FB0223 		umull	r2, r3, r0, r2
 1998 0226 E118     		adds	r1, r4, r3
 1999 0228 0B46     		mov	r3, r1
 2000              		.loc 1 596 53 discriminator 1
 2001 022a 4FF00000 		mov	r0, #0
 2002 022e 4FF00001 		mov	r1, #0
 2003 0232 1800     		movs	r0, r3
 2004 0234 D917     		asrs	r1, r3, #31
 2005              		.loc 1 596 23 discriminator 1
 2006 0236 0346     		mov	r3, r0
 595:./Libraries/CMSIS/DSP/Source/TransformFunctions/arm_cfft_radix4_q31.c ****                      ((int32_t) (((q63_t) s1 * si2) >> 32))) << 1U;
 2007              		.loc 1 595 61 discriminator 1
 2008 0238 F21A     		subs	r2, r6, r3
 595:./Libraries/CMSIS/DSP/Source/TransformFunctions/arm_cfft_radix4_q31.c ****                      ((int32_t) (((q63_t) s1 * si2) >> 32))) << 1U;
 2009              		.loc 1 595 9 discriminator 1
 2010 023a D7F89030 		ldr	r3, [r7, #144]
 2011 023e DB00     		lsls	r3, r3, #3
 2012 0240 F968     		ldr	r1, [r7, #12]
 2013 0242 0B44     		add	r3, r3, r1
 2014              		.loc 1 596 62 discriminator 1
 2015 0244 5200     		lsls	r2, r2, #1
 595:./Libraries/CMSIS/DSP/Source/TransformFunctions/arm_cfft_radix4_q31.c ****                      ((int32_t) (((q63_t) s1 * si2) >> 32))) << 1U;
 2016              		.loc 1 595 19 discriminator 1
 2017 0246 1A60     		str	r2, [r3]
 597:./Libraries/CMSIS/DSP/Source/TransformFunctions/arm_cfft_radix4_q31.c **** 
 598:./Libraries/CMSIS/DSP/Source/TransformFunctions/arm_cfft_radix4_q31.c ****     /* yc' = (ya-yb+yc-yd)co2 + (xa-xb+xc-xd)(si2) */
 599:./Libraries/CMSIS/DSP/Source/TransformFunctions/arm_cfft_radix4_q31.c ****     pSrc[2U * i1 + 1U] = (((int32_t) (((q63_t) s1 * co2) >> 32)) +
 2018              		.loc 1 599 40 discriminator 1
 2019 0248 BB6F     		ldr	r3, [r7, #120]
 2020 024a 1846     		mov	r0, r3
 2021 024c 4FEAE071 		asr	r1, r0, #31
 2022              		.loc 1 599 51 discriminator 1
 2023 0250 BB6E     		ldr	r3, [r7, #104]
 2024 0252 1A46     		mov	r2, r3
 2025 0254 4FEAE273 		asr	r3, r2, #31
 2026 0258 02FB01F5 		mul	r5, r2, r1
 2027 025c 00FB03F4 		mul	r4, r0, r3
 2028 0260 2C44     		add	r4, r4, r5
 2029 0262 A0FB0223 		umull	r2, r3, r0, r2
 2030 0266 E118     		adds	r1, r4, r3
 2031 0268 0B46     		mov	r3, r1
 2032              		.loc 1 599 58 discriminator 1
 2033 026a 4FF00000 		mov	r0, #0
 2034 026e 4FF00001 		mov	r1, #0
 2035 0272 1800     		movs	r0, r3
 2036 0274 D917     		asrs	r1, r3, #31
 2037              		.loc 1 599 28 discriminator 1
 2038 0276 0646     		mov	r6, r0
 600:./Libraries/CMSIS/DSP/Source/TransformFunctions/arm_cfft_radix4_q31.c ****                           ((int32_t) (((q63_t) r1 * si2) >> 32))) << 1U;
ARM GAS  /tmp/ccanIW00.s 			page 48


 2039              		.loc 1 600 40 discriminator 1
 2040 0278 D7F88430 		ldr	r3, [r7, #132]
 2041 027c 1846     		mov	r0, r3
 2042 027e 4FEAE071 		asr	r1, r0, #31
 2043              		.loc 1 600 51 discriminator 1
 2044 0282 7B6E     		ldr	r3, [r7, #100]
 2045 0284 1A46     		mov	r2, r3
 2046 0286 4FEAE273 		asr	r3, r2, #31
 2047 028a 02FB01F5 		mul	r5, r2, r1
 2048 028e 00FB03F4 		mul	r4, r0, r3
 2049 0292 2C44     		add	r4, r4, r5
 2050 0294 A0FB0223 		umull	r2, r3, r0, r2
 2051 0298 E118     		adds	r1, r4, r3
 2052 029a 0B46     		mov	r3, r1
 2053              		.loc 1 600 58 discriminator 1
 2054 029c 4FF00000 		mov	r0, #0
 2055 02a0 4FF00001 		mov	r1, #0
 2056 02a4 1800     		movs	r0, r3
 2057 02a6 D917     		asrs	r1, r3, #31
 2058              		.loc 1 600 28 discriminator 1
 2059 02a8 0346     		mov	r3, r0
 599:./Libraries/CMSIS/DSP/Source/TransformFunctions/arm_cfft_radix4_q31.c ****                           ((int32_t) (((q63_t) r1 * si2) >> 32))) << 1U;
 2060              		.loc 1 599 66 discriminator 1
 2061 02aa F218     		adds	r2, r6, r3
 599:./Libraries/CMSIS/DSP/Source/TransformFunctions/arm_cfft_radix4_q31.c ****                           ((int32_t) (((q63_t) r1 * si2) >> 32))) << 1U;
 2062              		.loc 1 599 9 discriminator 1
 2063 02ac D7F89030 		ldr	r3, [r7, #144]
 2064 02b0 DB00     		lsls	r3, r3, #3
 2065 02b2 0433     		adds	r3, r3, #4
 2066 02b4 F968     		ldr	r1, [r7, #12]
 2067 02b6 0B44     		add	r3, r3, r1
 2068              		.loc 1 600 67 discriminator 1
 2069 02b8 5200     		lsls	r2, r2, #1
 599:./Libraries/CMSIS/DSP/Source/TransformFunctions/arm_cfft_radix4_q31.c ****                           ((int32_t) (((q63_t) r1 * si2) >> 32))) << 1U;
 2070              		.loc 1 599 24 discriminator 1
 2071 02ba 1A60     		str	r2, [r3]
 601:./Libraries/CMSIS/DSP/Source/TransformFunctions/arm_cfft_radix4_q31.c **** 
 602:./Libraries/CMSIS/DSP/Source/TransformFunctions/arm_cfft_radix4_q31.c ****     /* (xa - xc) - (yb - yd) */
 603:./Libraries/CMSIS/DSP/Source/TransformFunctions/arm_cfft_radix4_q31.c ****     r1 = r2 - t1;
 2072              		.loc 1 603 8 discriminator 1
 2073 02bc D7F88020 		ldr	r2, [r7, #128]
 2074 02c0 FB6F     		ldr	r3, [r7, #124]
 2075 02c2 D31A     		subs	r3, r2, r3
 2076 02c4 C7F88430 		str	r3, [r7, #132]
 604:./Libraries/CMSIS/DSP/Source/TransformFunctions/arm_cfft_radix4_q31.c ****     /* (xa - xc) + (yb - yd) */
 605:./Libraries/CMSIS/DSP/Source/TransformFunctions/arm_cfft_radix4_q31.c ****     r2 = r2 + t1;
 2077              		.loc 1 605 8 discriminator 1
 2078 02c8 D7F88020 		ldr	r2, [r7, #128]
 2079 02cc FB6F     		ldr	r3, [r7, #124]
 2080 02ce 1344     		add	r3, r3, r2
 2081 02d0 C7F88030 		str	r3, [r7, #128]
 606:./Libraries/CMSIS/DSP/Source/TransformFunctions/arm_cfft_radix4_q31.c **** 
 607:./Libraries/CMSIS/DSP/Source/TransformFunctions/arm_cfft_radix4_q31.c ****     /* (ya - yc) + (xb - xd) */
 608:./Libraries/CMSIS/DSP/Source/TransformFunctions/arm_cfft_radix4_q31.c ****     s1 = s2 + t2;
 2082              		.loc 1 608 8 discriminator 1
 2083 02d4 7A6F     		ldr	r2, [r7, #116]
 2084 02d6 3B6F     		ldr	r3, [r7, #112]
ARM GAS  /tmp/ccanIW00.s 			page 49


 2085 02d8 1344     		add	r3, r3, r2
 2086 02da BB67     		str	r3, [r7, #120]
 609:./Libraries/CMSIS/DSP/Source/TransformFunctions/arm_cfft_radix4_q31.c ****     /* (ya - yc) - (xb - xd) */
 610:./Libraries/CMSIS/DSP/Source/TransformFunctions/arm_cfft_radix4_q31.c ****     s2 = s2 - t2;
 2087              		.loc 1 610 8 discriminator 1
 2088 02dc 7A6F     		ldr	r2, [r7, #116]
 2089 02de 3B6F     		ldr	r3, [r7, #112]
 2090 02e0 D31A     		subs	r3, r2, r3
 2091 02e2 7B67     		str	r3, [r7, #116]
 611:./Libraries/CMSIS/DSP/Source/TransformFunctions/arm_cfft_radix4_q31.c **** 
 612:./Libraries/CMSIS/DSP/Source/TransformFunctions/arm_cfft_radix4_q31.c ****     co1 = pCoef[ia1 * 2U];
 2092              		.loc 1 612 16 discriminator 1
 2093 02e4 D7F8A830 		ldr	r3, [r7, #168]
 2094 02e8 DB00     		lsls	r3, r3, #3
 2095 02ea 7A68     		ldr	r2, [r7, #4]
 2096 02ec 1344     		add	r3, r3, r2
 2097              		.loc 1 612 9 discriminator 1
 2098 02ee 1B68     		ldr	r3, [r3]
 2099 02f0 3B66     		str	r3, [r7, #96]
 613:./Libraries/CMSIS/DSP/Source/TransformFunctions/arm_cfft_radix4_q31.c ****     si1 = pCoef[(ia1 * 2U) + 1U];
 2100              		.loc 1 613 16 discriminator 1
 2101 02f2 D7F8A830 		ldr	r3, [r7, #168]
 2102 02f6 DB00     		lsls	r3, r3, #3
 2103 02f8 0433     		adds	r3, r3, #4
 2104 02fa 7A68     		ldr	r2, [r7, #4]
 2105 02fc 1344     		add	r3, r3, r2
 2106              		.loc 1 613 9 discriminator 1
 2107 02fe 1B68     		ldr	r3, [r3]
 2108 0300 FB65     		str	r3, [r7, #92]
 614:./Libraries/CMSIS/DSP/Source/TransformFunctions/arm_cfft_radix4_q31.c **** 
 615:./Libraries/CMSIS/DSP/Source/TransformFunctions/arm_cfft_radix4_q31.c ****     /* xb' = (xa+yb-xc-yd)co1 - (ya-xb-yc+xd)(si1) */
 616:./Libraries/CMSIS/DSP/Source/TransformFunctions/arm_cfft_radix4_q31.c ****     pSrc[2U * i2] = (((int32_t) (((q63_t) r1 * co1) >> 32)) -
 2109              		.loc 1 616 35 discriminator 1
 2110 0302 D7F88430 		ldr	r3, [r7, #132]
 2111 0306 1846     		mov	r0, r3
 2112 0308 4FEAE071 		asr	r1, r0, #31
 2113              		.loc 1 616 46 discriminator 1
 2114 030c 3B6E     		ldr	r3, [r7, #96]
 2115 030e 1A46     		mov	r2, r3
 2116 0310 4FEAE273 		asr	r3, r2, #31
 2117 0314 02FB01F5 		mul	r5, r2, r1
 2118 0318 00FB03F4 		mul	r4, r0, r3
 2119 031c 2C44     		add	r4, r4, r5
 2120 031e A0FB0223 		umull	r2, r3, r0, r2
 2121 0322 E118     		adds	r1, r4, r3
 2122 0324 0B46     		mov	r3, r1
 2123              		.loc 1 616 53 discriminator 1
 2124 0326 4FF00000 		mov	r0, #0
 2125 032a 4FF00001 		mov	r1, #0
 2126 032e 1800     		movs	r0, r3
 2127 0330 D917     		asrs	r1, r3, #31
 2128              		.loc 1 616 23 discriminator 1
 2129 0332 0646     		mov	r6, r0
 617:./Libraries/CMSIS/DSP/Source/TransformFunctions/arm_cfft_radix4_q31.c ****                      ((int32_t) (((q63_t) s1 * si1) >> 32))) << 1U;
 2130              		.loc 1 617 35 discriminator 1
 2131 0334 BB6F     		ldr	r3, [r7, #120]
 2132 0336 1846     		mov	r0, r3
ARM GAS  /tmp/ccanIW00.s 			page 50


 2133 0338 4FEAE071 		asr	r1, r0, #31
 2134              		.loc 1 617 46 discriminator 1
 2135 033c FB6D     		ldr	r3, [r7, #92]
 2136 033e 1A46     		mov	r2, r3
 2137 0340 4FEAE273 		asr	r3, r2, #31
 2138 0344 02FB01F5 		mul	r5, r2, r1
 2139 0348 00FB03F4 		mul	r4, r0, r3
 2140 034c 2C44     		add	r4, r4, r5
 2141 034e A0FB0223 		umull	r2, r3, r0, r2
 2142 0352 E118     		adds	r1, r4, r3
 2143 0354 0B46     		mov	r3, r1
 2144              		.loc 1 617 53 discriminator 1
 2145 0356 4FF00000 		mov	r0, #0
 2146 035a 4FF00001 		mov	r1, #0
 2147 035e 1800     		movs	r0, r3
 2148 0360 D917     		asrs	r1, r3, #31
 2149              		.loc 1 617 23 discriminator 1
 2150 0362 0346     		mov	r3, r0
 616:./Libraries/CMSIS/DSP/Source/TransformFunctions/arm_cfft_radix4_q31.c ****                      ((int32_t) (((q63_t) s1 * si1) >> 32))) << 1U;
 2151              		.loc 1 616 61 discriminator 1
 2152 0364 F21A     		subs	r2, r6, r3
 616:./Libraries/CMSIS/DSP/Source/TransformFunctions/arm_cfft_radix4_q31.c ****                      ((int32_t) (((q63_t) s1 * si1) >> 32))) << 1U;
 2153              		.loc 1 616 9 discriminator 1
 2154 0366 D7F88C30 		ldr	r3, [r7, #140]
 2155 036a DB00     		lsls	r3, r3, #3
 2156 036c F968     		ldr	r1, [r7, #12]
 2157 036e 0B44     		add	r3, r3, r1
 2158              		.loc 1 617 62 discriminator 1
 2159 0370 5200     		lsls	r2, r2, #1
 616:./Libraries/CMSIS/DSP/Source/TransformFunctions/arm_cfft_radix4_q31.c ****                      ((int32_t) (((q63_t) s1 * si1) >> 32))) << 1U;
 2160              		.loc 1 616 19 discriminator 1
 2161 0372 1A60     		str	r2, [r3]
 618:./Libraries/CMSIS/DSP/Source/TransformFunctions/arm_cfft_radix4_q31.c **** 
 619:./Libraries/CMSIS/DSP/Source/TransformFunctions/arm_cfft_radix4_q31.c ****     /* yb' = (ya-xb-yc+xd)co1 + (xa+yb-xc-yd)(si1) */
 620:./Libraries/CMSIS/DSP/Source/TransformFunctions/arm_cfft_radix4_q31.c ****     pSrc[(2U * i2) + 1U] = (((int32_t) (((q63_t) s1 * co1) >> 32)) +
 2162              		.loc 1 620 42 discriminator 1
 2163 0374 BB6F     		ldr	r3, [r7, #120]
 2164 0376 1846     		mov	r0, r3
 2165 0378 4FEAE071 		asr	r1, r0, #31
 2166              		.loc 1 620 53 discriminator 1
 2167 037c 3B6E     		ldr	r3, [r7, #96]
 2168 037e 1A46     		mov	r2, r3
 2169 0380 4FEAE273 		asr	r3, r2, #31
 2170 0384 02FB01F5 		mul	r5, r2, r1
 2171 0388 00FB03F4 		mul	r4, r0, r3
 2172 038c 2C44     		add	r4, r4, r5
 2173 038e A0FB0223 		umull	r2, r3, r0, r2
 2174 0392 E118     		adds	r1, r4, r3
 2175 0394 0B46     		mov	r3, r1
 2176              		.loc 1 620 60 discriminator 1
 2177 0396 4FF00000 		mov	r0, #0
 2178 039a 4FF00001 		mov	r1, #0
 2179 039e 1800     		movs	r0, r3
 2180 03a0 D917     		asrs	r1, r3, #31
 2181              		.loc 1 620 30 discriminator 1
 2182 03a2 0646     		mov	r6, r0
 621:./Libraries/CMSIS/DSP/Source/TransformFunctions/arm_cfft_radix4_q31.c ****                             ((int32_t) (((q63_t) r1 * si1) >> 32))) << 1U;
ARM GAS  /tmp/ccanIW00.s 			page 51


 2183              		.loc 1 621 42 discriminator 1
 2184 03a4 D7F88430 		ldr	r3, [r7, #132]
 2185 03a8 1846     		mov	r0, r3
 2186 03aa 4FEAE071 		asr	r1, r0, #31
 2187              		.loc 1 621 53 discriminator 1
 2188 03ae FB6D     		ldr	r3, [r7, #92]
 2189 03b0 1A46     		mov	r2, r3
 2190 03b2 4FEAE273 		asr	r3, r2, #31
 2191 03b6 02FB01F5 		mul	r5, r2, r1
 2192 03ba 00FB03F4 		mul	r4, r0, r3
 2193 03be 2C44     		add	r4, r4, r5
 2194 03c0 A0FB0223 		umull	r2, r3, r0, r2
 2195 03c4 E118     		adds	r1, r4, r3
 2196 03c6 0B46     		mov	r3, r1
 2197              		.loc 1 621 60 discriminator 1
 2198 03c8 4FF00000 		mov	r0, #0
 2199 03cc 4FF00001 		mov	r1, #0
 2200 03d0 1800     		movs	r0, r3
 2201 03d2 D917     		asrs	r1, r3, #31
 2202              		.loc 1 621 30 discriminator 1
 2203 03d4 0346     		mov	r3, r0
 620:./Libraries/CMSIS/DSP/Source/TransformFunctions/arm_cfft_radix4_q31.c ****                             ((int32_t) (((q63_t) r1 * si1) >> 32))) << 1U;
 2204              		.loc 1 620 68 discriminator 1
 2205 03d6 F218     		adds	r2, r6, r3
 620:./Libraries/CMSIS/DSP/Source/TransformFunctions/arm_cfft_radix4_q31.c ****                             ((int32_t) (((q63_t) r1 * si1) >> 32))) << 1U;
 2206              		.loc 1 620 9 discriminator 1
 2207 03d8 D7F88C30 		ldr	r3, [r7, #140]
 2208 03dc DB00     		lsls	r3, r3, #3
 2209 03de 0433     		adds	r3, r3, #4
 2210 03e0 F968     		ldr	r1, [r7, #12]
 2211 03e2 0B44     		add	r3, r3, r1
 2212              		.loc 1 621 69 discriminator 1
 2213 03e4 5200     		lsls	r2, r2, #1
 620:./Libraries/CMSIS/DSP/Source/TransformFunctions/arm_cfft_radix4_q31.c ****                             ((int32_t) (((q63_t) r1 * si1) >> 32))) << 1U;
 2214              		.loc 1 620 26 discriminator 1
 2215 03e6 1A60     		str	r2, [r3]
 622:./Libraries/CMSIS/DSP/Source/TransformFunctions/arm_cfft_radix4_q31.c **** 
 623:./Libraries/CMSIS/DSP/Source/TransformFunctions/arm_cfft_radix4_q31.c ****     /*  index calculation for the coefficients */
 624:./Libraries/CMSIS/DSP/Source/TransformFunctions/arm_cfft_radix4_q31.c ****     ia3 = 3U * ia1;
 2216              		.loc 1 624 9 discriminator 1
 2217 03e8 D7F8A820 		ldr	r2, [r7, #168]
 2218 03ec 1346     		mov	r3, r2
 2219 03ee 5B00     		lsls	r3, r3, #1
 2220 03f0 1344     		add	r3, r3, r2
 2221 03f2 BB65     		str	r3, [r7, #88]
 625:./Libraries/CMSIS/DSP/Source/TransformFunctions/arm_cfft_radix4_q31.c ****     co3 = pCoef[ia3 * 2U];
 2222              		.loc 1 625 16 discriminator 1
 2223 03f4 BB6D     		ldr	r3, [r7, #88]
 2224 03f6 DB00     		lsls	r3, r3, #3
 2225 03f8 7A68     		ldr	r2, [r7, #4]
 2226 03fa 1344     		add	r3, r3, r2
 2227              		.loc 1 625 9 discriminator 1
 2228 03fc 1B68     		ldr	r3, [r3]
 2229 03fe 7B65     		str	r3, [r7, #84]
 626:./Libraries/CMSIS/DSP/Source/TransformFunctions/arm_cfft_radix4_q31.c ****     si3 = pCoef[(ia3 * 2U) + 1U];
 2230              		.loc 1 626 16 discriminator 1
 2231 0400 BB6D     		ldr	r3, [r7, #88]
ARM GAS  /tmp/ccanIW00.s 			page 52


 2232 0402 DB00     		lsls	r3, r3, #3
 2233 0404 0433     		adds	r3, r3, #4
 2234 0406 7A68     		ldr	r2, [r7, #4]
 2235 0408 1344     		add	r3, r3, r2
 2236              		.loc 1 626 9 discriminator 1
 2237 040a 1B68     		ldr	r3, [r3]
 2238 040c 3B65     		str	r3, [r7, #80]
 627:./Libraries/CMSIS/DSP/Source/TransformFunctions/arm_cfft_radix4_q31.c **** 
 628:./Libraries/CMSIS/DSP/Source/TransformFunctions/arm_cfft_radix4_q31.c ****     /* xd' = (xa-yb-xc+yd)co3 - (ya+xb-yc-xd)(si3) */
 629:./Libraries/CMSIS/DSP/Source/TransformFunctions/arm_cfft_radix4_q31.c ****     pSrc[2U * i3] = (((int32_t) (((q63_t) r2 * co3) >> 32)) -
 2239              		.loc 1 629 35 discriminator 1
 2240 040e D7F88030 		ldr	r3, [r7, #128]
 2241 0412 1846     		mov	r0, r3
 2242 0414 4FEAE071 		asr	r1, r0, #31
 2243              		.loc 1 629 46 discriminator 1
 2244 0418 7B6D     		ldr	r3, [r7, #84]
 2245 041a 1A46     		mov	r2, r3
 2246 041c 4FEAE273 		asr	r3, r2, #31
 2247 0420 02FB01F5 		mul	r5, r2, r1
 2248 0424 00FB03F4 		mul	r4, r0, r3
 2249 0428 2C44     		add	r4, r4, r5
 2250 042a A0FB0223 		umull	r2, r3, r0, r2
 2251 042e E118     		adds	r1, r4, r3
 2252 0430 0B46     		mov	r3, r1
 2253              		.loc 1 629 53 discriminator 1
 2254 0432 4FF00000 		mov	r0, #0
 2255 0436 4FF00001 		mov	r1, #0
 2256 043a 1800     		movs	r0, r3
 2257 043c D917     		asrs	r1, r3, #31
 2258              		.loc 1 629 23 discriminator 1
 2259 043e 0646     		mov	r6, r0
 630:./Libraries/CMSIS/DSP/Source/TransformFunctions/arm_cfft_radix4_q31.c ****                      ((int32_t) (((q63_t) s2 * si3) >> 32))) << 1U;
 2260              		.loc 1 630 35 discriminator 1
 2261 0440 7B6F     		ldr	r3, [r7, #116]
 2262 0442 1846     		mov	r0, r3
 2263 0444 4FEAE071 		asr	r1, r0, #31
 2264              		.loc 1 630 46 discriminator 1
 2265 0448 3B6D     		ldr	r3, [r7, #80]
 2266 044a 1A46     		mov	r2, r3
 2267 044c 4FEAE273 		asr	r3, r2, #31
 2268 0450 02FB01F5 		mul	r5, r2, r1
 2269 0454 00FB03F4 		mul	r4, r0, r3
 2270 0458 2C44     		add	r4, r4, r5
 2271 045a A0FB0223 		umull	r2, r3, r0, r2
 2272 045e E118     		adds	r1, r4, r3
 2273 0460 0B46     		mov	r3, r1
 2274              		.loc 1 630 53 discriminator 1
 2275 0462 4FF00000 		mov	r0, #0
 2276 0466 4FF00001 		mov	r1, #0
 2277 046a 1800     		movs	r0, r3
 2278 046c D917     		asrs	r1, r3, #31
 2279              		.loc 1 630 23 discriminator 1
 2280 046e 0346     		mov	r3, r0
 629:./Libraries/CMSIS/DSP/Source/TransformFunctions/arm_cfft_radix4_q31.c ****                      ((int32_t) (((q63_t) s2 * si3) >> 32))) << 1U;
 2281              		.loc 1 629 61 discriminator 1
 2282 0470 F21A     		subs	r2, r6, r3
 629:./Libraries/CMSIS/DSP/Source/TransformFunctions/arm_cfft_radix4_q31.c ****                      ((int32_t) (((q63_t) s2 * si3) >> 32))) << 1U;
ARM GAS  /tmp/ccanIW00.s 			page 53


 2283              		.loc 1 629 9 discriminator 1
 2284 0472 D7F88830 		ldr	r3, [r7, #136]
 2285 0476 DB00     		lsls	r3, r3, #3
 2286 0478 F968     		ldr	r1, [r7, #12]
 2287 047a 0B44     		add	r3, r3, r1
 2288              		.loc 1 630 62 discriminator 1
 2289 047c 5200     		lsls	r2, r2, #1
 629:./Libraries/CMSIS/DSP/Source/TransformFunctions/arm_cfft_radix4_q31.c ****                      ((int32_t) (((q63_t) s2 * si3) >> 32))) << 1U;
 2290              		.loc 1 629 19 discriminator 1
 2291 047e 1A60     		str	r2, [r3]
 631:./Libraries/CMSIS/DSP/Source/TransformFunctions/arm_cfft_radix4_q31.c **** 
 632:./Libraries/CMSIS/DSP/Source/TransformFunctions/arm_cfft_radix4_q31.c ****     /* yd' = (ya+xb-yc-xd)co3 + (xa-yb-xc+yd)(si3) */
 633:./Libraries/CMSIS/DSP/Source/TransformFunctions/arm_cfft_radix4_q31.c ****     pSrc[(2U * i3) + 1U] = (((int32_t) (((q63_t) s2 * co3) >> 32)) +
 2292              		.loc 1 633 42 discriminator 1
 2293 0480 7B6F     		ldr	r3, [r7, #116]
 2294 0482 1846     		mov	r0, r3
 2295 0484 4FEAE071 		asr	r1, r0, #31
 2296              		.loc 1 633 53 discriminator 1
 2297 0488 7B6D     		ldr	r3, [r7, #84]
 2298 048a 1A46     		mov	r2, r3
 2299 048c 4FEAE273 		asr	r3, r2, #31
 2300 0490 02FB01F5 		mul	r5, r2, r1
 2301 0494 00FB03F4 		mul	r4, r0, r3
 2302 0498 2C44     		add	r4, r4, r5
 2303 049a A0FB0223 		umull	r2, r3, r0, r2
 2304 049e E118     		adds	r1, r4, r3
 2305 04a0 0B46     		mov	r3, r1
 2306              		.loc 1 633 60 discriminator 1
 2307 04a2 4FF00000 		mov	r0, #0
 2308 04a6 4FF00001 		mov	r1, #0
 2309 04aa 1800     		movs	r0, r3
 2310 04ac D917     		asrs	r1, r3, #31
 2311              		.loc 1 633 30 discriminator 1
 2312 04ae 0646     		mov	r6, r0
 634:./Libraries/CMSIS/DSP/Source/TransformFunctions/arm_cfft_radix4_q31.c ****                             ((int32_t) (((q63_t) r2 * si3) >> 32))) << 1U;
 2313              		.loc 1 634 42 discriminator 1
 2314 04b0 D7F88030 		ldr	r3, [r7, #128]
 2315 04b4 1846     		mov	r0, r3
 2316 04b6 4FEAE071 		asr	r1, r0, #31
 2317              		.loc 1 634 53 discriminator 1
 2318 04ba 3B6D     		ldr	r3, [r7, #80]
 2319 04bc 1A46     		mov	r2, r3
 2320 04be 4FEAE273 		asr	r3, r2, #31
 2321 04c2 02FB01F5 		mul	r5, r2, r1
 2322 04c6 00FB03F4 		mul	r4, r0, r3
 2323 04ca 2C44     		add	r4, r4, r5
 2324 04cc A0FB0223 		umull	r2, r3, r0, r2
 2325 04d0 E118     		adds	r1, r4, r3
 2326 04d2 0B46     		mov	r3, r1
 2327              		.loc 1 634 60 discriminator 1
 2328 04d4 4FF00000 		mov	r0, #0
 2329 04d8 4FF00001 		mov	r1, #0
 2330 04dc 1800     		movs	r0, r3
 2331 04de D917     		asrs	r1, r3, #31
 2332              		.loc 1 634 30 discriminator 1
 2333 04e0 0346     		mov	r3, r0
 633:./Libraries/CMSIS/DSP/Source/TransformFunctions/arm_cfft_radix4_q31.c ****                             ((int32_t) (((q63_t) r2 * si3) >> 32))) << 1U;
ARM GAS  /tmp/ccanIW00.s 			page 54


 2334              		.loc 1 633 68 discriminator 1
 2335 04e2 F218     		adds	r2, r6, r3
 633:./Libraries/CMSIS/DSP/Source/TransformFunctions/arm_cfft_radix4_q31.c ****                             ((int32_t) (((q63_t) r2 * si3) >> 32))) << 1U;
 2336              		.loc 1 633 9 discriminator 1
 2337 04e4 D7F88830 		ldr	r3, [r7, #136]
 2338 04e8 DB00     		lsls	r3, r3, #3
 2339 04ea 0433     		adds	r3, r3, #4
 2340 04ec F968     		ldr	r1, [r7, #12]
 2341 04ee 0B44     		add	r3, r3, r1
 2342              		.loc 1 634 69 discriminator 1
 2343 04f0 5200     		lsls	r2, r2, #1
 633:./Libraries/CMSIS/DSP/Source/TransformFunctions/arm_cfft_radix4_q31.c ****                             ((int32_t) (((q63_t) r2 * si3) >> 32))) << 1U;
 2344              		.loc 1 633 26 discriminator 1
 2345 04f2 1A60     		str	r2, [r3]
 635:./Libraries/CMSIS/DSP/Source/TransformFunctions/arm_cfft_radix4_q31.c **** 
 636:./Libraries/CMSIS/DSP/Source/TransformFunctions/arm_cfft_radix4_q31.c ****     /*  Twiddle coefficients index modifier */
 637:./Libraries/CMSIS/DSP/Source/TransformFunctions/arm_cfft_radix4_q31.c ****     ia1 = ia1 + twidCoefModifier;
 2346              		.loc 1 637 9 discriminator 1
 2347 04f4 D7F8A820 		ldr	r2, [r7, #168]
 2348 04f8 3B68     		ldr	r3, [r7]
 2349 04fa 1344     		add	r3, r3, r2
 2350 04fc C7F8A830 		str	r3, [r7, #168]
 638:./Libraries/CMSIS/DSP/Source/TransformFunctions/arm_cfft_radix4_q31.c **** 
 639:./Libraries/CMSIS/DSP/Source/TransformFunctions/arm_cfft_radix4_q31.c ****     /*  Updating input index */
 640:./Libraries/CMSIS/DSP/Source/TransformFunctions/arm_cfft_radix4_q31.c ****     i0 = i0 + 1U;
 2351              		.loc 1 640 8 discriminator 1
 2352 0500 D7F8A430 		ldr	r3, [r7, #164]
 2353 0504 0133     		adds	r3, r3, #1
 2354 0506 C7F8A430 		str	r3, [r7, #164]
 641:./Libraries/CMSIS/DSP/Source/TransformFunctions/arm_cfft_radix4_q31.c **** 
 642:./Libraries/CMSIS/DSP/Source/TransformFunctions/arm_cfft_radix4_q31.c ****   } while (--j);
 2355              		.loc 1 642 3 discriminator 1
 2356 050a D7F8A030 		ldr	r3, [r7, #160]
 2357 050e 013B     		subs	r3, r3, #1
 2358 0510 C7F8A030 		str	r3, [r7, #160]
 2359 0514 D7F8A030 		ldr	r3, [r7, #160]
 2360 0518 002B     		cmp	r3, #0
 2361 051a 7FF48EAD 		bne	.L16
 643:./Libraries/CMSIS/DSP/Source/TransformFunctions/arm_cfft_radix4_q31.c **** 
 644:./Libraries/CMSIS/DSP/Source/TransformFunctions/arm_cfft_radix4_q31.c ****   /* data is in 5.27(q27) format */
 645:./Libraries/CMSIS/DSP/Source/TransformFunctions/arm_cfft_radix4_q31.c ****   /* each stage provides two down scaling of the input */
 646:./Libraries/CMSIS/DSP/Source/TransformFunctions/arm_cfft_radix4_q31.c **** 
 647:./Libraries/CMSIS/DSP/Source/TransformFunctions/arm_cfft_radix4_q31.c **** 
 648:./Libraries/CMSIS/DSP/Source/TransformFunctions/arm_cfft_radix4_q31.c ****   /* Start of Middle stages process */
 649:./Libraries/CMSIS/DSP/Source/TransformFunctions/arm_cfft_radix4_q31.c **** 
 650:./Libraries/CMSIS/DSP/Source/TransformFunctions/arm_cfft_radix4_q31.c ****   twidCoefModifier <<= 2U;
 2362              		.loc 1 650 20
 2363 051e 3B68     		ldr	r3, [r7]
 2364 0520 9B00     		lsls	r3, r3, #2
 2365 0522 3B60     		str	r3, [r7]
 651:./Libraries/CMSIS/DSP/Source/TransformFunctions/arm_cfft_radix4_q31.c **** 
 652:./Libraries/CMSIS/DSP/Source/TransformFunctions/arm_cfft_radix4_q31.c ****   /*  Calculation of second stage to excluding last stage */
 653:./Libraries/CMSIS/DSP/Source/TransformFunctions/arm_cfft_radix4_q31.c ****   for (k = fftLen / 4U; k > 4U; k >>= 2U)
 2366              		.loc 1 653 10
 2367 0524 BB68     		ldr	r3, [r7, #8]
 2368 0526 9B08     		lsrs	r3, r3, #2
 2369 0528 C7F89C30 		str	r3, [r7, #156]
ARM GAS  /tmp/ccanIW00.s 			page 55


 2370              		.loc 1 653 3
 2371 052c 8AE2     		b	.L17
 2372              	.L22:
 654:./Libraries/CMSIS/DSP/Source/TransformFunctions/arm_cfft_radix4_q31.c ****   {
 655:./Libraries/CMSIS/DSP/Source/TransformFunctions/arm_cfft_radix4_q31.c ****     /*  Initializations for the first stage */
 656:./Libraries/CMSIS/DSP/Source/TransformFunctions/arm_cfft_radix4_q31.c ****     n1 = n2;
 2373              		.loc 1 656 8
 2374 052e D7F8AC30 		ldr	r3, [r7, #172]
 2375 0532 C7F89430 		str	r3, [r7, #148]
 657:./Libraries/CMSIS/DSP/Source/TransformFunctions/arm_cfft_radix4_q31.c ****     n2 >>= 2U;
 2376              		.loc 1 657 8
 2377 0536 D7F8AC30 		ldr	r3, [r7, #172]
 2378 053a 9B08     		lsrs	r3, r3, #2
 2379 053c C7F8AC30 		str	r3, [r7, #172]
 658:./Libraries/CMSIS/DSP/Source/TransformFunctions/arm_cfft_radix4_q31.c ****     ia1 = 0U;
 2380              		.loc 1 658 9
 2381 0540 0023     		movs	r3, #0
 2382 0542 C7F8A830 		str	r3, [r7, #168]
 659:./Libraries/CMSIS/DSP/Source/TransformFunctions/arm_cfft_radix4_q31.c **** 
 660:./Libraries/CMSIS/DSP/Source/TransformFunctions/arm_cfft_radix4_q31.c ****     for (j = 0; j <= (n2 - 1U); j++)
 2383              		.loc 1 660 12
 2384 0546 0023     		movs	r3, #0
 2385 0548 C7F8A030 		str	r3, [r7, #160]
 2386              		.loc 1 660 5
 2387 054c 6AE2     		b	.L18
 2388              	.L21:
 661:./Libraries/CMSIS/DSP/Source/TransformFunctions/arm_cfft_radix4_q31.c ****     {
 662:./Libraries/CMSIS/DSP/Source/TransformFunctions/arm_cfft_radix4_q31.c ****       /*  index calculation for the coefficients */
 663:./Libraries/CMSIS/DSP/Source/TransformFunctions/arm_cfft_radix4_q31.c ****       ia2 = ia1 + ia1;
 2389              		.loc 1 663 11
 2390 054e D7F8A830 		ldr	r3, [r7, #168]
 2391 0552 5B00     		lsls	r3, r3, #1
 2392 0554 FB66     		str	r3, [r7, #108]
 664:./Libraries/CMSIS/DSP/Source/TransformFunctions/arm_cfft_radix4_q31.c ****       ia3 = ia2 + ia1;
 2393              		.loc 1 664 11
 2394 0556 FA6E     		ldr	r2, [r7, #108]
 2395 0558 D7F8A830 		ldr	r3, [r7, #168]
 2396 055c 1344     		add	r3, r3, r2
 2397 055e BB65     		str	r3, [r7, #88]
 665:./Libraries/CMSIS/DSP/Source/TransformFunctions/arm_cfft_radix4_q31.c ****       co1 = pCoef[(ia1 * 2U)];
 2398              		.loc 1 665 18
 2399 0560 D7F8A830 		ldr	r3, [r7, #168]
 2400 0564 DB00     		lsls	r3, r3, #3
 2401 0566 7A68     		ldr	r2, [r7, #4]
 2402 0568 1344     		add	r3, r3, r2
 2403              		.loc 1 665 11
 2404 056a 1B68     		ldr	r3, [r3]
 2405 056c 3B66     		str	r3, [r7, #96]
 666:./Libraries/CMSIS/DSP/Source/TransformFunctions/arm_cfft_radix4_q31.c ****       si1 = pCoef[(ia1 * 2U) + 1U];
 2406              		.loc 1 666 18
 2407 056e D7F8A830 		ldr	r3, [r7, #168]
 2408 0572 DB00     		lsls	r3, r3, #3
 2409 0574 0433     		adds	r3, r3, #4
 2410 0576 7A68     		ldr	r2, [r7, #4]
 2411 0578 1344     		add	r3, r3, r2
 2412              		.loc 1 666 11
 2413 057a 1B68     		ldr	r3, [r3]
ARM GAS  /tmp/ccanIW00.s 			page 56


 2414 057c FB65     		str	r3, [r7, #92]
 667:./Libraries/CMSIS/DSP/Source/TransformFunctions/arm_cfft_radix4_q31.c ****       co2 = pCoef[(ia2 * 2U)];
 2415              		.loc 1 667 18
 2416 057e FB6E     		ldr	r3, [r7, #108]
 2417 0580 DB00     		lsls	r3, r3, #3
 2418 0582 7A68     		ldr	r2, [r7, #4]
 2419 0584 1344     		add	r3, r3, r2
 2420              		.loc 1 667 11
 2421 0586 1B68     		ldr	r3, [r3]
 2422 0588 BB66     		str	r3, [r7, #104]
 668:./Libraries/CMSIS/DSP/Source/TransformFunctions/arm_cfft_radix4_q31.c ****       si2 = pCoef[(ia2 * 2U) + 1U];
 2423              		.loc 1 668 18
 2424 058a FB6E     		ldr	r3, [r7, #108]
 2425 058c DB00     		lsls	r3, r3, #3
 2426 058e 0433     		adds	r3, r3, #4
 2427 0590 7A68     		ldr	r2, [r7, #4]
 2428 0592 1344     		add	r3, r3, r2
 2429              		.loc 1 668 11
 2430 0594 1B68     		ldr	r3, [r3]
 2431 0596 7B66     		str	r3, [r7, #100]
 669:./Libraries/CMSIS/DSP/Source/TransformFunctions/arm_cfft_radix4_q31.c ****       co3 = pCoef[(ia3 * 2U)];
 2432              		.loc 1 669 18
 2433 0598 BB6D     		ldr	r3, [r7, #88]
 2434 059a DB00     		lsls	r3, r3, #3
 2435 059c 7A68     		ldr	r2, [r7, #4]
 2436 059e 1344     		add	r3, r3, r2
 2437              		.loc 1 669 11
 2438 05a0 1B68     		ldr	r3, [r3]
 2439 05a2 7B65     		str	r3, [r7, #84]
 670:./Libraries/CMSIS/DSP/Source/TransformFunctions/arm_cfft_radix4_q31.c ****       si3 = pCoef[(ia3 * 2U) + 1U];
 2440              		.loc 1 670 18
 2441 05a4 BB6D     		ldr	r3, [r7, #88]
 2442 05a6 DB00     		lsls	r3, r3, #3
 2443 05a8 0433     		adds	r3, r3, #4
 2444 05aa 7A68     		ldr	r2, [r7, #4]
 2445 05ac 1344     		add	r3, r3, r2
 2446              		.loc 1 670 11
 2447 05ae 1B68     		ldr	r3, [r3]
 2448 05b0 3B65     		str	r3, [r7, #80]
 671:./Libraries/CMSIS/DSP/Source/TransformFunctions/arm_cfft_radix4_q31.c ****       /*  Twiddle coefficients index modifier */
 672:./Libraries/CMSIS/DSP/Source/TransformFunctions/arm_cfft_radix4_q31.c ****       ia1 = ia1 + twidCoefModifier;
 2449              		.loc 1 672 11
 2450 05b2 D7F8A820 		ldr	r2, [r7, #168]
 2451 05b6 3B68     		ldr	r3, [r7]
 2452 05b8 1344     		add	r3, r3, r2
 2453 05ba C7F8A830 		str	r3, [r7, #168]
 673:./Libraries/CMSIS/DSP/Source/TransformFunctions/arm_cfft_radix4_q31.c **** 
 674:./Libraries/CMSIS/DSP/Source/TransformFunctions/arm_cfft_radix4_q31.c ****       for (i0 = j; i0 < fftLen; i0 += n1)
 2454              		.loc 1 674 15
 2455 05be D7F8A030 		ldr	r3, [r7, #160]
 2456 05c2 C7F8A430 		str	r3, [r7, #164]
 2457              		.loc 1 674 7
 2458 05c6 22E2     		b	.L19
 2459              	.L20:
 675:./Libraries/CMSIS/DSP/Source/TransformFunctions/arm_cfft_radix4_q31.c ****       {
 676:./Libraries/CMSIS/DSP/Source/TransformFunctions/arm_cfft_radix4_q31.c ****         /*  index calculation for the input as, */
 677:./Libraries/CMSIS/DSP/Source/TransformFunctions/arm_cfft_radix4_q31.c ****         /*  pSrc[i0 + 0], pSrc[i0 + fftLen/4], pSrc[i0 + fftLen/2U], pSrc[i0 + 3fftLen/4] */
ARM GAS  /tmp/ccanIW00.s 			page 57


 678:./Libraries/CMSIS/DSP/Source/TransformFunctions/arm_cfft_radix4_q31.c ****         i1 = i0 + n2;
 2460              		.loc 1 678 12 discriminator 3
 2461 05c8 D7F8A420 		ldr	r2, [r7, #164]
 2462 05cc D7F8AC30 		ldr	r3, [r7, #172]
 2463 05d0 1344     		add	r3, r3, r2
 2464 05d2 C7F89030 		str	r3, [r7, #144]
 679:./Libraries/CMSIS/DSP/Source/TransformFunctions/arm_cfft_radix4_q31.c ****         i2 = i1 + n2;
 2465              		.loc 1 679 12 discriminator 3
 2466 05d6 D7F89020 		ldr	r2, [r7, #144]
 2467 05da D7F8AC30 		ldr	r3, [r7, #172]
 2468 05de 1344     		add	r3, r3, r2
 2469 05e0 C7F88C30 		str	r3, [r7, #140]
 680:./Libraries/CMSIS/DSP/Source/TransformFunctions/arm_cfft_radix4_q31.c ****         i3 = i2 + n2;
 2470              		.loc 1 680 12 discriminator 3
 2471 05e4 D7F88C20 		ldr	r2, [r7, #140]
 2472 05e8 D7F8AC30 		ldr	r3, [r7, #172]
 2473 05ec 1344     		add	r3, r3, r2
 2474 05ee C7F88830 		str	r3, [r7, #136]
 681:./Libraries/CMSIS/DSP/Source/TransformFunctions/arm_cfft_radix4_q31.c **** 
 682:./Libraries/CMSIS/DSP/Source/TransformFunctions/arm_cfft_radix4_q31.c ****         /*  Butterfly implementation */
 683:./Libraries/CMSIS/DSP/Source/TransformFunctions/arm_cfft_radix4_q31.c ****         /* xa + xc */
 684:./Libraries/CMSIS/DSP/Source/TransformFunctions/arm_cfft_radix4_q31.c ****         r1 = pSrc[2U * i0] + pSrc[2U * i2];
 2475              		.loc 1 684 18 discriminator 3
 2476 05f2 D7F8A430 		ldr	r3, [r7, #164]
 2477 05f6 DB00     		lsls	r3, r3, #3
 2478 05f8 FA68     		ldr	r2, [r7, #12]
 2479 05fa 1344     		add	r3, r3, r2
 2480 05fc 1A68     		ldr	r2, [r3]
 2481              		.loc 1 684 34 discriminator 3
 2482 05fe D7F88C30 		ldr	r3, [r7, #140]
 2483 0602 DB00     		lsls	r3, r3, #3
 2484 0604 F968     		ldr	r1, [r7, #12]
 2485 0606 0B44     		add	r3, r3, r1
 2486 0608 1B68     		ldr	r3, [r3]
 2487              		.loc 1 684 12 discriminator 3
 2488 060a 1344     		add	r3, r3, r2
 2489 060c C7F88430 		str	r3, [r7, #132]
 685:./Libraries/CMSIS/DSP/Source/TransformFunctions/arm_cfft_radix4_q31.c ****         /* xa - xc */
 686:./Libraries/CMSIS/DSP/Source/TransformFunctions/arm_cfft_radix4_q31.c ****         r2 = pSrc[2U * i0] - pSrc[2U * i2];
 2490              		.loc 1 686 18 discriminator 3
 2491 0610 D7F8A430 		ldr	r3, [r7, #164]
 2492 0614 DB00     		lsls	r3, r3, #3
 2493 0616 FA68     		ldr	r2, [r7, #12]
 2494 0618 1344     		add	r3, r3, r2
 2495 061a 1A68     		ldr	r2, [r3]
 2496              		.loc 1 686 34 discriminator 3
 2497 061c D7F88C30 		ldr	r3, [r7, #140]
 2498 0620 DB00     		lsls	r3, r3, #3
 2499 0622 F968     		ldr	r1, [r7, #12]
 2500 0624 0B44     		add	r3, r3, r1
 2501 0626 1B68     		ldr	r3, [r3]
 2502              		.loc 1 686 12 discriminator 3
 2503 0628 D31A     		subs	r3, r2, r3
 2504 062a C7F88030 		str	r3, [r7, #128]
 687:./Libraries/CMSIS/DSP/Source/TransformFunctions/arm_cfft_radix4_q31.c **** 
 688:./Libraries/CMSIS/DSP/Source/TransformFunctions/arm_cfft_radix4_q31.c ****         /* ya + yc */
 689:./Libraries/CMSIS/DSP/Source/TransformFunctions/arm_cfft_radix4_q31.c ****         s1 = pSrc[(2U * i0) + 1U] + pSrc[(2U * i2) + 1U];
ARM GAS  /tmp/ccanIW00.s 			page 58


 2505              		.loc 1 689 18 discriminator 3
 2506 062e D7F8A430 		ldr	r3, [r7, #164]
 2507 0632 DB00     		lsls	r3, r3, #3
 2508 0634 0433     		adds	r3, r3, #4
 2509 0636 FA68     		ldr	r2, [r7, #12]
 2510 0638 1344     		add	r3, r3, r2
 2511 063a 1A68     		ldr	r2, [r3]
 2512              		.loc 1 689 41 discriminator 3
 2513 063c D7F88C30 		ldr	r3, [r7, #140]
 2514 0640 DB00     		lsls	r3, r3, #3
 2515 0642 0433     		adds	r3, r3, #4
 2516 0644 F968     		ldr	r1, [r7, #12]
 2517 0646 0B44     		add	r3, r3, r1
 2518 0648 1B68     		ldr	r3, [r3]
 2519              		.loc 1 689 12 discriminator 3
 2520 064a 1344     		add	r3, r3, r2
 2521 064c BB67     		str	r3, [r7, #120]
 690:./Libraries/CMSIS/DSP/Source/TransformFunctions/arm_cfft_radix4_q31.c ****         /* ya - yc */
 691:./Libraries/CMSIS/DSP/Source/TransformFunctions/arm_cfft_radix4_q31.c ****         s2 = pSrc[(2U * i0) + 1U] - pSrc[(2U * i2) + 1U];
 2522              		.loc 1 691 18 discriminator 3
 2523 064e D7F8A430 		ldr	r3, [r7, #164]
 2524 0652 DB00     		lsls	r3, r3, #3
 2525 0654 0433     		adds	r3, r3, #4
 2526 0656 FA68     		ldr	r2, [r7, #12]
 2527 0658 1344     		add	r3, r3, r2
 2528 065a 1A68     		ldr	r2, [r3]
 2529              		.loc 1 691 41 discriminator 3
 2530 065c D7F88C30 		ldr	r3, [r7, #140]
 2531 0660 DB00     		lsls	r3, r3, #3
 2532 0662 0433     		adds	r3, r3, #4
 2533 0664 F968     		ldr	r1, [r7, #12]
 2534 0666 0B44     		add	r3, r3, r1
 2535 0668 1B68     		ldr	r3, [r3]
 2536              		.loc 1 691 12 discriminator 3
 2537 066a D31A     		subs	r3, r2, r3
 2538 066c 7B67     		str	r3, [r7, #116]
 692:./Libraries/CMSIS/DSP/Source/TransformFunctions/arm_cfft_radix4_q31.c **** 
 693:./Libraries/CMSIS/DSP/Source/TransformFunctions/arm_cfft_radix4_q31.c ****         /* xb + xd */
 694:./Libraries/CMSIS/DSP/Source/TransformFunctions/arm_cfft_radix4_q31.c ****         t1 = pSrc[2U * i1] + pSrc[2U * i3];
 2539              		.loc 1 694 18 discriminator 3
 2540 066e D7F89030 		ldr	r3, [r7, #144]
 2541 0672 DB00     		lsls	r3, r3, #3
 2542 0674 FA68     		ldr	r2, [r7, #12]
 2543 0676 1344     		add	r3, r3, r2
 2544 0678 1A68     		ldr	r2, [r3]
 2545              		.loc 1 694 34 discriminator 3
 2546 067a D7F88830 		ldr	r3, [r7, #136]
 2547 067e DB00     		lsls	r3, r3, #3
 2548 0680 F968     		ldr	r1, [r7, #12]
 2549 0682 0B44     		add	r3, r3, r1
 2550 0684 1B68     		ldr	r3, [r3]
 2551              		.loc 1 694 12 discriminator 3
 2552 0686 1344     		add	r3, r3, r2
 2553 0688 FB67     		str	r3, [r7, #124]
 695:./Libraries/CMSIS/DSP/Source/TransformFunctions/arm_cfft_radix4_q31.c **** 
 696:./Libraries/CMSIS/DSP/Source/TransformFunctions/arm_cfft_radix4_q31.c ****         /* xa' = xa + xb + xc + xd */
 697:./Libraries/CMSIS/DSP/Source/TransformFunctions/arm_cfft_radix4_q31.c ****         pSrc[2U * i0] = (r1 + t1) >> 2U;
ARM GAS  /tmp/ccanIW00.s 			page 59


 2554              		.loc 1 697 29 discriminator 3
 2555 068a D7F88420 		ldr	r2, [r7, #132]
 2556 068e FB6F     		ldr	r3, [r7, #124]
 2557 0690 1A44     		add	r2, r2, r3
 2558              		.loc 1 697 13 discriminator 3
 2559 0692 D7F8A430 		ldr	r3, [r7, #164]
 2560 0696 DB00     		lsls	r3, r3, #3
 2561 0698 F968     		ldr	r1, [r7, #12]
 2562 069a 0B44     		add	r3, r3, r1
 2563              		.loc 1 697 35 discriminator 3
 2564 069c 9210     		asrs	r2, r2, #2
 2565              		.loc 1 697 23 discriminator 3
 2566 069e 1A60     		str	r2, [r3]
 698:./Libraries/CMSIS/DSP/Source/TransformFunctions/arm_cfft_radix4_q31.c ****         /* xa + xc -(xb + xd) */
 699:./Libraries/CMSIS/DSP/Source/TransformFunctions/arm_cfft_radix4_q31.c ****         r1 = r1 - t1;
 2567              		.loc 1 699 12 discriminator 3
 2568 06a0 D7F88420 		ldr	r2, [r7, #132]
 2569 06a4 FB6F     		ldr	r3, [r7, #124]
 2570 06a6 D31A     		subs	r3, r2, r3
 2571 06a8 C7F88430 		str	r3, [r7, #132]
 700:./Libraries/CMSIS/DSP/Source/TransformFunctions/arm_cfft_radix4_q31.c ****         /* yb + yd */
 701:./Libraries/CMSIS/DSP/Source/TransformFunctions/arm_cfft_radix4_q31.c ****         t2 = pSrc[(2U * i1) + 1U] + pSrc[(2U * i3) + 1U];
 2572              		.loc 1 701 18 discriminator 3
 2573 06ac D7F89030 		ldr	r3, [r7, #144]
 2574 06b0 DB00     		lsls	r3, r3, #3
 2575 06b2 0433     		adds	r3, r3, #4
 2576 06b4 FA68     		ldr	r2, [r7, #12]
 2577 06b6 1344     		add	r3, r3, r2
 2578 06b8 1A68     		ldr	r2, [r3]
 2579              		.loc 1 701 41 discriminator 3
 2580 06ba D7F88830 		ldr	r3, [r7, #136]
 2581 06be DB00     		lsls	r3, r3, #3
 2582 06c0 0433     		adds	r3, r3, #4
 2583 06c2 F968     		ldr	r1, [r7, #12]
 2584 06c4 0B44     		add	r3, r3, r1
 2585 06c6 1B68     		ldr	r3, [r3]
 2586              		.loc 1 701 12 discriminator 3
 2587 06c8 1344     		add	r3, r3, r2
 2588 06ca 3B67     		str	r3, [r7, #112]
 702:./Libraries/CMSIS/DSP/Source/TransformFunctions/arm_cfft_radix4_q31.c ****         /* ya' = ya + yb + yc + yd */
 703:./Libraries/CMSIS/DSP/Source/TransformFunctions/arm_cfft_radix4_q31.c ****         pSrc[(2U * i0) + 1U] = (s1 + t2) >> 2U;
 2589              		.loc 1 703 36 discriminator 3
 2590 06cc BA6F     		ldr	r2, [r7, #120]
 2591 06ce 3B6F     		ldr	r3, [r7, #112]
 2592 06d0 1A44     		add	r2, r2, r3
 2593              		.loc 1 703 13 discriminator 3
 2594 06d2 D7F8A430 		ldr	r3, [r7, #164]
 2595 06d6 DB00     		lsls	r3, r3, #3
 2596 06d8 0433     		adds	r3, r3, #4
 2597 06da F968     		ldr	r1, [r7, #12]
 2598 06dc 0B44     		add	r3, r3, r1
 2599              		.loc 1 703 42 discriminator 3
 2600 06de 9210     		asrs	r2, r2, #2
 2601              		.loc 1 703 30 discriminator 3
 2602 06e0 1A60     		str	r2, [r3]
 704:./Libraries/CMSIS/DSP/Source/TransformFunctions/arm_cfft_radix4_q31.c **** 
 705:./Libraries/CMSIS/DSP/Source/TransformFunctions/arm_cfft_radix4_q31.c ****         /* (ya + yc) - (yb + yd) */
ARM GAS  /tmp/ccanIW00.s 			page 60


 706:./Libraries/CMSIS/DSP/Source/TransformFunctions/arm_cfft_radix4_q31.c ****         s1 = s1 - t2;
 2603              		.loc 1 706 12 discriminator 3
 2604 06e2 BA6F     		ldr	r2, [r7, #120]
 2605 06e4 3B6F     		ldr	r3, [r7, #112]
 2606 06e6 D31A     		subs	r3, r2, r3
 2607 06e8 BB67     		str	r3, [r7, #120]
 707:./Libraries/CMSIS/DSP/Source/TransformFunctions/arm_cfft_radix4_q31.c **** 
 708:./Libraries/CMSIS/DSP/Source/TransformFunctions/arm_cfft_radix4_q31.c ****         /* (yb - yd) */
 709:./Libraries/CMSIS/DSP/Source/TransformFunctions/arm_cfft_radix4_q31.c ****         t1 = pSrc[(2U * i1) + 1U] - pSrc[(2U * i3) + 1U];
 2608              		.loc 1 709 18 discriminator 3
 2609 06ea D7F89030 		ldr	r3, [r7, #144]
 2610 06ee DB00     		lsls	r3, r3, #3
 2611 06f0 0433     		adds	r3, r3, #4
 2612 06f2 FA68     		ldr	r2, [r7, #12]
 2613 06f4 1344     		add	r3, r3, r2
 2614 06f6 1A68     		ldr	r2, [r3]
 2615              		.loc 1 709 41 discriminator 3
 2616 06f8 D7F88830 		ldr	r3, [r7, #136]
 2617 06fc DB00     		lsls	r3, r3, #3
 2618 06fe 0433     		adds	r3, r3, #4
 2619 0700 F968     		ldr	r1, [r7, #12]
 2620 0702 0B44     		add	r3, r3, r1
 2621 0704 1B68     		ldr	r3, [r3]
 2622              		.loc 1 709 12 discriminator 3
 2623 0706 D31A     		subs	r3, r2, r3
 2624 0708 FB67     		str	r3, [r7, #124]
 710:./Libraries/CMSIS/DSP/Source/TransformFunctions/arm_cfft_radix4_q31.c ****         /* (xb - xd) */
 711:./Libraries/CMSIS/DSP/Source/TransformFunctions/arm_cfft_radix4_q31.c ****         t2 = pSrc[2U * i1] - pSrc[2U * i3];
 2625              		.loc 1 711 18 discriminator 3
 2626 070a D7F89030 		ldr	r3, [r7, #144]
 2627 070e DB00     		lsls	r3, r3, #3
 2628 0710 FA68     		ldr	r2, [r7, #12]
 2629 0712 1344     		add	r3, r3, r2
 2630 0714 1A68     		ldr	r2, [r3]
 2631              		.loc 1 711 34 discriminator 3
 2632 0716 D7F88830 		ldr	r3, [r7, #136]
 2633 071a DB00     		lsls	r3, r3, #3
 2634 071c F968     		ldr	r1, [r7, #12]
 2635 071e 0B44     		add	r3, r3, r1
 2636 0720 1B68     		ldr	r3, [r3]
 2637              		.loc 1 711 12 discriminator 3
 2638 0722 D31A     		subs	r3, r2, r3
 2639 0724 3B67     		str	r3, [r7, #112]
 712:./Libraries/CMSIS/DSP/Source/TransformFunctions/arm_cfft_radix4_q31.c **** 
 713:./Libraries/CMSIS/DSP/Source/TransformFunctions/arm_cfft_radix4_q31.c ****         /* xc' = (xa-xb+xc-xd)co2 - (ya-yb+yc-yd)(si2) */
 714:./Libraries/CMSIS/DSP/Source/TransformFunctions/arm_cfft_radix4_q31.c ****         pSrc[2U * i1] = (((int32_t) (((q63_t) r1 * co2) >> 32U)) -
 2640              		.loc 1 714 39 discriminator 3
 2641 0726 D7F88430 		ldr	r3, [r7, #132]
 2642 072a 1846     		mov	r0, r3
 2643 072c 4FEAE071 		asr	r1, r0, #31
 2644              		.loc 1 714 50 discriminator 3
 2645 0730 BB6E     		ldr	r3, [r7, #104]
 2646 0732 1A46     		mov	r2, r3
 2647 0734 4FEAE273 		asr	r3, r2, #31
 2648 0738 02FB01F5 		mul	r5, r2, r1
 2649 073c 00FB03F4 		mul	r4, r0, r3
 2650 0740 2C44     		add	r4, r4, r5
ARM GAS  /tmp/ccanIW00.s 			page 61


 2651 0742 A0FB0223 		umull	r2, r3, r0, r2
 2652 0746 E118     		adds	r1, r4, r3
 2653 0748 0B46     		mov	r3, r1
 2654              		.loc 1 714 57 discriminator 3
 2655 074a 4FF00000 		mov	r0, #0
 2656 074e 4FF00001 		mov	r1, #0
 2657 0752 1800     		movs	r0, r3
 2658 0754 D917     		asrs	r1, r3, #31
 2659              		.loc 1 714 27 discriminator 3
 2660 0756 0646     		mov	r6, r0
 715:./Libraries/CMSIS/DSP/Source/TransformFunctions/arm_cfft_radix4_q31.c ****                          ((int32_t) (((q63_t) s1 * si2) >> 32U))) >> 1U;
 2661              		.loc 1 715 39 discriminator 3
 2662 0758 BB6F     		ldr	r3, [r7, #120]
 2663 075a 1846     		mov	r0, r3
 2664 075c 4FEAE071 		asr	r1, r0, #31
 2665              		.loc 1 715 50 discriminator 3
 2666 0760 7B6E     		ldr	r3, [r7, #100]
 2667 0762 1A46     		mov	r2, r3
 2668 0764 4FEAE273 		asr	r3, r2, #31
 2669 0768 02FB01F5 		mul	r5, r2, r1
 2670 076c 00FB03F4 		mul	r4, r0, r3
 2671 0770 2C44     		add	r4, r4, r5
 2672 0772 A0FB0223 		umull	r2, r3, r0, r2
 2673 0776 E118     		adds	r1, r4, r3
 2674 0778 0B46     		mov	r3, r1
 2675              		.loc 1 715 57 discriminator 3
 2676 077a 4FF00000 		mov	r0, #0
 2677 077e 4FF00001 		mov	r1, #0
 2678 0782 1800     		movs	r0, r3
 2679 0784 D917     		asrs	r1, r3, #31
 2680              		.loc 1 715 27 discriminator 3
 2681 0786 0346     		mov	r3, r0
 714:./Libraries/CMSIS/DSP/Source/TransformFunctions/arm_cfft_radix4_q31.c ****                          ((int32_t) (((q63_t) s1 * si2) >> 32U))) >> 1U;
 2682              		.loc 1 714 66 discriminator 3
 2683 0788 F21A     		subs	r2, r6, r3
 714:./Libraries/CMSIS/DSP/Source/TransformFunctions/arm_cfft_radix4_q31.c ****                          ((int32_t) (((q63_t) s1 * si2) >> 32U))) >> 1U;
 2684              		.loc 1 714 13 discriminator 3
 2685 078a D7F89030 		ldr	r3, [r7, #144]
 2686 078e DB00     		lsls	r3, r3, #3
 2687 0790 F968     		ldr	r1, [r7, #12]
 2688 0792 0B44     		add	r3, r3, r1
 2689              		.loc 1 715 67 discriminator 3
 2690 0794 5210     		asrs	r2, r2, #1
 714:./Libraries/CMSIS/DSP/Source/TransformFunctions/arm_cfft_radix4_q31.c ****                          ((int32_t) (((q63_t) s1 * si2) >> 32U))) >> 1U;
 2691              		.loc 1 714 23 discriminator 3
 2692 0796 1A60     		str	r2, [r3]
 716:./Libraries/CMSIS/DSP/Source/TransformFunctions/arm_cfft_radix4_q31.c **** 
 717:./Libraries/CMSIS/DSP/Source/TransformFunctions/arm_cfft_radix4_q31.c ****         /* yc' = (ya-yb+yc-yd)co2 + (xa-xb+xc-xd)(si2) */
 718:./Libraries/CMSIS/DSP/Source/TransformFunctions/arm_cfft_radix4_q31.c ****         pSrc[(2U * i1) + 1U] = (((int32_t) (((q63_t) s1 * co2) >> 32U)) +
 2693              		.loc 1 718 46 discriminator 3
 2694 0798 BB6F     		ldr	r3, [r7, #120]
 2695 079a 1846     		mov	r0, r3
 2696 079c 4FEAE071 		asr	r1, r0, #31
 2697              		.loc 1 718 57 discriminator 3
 2698 07a0 BB6E     		ldr	r3, [r7, #104]
 2699 07a2 1A46     		mov	r2, r3
 2700 07a4 4FEAE273 		asr	r3, r2, #31
ARM GAS  /tmp/ccanIW00.s 			page 62


 2701 07a8 02FB01F5 		mul	r5, r2, r1
 2702 07ac 00FB03F4 		mul	r4, r0, r3
 2703 07b0 2C44     		add	r4, r4, r5
 2704 07b2 A0FB0223 		umull	r2, r3, r0, r2
 2705 07b6 E118     		adds	r1, r4, r3
 2706 07b8 0B46     		mov	r3, r1
 2707              		.loc 1 718 64 discriminator 3
 2708 07ba 4FF00000 		mov	r0, #0
 2709 07be 4FF00001 		mov	r1, #0
 2710 07c2 1800     		movs	r0, r3
 2711 07c4 D917     		asrs	r1, r3, #31
 2712              		.loc 1 718 34 discriminator 3
 2713 07c6 0646     		mov	r6, r0
 719:./Libraries/CMSIS/DSP/Source/TransformFunctions/arm_cfft_radix4_q31.c ****                                 ((int32_t) (((q63_t) r1 * si2) >> 32U))) >> 1U;
 2714              		.loc 1 719 46 discriminator 3
 2715 07c8 D7F88430 		ldr	r3, [r7, #132]
 2716 07cc 1846     		mov	r0, r3
 2717 07ce 4FEAE071 		asr	r1, r0, #31
 2718              		.loc 1 719 57 discriminator 3
 2719 07d2 7B6E     		ldr	r3, [r7, #100]
 2720 07d4 1A46     		mov	r2, r3
 2721 07d6 4FEAE273 		asr	r3, r2, #31
 2722 07da 02FB01F5 		mul	r5, r2, r1
 2723 07de 00FB03F4 		mul	r4, r0, r3
 2724 07e2 2C44     		add	r4, r4, r5
 2725 07e4 A0FB0223 		umull	r2, r3, r0, r2
 2726 07e8 E118     		adds	r1, r4, r3
 2727 07ea 0B46     		mov	r3, r1
 2728              		.loc 1 719 64 discriminator 3
 2729 07ec 4FF00000 		mov	r0, #0
 2730 07f0 4FF00001 		mov	r1, #0
 2731 07f4 1800     		movs	r0, r3
 2732 07f6 D917     		asrs	r1, r3, #31
 2733              		.loc 1 719 34 discriminator 3
 2734 07f8 0346     		mov	r3, r0
 718:./Libraries/CMSIS/DSP/Source/TransformFunctions/arm_cfft_radix4_q31.c ****                                 ((int32_t) (((q63_t) r1 * si2) >> 32U))) >> 1U;
 2735              		.loc 1 718 73 discriminator 3
 2736 07fa F218     		adds	r2, r6, r3
 718:./Libraries/CMSIS/DSP/Source/TransformFunctions/arm_cfft_radix4_q31.c ****                                 ((int32_t) (((q63_t) r1 * si2) >> 32U))) >> 1U;
 2737              		.loc 1 718 13 discriminator 3
 2738 07fc D7F89030 		ldr	r3, [r7, #144]
 2739 0800 DB00     		lsls	r3, r3, #3
 2740 0802 0433     		adds	r3, r3, #4
 2741 0804 F968     		ldr	r1, [r7, #12]
 2742 0806 0B44     		add	r3, r3, r1
 2743              		.loc 1 719 74 discriminator 3
 2744 0808 5210     		asrs	r2, r2, #1
 718:./Libraries/CMSIS/DSP/Source/TransformFunctions/arm_cfft_radix4_q31.c ****                                 ((int32_t) (((q63_t) r1 * si2) >> 32U))) >> 1U;
 2745              		.loc 1 718 30 discriminator 3
 2746 080a 1A60     		str	r2, [r3]
 720:./Libraries/CMSIS/DSP/Source/TransformFunctions/arm_cfft_radix4_q31.c **** 
 721:./Libraries/CMSIS/DSP/Source/TransformFunctions/arm_cfft_radix4_q31.c ****         /* (xa - xc) - (yb - yd) */
 722:./Libraries/CMSIS/DSP/Source/TransformFunctions/arm_cfft_radix4_q31.c ****         r1 = r2 - t1;
 2747              		.loc 1 722 12 discriminator 3
 2748 080c D7F88020 		ldr	r2, [r7, #128]
 2749 0810 FB6F     		ldr	r3, [r7, #124]
 2750 0812 D31A     		subs	r3, r2, r3
ARM GAS  /tmp/ccanIW00.s 			page 63


 2751 0814 C7F88430 		str	r3, [r7, #132]
 723:./Libraries/CMSIS/DSP/Source/TransformFunctions/arm_cfft_radix4_q31.c ****         /* (xa - xc) + (yb - yd) */
 724:./Libraries/CMSIS/DSP/Source/TransformFunctions/arm_cfft_radix4_q31.c ****         r2 = r2 + t1;
 2752              		.loc 1 724 12 discriminator 3
 2753 0818 D7F88020 		ldr	r2, [r7, #128]
 2754 081c FB6F     		ldr	r3, [r7, #124]
 2755 081e 1344     		add	r3, r3, r2
 2756 0820 C7F88030 		str	r3, [r7, #128]
 725:./Libraries/CMSIS/DSP/Source/TransformFunctions/arm_cfft_radix4_q31.c **** 
 726:./Libraries/CMSIS/DSP/Source/TransformFunctions/arm_cfft_radix4_q31.c ****         /* (ya - yc) +  (xb - xd) */
 727:./Libraries/CMSIS/DSP/Source/TransformFunctions/arm_cfft_radix4_q31.c ****         s1 = s2 + t2;
 2757              		.loc 1 727 12 discriminator 3
 2758 0824 7A6F     		ldr	r2, [r7, #116]
 2759 0826 3B6F     		ldr	r3, [r7, #112]
 2760 0828 1344     		add	r3, r3, r2
 2761 082a BB67     		str	r3, [r7, #120]
 728:./Libraries/CMSIS/DSP/Source/TransformFunctions/arm_cfft_radix4_q31.c ****         /* (ya - yc) -  (xb - xd) */
 729:./Libraries/CMSIS/DSP/Source/TransformFunctions/arm_cfft_radix4_q31.c ****         s2 = s2 - t2;
 2762              		.loc 1 729 12 discriminator 3
 2763 082c 7A6F     		ldr	r2, [r7, #116]
 2764 082e 3B6F     		ldr	r3, [r7, #112]
 2765 0830 D31A     		subs	r3, r2, r3
 2766 0832 7B67     		str	r3, [r7, #116]
 730:./Libraries/CMSIS/DSP/Source/TransformFunctions/arm_cfft_radix4_q31.c **** 
 731:./Libraries/CMSIS/DSP/Source/TransformFunctions/arm_cfft_radix4_q31.c ****         /* xb' = (xa+yb-xc-yd)co1 - (ya-xb-yc+xd)(si1) */
 732:./Libraries/CMSIS/DSP/Source/TransformFunctions/arm_cfft_radix4_q31.c ****         pSrc[2U * i2] = (((int32_t) (((q63_t) r1 * co1) >> 32)) -
 2767              		.loc 1 732 39 discriminator 3
 2768 0834 D7F88430 		ldr	r3, [r7, #132]
 2769 0838 1846     		mov	r0, r3
 2770 083a 4FEAE071 		asr	r1, r0, #31
 2771              		.loc 1 732 50 discriminator 3
 2772 083e 3B6E     		ldr	r3, [r7, #96]
 2773 0840 1A46     		mov	r2, r3
 2774 0842 4FEAE273 		asr	r3, r2, #31
 2775 0846 02FB01F5 		mul	r5, r2, r1
 2776 084a 00FB03F4 		mul	r4, r0, r3
 2777 084e 2C44     		add	r4, r4, r5
 2778 0850 A0FB0223 		umull	r2, r3, r0, r2
 2779 0854 E118     		adds	r1, r4, r3
 2780 0856 0B46     		mov	r3, r1
 2781              		.loc 1 732 57 discriminator 3
 2782 0858 4FF00000 		mov	r0, #0
 2783 085c 4FF00001 		mov	r1, #0
 2784 0860 1800     		movs	r0, r3
 2785 0862 D917     		asrs	r1, r3, #31
 2786              		.loc 1 732 27 discriminator 3
 2787 0864 0646     		mov	r6, r0
 733:./Libraries/CMSIS/DSP/Source/TransformFunctions/arm_cfft_radix4_q31.c ****                          ((int32_t) (((q63_t) s1 * si1) >> 32))) >> 1U;
 2788              		.loc 1 733 39 discriminator 3
 2789 0866 BB6F     		ldr	r3, [r7, #120]
 2790 0868 1846     		mov	r0, r3
 2791 086a 4FEAE071 		asr	r1, r0, #31
 2792              		.loc 1 733 50 discriminator 3
 2793 086e FB6D     		ldr	r3, [r7, #92]
 2794 0870 1A46     		mov	r2, r3
 2795 0872 4FEAE273 		asr	r3, r2, #31
 2796 0876 02FB01F5 		mul	r5, r2, r1
ARM GAS  /tmp/ccanIW00.s 			page 64


 2797 087a 00FB03F4 		mul	r4, r0, r3
 2798 087e 2C44     		add	r4, r4, r5
 2799 0880 A0FB0223 		umull	r2, r3, r0, r2
 2800 0884 E118     		adds	r1, r4, r3
 2801 0886 0B46     		mov	r3, r1
 2802              		.loc 1 733 57 discriminator 3
 2803 0888 4FF00000 		mov	r0, #0
 2804 088c 4FF00001 		mov	r1, #0
 2805 0890 1800     		movs	r0, r3
 2806 0892 D917     		asrs	r1, r3, #31
 2807              		.loc 1 733 27 discriminator 3
 2808 0894 0346     		mov	r3, r0
 732:./Libraries/CMSIS/DSP/Source/TransformFunctions/arm_cfft_radix4_q31.c ****                          ((int32_t) (((q63_t) s1 * si1) >> 32))) >> 1U;
 2809              		.loc 1 732 65 discriminator 3
 2810 0896 F21A     		subs	r2, r6, r3
 732:./Libraries/CMSIS/DSP/Source/TransformFunctions/arm_cfft_radix4_q31.c ****                          ((int32_t) (((q63_t) s1 * si1) >> 32))) >> 1U;
 2811              		.loc 1 732 13 discriminator 3
 2812 0898 D7F88C30 		ldr	r3, [r7, #140]
 2813 089c DB00     		lsls	r3, r3, #3
 2814 089e F968     		ldr	r1, [r7, #12]
 2815 08a0 0B44     		add	r3, r3, r1
 2816              		.loc 1 733 66 discriminator 3
 2817 08a2 5210     		asrs	r2, r2, #1
 732:./Libraries/CMSIS/DSP/Source/TransformFunctions/arm_cfft_radix4_q31.c ****                          ((int32_t) (((q63_t) s1 * si1) >> 32))) >> 1U;
 2818              		.loc 1 732 23 discriminator 3
 2819 08a4 1A60     		str	r2, [r3]
 734:./Libraries/CMSIS/DSP/Source/TransformFunctions/arm_cfft_radix4_q31.c **** 
 735:./Libraries/CMSIS/DSP/Source/TransformFunctions/arm_cfft_radix4_q31.c ****         /* yb' = (ya-xb-yc+xd)co1 + (xa+yb-xc-yd)(si1) */
 736:./Libraries/CMSIS/DSP/Source/TransformFunctions/arm_cfft_radix4_q31.c ****         pSrc[(2U * i2) + 1U] = (((int32_t) (((q63_t) s1 * co1) >> 32)) +
 2820              		.loc 1 736 46 discriminator 3
 2821 08a6 BB6F     		ldr	r3, [r7, #120]
 2822 08a8 1846     		mov	r0, r3
 2823 08aa 4FEAE071 		asr	r1, r0, #31
 2824              		.loc 1 736 57 discriminator 3
 2825 08ae 3B6E     		ldr	r3, [r7, #96]
 2826 08b0 1A46     		mov	r2, r3
 2827 08b2 4FEAE273 		asr	r3, r2, #31
 2828 08b6 02FB01F5 		mul	r5, r2, r1
 2829 08ba 00FB03F4 		mul	r4, r0, r3
 2830 08be 2C44     		add	r4, r4, r5
 2831 08c0 A0FB0223 		umull	r2, r3, r0, r2
 2832 08c4 E118     		adds	r1, r4, r3
 2833 08c6 0B46     		mov	r3, r1
 2834              		.loc 1 736 64 discriminator 3
 2835 08c8 4FF00000 		mov	r0, #0
 2836 08cc 4FF00001 		mov	r1, #0
 2837 08d0 1800     		movs	r0, r3
 2838 08d2 D917     		asrs	r1, r3, #31
 2839              		.loc 1 736 34 discriminator 3
 2840 08d4 0646     		mov	r6, r0
 737:./Libraries/CMSIS/DSP/Source/TransformFunctions/arm_cfft_radix4_q31.c ****                                 ((int32_t) (((q63_t) r1 * si1) >> 32))) >> 1U;
 2841              		.loc 1 737 46 discriminator 3
 2842 08d6 D7F88430 		ldr	r3, [r7, #132]
 2843 08da 1846     		mov	r0, r3
 2844 08dc 4FEAE071 		asr	r1, r0, #31
 2845              		.loc 1 737 57 discriminator 3
 2846 08e0 FB6D     		ldr	r3, [r7, #92]
ARM GAS  /tmp/ccanIW00.s 			page 65


 2847 08e2 1A46     		mov	r2, r3
 2848 08e4 4FEAE273 		asr	r3, r2, #31
 2849 08e8 02FB01F5 		mul	r5, r2, r1
 2850 08ec 00FB03F4 		mul	r4, r0, r3
 2851 08f0 2C44     		add	r4, r4, r5
 2852 08f2 A0FB0223 		umull	r2, r3, r0, r2
 2853 08f6 E118     		adds	r1, r4, r3
 2854 08f8 0B46     		mov	r3, r1
 2855              		.loc 1 737 64 discriminator 3
 2856 08fa 4FF00000 		mov	r0, #0
 2857 08fe 4FF00001 		mov	r1, #0
 2858 0902 1800     		movs	r0, r3
 2859 0904 D917     		asrs	r1, r3, #31
 2860              		.loc 1 737 34 discriminator 3
 2861 0906 0346     		mov	r3, r0
 736:./Libraries/CMSIS/DSP/Source/TransformFunctions/arm_cfft_radix4_q31.c ****                                 ((int32_t) (((q63_t) r1 * si1) >> 32))) >> 1U;
 2862              		.loc 1 736 72 discriminator 3
 2863 0908 F218     		adds	r2, r6, r3
 736:./Libraries/CMSIS/DSP/Source/TransformFunctions/arm_cfft_radix4_q31.c ****                                 ((int32_t) (((q63_t) r1 * si1) >> 32))) >> 1U;
 2864              		.loc 1 736 13 discriminator 3
 2865 090a D7F88C30 		ldr	r3, [r7, #140]
 2866 090e DB00     		lsls	r3, r3, #3
 2867 0910 0433     		adds	r3, r3, #4
 2868 0912 F968     		ldr	r1, [r7, #12]
 2869 0914 0B44     		add	r3, r3, r1
 2870              		.loc 1 737 73 discriminator 3
 2871 0916 5210     		asrs	r2, r2, #1
 736:./Libraries/CMSIS/DSP/Source/TransformFunctions/arm_cfft_radix4_q31.c ****                                 ((int32_t) (((q63_t) r1 * si1) >> 32))) >> 1U;
 2872              		.loc 1 736 30 discriminator 3
 2873 0918 1A60     		str	r2, [r3]
 738:./Libraries/CMSIS/DSP/Source/TransformFunctions/arm_cfft_radix4_q31.c **** 
 739:./Libraries/CMSIS/DSP/Source/TransformFunctions/arm_cfft_radix4_q31.c ****         /* xd' = (xa-yb-xc+yd)co3 - (ya+xb-yc-xd)(si3) */
 740:./Libraries/CMSIS/DSP/Source/TransformFunctions/arm_cfft_radix4_q31.c ****         pSrc[(2U * i3)] = (((int32_t) (((q63_t) r2 * co3) >> 32)) -
 2874              		.loc 1 740 41 discriminator 3
 2875 091a D7F88030 		ldr	r3, [r7, #128]
 2876 091e 1846     		mov	r0, r3
 2877 0920 4FEAE071 		asr	r1, r0, #31
 2878              		.loc 1 740 52 discriminator 3
 2879 0924 7B6D     		ldr	r3, [r7, #84]
 2880 0926 1A46     		mov	r2, r3
 2881 0928 4FEAE273 		asr	r3, r2, #31
 2882 092c 02FB01F5 		mul	r5, r2, r1
 2883 0930 00FB03F4 		mul	r4, r0, r3
 2884 0934 2C44     		add	r4, r4, r5
 2885 0936 A0FB0223 		umull	r2, r3, r0, r2
 2886 093a E118     		adds	r1, r4, r3
 2887 093c 0B46     		mov	r3, r1
 2888              		.loc 1 740 59 discriminator 3
 2889 093e 4FF00000 		mov	r0, #0
 2890 0942 4FF00001 		mov	r1, #0
 2891 0946 1800     		movs	r0, r3
 2892 0948 D917     		asrs	r1, r3, #31
 2893              		.loc 1 740 29 discriminator 3
 2894 094a 0646     		mov	r6, r0
 741:./Libraries/CMSIS/DSP/Source/TransformFunctions/arm_cfft_radix4_q31.c ****                            ((int32_t) (((q63_t) s2 * si3) >> 32))) >> 1U;
 2895              		.loc 1 741 41 discriminator 3
 2896 094c 7B6F     		ldr	r3, [r7, #116]
ARM GAS  /tmp/ccanIW00.s 			page 66


 2897 094e 1846     		mov	r0, r3
 2898 0950 4FEAE071 		asr	r1, r0, #31
 2899              		.loc 1 741 52 discriminator 3
 2900 0954 3B6D     		ldr	r3, [r7, #80]
 2901 0956 1A46     		mov	r2, r3
 2902 0958 4FEAE273 		asr	r3, r2, #31
 2903 095c 02FB01F5 		mul	r5, r2, r1
 2904 0960 00FB03F4 		mul	r4, r0, r3
 2905 0964 2C44     		add	r4, r4, r5
 2906 0966 A0FB0223 		umull	r2, r3, r0, r2
 2907 096a E118     		adds	r1, r4, r3
 2908 096c 0B46     		mov	r3, r1
 2909              		.loc 1 741 59 discriminator 3
 2910 096e 4FF00000 		mov	r0, #0
 2911 0972 4FF00001 		mov	r1, #0
 2912 0976 1800     		movs	r0, r3
 2913 0978 D917     		asrs	r1, r3, #31
 2914              		.loc 1 741 29 discriminator 3
 2915 097a 0346     		mov	r3, r0
 740:./Libraries/CMSIS/DSP/Source/TransformFunctions/arm_cfft_radix4_q31.c ****                            ((int32_t) (((q63_t) s2 * si3) >> 32))) >> 1U;
 2916              		.loc 1 740 67 discriminator 3
 2917 097c F21A     		subs	r2, r6, r3
 740:./Libraries/CMSIS/DSP/Source/TransformFunctions/arm_cfft_radix4_q31.c ****                            ((int32_t) (((q63_t) s2 * si3) >> 32))) >> 1U;
 2918              		.loc 1 740 13 discriminator 3
 2919 097e D7F88830 		ldr	r3, [r7, #136]
 2920 0982 DB00     		lsls	r3, r3, #3
 2921 0984 F968     		ldr	r1, [r7, #12]
 2922 0986 0B44     		add	r3, r3, r1
 2923              		.loc 1 741 68 discriminator 3
 2924 0988 5210     		asrs	r2, r2, #1
 740:./Libraries/CMSIS/DSP/Source/TransformFunctions/arm_cfft_radix4_q31.c ****                            ((int32_t) (((q63_t) s2 * si3) >> 32))) >> 1U;
 2925              		.loc 1 740 25 discriminator 3
 2926 098a 1A60     		str	r2, [r3]
 742:./Libraries/CMSIS/DSP/Source/TransformFunctions/arm_cfft_radix4_q31.c **** 
 743:./Libraries/CMSIS/DSP/Source/TransformFunctions/arm_cfft_radix4_q31.c ****         /* yd' = (ya+xb-yc-xd)co3 + (xa-yb-xc+yd)(si3) */
 744:./Libraries/CMSIS/DSP/Source/TransformFunctions/arm_cfft_radix4_q31.c ****         pSrc[(2U * i3) + 1U] = (((int32_t) (((q63_t) s2 * co3) >> 32)) +
 2927              		.loc 1 744 46 discriminator 3
 2928 098c 7B6F     		ldr	r3, [r7, #116]
 2929 098e 1846     		mov	r0, r3
 2930 0990 4FEAE071 		asr	r1, r0, #31
 2931              		.loc 1 744 57 discriminator 3
 2932 0994 7B6D     		ldr	r3, [r7, #84]
 2933 0996 1A46     		mov	r2, r3
 2934 0998 4FEAE273 		asr	r3, r2, #31
 2935 099c 02FB01F5 		mul	r5, r2, r1
 2936 09a0 00FB03F4 		mul	r4, r0, r3
 2937 09a4 2C44     		add	r4, r4, r5
 2938 09a6 A0FB0223 		umull	r2, r3, r0, r2
 2939 09aa E118     		adds	r1, r4, r3
 2940 09ac 0B46     		mov	r3, r1
 2941              		.loc 1 744 64 discriminator 3
 2942 09ae 4FF00000 		mov	r0, #0
 2943 09b2 4FF00001 		mov	r1, #0
 2944 09b6 1800     		movs	r0, r3
 2945 09b8 D917     		asrs	r1, r3, #31
 2946              		.loc 1 744 34 discriminator 3
 2947 09ba 0646     		mov	r6, r0
ARM GAS  /tmp/ccanIW00.s 			page 67


 745:./Libraries/CMSIS/DSP/Source/TransformFunctions/arm_cfft_radix4_q31.c ****                                 ((int32_t) (((q63_t) r2 * si3) >> 32))) >> 1U;
 2948              		.loc 1 745 46 discriminator 3
 2949 09bc D7F88030 		ldr	r3, [r7, #128]
 2950 09c0 1846     		mov	r0, r3
 2951 09c2 4FEAE071 		asr	r1, r0, #31
 2952              		.loc 1 745 57 discriminator 3
 2953 09c6 3B6D     		ldr	r3, [r7, #80]
 2954 09c8 1A46     		mov	r2, r3
 2955 09ca 4FEAE273 		asr	r3, r2, #31
 2956 09ce 02FB01F5 		mul	r5, r2, r1
 2957 09d2 00FB03F4 		mul	r4, r0, r3
 2958 09d6 2C44     		add	r4, r4, r5
 2959 09d8 A0FB0223 		umull	r2, r3, r0, r2
 2960 09dc E118     		adds	r1, r4, r3
 2961 09de 0B46     		mov	r3, r1
 2962              		.loc 1 745 64 discriminator 3
 2963 09e0 4FF00000 		mov	r0, #0
 2964 09e4 4FF00001 		mov	r1, #0
 2965 09e8 1800     		movs	r0, r3
 2966 09ea D917     		asrs	r1, r3, #31
 2967              		.loc 1 745 34 discriminator 3
 2968 09ec 0346     		mov	r3, r0
 744:./Libraries/CMSIS/DSP/Source/TransformFunctions/arm_cfft_radix4_q31.c ****                                 ((int32_t) (((q63_t) r2 * si3) >> 32))) >> 1U;
 2969              		.loc 1 744 72 discriminator 3
 2970 09ee F218     		adds	r2, r6, r3
 744:./Libraries/CMSIS/DSP/Source/TransformFunctions/arm_cfft_radix4_q31.c ****                                 ((int32_t) (((q63_t) r2 * si3) >> 32))) >> 1U;
 2971              		.loc 1 744 13 discriminator 3
 2972 09f0 D7F88830 		ldr	r3, [r7, #136]
 2973 09f4 DB00     		lsls	r3, r3, #3
 2974 09f6 0433     		adds	r3, r3, #4
 2975 09f8 F968     		ldr	r1, [r7, #12]
 2976 09fa 0B44     		add	r3, r3, r1
 2977              		.loc 1 745 73 discriminator 3
 2978 09fc 5210     		asrs	r2, r2, #1
 744:./Libraries/CMSIS/DSP/Source/TransformFunctions/arm_cfft_radix4_q31.c ****                                 ((int32_t) (((q63_t) r2 * si3) >> 32))) >> 1U;
 2979              		.loc 1 744 30 discriminator 3
 2980 09fe 1A60     		str	r2, [r3]
 674:./Libraries/CMSIS/DSP/Source/TransformFunctions/arm_cfft_radix4_q31.c ****       {
 2981              		.loc 1 674 36 discriminator 3
 2982 0a00 D7F8A420 		ldr	r2, [r7, #164]
 2983 0a04 D7F89430 		ldr	r3, [r7, #148]
 2984 0a08 1344     		add	r3, r3, r2
 2985 0a0a C7F8A430 		str	r3, [r7, #164]
 2986              	.L19:
 674:./Libraries/CMSIS/DSP/Source/TransformFunctions/arm_cfft_radix4_q31.c ****       {
 2987              		.loc 1 674 7 discriminator 1
 2988 0a0e D7F8A420 		ldr	r2, [r7, #164]
 2989 0a12 BB68     		ldr	r3, [r7, #8]
 2990 0a14 9A42     		cmp	r2, r3
 2991 0a16 FFF4D7AD 		bcc	.L20
 660:./Libraries/CMSIS/DSP/Source/TransformFunctions/arm_cfft_radix4_q31.c ****     {
 2992              		.loc 1 660 34 discriminator 2
 2993 0a1a D7F8A030 		ldr	r3, [r7, #160]
 2994 0a1e 0133     		adds	r3, r3, #1
 2995 0a20 C7F8A030 		str	r3, [r7, #160]
 2996              	.L18:
 660:./Libraries/CMSIS/DSP/Source/TransformFunctions/arm_cfft_radix4_q31.c ****     {
ARM GAS  /tmp/ccanIW00.s 			page 68


 2997              		.loc 1 660 26 discriminator 1
 2998 0a24 D7F8AC30 		ldr	r3, [r7, #172]
 2999 0a28 013B     		subs	r3, r3, #1
 660:./Libraries/CMSIS/DSP/Source/TransformFunctions/arm_cfft_radix4_q31.c ****     {
 3000              		.loc 1 660 5 discriminator 1
 3001 0a2a D7F8A020 		ldr	r2, [r7, #160]
 3002 0a2e 9A42     		cmp	r2, r3
 3003 0a30 7FF68DAD 		bls	.L21
 746:./Libraries/CMSIS/DSP/Source/TransformFunctions/arm_cfft_radix4_q31.c ****       }
 747:./Libraries/CMSIS/DSP/Source/TransformFunctions/arm_cfft_radix4_q31.c ****     }
 748:./Libraries/CMSIS/DSP/Source/TransformFunctions/arm_cfft_radix4_q31.c ****     twidCoefModifier <<= 2U;
 3004              		.loc 1 748 22 discriminator 2
 3005 0a34 3B68     		ldr	r3, [r7]
 3006 0a36 9B00     		lsls	r3, r3, #2
 3007 0a38 3B60     		str	r3, [r7]
 653:./Libraries/CMSIS/DSP/Source/TransformFunctions/arm_cfft_radix4_q31.c ****   {
 3008              		.loc 1 653 35 discriminator 2
 3009 0a3a D7F89C30 		ldr	r3, [r7, #156]
 3010 0a3e 9B08     		lsrs	r3, r3, #2
 3011 0a40 C7F89C30 		str	r3, [r7, #156]
 3012              	.L17:
 653:./Libraries/CMSIS/DSP/Source/TransformFunctions/arm_cfft_radix4_q31.c ****   {
 3013              		.loc 1 653 3 discriminator 1
 3014 0a44 D7F89C30 		ldr	r3, [r7, #156]
 3015 0a48 042B     		cmp	r3, #4
 3016 0a4a 3FF670AD 		bhi	.L22
 749:./Libraries/CMSIS/DSP/Source/TransformFunctions/arm_cfft_radix4_q31.c ****   }
 750:./Libraries/CMSIS/DSP/Source/TransformFunctions/arm_cfft_radix4_q31.c **** 
 751:./Libraries/CMSIS/DSP/Source/TransformFunctions/arm_cfft_radix4_q31.c ****   /* End of Middle stages process */
 752:./Libraries/CMSIS/DSP/Source/TransformFunctions/arm_cfft_radix4_q31.c **** 
 753:./Libraries/CMSIS/DSP/Source/TransformFunctions/arm_cfft_radix4_q31.c ****   /* data is in 11.21(q21) format for the 1024 point as there are 3 middle stages */
 754:./Libraries/CMSIS/DSP/Source/TransformFunctions/arm_cfft_radix4_q31.c ****   /* data is in 9.23(q23) format for the 256 point as there are 2 middle stages */
 755:./Libraries/CMSIS/DSP/Source/TransformFunctions/arm_cfft_radix4_q31.c ****   /* data is in 7.25(q25) format for the 64 point as there are 1 middle stage */
 756:./Libraries/CMSIS/DSP/Source/TransformFunctions/arm_cfft_radix4_q31.c ****   /* data is in 5.27(q27) format for the 16 point as there are no middle stages */
 757:./Libraries/CMSIS/DSP/Source/TransformFunctions/arm_cfft_radix4_q31.c **** 
 758:./Libraries/CMSIS/DSP/Source/TransformFunctions/arm_cfft_radix4_q31.c **** 
 759:./Libraries/CMSIS/DSP/Source/TransformFunctions/arm_cfft_radix4_q31.c ****   /* Start of last stage process */
 760:./Libraries/CMSIS/DSP/Source/TransformFunctions/arm_cfft_radix4_q31.c **** 
 761:./Libraries/CMSIS/DSP/Source/TransformFunctions/arm_cfft_radix4_q31.c **** 
 762:./Libraries/CMSIS/DSP/Source/TransformFunctions/arm_cfft_radix4_q31.c ****   /*  Initializations for the last stage */
 763:./Libraries/CMSIS/DSP/Source/TransformFunctions/arm_cfft_radix4_q31.c ****   j = fftLen >> 2;
 3017              		.loc 1 763 5
 3018 0a4e BB68     		ldr	r3, [r7, #8]
 3019 0a50 9B08     		lsrs	r3, r3, #2
 3020 0a52 C7F8A030 		str	r3, [r7, #160]
 764:./Libraries/CMSIS/DSP/Source/TransformFunctions/arm_cfft_radix4_q31.c ****   ptr1 = &pSrc[0];
 3021              		.loc 1 764 8
 3022 0a56 FB68     		ldr	r3, [r7, #12]
 3023 0a58 C7F89830 		str	r3, [r7, #152]
 3024              	.L23:
 765:./Libraries/CMSIS/DSP/Source/TransformFunctions/arm_cfft_radix4_q31.c **** 
 766:./Libraries/CMSIS/DSP/Source/TransformFunctions/arm_cfft_radix4_q31.c ****   /*  Calculations of last stage */
 767:./Libraries/CMSIS/DSP/Source/TransformFunctions/arm_cfft_radix4_q31.c ****   do
 768:./Libraries/CMSIS/DSP/Source/TransformFunctions/arm_cfft_radix4_q31.c ****   {
 769:./Libraries/CMSIS/DSP/Source/TransformFunctions/arm_cfft_radix4_q31.c ****     /* Read xa (real), ya(imag) input */
 770:./Libraries/CMSIS/DSP/Source/TransformFunctions/arm_cfft_radix4_q31.c ****     xa = *ptr1++;
 3025              		.loc 1 770 15 discriminator 1
ARM GAS  /tmp/ccanIW00.s 			page 69


 3026 0a5c D7F89830 		ldr	r3, [r7, #152]
 3027 0a60 1A1D     		adds	r2, r3, #4
 3028 0a62 C7F89820 		str	r2, [r7, #152]
 3029              		.loc 1 770 8 discriminator 1
 3030 0a66 1B68     		ldr	r3, [r3]
 3031 0a68 FB64     		str	r3, [r7, #76]
 771:./Libraries/CMSIS/DSP/Source/TransformFunctions/arm_cfft_radix4_q31.c ****     ya = *ptr1++;
 3032              		.loc 1 771 15 discriminator 1
 3033 0a6a D7F89830 		ldr	r3, [r7, #152]
 3034 0a6e 1A1D     		adds	r2, r3, #4
 3035 0a70 C7F89820 		str	r2, [r7, #152]
 3036              		.loc 1 771 8 discriminator 1
 3037 0a74 1B68     		ldr	r3, [r3]
 3038 0a76 BB64     		str	r3, [r7, #72]
 772:./Libraries/CMSIS/DSP/Source/TransformFunctions/arm_cfft_radix4_q31.c **** 
 773:./Libraries/CMSIS/DSP/Source/TransformFunctions/arm_cfft_radix4_q31.c ****     /* Read xb (real), yb(imag) input */
 774:./Libraries/CMSIS/DSP/Source/TransformFunctions/arm_cfft_radix4_q31.c ****     xb = *ptr1++;
 3039              		.loc 1 774 15 discriminator 1
 3040 0a78 D7F89830 		ldr	r3, [r7, #152]
 3041 0a7c 1A1D     		adds	r2, r3, #4
 3042 0a7e C7F89820 		str	r2, [r7, #152]
 3043              		.loc 1 774 8 discriminator 1
 3044 0a82 1B68     		ldr	r3, [r3]
 3045 0a84 7B64     		str	r3, [r7, #68]
 775:./Libraries/CMSIS/DSP/Source/TransformFunctions/arm_cfft_radix4_q31.c ****     yb = *ptr1++;
 3046              		.loc 1 775 15 discriminator 1
 3047 0a86 D7F89830 		ldr	r3, [r7, #152]
 3048 0a8a 1A1D     		adds	r2, r3, #4
 3049 0a8c C7F89820 		str	r2, [r7, #152]
 3050              		.loc 1 775 8 discriminator 1
 3051 0a90 1B68     		ldr	r3, [r3]
 3052 0a92 3B64     		str	r3, [r7, #64]
 776:./Libraries/CMSIS/DSP/Source/TransformFunctions/arm_cfft_radix4_q31.c **** 
 777:./Libraries/CMSIS/DSP/Source/TransformFunctions/arm_cfft_radix4_q31.c ****     /* Read xc (real), yc(imag) input */
 778:./Libraries/CMSIS/DSP/Source/TransformFunctions/arm_cfft_radix4_q31.c ****     xc = *ptr1++;
 3053              		.loc 1 778 15 discriminator 1
 3054 0a94 D7F89830 		ldr	r3, [r7, #152]
 3055 0a98 1A1D     		adds	r2, r3, #4
 3056 0a9a C7F89820 		str	r2, [r7, #152]
 3057              		.loc 1 778 8 discriminator 1
 3058 0a9e 1B68     		ldr	r3, [r3]
 3059 0aa0 FB63     		str	r3, [r7, #60]
 779:./Libraries/CMSIS/DSP/Source/TransformFunctions/arm_cfft_radix4_q31.c ****     yc = *ptr1++;
 3060              		.loc 1 779 15 discriminator 1
 3061 0aa2 D7F89830 		ldr	r3, [r7, #152]
 3062 0aa6 1A1D     		adds	r2, r3, #4
 3063 0aa8 C7F89820 		str	r2, [r7, #152]
 3064              		.loc 1 779 8 discriminator 1
 3065 0aac 1B68     		ldr	r3, [r3]
 3066 0aae BB63     		str	r3, [r7, #56]
 780:./Libraries/CMSIS/DSP/Source/TransformFunctions/arm_cfft_radix4_q31.c **** 
 781:./Libraries/CMSIS/DSP/Source/TransformFunctions/arm_cfft_radix4_q31.c ****     /* Read xc (real), yc(imag) input */
 782:./Libraries/CMSIS/DSP/Source/TransformFunctions/arm_cfft_radix4_q31.c ****     xd = *ptr1++;
 3067              		.loc 1 782 15 discriminator 1
 3068 0ab0 D7F89830 		ldr	r3, [r7, #152]
 3069 0ab4 1A1D     		adds	r2, r3, #4
 3070 0ab6 C7F89820 		str	r2, [r7, #152]
ARM GAS  /tmp/ccanIW00.s 			page 70


 3071              		.loc 1 782 8 discriminator 1
 3072 0aba 1B68     		ldr	r3, [r3]
 3073 0abc 7B63     		str	r3, [r7, #52]
 783:./Libraries/CMSIS/DSP/Source/TransformFunctions/arm_cfft_radix4_q31.c ****     yd = *ptr1++;
 3074              		.loc 1 783 15 discriminator 1
 3075 0abe D7F89830 		ldr	r3, [r7, #152]
 3076 0ac2 1A1D     		adds	r2, r3, #4
 3077 0ac4 C7F89820 		str	r2, [r7, #152]
 3078              		.loc 1 783 8 discriminator 1
 3079 0ac8 1B68     		ldr	r3, [r3]
 3080 0aca 3B63     		str	r3, [r7, #48]
 784:./Libraries/CMSIS/DSP/Source/TransformFunctions/arm_cfft_radix4_q31.c **** 
 785:./Libraries/CMSIS/DSP/Source/TransformFunctions/arm_cfft_radix4_q31.c ****     /* xa' = xa + xb + xc + xd */
 786:./Libraries/CMSIS/DSP/Source/TransformFunctions/arm_cfft_radix4_q31.c ****     xa_out = xa + xb + xc + xd;
 3081              		.loc 1 786 17 discriminator 1
 3082 0acc FA6C     		ldr	r2, [r7, #76]
 3083 0ace 7B6C     		ldr	r3, [r7, #68]
 3084 0ad0 1A44     		add	r2, r2, r3
 3085              		.loc 1 786 22 discriminator 1
 3086 0ad2 FB6B     		ldr	r3, [r7, #60]
 3087 0ad4 1344     		add	r3, r3, r2
 3088              		.loc 1 786 12 discriminator 1
 3089 0ad6 7A6B     		ldr	r2, [r7, #52]
 3090 0ad8 1344     		add	r3, r3, r2
 3091 0ada FB62     		str	r3, [r7, #44]
 787:./Libraries/CMSIS/DSP/Source/TransformFunctions/arm_cfft_radix4_q31.c **** 
 788:./Libraries/CMSIS/DSP/Source/TransformFunctions/arm_cfft_radix4_q31.c ****     /* ya' = ya + yb + yc + yd */
 789:./Libraries/CMSIS/DSP/Source/TransformFunctions/arm_cfft_radix4_q31.c ****     ya_out = ya + yb + yc + yd;
 3092              		.loc 1 789 17 discriminator 1
 3093 0adc BA6C     		ldr	r2, [r7, #72]
 3094 0ade 3B6C     		ldr	r3, [r7, #64]
 3095 0ae0 1A44     		add	r2, r2, r3
 3096              		.loc 1 789 22 discriminator 1
 3097 0ae2 BB6B     		ldr	r3, [r7, #56]
 3098 0ae4 1344     		add	r3, r3, r2
 3099              		.loc 1 789 12 discriminator 1
 3100 0ae6 3A6B     		ldr	r2, [r7, #48]
 3101 0ae8 1344     		add	r3, r3, r2
 3102 0aea BB62     		str	r3, [r7, #40]
 790:./Libraries/CMSIS/DSP/Source/TransformFunctions/arm_cfft_radix4_q31.c **** 
 791:./Libraries/CMSIS/DSP/Source/TransformFunctions/arm_cfft_radix4_q31.c ****     /* pointer updation for writing */
 792:./Libraries/CMSIS/DSP/Source/TransformFunctions/arm_cfft_radix4_q31.c ****     ptr1 = ptr1 - 8U;
 3103              		.loc 1 792 10 discriminator 1
 3104 0aec D7F89830 		ldr	r3, [r7, #152]
 3105 0af0 203B     		subs	r3, r3, #32
 3106 0af2 C7F89830 		str	r3, [r7, #152]
 793:./Libraries/CMSIS/DSP/Source/TransformFunctions/arm_cfft_radix4_q31.c **** 
 794:./Libraries/CMSIS/DSP/Source/TransformFunctions/arm_cfft_radix4_q31.c ****     /* writing xa' and ya' */
 795:./Libraries/CMSIS/DSP/Source/TransformFunctions/arm_cfft_radix4_q31.c ****     *ptr1++ = xa_out;
 3107              		.loc 1 795 10 discriminator 1
 3108 0af6 D7F89830 		ldr	r3, [r7, #152]
 3109 0afa 1A1D     		adds	r2, r3, #4
 3110 0afc C7F89820 		str	r2, [r7, #152]
 3111              		.loc 1 795 13 discriminator 1
 3112 0b00 FA6A     		ldr	r2, [r7, #44]
 3113 0b02 1A60     		str	r2, [r3]
 796:./Libraries/CMSIS/DSP/Source/TransformFunctions/arm_cfft_radix4_q31.c ****     *ptr1++ = ya_out;
ARM GAS  /tmp/ccanIW00.s 			page 71


 3114              		.loc 1 796 10 discriminator 1
 3115 0b04 D7F89830 		ldr	r3, [r7, #152]
 3116 0b08 1A1D     		adds	r2, r3, #4
 3117 0b0a C7F89820 		str	r2, [r7, #152]
 3118              		.loc 1 796 13 discriminator 1
 3119 0b0e BA6A     		ldr	r2, [r7, #40]
 3120 0b10 1A60     		str	r2, [r3]
 797:./Libraries/CMSIS/DSP/Source/TransformFunctions/arm_cfft_radix4_q31.c **** 
 798:./Libraries/CMSIS/DSP/Source/TransformFunctions/arm_cfft_radix4_q31.c ****     xc_out = (xa - xb + xc - xd);
 3121              		.loc 1 798 18 discriminator 1
 3122 0b12 FA6C     		ldr	r2, [r7, #76]
 3123 0b14 7B6C     		ldr	r3, [r7, #68]
 3124 0b16 D21A     		subs	r2, r2, r3
 3125              		.loc 1 798 23 discriminator 1
 3126 0b18 FB6B     		ldr	r3, [r7, #60]
 3127 0b1a 1A44     		add	r2, r2, r3
 3128              		.loc 1 798 12 discriminator 1
 3129 0b1c 7B6B     		ldr	r3, [r7, #52]
 3130 0b1e D31A     		subs	r3, r2, r3
 3131 0b20 7B62     		str	r3, [r7, #36]
 799:./Libraries/CMSIS/DSP/Source/TransformFunctions/arm_cfft_radix4_q31.c ****     yc_out = (ya - yb + yc - yd);
 3132              		.loc 1 799 18 discriminator 1
 3133 0b22 BA6C     		ldr	r2, [r7, #72]
 3134 0b24 3B6C     		ldr	r3, [r7, #64]
 3135 0b26 D21A     		subs	r2, r2, r3
 3136              		.loc 1 799 23 discriminator 1
 3137 0b28 BB6B     		ldr	r3, [r7, #56]
 3138 0b2a 1A44     		add	r2, r2, r3
 3139              		.loc 1 799 12 discriminator 1
 3140 0b2c 3B6B     		ldr	r3, [r7, #48]
 3141 0b2e D31A     		subs	r3, r2, r3
 3142 0b30 3B62     		str	r3, [r7, #32]
 800:./Libraries/CMSIS/DSP/Source/TransformFunctions/arm_cfft_radix4_q31.c **** 
 801:./Libraries/CMSIS/DSP/Source/TransformFunctions/arm_cfft_radix4_q31.c ****     /* writing xc' and yc' */
 802:./Libraries/CMSIS/DSP/Source/TransformFunctions/arm_cfft_radix4_q31.c ****     *ptr1++ = xc_out;
 3143              		.loc 1 802 10 discriminator 1
 3144 0b32 D7F89830 		ldr	r3, [r7, #152]
 3145 0b36 1A1D     		adds	r2, r3, #4
 3146 0b38 C7F89820 		str	r2, [r7, #152]
 3147              		.loc 1 802 13 discriminator 1
 3148 0b3c 7A6A     		ldr	r2, [r7, #36]
 3149 0b3e 1A60     		str	r2, [r3]
 803:./Libraries/CMSIS/DSP/Source/TransformFunctions/arm_cfft_radix4_q31.c ****     *ptr1++ = yc_out;
 3150              		.loc 1 803 10 discriminator 1
 3151 0b40 D7F89830 		ldr	r3, [r7, #152]
 3152 0b44 1A1D     		adds	r2, r3, #4
 3153 0b46 C7F89820 		str	r2, [r7, #152]
 3154              		.loc 1 803 13 discriminator 1
 3155 0b4a 3A6A     		ldr	r2, [r7, #32]
 3156 0b4c 1A60     		str	r2, [r3]
 804:./Libraries/CMSIS/DSP/Source/TransformFunctions/arm_cfft_radix4_q31.c **** 
 805:./Libraries/CMSIS/DSP/Source/TransformFunctions/arm_cfft_radix4_q31.c ****     xb_out = (xa - yb - xc + yd);
 3157              		.loc 1 805 18 discriminator 1
 3158 0b4e FA6C     		ldr	r2, [r7, #76]
 3159 0b50 3B6C     		ldr	r3, [r7, #64]
 3160 0b52 D21A     		subs	r2, r2, r3
 3161              		.loc 1 805 23 discriminator 1
ARM GAS  /tmp/ccanIW00.s 			page 72


 3162 0b54 FB6B     		ldr	r3, [r7, #60]
 3163 0b56 D31A     		subs	r3, r2, r3
 3164              		.loc 1 805 12 discriminator 1
 3165 0b58 3A6B     		ldr	r2, [r7, #48]
 3166 0b5a 1344     		add	r3, r3, r2
 3167 0b5c FB61     		str	r3, [r7, #28]
 806:./Libraries/CMSIS/DSP/Source/TransformFunctions/arm_cfft_radix4_q31.c ****     yb_out = (ya + xb - yc - xd);
 3168              		.loc 1 806 18 discriminator 1
 3169 0b5e BA6C     		ldr	r2, [r7, #72]
 3170 0b60 7B6C     		ldr	r3, [r7, #68]
 3171 0b62 1A44     		add	r2, r2, r3
 3172              		.loc 1 806 23 discriminator 1
 3173 0b64 BB6B     		ldr	r3, [r7, #56]
 3174 0b66 D21A     		subs	r2, r2, r3
 3175              		.loc 1 806 12 discriminator 1
 3176 0b68 7B6B     		ldr	r3, [r7, #52]
 3177 0b6a D31A     		subs	r3, r2, r3
 3178 0b6c BB61     		str	r3, [r7, #24]
 807:./Libraries/CMSIS/DSP/Source/TransformFunctions/arm_cfft_radix4_q31.c **** 
 808:./Libraries/CMSIS/DSP/Source/TransformFunctions/arm_cfft_radix4_q31.c ****     /* writing xb' and yb' */
 809:./Libraries/CMSIS/DSP/Source/TransformFunctions/arm_cfft_radix4_q31.c ****     *ptr1++ = xb_out;
 3179              		.loc 1 809 10 discriminator 1
 3180 0b6e D7F89830 		ldr	r3, [r7, #152]
 3181 0b72 1A1D     		adds	r2, r3, #4
 3182 0b74 C7F89820 		str	r2, [r7, #152]
 3183              		.loc 1 809 13 discriminator 1
 3184 0b78 FA69     		ldr	r2, [r7, #28]
 3185 0b7a 1A60     		str	r2, [r3]
 810:./Libraries/CMSIS/DSP/Source/TransformFunctions/arm_cfft_radix4_q31.c ****     *ptr1++ = yb_out;
 3186              		.loc 1 810 10 discriminator 1
 3187 0b7c D7F89830 		ldr	r3, [r7, #152]
 3188 0b80 1A1D     		adds	r2, r3, #4
 3189 0b82 C7F89820 		str	r2, [r7, #152]
 3190              		.loc 1 810 13 discriminator 1
 3191 0b86 BA69     		ldr	r2, [r7, #24]
 3192 0b88 1A60     		str	r2, [r3]
 811:./Libraries/CMSIS/DSP/Source/TransformFunctions/arm_cfft_radix4_q31.c **** 
 812:./Libraries/CMSIS/DSP/Source/TransformFunctions/arm_cfft_radix4_q31.c ****     xd_out = (xa + yb - xc - yd);
 3193              		.loc 1 812 18 discriminator 1
 3194 0b8a FA6C     		ldr	r2, [r7, #76]
 3195 0b8c 3B6C     		ldr	r3, [r7, #64]
 3196 0b8e 1A44     		add	r2, r2, r3
 3197              		.loc 1 812 23 discriminator 1
 3198 0b90 FB6B     		ldr	r3, [r7, #60]
 3199 0b92 D21A     		subs	r2, r2, r3
 3200              		.loc 1 812 12 discriminator 1
 3201 0b94 3B6B     		ldr	r3, [r7, #48]
 3202 0b96 D31A     		subs	r3, r2, r3
 3203 0b98 7B61     		str	r3, [r7, #20]
 813:./Libraries/CMSIS/DSP/Source/TransformFunctions/arm_cfft_radix4_q31.c ****     yd_out = (ya - xb - yc + xd);
 3204              		.loc 1 813 18 discriminator 1
 3205 0b9a BA6C     		ldr	r2, [r7, #72]
 3206 0b9c 7B6C     		ldr	r3, [r7, #68]
 3207 0b9e D21A     		subs	r2, r2, r3
 3208              		.loc 1 813 23 discriminator 1
 3209 0ba0 BB6B     		ldr	r3, [r7, #56]
 3210 0ba2 D31A     		subs	r3, r2, r3
ARM GAS  /tmp/ccanIW00.s 			page 73


 3211              		.loc 1 813 12 discriminator 1
 3212 0ba4 7A6B     		ldr	r2, [r7, #52]
 3213 0ba6 1344     		add	r3, r3, r2
 3214 0ba8 3B61     		str	r3, [r7, #16]
 814:./Libraries/CMSIS/DSP/Source/TransformFunctions/arm_cfft_radix4_q31.c **** 
 815:./Libraries/CMSIS/DSP/Source/TransformFunctions/arm_cfft_radix4_q31.c ****     /* writing xd' and yd' */
 816:./Libraries/CMSIS/DSP/Source/TransformFunctions/arm_cfft_radix4_q31.c ****     *ptr1++ = xd_out;
 3215              		.loc 1 816 10 discriminator 1
 3216 0baa D7F89830 		ldr	r3, [r7, #152]
 3217 0bae 1A1D     		adds	r2, r3, #4
 3218 0bb0 C7F89820 		str	r2, [r7, #152]
 3219              		.loc 1 816 13 discriminator 1
 3220 0bb4 7A69     		ldr	r2, [r7, #20]
 3221 0bb6 1A60     		str	r2, [r3]
 817:./Libraries/CMSIS/DSP/Source/TransformFunctions/arm_cfft_radix4_q31.c ****     *ptr1++ = yd_out;
 3222              		.loc 1 817 10 discriminator 1
 3223 0bb8 D7F89830 		ldr	r3, [r7, #152]
 3224 0bbc 1A1D     		adds	r2, r3, #4
 3225 0bbe C7F89820 		str	r2, [r7, #152]
 3226              		.loc 1 817 13 discriminator 1
 3227 0bc2 3A69     		ldr	r2, [r7, #16]
 3228 0bc4 1A60     		str	r2, [r3]
 818:./Libraries/CMSIS/DSP/Source/TransformFunctions/arm_cfft_radix4_q31.c **** 
 819:./Libraries/CMSIS/DSP/Source/TransformFunctions/arm_cfft_radix4_q31.c ****   } while (--j);
 3229              		.loc 1 819 3 discriminator 1
 3230 0bc6 D7F8A030 		ldr	r3, [r7, #160]
 3231 0bca 013B     		subs	r3, r3, #1
 3232 0bcc C7F8A030 		str	r3, [r7, #160]
 3233 0bd0 D7F8A030 		ldr	r3, [r7, #160]
 3234 0bd4 002B     		cmp	r3, #0
 3235 0bd6 7FF441AF 		bne	.L23
 820:./Libraries/CMSIS/DSP/Source/TransformFunctions/arm_cfft_radix4_q31.c **** 
 821:./Libraries/CMSIS/DSP/Source/TransformFunctions/arm_cfft_radix4_q31.c ****   /* output is in 11.21(q21) format for the 1024 point */
 822:./Libraries/CMSIS/DSP/Source/TransformFunctions/arm_cfft_radix4_q31.c ****   /* output is in 9.23(q23) format for the 256 point */
 823:./Libraries/CMSIS/DSP/Source/TransformFunctions/arm_cfft_radix4_q31.c ****   /* output is in 7.25(q25) format for the 64 point */
 824:./Libraries/CMSIS/DSP/Source/TransformFunctions/arm_cfft_radix4_q31.c ****   /* output is in 5.27(q27) format for the 16 point */
 825:./Libraries/CMSIS/DSP/Source/TransformFunctions/arm_cfft_radix4_q31.c **** 
 826:./Libraries/CMSIS/DSP/Source/TransformFunctions/arm_cfft_radix4_q31.c ****   /* End of last stage process */
 827:./Libraries/CMSIS/DSP/Source/TransformFunctions/arm_cfft_radix4_q31.c **** }
 3236              		.loc 1 827 1
 3237 0bda 00BF     		nop
 3238 0bdc 00BF     		nop
 3239 0bde B037     		adds	r7, r7, #176
 3240              	.LCFI14:
 3241              		.cfi_def_cfa_offset 16
 3242 0be0 BD46     		mov	sp, r7
 3243              	.LCFI15:
 3244              		.cfi_def_cfa_register 13
 3245              		@ sp needed
 3246 0be2 F0BC     		pop	{r4, r5, r6, r7}
 3247              	.LCFI16:
 3248              		.cfi_restore 7
 3249              		.cfi_restore 6
 3250              		.cfi_restore 5
 3251              		.cfi_restore 4
 3252              		.cfi_def_cfa_offset 0
 3253 0be4 7047     		bx	lr
ARM GAS  /tmp/ccanIW00.s 			page 74


 3254              		.cfi_endproc
 3255              	.LFE147:
 3257              		.text
 3258              	.Letext0:
 3259              		.file 2 "/usr/lib/gcc/arm-none-eabi/9.2.1/include/stdint.h"
 3260              		.file 3 "/usr/lib/gcc/arm-none-eabi/9.2.1/include/stddef.h"
 3261              		.file 4 "/usr/include/newlib/sys/_types.h"
 3262              		.file 5 "/usr/include/newlib/sys/reent.h"
 3263              		.file 6 "/usr/include/newlib/sys/lock.h"
 3264              		.file 7 "/usr/include/newlib/math.h"
 3265              		.file 8 "./Libraries/CMSIS/DSP/Include/arm_math.h"
ARM GAS  /tmp/ccanIW00.s 			page 75

