ARM GAS  /tmp/ccYCqOdr.s 			page 1


   1              		.cpu cortex-m7
   2              		.eabi_attribute 28, 1
   3              		.eabi_attribute 20, 1
   4              		.eabi_attribute 21, 1
   5              		.eabi_attribute 23, 3
   6              		.eabi_attribute 24, 1
   7              		.eabi_attribute 25, 1
   8              		.eabi_attribute 26, 1
   9              		.eabi_attribute 30, 6
  10              		.eabi_attribute 34, 1
  11              		.eabi_attribute 18, 4
  12              		.file	"arm_scale_q31.c"
  13              		.text
  14              	.Ltext0:
  15              		.cfi_sections	.debug_frame
  16              		.section	.text.arm_scale_q31,"ax",%progbits
  17              		.align	1
  18              		.global	arm_scale_q31
  19              		.arch armv7e-m
  20              		.syntax unified
  21              		.thumb
  22              		.thumb_func
  23              		.fpu fpv5-d16
  25              	arm_scale_q31:
  26              	.LFB145:
  27              		.file 1 "./Libraries/CMSIS/DSP/Source/BasicMathFunctions/arm_scale_q31.c"
   1:./Libraries/CMSIS/DSP/Source/BasicMathFunctions/arm_scale_q31.c **** /* ----------------------------------------------------------------------
   2:./Libraries/CMSIS/DSP/Source/BasicMathFunctions/arm_scale_q31.c ****  * Project:      CMSIS DSP Library
   3:./Libraries/CMSIS/DSP/Source/BasicMathFunctions/arm_scale_q31.c ****  * Title:        arm_scale_q31.c
   4:./Libraries/CMSIS/DSP/Source/BasicMathFunctions/arm_scale_q31.c ****  * Description:  Multiplies a Q31 vector by a scalar
   5:./Libraries/CMSIS/DSP/Source/BasicMathFunctions/arm_scale_q31.c ****  *
   6:./Libraries/CMSIS/DSP/Source/BasicMathFunctions/arm_scale_q31.c ****  * $Date:        18. March 2019
   7:./Libraries/CMSIS/DSP/Source/BasicMathFunctions/arm_scale_q31.c ****  * $Revision:    V1.6.0
   8:./Libraries/CMSIS/DSP/Source/BasicMathFunctions/arm_scale_q31.c ****  *
   9:./Libraries/CMSIS/DSP/Source/BasicMathFunctions/arm_scale_q31.c ****  * Target Processor: Cortex-M cores
  10:./Libraries/CMSIS/DSP/Source/BasicMathFunctions/arm_scale_q31.c ****  * -------------------------------------------------------------------- */
  11:./Libraries/CMSIS/DSP/Source/BasicMathFunctions/arm_scale_q31.c **** /*
  12:./Libraries/CMSIS/DSP/Source/BasicMathFunctions/arm_scale_q31.c ****  * Copyright (C) 2010-2019 ARM Limited or its affiliates. All rights reserved.
  13:./Libraries/CMSIS/DSP/Source/BasicMathFunctions/arm_scale_q31.c ****  *
  14:./Libraries/CMSIS/DSP/Source/BasicMathFunctions/arm_scale_q31.c ****  * SPDX-License-Identifier: Apache-2.0
  15:./Libraries/CMSIS/DSP/Source/BasicMathFunctions/arm_scale_q31.c ****  *
  16:./Libraries/CMSIS/DSP/Source/BasicMathFunctions/arm_scale_q31.c ****  * Licensed under the Apache License, Version 2.0 (the License); you may
  17:./Libraries/CMSIS/DSP/Source/BasicMathFunctions/arm_scale_q31.c ****  * not use this file except in compliance with the License.
  18:./Libraries/CMSIS/DSP/Source/BasicMathFunctions/arm_scale_q31.c ****  * You may obtain a copy of the License at
  19:./Libraries/CMSIS/DSP/Source/BasicMathFunctions/arm_scale_q31.c ****  *
  20:./Libraries/CMSIS/DSP/Source/BasicMathFunctions/arm_scale_q31.c ****  * www.apache.org/licenses/LICENSE-2.0
  21:./Libraries/CMSIS/DSP/Source/BasicMathFunctions/arm_scale_q31.c ****  *
  22:./Libraries/CMSIS/DSP/Source/BasicMathFunctions/arm_scale_q31.c ****  * Unless required by applicable law or agreed to in writing, software
  23:./Libraries/CMSIS/DSP/Source/BasicMathFunctions/arm_scale_q31.c ****  * distributed under the License is distributed on an AS IS BASIS, WITHOUT
  24:./Libraries/CMSIS/DSP/Source/BasicMathFunctions/arm_scale_q31.c ****  * WARRANTIES OR CONDITIONS OF ANY KIND, either express or implied.
  25:./Libraries/CMSIS/DSP/Source/BasicMathFunctions/arm_scale_q31.c ****  * See the License for the specific language governing permissions and
  26:./Libraries/CMSIS/DSP/Source/BasicMathFunctions/arm_scale_q31.c ****  * limitations under the License.
  27:./Libraries/CMSIS/DSP/Source/BasicMathFunctions/arm_scale_q31.c ****  */
  28:./Libraries/CMSIS/DSP/Source/BasicMathFunctions/arm_scale_q31.c **** 
  29:./Libraries/CMSIS/DSP/Source/BasicMathFunctions/arm_scale_q31.c **** #include "arm_math.h"
  30:./Libraries/CMSIS/DSP/Source/BasicMathFunctions/arm_scale_q31.c **** 
  31:./Libraries/CMSIS/DSP/Source/BasicMathFunctions/arm_scale_q31.c **** /**
ARM GAS  /tmp/ccYCqOdr.s 			page 2


  32:./Libraries/CMSIS/DSP/Source/BasicMathFunctions/arm_scale_q31.c ****   @ingroup groupMath
  33:./Libraries/CMSIS/DSP/Source/BasicMathFunctions/arm_scale_q31.c ****  */
  34:./Libraries/CMSIS/DSP/Source/BasicMathFunctions/arm_scale_q31.c **** 
  35:./Libraries/CMSIS/DSP/Source/BasicMathFunctions/arm_scale_q31.c **** /**
  36:./Libraries/CMSIS/DSP/Source/BasicMathFunctions/arm_scale_q31.c ****   @addtogroup BasicScale
  37:./Libraries/CMSIS/DSP/Source/BasicMathFunctions/arm_scale_q31.c ****   @{
  38:./Libraries/CMSIS/DSP/Source/BasicMathFunctions/arm_scale_q31.c ****  */
  39:./Libraries/CMSIS/DSP/Source/BasicMathFunctions/arm_scale_q31.c **** 
  40:./Libraries/CMSIS/DSP/Source/BasicMathFunctions/arm_scale_q31.c **** /**
  41:./Libraries/CMSIS/DSP/Source/BasicMathFunctions/arm_scale_q31.c ****   @brief         Multiplies a Q31 vector by a scalar.
  42:./Libraries/CMSIS/DSP/Source/BasicMathFunctions/arm_scale_q31.c ****   @param[in]     pSrc       points to the input vector
  43:./Libraries/CMSIS/DSP/Source/BasicMathFunctions/arm_scale_q31.c ****   @param[in]     scaleFract fractional portion of the scale value
  44:./Libraries/CMSIS/DSP/Source/BasicMathFunctions/arm_scale_q31.c ****   @param[in]     shift      number of bits to shift the result by
  45:./Libraries/CMSIS/DSP/Source/BasicMathFunctions/arm_scale_q31.c ****   @param[out]    pDst       points to the output vector
  46:./Libraries/CMSIS/DSP/Source/BasicMathFunctions/arm_scale_q31.c ****   @param[in]     blockSize  number of samples in each vector
  47:./Libraries/CMSIS/DSP/Source/BasicMathFunctions/arm_scale_q31.c ****   @return        none
  48:./Libraries/CMSIS/DSP/Source/BasicMathFunctions/arm_scale_q31.c **** 
  49:./Libraries/CMSIS/DSP/Source/BasicMathFunctions/arm_scale_q31.c ****   @par           Scaling and Overflow Behavior
  50:./Libraries/CMSIS/DSP/Source/BasicMathFunctions/arm_scale_q31.c ****                    The input data <code>*pSrc</code> and <code>scaleFract</code> are in 1.31 format
  51:./Libraries/CMSIS/DSP/Source/BasicMathFunctions/arm_scale_q31.c ****                    These are multiplied to yield a 2.62 intermediate result and this is shifted wit
  52:./Libraries/CMSIS/DSP/Source/BasicMathFunctions/arm_scale_q31.c ****  */
  53:./Libraries/CMSIS/DSP/Source/BasicMathFunctions/arm_scale_q31.c **** 
  54:./Libraries/CMSIS/DSP/Source/BasicMathFunctions/arm_scale_q31.c **** void arm_scale_q31(
  55:./Libraries/CMSIS/DSP/Source/BasicMathFunctions/arm_scale_q31.c ****   const q31_t *pSrc,
  56:./Libraries/CMSIS/DSP/Source/BasicMathFunctions/arm_scale_q31.c ****         q31_t scaleFract,
  57:./Libraries/CMSIS/DSP/Source/BasicMathFunctions/arm_scale_q31.c ****         int8_t shift,
  58:./Libraries/CMSIS/DSP/Source/BasicMathFunctions/arm_scale_q31.c ****         q31_t *pDst,
  59:./Libraries/CMSIS/DSP/Source/BasicMathFunctions/arm_scale_q31.c ****         uint32_t blockSize)
  60:./Libraries/CMSIS/DSP/Source/BasicMathFunctions/arm_scale_q31.c **** {
  28              		.loc 1 60 1
  29              		.cfi_startproc
  30              		@ args = 4, pretend = 0, frame = 32
  31              		@ frame_needed = 1, uses_anonymous_args = 0
  32              		@ link register save eliminated.
  33 0000 B0B4     		push	{r4, r5, r7}
  34              	.LCFI0:
  35              		.cfi_def_cfa_offset 12
  36              		.cfi_offset 4, -12
  37              		.cfi_offset 5, -8
  38              		.cfi_offset 7, -4
  39 0002 89B0     		sub	sp, sp, #36
  40              	.LCFI1:
  41              		.cfi_def_cfa_offset 48
  42 0004 00AF     		add	r7, sp, #0
  43              	.LCFI2:
  44              		.cfi_def_cfa_register 7
  45 0006 F860     		str	r0, [r7, #12]
  46 0008 B960     		str	r1, [r7, #8]
  47 000a 3B60     		str	r3, [r7]
  48 000c 1346     		mov	r3, r2
  49 000e FB71     		strb	r3, [r7, #7]
  61:./Libraries/CMSIS/DSP/Source/BasicMathFunctions/arm_scale_q31.c ****         uint32_t blkCnt;                               /* Loop counter */
  62:./Libraries/CMSIS/DSP/Source/BasicMathFunctions/arm_scale_q31.c ****         q31_t in, out;                                 /* Temporary variables */
  63:./Libraries/CMSIS/DSP/Source/BasicMathFunctions/arm_scale_q31.c ****         int8_t kShift = shift + 1;                     /* Shift to apply after scaling */
  50              		.loc 1 63 31
  51 0010 FB79     		ldrb	r3, [r7, #7]	@ zero_extendqisi2
  52 0012 0133     		adds	r3, r3, #1
ARM GAS  /tmp/ccYCqOdr.s 			page 3


  53 0014 DBB2     		uxtb	r3, r3
  54              		.loc 1 63 16
  55 0016 FB75     		strb	r3, [r7, #23]
  64:./Libraries/CMSIS/DSP/Source/BasicMathFunctions/arm_scale_q31.c ****         int8_t sign = (kShift & 0x80);
  56              		.loc 1 64 16
  57 0018 FB7D     		ldrb	r3, [r7, #23]
  58 001a 23F07F03 		bic	r3, r3, #127
  59 001e BB75     		strb	r3, [r7, #22]
  65:./Libraries/CMSIS/DSP/Source/BasicMathFunctions/arm_scale_q31.c **** 
  66:./Libraries/CMSIS/DSP/Source/BasicMathFunctions/arm_scale_q31.c **** #if defined (ARM_MATH_LOOPUNROLL)
  67:./Libraries/CMSIS/DSP/Source/BasicMathFunctions/arm_scale_q31.c **** 
  68:./Libraries/CMSIS/DSP/Source/BasicMathFunctions/arm_scale_q31.c ****   /* Loop unrolling: Compute 4 outputs at a time */
  69:./Libraries/CMSIS/DSP/Source/BasicMathFunctions/arm_scale_q31.c ****   blkCnt = blockSize >> 2U;
  70:./Libraries/CMSIS/DSP/Source/BasicMathFunctions/arm_scale_q31.c **** 
  71:./Libraries/CMSIS/DSP/Source/BasicMathFunctions/arm_scale_q31.c ****   if (sign == 0U)
  72:./Libraries/CMSIS/DSP/Source/BasicMathFunctions/arm_scale_q31.c ****   {
  73:./Libraries/CMSIS/DSP/Source/BasicMathFunctions/arm_scale_q31.c ****     while (blkCnt > 0U)
  74:./Libraries/CMSIS/DSP/Source/BasicMathFunctions/arm_scale_q31.c ****     {
  75:./Libraries/CMSIS/DSP/Source/BasicMathFunctions/arm_scale_q31.c ****       /* C = A * scale */
  76:./Libraries/CMSIS/DSP/Source/BasicMathFunctions/arm_scale_q31.c **** 
  77:./Libraries/CMSIS/DSP/Source/BasicMathFunctions/arm_scale_q31.c ****       /* Scale input and store result in destination buffer. */
  78:./Libraries/CMSIS/DSP/Source/BasicMathFunctions/arm_scale_q31.c ****       in = *pSrc++;                                /* read input from source */
  79:./Libraries/CMSIS/DSP/Source/BasicMathFunctions/arm_scale_q31.c ****       in = ((q63_t) in * scaleFract) >> 32;        /* multiply input with scaler value */
  80:./Libraries/CMSIS/DSP/Source/BasicMathFunctions/arm_scale_q31.c ****       out = in << kShift;                          /* apply shifting */
  81:./Libraries/CMSIS/DSP/Source/BasicMathFunctions/arm_scale_q31.c ****       if (in != (out >> kShift))                   /* saturate the result */
  82:./Libraries/CMSIS/DSP/Source/BasicMathFunctions/arm_scale_q31.c ****         out = 0x7FFFFFFF ^ (in >> 31);
  83:./Libraries/CMSIS/DSP/Source/BasicMathFunctions/arm_scale_q31.c ****       *pDst++ = out;                               /* Store result destination */
  84:./Libraries/CMSIS/DSP/Source/BasicMathFunctions/arm_scale_q31.c **** 
  85:./Libraries/CMSIS/DSP/Source/BasicMathFunctions/arm_scale_q31.c ****       in = *pSrc++;
  86:./Libraries/CMSIS/DSP/Source/BasicMathFunctions/arm_scale_q31.c ****       in = ((q63_t) in * scaleFract) >> 32;
  87:./Libraries/CMSIS/DSP/Source/BasicMathFunctions/arm_scale_q31.c ****       out = in << kShift;
  88:./Libraries/CMSIS/DSP/Source/BasicMathFunctions/arm_scale_q31.c ****       if (in != (out >> kShift))
  89:./Libraries/CMSIS/DSP/Source/BasicMathFunctions/arm_scale_q31.c ****         out = 0x7FFFFFFF ^ (in >> 31);
  90:./Libraries/CMSIS/DSP/Source/BasicMathFunctions/arm_scale_q31.c ****       *pDst++ = out;
  91:./Libraries/CMSIS/DSP/Source/BasicMathFunctions/arm_scale_q31.c **** 
  92:./Libraries/CMSIS/DSP/Source/BasicMathFunctions/arm_scale_q31.c ****       in = *pSrc++;
  93:./Libraries/CMSIS/DSP/Source/BasicMathFunctions/arm_scale_q31.c ****       in = ((q63_t) in * scaleFract) >> 32;
  94:./Libraries/CMSIS/DSP/Source/BasicMathFunctions/arm_scale_q31.c ****       out = in << kShift;
  95:./Libraries/CMSIS/DSP/Source/BasicMathFunctions/arm_scale_q31.c ****       if (in != (out >> kShift))
  96:./Libraries/CMSIS/DSP/Source/BasicMathFunctions/arm_scale_q31.c ****         out = 0x7FFFFFFF ^ (in >> 31);
  97:./Libraries/CMSIS/DSP/Source/BasicMathFunctions/arm_scale_q31.c ****       *pDst++ = out;
  98:./Libraries/CMSIS/DSP/Source/BasicMathFunctions/arm_scale_q31.c **** 
  99:./Libraries/CMSIS/DSP/Source/BasicMathFunctions/arm_scale_q31.c ****       in = *pSrc++;
 100:./Libraries/CMSIS/DSP/Source/BasicMathFunctions/arm_scale_q31.c ****       in = ((q63_t) in * scaleFract) >> 32;
 101:./Libraries/CMSIS/DSP/Source/BasicMathFunctions/arm_scale_q31.c ****       out = in << kShift;
 102:./Libraries/CMSIS/DSP/Source/BasicMathFunctions/arm_scale_q31.c ****       if (in != (out >> kShift))
 103:./Libraries/CMSIS/DSP/Source/BasicMathFunctions/arm_scale_q31.c ****         out = 0x7FFFFFFF ^ (in >> 31);
 104:./Libraries/CMSIS/DSP/Source/BasicMathFunctions/arm_scale_q31.c ****       *pDst++ = out;
 105:./Libraries/CMSIS/DSP/Source/BasicMathFunctions/arm_scale_q31.c **** 
 106:./Libraries/CMSIS/DSP/Source/BasicMathFunctions/arm_scale_q31.c ****       /* Decrement loop counter */
 107:./Libraries/CMSIS/DSP/Source/BasicMathFunctions/arm_scale_q31.c ****       blkCnt--;
 108:./Libraries/CMSIS/DSP/Source/BasicMathFunctions/arm_scale_q31.c ****     }
 109:./Libraries/CMSIS/DSP/Source/BasicMathFunctions/arm_scale_q31.c ****   }
 110:./Libraries/CMSIS/DSP/Source/BasicMathFunctions/arm_scale_q31.c ****   else
 111:./Libraries/CMSIS/DSP/Source/BasicMathFunctions/arm_scale_q31.c ****   {
 112:./Libraries/CMSIS/DSP/Source/BasicMathFunctions/arm_scale_q31.c ****     while (blkCnt > 0U)
 113:./Libraries/CMSIS/DSP/Source/BasicMathFunctions/arm_scale_q31.c ****     {
ARM GAS  /tmp/ccYCqOdr.s 			page 4


 114:./Libraries/CMSIS/DSP/Source/BasicMathFunctions/arm_scale_q31.c ****       /* C = A * scale */
 115:./Libraries/CMSIS/DSP/Source/BasicMathFunctions/arm_scale_q31.c **** 
 116:./Libraries/CMSIS/DSP/Source/BasicMathFunctions/arm_scale_q31.c ****       /* Scale input and store result in destination buffer. */
 117:./Libraries/CMSIS/DSP/Source/BasicMathFunctions/arm_scale_q31.c ****       in = *pSrc++;                                /* read four inputs from source */
 118:./Libraries/CMSIS/DSP/Source/BasicMathFunctions/arm_scale_q31.c ****       in = ((q63_t) in * scaleFract) >> 32;        /* multiply input with scaler value */
 119:./Libraries/CMSIS/DSP/Source/BasicMathFunctions/arm_scale_q31.c ****       out = in >> -kShift;                         /* apply shifting */
 120:./Libraries/CMSIS/DSP/Source/BasicMathFunctions/arm_scale_q31.c ****       *pDst++ = out;                               /* Store result destination */
 121:./Libraries/CMSIS/DSP/Source/BasicMathFunctions/arm_scale_q31.c **** 
 122:./Libraries/CMSIS/DSP/Source/BasicMathFunctions/arm_scale_q31.c ****       in = *pSrc++;
 123:./Libraries/CMSIS/DSP/Source/BasicMathFunctions/arm_scale_q31.c ****       in = ((q63_t) in * scaleFract) >> 32;
 124:./Libraries/CMSIS/DSP/Source/BasicMathFunctions/arm_scale_q31.c ****       out = in >> -kShift;
 125:./Libraries/CMSIS/DSP/Source/BasicMathFunctions/arm_scale_q31.c ****       *pDst++ = out;
 126:./Libraries/CMSIS/DSP/Source/BasicMathFunctions/arm_scale_q31.c **** 
 127:./Libraries/CMSIS/DSP/Source/BasicMathFunctions/arm_scale_q31.c ****       in = *pSrc++;
 128:./Libraries/CMSIS/DSP/Source/BasicMathFunctions/arm_scale_q31.c ****       in = ((q63_t) in * scaleFract) >> 32;
 129:./Libraries/CMSIS/DSP/Source/BasicMathFunctions/arm_scale_q31.c ****       out = in >> -kShift;
 130:./Libraries/CMSIS/DSP/Source/BasicMathFunctions/arm_scale_q31.c ****       *pDst++ = out;
 131:./Libraries/CMSIS/DSP/Source/BasicMathFunctions/arm_scale_q31.c **** 
 132:./Libraries/CMSIS/DSP/Source/BasicMathFunctions/arm_scale_q31.c ****       in = *pSrc++;
 133:./Libraries/CMSIS/DSP/Source/BasicMathFunctions/arm_scale_q31.c ****       in = ((q63_t) in * scaleFract) >> 32;
 134:./Libraries/CMSIS/DSP/Source/BasicMathFunctions/arm_scale_q31.c ****       out = in >> -kShift;
 135:./Libraries/CMSIS/DSP/Source/BasicMathFunctions/arm_scale_q31.c ****       *pDst++ = out;
 136:./Libraries/CMSIS/DSP/Source/BasicMathFunctions/arm_scale_q31.c **** 
 137:./Libraries/CMSIS/DSP/Source/BasicMathFunctions/arm_scale_q31.c ****       /* Decrement loop counter */
 138:./Libraries/CMSIS/DSP/Source/BasicMathFunctions/arm_scale_q31.c ****       blkCnt--;
 139:./Libraries/CMSIS/DSP/Source/BasicMathFunctions/arm_scale_q31.c ****     }
 140:./Libraries/CMSIS/DSP/Source/BasicMathFunctions/arm_scale_q31.c ****   }
 141:./Libraries/CMSIS/DSP/Source/BasicMathFunctions/arm_scale_q31.c **** 
 142:./Libraries/CMSIS/DSP/Source/BasicMathFunctions/arm_scale_q31.c ****   /* Loop unrolling: Compute remaining outputs */
 143:./Libraries/CMSIS/DSP/Source/BasicMathFunctions/arm_scale_q31.c ****   blkCnt = blockSize % 0x4U;
 144:./Libraries/CMSIS/DSP/Source/BasicMathFunctions/arm_scale_q31.c **** 
 145:./Libraries/CMSIS/DSP/Source/BasicMathFunctions/arm_scale_q31.c **** #else
 146:./Libraries/CMSIS/DSP/Source/BasicMathFunctions/arm_scale_q31.c **** 
 147:./Libraries/CMSIS/DSP/Source/BasicMathFunctions/arm_scale_q31.c ****   /* Initialize blkCnt with number of samples */
 148:./Libraries/CMSIS/DSP/Source/BasicMathFunctions/arm_scale_q31.c ****   blkCnt = blockSize;
  60              		.loc 1 148 10
  61 0020 3B6B     		ldr	r3, [r7, #48]
  62 0022 FB61     		str	r3, [r7, #28]
 149:./Libraries/CMSIS/DSP/Source/BasicMathFunctions/arm_scale_q31.c **** 
 150:./Libraries/CMSIS/DSP/Source/BasicMathFunctions/arm_scale_q31.c **** #endif /* #if defined (ARM_MATH_LOOPUNROLL) */
 151:./Libraries/CMSIS/DSP/Source/BasicMathFunctions/arm_scale_q31.c **** 
 152:./Libraries/CMSIS/DSP/Source/BasicMathFunctions/arm_scale_q31.c ****   if (sign == 0U)
  63              		.loc 1 152 6
  64 0024 97F91630 		ldrsb	r3, [r7, #22]
  65 0028 002B     		cmp	r3, #0
  66 002a 6BD1     		bne	.L7
 153:./Libraries/CMSIS/DSP/Source/BasicMathFunctions/arm_scale_q31.c ****   {
 154:./Libraries/CMSIS/DSP/Source/BasicMathFunctions/arm_scale_q31.c ****     while (blkCnt > 0U)
  67              		.loc 1 154 11
  68 002c 39E0     		b	.L3
  69              	.L5:
 155:./Libraries/CMSIS/DSP/Source/BasicMathFunctions/arm_scale_q31.c ****     {
 156:./Libraries/CMSIS/DSP/Source/BasicMathFunctions/arm_scale_q31.c ****       /* C = A * scale */
 157:./Libraries/CMSIS/DSP/Source/BasicMathFunctions/arm_scale_q31.c **** 
 158:./Libraries/CMSIS/DSP/Source/BasicMathFunctions/arm_scale_q31.c ****       /* Scale input and store result in destination buffer. */
 159:./Libraries/CMSIS/DSP/Source/BasicMathFunctions/arm_scale_q31.c ****       in = *pSrc++;
  70              		.loc 1 159 17
ARM GAS  /tmp/ccYCqOdr.s 			page 5


  71 002e FB68     		ldr	r3, [r7, #12]
  72 0030 1A1D     		adds	r2, r3, #4
  73 0032 FA60     		str	r2, [r7, #12]
  74              		.loc 1 159 10
  75 0034 1B68     		ldr	r3, [r3]
  76 0036 3B61     		str	r3, [r7, #16]
 160:./Libraries/CMSIS/DSP/Source/BasicMathFunctions/arm_scale_q31.c ****       in = ((q63_t) in * scaleFract) >> 32;
  77              		.loc 1 160 13
  78 0038 3B69     		ldr	r3, [r7, #16]
  79 003a 1846     		mov	r0, r3
  80 003c 4FEAE071 		asr	r1, r0, #31
  81              		.loc 1 160 24
  82 0040 BB68     		ldr	r3, [r7, #8]
  83 0042 1A46     		mov	r2, r3
  84 0044 4FEAE273 		asr	r3, r2, #31
  85 0048 02FB01F5 		mul	r5, r2, r1
  86 004c 00FB03F4 		mul	r4, r0, r3
  87 0050 2C44     		add	r4, r4, r5
  88 0052 A0FB0223 		umull	r2, r3, r0, r2
  89 0056 E118     		adds	r1, r4, r3
  90 0058 0B46     		mov	r3, r1
  91              		.loc 1 160 38
  92 005a 4FF00000 		mov	r0, #0
  93 005e 4FF00001 		mov	r1, #0
  94 0062 1800     		movs	r0, r3
  95 0064 D917     		asrs	r1, r3, #31
  96              		.loc 1 160 10
  97 0066 0346     		mov	r3, r0
  98 0068 3B61     		str	r3, [r7, #16]
 161:./Libraries/CMSIS/DSP/Source/BasicMathFunctions/arm_scale_q31.c ****       out = in << kShift;
  99              		.loc 1 161 16
 100 006a 97F91730 		ldrsb	r3, [r7, #23]
 101              		.loc 1 161 11
 102 006e 3A69     		ldr	r2, [r7, #16]
 103 0070 02FA03F3 		lsl	r3, r2, r3
 104 0074 BB61     		str	r3, [r7, #24]
 162:./Libraries/CMSIS/DSP/Source/BasicMathFunctions/arm_scale_q31.c ****       if (in != (out >> kShift))
 105              		.loc 1 162 22
 106 0076 97F91730 		ldrsb	r3, [r7, #23]
 107 007a BA69     		ldr	r2, [r7, #24]
 108 007c 42FA03F3 		asr	r3, r2, r3
 109              		.loc 1 162 10
 110 0080 3A69     		ldr	r2, [r7, #16]
 111 0082 9A42     		cmp	r2, r3
 112 0084 05D0     		beq	.L4
 163:./Libraries/CMSIS/DSP/Source/BasicMathFunctions/arm_scale_q31.c ****           out = 0x7FFFFFFF ^ (in >> 31);
 113              		.loc 1 163 34
 114 0086 3B69     		ldr	r3, [r7, #16]
 115 0088 DA17     		asrs	r2, r3, #31
 116              		.loc 1 163 15
 117 008a 6FF00043 		mvn	r3, #-2147483648
 118 008e 5340     		eors	r3, r3, r2
 119 0090 BB61     		str	r3, [r7, #24]
 120              	.L4:
 164:./Libraries/CMSIS/DSP/Source/BasicMathFunctions/arm_scale_q31.c ****       *pDst++ = out;
 121              		.loc 1 164 12
 122 0092 3B68     		ldr	r3, [r7]
ARM GAS  /tmp/ccYCqOdr.s 			page 6


 123 0094 1A1D     		adds	r2, r3, #4
 124 0096 3A60     		str	r2, [r7]
 125              		.loc 1 164 15
 126 0098 BA69     		ldr	r2, [r7, #24]
 127 009a 1A60     		str	r2, [r3]
 165:./Libraries/CMSIS/DSP/Source/BasicMathFunctions/arm_scale_q31.c **** 
 166:./Libraries/CMSIS/DSP/Source/BasicMathFunctions/arm_scale_q31.c ****       /* Decrement loop counter */
 167:./Libraries/CMSIS/DSP/Source/BasicMathFunctions/arm_scale_q31.c ****       blkCnt--;
 128              		.loc 1 167 13
 129 009c FB69     		ldr	r3, [r7, #28]
 130 009e 013B     		subs	r3, r3, #1
 131 00a0 FB61     		str	r3, [r7, #28]
 132              	.L3:
 154:./Libraries/CMSIS/DSP/Source/BasicMathFunctions/arm_scale_q31.c ****     {
 133              		.loc 1 154 11
 134 00a2 FB69     		ldr	r3, [r7, #28]
 135 00a4 002B     		cmp	r3, #0
 136 00a6 C2D1     		bne	.L5
 168:./Libraries/CMSIS/DSP/Source/BasicMathFunctions/arm_scale_q31.c ****     }
 169:./Libraries/CMSIS/DSP/Source/BasicMathFunctions/arm_scale_q31.c ****   }
 170:./Libraries/CMSIS/DSP/Source/BasicMathFunctions/arm_scale_q31.c ****   else
 171:./Libraries/CMSIS/DSP/Source/BasicMathFunctions/arm_scale_q31.c ****   {
 172:./Libraries/CMSIS/DSP/Source/BasicMathFunctions/arm_scale_q31.c ****     while (blkCnt > 0U)
 173:./Libraries/CMSIS/DSP/Source/BasicMathFunctions/arm_scale_q31.c ****     {
 174:./Libraries/CMSIS/DSP/Source/BasicMathFunctions/arm_scale_q31.c ****       /* C = A * scale */
 175:./Libraries/CMSIS/DSP/Source/BasicMathFunctions/arm_scale_q31.c **** 
 176:./Libraries/CMSIS/DSP/Source/BasicMathFunctions/arm_scale_q31.c ****       /* Scale input and store result in destination buffer. */
 177:./Libraries/CMSIS/DSP/Source/BasicMathFunctions/arm_scale_q31.c ****       in = *pSrc++;
 178:./Libraries/CMSIS/DSP/Source/BasicMathFunctions/arm_scale_q31.c ****       in = ((q63_t) in * scaleFract) >> 32;
 179:./Libraries/CMSIS/DSP/Source/BasicMathFunctions/arm_scale_q31.c ****       out = in >> -kShift;
 180:./Libraries/CMSIS/DSP/Source/BasicMathFunctions/arm_scale_q31.c ****       *pDst++ = out;
 181:./Libraries/CMSIS/DSP/Source/BasicMathFunctions/arm_scale_q31.c **** 
 182:./Libraries/CMSIS/DSP/Source/BasicMathFunctions/arm_scale_q31.c ****       /* Decrement loop counter */
 183:./Libraries/CMSIS/DSP/Source/BasicMathFunctions/arm_scale_q31.c ****       blkCnt--;
 184:./Libraries/CMSIS/DSP/Source/BasicMathFunctions/arm_scale_q31.c ****     }
 185:./Libraries/CMSIS/DSP/Source/BasicMathFunctions/arm_scale_q31.c ****   }
 186:./Libraries/CMSIS/DSP/Source/BasicMathFunctions/arm_scale_q31.c **** 
 187:./Libraries/CMSIS/DSP/Source/BasicMathFunctions/arm_scale_q31.c **** }
 137              		.loc 1 187 1
 138 00a8 2FE0     		b	.L9
 139              	.L8:
 177:./Libraries/CMSIS/DSP/Source/BasicMathFunctions/arm_scale_q31.c ****       in = ((q63_t) in * scaleFract) >> 32;
 140              		.loc 1 177 17
 141 00aa FB68     		ldr	r3, [r7, #12]
 142 00ac 1A1D     		adds	r2, r3, #4
 143 00ae FA60     		str	r2, [r7, #12]
 177:./Libraries/CMSIS/DSP/Source/BasicMathFunctions/arm_scale_q31.c ****       in = ((q63_t) in * scaleFract) >> 32;
 144              		.loc 1 177 10
 145 00b0 1B68     		ldr	r3, [r3]
 146 00b2 3B61     		str	r3, [r7, #16]
 178:./Libraries/CMSIS/DSP/Source/BasicMathFunctions/arm_scale_q31.c ****       out = in >> -kShift;
 147              		.loc 1 178 13
 148 00b4 3B69     		ldr	r3, [r7, #16]
 149 00b6 1846     		mov	r0, r3
 150 00b8 4FEAE071 		asr	r1, r0, #31
 178:./Libraries/CMSIS/DSP/Source/BasicMathFunctions/arm_scale_q31.c ****       out = in >> -kShift;
 151              		.loc 1 178 24
ARM GAS  /tmp/ccYCqOdr.s 			page 7


 152 00bc BB68     		ldr	r3, [r7, #8]
 153 00be 1A46     		mov	r2, r3
 154 00c0 4FEAE273 		asr	r3, r2, #31
 155 00c4 02FB01F5 		mul	r5, r2, r1
 156 00c8 00FB03F4 		mul	r4, r0, r3
 157 00cc 2C44     		add	r4, r4, r5
 158 00ce A0FB0223 		umull	r2, r3, r0, r2
 159 00d2 E118     		adds	r1, r4, r3
 160 00d4 0B46     		mov	r3, r1
 178:./Libraries/CMSIS/DSP/Source/BasicMathFunctions/arm_scale_q31.c ****       out = in >> -kShift;
 161              		.loc 1 178 38
 162 00d6 4FF00000 		mov	r0, #0
 163 00da 4FF00001 		mov	r1, #0
 164 00de 1800     		movs	r0, r3
 165 00e0 D917     		asrs	r1, r3, #31
 178:./Libraries/CMSIS/DSP/Source/BasicMathFunctions/arm_scale_q31.c ****       out = in >> -kShift;
 166              		.loc 1 178 10
 167 00e2 0346     		mov	r3, r0
 168 00e4 3B61     		str	r3, [r7, #16]
 179:./Libraries/CMSIS/DSP/Source/BasicMathFunctions/arm_scale_q31.c ****       *pDst++ = out;
 169              		.loc 1 179 19
 170 00e6 97F91730 		ldrsb	r3, [r7, #23]
 171 00ea 5B42     		rsbs	r3, r3, #0
 179:./Libraries/CMSIS/DSP/Source/BasicMathFunctions/arm_scale_q31.c ****       *pDst++ = out;
 172              		.loc 1 179 11
 173 00ec 3A69     		ldr	r2, [r7, #16]
 174 00ee 42FA03F3 		asr	r3, r2, r3
 175 00f2 BB61     		str	r3, [r7, #24]
 180:./Libraries/CMSIS/DSP/Source/BasicMathFunctions/arm_scale_q31.c **** 
 176              		.loc 1 180 12
 177 00f4 3B68     		ldr	r3, [r7]
 178 00f6 1A1D     		adds	r2, r3, #4
 179 00f8 3A60     		str	r2, [r7]
 180:./Libraries/CMSIS/DSP/Source/BasicMathFunctions/arm_scale_q31.c **** 
 180              		.loc 1 180 15
 181 00fa BA69     		ldr	r2, [r7, #24]
 182 00fc 1A60     		str	r2, [r3]
 183:./Libraries/CMSIS/DSP/Source/BasicMathFunctions/arm_scale_q31.c ****     }
 183              		.loc 1 183 13
 184 00fe FB69     		ldr	r3, [r7, #28]
 185 0100 013B     		subs	r3, r3, #1
 186 0102 FB61     		str	r3, [r7, #28]
 187              	.L7:
 172:./Libraries/CMSIS/DSP/Source/BasicMathFunctions/arm_scale_q31.c ****     {
 188              		.loc 1 172 11
 189 0104 FB69     		ldr	r3, [r7, #28]
 190 0106 002B     		cmp	r3, #0
 191 0108 CFD1     		bne	.L8
 192              	.L9:
 193              		.loc 1 187 1
 194 010a 00BF     		nop
 195 010c 2437     		adds	r7, r7, #36
 196              	.LCFI3:
 197              		.cfi_def_cfa_offset 12
 198 010e BD46     		mov	sp, r7
 199              	.LCFI4:
 200              		.cfi_def_cfa_register 13
ARM GAS  /tmp/ccYCqOdr.s 			page 8


 201              		@ sp needed
 202 0110 B0BC     		pop	{r4, r5, r7}
 203              	.LCFI5:
 204              		.cfi_restore 7
 205              		.cfi_restore 5
 206              		.cfi_restore 4
 207              		.cfi_def_cfa_offset 0
 208 0112 7047     		bx	lr
 209              		.cfi_endproc
 210              	.LFE145:
 212              		.text
 213              	.Letext0:
 214              		.file 2 "/usr/lib/gcc/arm-none-eabi/9.2.1/include/stdint.h"
 215              		.file 3 "/usr/lib/gcc/arm-none-eabi/9.2.1/include/stddef.h"
 216              		.file 4 "/usr/include/newlib/sys/_types.h"
 217              		.file 5 "/usr/include/newlib/sys/reent.h"
 218              		.file 6 "/usr/include/newlib/sys/lock.h"
 219              		.file 7 "/usr/include/newlib/math.h"
 220              		.file 8 "./Libraries/CMSIS/DSP/Include/arm_math.h"
ARM GAS  /tmp/ccYCqOdr.s 			page 9

