ARM GAS  /tmp/cc4GyUlP.s 			page 1


   1              		.cpu cortex-m7
   2              		.eabi_attribute 28, 1
   3              		.eabi_attribute 20, 1
   4              		.eabi_attribute 21, 1
   5              		.eabi_attribute 23, 3
   6              		.eabi_attribute 24, 1
   7              		.eabi_attribute 25, 1
   8              		.eabi_attribute 26, 1
   9              		.eabi_attribute 30, 6
  10              		.eabi_attribute 34, 1
  11              		.eabi_attribute 18, 4
  12              		.file	"arm_mean_f32.c"
  13              		.text
  14              	.Ltext0:
  15              		.cfi_sections	.debug_frame
  16              		.section	.text.arm_mean_f32,"ax",%progbits
  17              		.align	1
  18              		.global	arm_mean_f32
  19              		.arch armv7e-m
  20              		.syntax unified
  21              		.thumb
  22              		.thumb_func
  23              		.fpu fpv5-d16
  25              	arm_mean_f32:
  26              	.LFB145:
  27              		.file 1 "./Libraries/CMSIS/DSP/Source/StatisticsFunctions/arm_mean_f32.c"
   1:./Libraries/CMSIS/DSP/Source/StatisticsFunctions/arm_mean_f32.c **** /* ----------------------------------------------------------------------
   2:./Libraries/CMSIS/DSP/Source/StatisticsFunctions/arm_mean_f32.c ****  * Project:      CMSIS DSP Library
   3:./Libraries/CMSIS/DSP/Source/StatisticsFunctions/arm_mean_f32.c ****  * Title:        arm_mean_f32.c
   4:./Libraries/CMSIS/DSP/Source/StatisticsFunctions/arm_mean_f32.c ****  * Description:  Mean value of a floating-point vector
   5:./Libraries/CMSIS/DSP/Source/StatisticsFunctions/arm_mean_f32.c ****  *
   6:./Libraries/CMSIS/DSP/Source/StatisticsFunctions/arm_mean_f32.c ****  * $Date:        18. March 2019
   7:./Libraries/CMSIS/DSP/Source/StatisticsFunctions/arm_mean_f32.c ****  * $Revision:    V1.6.0
   8:./Libraries/CMSIS/DSP/Source/StatisticsFunctions/arm_mean_f32.c ****  *
   9:./Libraries/CMSIS/DSP/Source/StatisticsFunctions/arm_mean_f32.c ****  * Target Processor: Cortex-M cores
  10:./Libraries/CMSIS/DSP/Source/StatisticsFunctions/arm_mean_f32.c ****  * -------------------------------------------------------------------- */
  11:./Libraries/CMSIS/DSP/Source/StatisticsFunctions/arm_mean_f32.c **** /*
  12:./Libraries/CMSIS/DSP/Source/StatisticsFunctions/arm_mean_f32.c ****  * Copyright (C) 2010-2019 ARM Limited or its affiliates. All rights reserved.
  13:./Libraries/CMSIS/DSP/Source/StatisticsFunctions/arm_mean_f32.c ****  *
  14:./Libraries/CMSIS/DSP/Source/StatisticsFunctions/arm_mean_f32.c ****  * SPDX-License-Identifier: Apache-2.0
  15:./Libraries/CMSIS/DSP/Source/StatisticsFunctions/arm_mean_f32.c ****  *
  16:./Libraries/CMSIS/DSP/Source/StatisticsFunctions/arm_mean_f32.c ****  * Licensed under the Apache License, Version 2.0 (the License); you may
  17:./Libraries/CMSIS/DSP/Source/StatisticsFunctions/arm_mean_f32.c ****  * not use this file except in compliance with the License.
  18:./Libraries/CMSIS/DSP/Source/StatisticsFunctions/arm_mean_f32.c ****  * You may obtain a copy of the License at
  19:./Libraries/CMSIS/DSP/Source/StatisticsFunctions/arm_mean_f32.c ****  *
  20:./Libraries/CMSIS/DSP/Source/StatisticsFunctions/arm_mean_f32.c ****  * www.apache.org/licenses/LICENSE-2.0
  21:./Libraries/CMSIS/DSP/Source/StatisticsFunctions/arm_mean_f32.c ****  *
  22:./Libraries/CMSIS/DSP/Source/StatisticsFunctions/arm_mean_f32.c ****  * Unless required by applicable law or agreed to in writing, software
  23:./Libraries/CMSIS/DSP/Source/StatisticsFunctions/arm_mean_f32.c ****  * distributed under the License is distributed on an AS IS BASIS, WITHOUT
  24:./Libraries/CMSIS/DSP/Source/StatisticsFunctions/arm_mean_f32.c ****  * WARRANTIES OR CONDITIONS OF ANY KIND, either express or implied.
  25:./Libraries/CMSIS/DSP/Source/StatisticsFunctions/arm_mean_f32.c ****  * See the License for the specific language governing permissions and
  26:./Libraries/CMSIS/DSP/Source/StatisticsFunctions/arm_mean_f32.c ****  * limitations under the License.
  27:./Libraries/CMSIS/DSP/Source/StatisticsFunctions/arm_mean_f32.c ****  */
  28:./Libraries/CMSIS/DSP/Source/StatisticsFunctions/arm_mean_f32.c **** 
  29:./Libraries/CMSIS/DSP/Source/StatisticsFunctions/arm_mean_f32.c **** #include "arm_math.h"
  30:./Libraries/CMSIS/DSP/Source/StatisticsFunctions/arm_mean_f32.c **** 
  31:./Libraries/CMSIS/DSP/Source/StatisticsFunctions/arm_mean_f32.c **** /**
ARM GAS  /tmp/cc4GyUlP.s 			page 2


  32:./Libraries/CMSIS/DSP/Source/StatisticsFunctions/arm_mean_f32.c ****   @ingroup groupStats
  33:./Libraries/CMSIS/DSP/Source/StatisticsFunctions/arm_mean_f32.c ****  */
  34:./Libraries/CMSIS/DSP/Source/StatisticsFunctions/arm_mean_f32.c **** 
  35:./Libraries/CMSIS/DSP/Source/StatisticsFunctions/arm_mean_f32.c **** /**
  36:./Libraries/CMSIS/DSP/Source/StatisticsFunctions/arm_mean_f32.c ****   @defgroup mean Mean
  37:./Libraries/CMSIS/DSP/Source/StatisticsFunctions/arm_mean_f32.c **** 
  38:./Libraries/CMSIS/DSP/Source/StatisticsFunctions/arm_mean_f32.c ****   Calculates the mean of the input vector. Mean is defined as the average of the elements in the ve
  39:./Libraries/CMSIS/DSP/Source/StatisticsFunctions/arm_mean_f32.c ****   The underlying algorithm is used:
  40:./Libraries/CMSIS/DSP/Source/StatisticsFunctions/arm_mean_f32.c **** 
  41:./Libraries/CMSIS/DSP/Source/StatisticsFunctions/arm_mean_f32.c ****   <pre>
  42:./Libraries/CMSIS/DSP/Source/StatisticsFunctions/arm_mean_f32.c ****       Result = (pSrc[0] + pSrc[1] + pSrc[2] + ... + pSrc[blockSize-1]) / blockSize;
  43:./Libraries/CMSIS/DSP/Source/StatisticsFunctions/arm_mean_f32.c ****   </pre>
  44:./Libraries/CMSIS/DSP/Source/StatisticsFunctions/arm_mean_f32.c **** 
  45:./Libraries/CMSIS/DSP/Source/StatisticsFunctions/arm_mean_f32.c ****   There are separate functions for floating-point, Q31, Q15, and Q7 data types.
  46:./Libraries/CMSIS/DSP/Source/StatisticsFunctions/arm_mean_f32.c ****  */
  47:./Libraries/CMSIS/DSP/Source/StatisticsFunctions/arm_mean_f32.c **** 
  48:./Libraries/CMSIS/DSP/Source/StatisticsFunctions/arm_mean_f32.c **** /**
  49:./Libraries/CMSIS/DSP/Source/StatisticsFunctions/arm_mean_f32.c ****   @addtogroup mean
  50:./Libraries/CMSIS/DSP/Source/StatisticsFunctions/arm_mean_f32.c ****   @{
  51:./Libraries/CMSIS/DSP/Source/StatisticsFunctions/arm_mean_f32.c ****  */
  52:./Libraries/CMSIS/DSP/Source/StatisticsFunctions/arm_mean_f32.c **** 
  53:./Libraries/CMSIS/DSP/Source/StatisticsFunctions/arm_mean_f32.c **** /**
  54:./Libraries/CMSIS/DSP/Source/StatisticsFunctions/arm_mean_f32.c ****   @brief         Mean value of a floating-point vector.
  55:./Libraries/CMSIS/DSP/Source/StatisticsFunctions/arm_mean_f32.c ****   @param[in]     pSrc       points to the input vector.
  56:./Libraries/CMSIS/DSP/Source/StatisticsFunctions/arm_mean_f32.c ****   @param[in]     blockSize  number of samples in input vector.
  57:./Libraries/CMSIS/DSP/Source/StatisticsFunctions/arm_mean_f32.c ****   @param[out]    pResult    mean value returned here.
  58:./Libraries/CMSIS/DSP/Source/StatisticsFunctions/arm_mean_f32.c ****   @return        none
  59:./Libraries/CMSIS/DSP/Source/StatisticsFunctions/arm_mean_f32.c ****  */
  60:./Libraries/CMSIS/DSP/Source/StatisticsFunctions/arm_mean_f32.c **** #if defined(ARM_MATH_NEON_EXPERIMENTAL)
  61:./Libraries/CMSIS/DSP/Source/StatisticsFunctions/arm_mean_f32.c **** void arm_mean_f32(
  62:./Libraries/CMSIS/DSP/Source/StatisticsFunctions/arm_mean_f32.c ****   const float32_t * pSrc,
  63:./Libraries/CMSIS/DSP/Source/StatisticsFunctions/arm_mean_f32.c ****   uint32_t blockSize,
  64:./Libraries/CMSIS/DSP/Source/StatisticsFunctions/arm_mean_f32.c ****   float32_t * pResult)
  65:./Libraries/CMSIS/DSP/Source/StatisticsFunctions/arm_mean_f32.c **** {
  66:./Libraries/CMSIS/DSP/Source/StatisticsFunctions/arm_mean_f32.c ****   float32_t sum = 0.0f;                          /* Temporary result storage */
  67:./Libraries/CMSIS/DSP/Source/StatisticsFunctions/arm_mean_f32.c ****   float32x4_t sumV = vdupq_n_f32(0.0f);                          /* Temporary result storage */
  68:./Libraries/CMSIS/DSP/Source/StatisticsFunctions/arm_mean_f32.c ****   float32x2_t sumV2;
  69:./Libraries/CMSIS/DSP/Source/StatisticsFunctions/arm_mean_f32.c **** 
  70:./Libraries/CMSIS/DSP/Source/StatisticsFunctions/arm_mean_f32.c ****   uint32_t blkCnt;                               /* Loop counter */
  71:./Libraries/CMSIS/DSP/Source/StatisticsFunctions/arm_mean_f32.c **** 
  72:./Libraries/CMSIS/DSP/Source/StatisticsFunctions/arm_mean_f32.c ****   float32_t in1, in2, in3, in4;
  73:./Libraries/CMSIS/DSP/Source/StatisticsFunctions/arm_mean_f32.c ****   float32x4_t inV;
  74:./Libraries/CMSIS/DSP/Source/StatisticsFunctions/arm_mean_f32.c **** 
  75:./Libraries/CMSIS/DSP/Source/StatisticsFunctions/arm_mean_f32.c ****   blkCnt = blockSize >> 2U;
  76:./Libraries/CMSIS/DSP/Source/StatisticsFunctions/arm_mean_f32.c **** 
  77:./Libraries/CMSIS/DSP/Source/StatisticsFunctions/arm_mean_f32.c ****   /* Compute 4 outputs at a time.
  78:./Libraries/CMSIS/DSP/Source/StatisticsFunctions/arm_mean_f32.c ****    ** a second loop below computes the remaining 1 to 3 samples. */
  79:./Libraries/CMSIS/DSP/Source/StatisticsFunctions/arm_mean_f32.c ****   while (blkCnt > 0U)
  80:./Libraries/CMSIS/DSP/Source/StatisticsFunctions/arm_mean_f32.c ****   {
  81:./Libraries/CMSIS/DSP/Source/StatisticsFunctions/arm_mean_f32.c ****     /* C = (A[0] + A[1] + A[2] + ... + A[blockSize-1]) */
  82:./Libraries/CMSIS/DSP/Source/StatisticsFunctions/arm_mean_f32.c ****     inV = vld1q_f32(pSrc);
  83:./Libraries/CMSIS/DSP/Source/StatisticsFunctions/arm_mean_f32.c ****     sumV = vaddq_f32(sumV, inV);
  84:./Libraries/CMSIS/DSP/Source/StatisticsFunctions/arm_mean_f32.c ****     
  85:./Libraries/CMSIS/DSP/Source/StatisticsFunctions/arm_mean_f32.c ****     pSrc += 4;
  86:./Libraries/CMSIS/DSP/Source/StatisticsFunctions/arm_mean_f32.c ****     /* Decrement the loop counter */
  87:./Libraries/CMSIS/DSP/Source/StatisticsFunctions/arm_mean_f32.c ****     blkCnt--;
  88:./Libraries/CMSIS/DSP/Source/StatisticsFunctions/arm_mean_f32.c ****   }
ARM GAS  /tmp/cc4GyUlP.s 			page 3


  89:./Libraries/CMSIS/DSP/Source/StatisticsFunctions/arm_mean_f32.c **** 
  90:./Libraries/CMSIS/DSP/Source/StatisticsFunctions/arm_mean_f32.c ****   sumV2 = vpadd_f32(vget_low_f32(sumV),vget_high_f32(sumV));
  91:./Libraries/CMSIS/DSP/Source/StatisticsFunctions/arm_mean_f32.c ****   sum = sumV2[0] + sumV2[1];
  92:./Libraries/CMSIS/DSP/Source/StatisticsFunctions/arm_mean_f32.c **** 
  93:./Libraries/CMSIS/DSP/Source/StatisticsFunctions/arm_mean_f32.c ****   /* If the blockSize is not a multiple of 4, compute any remaining output samples here.
  94:./Libraries/CMSIS/DSP/Source/StatisticsFunctions/arm_mean_f32.c ****    ** No loop unrolling is used. */
  95:./Libraries/CMSIS/DSP/Source/StatisticsFunctions/arm_mean_f32.c ****   blkCnt = blockSize & 3;
  96:./Libraries/CMSIS/DSP/Source/StatisticsFunctions/arm_mean_f32.c **** 
  97:./Libraries/CMSIS/DSP/Source/StatisticsFunctions/arm_mean_f32.c ****   while (blkCnt > 0U)
  98:./Libraries/CMSIS/DSP/Source/StatisticsFunctions/arm_mean_f32.c ****   {
  99:./Libraries/CMSIS/DSP/Source/StatisticsFunctions/arm_mean_f32.c ****     /* C = (A[0] + A[1] + A[2] + ... + A[blockSize-1]) */
 100:./Libraries/CMSIS/DSP/Source/StatisticsFunctions/arm_mean_f32.c ****     sum += *pSrc++;
 101:./Libraries/CMSIS/DSP/Source/StatisticsFunctions/arm_mean_f32.c **** 
 102:./Libraries/CMSIS/DSP/Source/StatisticsFunctions/arm_mean_f32.c ****     /* Decrement the loop counter */
 103:./Libraries/CMSIS/DSP/Source/StatisticsFunctions/arm_mean_f32.c ****     blkCnt--;
 104:./Libraries/CMSIS/DSP/Source/StatisticsFunctions/arm_mean_f32.c ****   }
 105:./Libraries/CMSIS/DSP/Source/StatisticsFunctions/arm_mean_f32.c **** 
 106:./Libraries/CMSIS/DSP/Source/StatisticsFunctions/arm_mean_f32.c ****   /* C = (A[0] + A[1] + A[2] + ... + A[blockSize-1]) / blockSize  */
 107:./Libraries/CMSIS/DSP/Source/StatisticsFunctions/arm_mean_f32.c ****   /* Store the result to the destination */
 108:./Libraries/CMSIS/DSP/Source/StatisticsFunctions/arm_mean_f32.c ****   *pResult = sum / (float32_t) blockSize;
 109:./Libraries/CMSIS/DSP/Source/StatisticsFunctions/arm_mean_f32.c **** }
 110:./Libraries/CMSIS/DSP/Source/StatisticsFunctions/arm_mean_f32.c **** #else
 111:./Libraries/CMSIS/DSP/Source/StatisticsFunctions/arm_mean_f32.c **** void arm_mean_f32(
 112:./Libraries/CMSIS/DSP/Source/StatisticsFunctions/arm_mean_f32.c ****   const float32_t * pSrc,
 113:./Libraries/CMSIS/DSP/Source/StatisticsFunctions/arm_mean_f32.c ****         uint32_t blockSize,
 114:./Libraries/CMSIS/DSP/Source/StatisticsFunctions/arm_mean_f32.c ****         float32_t * pResult)
 115:./Libraries/CMSIS/DSP/Source/StatisticsFunctions/arm_mean_f32.c **** {
  28              		.loc 1 115 1
  29              		.cfi_startproc
  30              		@ args = 0, pretend = 0, frame = 24
  31              		@ frame_needed = 1, uses_anonymous_args = 0
  32              		@ link register save eliminated.
  33 0000 80B4     		push	{r7}
  34              	.LCFI0:
  35              		.cfi_def_cfa_offset 4
  36              		.cfi_offset 7, -4
  37 0002 87B0     		sub	sp, sp, #28
  38              	.LCFI1:
  39              		.cfi_def_cfa_offset 32
  40 0004 00AF     		add	r7, sp, #0
  41              	.LCFI2:
  42              		.cfi_def_cfa_register 7
  43 0006 F860     		str	r0, [r7, #12]
  44 0008 B960     		str	r1, [r7, #8]
  45 000a 7A60     		str	r2, [r7, #4]
 116:./Libraries/CMSIS/DSP/Source/StatisticsFunctions/arm_mean_f32.c ****         uint32_t blkCnt;                               /* Loop counter */
 117:./Libraries/CMSIS/DSP/Source/StatisticsFunctions/arm_mean_f32.c ****         float32_t sum = 0.0f;                          /* Temporary result storage */
  46              		.loc 1 117 19
  47 000c 4FF00003 		mov	r3, #0
  48 0010 3B61     		str	r3, [r7, #16]	@ float
 118:./Libraries/CMSIS/DSP/Source/StatisticsFunctions/arm_mean_f32.c **** 
 119:./Libraries/CMSIS/DSP/Source/StatisticsFunctions/arm_mean_f32.c **** #if defined (ARM_MATH_LOOPUNROLL)
 120:./Libraries/CMSIS/DSP/Source/StatisticsFunctions/arm_mean_f32.c **** 
 121:./Libraries/CMSIS/DSP/Source/StatisticsFunctions/arm_mean_f32.c ****   /* Loop unrolling: Compute 4 outputs at a time */
 122:./Libraries/CMSIS/DSP/Source/StatisticsFunctions/arm_mean_f32.c ****   blkCnt = blockSize >> 2U;
 123:./Libraries/CMSIS/DSP/Source/StatisticsFunctions/arm_mean_f32.c **** 
 124:./Libraries/CMSIS/DSP/Source/StatisticsFunctions/arm_mean_f32.c ****   while (blkCnt > 0U)
ARM GAS  /tmp/cc4GyUlP.s 			page 4


 125:./Libraries/CMSIS/DSP/Source/StatisticsFunctions/arm_mean_f32.c ****   {
 126:./Libraries/CMSIS/DSP/Source/StatisticsFunctions/arm_mean_f32.c ****     /* C = (A[0] + A[1] + A[2] + ... + A[blockSize-1]) */
 127:./Libraries/CMSIS/DSP/Source/StatisticsFunctions/arm_mean_f32.c ****     sum += *pSrc++;
 128:./Libraries/CMSIS/DSP/Source/StatisticsFunctions/arm_mean_f32.c **** 
 129:./Libraries/CMSIS/DSP/Source/StatisticsFunctions/arm_mean_f32.c ****     sum += *pSrc++;
 130:./Libraries/CMSIS/DSP/Source/StatisticsFunctions/arm_mean_f32.c **** 
 131:./Libraries/CMSIS/DSP/Source/StatisticsFunctions/arm_mean_f32.c ****     sum += *pSrc++;
 132:./Libraries/CMSIS/DSP/Source/StatisticsFunctions/arm_mean_f32.c **** 
 133:./Libraries/CMSIS/DSP/Source/StatisticsFunctions/arm_mean_f32.c ****     sum += *pSrc++;
 134:./Libraries/CMSIS/DSP/Source/StatisticsFunctions/arm_mean_f32.c **** 
 135:./Libraries/CMSIS/DSP/Source/StatisticsFunctions/arm_mean_f32.c ****     /* Decrement the loop counter */
 136:./Libraries/CMSIS/DSP/Source/StatisticsFunctions/arm_mean_f32.c ****     blkCnt--;
 137:./Libraries/CMSIS/DSP/Source/StatisticsFunctions/arm_mean_f32.c ****   }
 138:./Libraries/CMSIS/DSP/Source/StatisticsFunctions/arm_mean_f32.c **** 
 139:./Libraries/CMSIS/DSP/Source/StatisticsFunctions/arm_mean_f32.c ****   /* Loop unrolling: Compute remaining outputs */
 140:./Libraries/CMSIS/DSP/Source/StatisticsFunctions/arm_mean_f32.c ****   blkCnt = blockSize % 0x4U;
 141:./Libraries/CMSIS/DSP/Source/StatisticsFunctions/arm_mean_f32.c **** 
 142:./Libraries/CMSIS/DSP/Source/StatisticsFunctions/arm_mean_f32.c **** #else
 143:./Libraries/CMSIS/DSP/Source/StatisticsFunctions/arm_mean_f32.c **** 
 144:./Libraries/CMSIS/DSP/Source/StatisticsFunctions/arm_mean_f32.c ****   /* Initialize blkCnt with number of samples */
 145:./Libraries/CMSIS/DSP/Source/StatisticsFunctions/arm_mean_f32.c ****   blkCnt = blockSize;
  49              		.loc 1 145 10
  50 0012 BB68     		ldr	r3, [r7, #8]
  51 0014 7B61     		str	r3, [r7, #20]
 146:./Libraries/CMSIS/DSP/Source/StatisticsFunctions/arm_mean_f32.c **** 
 147:./Libraries/CMSIS/DSP/Source/StatisticsFunctions/arm_mean_f32.c **** #endif /* #if defined (ARM_MATH_LOOPUNROLL) */
 148:./Libraries/CMSIS/DSP/Source/StatisticsFunctions/arm_mean_f32.c **** 
 149:./Libraries/CMSIS/DSP/Source/StatisticsFunctions/arm_mean_f32.c ****   while (blkCnt > 0U)
  52              		.loc 1 149 9
  53 0016 0DE0     		b	.L2
  54              	.L3:
 150:./Libraries/CMSIS/DSP/Source/StatisticsFunctions/arm_mean_f32.c ****   {
 151:./Libraries/CMSIS/DSP/Source/StatisticsFunctions/arm_mean_f32.c ****     /* C = (A[0] + A[1] + A[2] + ... + A[blockSize-1]) */
 152:./Libraries/CMSIS/DSP/Source/StatisticsFunctions/arm_mean_f32.c ****     sum += *pSrc++;
  55              		.loc 1 152 17
  56 0018 FB68     		ldr	r3, [r7, #12]
  57 001a 1A1D     		adds	r2, r3, #4
  58 001c FA60     		str	r2, [r7, #12]
  59              		.loc 1 152 12
  60 001e D3ED007A 		vldr.32	s15, [r3]
  61              		.loc 1 152 9
  62 0022 97ED047A 		vldr.32	s14, [r7, #16]
  63 0026 77EE277A 		vadd.f32	s15, s14, s15
  64 002a C7ED047A 		vstr.32	s15, [r7, #16]
 153:./Libraries/CMSIS/DSP/Source/StatisticsFunctions/arm_mean_f32.c **** 
 154:./Libraries/CMSIS/DSP/Source/StatisticsFunctions/arm_mean_f32.c ****     /* Decrement loop counter */
 155:./Libraries/CMSIS/DSP/Source/StatisticsFunctions/arm_mean_f32.c ****     blkCnt--;
  65              		.loc 1 155 11
  66 002e 7B69     		ldr	r3, [r7, #20]
  67 0030 013B     		subs	r3, r3, #1
  68 0032 7B61     		str	r3, [r7, #20]
  69              	.L2:
 149:./Libraries/CMSIS/DSP/Source/StatisticsFunctions/arm_mean_f32.c ****   {
  70              		.loc 1 149 9
  71 0034 7B69     		ldr	r3, [r7, #20]
  72 0036 002B     		cmp	r3, #0
  73 0038 EED1     		bne	.L3
ARM GAS  /tmp/cc4GyUlP.s 			page 5


 156:./Libraries/CMSIS/DSP/Source/StatisticsFunctions/arm_mean_f32.c ****   }
 157:./Libraries/CMSIS/DSP/Source/StatisticsFunctions/arm_mean_f32.c **** 
 158:./Libraries/CMSIS/DSP/Source/StatisticsFunctions/arm_mean_f32.c ****   /* C = (A[0] + A[1] + A[2] + ... + A[blockSize-1]) / blockSize  */
 159:./Libraries/CMSIS/DSP/Source/StatisticsFunctions/arm_mean_f32.c ****   /* Store result to destination */
 160:./Libraries/CMSIS/DSP/Source/StatisticsFunctions/arm_mean_f32.c ****   *pResult = (sum / blockSize);
  74              		.loc 1 160 19
  75 003a BB68     		ldr	r3, [r7, #8]
  76 003c 07EE903A 		vmov	s15, r3	@ int
  77 0040 B8EE677A 		vcvt.f32.u32	s14, s15
  78 0044 D7ED046A 		vldr.32	s13, [r7, #16]
  79 0048 C6EE877A 		vdiv.f32	s15, s13, s14
  80              		.loc 1 160 12
  81 004c 7B68     		ldr	r3, [r7, #4]
  82 004e C3ED007A 		vstr.32	s15, [r3]
 161:./Libraries/CMSIS/DSP/Source/StatisticsFunctions/arm_mean_f32.c **** }
  83              		.loc 1 161 1
  84 0052 00BF     		nop
  85 0054 1C37     		adds	r7, r7, #28
  86              	.LCFI3:
  87              		.cfi_def_cfa_offset 4
  88 0056 BD46     		mov	sp, r7
  89              	.LCFI4:
  90              		.cfi_def_cfa_register 13
  91              		@ sp needed
  92 0058 5DF8047B 		ldr	r7, [sp], #4
  93              	.LCFI5:
  94              		.cfi_restore 7
  95              		.cfi_def_cfa_offset 0
  96 005c 7047     		bx	lr
  97              		.cfi_endproc
  98              	.LFE145:
 100              		.text
 101              	.Letext0:
 102              		.file 2 "/usr/lib/gcc/arm-none-eabi/9.2.1/include/stdint.h"
 103              		.file 3 "/usr/lib/gcc/arm-none-eabi/9.2.1/include/stddef.h"
 104              		.file 4 "/usr/include/newlib/sys/_types.h"
 105              		.file 5 "/usr/include/newlib/sys/reent.h"
 106              		.file 6 "/usr/include/newlib/sys/lock.h"
 107              		.file 7 "/usr/include/newlib/math.h"
 108              		.file 8 "./Libraries/CMSIS/DSP/Include/arm_math.h"
ARM GAS  /tmp/cc4GyUlP.s 			page 6

