ARM GAS  /tmp/ccr8Iymg.s 			page 1


   1              		.cpu cortex-m7
   2              		.eabi_attribute 28, 1
   3              		.eabi_attribute 20, 1
   4              		.eabi_attribute 21, 1
   5              		.eabi_attribute 23, 3
   6              		.eabi_attribute 24, 1
   7              		.eabi_attribute 25, 1
   8              		.eabi_attribute 26, 1
   9              		.eabi_attribute 30, 6
  10              		.eabi_attribute 34, 1
  11              		.eabi_attribute 18, 4
  12              		.file	"stm32h7xx_hal_gpio.c"
  13              		.text
  14              	.Ltext0:
  15              		.cfi_sections	.debug_frame
  16              		.section	.text.HAL_GPIO_Init,"ax",%progbits
  17              		.align	1
  18              		.global	HAL_GPIO_Init
  19              		.arch armv7e-m
  20              		.syntax unified
  21              		.thumb
  22              		.thumb_func
  23              		.fpu fpv5-d16
  25              	HAL_GPIO_Init:
  26              	.LFB331:
  27              		.file 1 "./Libraries/STM32H7xx_HAL_Driver/Src/stm32h7xx_hal_gpio.c"
   1:./Libraries/STM32H7xx_HAL_Driver/Src/stm32h7xx_hal_gpio.c **** /**
   2:./Libraries/STM32H7xx_HAL_Driver/Src/stm32h7xx_hal_gpio.c ****   ******************************************************************************
   3:./Libraries/STM32H7xx_HAL_Driver/Src/stm32h7xx_hal_gpio.c ****   * @file    stm32h7xx_hal_gpio.c
   4:./Libraries/STM32H7xx_HAL_Driver/Src/stm32h7xx_hal_gpio.c ****   * @author  MCD Application Team
   5:./Libraries/STM32H7xx_HAL_Driver/Src/stm32h7xx_hal_gpio.c ****   * @brief   GPIO HAL module driver.
   6:./Libraries/STM32H7xx_HAL_Driver/Src/stm32h7xx_hal_gpio.c ****   *          This file provides firmware functions to manage the following
   7:./Libraries/STM32H7xx_HAL_Driver/Src/stm32h7xx_hal_gpio.c ****   *          functionalities of the General Purpose Input/Output (GPIO) peripheral:
   8:./Libraries/STM32H7xx_HAL_Driver/Src/stm32h7xx_hal_gpio.c ****   *           + Initialization and de-initialization functions
   9:./Libraries/STM32H7xx_HAL_Driver/Src/stm32h7xx_hal_gpio.c ****   *           + IO operation functions
  10:./Libraries/STM32H7xx_HAL_Driver/Src/stm32h7xx_hal_gpio.c ****   *
  11:./Libraries/STM32H7xx_HAL_Driver/Src/stm32h7xx_hal_gpio.c ****   @verbatim
  12:./Libraries/STM32H7xx_HAL_Driver/Src/stm32h7xx_hal_gpio.c ****   ==============================================================================
  13:./Libraries/STM32H7xx_HAL_Driver/Src/stm32h7xx_hal_gpio.c ****                     ##### GPIO Peripheral features #####
  14:./Libraries/STM32H7xx_HAL_Driver/Src/stm32h7xx_hal_gpio.c ****   ==============================================================================
  15:./Libraries/STM32H7xx_HAL_Driver/Src/stm32h7xx_hal_gpio.c ****   [..]
  16:./Libraries/STM32H7xx_HAL_Driver/Src/stm32h7xx_hal_gpio.c ****     (+) Each port bit of the general-purpose I/O (GPIO) ports can be individually
  17:./Libraries/STM32H7xx_HAL_Driver/Src/stm32h7xx_hal_gpio.c ****         configured by software in several modes:
  18:./Libraries/STM32H7xx_HAL_Driver/Src/stm32h7xx_hal_gpio.c ****         (++) Input mode
  19:./Libraries/STM32H7xx_HAL_Driver/Src/stm32h7xx_hal_gpio.c ****         (++) Analog mode
  20:./Libraries/STM32H7xx_HAL_Driver/Src/stm32h7xx_hal_gpio.c ****         (++) Output mode
  21:./Libraries/STM32H7xx_HAL_Driver/Src/stm32h7xx_hal_gpio.c ****         (++) Alternate function mode
  22:./Libraries/STM32H7xx_HAL_Driver/Src/stm32h7xx_hal_gpio.c ****         (++) External interrupt/event lines
  23:./Libraries/STM32H7xx_HAL_Driver/Src/stm32h7xx_hal_gpio.c **** 
  24:./Libraries/STM32H7xx_HAL_Driver/Src/stm32h7xx_hal_gpio.c ****     (+) During and just after reset, the alternate functions and external interrupt
  25:./Libraries/STM32H7xx_HAL_Driver/Src/stm32h7xx_hal_gpio.c ****         lines are not active and the I/O ports are configured in input floating mode.
  26:./Libraries/STM32H7xx_HAL_Driver/Src/stm32h7xx_hal_gpio.c **** 
  27:./Libraries/STM32H7xx_HAL_Driver/Src/stm32h7xx_hal_gpio.c ****     (+) All GPIO pins have weak internal pull-up and pull-down resistors, which can be
  28:./Libraries/STM32H7xx_HAL_Driver/Src/stm32h7xx_hal_gpio.c ****         activated or not.
  29:./Libraries/STM32H7xx_HAL_Driver/Src/stm32h7xx_hal_gpio.c **** 
  30:./Libraries/STM32H7xx_HAL_Driver/Src/stm32h7xx_hal_gpio.c ****     (+) In Output or Alternate mode, each IO can be configured on open-drain or push-pull
  31:./Libraries/STM32H7xx_HAL_Driver/Src/stm32h7xx_hal_gpio.c ****         type and the IO speed can be selected depending on the VDD value.
ARM GAS  /tmp/ccr8Iymg.s 			page 2


  32:./Libraries/STM32H7xx_HAL_Driver/Src/stm32h7xx_hal_gpio.c **** 
  33:./Libraries/STM32H7xx_HAL_Driver/Src/stm32h7xx_hal_gpio.c ****     (+) The microcontroller IO pins are connected to onboard peripherals/modules through a
  34:./Libraries/STM32H7xx_HAL_Driver/Src/stm32h7xx_hal_gpio.c ****         multiplexer that allows only one peripheral alternate function (AF) connected
  35:./Libraries/STM32H7xx_HAL_Driver/Src/stm32h7xx_hal_gpio.c ****        to an IO pin at a time. In this way, there can be no conflict between peripherals
  36:./Libraries/STM32H7xx_HAL_Driver/Src/stm32h7xx_hal_gpio.c ****        sharing the same IO pin.
  37:./Libraries/STM32H7xx_HAL_Driver/Src/stm32h7xx_hal_gpio.c **** 
  38:./Libraries/STM32H7xx_HAL_Driver/Src/stm32h7xx_hal_gpio.c ****     (+) All ports have external interrupt/event capability. To use external interrupt
  39:./Libraries/STM32H7xx_HAL_Driver/Src/stm32h7xx_hal_gpio.c ****         lines, the port must be configured in input mode. All available GPIO pins are
  40:./Libraries/STM32H7xx_HAL_Driver/Src/stm32h7xx_hal_gpio.c ****         connected to the 16 external interrupt/event lines from EXTI0 to EXTI15.
  41:./Libraries/STM32H7xx_HAL_Driver/Src/stm32h7xx_hal_gpio.c **** 
  42:./Libraries/STM32H7xx_HAL_Driver/Src/stm32h7xx_hal_gpio.c ****   The external interrupt/event controller consists of up to 23 edge detectors
  43:./Libraries/STM32H7xx_HAL_Driver/Src/stm32h7xx_hal_gpio.c ****         (16 lines are connected to GPIO) for generating event/interrupt requests (each
  44:./Libraries/STM32H7xx_HAL_Driver/Src/stm32h7xx_hal_gpio.c ****         input line can be independently configured to select the type (interrupt or event)
  45:./Libraries/STM32H7xx_HAL_Driver/Src/stm32h7xx_hal_gpio.c ****         and the corresponding trigger event (rising or falling or both). Each line can
  46:./Libraries/STM32H7xx_HAL_Driver/Src/stm32h7xx_hal_gpio.c ****         also be masked independently.
  47:./Libraries/STM32H7xx_HAL_Driver/Src/stm32h7xx_hal_gpio.c **** 
  48:./Libraries/STM32H7xx_HAL_Driver/Src/stm32h7xx_hal_gpio.c ****                      ##### How to use this driver #####
  49:./Libraries/STM32H7xx_HAL_Driver/Src/stm32h7xx_hal_gpio.c ****   ==============================================================================
  50:./Libraries/STM32H7xx_HAL_Driver/Src/stm32h7xx_hal_gpio.c ****   [..]
  51:./Libraries/STM32H7xx_HAL_Driver/Src/stm32h7xx_hal_gpio.c ****     (#) Enable the GPIO AHB clock using the following function: __HAL_RCC_GPIOx_CLK_ENABLE().
  52:./Libraries/STM32H7xx_HAL_Driver/Src/stm32h7xx_hal_gpio.c **** 
  53:./Libraries/STM32H7xx_HAL_Driver/Src/stm32h7xx_hal_gpio.c ****     (#) Configure the GPIO pin(s) using HAL_GPIO_Init().
  54:./Libraries/STM32H7xx_HAL_Driver/Src/stm32h7xx_hal_gpio.c ****         (++) Configure the IO mode using "Mode" member from GPIO_InitTypeDef structure
  55:./Libraries/STM32H7xx_HAL_Driver/Src/stm32h7xx_hal_gpio.c ****         (++) Activate Pull-up, Pull-down resistor using "Pull" member from GPIO_InitTypeDef
  56:./Libraries/STM32H7xx_HAL_Driver/Src/stm32h7xx_hal_gpio.c ****              structure.
  57:./Libraries/STM32H7xx_HAL_Driver/Src/stm32h7xx_hal_gpio.c ****         (++) In case of Output or alternate function mode selection: the speed is
  58:./Libraries/STM32H7xx_HAL_Driver/Src/stm32h7xx_hal_gpio.c ****              configured through "Speed" member from GPIO_InitTypeDef structure.
  59:./Libraries/STM32H7xx_HAL_Driver/Src/stm32h7xx_hal_gpio.c ****         (++) In alternate mode is selection, the alternate function connected to the IO
  60:./Libraries/STM32H7xx_HAL_Driver/Src/stm32h7xx_hal_gpio.c ****              is configured through "Alternate" member from GPIO_InitTypeDef structure.
  61:./Libraries/STM32H7xx_HAL_Driver/Src/stm32h7xx_hal_gpio.c ****         (++) Analog mode is required when a pin is to be used as ADC channel
  62:./Libraries/STM32H7xx_HAL_Driver/Src/stm32h7xx_hal_gpio.c ****              or DAC output.
  63:./Libraries/STM32H7xx_HAL_Driver/Src/stm32h7xx_hal_gpio.c ****         (++) In case of external interrupt/event selection the "Mode" member from
  64:./Libraries/STM32H7xx_HAL_Driver/Src/stm32h7xx_hal_gpio.c ****              GPIO_InitTypeDef structure select the type (interrupt or event) and
  65:./Libraries/STM32H7xx_HAL_Driver/Src/stm32h7xx_hal_gpio.c ****              the corresponding trigger event (rising or falling or both).
  66:./Libraries/STM32H7xx_HAL_Driver/Src/stm32h7xx_hal_gpio.c **** 
  67:./Libraries/STM32H7xx_HAL_Driver/Src/stm32h7xx_hal_gpio.c ****     (#) In case of external interrupt/event mode selection, configure NVIC IRQ priority
  68:./Libraries/STM32H7xx_HAL_Driver/Src/stm32h7xx_hal_gpio.c ****         mapped to the EXTI line using HAL_NVIC_SetPriority() and enable it using
  69:./Libraries/STM32H7xx_HAL_Driver/Src/stm32h7xx_hal_gpio.c ****         HAL_NVIC_EnableIRQ().
  70:./Libraries/STM32H7xx_HAL_Driver/Src/stm32h7xx_hal_gpio.c **** 
  71:./Libraries/STM32H7xx_HAL_Driver/Src/stm32h7xx_hal_gpio.c ****     (#) To get the level of a pin configured in input mode use HAL_GPIO_ReadPin().
  72:./Libraries/STM32H7xx_HAL_Driver/Src/stm32h7xx_hal_gpio.c **** 
  73:./Libraries/STM32H7xx_HAL_Driver/Src/stm32h7xx_hal_gpio.c ****     (#) To set/reset the level of a pin configured in output mode use
  74:./Libraries/STM32H7xx_HAL_Driver/Src/stm32h7xx_hal_gpio.c ****         HAL_GPIO_WritePin()/HAL_GPIO_TogglePin().
  75:./Libraries/STM32H7xx_HAL_Driver/Src/stm32h7xx_hal_gpio.c **** 
  76:./Libraries/STM32H7xx_HAL_Driver/Src/stm32h7xx_hal_gpio.c ****    (#) To lock pin configuration until next reset use HAL_GPIO_LockPin().
  77:./Libraries/STM32H7xx_HAL_Driver/Src/stm32h7xx_hal_gpio.c **** 
  78:./Libraries/STM32H7xx_HAL_Driver/Src/stm32h7xx_hal_gpio.c **** 
  79:./Libraries/STM32H7xx_HAL_Driver/Src/stm32h7xx_hal_gpio.c ****     (#) During and just after reset, the alternate functions are not
  80:./Libraries/STM32H7xx_HAL_Driver/Src/stm32h7xx_hal_gpio.c ****         active and the GPIO pins are configured in input floating mode (except JTAG
  81:./Libraries/STM32H7xx_HAL_Driver/Src/stm32h7xx_hal_gpio.c ****         pins).
  82:./Libraries/STM32H7xx_HAL_Driver/Src/stm32h7xx_hal_gpio.c **** 
  83:./Libraries/STM32H7xx_HAL_Driver/Src/stm32h7xx_hal_gpio.c ****     (#) The LSE oscillator pins OSC32_IN and OSC32_OUT can be used as general purpose
  84:./Libraries/STM32H7xx_HAL_Driver/Src/stm32h7xx_hal_gpio.c ****         (PC14 and PC15, respectively) when the LSE oscillator is off. The LSE has
  85:./Libraries/STM32H7xx_HAL_Driver/Src/stm32h7xx_hal_gpio.c ****         priority over the GPIO function.
  86:./Libraries/STM32H7xx_HAL_Driver/Src/stm32h7xx_hal_gpio.c **** 
  87:./Libraries/STM32H7xx_HAL_Driver/Src/stm32h7xx_hal_gpio.c ****     (#) The HSE oscillator pins OSC_IN/OSC_OUT can be used as
  88:./Libraries/STM32H7xx_HAL_Driver/Src/stm32h7xx_hal_gpio.c ****         general purpose PH0 and PH1, respectively, when the HSE oscillator is off.
ARM GAS  /tmp/ccr8Iymg.s 			page 3


  89:./Libraries/STM32H7xx_HAL_Driver/Src/stm32h7xx_hal_gpio.c ****         The HSE has priority over the GPIO function.
  90:./Libraries/STM32H7xx_HAL_Driver/Src/stm32h7xx_hal_gpio.c **** 
  91:./Libraries/STM32H7xx_HAL_Driver/Src/stm32h7xx_hal_gpio.c ****   @endverbatim
  92:./Libraries/STM32H7xx_HAL_Driver/Src/stm32h7xx_hal_gpio.c ****   ******************************************************************************
  93:./Libraries/STM32H7xx_HAL_Driver/Src/stm32h7xx_hal_gpio.c ****   * @attention
  94:./Libraries/STM32H7xx_HAL_Driver/Src/stm32h7xx_hal_gpio.c ****   *
  95:./Libraries/STM32H7xx_HAL_Driver/Src/stm32h7xx_hal_gpio.c ****   * <h2><center>&copy; COPYRIGHT(c) 2017 STMicroelectronics.
  96:./Libraries/STM32H7xx_HAL_Driver/Src/stm32h7xx_hal_gpio.c ****   * All rights reserved.</center></h2>
  97:./Libraries/STM32H7xx_HAL_Driver/Src/stm32h7xx_hal_gpio.c ****   *
  98:./Libraries/STM32H7xx_HAL_Driver/Src/stm32h7xx_hal_gpio.c ****   * This software component is licensed by ST under BSD 3-Clause license,
  99:./Libraries/STM32H7xx_HAL_Driver/Src/stm32h7xx_hal_gpio.c ****   * the "License"; You may not use this file except in compliance with the
 100:./Libraries/STM32H7xx_HAL_Driver/Src/stm32h7xx_hal_gpio.c ****   * License. You may obtain a copy of the License at:
 101:./Libraries/STM32H7xx_HAL_Driver/Src/stm32h7xx_hal_gpio.c ****   *                        opensource.org/licenses/BSD-3-Clause
 102:./Libraries/STM32H7xx_HAL_Driver/Src/stm32h7xx_hal_gpio.c ****   *
 103:./Libraries/STM32H7xx_HAL_Driver/Src/stm32h7xx_hal_gpio.c ****   ******************************************************************************
 104:./Libraries/STM32H7xx_HAL_Driver/Src/stm32h7xx_hal_gpio.c ****   */
 105:./Libraries/STM32H7xx_HAL_Driver/Src/stm32h7xx_hal_gpio.c **** 
 106:./Libraries/STM32H7xx_HAL_Driver/Src/stm32h7xx_hal_gpio.c **** /* Includes ------------------------------------------------------------------*/
 107:./Libraries/STM32H7xx_HAL_Driver/Src/stm32h7xx_hal_gpio.c **** #include "stm32h7xx_hal.h"
 108:./Libraries/STM32H7xx_HAL_Driver/Src/stm32h7xx_hal_gpio.c **** 
 109:./Libraries/STM32H7xx_HAL_Driver/Src/stm32h7xx_hal_gpio.c **** /** @addtogroup STM32H7xx_HAL_Driver
 110:./Libraries/STM32H7xx_HAL_Driver/Src/stm32h7xx_hal_gpio.c ****   * @{
 111:./Libraries/STM32H7xx_HAL_Driver/Src/stm32h7xx_hal_gpio.c ****   */
 112:./Libraries/STM32H7xx_HAL_Driver/Src/stm32h7xx_hal_gpio.c **** 
 113:./Libraries/STM32H7xx_HAL_Driver/Src/stm32h7xx_hal_gpio.c **** /** @defgroup GPIO  GPIO
 114:./Libraries/STM32H7xx_HAL_Driver/Src/stm32h7xx_hal_gpio.c ****   * @brief GPIO HAL module driver
 115:./Libraries/STM32H7xx_HAL_Driver/Src/stm32h7xx_hal_gpio.c ****   * @{
 116:./Libraries/STM32H7xx_HAL_Driver/Src/stm32h7xx_hal_gpio.c ****   */
 117:./Libraries/STM32H7xx_HAL_Driver/Src/stm32h7xx_hal_gpio.c **** 
 118:./Libraries/STM32H7xx_HAL_Driver/Src/stm32h7xx_hal_gpio.c **** #ifdef HAL_GPIO_MODULE_ENABLED
 119:./Libraries/STM32H7xx_HAL_Driver/Src/stm32h7xx_hal_gpio.c **** 
 120:./Libraries/STM32H7xx_HAL_Driver/Src/stm32h7xx_hal_gpio.c **** /* Private typedef -----------------------------------------------------------*/
 121:./Libraries/STM32H7xx_HAL_Driver/Src/stm32h7xx_hal_gpio.c **** /* Private defines ------------------------------------------------------------*/
 122:./Libraries/STM32H7xx_HAL_Driver/Src/stm32h7xx_hal_gpio.c **** /** @addtogroup GPIO_Private_Constants GPIO Private Constants
 123:./Libraries/STM32H7xx_HAL_Driver/Src/stm32h7xx_hal_gpio.c ****   * @{
 124:./Libraries/STM32H7xx_HAL_Driver/Src/stm32h7xx_hal_gpio.c ****   */
 125:./Libraries/STM32H7xx_HAL_Driver/Src/stm32h7xx_hal_gpio.c **** #define GPIO_MODE             (0x00000003U)
 126:./Libraries/STM32H7xx_HAL_Driver/Src/stm32h7xx_hal_gpio.c **** #define ANALOG_MODE           (0x00000008U)
 127:./Libraries/STM32H7xx_HAL_Driver/Src/stm32h7xx_hal_gpio.c **** #define EXTI_MODE             (0x10000000U)
 128:./Libraries/STM32H7xx_HAL_Driver/Src/stm32h7xx_hal_gpio.c **** #define GPIO_MODE_IT          (0x00010000U)
 129:./Libraries/STM32H7xx_HAL_Driver/Src/stm32h7xx_hal_gpio.c **** #define GPIO_MODE_EVT         (0x00020000U)
 130:./Libraries/STM32H7xx_HAL_Driver/Src/stm32h7xx_hal_gpio.c **** #define RISING_EDGE           (0x00100000U)
 131:./Libraries/STM32H7xx_HAL_Driver/Src/stm32h7xx_hal_gpio.c **** #define FALLING_EDGE          (0x00200000U)
 132:./Libraries/STM32H7xx_HAL_Driver/Src/stm32h7xx_hal_gpio.c **** #define GPIO_OUTPUT_TYPE      (0x00000010U)
 133:./Libraries/STM32H7xx_HAL_Driver/Src/stm32h7xx_hal_gpio.c **** 
 134:./Libraries/STM32H7xx_HAL_Driver/Src/stm32h7xx_hal_gpio.c **** #if defined(DUAL_CORE)
 135:./Libraries/STM32H7xx_HAL_Driver/Src/stm32h7xx_hal_gpio.c **** #define EXTI_CPU1             (0x01000000U)
 136:./Libraries/STM32H7xx_HAL_Driver/Src/stm32h7xx_hal_gpio.c **** #define EXTI_CPU2             (0x02000000U)
 137:./Libraries/STM32H7xx_HAL_Driver/Src/stm32h7xx_hal_gpio.c **** #endif /*DUAL_CORE*/
 138:./Libraries/STM32H7xx_HAL_Driver/Src/stm32h7xx_hal_gpio.c **** #define GPIO_NUMBER           (16U)
 139:./Libraries/STM32H7xx_HAL_Driver/Src/stm32h7xx_hal_gpio.c **** /**
 140:./Libraries/STM32H7xx_HAL_Driver/Src/stm32h7xx_hal_gpio.c ****   * @}
 141:./Libraries/STM32H7xx_HAL_Driver/Src/stm32h7xx_hal_gpio.c ****   */
 142:./Libraries/STM32H7xx_HAL_Driver/Src/stm32h7xx_hal_gpio.c **** /* Private macro -------------------------------------------------------------*/
 143:./Libraries/STM32H7xx_HAL_Driver/Src/stm32h7xx_hal_gpio.c **** /* Private variables ---------------------------------------------------------*/
 144:./Libraries/STM32H7xx_HAL_Driver/Src/stm32h7xx_hal_gpio.c **** /* Private function prototypes -----------------------------------------------*/
 145:./Libraries/STM32H7xx_HAL_Driver/Src/stm32h7xx_hal_gpio.c **** /* Private functions ---------------------------------------------------------*/
ARM GAS  /tmp/ccr8Iymg.s 			page 4


 146:./Libraries/STM32H7xx_HAL_Driver/Src/stm32h7xx_hal_gpio.c **** /* Exported functions --------------------------------------------------------*/
 147:./Libraries/STM32H7xx_HAL_Driver/Src/stm32h7xx_hal_gpio.c **** /** @defgroup GPIO_Exported_Functions GPIO Exported Functions
 148:./Libraries/STM32H7xx_HAL_Driver/Src/stm32h7xx_hal_gpio.c ****   * @{
 149:./Libraries/STM32H7xx_HAL_Driver/Src/stm32h7xx_hal_gpio.c ****   */
 150:./Libraries/STM32H7xx_HAL_Driver/Src/stm32h7xx_hal_gpio.c **** 
 151:./Libraries/STM32H7xx_HAL_Driver/Src/stm32h7xx_hal_gpio.c **** /** @defgroup GPIO_Exported_Functions_Group1 Initialization and de-initialization functions
 152:./Libraries/STM32H7xx_HAL_Driver/Src/stm32h7xx_hal_gpio.c ****  *  @brief    Initialization and Configuration functions
 153:./Libraries/STM32H7xx_HAL_Driver/Src/stm32h7xx_hal_gpio.c ****  *
 154:./Libraries/STM32H7xx_HAL_Driver/Src/stm32h7xx_hal_gpio.c **** @verbatim
 155:./Libraries/STM32H7xx_HAL_Driver/Src/stm32h7xx_hal_gpio.c ****  ===============================================================================
 156:./Libraries/STM32H7xx_HAL_Driver/Src/stm32h7xx_hal_gpio.c ****               ##### Initialization and de-initialization functions #####
 157:./Libraries/STM32H7xx_HAL_Driver/Src/stm32h7xx_hal_gpio.c ****  ===============================================================================
 158:./Libraries/STM32H7xx_HAL_Driver/Src/stm32h7xx_hal_gpio.c ****   [..]
 159:./Libraries/STM32H7xx_HAL_Driver/Src/stm32h7xx_hal_gpio.c ****     This section provides functions allowing to initialize and de-initialize the GPIOs
 160:./Libraries/STM32H7xx_HAL_Driver/Src/stm32h7xx_hal_gpio.c ****     to be ready for use.
 161:./Libraries/STM32H7xx_HAL_Driver/Src/stm32h7xx_hal_gpio.c **** 
 162:./Libraries/STM32H7xx_HAL_Driver/Src/stm32h7xx_hal_gpio.c **** @endverbatim
 163:./Libraries/STM32H7xx_HAL_Driver/Src/stm32h7xx_hal_gpio.c ****   * @{
 164:./Libraries/STM32H7xx_HAL_Driver/Src/stm32h7xx_hal_gpio.c ****   */
 165:./Libraries/STM32H7xx_HAL_Driver/Src/stm32h7xx_hal_gpio.c **** 
 166:./Libraries/STM32H7xx_HAL_Driver/Src/stm32h7xx_hal_gpio.c **** /**
 167:./Libraries/STM32H7xx_HAL_Driver/Src/stm32h7xx_hal_gpio.c ****   * @brief  Initializes the GPIOx peripheral according to the specified parameters in the GPIO_Init
 168:./Libraries/STM32H7xx_HAL_Driver/Src/stm32h7xx_hal_gpio.c ****   * @param  GPIOx: where x can be (A..K) to select the GPIO peripheral.
 169:./Libraries/STM32H7xx_HAL_Driver/Src/stm32h7xx_hal_gpio.c ****   * @param  GPIO_Init: pointer to a GPIO_InitTypeDef structure that contains
 170:./Libraries/STM32H7xx_HAL_Driver/Src/stm32h7xx_hal_gpio.c ****   *         the configuration information for the specified GPIO peripheral.
 171:./Libraries/STM32H7xx_HAL_Driver/Src/stm32h7xx_hal_gpio.c ****   * @retval None
 172:./Libraries/STM32H7xx_HAL_Driver/Src/stm32h7xx_hal_gpio.c ****   */
 173:./Libraries/STM32H7xx_HAL_Driver/Src/stm32h7xx_hal_gpio.c **** void HAL_GPIO_Init(GPIO_TypeDef  *GPIOx, GPIO_InitTypeDef *GPIO_Init)
 174:./Libraries/STM32H7xx_HAL_Driver/Src/stm32h7xx_hal_gpio.c **** {
  28              		.loc 1 174 1
  29              		.cfi_startproc
  30              		@ args = 0, pretend = 0, frame = 32
  31              		@ frame_needed = 1, uses_anonymous_args = 0
  32              		@ link register save eliminated.
  33 0000 80B4     		push	{r7}
  34              	.LCFI0:
  35              		.cfi_def_cfa_offset 4
  36              		.cfi_offset 7, -4
  37 0002 89B0     		sub	sp, sp, #36
  38              	.LCFI1:
  39              		.cfi_def_cfa_offset 40
  40 0004 00AF     		add	r7, sp, #0
  41              	.LCFI2:
  42              		.cfi_def_cfa_register 7
  43 0006 7860     		str	r0, [r7, #4]
  44 0008 3960     		str	r1, [r7]
 175:./Libraries/STM32H7xx_HAL_Driver/Src/stm32h7xx_hal_gpio.c ****   uint32_t position = 0x00U;
  45              		.loc 1 175 12
  46 000a 0023     		movs	r3, #0
  47 000c FB61     		str	r3, [r7, #28]
 176:./Libraries/STM32H7xx_HAL_Driver/Src/stm32h7xx_hal_gpio.c ****   uint32_t iocurrent;
 177:./Libraries/STM32H7xx_HAL_Driver/Src/stm32h7xx_hal_gpio.c ****   uint32_t temp;
 178:./Libraries/STM32H7xx_HAL_Driver/Src/stm32h7xx_hal_gpio.c ****   EXTI_Core_TypeDef *EXTI_CurrentCPU;
 179:./Libraries/STM32H7xx_HAL_Driver/Src/stm32h7xx_hal_gpio.c **** 
 180:./Libraries/STM32H7xx_HAL_Driver/Src/stm32h7xx_hal_gpio.c **** #if defined(DUAL_CORE) && defined(CORE_CM4)
 181:./Libraries/STM32H7xx_HAL_Driver/Src/stm32h7xx_hal_gpio.c ****   EXTI_CurrentCPU = EXTI_D2; /* EXTI for CM4 CPU */
 182:./Libraries/STM32H7xx_HAL_Driver/Src/stm32h7xx_hal_gpio.c **** #else
ARM GAS  /tmp/ccr8Iymg.s 			page 5


 183:./Libraries/STM32H7xx_HAL_Driver/Src/stm32h7xx_hal_gpio.c ****   EXTI_CurrentCPU = EXTI_D1; /* EXTI for CM7 CPU */
  48              		.loc 1 183 19
  49 000e 894B     		ldr	r3, .L33
  50 0010 7B61     		str	r3, [r7, #20]
 184:./Libraries/STM32H7xx_HAL_Driver/Src/stm32h7xx_hal_gpio.c **** #endif
 185:./Libraries/STM32H7xx_HAL_Driver/Src/stm32h7xx_hal_gpio.c **** 
 186:./Libraries/STM32H7xx_HAL_Driver/Src/stm32h7xx_hal_gpio.c ****   /* Check the parameters */
 187:./Libraries/STM32H7xx_HAL_Driver/Src/stm32h7xx_hal_gpio.c ****   assert_param(IS_GPIO_ALL_INSTANCE(GPIOx));
 188:./Libraries/STM32H7xx_HAL_Driver/Src/stm32h7xx_hal_gpio.c ****   assert_param(IS_GPIO_PIN(GPIO_Init->Pin));
 189:./Libraries/STM32H7xx_HAL_Driver/Src/stm32h7xx_hal_gpio.c ****   assert_param(IS_GPIO_MODE(GPIO_Init->Mode));
 190:./Libraries/STM32H7xx_HAL_Driver/Src/stm32h7xx_hal_gpio.c ****   assert_param(IS_GPIO_PULL(GPIO_Init->Pull));
 191:./Libraries/STM32H7xx_HAL_Driver/Src/stm32h7xx_hal_gpio.c **** 
 192:./Libraries/STM32H7xx_HAL_Driver/Src/stm32h7xx_hal_gpio.c ****   /* Configure the port pins */
 193:./Libraries/STM32H7xx_HAL_Driver/Src/stm32h7xx_hal_gpio.c ****   while (((GPIO_Init->Pin) >> position) != 0x00U)
  51              		.loc 1 193 9
  52 0012 94E1     		b	.L2
  53              	.L32:
 194:./Libraries/STM32H7xx_HAL_Driver/Src/stm32h7xx_hal_gpio.c ****   {
 195:./Libraries/STM32H7xx_HAL_Driver/Src/stm32h7xx_hal_gpio.c ****     /* Get current io position */
 196:./Libraries/STM32H7xx_HAL_Driver/Src/stm32h7xx_hal_gpio.c ****     iocurrent = (GPIO_Init->Pin) & (1UL << position);
  54              		.loc 1 196 27
  55 0014 3B68     		ldr	r3, [r7]
  56 0016 1A68     		ldr	r2, [r3]
  57              		.loc 1 196 41
  58 0018 0121     		movs	r1, #1
  59 001a FB69     		ldr	r3, [r7, #28]
  60 001c 01FA03F3 		lsl	r3, r1, r3
  61              		.loc 1 196 15
  62 0020 1340     		ands	r3, r3, r2
  63 0022 3B61     		str	r3, [r7, #16]
 197:./Libraries/STM32H7xx_HAL_Driver/Src/stm32h7xx_hal_gpio.c **** 
 198:./Libraries/STM32H7xx_HAL_Driver/Src/stm32h7xx_hal_gpio.c ****     if (iocurrent != 0x00U)
  64              		.loc 1 198 8
  65 0024 3B69     		ldr	r3, [r7, #16]
  66 0026 002B     		cmp	r3, #0
  67 0028 00F08681 		beq	.L3
 199:./Libraries/STM32H7xx_HAL_Driver/Src/stm32h7xx_hal_gpio.c ****     {
 200:./Libraries/STM32H7xx_HAL_Driver/Src/stm32h7xx_hal_gpio.c ****       /*--------------------- GPIO Mode Configuration ------------------------*/
 201:./Libraries/STM32H7xx_HAL_Driver/Src/stm32h7xx_hal_gpio.c ****       /* In case of Output or Alternate function mode selection */
 202:./Libraries/STM32H7xx_HAL_Driver/Src/stm32h7xx_hal_gpio.c ****       if ((GPIO_Init->Mode == GPIO_MODE_OUTPUT_PP) || (GPIO_Init->Mode == GPIO_MODE_AF_PP) ||
  68              		.loc 1 202 21
  69 002c 3B68     		ldr	r3, [r7]
  70 002e 5B68     		ldr	r3, [r3, #4]
  71              		.loc 1 202 10
  72 0030 012B     		cmp	r3, #1
  73 0032 0BD0     		beq	.L4
  74              		.loc 1 202 65 discriminator 1
  75 0034 3B68     		ldr	r3, [r7]
  76 0036 5B68     		ldr	r3, [r3, #4]
  77              		.loc 1 202 52 discriminator 1
  78 0038 022B     		cmp	r3, #2
  79 003a 07D0     		beq	.L4
 203:./Libraries/STM32H7xx_HAL_Driver/Src/stm32h7xx_hal_gpio.c ****           (GPIO_Init->Mode == GPIO_MODE_OUTPUT_OD) || (GPIO_Init->Mode == GPIO_MODE_AF_OD))
  80              		.loc 1 203 21 discriminator 2
  81 003c 3B68     		ldr	r3, [r7]
  82 003e 5B68     		ldr	r3, [r3, #4]
 202:./Libraries/STM32H7xx_HAL_Driver/Src/stm32h7xx_hal_gpio.c ****           (GPIO_Init->Mode == GPIO_MODE_OUTPUT_OD) || (GPIO_Init->Mode == GPIO_MODE_AF_OD))
ARM GAS  /tmp/ccr8Iymg.s 			page 6


  83              		.loc 1 202 92 discriminator 2
  84 0040 112B     		cmp	r3, #17
  85 0042 03D0     		beq	.L4
  86              		.loc 1 203 65
  87 0044 3B68     		ldr	r3, [r7]
  88 0046 5B68     		ldr	r3, [r3, #4]
  89              		.loc 1 203 52
  90 0048 122B     		cmp	r3, #18
  91 004a 30D1     		bne	.L5
  92              	.L4:
 204:./Libraries/STM32H7xx_HAL_Driver/Src/stm32h7xx_hal_gpio.c ****       {
 205:./Libraries/STM32H7xx_HAL_Driver/Src/stm32h7xx_hal_gpio.c ****         /* Check the Speed parameter */
 206:./Libraries/STM32H7xx_HAL_Driver/Src/stm32h7xx_hal_gpio.c ****         assert_param(IS_GPIO_SPEED(GPIO_Init->Speed));
 207:./Libraries/STM32H7xx_HAL_Driver/Src/stm32h7xx_hal_gpio.c ****         /* Configure the IO Speed */
 208:./Libraries/STM32H7xx_HAL_Driver/Src/stm32h7xx_hal_gpio.c ****         temp = GPIOx->OSPEEDR;
  93              		.loc 1 208 14
  94 004c 7B68     		ldr	r3, [r7, #4]
  95 004e 9B68     		ldr	r3, [r3, #8]
  96 0050 BB61     		str	r3, [r7, #24]
 209:./Libraries/STM32H7xx_HAL_Driver/Src/stm32h7xx_hal_gpio.c ****         temp &= ~(GPIO_OSPEEDR_OSPEED0 << (position * 2U));
  97              		.loc 1 209 53
  98 0052 FB69     		ldr	r3, [r7, #28]
  99 0054 5B00     		lsls	r3, r3, #1
 100              		.loc 1 209 40
 101 0056 0322     		movs	r2, #3
 102 0058 02FA03F3 		lsl	r3, r2, r3
 103              		.loc 1 209 17
 104 005c DB43     		mvns	r3, r3
 105              		.loc 1 209 14
 106 005e BA69     		ldr	r2, [r7, #24]
 107 0060 1340     		ands	r3, r3, r2
 108 0062 BB61     		str	r3, [r7, #24]
 210:./Libraries/STM32H7xx_HAL_Driver/Src/stm32h7xx_hal_gpio.c ****         temp |= (GPIO_Init->Speed << (position * 2U));
 109              		.loc 1 210 27
 110 0064 3B68     		ldr	r3, [r7]
 111 0066 DA68     		ldr	r2, [r3, #12]
 112              		.loc 1 210 48
 113 0068 FB69     		ldr	r3, [r7, #28]
 114 006a 5B00     		lsls	r3, r3, #1
 115              		.loc 1 210 35
 116 006c 02FA03F3 		lsl	r3, r2, r3
 117              		.loc 1 210 14
 118 0070 BA69     		ldr	r2, [r7, #24]
 119 0072 1343     		orrs	r3, r3, r2
 120 0074 BB61     		str	r3, [r7, #24]
 211:./Libraries/STM32H7xx_HAL_Driver/Src/stm32h7xx_hal_gpio.c ****         GPIOx->OSPEEDR = temp;
 121              		.loc 1 211 24
 122 0076 7B68     		ldr	r3, [r7, #4]
 123 0078 BA69     		ldr	r2, [r7, #24]
 124 007a 9A60     		str	r2, [r3, #8]
 212:./Libraries/STM32H7xx_HAL_Driver/Src/stm32h7xx_hal_gpio.c **** 
 213:./Libraries/STM32H7xx_HAL_Driver/Src/stm32h7xx_hal_gpio.c ****         /* Configure the IO Output Type */
 214:./Libraries/STM32H7xx_HAL_Driver/Src/stm32h7xx_hal_gpio.c ****         temp = GPIOx->OTYPER;
 125              		.loc 1 214 14
 126 007c 7B68     		ldr	r3, [r7, #4]
 127 007e 5B68     		ldr	r3, [r3, #4]
 128 0080 BB61     		str	r3, [r7, #24]
ARM GAS  /tmp/ccr8Iymg.s 			page 7


 215:./Libraries/STM32H7xx_HAL_Driver/Src/stm32h7xx_hal_gpio.c ****         temp &= ~(GPIO_OTYPER_OT0 << position) ;
 129              		.loc 1 215 35
 130 0082 0122     		movs	r2, #1
 131 0084 FB69     		ldr	r3, [r7, #28]
 132 0086 02FA03F3 		lsl	r3, r2, r3
 133              		.loc 1 215 17
 134 008a DB43     		mvns	r3, r3
 135              		.loc 1 215 14
 136 008c BA69     		ldr	r2, [r7, #24]
 137 008e 1340     		ands	r3, r3, r2
 138 0090 BB61     		str	r3, [r7, #24]
 216:./Libraries/STM32H7xx_HAL_Driver/Src/stm32h7xx_hal_gpio.c ****         temp |= (((GPIO_Init->Mode & GPIO_OUTPUT_TYPE) >> 4U) << position);
 139              		.loc 1 216 29
 140 0092 3B68     		ldr	r3, [r7]
 141 0094 5B68     		ldr	r3, [r3, #4]
 142              		.loc 1 216 56
 143 0096 1B09     		lsrs	r3, r3, #4
 144 0098 03F00102 		and	r2, r3, #1
 145              		.loc 1 216 63
 146 009c FB69     		ldr	r3, [r7, #28]
 147 009e 02FA03F3 		lsl	r3, r2, r3
 148              		.loc 1 216 14
 149 00a2 BA69     		ldr	r2, [r7, #24]
 150 00a4 1343     		orrs	r3, r3, r2
 151 00a6 BB61     		str	r3, [r7, #24]
 217:./Libraries/STM32H7xx_HAL_Driver/Src/stm32h7xx_hal_gpio.c ****         GPIOx->OTYPER = temp;
 152              		.loc 1 217 23
 153 00a8 7B68     		ldr	r3, [r7, #4]
 154 00aa BA69     		ldr	r2, [r7, #24]
 155 00ac 5A60     		str	r2, [r3, #4]
 156              	.L5:
 218:./Libraries/STM32H7xx_HAL_Driver/Src/stm32h7xx_hal_gpio.c ****       }
 219:./Libraries/STM32H7xx_HAL_Driver/Src/stm32h7xx_hal_gpio.c **** 
 220:./Libraries/STM32H7xx_HAL_Driver/Src/stm32h7xx_hal_gpio.c ****       /* Activate the Pull-up or Pull down resistor for the current IO */
 221:./Libraries/STM32H7xx_HAL_Driver/Src/stm32h7xx_hal_gpio.c ****       temp = GPIOx->PUPDR;
 157              		.loc 1 221 12
 158 00ae 7B68     		ldr	r3, [r7, #4]
 159 00b0 DB68     		ldr	r3, [r3, #12]
 160 00b2 BB61     		str	r3, [r7, #24]
 222:./Libraries/STM32H7xx_HAL_Driver/Src/stm32h7xx_hal_gpio.c ****       temp &= ~(GPIO_PUPDR_PUPD0 << (position * 2U));
 161              		.loc 1 222 47
 162 00b4 FB69     		ldr	r3, [r7, #28]
 163 00b6 5B00     		lsls	r3, r3, #1
 164              		.loc 1 222 34
 165 00b8 0322     		movs	r2, #3
 166 00ba 02FA03F3 		lsl	r3, r2, r3
 167              		.loc 1 222 15
 168 00be DB43     		mvns	r3, r3
 169              		.loc 1 222 12
 170 00c0 BA69     		ldr	r2, [r7, #24]
 171 00c2 1340     		ands	r3, r3, r2
 172 00c4 BB61     		str	r3, [r7, #24]
 223:./Libraries/STM32H7xx_HAL_Driver/Src/stm32h7xx_hal_gpio.c ****       temp |= ((GPIO_Init->Pull) << (position * 2U));
 173              		.loc 1 223 26
 174 00c6 3B68     		ldr	r3, [r7]
 175 00c8 9A68     		ldr	r2, [r3, #8]
 176              		.loc 1 223 47
ARM GAS  /tmp/ccr8Iymg.s 			page 8


 177 00ca FB69     		ldr	r3, [r7, #28]
 178 00cc 5B00     		lsls	r3, r3, #1
 179              		.loc 1 223 34
 180 00ce 02FA03F3 		lsl	r3, r2, r3
 181              		.loc 1 223 12
 182 00d2 BA69     		ldr	r2, [r7, #24]
 183 00d4 1343     		orrs	r3, r3, r2
 184 00d6 BB61     		str	r3, [r7, #24]
 224:./Libraries/STM32H7xx_HAL_Driver/Src/stm32h7xx_hal_gpio.c ****       GPIOx->PUPDR = temp;
 185              		.loc 1 224 20
 186 00d8 7B68     		ldr	r3, [r7, #4]
 187 00da BA69     		ldr	r2, [r7, #24]
 188 00dc DA60     		str	r2, [r3, #12]
 225:./Libraries/STM32H7xx_HAL_Driver/Src/stm32h7xx_hal_gpio.c **** 
 226:./Libraries/STM32H7xx_HAL_Driver/Src/stm32h7xx_hal_gpio.c ****       /* In case of Alternate function mode selection */
 227:./Libraries/STM32H7xx_HAL_Driver/Src/stm32h7xx_hal_gpio.c ****       if ((GPIO_Init->Mode == GPIO_MODE_AF_PP) || (GPIO_Init->Mode == GPIO_MODE_AF_OD))
 189              		.loc 1 227 21
 190 00de 3B68     		ldr	r3, [r7]
 191 00e0 5B68     		ldr	r3, [r3, #4]
 192              		.loc 1 227 10
 193 00e2 022B     		cmp	r3, #2
 194 00e4 03D0     		beq	.L6
 195              		.loc 1 227 61 discriminator 1
 196 00e6 3B68     		ldr	r3, [r7]
 197 00e8 5B68     		ldr	r3, [r3, #4]
 198              		.loc 1 227 48 discriminator 1
 199 00ea 122B     		cmp	r3, #18
 200 00ec 23D1     		bne	.L7
 201              	.L6:
 228:./Libraries/STM32H7xx_HAL_Driver/Src/stm32h7xx_hal_gpio.c ****       {
 229:./Libraries/STM32H7xx_HAL_Driver/Src/stm32h7xx_hal_gpio.c ****         /* Check the Alternate function parameters */
 230:./Libraries/STM32H7xx_HAL_Driver/Src/stm32h7xx_hal_gpio.c ****         assert_param(IS_GPIO_AF_INSTANCE(GPIOx));
 231:./Libraries/STM32H7xx_HAL_Driver/Src/stm32h7xx_hal_gpio.c ****         assert_param(IS_GPIO_AF(GPIO_Init->Alternate));
 232:./Libraries/STM32H7xx_HAL_Driver/Src/stm32h7xx_hal_gpio.c **** 
 233:./Libraries/STM32H7xx_HAL_Driver/Src/stm32h7xx_hal_gpio.c ****         /* Configure Alternate function mapped with the current IO */
 234:./Libraries/STM32H7xx_HAL_Driver/Src/stm32h7xx_hal_gpio.c ****         temp = GPIOx->AFR[position >> 3U];
 202              		.loc 1 234 36
 203 00ee FB69     		ldr	r3, [r7, #28]
 204 00f0 DA08     		lsrs	r2, r3, #3
 205              		.loc 1 234 14
 206 00f2 7B68     		ldr	r3, [r7, #4]
 207 00f4 0832     		adds	r2, r2, #8
 208 00f6 53F82230 		ldr	r3, [r3, r2, lsl #2]
 209 00fa BB61     		str	r3, [r7, #24]
 235:./Libraries/STM32H7xx_HAL_Driver/Src/stm32h7xx_hal_gpio.c ****         temp &= ~(0xFU << ((position & 0x07U) * 4U));
 210              		.loc 1 235 38
 211 00fc FB69     		ldr	r3, [r7, #28]
 212 00fe 03F00703 		and	r3, r3, #7
 213              		.loc 1 235 47
 214 0102 9B00     		lsls	r3, r3, #2
 215              		.loc 1 235 24
 216 0104 0F22     		movs	r2, #15
 217 0106 02FA03F3 		lsl	r3, r2, r3
 218              		.loc 1 235 17
 219 010a DB43     		mvns	r3, r3
 220              		.loc 1 235 14
 221 010c BA69     		ldr	r2, [r7, #24]
ARM GAS  /tmp/ccr8Iymg.s 			page 9


 222 010e 1340     		ands	r3, r3, r2
 223 0110 BB61     		str	r3, [r7, #24]
 236:./Libraries/STM32H7xx_HAL_Driver/Src/stm32h7xx_hal_gpio.c ****         temp |= ((GPIO_Init->Alternate) << ((position & 0x07U) * 4U));
 224              		.loc 1 236 28
 225 0112 3B68     		ldr	r3, [r7]
 226 0114 1A69     		ldr	r2, [r3, #16]
 227              		.loc 1 236 55
 228 0116 FB69     		ldr	r3, [r7, #28]
 229 0118 03F00703 		and	r3, r3, #7
 230              		.loc 1 236 64
 231 011c 9B00     		lsls	r3, r3, #2
 232              		.loc 1 236 41
 233 011e 02FA03F3 		lsl	r3, r2, r3
 234              		.loc 1 236 14
 235 0122 BA69     		ldr	r2, [r7, #24]
 236 0124 1343     		orrs	r3, r3, r2
 237 0126 BB61     		str	r3, [r7, #24]
 237:./Libraries/STM32H7xx_HAL_Driver/Src/stm32h7xx_hal_gpio.c ****         GPIOx->AFR[position >> 3U] = temp;
 238              		.loc 1 237 29
 239 0128 FB69     		ldr	r3, [r7, #28]
 240 012a DA08     		lsrs	r2, r3, #3
 241              		.loc 1 237 36
 242 012c 7B68     		ldr	r3, [r7, #4]
 243 012e 0832     		adds	r2, r2, #8
 244 0130 B969     		ldr	r1, [r7, #24]
 245 0132 43F82210 		str	r1, [r3, r2, lsl #2]
 246              	.L7:
 238:./Libraries/STM32H7xx_HAL_Driver/Src/stm32h7xx_hal_gpio.c ****       }
 239:./Libraries/STM32H7xx_HAL_Driver/Src/stm32h7xx_hal_gpio.c **** 
 240:./Libraries/STM32H7xx_HAL_Driver/Src/stm32h7xx_hal_gpio.c ****       /* Configure IO Direction mode (Input, Output, Alternate or Analog) */
 241:./Libraries/STM32H7xx_HAL_Driver/Src/stm32h7xx_hal_gpio.c ****       temp = GPIOx->MODER;
 247              		.loc 1 241 12
 248 0136 7B68     		ldr	r3, [r7, #4]
 249 0138 1B68     		ldr	r3, [r3]
 250 013a BB61     		str	r3, [r7, #24]
 242:./Libraries/STM32H7xx_HAL_Driver/Src/stm32h7xx_hal_gpio.c ****       temp &= ~(GPIO_MODER_MODE0 << (position * 2U));
 251              		.loc 1 242 47
 252 013c FB69     		ldr	r3, [r7, #28]
 253 013e 5B00     		lsls	r3, r3, #1
 254              		.loc 1 242 34
 255 0140 0322     		movs	r2, #3
 256 0142 02FA03F3 		lsl	r3, r2, r3
 257              		.loc 1 242 15
 258 0146 DB43     		mvns	r3, r3
 259              		.loc 1 242 12
 260 0148 BA69     		ldr	r2, [r7, #24]
 261 014a 1340     		ands	r3, r3, r2
 262 014c BB61     		str	r3, [r7, #24]
 243:./Libraries/STM32H7xx_HAL_Driver/Src/stm32h7xx_hal_gpio.c ****       temp |= ((GPIO_Init->Mode & GPIO_MODE) << (position * 2U));
 263              		.loc 1 243 26
 264 014e 3B68     		ldr	r3, [r7]
 265 0150 5B68     		ldr	r3, [r3, #4]
 266              		.loc 1 243 33
 267 0152 03F00302 		and	r2, r3, #3
 268              		.loc 1 243 59
 269 0156 FB69     		ldr	r3, [r7, #28]
 270 0158 5B00     		lsls	r3, r3, #1
ARM GAS  /tmp/ccr8Iymg.s 			page 10


 271              		.loc 1 243 46
 272 015a 02FA03F3 		lsl	r3, r2, r3
 273              		.loc 1 243 12
 274 015e BA69     		ldr	r2, [r7, #24]
 275 0160 1343     		orrs	r3, r3, r2
 276 0162 BB61     		str	r3, [r7, #24]
 244:./Libraries/STM32H7xx_HAL_Driver/Src/stm32h7xx_hal_gpio.c ****       GPIOx->MODER = temp;
 277              		.loc 1 244 20
 278 0164 7B68     		ldr	r3, [r7, #4]
 279 0166 BA69     		ldr	r2, [r7, #24]
 280 0168 1A60     		str	r2, [r3]
 245:./Libraries/STM32H7xx_HAL_Driver/Src/stm32h7xx_hal_gpio.c **** 
 246:./Libraries/STM32H7xx_HAL_Driver/Src/stm32h7xx_hal_gpio.c ****       /*--------------------- EXTI Mode Configuration ------------------------*/
 247:./Libraries/STM32H7xx_HAL_Driver/Src/stm32h7xx_hal_gpio.c ****       /* Configure the External Interrupt or event for the current IO */
 248:./Libraries/STM32H7xx_HAL_Driver/Src/stm32h7xx_hal_gpio.c ****       if ((GPIO_Init->Mode & EXTI_MODE) == EXTI_MODE)
 281              		.loc 1 248 21
 282 016a 3B68     		ldr	r3, [r7]
 283 016c 5B68     		ldr	r3, [r3, #4]
 284              		.loc 1 248 28
 285 016e 03F08053 		and	r3, r3, #268435456
 286              		.loc 1 248 10
 287 0172 002B     		cmp	r3, #0
 288 0174 00F0E080 		beq	.L3
 289              	.LBB2:
 249:./Libraries/STM32H7xx_HAL_Driver/Src/stm32h7xx_hal_gpio.c ****       {
 250:./Libraries/STM32H7xx_HAL_Driver/Src/stm32h7xx_hal_gpio.c ****         /* Enable SYSCFG Clock */
 251:./Libraries/STM32H7xx_HAL_Driver/Src/stm32h7xx_hal_gpio.c ****         __HAL_RCC_SYSCFG_CLK_ENABLE();
 290              		.loc 1 251 9
 291 0178 2F4B     		ldr	r3, .L33+4
 292 017a D3F8F430 		ldr	r3, [r3, #244]
 293 017e 2E4A     		ldr	r2, .L33+4
 294 0180 43F00203 		orr	r3, r3, #2
 295 0184 C2F8F430 		str	r3, [r2, #244]
 296 0188 2B4B     		ldr	r3, .L33+4
 297 018a D3F8F430 		ldr	r3, [r3, #244]
 298 018e 03F00203 		and	r3, r3, #2
 299 0192 FB60     		str	r3, [r7, #12]
 300 0194 FB68     		ldr	r3, [r7, #12]
 301              	.LBE2:
 252:./Libraries/STM32H7xx_HAL_Driver/Src/stm32h7xx_hal_gpio.c **** 
 253:./Libraries/STM32H7xx_HAL_Driver/Src/stm32h7xx_hal_gpio.c ****         temp = SYSCFG->EXTICR[position >> 2U];
 302              		.loc 1 253 22
 303 0196 294A     		ldr	r2, .L33+8
 304              		.loc 1 253 40
 305 0198 FB69     		ldr	r3, [r7, #28]
 306 019a 9B08     		lsrs	r3, r3, #2
 307              		.loc 1 253 14
 308 019c 0233     		adds	r3, r3, #2
 309 019e 52F82330 		ldr	r3, [r2, r3, lsl #2]
 310 01a2 BB61     		str	r3, [r7, #24]
 254:./Libraries/STM32H7xx_HAL_Driver/Src/stm32h7xx_hal_gpio.c ****         temp &= ~(0x0FUL << (4U * (position & 0x03U)));
 311              		.loc 1 254 45
 312 01a4 FB69     		ldr	r3, [r7, #28]
 313 01a6 03F00303 		and	r3, r3, #3
 314              		.loc 1 254 33
 315 01aa 9B00     		lsls	r3, r3, #2
 316              		.loc 1 254 26
ARM GAS  /tmp/ccr8Iymg.s 			page 11


 317 01ac 0F22     		movs	r2, #15
 318 01ae 02FA03F3 		lsl	r3, r2, r3
 319              		.loc 1 254 17
 320 01b2 DB43     		mvns	r3, r3
 321              		.loc 1 254 14
 322 01b4 BA69     		ldr	r2, [r7, #24]
 323 01b6 1340     		ands	r3, r3, r2
 324 01b8 BB61     		str	r3, [r7, #24]
 255:./Libraries/STM32H7xx_HAL_Driver/Src/stm32h7xx_hal_gpio.c ****         temp |= (GPIO_GET_INDEX(GPIOx) << (4U * (position & 0x03U)));
 325              		.loc 1 255 18
 326 01ba 7B68     		ldr	r3, [r7, #4]
 327 01bc 204A     		ldr	r2, .L33+12
 328 01be 9342     		cmp	r3, r2
 329 01c0 52D0     		beq	.L8
 330              		.loc 1 255 18 is_stmt 0 discriminator 1
 331 01c2 7B68     		ldr	r3, [r7, #4]
 332 01c4 1F4A     		ldr	r2, .L33+16
 333 01c6 9342     		cmp	r3, r2
 334 01c8 31D0     		beq	.L9
 335              		.loc 1 255 18 discriminator 3
 336 01ca 7B68     		ldr	r3, [r7, #4]
 337 01cc 1E4A     		ldr	r2, .L33+20
 338 01ce 9342     		cmp	r3, r2
 339 01d0 2BD0     		beq	.L10
 340              		.loc 1 255 18 discriminator 5
 341 01d2 7B68     		ldr	r3, [r7, #4]
 342 01d4 1D4A     		ldr	r2, .L33+24
 343 01d6 9342     		cmp	r3, r2
 344 01d8 25D0     		beq	.L11
 345              		.loc 1 255 18 discriminator 7
 346 01da 7B68     		ldr	r3, [r7, #4]
 347 01dc 1C4A     		ldr	r2, .L33+28
 348 01de 9342     		cmp	r3, r2
 349 01e0 1FD0     		beq	.L12
 350              		.loc 1 255 18 discriminator 9
 351 01e2 7B68     		ldr	r3, [r7, #4]
 352 01e4 1B4A     		ldr	r2, .L33+32
 353 01e6 9342     		cmp	r3, r2
 354 01e8 19D0     		beq	.L13
 355              		.loc 1 255 18 discriminator 11
 356 01ea 7B68     		ldr	r3, [r7, #4]
 357 01ec 1A4A     		ldr	r2, .L33+36
 358 01ee 9342     		cmp	r3, r2
 359 01f0 13D0     		beq	.L14
 360              		.loc 1 255 18 discriminator 13
 361 01f2 7B68     		ldr	r3, [r7, #4]
 362 01f4 194A     		ldr	r2, .L33+40
 363 01f6 9342     		cmp	r3, r2
 364 01f8 0DD0     		beq	.L15
 365              		.loc 1 255 18 discriminator 15
 366 01fa 7B68     		ldr	r3, [r7, #4]
 367 01fc 184A     		ldr	r2, .L33+44
 368 01fe 9342     		cmp	r3, r2
 369 0200 07D0     		beq	.L16
 370              		.loc 1 255 18 discriminator 17
 371 0202 7B68     		ldr	r3, [r7, #4]
 372 0204 174A     		ldr	r2, .L33+48
ARM GAS  /tmp/ccr8Iymg.s 			page 12


 373 0206 9342     		cmp	r3, r2
 374 0208 01D1     		bne	.L17
 375              		.loc 1 255 18 discriminator 19
 376 020a 0923     		movs	r3, #9
 377 020c 2DE0     		b	.L27
 378              	.L17:
 379              		.loc 1 255 18 discriminator 20
 380 020e 0A23     		movs	r3, #10
 381 0210 2BE0     		b	.L27
 382              	.L16:
 383              		.loc 1 255 18 discriminator 18
 384 0212 0823     		movs	r3, #8
 385 0214 29E0     		b	.L27
 386              	.L15:
 387              		.loc 1 255 18 discriminator 16
 388 0216 0723     		movs	r3, #7
 389 0218 27E0     		b	.L27
 390              	.L14:
 391              		.loc 1 255 18 discriminator 14
 392 021a 0623     		movs	r3, #6
 393 021c 25E0     		b	.L27
 394              	.L13:
 395              		.loc 1 255 18 discriminator 12
 396 021e 0523     		movs	r3, #5
 397 0220 23E0     		b	.L27
 398              	.L12:
 399              		.loc 1 255 18 discriminator 10
 400 0222 0423     		movs	r3, #4
 401 0224 21E0     		b	.L27
 402              	.L11:
 403              		.loc 1 255 18 discriminator 8
 404 0226 0323     		movs	r3, #3
 405 0228 1FE0     		b	.L27
 406              	.L10:
 407              		.loc 1 255 18 discriminator 6
 408 022a 0223     		movs	r3, #2
 409 022c 1DE0     		b	.L27
 410              	.L9:
 411              		.loc 1 255 18 discriminator 4
 412 022e 0123     		movs	r3, #1
 413 0230 1BE0     		b	.L27
 414              	.L34:
 415 0232 00BF     		.align	2
 416              	.L33:
 417 0234 80000058 		.word	1476395136
 418 0238 00440258 		.word	1476543488
 419 023c 00040058 		.word	1476396032
 420 0240 00000258 		.word	1476526080
 421 0244 00040258 		.word	1476527104
 422 0248 00080258 		.word	1476528128
 423 024c 000C0258 		.word	1476529152
 424 0250 00100258 		.word	1476530176
 425 0254 00140258 		.word	1476531200
 426 0258 00180258 		.word	1476532224
 427 025c 001C0258 		.word	1476533248
 428 0260 00200258 		.word	1476534272
 429 0264 00240258 		.word	1476535296
ARM GAS  /tmp/ccr8Iymg.s 			page 13


 430              	.L8:
 431              		.loc 1 255 18 discriminator 2
 432 0268 0023     		movs	r3, #0
 433              	.L27:
 434              		.loc 1 255 59 is_stmt 1 discriminator 40
 435 026a FA69     		ldr	r2, [r7, #28]
 436 026c 02F00302 		and	r2, r2, #3
 437              		.loc 1 255 47 discriminator 40
 438 0270 9200     		lsls	r2, r2, #2
 439              		.loc 1 255 40 discriminator 40
 440 0272 9340     		lsls	r3, r3, r2
 441              		.loc 1 255 14 discriminator 40
 442 0274 BA69     		ldr	r2, [r7, #24]
 443 0276 1343     		orrs	r3, r3, r2
 444 0278 BB61     		str	r3, [r7, #24]
 256:./Libraries/STM32H7xx_HAL_Driver/Src/stm32h7xx_hal_gpio.c ****         SYSCFG->EXTICR[position >> 2U] = temp;
 445              		.loc 1 256 15 discriminator 40
 446 027a 3849     		ldr	r1, .L35
 447              		.loc 1 256 33 discriminator 40
 448 027c FB69     		ldr	r3, [r7, #28]
 449 027e 9B08     		lsrs	r3, r3, #2
 450              		.loc 1 256 40 discriminator 40
 451 0280 0233     		adds	r3, r3, #2
 452 0282 BA69     		ldr	r2, [r7, #24]
 453 0284 41F82320 		str	r2, [r1, r3, lsl #2]
 257:./Libraries/STM32H7xx_HAL_Driver/Src/stm32h7xx_hal_gpio.c **** 
 258:./Libraries/STM32H7xx_HAL_Driver/Src/stm32h7xx_hal_gpio.c ****         /* Clear EXTI line configuration */
 259:./Libraries/STM32H7xx_HAL_Driver/Src/stm32h7xx_hal_gpio.c ****         temp = EXTI_CurrentCPU->IMR1;
 454              		.loc 1 259 14 discriminator 40
 455 0288 7B69     		ldr	r3, [r7, #20]
 456 028a 1B68     		ldr	r3, [r3]
 457 028c BB61     		str	r3, [r7, #24]
 260:./Libraries/STM32H7xx_HAL_Driver/Src/stm32h7xx_hal_gpio.c ****         temp &= ~(iocurrent);
 458              		.loc 1 260 17 discriminator 40
 459 028e 3B69     		ldr	r3, [r7, #16]
 460 0290 DB43     		mvns	r3, r3
 461              		.loc 1 260 14 discriminator 40
 462 0292 BA69     		ldr	r2, [r7, #24]
 463 0294 1340     		ands	r3, r3, r2
 464 0296 BB61     		str	r3, [r7, #24]
 261:./Libraries/STM32H7xx_HAL_Driver/Src/stm32h7xx_hal_gpio.c ****         if ((GPIO_Init->Mode & GPIO_MODE_IT) == GPIO_MODE_IT)
 465              		.loc 1 261 23 discriminator 40
 466 0298 3B68     		ldr	r3, [r7]
 467 029a 5B68     		ldr	r3, [r3, #4]
 468              		.loc 1 261 30 discriminator 40
 469 029c 03F48033 		and	r3, r3, #65536
 470              		.loc 1 261 12 discriminator 40
 471 02a0 002B     		cmp	r3, #0
 472 02a2 03D0     		beq	.L28
 262:./Libraries/STM32H7xx_HAL_Driver/Src/stm32h7xx_hal_gpio.c ****         {
 263:./Libraries/STM32H7xx_HAL_Driver/Src/stm32h7xx_hal_gpio.c ****           temp |= iocurrent;
 473              		.loc 1 263 16
 474 02a4 BA69     		ldr	r2, [r7, #24]
 475 02a6 3B69     		ldr	r3, [r7, #16]
 476 02a8 1343     		orrs	r3, r3, r2
 477 02aa BB61     		str	r3, [r7, #24]
 478              	.L28:
ARM GAS  /tmp/ccr8Iymg.s 			page 14


 264:./Libraries/STM32H7xx_HAL_Driver/Src/stm32h7xx_hal_gpio.c ****         }
 265:./Libraries/STM32H7xx_HAL_Driver/Src/stm32h7xx_hal_gpio.c ****         EXTI_CurrentCPU->IMR1 = temp;
 479              		.loc 1 265 31
 480 02ac 7B69     		ldr	r3, [r7, #20]
 481 02ae BA69     		ldr	r2, [r7, #24]
 482 02b0 1A60     		str	r2, [r3]
 266:./Libraries/STM32H7xx_HAL_Driver/Src/stm32h7xx_hal_gpio.c **** 
 267:./Libraries/STM32H7xx_HAL_Driver/Src/stm32h7xx_hal_gpio.c ****         temp = EXTI_CurrentCPU->EMR1;
 483              		.loc 1 267 14
 484 02b2 7B69     		ldr	r3, [r7, #20]
 485 02b4 5B68     		ldr	r3, [r3, #4]
 486 02b6 BB61     		str	r3, [r7, #24]
 268:./Libraries/STM32H7xx_HAL_Driver/Src/stm32h7xx_hal_gpio.c ****         temp &= ~(iocurrent);
 487              		.loc 1 268 17
 488 02b8 3B69     		ldr	r3, [r7, #16]
 489 02ba DB43     		mvns	r3, r3
 490              		.loc 1 268 14
 491 02bc BA69     		ldr	r2, [r7, #24]
 492 02be 1340     		ands	r3, r3, r2
 493 02c0 BB61     		str	r3, [r7, #24]
 269:./Libraries/STM32H7xx_HAL_Driver/Src/stm32h7xx_hal_gpio.c ****         if ((GPIO_Init->Mode & GPIO_MODE_EVT) == GPIO_MODE_EVT)
 494              		.loc 1 269 23
 495 02c2 3B68     		ldr	r3, [r7]
 496 02c4 5B68     		ldr	r3, [r3, #4]
 497              		.loc 1 269 30
 498 02c6 03F40033 		and	r3, r3, #131072
 499              		.loc 1 269 12
 500 02ca 002B     		cmp	r3, #0
 501 02cc 03D0     		beq	.L29
 270:./Libraries/STM32H7xx_HAL_Driver/Src/stm32h7xx_hal_gpio.c ****         {
 271:./Libraries/STM32H7xx_HAL_Driver/Src/stm32h7xx_hal_gpio.c ****           temp |= iocurrent;
 502              		.loc 1 271 16
 503 02ce BA69     		ldr	r2, [r7, #24]
 504 02d0 3B69     		ldr	r3, [r7, #16]
 505 02d2 1343     		orrs	r3, r3, r2
 506 02d4 BB61     		str	r3, [r7, #24]
 507              	.L29:
 272:./Libraries/STM32H7xx_HAL_Driver/Src/stm32h7xx_hal_gpio.c ****         }
 273:./Libraries/STM32H7xx_HAL_Driver/Src/stm32h7xx_hal_gpio.c ****         EXTI_CurrentCPU->EMR1 = temp;
 508              		.loc 1 273 31
 509 02d6 7B69     		ldr	r3, [r7, #20]
 510 02d8 BA69     		ldr	r2, [r7, #24]
 511 02da 5A60     		str	r2, [r3, #4]
 274:./Libraries/STM32H7xx_HAL_Driver/Src/stm32h7xx_hal_gpio.c **** 
 275:./Libraries/STM32H7xx_HAL_Driver/Src/stm32h7xx_hal_gpio.c ****         /* Clear Rising Falling edge configuration */
 276:./Libraries/STM32H7xx_HAL_Driver/Src/stm32h7xx_hal_gpio.c ****         temp = EXTI->RTSR1;
 512              		.loc 1 276 20
 513 02dc 4FF0B043 		mov	r3, #1476395008
 514              		.loc 1 276 14
 515 02e0 1B68     		ldr	r3, [r3]
 516 02e2 BB61     		str	r3, [r7, #24]
 277:./Libraries/STM32H7xx_HAL_Driver/Src/stm32h7xx_hal_gpio.c ****         temp &= ~(iocurrent);
 517              		.loc 1 277 17
 518 02e4 3B69     		ldr	r3, [r7, #16]
 519 02e6 DB43     		mvns	r3, r3
 520              		.loc 1 277 14
 521 02e8 BA69     		ldr	r2, [r7, #24]
ARM GAS  /tmp/ccr8Iymg.s 			page 15


 522 02ea 1340     		ands	r3, r3, r2
 523 02ec BB61     		str	r3, [r7, #24]
 278:./Libraries/STM32H7xx_HAL_Driver/Src/stm32h7xx_hal_gpio.c ****         if ((GPIO_Init->Mode & RISING_EDGE) == RISING_EDGE)
 524              		.loc 1 278 23
 525 02ee 3B68     		ldr	r3, [r7]
 526 02f0 5B68     		ldr	r3, [r3, #4]
 527              		.loc 1 278 30
 528 02f2 03F48013 		and	r3, r3, #1048576
 529              		.loc 1 278 12
 530 02f6 002B     		cmp	r3, #0
 531 02f8 03D0     		beq	.L30
 279:./Libraries/STM32H7xx_HAL_Driver/Src/stm32h7xx_hal_gpio.c ****         {
 280:./Libraries/STM32H7xx_HAL_Driver/Src/stm32h7xx_hal_gpio.c ****           temp |= iocurrent;
 532              		.loc 1 280 16
 533 02fa BA69     		ldr	r2, [r7, #24]
 534 02fc 3B69     		ldr	r3, [r7, #16]
 535 02fe 1343     		orrs	r3, r3, r2
 536 0300 BB61     		str	r3, [r7, #24]
 537              	.L30:
 281:./Libraries/STM32H7xx_HAL_Driver/Src/stm32h7xx_hal_gpio.c ****         }
 282:./Libraries/STM32H7xx_HAL_Driver/Src/stm32h7xx_hal_gpio.c ****         EXTI->RTSR1 = temp;
 538              		.loc 1 282 13
 539 0302 4FF0B042 		mov	r2, #1476395008
 540              		.loc 1 282 21
 541 0306 BB69     		ldr	r3, [r7, #24]
 542 0308 1360     		str	r3, [r2]
 283:./Libraries/STM32H7xx_HAL_Driver/Src/stm32h7xx_hal_gpio.c **** 
 284:./Libraries/STM32H7xx_HAL_Driver/Src/stm32h7xx_hal_gpio.c ****         temp = EXTI->FTSR1;
 543              		.loc 1 284 20
 544 030a 4FF0B043 		mov	r3, #1476395008
 545              		.loc 1 284 14
 546 030e 5B68     		ldr	r3, [r3, #4]
 547 0310 BB61     		str	r3, [r7, #24]
 285:./Libraries/STM32H7xx_HAL_Driver/Src/stm32h7xx_hal_gpio.c ****         temp &= ~(iocurrent);
 548              		.loc 1 285 17
 549 0312 3B69     		ldr	r3, [r7, #16]
 550 0314 DB43     		mvns	r3, r3
 551              		.loc 1 285 14
 552 0316 BA69     		ldr	r2, [r7, #24]
 553 0318 1340     		ands	r3, r3, r2
 554 031a BB61     		str	r3, [r7, #24]
 286:./Libraries/STM32H7xx_HAL_Driver/Src/stm32h7xx_hal_gpio.c ****         if ((GPIO_Init->Mode & FALLING_EDGE) == FALLING_EDGE)
 555              		.loc 1 286 23
 556 031c 3B68     		ldr	r3, [r7]
 557 031e 5B68     		ldr	r3, [r3, #4]
 558              		.loc 1 286 30
 559 0320 03F40013 		and	r3, r3, #2097152
 560              		.loc 1 286 12
 561 0324 002B     		cmp	r3, #0
 562 0326 03D0     		beq	.L31
 287:./Libraries/STM32H7xx_HAL_Driver/Src/stm32h7xx_hal_gpio.c ****         {
 288:./Libraries/STM32H7xx_HAL_Driver/Src/stm32h7xx_hal_gpio.c ****           temp |= iocurrent;
 563              		.loc 1 288 16
 564 0328 BA69     		ldr	r2, [r7, #24]
 565 032a 3B69     		ldr	r3, [r7, #16]
 566 032c 1343     		orrs	r3, r3, r2
 567 032e BB61     		str	r3, [r7, #24]
ARM GAS  /tmp/ccr8Iymg.s 			page 16


 568              	.L31:
 289:./Libraries/STM32H7xx_HAL_Driver/Src/stm32h7xx_hal_gpio.c ****         }
 290:./Libraries/STM32H7xx_HAL_Driver/Src/stm32h7xx_hal_gpio.c ****         EXTI->FTSR1 = temp;
 569              		.loc 1 290 13
 570 0330 4FF0B042 		mov	r2, #1476395008
 571              		.loc 1 290 21
 572 0334 BB69     		ldr	r3, [r7, #24]
 573 0336 5360     		str	r3, [r2, #4]
 574              	.L3:
 291:./Libraries/STM32H7xx_HAL_Driver/Src/stm32h7xx_hal_gpio.c ****       }
 292:./Libraries/STM32H7xx_HAL_Driver/Src/stm32h7xx_hal_gpio.c ****     }
 293:./Libraries/STM32H7xx_HAL_Driver/Src/stm32h7xx_hal_gpio.c **** 
 294:./Libraries/STM32H7xx_HAL_Driver/Src/stm32h7xx_hal_gpio.c ****     position++;
 575              		.loc 1 294 13
 576 0338 FB69     		ldr	r3, [r7, #28]
 577 033a 0133     		adds	r3, r3, #1
 578 033c FB61     		str	r3, [r7, #28]
 579              	.L2:
 193:./Libraries/STM32H7xx_HAL_Driver/Src/stm32h7xx_hal_gpio.c ****   {
 580              		.loc 1 193 21
 581 033e 3B68     		ldr	r3, [r7]
 582 0340 1A68     		ldr	r2, [r3]
 193:./Libraries/STM32H7xx_HAL_Driver/Src/stm32h7xx_hal_gpio.c ****   {
 583              		.loc 1 193 28
 584 0342 FB69     		ldr	r3, [r7, #28]
 585 0344 22FA03F3 		lsr	r3, r2, r3
 193:./Libraries/STM32H7xx_HAL_Driver/Src/stm32h7xx_hal_gpio.c ****   {
 586              		.loc 1 193 9
 587 0348 002B     		cmp	r3, #0
 588 034a 7FF463AE 		bne	.L32
 295:./Libraries/STM32H7xx_HAL_Driver/Src/stm32h7xx_hal_gpio.c ****   }
 296:./Libraries/STM32H7xx_HAL_Driver/Src/stm32h7xx_hal_gpio.c **** }
 589              		.loc 1 296 1
 590 034e 00BF     		nop
 591 0350 00BF     		nop
 592 0352 2437     		adds	r7, r7, #36
 593              	.LCFI3:
 594              		.cfi_def_cfa_offset 4
 595 0354 BD46     		mov	sp, r7
 596              	.LCFI4:
 597              		.cfi_def_cfa_register 13
 598              		@ sp needed
 599 0356 5DF8047B 		ldr	r7, [sp], #4
 600              	.LCFI5:
 601              		.cfi_restore 7
 602              		.cfi_def_cfa_offset 0
 603 035a 7047     		bx	lr
 604              	.L36:
 605              		.align	2
 606              	.L35:
 607 035c 00040058 		.word	1476396032
 608              		.cfi_endproc
 609              	.LFE331:
 611              		.section	.text.HAL_GPIO_DeInit,"ax",%progbits
 612              		.align	1
 613              		.global	HAL_GPIO_DeInit
 614              		.syntax unified
ARM GAS  /tmp/ccr8Iymg.s 			page 17


 615              		.thumb
 616              		.thumb_func
 617              		.fpu fpv5-d16
 619              	HAL_GPIO_DeInit:
 620              	.LFB332:
 297:./Libraries/STM32H7xx_HAL_Driver/Src/stm32h7xx_hal_gpio.c **** 
 298:./Libraries/STM32H7xx_HAL_Driver/Src/stm32h7xx_hal_gpio.c **** /**
 299:./Libraries/STM32H7xx_HAL_Driver/Src/stm32h7xx_hal_gpio.c ****   * @brief  De-initializes the GPIOx peripheral registers to their default reset values.
 300:./Libraries/STM32H7xx_HAL_Driver/Src/stm32h7xx_hal_gpio.c ****   * @param  GPIOx: where x can be (A..K) to select the GPIO peripheral.
 301:./Libraries/STM32H7xx_HAL_Driver/Src/stm32h7xx_hal_gpio.c ****   * @param  GPIO_Pin: specifies the port bit to be written.
 302:./Libraries/STM32H7xx_HAL_Driver/Src/stm32h7xx_hal_gpio.c ****   *          This parameter can be one of GPIO_PIN_x where x can be (0..15).
 303:./Libraries/STM32H7xx_HAL_Driver/Src/stm32h7xx_hal_gpio.c ****   * @retval None
 304:./Libraries/STM32H7xx_HAL_Driver/Src/stm32h7xx_hal_gpio.c ****   */
 305:./Libraries/STM32H7xx_HAL_Driver/Src/stm32h7xx_hal_gpio.c **** void HAL_GPIO_DeInit(GPIO_TypeDef  *GPIOx, uint32_t GPIO_Pin)
 306:./Libraries/STM32H7xx_HAL_Driver/Src/stm32h7xx_hal_gpio.c **** {
 621              		.loc 1 306 1
 622              		.cfi_startproc
 623              		@ args = 0, pretend = 0, frame = 24
 624              		@ frame_needed = 1, uses_anonymous_args = 0
 625              		@ link register save eliminated.
 626 0000 80B4     		push	{r7}
 627              	.LCFI6:
 628              		.cfi_def_cfa_offset 4
 629              		.cfi_offset 7, -4
 630 0002 87B0     		sub	sp, sp, #28
 631              	.LCFI7:
 632              		.cfi_def_cfa_offset 32
 633 0004 00AF     		add	r7, sp, #0
 634              	.LCFI8:
 635              		.cfi_def_cfa_register 7
 636 0006 7860     		str	r0, [r7, #4]
 637 0008 3960     		str	r1, [r7]
 307:./Libraries/STM32H7xx_HAL_Driver/Src/stm32h7xx_hal_gpio.c ****   uint32_t position = 0x00U;
 638              		.loc 1 307 12
 639 000a 0023     		movs	r3, #0
 640 000c 7B61     		str	r3, [r7, #20]
 308:./Libraries/STM32H7xx_HAL_Driver/Src/stm32h7xx_hal_gpio.c ****   uint32_t iocurrent;
 309:./Libraries/STM32H7xx_HAL_Driver/Src/stm32h7xx_hal_gpio.c ****   uint32_t tmp;
 310:./Libraries/STM32H7xx_HAL_Driver/Src/stm32h7xx_hal_gpio.c ****   EXTI_Core_TypeDef *EXTI_CurrentCPU;
 311:./Libraries/STM32H7xx_HAL_Driver/Src/stm32h7xx_hal_gpio.c **** 
 312:./Libraries/STM32H7xx_HAL_Driver/Src/stm32h7xx_hal_gpio.c **** #if defined(DUAL_CORE) && defined(CORE_CM4)
 313:./Libraries/STM32H7xx_HAL_Driver/Src/stm32h7xx_hal_gpio.c ****   EXTI_CurrentCPU = EXTI_D2; /* EXTI for CM4 CPU */
 314:./Libraries/STM32H7xx_HAL_Driver/Src/stm32h7xx_hal_gpio.c **** #else
 315:./Libraries/STM32H7xx_HAL_Driver/Src/stm32h7xx_hal_gpio.c ****   EXTI_CurrentCPU = EXTI_D1; /* EXTI for CM7 CPU */
 641              		.loc 1 315 19
 642 000e 754B     		ldr	r3, .L62
 643 0010 3B61     		str	r3, [r7, #16]
 316:./Libraries/STM32H7xx_HAL_Driver/Src/stm32h7xx_hal_gpio.c **** #endif
 317:./Libraries/STM32H7xx_HAL_Driver/Src/stm32h7xx_hal_gpio.c **** 
 318:./Libraries/STM32H7xx_HAL_Driver/Src/stm32h7xx_hal_gpio.c ****   /* Check the parameters */
 319:./Libraries/STM32H7xx_HAL_Driver/Src/stm32h7xx_hal_gpio.c ****   assert_param(IS_GPIO_ALL_INSTANCE(GPIOx));
 320:./Libraries/STM32H7xx_HAL_Driver/Src/stm32h7xx_hal_gpio.c ****   assert_param(IS_GPIO_PIN(GPIO_Pin));
 321:./Libraries/STM32H7xx_HAL_Driver/Src/stm32h7xx_hal_gpio.c **** 
 322:./Libraries/STM32H7xx_HAL_Driver/Src/stm32h7xx_hal_gpio.c ****   /* Configure the port pins */
 323:./Libraries/STM32H7xx_HAL_Driver/Src/stm32h7xx_hal_gpio.c ****   while ((GPIO_Pin >> position) != 0x00U)
 644              		.loc 1 323 9
 645 0012 D9E0     		b	.L38
ARM GAS  /tmp/ccr8Iymg.s 			page 18


 646              	.L61:
 324:./Libraries/STM32H7xx_HAL_Driver/Src/stm32h7xx_hal_gpio.c ****   {
 325:./Libraries/STM32H7xx_HAL_Driver/Src/stm32h7xx_hal_gpio.c ****     /* Get current io position */
 326:./Libraries/STM32H7xx_HAL_Driver/Src/stm32h7xx_hal_gpio.c ****     iocurrent = GPIO_Pin & (1UL << position) ;
 647              		.loc 1 326 33
 648 0014 0122     		movs	r2, #1
 649 0016 7B69     		ldr	r3, [r7, #20]
 650 0018 02FA03F3 		lsl	r3, r2, r3
 651              		.loc 1 326 15
 652 001c 3A68     		ldr	r2, [r7]
 653 001e 1340     		ands	r3, r3, r2
 654 0020 FB60     		str	r3, [r7, #12]
 327:./Libraries/STM32H7xx_HAL_Driver/Src/stm32h7xx_hal_gpio.c **** 
 328:./Libraries/STM32H7xx_HAL_Driver/Src/stm32h7xx_hal_gpio.c ****     if (iocurrent != 0x00U)
 655              		.loc 1 328 8
 656 0022 FB68     		ldr	r3, [r7, #12]
 657 0024 002B     		cmp	r3, #0
 658 0026 00F0CC80 		beq	.L39
 329:./Libraries/STM32H7xx_HAL_Driver/Src/stm32h7xx_hal_gpio.c ****     {
 330:./Libraries/STM32H7xx_HAL_Driver/Src/stm32h7xx_hal_gpio.c ****       /*------------------------- EXTI Mode Configuration --------------------*/
 331:./Libraries/STM32H7xx_HAL_Driver/Src/stm32h7xx_hal_gpio.c ****       /* Clear the External Interrupt or Event for the current IO */
 332:./Libraries/STM32H7xx_HAL_Driver/Src/stm32h7xx_hal_gpio.c ****       tmp = SYSCFG->EXTICR[position >> 2U];
 659              		.loc 1 332 19
 660 002a 6F4A     		ldr	r2, .L62+4
 661              		.loc 1 332 37
 662 002c 7B69     		ldr	r3, [r7, #20]
 663 002e 9B08     		lsrs	r3, r3, #2
 664              		.loc 1 332 11
 665 0030 0233     		adds	r3, r3, #2
 666 0032 52F82330 		ldr	r3, [r2, r3, lsl #2]
 667 0036 BB60     		str	r3, [r7, #8]
 333:./Libraries/STM32H7xx_HAL_Driver/Src/stm32h7xx_hal_gpio.c ****       tmp &= (0x0FUL << (4U * (position & 0x03U)));
 668              		.loc 1 333 41
 669 0038 7B69     		ldr	r3, [r7, #20]
 670 003a 03F00303 		and	r3, r3, #3
 671              		.loc 1 333 29
 672 003e 9B00     		lsls	r3, r3, #2
 673              		.loc 1 333 22
 674 0040 0F22     		movs	r2, #15
 675 0042 02FA03F3 		lsl	r3, r2, r3
 676              		.loc 1 333 11
 677 0046 BA68     		ldr	r2, [r7, #8]
 678 0048 1340     		ands	r3, r3, r2
 679 004a BB60     		str	r3, [r7, #8]
 334:./Libraries/STM32H7xx_HAL_Driver/Src/stm32h7xx_hal_gpio.c ****       if (tmp == (GPIO_GET_INDEX(GPIOx) << (4U * (position & 0x03U))))
 680              		.loc 1 334 19
 681 004c 7B68     		ldr	r3, [r7, #4]
 682 004e 674A     		ldr	r2, .L62+8
 683 0050 9342     		cmp	r3, r2
 684 0052 37D0     		beq	.L40
 685              		.loc 1 334 19 is_stmt 0 discriminator 1
 686 0054 7B68     		ldr	r3, [r7, #4]
 687 0056 664A     		ldr	r2, .L62+12
 688 0058 9342     		cmp	r3, r2
 689 005a 31D0     		beq	.L41
 690              		.loc 1 334 19 discriminator 3
 691 005c 7B68     		ldr	r3, [r7, #4]
ARM GAS  /tmp/ccr8Iymg.s 			page 19


 692 005e 654A     		ldr	r2, .L62+16
 693 0060 9342     		cmp	r3, r2
 694 0062 2BD0     		beq	.L42
 695              		.loc 1 334 19 discriminator 5
 696 0064 7B68     		ldr	r3, [r7, #4]
 697 0066 644A     		ldr	r2, .L62+20
 698 0068 9342     		cmp	r3, r2
 699 006a 25D0     		beq	.L43
 700              		.loc 1 334 19 discriminator 7
 701 006c 7B68     		ldr	r3, [r7, #4]
 702 006e 634A     		ldr	r2, .L62+24
 703 0070 9342     		cmp	r3, r2
 704 0072 1FD0     		beq	.L44
 705              		.loc 1 334 19 discriminator 9
 706 0074 7B68     		ldr	r3, [r7, #4]
 707 0076 624A     		ldr	r2, .L62+28
 708 0078 9342     		cmp	r3, r2
 709 007a 19D0     		beq	.L45
 710              		.loc 1 334 19 discriminator 11
 711 007c 7B68     		ldr	r3, [r7, #4]
 712 007e 614A     		ldr	r2, .L62+32
 713 0080 9342     		cmp	r3, r2
 714 0082 13D0     		beq	.L46
 715              		.loc 1 334 19 discriminator 13
 716 0084 7B68     		ldr	r3, [r7, #4]
 717 0086 604A     		ldr	r2, .L62+36
 718 0088 9342     		cmp	r3, r2
 719 008a 0DD0     		beq	.L47
 720              		.loc 1 334 19 discriminator 15
 721 008c 7B68     		ldr	r3, [r7, #4]
 722 008e 5F4A     		ldr	r2, .L62+40
 723 0090 9342     		cmp	r3, r2
 724 0092 07D0     		beq	.L48
 725              		.loc 1 334 19 discriminator 17
 726 0094 7B68     		ldr	r3, [r7, #4]
 727 0096 5E4A     		ldr	r2, .L62+44
 728 0098 9342     		cmp	r3, r2
 729 009a 01D1     		bne	.L49
 730              		.loc 1 334 19 discriminator 19
 731 009c 0923     		movs	r3, #9
 732 009e 12E0     		b	.L59
 733              	.L49:
 734              		.loc 1 334 19 discriminator 20
 735 00a0 0A23     		movs	r3, #10
 736 00a2 10E0     		b	.L59
 737              	.L48:
 738              		.loc 1 334 19 discriminator 18
 739 00a4 0823     		movs	r3, #8
 740 00a6 0EE0     		b	.L59
 741              	.L47:
 742              		.loc 1 334 19 discriminator 16
 743 00a8 0723     		movs	r3, #7
 744 00aa 0CE0     		b	.L59
 745              	.L46:
 746              		.loc 1 334 19 discriminator 14
 747 00ac 0623     		movs	r3, #6
 748 00ae 0AE0     		b	.L59
ARM GAS  /tmp/ccr8Iymg.s 			page 20


 749              	.L45:
 750              		.loc 1 334 19 discriminator 12
 751 00b0 0523     		movs	r3, #5
 752 00b2 08E0     		b	.L59
 753              	.L44:
 754              		.loc 1 334 19 discriminator 10
 755 00b4 0423     		movs	r3, #4
 756 00b6 06E0     		b	.L59
 757              	.L43:
 758              		.loc 1 334 19 discriminator 8
 759 00b8 0323     		movs	r3, #3
 760 00ba 04E0     		b	.L59
 761              	.L42:
 762              		.loc 1 334 19 discriminator 6
 763 00bc 0223     		movs	r3, #2
 764 00be 02E0     		b	.L59
 765              	.L41:
 766              		.loc 1 334 19 discriminator 4
 767 00c0 0123     		movs	r3, #1
 768 00c2 00E0     		b	.L59
 769              	.L40:
 770              		.loc 1 334 19 discriminator 2
 771 00c4 0023     		movs	r3, #0
 772              	.L59:
 773              		.loc 1 334 60 is_stmt 1 discriminator 40
 774 00c6 7A69     		ldr	r2, [r7, #20]
 775 00c8 02F00302 		and	r2, r2, #3
 776              		.loc 1 334 48 discriminator 40
 777 00cc 9200     		lsls	r2, r2, #2
 778              		.loc 1 334 41 discriminator 40
 779 00ce 9340     		lsls	r3, r3, r2
 780              		.loc 1 334 10 discriminator 40
 781 00d0 BA68     		ldr	r2, [r7, #8]
 782 00d2 9A42     		cmp	r2, r3
 783 00d4 36D1     		bne	.L60
 335:./Libraries/STM32H7xx_HAL_Driver/Src/stm32h7xx_hal_gpio.c ****       {
 336:./Libraries/STM32H7xx_HAL_Driver/Src/stm32h7xx_hal_gpio.c ****         /* Clear EXTI line configuration for Current CPU */
 337:./Libraries/STM32H7xx_HAL_Driver/Src/stm32h7xx_hal_gpio.c ****         EXTI_CurrentCPU->IMR1 &= ~(iocurrent);
 784              		.loc 1 337 31
 785 00d6 3B69     		ldr	r3, [r7, #16]
 786 00d8 1A68     		ldr	r2, [r3]
 787              		.loc 1 337 34
 788 00da FB68     		ldr	r3, [r7, #12]
 789 00dc DB43     		mvns	r3, r3
 790              		.loc 1 337 31
 791 00de 1A40     		ands	r2, r2, r3
 792 00e0 3B69     		ldr	r3, [r7, #16]
 793 00e2 1A60     		str	r2, [r3]
 338:./Libraries/STM32H7xx_HAL_Driver/Src/stm32h7xx_hal_gpio.c ****         EXTI_CurrentCPU->EMR1 &= ~(iocurrent);
 794              		.loc 1 338 31
 795 00e4 3B69     		ldr	r3, [r7, #16]
 796 00e6 5A68     		ldr	r2, [r3, #4]
 797              		.loc 1 338 34
 798 00e8 FB68     		ldr	r3, [r7, #12]
 799 00ea DB43     		mvns	r3, r3
 800              		.loc 1 338 31
 801 00ec 1A40     		ands	r2, r2, r3
ARM GAS  /tmp/ccr8Iymg.s 			page 21


 802 00ee 3B69     		ldr	r3, [r7, #16]
 803 00f0 5A60     		str	r2, [r3, #4]
 339:./Libraries/STM32H7xx_HAL_Driver/Src/stm32h7xx_hal_gpio.c **** 
 340:./Libraries/STM32H7xx_HAL_Driver/Src/stm32h7xx_hal_gpio.c ****         /* Clear Rising Falling edge configuration */
 341:./Libraries/STM32H7xx_HAL_Driver/Src/stm32h7xx_hal_gpio.c ****         EXTI->RTSR1 &= ~(iocurrent);
 804              		.loc 1 341 21
 805 00f2 4FF0B043 		mov	r3, #1476395008
 806 00f6 1A68     		ldr	r2, [r3]
 807              		.loc 1 341 24
 808 00f8 FB68     		ldr	r3, [r7, #12]
 809 00fa DB43     		mvns	r3, r3
 810              		.loc 1 341 21
 811 00fc 4FF0B041 		mov	r1, #1476395008
 812 0100 1340     		ands	r3, r3, r2
 813 0102 0B60     		str	r3, [r1]
 342:./Libraries/STM32H7xx_HAL_Driver/Src/stm32h7xx_hal_gpio.c ****         EXTI->FTSR1 &= ~(iocurrent);
 814              		.loc 1 342 21
 815 0104 4FF0B043 		mov	r3, #1476395008
 816 0108 5A68     		ldr	r2, [r3, #4]
 817              		.loc 1 342 24
 818 010a FB68     		ldr	r3, [r7, #12]
 819 010c DB43     		mvns	r3, r3
 820              		.loc 1 342 21
 821 010e 4FF0B041 		mov	r1, #1476395008
 822 0112 1340     		ands	r3, r3, r2
 823 0114 4B60     		str	r3, [r1, #4]
 343:./Libraries/STM32H7xx_HAL_Driver/Src/stm32h7xx_hal_gpio.c **** 
 344:./Libraries/STM32H7xx_HAL_Driver/Src/stm32h7xx_hal_gpio.c ****         tmp = 0x0FUL << (4U * (position & 0x03U));
 824              		.loc 1 344 41
 825 0116 7B69     		ldr	r3, [r7, #20]
 826 0118 03F00303 		and	r3, r3, #3
 827              		.loc 1 344 29
 828 011c 9B00     		lsls	r3, r3, #2
 829              		.loc 1 344 13
 830 011e 0F22     		movs	r2, #15
 831 0120 02FA03F3 		lsl	r3, r2, r3
 832 0124 BB60     		str	r3, [r7, #8]
 345:./Libraries/STM32H7xx_HAL_Driver/Src/stm32h7xx_hal_gpio.c ****         SYSCFG->EXTICR[position >> 2U] &= ~tmp;
 833              		.loc 1 345 40
 834 0126 304A     		ldr	r2, .L62+4
 835 0128 7B69     		ldr	r3, [r7, #20]
 836 012a 9B08     		lsrs	r3, r3, #2
 837 012c 0233     		adds	r3, r3, #2
 838 012e 52F82310 		ldr	r1, [r2, r3, lsl #2]
 839              		.loc 1 345 43
 840 0132 BB68     		ldr	r3, [r7, #8]
 841 0134 DA43     		mvns	r2, r3
 842              		.loc 1 345 40
 843 0136 2C48     		ldr	r0, .L62+4
 844 0138 7B69     		ldr	r3, [r7, #20]
 845 013a 9B08     		lsrs	r3, r3, #2
 846 013c 0A40     		ands	r2, r2, r1
 847 013e 0233     		adds	r3, r3, #2
 848 0140 40F82320 		str	r2, [r0, r3, lsl #2]
 849              	.L60:
 346:./Libraries/STM32H7xx_HAL_Driver/Src/stm32h7xx_hal_gpio.c ****       }
 347:./Libraries/STM32H7xx_HAL_Driver/Src/stm32h7xx_hal_gpio.c **** 
ARM GAS  /tmp/ccr8Iymg.s 			page 22


 348:./Libraries/STM32H7xx_HAL_Driver/Src/stm32h7xx_hal_gpio.c ****       /*------------------------- GPIO Mode Configuration --------------------*/
 349:./Libraries/STM32H7xx_HAL_Driver/Src/stm32h7xx_hal_gpio.c ****       /* Configure IO in Analog Mode */
 350:./Libraries/STM32H7xx_HAL_Driver/Src/stm32h7xx_hal_gpio.c ****       GPIOx->MODER |= (GPIO_MODER_MODE0 << (position * 2U));
 850              		.loc 1 350 20
 851 0144 7B68     		ldr	r3, [r7, #4]
 852 0146 1A68     		ldr	r2, [r3]
 853              		.loc 1 350 54
 854 0148 7B69     		ldr	r3, [r7, #20]
 855 014a 5B00     		lsls	r3, r3, #1
 856              		.loc 1 350 41
 857 014c 0321     		movs	r1, #3
 858 014e 01FA03F3 		lsl	r3, r1, r3
 859              		.loc 1 350 20
 860 0152 1A43     		orrs	r2, r2, r3
 861 0154 7B68     		ldr	r3, [r7, #4]
 862 0156 1A60     		str	r2, [r3]
 351:./Libraries/STM32H7xx_HAL_Driver/Src/stm32h7xx_hal_gpio.c **** 
 352:./Libraries/STM32H7xx_HAL_Driver/Src/stm32h7xx_hal_gpio.c ****       /* Configure the default Alternate Function in current IO */
 353:./Libraries/STM32H7xx_HAL_Driver/Src/stm32h7xx_hal_gpio.c ****       GPIOx->AFR[position >> 3U] &= ~(0xFU << ((position & 0x07U) * 4U)) ;
 863              		.loc 1 353 34
 864 0158 7B69     		ldr	r3, [r7, #20]
 865 015a DA08     		lsrs	r2, r3, #3
 866 015c 7B68     		ldr	r3, [r7, #4]
 867 015e 0832     		adds	r2, r2, #8
 868 0160 53F82210 		ldr	r1, [r3, r2, lsl #2]
 869              		.loc 1 353 58
 870 0164 7B69     		ldr	r3, [r7, #20]
 871 0166 03F00703 		and	r3, r3, #7
 872              		.loc 1 353 67
 873 016a 9B00     		lsls	r3, r3, #2
 874              		.loc 1 353 44
 875 016c 0F22     		movs	r2, #15
 876 016e 02FA03F3 		lsl	r3, r2, r3
 877              		.loc 1 353 37
 878 0172 DB43     		mvns	r3, r3
 879              		.loc 1 353 34
 880 0174 7A69     		ldr	r2, [r7, #20]
 881 0176 D208     		lsrs	r2, r2, #3
 882 0178 1940     		ands	r1, r1, r3
 883 017a 7B68     		ldr	r3, [r7, #4]
 884 017c 0832     		adds	r2, r2, #8
 885 017e 43F82210 		str	r1, [r3, r2, lsl #2]
 354:./Libraries/STM32H7xx_HAL_Driver/Src/stm32h7xx_hal_gpio.c **** 
 355:./Libraries/STM32H7xx_HAL_Driver/Src/stm32h7xx_hal_gpio.c ****       /* Deactivate the Pull-up and Pull-down resistor for the current IO */
 356:./Libraries/STM32H7xx_HAL_Driver/Src/stm32h7xx_hal_gpio.c ****       GPIOx->PUPDR &= ~(GPIO_PUPDR_PUPD0 << (position * 2U));
 886              		.loc 1 356 20
 887 0182 7B68     		ldr	r3, [r7, #4]
 888 0184 DA68     		ldr	r2, [r3, #12]
 889              		.loc 1 356 55
 890 0186 7B69     		ldr	r3, [r7, #20]
 891 0188 5B00     		lsls	r3, r3, #1
 892              		.loc 1 356 42
 893 018a 0321     		movs	r1, #3
 894 018c 01FA03F3 		lsl	r3, r1, r3
 895              		.loc 1 356 23
 896 0190 DB43     		mvns	r3, r3
 897              		.loc 1 356 20
ARM GAS  /tmp/ccr8Iymg.s 			page 23


 898 0192 1A40     		ands	r2, r2, r3
 899 0194 7B68     		ldr	r3, [r7, #4]
 900 0196 DA60     		str	r2, [r3, #12]
 357:./Libraries/STM32H7xx_HAL_Driver/Src/stm32h7xx_hal_gpio.c **** 
 358:./Libraries/STM32H7xx_HAL_Driver/Src/stm32h7xx_hal_gpio.c ****       /* Configure the default value IO Output Type */
 359:./Libraries/STM32H7xx_HAL_Driver/Src/stm32h7xx_hal_gpio.c ****       GPIOx->OTYPER  &= ~(GPIO_OTYPER_OT0 << position) ;
 901              		.loc 1 359 22
 902 0198 7B68     		ldr	r3, [r7, #4]
 903 019a 5A68     		ldr	r2, [r3, #4]
 904              		.loc 1 359 43
 905 019c 0121     		movs	r1, #1
 906 019e 7B69     		ldr	r3, [r7, #20]
 907 01a0 01FA03F3 		lsl	r3, r1, r3
 908              		.loc 1 359 25
 909 01a4 DB43     		mvns	r3, r3
 910              		.loc 1 359 22
 911 01a6 1A40     		ands	r2, r2, r3
 912 01a8 7B68     		ldr	r3, [r7, #4]
 913 01aa 5A60     		str	r2, [r3, #4]
 360:./Libraries/STM32H7xx_HAL_Driver/Src/stm32h7xx_hal_gpio.c **** 
 361:./Libraries/STM32H7xx_HAL_Driver/Src/stm32h7xx_hal_gpio.c ****       /* Configure the default value for IO Speed */
 362:./Libraries/STM32H7xx_HAL_Driver/Src/stm32h7xx_hal_gpio.c ****       GPIOx->OSPEEDR &= ~(GPIO_OSPEEDR_OSPEED0 << (position * 2U));
 914              		.loc 1 362 22
 915 01ac 7B68     		ldr	r3, [r7, #4]
 916 01ae 9A68     		ldr	r2, [r3, #8]
 917              		.loc 1 362 61
 918 01b0 7B69     		ldr	r3, [r7, #20]
 919 01b2 5B00     		lsls	r3, r3, #1
 920              		.loc 1 362 48
 921 01b4 0321     		movs	r1, #3
 922 01b6 01FA03F3 		lsl	r3, r1, r3
 923              		.loc 1 362 25
 924 01ba DB43     		mvns	r3, r3
 925              		.loc 1 362 22
 926 01bc 1A40     		ands	r2, r2, r3
 927 01be 7B68     		ldr	r3, [r7, #4]
 928 01c0 9A60     		str	r2, [r3, #8]
 929              	.L39:
 363:./Libraries/STM32H7xx_HAL_Driver/Src/stm32h7xx_hal_gpio.c ****     }
 364:./Libraries/STM32H7xx_HAL_Driver/Src/stm32h7xx_hal_gpio.c **** 
 365:./Libraries/STM32H7xx_HAL_Driver/Src/stm32h7xx_hal_gpio.c ****     position++;
 930              		.loc 1 365 13
 931 01c2 7B69     		ldr	r3, [r7, #20]
 932 01c4 0133     		adds	r3, r3, #1
 933 01c6 7B61     		str	r3, [r7, #20]
 934              	.L38:
 323:./Libraries/STM32H7xx_HAL_Driver/Src/stm32h7xx_hal_gpio.c ****   {
 935              		.loc 1 323 20
 936 01c8 3A68     		ldr	r2, [r7]
 937 01ca 7B69     		ldr	r3, [r7, #20]
 938 01cc 22FA03F3 		lsr	r3, r2, r3
 323:./Libraries/STM32H7xx_HAL_Driver/Src/stm32h7xx_hal_gpio.c ****   {
 939              		.loc 1 323 9
 940 01d0 002B     		cmp	r3, #0
 941 01d2 7FF41FAF 		bne	.L61
 366:./Libraries/STM32H7xx_HAL_Driver/Src/stm32h7xx_hal_gpio.c ****   }
 367:./Libraries/STM32H7xx_HAL_Driver/Src/stm32h7xx_hal_gpio.c **** }
ARM GAS  /tmp/ccr8Iymg.s 			page 24


 942              		.loc 1 367 1
 943 01d6 00BF     		nop
 944 01d8 00BF     		nop
 945 01da 1C37     		adds	r7, r7, #28
 946              	.LCFI9:
 947              		.cfi_def_cfa_offset 4
 948 01dc BD46     		mov	sp, r7
 949              	.LCFI10:
 950              		.cfi_def_cfa_register 13
 951              		@ sp needed
 952 01de 5DF8047B 		ldr	r7, [sp], #4
 953              	.LCFI11:
 954              		.cfi_restore 7
 955              		.cfi_def_cfa_offset 0
 956 01e2 7047     		bx	lr
 957              	.L63:
 958              		.align	2
 959              	.L62:
 960 01e4 80000058 		.word	1476395136
 961 01e8 00040058 		.word	1476396032
 962 01ec 00000258 		.word	1476526080
 963 01f0 00040258 		.word	1476527104
 964 01f4 00080258 		.word	1476528128
 965 01f8 000C0258 		.word	1476529152
 966 01fc 00100258 		.word	1476530176
 967 0200 00140258 		.word	1476531200
 968 0204 00180258 		.word	1476532224
 969 0208 001C0258 		.word	1476533248
 970 020c 00200258 		.word	1476534272
 971 0210 00240258 		.word	1476535296
 972              		.cfi_endproc
 973              	.LFE332:
 975              		.section	.text.HAL_GPIO_ReadPin,"ax",%progbits
 976              		.align	1
 977              		.global	HAL_GPIO_ReadPin
 978              		.syntax unified
 979              		.thumb
 980              		.thumb_func
 981              		.fpu fpv5-d16
 983              	HAL_GPIO_ReadPin:
 984              	.LFB333:
 368:./Libraries/STM32H7xx_HAL_Driver/Src/stm32h7xx_hal_gpio.c **** 
 369:./Libraries/STM32H7xx_HAL_Driver/Src/stm32h7xx_hal_gpio.c **** /**
 370:./Libraries/STM32H7xx_HAL_Driver/Src/stm32h7xx_hal_gpio.c ****   * @}
 371:./Libraries/STM32H7xx_HAL_Driver/Src/stm32h7xx_hal_gpio.c ****   */
 372:./Libraries/STM32H7xx_HAL_Driver/Src/stm32h7xx_hal_gpio.c **** 
 373:./Libraries/STM32H7xx_HAL_Driver/Src/stm32h7xx_hal_gpio.c **** /** @defgroup GPIO_Exported_Functions_Group2 IO operation functions
 374:./Libraries/STM32H7xx_HAL_Driver/Src/stm32h7xx_hal_gpio.c ****  *  @brief GPIO Read, Write, Toggle, Lock and EXTI management functions.
 375:./Libraries/STM32H7xx_HAL_Driver/Src/stm32h7xx_hal_gpio.c ****  *
 376:./Libraries/STM32H7xx_HAL_Driver/Src/stm32h7xx_hal_gpio.c **** @verbatim
 377:./Libraries/STM32H7xx_HAL_Driver/Src/stm32h7xx_hal_gpio.c ****  ===============================================================================
 378:./Libraries/STM32H7xx_HAL_Driver/Src/stm32h7xx_hal_gpio.c ****                        ##### IO operation functions #####
 379:./Libraries/STM32H7xx_HAL_Driver/Src/stm32h7xx_hal_gpio.c ****  ===============================================================================
 380:./Libraries/STM32H7xx_HAL_Driver/Src/stm32h7xx_hal_gpio.c **** 
 381:./Libraries/STM32H7xx_HAL_Driver/Src/stm32h7xx_hal_gpio.c **** @endverbatim
 382:./Libraries/STM32H7xx_HAL_Driver/Src/stm32h7xx_hal_gpio.c ****   * @{
 383:./Libraries/STM32H7xx_HAL_Driver/Src/stm32h7xx_hal_gpio.c ****   */
ARM GAS  /tmp/ccr8Iymg.s 			page 25


 384:./Libraries/STM32H7xx_HAL_Driver/Src/stm32h7xx_hal_gpio.c **** 
 385:./Libraries/STM32H7xx_HAL_Driver/Src/stm32h7xx_hal_gpio.c **** /**
 386:./Libraries/STM32H7xx_HAL_Driver/Src/stm32h7xx_hal_gpio.c ****   * @brief  Reads the specified input port pin.
 387:./Libraries/STM32H7xx_HAL_Driver/Src/stm32h7xx_hal_gpio.c ****   * @param  GPIOx: where x can be (A..K) to select the GPIO peripheral.
 388:./Libraries/STM32H7xx_HAL_Driver/Src/stm32h7xx_hal_gpio.c ****   * @param  GPIO_Pin: specifies the port bit to read.
 389:./Libraries/STM32H7xx_HAL_Driver/Src/stm32h7xx_hal_gpio.c ****   *         This parameter can be GPIO_PIN_x where x can be (0..15).
 390:./Libraries/STM32H7xx_HAL_Driver/Src/stm32h7xx_hal_gpio.c ****   * @retval The input port pin value.
 391:./Libraries/STM32H7xx_HAL_Driver/Src/stm32h7xx_hal_gpio.c ****   */
 392:./Libraries/STM32H7xx_HAL_Driver/Src/stm32h7xx_hal_gpio.c **** GPIO_PinState HAL_GPIO_ReadPin(GPIO_TypeDef *GPIOx, uint16_t GPIO_Pin)
 393:./Libraries/STM32H7xx_HAL_Driver/Src/stm32h7xx_hal_gpio.c **** {
 985              		.loc 1 393 1
 986              		.cfi_startproc
 987              		@ args = 0, pretend = 0, frame = 16
 988              		@ frame_needed = 1, uses_anonymous_args = 0
 989              		@ link register save eliminated.
 990 0000 80B4     		push	{r7}
 991              	.LCFI12:
 992              		.cfi_def_cfa_offset 4
 993              		.cfi_offset 7, -4
 994 0002 85B0     		sub	sp, sp, #20
 995              	.LCFI13:
 996              		.cfi_def_cfa_offset 24
 997 0004 00AF     		add	r7, sp, #0
 998              	.LCFI14:
 999              		.cfi_def_cfa_register 7
 1000 0006 7860     		str	r0, [r7, #4]
 1001 0008 0B46     		mov	r3, r1
 1002 000a 7B80     		strh	r3, [r7, #2]	@ movhi
 394:./Libraries/STM32H7xx_HAL_Driver/Src/stm32h7xx_hal_gpio.c ****   GPIO_PinState bitstatus;
 395:./Libraries/STM32H7xx_HAL_Driver/Src/stm32h7xx_hal_gpio.c **** 
 396:./Libraries/STM32H7xx_HAL_Driver/Src/stm32h7xx_hal_gpio.c ****   /* Check the parameters */
 397:./Libraries/STM32H7xx_HAL_Driver/Src/stm32h7xx_hal_gpio.c ****   assert_param(IS_GPIO_PIN(GPIO_Pin));
 398:./Libraries/STM32H7xx_HAL_Driver/Src/stm32h7xx_hal_gpio.c **** 
 399:./Libraries/STM32H7xx_HAL_Driver/Src/stm32h7xx_hal_gpio.c ****   if ((GPIOx->IDR & GPIO_Pin) != 0x00U)
 1003              		.loc 1 399 13
 1004 000c 7B68     		ldr	r3, [r7, #4]
 1005 000e 1A69     		ldr	r2, [r3, #16]
 1006              		.loc 1 399 19
 1007 0010 7B88     		ldrh	r3, [r7, #2]
 1008 0012 1340     		ands	r3, r3, r2
 1009              		.loc 1 399 6
 1010 0014 002B     		cmp	r3, #0
 1011 0016 02D0     		beq	.L65
 400:./Libraries/STM32H7xx_HAL_Driver/Src/stm32h7xx_hal_gpio.c ****   {
 401:./Libraries/STM32H7xx_HAL_Driver/Src/stm32h7xx_hal_gpio.c ****     bitstatus = GPIO_PIN_SET;
 1012              		.loc 1 401 15
 1013 0018 0123     		movs	r3, #1
 1014 001a FB73     		strb	r3, [r7, #15]
 1015 001c 01E0     		b	.L66
 1016              	.L65:
 402:./Libraries/STM32H7xx_HAL_Driver/Src/stm32h7xx_hal_gpio.c ****   }
 403:./Libraries/STM32H7xx_HAL_Driver/Src/stm32h7xx_hal_gpio.c ****   else
 404:./Libraries/STM32H7xx_HAL_Driver/Src/stm32h7xx_hal_gpio.c ****   {
 405:./Libraries/STM32H7xx_HAL_Driver/Src/stm32h7xx_hal_gpio.c ****     bitstatus = GPIO_PIN_RESET;
 1017              		.loc 1 405 15
 1018 001e 0023     		movs	r3, #0
 1019 0020 FB73     		strb	r3, [r7, #15]
ARM GAS  /tmp/ccr8Iymg.s 			page 26


 1020              	.L66:
 406:./Libraries/STM32H7xx_HAL_Driver/Src/stm32h7xx_hal_gpio.c ****   }
 407:./Libraries/STM32H7xx_HAL_Driver/Src/stm32h7xx_hal_gpio.c ****   return bitstatus;
 1021              		.loc 1 407 10
 1022 0022 FB7B     		ldrb	r3, [r7, #15]	@ zero_extendqisi2
 408:./Libraries/STM32H7xx_HAL_Driver/Src/stm32h7xx_hal_gpio.c **** }
 1023              		.loc 1 408 1
 1024 0024 1846     		mov	r0, r3
 1025 0026 1437     		adds	r7, r7, #20
 1026              	.LCFI15:
 1027              		.cfi_def_cfa_offset 4
 1028 0028 BD46     		mov	sp, r7
 1029              	.LCFI16:
 1030              		.cfi_def_cfa_register 13
 1031              		@ sp needed
 1032 002a 5DF8047B 		ldr	r7, [sp], #4
 1033              	.LCFI17:
 1034              		.cfi_restore 7
 1035              		.cfi_def_cfa_offset 0
 1036 002e 7047     		bx	lr
 1037              		.cfi_endproc
 1038              	.LFE333:
 1040              		.section	.text.HAL_GPIO_WritePin,"ax",%progbits
 1041              		.align	1
 1042              		.global	HAL_GPIO_WritePin
 1043              		.syntax unified
 1044              		.thumb
 1045              		.thumb_func
 1046              		.fpu fpv5-d16
 1048              	HAL_GPIO_WritePin:
 1049              	.LFB334:
 409:./Libraries/STM32H7xx_HAL_Driver/Src/stm32h7xx_hal_gpio.c **** 
 410:./Libraries/STM32H7xx_HAL_Driver/Src/stm32h7xx_hal_gpio.c **** /**
 411:./Libraries/STM32H7xx_HAL_Driver/Src/stm32h7xx_hal_gpio.c ****   * @brief  Sets or clears the selected data port bit.
 412:./Libraries/STM32H7xx_HAL_Driver/Src/stm32h7xx_hal_gpio.c ****   *
 413:./Libraries/STM32H7xx_HAL_Driver/Src/stm32h7xx_hal_gpio.c ****   * @note   This function uses GPIOx_BSRR register to allow atomic read/modify
 414:./Libraries/STM32H7xx_HAL_Driver/Src/stm32h7xx_hal_gpio.c ****   *         accesses. In this way, there is no risk of an IRQ occurring between
 415:./Libraries/STM32H7xx_HAL_Driver/Src/stm32h7xx_hal_gpio.c ****   *         the read and the modify access.
 416:./Libraries/STM32H7xx_HAL_Driver/Src/stm32h7xx_hal_gpio.c ****   *
 417:./Libraries/STM32H7xx_HAL_Driver/Src/stm32h7xx_hal_gpio.c ****   * @param  GPIOx: where x can be (A..K) to select the GPIO peripheral.
 418:./Libraries/STM32H7xx_HAL_Driver/Src/stm32h7xx_hal_gpio.c ****   * @param  GPIO_Pin: specifies the port bit to be written.
 419:./Libraries/STM32H7xx_HAL_Driver/Src/stm32h7xx_hal_gpio.c ****   *          This parameter can be one of GPIO_PIN_x where x can be (0..15).
 420:./Libraries/STM32H7xx_HAL_Driver/Src/stm32h7xx_hal_gpio.c ****   * @param  PinState: specifies the value to be written to the selected bit.
 421:./Libraries/STM32H7xx_HAL_Driver/Src/stm32h7xx_hal_gpio.c ****   *          This parameter can be one of the GPIO_PinState enum values:
 422:./Libraries/STM32H7xx_HAL_Driver/Src/stm32h7xx_hal_gpio.c ****   *            @arg GPIO_PIN_RESET: to clear the port pin
 423:./Libraries/STM32H7xx_HAL_Driver/Src/stm32h7xx_hal_gpio.c ****   *            @arg GPIO_PIN_SET: to set the port pin
 424:./Libraries/STM32H7xx_HAL_Driver/Src/stm32h7xx_hal_gpio.c ****   * @retval None
 425:./Libraries/STM32H7xx_HAL_Driver/Src/stm32h7xx_hal_gpio.c ****   */
 426:./Libraries/STM32H7xx_HAL_Driver/Src/stm32h7xx_hal_gpio.c **** void HAL_GPIO_WritePin(GPIO_TypeDef *GPIOx, uint16_t GPIO_Pin, GPIO_PinState PinState)
 427:./Libraries/STM32H7xx_HAL_Driver/Src/stm32h7xx_hal_gpio.c **** {
 1050              		.loc 1 427 1
 1051              		.cfi_startproc
 1052              		@ args = 0, pretend = 0, frame = 8
 1053              		@ frame_needed = 1, uses_anonymous_args = 0
 1054              		@ link register save eliminated.
 1055 0000 80B4     		push	{r7}
 1056              	.LCFI18:
ARM GAS  /tmp/ccr8Iymg.s 			page 27


 1057              		.cfi_def_cfa_offset 4
 1058              		.cfi_offset 7, -4
 1059 0002 83B0     		sub	sp, sp, #12
 1060              	.LCFI19:
 1061              		.cfi_def_cfa_offset 16
 1062 0004 00AF     		add	r7, sp, #0
 1063              	.LCFI20:
 1064              		.cfi_def_cfa_register 7
 1065 0006 7860     		str	r0, [r7, #4]
 1066 0008 0B46     		mov	r3, r1
 1067 000a 7B80     		strh	r3, [r7, #2]	@ movhi
 1068 000c 1346     		mov	r3, r2
 1069 000e 7B70     		strb	r3, [r7, #1]
 428:./Libraries/STM32H7xx_HAL_Driver/Src/stm32h7xx_hal_gpio.c ****   /* Check the parameters */
 429:./Libraries/STM32H7xx_HAL_Driver/Src/stm32h7xx_hal_gpio.c ****   assert_param(IS_GPIO_PIN(GPIO_Pin));
 430:./Libraries/STM32H7xx_HAL_Driver/Src/stm32h7xx_hal_gpio.c ****   assert_param(IS_GPIO_PIN_ACTION(PinState));
 431:./Libraries/STM32H7xx_HAL_Driver/Src/stm32h7xx_hal_gpio.c **** 
 432:./Libraries/STM32H7xx_HAL_Driver/Src/stm32h7xx_hal_gpio.c ****   if (PinState != GPIO_PIN_RESET)
 1070              		.loc 1 432 6
 1071 0010 7B78     		ldrb	r3, [r7, #1]	@ zero_extendqisi2
 1072 0012 002B     		cmp	r3, #0
 1073 0014 03D0     		beq	.L69
 433:./Libraries/STM32H7xx_HAL_Driver/Src/stm32h7xx_hal_gpio.c ****   {
 434:./Libraries/STM32H7xx_HAL_Driver/Src/stm32h7xx_hal_gpio.c ****     GPIOx->BSRR = GPIO_Pin;
 1074              		.loc 1 434 17
 1075 0016 7A88     		ldrh	r2, [r7, #2]
 1076 0018 7B68     		ldr	r3, [r7, #4]
 1077 001a 9A61     		str	r2, [r3, #24]
 435:./Libraries/STM32H7xx_HAL_Driver/Src/stm32h7xx_hal_gpio.c ****   }
 436:./Libraries/STM32H7xx_HAL_Driver/Src/stm32h7xx_hal_gpio.c ****   else
 437:./Libraries/STM32H7xx_HAL_Driver/Src/stm32h7xx_hal_gpio.c ****   {
 438:./Libraries/STM32H7xx_HAL_Driver/Src/stm32h7xx_hal_gpio.c ****     GPIOx->BSRR = (uint32_t)GPIO_Pin << GPIO_NUMBER;
 439:./Libraries/STM32H7xx_HAL_Driver/Src/stm32h7xx_hal_gpio.c ****   }
 440:./Libraries/STM32H7xx_HAL_Driver/Src/stm32h7xx_hal_gpio.c **** }
 1078              		.loc 1 440 1
 1079 001c 03E0     		b	.L71
 1080              	.L69:
 438:./Libraries/STM32H7xx_HAL_Driver/Src/stm32h7xx_hal_gpio.c ****   }
 1081              		.loc 1 438 19
 1082 001e 7B88     		ldrh	r3, [r7, #2]
 438:./Libraries/STM32H7xx_HAL_Driver/Src/stm32h7xx_hal_gpio.c ****   }
 1083              		.loc 1 438 38
 1084 0020 1A04     		lsls	r2, r3, #16
 438:./Libraries/STM32H7xx_HAL_Driver/Src/stm32h7xx_hal_gpio.c ****   }
 1085              		.loc 1 438 17
 1086 0022 7B68     		ldr	r3, [r7, #4]
 1087 0024 9A61     		str	r2, [r3, #24]
 1088              	.L71:
 1089              		.loc 1 440 1
 1090 0026 00BF     		nop
 1091 0028 0C37     		adds	r7, r7, #12
 1092              	.LCFI21:
 1093              		.cfi_def_cfa_offset 4
 1094 002a BD46     		mov	sp, r7
 1095              	.LCFI22:
 1096              		.cfi_def_cfa_register 13
 1097              		@ sp needed
ARM GAS  /tmp/ccr8Iymg.s 			page 28


 1098 002c 5DF8047B 		ldr	r7, [sp], #4
 1099              	.LCFI23:
 1100              		.cfi_restore 7
 1101              		.cfi_def_cfa_offset 0
 1102 0030 7047     		bx	lr
 1103              		.cfi_endproc
 1104              	.LFE334:
 1106              		.section	.text.HAL_GPIO_TogglePin,"ax",%progbits
 1107              		.align	1
 1108              		.global	HAL_GPIO_TogglePin
 1109              		.syntax unified
 1110              		.thumb
 1111              		.thumb_func
 1112              		.fpu fpv5-d16
 1114              	HAL_GPIO_TogglePin:
 1115              	.LFB335:
 441:./Libraries/STM32H7xx_HAL_Driver/Src/stm32h7xx_hal_gpio.c **** 
 442:./Libraries/STM32H7xx_HAL_Driver/Src/stm32h7xx_hal_gpio.c **** /**
 443:./Libraries/STM32H7xx_HAL_Driver/Src/stm32h7xx_hal_gpio.c ****   * @brief  Toggles the specified GPIO pins.
 444:./Libraries/STM32H7xx_HAL_Driver/Src/stm32h7xx_hal_gpio.c ****   * @param  GPIOx: Where x can be (A..K) to select the GPIO peripheral.
 445:./Libraries/STM32H7xx_HAL_Driver/Src/stm32h7xx_hal_gpio.c ****   * @param  GPIO_Pin: Specifies the pins to be toggled.
 446:./Libraries/STM32H7xx_HAL_Driver/Src/stm32h7xx_hal_gpio.c ****   * @retval None
 447:./Libraries/STM32H7xx_HAL_Driver/Src/stm32h7xx_hal_gpio.c ****   */
 448:./Libraries/STM32H7xx_HAL_Driver/Src/stm32h7xx_hal_gpio.c **** void HAL_GPIO_TogglePin(GPIO_TypeDef *GPIOx, uint16_t GPIO_Pin)
 449:./Libraries/STM32H7xx_HAL_Driver/Src/stm32h7xx_hal_gpio.c **** {
 1116              		.loc 1 449 1
 1117              		.cfi_startproc
 1118              		@ args = 0, pretend = 0, frame = 16
 1119              		@ frame_needed = 1, uses_anonymous_args = 0
 1120              		@ link register save eliminated.
 1121 0000 80B4     		push	{r7}
 1122              	.LCFI24:
 1123              		.cfi_def_cfa_offset 4
 1124              		.cfi_offset 7, -4
 1125 0002 85B0     		sub	sp, sp, #20
 1126              	.LCFI25:
 1127              		.cfi_def_cfa_offset 24
 1128 0004 00AF     		add	r7, sp, #0
 1129              	.LCFI26:
 1130              		.cfi_def_cfa_register 7
 1131 0006 7860     		str	r0, [r7, #4]
 1132 0008 0B46     		mov	r3, r1
 1133 000a 7B80     		strh	r3, [r7, #2]	@ movhi
 450:./Libraries/STM32H7xx_HAL_Driver/Src/stm32h7xx_hal_gpio.c ****   uint32_t odr;
 451:./Libraries/STM32H7xx_HAL_Driver/Src/stm32h7xx_hal_gpio.c **** 
 452:./Libraries/STM32H7xx_HAL_Driver/Src/stm32h7xx_hal_gpio.c ****   /* Check the parameters */
 453:./Libraries/STM32H7xx_HAL_Driver/Src/stm32h7xx_hal_gpio.c ****   assert_param(IS_GPIO_PIN(GPIO_Pin));
 454:./Libraries/STM32H7xx_HAL_Driver/Src/stm32h7xx_hal_gpio.c **** 
 455:./Libraries/STM32H7xx_HAL_Driver/Src/stm32h7xx_hal_gpio.c ****   /* get current Output Data Register value */
 456:./Libraries/STM32H7xx_HAL_Driver/Src/stm32h7xx_hal_gpio.c ****   odr = GPIOx->ODR;
 1134              		.loc 1 456 7
 1135 000c 7B68     		ldr	r3, [r7, #4]
 1136 000e 5B69     		ldr	r3, [r3, #20]
 1137 0010 FB60     		str	r3, [r7, #12]
 457:./Libraries/STM32H7xx_HAL_Driver/Src/stm32h7xx_hal_gpio.c **** 
 458:./Libraries/STM32H7xx_HAL_Driver/Src/stm32h7xx_hal_gpio.c ****   /* Set selected pins that were at low level, and reset ones that were high */
 459:./Libraries/STM32H7xx_HAL_Driver/Src/stm32h7xx_hal_gpio.c ****   GPIOx->BSRR = ((odr & GPIO_Pin) << GPIO_NUMBER) | (~odr & GPIO_Pin);
ARM GAS  /tmp/ccr8Iymg.s 			page 29


 1138              		.loc 1 459 23
 1139 0012 7A88     		ldrh	r2, [r7, #2]
 1140 0014 FB68     		ldr	r3, [r7, #12]
 1141 0016 1340     		ands	r3, r3, r2
 1142              		.loc 1 459 35
 1143 0018 1A04     		lsls	r2, r3, #16
 1144              		.loc 1 459 54
 1145 001a FB68     		ldr	r3, [r7, #12]
 1146 001c D943     		mvns	r1, r3
 1147              		.loc 1 459 59
 1148 001e 7B88     		ldrh	r3, [r7, #2]
 1149 0020 0B40     		ands	r3, r3, r1
 1150              		.loc 1 459 51
 1151 0022 1A43     		orrs	r2, r2, r3
 1152              		.loc 1 459 15
 1153 0024 7B68     		ldr	r3, [r7, #4]
 1154 0026 9A61     		str	r2, [r3, #24]
 460:./Libraries/STM32H7xx_HAL_Driver/Src/stm32h7xx_hal_gpio.c **** }
 1155              		.loc 1 460 1
 1156 0028 00BF     		nop
 1157 002a 1437     		adds	r7, r7, #20
 1158              	.LCFI27:
 1159              		.cfi_def_cfa_offset 4
 1160 002c BD46     		mov	sp, r7
 1161              	.LCFI28:
 1162              		.cfi_def_cfa_register 13
 1163              		@ sp needed
 1164 002e 5DF8047B 		ldr	r7, [sp], #4
 1165              	.LCFI29:
 1166              		.cfi_restore 7
 1167              		.cfi_def_cfa_offset 0
 1168 0032 7047     		bx	lr
 1169              		.cfi_endproc
 1170              	.LFE335:
 1172              		.section	.text.HAL_GPIO_LockPin,"ax",%progbits
 1173              		.align	1
 1174              		.global	HAL_GPIO_LockPin
 1175              		.syntax unified
 1176              		.thumb
 1177              		.thumb_func
 1178              		.fpu fpv5-d16
 1180              	HAL_GPIO_LockPin:
 1181              	.LFB336:
 461:./Libraries/STM32H7xx_HAL_Driver/Src/stm32h7xx_hal_gpio.c **** 
 462:./Libraries/STM32H7xx_HAL_Driver/Src/stm32h7xx_hal_gpio.c **** /**
 463:./Libraries/STM32H7xx_HAL_Driver/Src/stm32h7xx_hal_gpio.c ****   * @brief  Locks GPIO Pins configuration registers.
 464:./Libraries/STM32H7xx_HAL_Driver/Src/stm32h7xx_hal_gpio.c ****   * @note   The locked registers are GPIOx_MODER, GPIOx_OTYPER, GPIOx_OSPEEDR,
 465:./Libraries/STM32H7xx_HAL_Driver/Src/stm32h7xx_hal_gpio.c ****   *         GPIOx_PUPDR, GPIOx_AFRL and GPIOx_AFRH.
 466:./Libraries/STM32H7xx_HAL_Driver/Src/stm32h7xx_hal_gpio.c ****   * @note   The configuration of the locked GPIO pins can no longer be modified
 467:./Libraries/STM32H7xx_HAL_Driver/Src/stm32h7xx_hal_gpio.c ****   *         until the next reset.
 468:./Libraries/STM32H7xx_HAL_Driver/Src/stm32h7xx_hal_gpio.c ****   * @param  GPIOx: where x can be (A..K) to select the GPIO peripheral for STM32H7 family
 469:./Libraries/STM32H7xx_HAL_Driver/Src/stm32h7xx_hal_gpio.c ****   * @param  GPIO_Pin: specifies the port bit to be locked.
 470:./Libraries/STM32H7xx_HAL_Driver/Src/stm32h7xx_hal_gpio.c ****   *         This parameter can be any combination of GPIO_PIN_x where x can be (0..15).
 471:./Libraries/STM32H7xx_HAL_Driver/Src/stm32h7xx_hal_gpio.c ****   * @retval None
 472:./Libraries/STM32H7xx_HAL_Driver/Src/stm32h7xx_hal_gpio.c ****   */
 473:./Libraries/STM32H7xx_HAL_Driver/Src/stm32h7xx_hal_gpio.c **** HAL_StatusTypeDef HAL_GPIO_LockPin(GPIO_TypeDef *GPIOx, uint16_t GPIO_Pin)
 474:./Libraries/STM32H7xx_HAL_Driver/Src/stm32h7xx_hal_gpio.c **** {
ARM GAS  /tmp/ccr8Iymg.s 			page 30


 1182              		.loc 1 474 1
 1183              		.cfi_startproc
 1184              		@ args = 0, pretend = 0, frame = 16
 1185              		@ frame_needed = 1, uses_anonymous_args = 0
 1186              		@ link register save eliminated.
 1187 0000 80B4     		push	{r7}
 1188              	.LCFI30:
 1189              		.cfi_def_cfa_offset 4
 1190              		.cfi_offset 7, -4
 1191 0002 85B0     		sub	sp, sp, #20
 1192              	.LCFI31:
 1193              		.cfi_def_cfa_offset 24
 1194 0004 00AF     		add	r7, sp, #0
 1195              	.LCFI32:
 1196              		.cfi_def_cfa_register 7
 1197 0006 7860     		str	r0, [r7, #4]
 1198 0008 0B46     		mov	r3, r1
 1199 000a 7B80     		strh	r3, [r7, #2]	@ movhi
 475:./Libraries/STM32H7xx_HAL_Driver/Src/stm32h7xx_hal_gpio.c ****   __IO uint32_t tmp = GPIO_LCKR_LCKK;
 1200              		.loc 1 475 17
 1201 000c 4FF48033 		mov	r3, #65536
 1202 0010 FB60     		str	r3, [r7, #12]
 476:./Libraries/STM32H7xx_HAL_Driver/Src/stm32h7xx_hal_gpio.c **** 
 477:./Libraries/STM32H7xx_HAL_Driver/Src/stm32h7xx_hal_gpio.c ****   /* Check the parameters */
 478:./Libraries/STM32H7xx_HAL_Driver/Src/stm32h7xx_hal_gpio.c ****   assert_param(IS_GPIO_LOCK_INSTANCE(GPIOx));
 479:./Libraries/STM32H7xx_HAL_Driver/Src/stm32h7xx_hal_gpio.c ****   assert_param(IS_GPIO_PIN(GPIO_Pin));
 480:./Libraries/STM32H7xx_HAL_Driver/Src/stm32h7xx_hal_gpio.c **** 
 481:./Libraries/STM32H7xx_HAL_Driver/Src/stm32h7xx_hal_gpio.c ****   /* Apply lock key write sequence */
 482:./Libraries/STM32H7xx_HAL_Driver/Src/stm32h7xx_hal_gpio.c ****   tmp |= GPIO_Pin;
 1203              		.loc 1 482 7
 1204 0012 7A88     		ldrh	r2, [r7, #2]
 1205 0014 FB68     		ldr	r3, [r7, #12]
 1206 0016 1343     		orrs	r3, r3, r2
 1207 0018 FB60     		str	r3, [r7, #12]
 483:./Libraries/STM32H7xx_HAL_Driver/Src/stm32h7xx_hal_gpio.c ****   /* Set LCKx bit(s): LCKK='1' + LCK[15-0] */
 484:./Libraries/STM32H7xx_HAL_Driver/Src/stm32h7xx_hal_gpio.c ****   GPIOx->LCKR = tmp;
 1208              		.loc 1 484 15
 1209 001a FA68     		ldr	r2, [r7, #12]
 1210 001c 7B68     		ldr	r3, [r7, #4]
 1211 001e DA61     		str	r2, [r3, #28]
 485:./Libraries/STM32H7xx_HAL_Driver/Src/stm32h7xx_hal_gpio.c ****   /* Reset LCKx bit(s): LCKK='0' + LCK[15-0] */
 486:./Libraries/STM32H7xx_HAL_Driver/Src/stm32h7xx_hal_gpio.c ****   GPIOx->LCKR = GPIO_Pin;
 1212              		.loc 1 486 15
 1213 0020 7A88     		ldrh	r2, [r7, #2]
 1214 0022 7B68     		ldr	r3, [r7, #4]
 1215 0024 DA61     		str	r2, [r3, #28]
 487:./Libraries/STM32H7xx_HAL_Driver/Src/stm32h7xx_hal_gpio.c ****   /* Set LCKx bit(s): LCKK='1' + LCK[15-0] */
 488:./Libraries/STM32H7xx_HAL_Driver/Src/stm32h7xx_hal_gpio.c ****   GPIOx->LCKR = tmp;
 1216              		.loc 1 488 15
 1217 0026 FA68     		ldr	r2, [r7, #12]
 1218 0028 7B68     		ldr	r3, [r7, #4]
 1219 002a DA61     		str	r2, [r3, #28]
 489:./Libraries/STM32H7xx_HAL_Driver/Src/stm32h7xx_hal_gpio.c ****   /* Read LCKK register. This read is mandatory to complete key lock sequence*/
 490:./Libraries/STM32H7xx_HAL_Driver/Src/stm32h7xx_hal_gpio.c ****   tmp = GPIOx->LCKR;
 1220              		.loc 1 490 14
 1221 002c 7B68     		ldr	r3, [r7, #4]
 1222 002e DB69     		ldr	r3, [r3, #28]
ARM GAS  /tmp/ccr8Iymg.s 			page 31


 1223              		.loc 1 490 7
 1224 0030 FB60     		str	r3, [r7, #12]
 491:./Libraries/STM32H7xx_HAL_Driver/Src/stm32h7xx_hal_gpio.c **** 
 492:./Libraries/STM32H7xx_HAL_Driver/Src/stm32h7xx_hal_gpio.c ****   /* read again in order to confirm lock is active */
 493:./Libraries/STM32H7xx_HAL_Driver/Src/stm32h7xx_hal_gpio.c ****   if ((GPIOx->LCKR & GPIO_LCKR_LCKK) != 0x00U)
 1225              		.loc 1 493 13
 1226 0032 7B68     		ldr	r3, [r7, #4]
 1227 0034 DB69     		ldr	r3, [r3, #28]
 1228              		.loc 1 493 20
 1229 0036 03F48033 		and	r3, r3, #65536
 1230              		.loc 1 493 6
 1231 003a 002B     		cmp	r3, #0
 1232 003c 01D0     		beq	.L74
 494:./Libraries/STM32H7xx_HAL_Driver/Src/stm32h7xx_hal_gpio.c ****   {
 495:./Libraries/STM32H7xx_HAL_Driver/Src/stm32h7xx_hal_gpio.c ****     return HAL_OK;
 1233              		.loc 1 495 12
 1234 003e 0023     		movs	r3, #0
 1235 0040 00E0     		b	.L75
 1236              	.L74:
 496:./Libraries/STM32H7xx_HAL_Driver/Src/stm32h7xx_hal_gpio.c ****   }
 497:./Libraries/STM32H7xx_HAL_Driver/Src/stm32h7xx_hal_gpio.c ****   else
 498:./Libraries/STM32H7xx_HAL_Driver/Src/stm32h7xx_hal_gpio.c ****   {
 499:./Libraries/STM32H7xx_HAL_Driver/Src/stm32h7xx_hal_gpio.c ****     return HAL_ERROR;
 1237              		.loc 1 499 12
 1238 0042 0123     		movs	r3, #1
 1239              	.L75:
 500:./Libraries/STM32H7xx_HAL_Driver/Src/stm32h7xx_hal_gpio.c ****   }
 501:./Libraries/STM32H7xx_HAL_Driver/Src/stm32h7xx_hal_gpio.c **** }
 1240              		.loc 1 501 1
 1241 0044 1846     		mov	r0, r3
 1242 0046 1437     		adds	r7, r7, #20
 1243              	.LCFI33:
 1244              		.cfi_def_cfa_offset 4
 1245 0048 BD46     		mov	sp, r7
 1246              	.LCFI34:
 1247              		.cfi_def_cfa_register 13
 1248              		@ sp needed
 1249 004a 5DF8047B 		ldr	r7, [sp], #4
 1250              	.LCFI35:
 1251              		.cfi_restore 7
 1252              		.cfi_def_cfa_offset 0
 1253 004e 7047     		bx	lr
 1254              		.cfi_endproc
 1255              	.LFE336:
 1257              		.section	.text.HAL_GPIO_EXTI_IRQHandler,"ax",%progbits
 1258              		.align	1
 1259              		.global	HAL_GPIO_EXTI_IRQHandler
 1260              		.syntax unified
 1261              		.thumb
 1262              		.thumb_func
 1263              		.fpu fpv5-d16
 1265              	HAL_GPIO_EXTI_IRQHandler:
 1266              	.LFB337:
 502:./Libraries/STM32H7xx_HAL_Driver/Src/stm32h7xx_hal_gpio.c **** 
 503:./Libraries/STM32H7xx_HAL_Driver/Src/stm32h7xx_hal_gpio.c **** /**
 504:./Libraries/STM32H7xx_HAL_Driver/Src/stm32h7xx_hal_gpio.c ****   * @brief  Handle EXTI interrupt request.
 505:./Libraries/STM32H7xx_HAL_Driver/Src/stm32h7xx_hal_gpio.c ****   * @param  GPIO_Pin: Specifies the port pin connected to corresponding EXTI line.
ARM GAS  /tmp/ccr8Iymg.s 			page 32


 506:./Libraries/STM32H7xx_HAL_Driver/Src/stm32h7xx_hal_gpio.c ****   * @retval None
 507:./Libraries/STM32H7xx_HAL_Driver/Src/stm32h7xx_hal_gpio.c ****   */
 508:./Libraries/STM32H7xx_HAL_Driver/Src/stm32h7xx_hal_gpio.c **** void HAL_GPIO_EXTI_IRQHandler(uint16_t GPIO_Pin)
 509:./Libraries/STM32H7xx_HAL_Driver/Src/stm32h7xx_hal_gpio.c **** {
 1267              		.loc 1 509 1
 1268              		.cfi_startproc
 1269              		@ args = 0, pretend = 0, frame = 8
 1270              		@ frame_needed = 1, uses_anonymous_args = 0
 1271 0000 80B5     		push	{r7, lr}
 1272              	.LCFI36:
 1273              		.cfi_def_cfa_offset 8
 1274              		.cfi_offset 7, -8
 1275              		.cfi_offset 14, -4
 1276 0002 82B0     		sub	sp, sp, #8
 1277              	.LCFI37:
 1278              		.cfi_def_cfa_offset 16
 1279 0004 00AF     		add	r7, sp, #0
 1280              	.LCFI38:
 1281              		.cfi_def_cfa_register 7
 1282 0006 0346     		mov	r3, r0
 1283 0008 FB80     		strh	r3, [r7, #6]	@ movhi
 510:./Libraries/STM32H7xx_HAL_Driver/Src/stm32h7xx_hal_gpio.c **** #if defined(DUAL_CORE) && defined(CORE_CM4)
 511:./Libraries/STM32H7xx_HAL_Driver/Src/stm32h7xx_hal_gpio.c ****   if (__HAL_GPIO_EXTID2_GET_IT(GPIO_Pin) != 0x00U)
 512:./Libraries/STM32H7xx_HAL_Driver/Src/stm32h7xx_hal_gpio.c ****   {
 513:./Libraries/STM32H7xx_HAL_Driver/Src/stm32h7xx_hal_gpio.c ****     __HAL_GPIO_EXTID2_CLEAR_IT(GPIO_Pin);
 514:./Libraries/STM32H7xx_HAL_Driver/Src/stm32h7xx_hal_gpio.c ****     HAL_GPIO_EXTI_Callback(GPIO_Pin);
 515:./Libraries/STM32H7xx_HAL_Driver/Src/stm32h7xx_hal_gpio.c ****   }
 516:./Libraries/STM32H7xx_HAL_Driver/Src/stm32h7xx_hal_gpio.c **** #else
 517:./Libraries/STM32H7xx_HAL_Driver/Src/stm32h7xx_hal_gpio.c ****   /* EXTI line interrupt detected */
 518:./Libraries/STM32H7xx_HAL_Driver/Src/stm32h7xx_hal_gpio.c ****   if (__HAL_GPIO_EXTI_GET_IT(GPIO_Pin) != 0x00U)
 1284              		.loc 1 518 7
 1285 000a 4FF0B043 		mov	r3, #1476395008
 1286 000e D3F88820 		ldr	r2, [r3, #136]
 1287 0012 FB88     		ldrh	r3, [r7, #6]
 1288 0014 1340     		ands	r3, r3, r2
 1289              		.loc 1 518 6
 1290 0016 002B     		cmp	r3, #0
 1291 0018 08D0     		beq	.L78
 519:./Libraries/STM32H7xx_HAL_Driver/Src/stm32h7xx_hal_gpio.c ****   {
 520:./Libraries/STM32H7xx_HAL_Driver/Src/stm32h7xx_hal_gpio.c ****     __HAL_GPIO_EXTI_CLEAR_IT(GPIO_Pin);
 1292              		.loc 1 520 5
 1293 001a 4FF0B042 		mov	r2, #1476395008
 1294 001e FB88     		ldrh	r3, [r7, #6]
 1295 0020 C2F88830 		str	r3, [r2, #136]
 521:./Libraries/STM32H7xx_HAL_Driver/Src/stm32h7xx_hal_gpio.c ****     HAL_GPIO_EXTI_Callback(GPIO_Pin);
 1296              		.loc 1 521 5
 1297 0024 FB88     		ldrh	r3, [r7, #6]
 1298 0026 1846     		mov	r0, r3
 1299 0028 FFF7FEFF 		bl	HAL_GPIO_EXTI_Callback
 1300              	.L78:
 522:./Libraries/STM32H7xx_HAL_Driver/Src/stm32h7xx_hal_gpio.c ****   }
 523:./Libraries/STM32H7xx_HAL_Driver/Src/stm32h7xx_hal_gpio.c **** #endif
 524:./Libraries/STM32H7xx_HAL_Driver/Src/stm32h7xx_hal_gpio.c **** }
 1301              		.loc 1 524 1
 1302 002c 00BF     		nop
 1303 002e 0837     		adds	r7, r7, #8
 1304              	.LCFI39:
ARM GAS  /tmp/ccr8Iymg.s 			page 33


 1305              		.cfi_def_cfa_offset 8
 1306 0030 BD46     		mov	sp, r7
 1307              	.LCFI40:
 1308              		.cfi_def_cfa_register 13
 1309              		@ sp needed
 1310 0032 80BD     		pop	{r7, pc}
 1311              		.cfi_endproc
 1312              	.LFE337:
 1314              		.section	.text.HAL_GPIO_EXTI_Callback,"ax",%progbits
 1315              		.align	1
 1316              		.weak	HAL_GPIO_EXTI_Callback
 1317              		.syntax unified
 1318              		.thumb
 1319              		.thumb_func
 1320              		.fpu fpv5-d16
 1322              	HAL_GPIO_EXTI_Callback:
 1323              	.LFB338:
 525:./Libraries/STM32H7xx_HAL_Driver/Src/stm32h7xx_hal_gpio.c **** 
 526:./Libraries/STM32H7xx_HAL_Driver/Src/stm32h7xx_hal_gpio.c **** /**
 527:./Libraries/STM32H7xx_HAL_Driver/Src/stm32h7xx_hal_gpio.c ****   * @brief  EXTI line detection callback.
 528:./Libraries/STM32H7xx_HAL_Driver/Src/stm32h7xx_hal_gpio.c ****   * @param  GPIO_Pin: Specifies the port pin connected to corresponding EXTI line.
 529:./Libraries/STM32H7xx_HAL_Driver/Src/stm32h7xx_hal_gpio.c ****   * @retval None
 530:./Libraries/STM32H7xx_HAL_Driver/Src/stm32h7xx_hal_gpio.c ****   */
 531:./Libraries/STM32H7xx_HAL_Driver/Src/stm32h7xx_hal_gpio.c **** __weak void HAL_GPIO_EXTI_Callback(uint16_t GPIO_Pin)
 532:./Libraries/STM32H7xx_HAL_Driver/Src/stm32h7xx_hal_gpio.c **** {
 1324              		.loc 1 532 1
 1325              		.cfi_startproc
 1326              		@ args = 0, pretend = 0, frame = 8
 1327              		@ frame_needed = 1, uses_anonymous_args = 0
 1328              		@ link register save eliminated.
 1329 0000 80B4     		push	{r7}
 1330              	.LCFI41:
 1331              		.cfi_def_cfa_offset 4
 1332              		.cfi_offset 7, -4
 1333 0002 83B0     		sub	sp, sp, #12
 1334              	.LCFI42:
 1335              		.cfi_def_cfa_offset 16
 1336 0004 00AF     		add	r7, sp, #0
 1337              	.LCFI43:
 1338              		.cfi_def_cfa_register 7
 1339 0006 0346     		mov	r3, r0
 1340 0008 FB80     		strh	r3, [r7, #6]	@ movhi
 533:./Libraries/STM32H7xx_HAL_Driver/Src/stm32h7xx_hal_gpio.c ****   /* Prevent unused argument(s) compilation warning */
 534:./Libraries/STM32H7xx_HAL_Driver/Src/stm32h7xx_hal_gpio.c ****   UNUSED(GPIO_Pin);
 535:./Libraries/STM32H7xx_HAL_Driver/Src/stm32h7xx_hal_gpio.c **** 
 536:./Libraries/STM32H7xx_HAL_Driver/Src/stm32h7xx_hal_gpio.c ****   /* NOTE: This function Should not be modified, when the callback is needed,
 537:./Libraries/STM32H7xx_HAL_Driver/Src/stm32h7xx_hal_gpio.c ****            the HAL_GPIO_EXTI_Callback could be implemented in the user file
 538:./Libraries/STM32H7xx_HAL_Driver/Src/stm32h7xx_hal_gpio.c ****    */
 539:./Libraries/STM32H7xx_HAL_Driver/Src/stm32h7xx_hal_gpio.c **** }
 1341              		.loc 1 539 1
 1342 000a 00BF     		nop
 1343 000c 0C37     		adds	r7, r7, #12
 1344              	.LCFI44:
 1345              		.cfi_def_cfa_offset 4
 1346 000e BD46     		mov	sp, r7
 1347              	.LCFI45:
 1348              		.cfi_def_cfa_register 13
ARM GAS  /tmp/ccr8Iymg.s 			page 34


 1349              		@ sp needed
 1350 0010 5DF8047B 		ldr	r7, [sp], #4
 1351              	.LCFI46:
 1352              		.cfi_restore 7
 1353              		.cfi_def_cfa_offset 0
 1354 0014 7047     		bx	lr
 1355              		.cfi_endproc
 1356              	.LFE338:
 1358              		.text
 1359              	.Letext0:
 1360              		.file 2 "/usr/lib/gcc/arm-none-eabi/9.2.1/include/stdint.h"
 1361              		.file 3 "./Libraries/CMSIS/Core/Include/core_cm7.h"
 1362              		.file 4 "./Libraries/CMSIS/Device/ST/STM32H7xx/Include/system_stm32h7xx.h"
 1363              		.file 5 "./Libraries/CMSIS/Device/ST/STM32H7xx/Include/stm32h747xx.h"
 1364              		.file 6 "/usr/lib/gcc/arm-none-eabi/9.2.1/include/stddef.h"
 1365              		.file 7 "/usr/include/newlib/sys/_types.h"
 1366              		.file 8 "/usr/include/newlib/sys/reent.h"
 1367              		.file 9 "/usr/include/newlib/sys/lock.h"
 1368              		.file 10 "/usr/include/newlib/math.h"
 1369              		.file 11 "./Libraries/STM32H7xx_HAL_Driver/Inc/stm32h7xx_hal_def.h"
 1370              		.file 12 "./Libraries/STM32H7xx_HAL_Driver/Inc/stm32h7xx_hal_gpio.h"
 1371              		.file 13 "./Libraries/STM32H7xx_HAL_Driver/Inc/stm32h7xx_hal_flash.h"
 1372              		.file 14 "./Libraries/STM32H7xx_HAL_Driver/Inc/stm32h7xx_hal_uart.h"
 1373              		.file 15 "./Libraries/STM32H7xx_HAL_Driver/Inc/stm32h7xx_hal.h"
ARM GAS  /tmp/ccr8Iymg.s 			page 35

