ARM GAS  /tmp/cclvVaTN.s 			page 1


   1              		.cpu cortex-m7
   2              		.eabi_attribute 28, 1
   3              		.eabi_attribute 20, 1
   4              		.eabi_attribute 21, 1
   5              		.eabi_attribute 23, 3
   6              		.eabi_attribute 24, 1
   7              		.eabi_attribute 25, 1
   8              		.eabi_attribute 26, 1
   9              		.eabi_attribute 30, 6
  10              		.eabi_attribute 34, 1
  11              		.eabi_attribute 18, 4
  12              		.file	"stm32h7xx_hal.c"
  13              		.text
  14              	.Ltext0:
  15              		.cfi_sections	.debug_frame
  16              		.comm	uwTick,4,4
  17              		.global	uwTickPrio
  18              		.section	.data.uwTickPrio,"aw"
  19              		.align	2
  22              	uwTickPrio:
  23 0000 10000000 		.word	16
  24              		.global	uwTickFreq
  25              		.section	.data.uwTickFreq,"aw"
  28              	uwTickFreq:
  29 0000 01       		.byte	1
  30              		.section	.text.HAL_Init,"ax",%progbits
  31              		.align	1
  32              		.global	HAL_Init
  33              		.arch armv7e-m
  34              		.syntax unified
  35              		.thumb
  36              		.thumb_func
  37              		.fpu fpv5-d16
  39              	HAL_Init:
  40              	.LFB331:
  41              		.file 1 "./Libraries/STM32H7xx_HAL_Driver/Src/stm32h7xx_hal.c"
   1:./Libraries/STM32H7xx_HAL_Driver/Src/stm32h7xx_hal.c **** /**
   2:./Libraries/STM32H7xx_HAL_Driver/Src/stm32h7xx_hal.c ****   ******************************************************************************
   3:./Libraries/STM32H7xx_HAL_Driver/Src/stm32h7xx_hal.c ****   * @file    stm32h7xx_hal.c
   4:./Libraries/STM32H7xx_HAL_Driver/Src/stm32h7xx_hal.c ****   * @author  MCD Application Team
   5:./Libraries/STM32H7xx_HAL_Driver/Src/stm32h7xx_hal.c ****   * @brief   HAL module driver.
   6:./Libraries/STM32H7xx_HAL_Driver/Src/stm32h7xx_hal.c ****   *          This is the common part of the HAL initialization
   7:./Libraries/STM32H7xx_HAL_Driver/Src/stm32h7xx_hal.c ****   *
   8:./Libraries/STM32H7xx_HAL_Driver/Src/stm32h7xx_hal.c ****   @verbatim
   9:./Libraries/STM32H7xx_HAL_Driver/Src/stm32h7xx_hal.c ****   ==============================================================================
  10:./Libraries/STM32H7xx_HAL_Driver/Src/stm32h7xx_hal.c ****                      ##### How to use this driver #####
  11:./Libraries/STM32H7xx_HAL_Driver/Src/stm32h7xx_hal.c ****   ==============================================================================
  12:./Libraries/STM32H7xx_HAL_Driver/Src/stm32h7xx_hal.c ****     [..]
  13:./Libraries/STM32H7xx_HAL_Driver/Src/stm32h7xx_hal.c ****     The common HAL driver contains a set of generic and common APIs that can be
  14:./Libraries/STM32H7xx_HAL_Driver/Src/stm32h7xx_hal.c ****     used by the PPP peripheral drivers and the user to start using the HAL.
  15:./Libraries/STM32H7xx_HAL_Driver/Src/stm32h7xx_hal.c ****     [..]
  16:./Libraries/STM32H7xx_HAL_Driver/Src/stm32h7xx_hal.c ****     The HAL contains two APIs' categories:
  17:./Libraries/STM32H7xx_HAL_Driver/Src/stm32h7xx_hal.c ****          (+) Common HAL APIs
  18:./Libraries/STM32H7xx_HAL_Driver/Src/stm32h7xx_hal.c ****          (+) Services HAL APIs
  19:./Libraries/STM32H7xx_HAL_Driver/Src/stm32h7xx_hal.c **** 
  20:./Libraries/STM32H7xx_HAL_Driver/Src/stm32h7xx_hal.c ****   @endverbatim
  21:./Libraries/STM32H7xx_HAL_Driver/Src/stm32h7xx_hal.c ****   ******************************************************************************
ARM GAS  /tmp/cclvVaTN.s 			page 2


  22:./Libraries/STM32H7xx_HAL_Driver/Src/stm32h7xx_hal.c ****   * @attention
  23:./Libraries/STM32H7xx_HAL_Driver/Src/stm32h7xx_hal.c ****   *
  24:./Libraries/STM32H7xx_HAL_Driver/Src/stm32h7xx_hal.c ****   * <h2><center>&copy; Copyright (c) 2017 STMicroelectronics.
  25:./Libraries/STM32H7xx_HAL_Driver/Src/stm32h7xx_hal.c ****   * All rights reserved.</center></h2>
  26:./Libraries/STM32H7xx_HAL_Driver/Src/stm32h7xx_hal.c ****   *
  27:./Libraries/STM32H7xx_HAL_Driver/Src/stm32h7xx_hal.c ****   * This software component is licensed by ST under BSD 3-Clause license,
  28:./Libraries/STM32H7xx_HAL_Driver/Src/stm32h7xx_hal.c ****   * the "License"; You may not use this file except in compliance with the
  29:./Libraries/STM32H7xx_HAL_Driver/Src/stm32h7xx_hal.c ****   * License. You may obtain a copy of the License at:
  30:./Libraries/STM32H7xx_HAL_Driver/Src/stm32h7xx_hal.c ****   *                        opensource.org/licenses/BSD-3-Clause
  31:./Libraries/STM32H7xx_HAL_Driver/Src/stm32h7xx_hal.c ****   *
  32:./Libraries/STM32H7xx_HAL_Driver/Src/stm32h7xx_hal.c ****   ******************************************************************************
  33:./Libraries/STM32H7xx_HAL_Driver/Src/stm32h7xx_hal.c ****   */
  34:./Libraries/STM32H7xx_HAL_Driver/Src/stm32h7xx_hal.c **** 
  35:./Libraries/STM32H7xx_HAL_Driver/Src/stm32h7xx_hal.c **** /* Includes ------------------------------------------------------------------*/
  36:./Libraries/STM32H7xx_HAL_Driver/Src/stm32h7xx_hal.c **** #include "stm32h7xx_hal.h"
  37:./Libraries/STM32H7xx_HAL_Driver/Src/stm32h7xx_hal.c **** 
  38:./Libraries/STM32H7xx_HAL_Driver/Src/stm32h7xx_hal.c **** /** @addtogroup STM32H7xx_HAL_Driver
  39:./Libraries/STM32H7xx_HAL_Driver/Src/stm32h7xx_hal.c ****   * @{
  40:./Libraries/STM32H7xx_HAL_Driver/Src/stm32h7xx_hal.c ****   */
  41:./Libraries/STM32H7xx_HAL_Driver/Src/stm32h7xx_hal.c **** 
  42:./Libraries/STM32H7xx_HAL_Driver/Src/stm32h7xx_hal.c **** /** @defgroup HAL  HAL
  43:./Libraries/STM32H7xx_HAL_Driver/Src/stm32h7xx_hal.c ****   * @brief HAL module driver.
  44:./Libraries/STM32H7xx_HAL_Driver/Src/stm32h7xx_hal.c ****   * @{
  45:./Libraries/STM32H7xx_HAL_Driver/Src/stm32h7xx_hal.c ****   */
  46:./Libraries/STM32H7xx_HAL_Driver/Src/stm32h7xx_hal.c **** 
  47:./Libraries/STM32H7xx_HAL_Driver/Src/stm32h7xx_hal.c **** /* Private typedef -----------------------------------------------------------*/
  48:./Libraries/STM32H7xx_HAL_Driver/Src/stm32h7xx_hal.c **** /* Private define ------------------------------------------------------------*/
  49:./Libraries/STM32H7xx_HAL_Driver/Src/stm32h7xx_hal.c **** /**
  50:./Libraries/STM32H7xx_HAL_Driver/Src/stm32h7xx_hal.c ****  * @brief STM32H7xx HAL Driver version number V1.10.0
  51:./Libraries/STM32H7xx_HAL_Driver/Src/stm32h7xx_hal.c ****    */
  52:./Libraries/STM32H7xx_HAL_Driver/Src/stm32h7xx_hal.c **** #define __STM32H7xx_HAL_VERSION_MAIN   (0x01UL) /*!< [31:24] main version */
  53:./Libraries/STM32H7xx_HAL_Driver/Src/stm32h7xx_hal.c **** #define __STM32H7xx_HAL_VERSION_SUB1   (0x0AUL) /*!< [23:16] sub1 version */
  54:./Libraries/STM32H7xx_HAL_Driver/Src/stm32h7xx_hal.c **** #define __STM32H7xx_HAL_VERSION_SUB2   (0x00UL) /*!< [15:8]  sub2 version */
  55:./Libraries/STM32H7xx_HAL_Driver/Src/stm32h7xx_hal.c **** #define __STM32H7xx_HAL_VERSION_RC     (0x00UL) /*!< [7:0]  release candidate */
  56:./Libraries/STM32H7xx_HAL_Driver/Src/stm32h7xx_hal.c **** #define __STM32H7xx_HAL_VERSION         ((__STM32H7xx_HAL_VERSION_MAIN << 24)\
  57:./Libraries/STM32H7xx_HAL_Driver/Src/stm32h7xx_hal.c ****                                         |(__STM32H7xx_HAL_VERSION_SUB1 << 16)\
  58:./Libraries/STM32H7xx_HAL_Driver/Src/stm32h7xx_hal.c ****                                         |(__STM32H7xx_HAL_VERSION_SUB2 << 8 )\
  59:./Libraries/STM32H7xx_HAL_Driver/Src/stm32h7xx_hal.c ****                                         |(__STM32H7xx_HAL_VERSION_RC))
  60:./Libraries/STM32H7xx_HAL_Driver/Src/stm32h7xx_hal.c **** 
  61:./Libraries/STM32H7xx_HAL_Driver/Src/stm32h7xx_hal.c **** #define IDCODE_DEVID_MASK    ((uint32_t)0x00000FFF)
  62:./Libraries/STM32H7xx_HAL_Driver/Src/stm32h7xx_hal.c **** #define VREFBUF_TIMEOUT_VALUE     (uint32_t)10   /* 10 ms  */
  63:./Libraries/STM32H7xx_HAL_Driver/Src/stm32h7xx_hal.c **** 
  64:./Libraries/STM32H7xx_HAL_Driver/Src/stm32h7xx_hal.c **** /* Private macro -------------------------------------------------------------*/
  65:./Libraries/STM32H7xx_HAL_Driver/Src/stm32h7xx_hal.c **** /* Private variables ---------------------------------------------------------*/
  66:./Libraries/STM32H7xx_HAL_Driver/Src/stm32h7xx_hal.c **** /* Exported variables --------------------------------------------------------*/
  67:./Libraries/STM32H7xx_HAL_Driver/Src/stm32h7xx_hal.c **** 
  68:./Libraries/STM32H7xx_HAL_Driver/Src/stm32h7xx_hal.c **** /** @defgroup HAL_Exported_Variables HAL Exported Variables
  69:./Libraries/STM32H7xx_HAL_Driver/Src/stm32h7xx_hal.c ****   * @{
  70:./Libraries/STM32H7xx_HAL_Driver/Src/stm32h7xx_hal.c ****   */
  71:./Libraries/STM32H7xx_HAL_Driver/Src/stm32h7xx_hal.c **** __IO uint32_t uwTick;
  72:./Libraries/STM32H7xx_HAL_Driver/Src/stm32h7xx_hal.c **** uint32_t uwTickPrio   = (1UL << __NVIC_PRIO_BITS); /* Invalid PRIO */
  73:./Libraries/STM32H7xx_HAL_Driver/Src/stm32h7xx_hal.c **** HAL_TickFreqTypeDef uwTickFreq = HAL_TICK_FREQ_DEFAULT;  /* 1KHz */
  74:./Libraries/STM32H7xx_HAL_Driver/Src/stm32h7xx_hal.c **** /**
  75:./Libraries/STM32H7xx_HAL_Driver/Src/stm32h7xx_hal.c ****   * @}
  76:./Libraries/STM32H7xx_HAL_Driver/Src/stm32h7xx_hal.c ****   */
  77:./Libraries/STM32H7xx_HAL_Driver/Src/stm32h7xx_hal.c **** 
  78:./Libraries/STM32H7xx_HAL_Driver/Src/stm32h7xx_hal.c **** /* Private function prototypes -----------------------------------------------*/
ARM GAS  /tmp/cclvVaTN.s 			page 3


  79:./Libraries/STM32H7xx_HAL_Driver/Src/stm32h7xx_hal.c **** /* Private functions ---------------------------------------------------------*/
  80:./Libraries/STM32H7xx_HAL_Driver/Src/stm32h7xx_hal.c **** 
  81:./Libraries/STM32H7xx_HAL_Driver/Src/stm32h7xx_hal.c **** /** @defgroup HAL_Private_Functions  HAL Private Functions
  82:./Libraries/STM32H7xx_HAL_Driver/Src/stm32h7xx_hal.c ****   * @{
  83:./Libraries/STM32H7xx_HAL_Driver/Src/stm32h7xx_hal.c ****   */
  84:./Libraries/STM32H7xx_HAL_Driver/Src/stm32h7xx_hal.c **** 
  85:./Libraries/STM32H7xx_HAL_Driver/Src/stm32h7xx_hal.c **** /** @defgroup HAL_Group1 Initialization and de-initialization Functions
  86:./Libraries/STM32H7xx_HAL_Driver/Src/stm32h7xx_hal.c ****  *  @brief    Initialization and de-initialization functions
  87:./Libraries/STM32H7xx_HAL_Driver/Src/stm32h7xx_hal.c ****  *
  88:./Libraries/STM32H7xx_HAL_Driver/Src/stm32h7xx_hal.c **** @verbatim
  89:./Libraries/STM32H7xx_HAL_Driver/Src/stm32h7xx_hal.c ****  ===============================================================================
  90:./Libraries/STM32H7xx_HAL_Driver/Src/stm32h7xx_hal.c ****               ##### Initialization and de-initialization functions #####
  91:./Libraries/STM32H7xx_HAL_Driver/Src/stm32h7xx_hal.c ****  ===============================================================================
  92:./Libraries/STM32H7xx_HAL_Driver/Src/stm32h7xx_hal.c ****     [..]  This section provides functions allowing to:
  93:./Libraries/STM32H7xx_HAL_Driver/Src/stm32h7xx_hal.c ****       (+) Initializes the Flash interface the NVIC allocation and initial clock
  94:./Libraries/STM32H7xx_HAL_Driver/Src/stm32h7xx_hal.c ****           configuration. It initializes the systick also when timeout is needed
  95:./Libraries/STM32H7xx_HAL_Driver/Src/stm32h7xx_hal.c ****           and the backup domain when enabled.
  96:./Libraries/STM32H7xx_HAL_Driver/Src/stm32h7xx_hal.c ****       (+) De-Initializes common part of the HAL.
  97:./Libraries/STM32H7xx_HAL_Driver/Src/stm32h7xx_hal.c ****       (+) Configure The time base source to have 1ms time base with a dedicated
  98:./Libraries/STM32H7xx_HAL_Driver/Src/stm32h7xx_hal.c ****           Tick interrupt priority.
  99:./Libraries/STM32H7xx_HAL_Driver/Src/stm32h7xx_hal.c ****         (++) SysTick timer is used by default as source of time base, but user
 100:./Libraries/STM32H7xx_HAL_Driver/Src/stm32h7xx_hal.c ****              can eventually implement his proper time base source (a general purpose
 101:./Libraries/STM32H7xx_HAL_Driver/Src/stm32h7xx_hal.c ****              timer for example or other time source), keeping in mind that Time base
 102:./Libraries/STM32H7xx_HAL_Driver/Src/stm32h7xx_hal.c ****              duration should be kept 1ms since PPP_TIMEOUT_VALUEs are defined and
 103:./Libraries/STM32H7xx_HAL_Driver/Src/stm32h7xx_hal.c ****              handled in milliseconds basis.
 104:./Libraries/STM32H7xx_HAL_Driver/Src/stm32h7xx_hal.c ****         (++) Time base configuration function (HAL_InitTick ()) is called automatically
 105:./Libraries/STM32H7xx_HAL_Driver/Src/stm32h7xx_hal.c ****              at the beginning of the program after reset by HAL_Init() or at any time
 106:./Libraries/STM32H7xx_HAL_Driver/Src/stm32h7xx_hal.c ****              when clock is configured, by HAL_RCC_ClockConfig().
 107:./Libraries/STM32H7xx_HAL_Driver/Src/stm32h7xx_hal.c ****         (++) Source of time base is configured  to generate interrupts at regular
 108:./Libraries/STM32H7xx_HAL_Driver/Src/stm32h7xx_hal.c ****              time intervals. Care must be taken if HAL_Delay() is called from a
 109:./Libraries/STM32H7xx_HAL_Driver/Src/stm32h7xx_hal.c ****              peripheral ISR process, the Tick interrupt line must have higher priority
 110:./Libraries/STM32H7xx_HAL_Driver/Src/stm32h7xx_hal.c ****             (numerically lower) than the peripheral interrupt. Otherwise the caller
 111:./Libraries/STM32H7xx_HAL_Driver/Src/stm32h7xx_hal.c ****             ISR process will be blocked.
 112:./Libraries/STM32H7xx_HAL_Driver/Src/stm32h7xx_hal.c ****        (++) functions affecting time base configurations are declared as __weak
 113:./Libraries/STM32H7xx_HAL_Driver/Src/stm32h7xx_hal.c ****              to make  override possible  in case of other  implementations in user file.
 114:./Libraries/STM32H7xx_HAL_Driver/Src/stm32h7xx_hal.c **** @endverbatim
 115:./Libraries/STM32H7xx_HAL_Driver/Src/stm32h7xx_hal.c ****   * @{
 116:./Libraries/STM32H7xx_HAL_Driver/Src/stm32h7xx_hal.c ****   */
 117:./Libraries/STM32H7xx_HAL_Driver/Src/stm32h7xx_hal.c **** 
 118:./Libraries/STM32H7xx_HAL_Driver/Src/stm32h7xx_hal.c **** /**
 119:./Libraries/STM32H7xx_HAL_Driver/Src/stm32h7xx_hal.c ****   * @brief  This function is used to initialize the HAL Library; it must be the first
 120:./Libraries/STM32H7xx_HAL_Driver/Src/stm32h7xx_hal.c ****   *         instruction to be executed in the main program (before to call any other
 121:./Libraries/STM32H7xx_HAL_Driver/Src/stm32h7xx_hal.c ****   *         HAL function), it performs the following:
 122:./Libraries/STM32H7xx_HAL_Driver/Src/stm32h7xx_hal.c ****   *           Configures the SysTick to generate an interrupt each 1 millisecond,
 123:./Libraries/STM32H7xx_HAL_Driver/Src/stm32h7xx_hal.c ****   *           which is clocked by the HSI (at this stage, the clock is not yet
 124:./Libraries/STM32H7xx_HAL_Driver/Src/stm32h7xx_hal.c ****   *           configured and thus the system is running from the internal HSI at 16 MHz).
 125:./Libraries/STM32H7xx_HAL_Driver/Src/stm32h7xx_hal.c ****   *           Set NVIC Group Priority to 4.
 126:./Libraries/STM32H7xx_HAL_Driver/Src/stm32h7xx_hal.c ****   *           Calls the HAL_MspInit() callback function defined in user file
 127:./Libraries/STM32H7xx_HAL_Driver/Src/stm32h7xx_hal.c ****   *           "stm32h7xx_hal_msp.c" to do the global low level hardware initialization
 128:./Libraries/STM32H7xx_HAL_Driver/Src/stm32h7xx_hal.c ****   *
 129:./Libraries/STM32H7xx_HAL_Driver/Src/stm32h7xx_hal.c ****   * @note   SysTick is used as time base for the HAL_Delay() function, the application
 130:./Libraries/STM32H7xx_HAL_Driver/Src/stm32h7xx_hal.c ****   *         need to ensure that the SysTick time base is always set to 1 millisecond
 131:./Libraries/STM32H7xx_HAL_Driver/Src/stm32h7xx_hal.c ****   *         to have correct HAL operation.
 132:./Libraries/STM32H7xx_HAL_Driver/Src/stm32h7xx_hal.c ****   * @retval HAL status
 133:./Libraries/STM32H7xx_HAL_Driver/Src/stm32h7xx_hal.c ****   */
 134:./Libraries/STM32H7xx_HAL_Driver/Src/stm32h7xx_hal.c **** HAL_StatusTypeDef HAL_Init(void)
 135:./Libraries/STM32H7xx_HAL_Driver/Src/stm32h7xx_hal.c **** {
ARM GAS  /tmp/cclvVaTN.s 			page 4


  42              		.loc 1 135 1
  43              		.cfi_startproc
  44              		@ args = 0, pretend = 0, frame = 8
  45              		@ frame_needed = 1, uses_anonymous_args = 0
  46 0000 80B5     		push	{r7, lr}
  47              	.LCFI0:
  48              		.cfi_def_cfa_offset 8
  49              		.cfi_offset 7, -8
  50              		.cfi_offset 14, -4
  51 0002 82B0     		sub	sp, sp, #8
  52              	.LCFI1:
  53              		.cfi_def_cfa_offset 16
  54 0004 00AF     		add	r7, sp, #0
  55              	.LCFI2:
  56              		.cfi_def_cfa_register 7
 136:./Libraries/STM32H7xx_HAL_Driver/Src/stm32h7xx_hal.c **** 
 137:./Libraries/STM32H7xx_HAL_Driver/Src/stm32h7xx_hal.c **** uint32_t common_system_clock;
 138:./Libraries/STM32H7xx_HAL_Driver/Src/stm32h7xx_hal.c **** 
 139:./Libraries/STM32H7xx_HAL_Driver/Src/stm32h7xx_hal.c **** #if defined(DUAL_CORE) && defined(CORE_CM4)
 140:./Libraries/STM32H7xx_HAL_Driver/Src/stm32h7xx_hal.c ****    /* Configure Cortex-M4 Instruction cache through ART accelerator */
 141:./Libraries/STM32H7xx_HAL_Driver/Src/stm32h7xx_hal.c ****    __HAL_RCC_ART_CLK_ENABLE();                   /* Enable the Cortex-M4 ART Clock */
 142:./Libraries/STM32H7xx_HAL_Driver/Src/stm32h7xx_hal.c ****    __HAL_ART_CONFIG_BASE_ADDRESS(0x08100000UL);  /* Configure the Cortex-M4 ART Base address to the
 143:./Libraries/STM32H7xx_HAL_Driver/Src/stm32h7xx_hal.c ****    __HAL_ART_ENABLE();                           /* Enable the Cortex-M4 ART */
 144:./Libraries/STM32H7xx_HAL_Driver/Src/stm32h7xx_hal.c **** #endif /* DUAL_CORE &&  CORE_CM4 */
 145:./Libraries/STM32H7xx_HAL_Driver/Src/stm32h7xx_hal.c **** 
 146:./Libraries/STM32H7xx_HAL_Driver/Src/stm32h7xx_hal.c ****   /* Set Interrupt Group Priority */
 147:./Libraries/STM32H7xx_HAL_Driver/Src/stm32h7xx_hal.c ****   HAL_NVIC_SetPriorityGrouping(NVIC_PRIORITYGROUP_4);
  57              		.loc 1 147 3
  58 0006 0320     		movs	r0, #3
  59 0008 FFF7FEFF 		bl	HAL_NVIC_SetPriorityGrouping
 148:./Libraries/STM32H7xx_HAL_Driver/Src/stm32h7xx_hal.c **** 
 149:./Libraries/STM32H7xx_HAL_Driver/Src/stm32h7xx_hal.c ****   /* Update the SystemCoreClock global variable */
 150:./Libraries/STM32H7xx_HAL_Driver/Src/stm32h7xx_hal.c **** #if defined(RCC_D1CFGR_D1CPRE)
 151:./Libraries/STM32H7xx_HAL_Driver/Src/stm32h7xx_hal.c ****   common_system_clock = HAL_RCC_GetSysClockFreq() >> ((D1CorePrescTable[(RCC->D1CFGR & RCC_D1CFGR_D
  60              		.loc 1 151 25
  61 000c FFF7FEFF 		bl	HAL_RCC_GetSysClockFreq
  62 0010 0246     		mov	r2, r0
  63              		.loc 1 151 77
  64 0012 154B     		ldr	r3, .L4
  65 0014 9B69     		ldr	r3, [r3, #24]
  66              		.loc 1 151 106
  67 0016 1B0A     		lsrs	r3, r3, #8
  68 0018 03F00F03 		and	r3, r3, #15
  69              		.loc 1 151 72
  70 001c 1349     		ldr	r1, .L4+4
  71 001e CB5C     		ldrb	r3, [r1, r3]	@ zero_extendqisi2
  72              		.loc 1 151 133
  73 0020 03F01F03 		and	r3, r3, #31
  74              		.loc 1 151 23
  75 0024 22FA03F3 		lsr	r3, r2, r3
  76 0028 7B60     		str	r3, [r7, #4]
 152:./Libraries/STM32H7xx_HAL_Driver/Src/stm32h7xx_hal.c **** #else
 153:./Libraries/STM32H7xx_HAL_Driver/Src/stm32h7xx_hal.c ****   common_system_clock = HAL_RCC_GetSysClockFreq() >> ((D1CorePrescTable[(RCC->CDCFGR1 & RCC_CDCFGR1
 154:./Libraries/STM32H7xx_HAL_Driver/Src/stm32h7xx_hal.c **** #endif
 155:./Libraries/STM32H7xx_HAL_Driver/Src/stm32h7xx_hal.c **** 
 156:./Libraries/STM32H7xx_HAL_Driver/Src/stm32h7xx_hal.c ****   /* Update the SystemD2Clock global variable */
 157:./Libraries/STM32H7xx_HAL_Driver/Src/stm32h7xx_hal.c **** #if defined(RCC_D1CFGR_HPRE)
ARM GAS  /tmp/cclvVaTN.s 			page 5


 158:./Libraries/STM32H7xx_HAL_Driver/Src/stm32h7xx_hal.c ****   SystemD2Clock = (common_system_clock >> ((D1CorePrescTable[(RCC->D1CFGR & RCC_D1CFGR_HPRE)>> RCC_
  77              		.loc 1 158 66
  78 002a 0F4B     		ldr	r3, .L4
  79 002c 9B69     		ldr	r3, [r3, #24]
  80              		.loc 1 158 93
  81 002e 03F00F03 		and	r3, r3, #15
  82              		.loc 1 158 61
  83 0032 0E4A     		ldr	r2, .L4+4
  84 0034 D35C     		ldrb	r3, [r2, r3]	@ zero_extendqisi2
  85              		.loc 1 158 118
  86 0036 03F01F03 		and	r3, r3, #31
  87              		.loc 1 158 40
  88 003a 7A68     		ldr	r2, [r7, #4]
  89 003c 22FA03F3 		lsr	r3, r2, r3
  90              		.loc 1 158 17
  91 0040 0B4A     		ldr	r2, .L4+8
  92 0042 1360     		str	r3, [r2]
 159:./Libraries/STM32H7xx_HAL_Driver/Src/stm32h7xx_hal.c **** #else
 160:./Libraries/STM32H7xx_HAL_Driver/Src/stm32h7xx_hal.c ****   SystemD2Clock = (common_system_clock >> ((D1CorePrescTable[(RCC->CDCFGR1 & RCC_CDCFGR1_HPRE)>> RC
 161:./Libraries/STM32H7xx_HAL_Driver/Src/stm32h7xx_hal.c **** #endif
 162:./Libraries/STM32H7xx_HAL_Driver/Src/stm32h7xx_hal.c **** 
 163:./Libraries/STM32H7xx_HAL_Driver/Src/stm32h7xx_hal.c **** #if defined(DUAL_CORE) && defined(CORE_CM4)
 164:./Libraries/STM32H7xx_HAL_Driver/Src/stm32h7xx_hal.c ****   SystemCoreClock = SystemD2Clock;
 165:./Libraries/STM32H7xx_HAL_Driver/Src/stm32h7xx_hal.c **** #else
 166:./Libraries/STM32H7xx_HAL_Driver/Src/stm32h7xx_hal.c ****   SystemCoreClock = common_system_clock;
  93              		.loc 1 166 19
  94 0044 0B4A     		ldr	r2, .L4+12
  95 0046 7B68     		ldr	r3, [r7, #4]
  96 0048 1360     		str	r3, [r2]
 167:./Libraries/STM32H7xx_HAL_Driver/Src/stm32h7xx_hal.c **** #endif /* DUAL_CORE && CORE_CM4 */
 168:./Libraries/STM32H7xx_HAL_Driver/Src/stm32h7xx_hal.c **** 
 169:./Libraries/STM32H7xx_HAL_Driver/Src/stm32h7xx_hal.c ****   /* Use systick as time base source and configure 1ms tick (default clock after Reset is HSI) */
 170:./Libraries/STM32H7xx_HAL_Driver/Src/stm32h7xx_hal.c ****   if(HAL_InitTick(TICK_INT_PRIORITY) != HAL_OK)
  97              		.loc 1 170 6
  98 004a 0F20     		movs	r0, #15
  99 004c FFF7FEFF 		bl	HAL_InitTick
 100 0050 0346     		mov	r3, r0
 101              		.loc 1 170 5
 102 0052 002B     		cmp	r3, #0
 103 0054 01D0     		beq	.L2
 171:./Libraries/STM32H7xx_HAL_Driver/Src/stm32h7xx_hal.c ****   {
 172:./Libraries/STM32H7xx_HAL_Driver/Src/stm32h7xx_hal.c ****     return HAL_ERROR;
 104              		.loc 1 172 12
 105 0056 0123     		movs	r3, #1
 106 0058 02E0     		b	.L3
 107              	.L2:
 173:./Libraries/STM32H7xx_HAL_Driver/Src/stm32h7xx_hal.c ****   }
 174:./Libraries/STM32H7xx_HAL_Driver/Src/stm32h7xx_hal.c **** 
 175:./Libraries/STM32H7xx_HAL_Driver/Src/stm32h7xx_hal.c ****   /* Init the low level hardware */
 176:./Libraries/STM32H7xx_HAL_Driver/Src/stm32h7xx_hal.c ****   HAL_MspInit();
 108              		.loc 1 176 3
 109 005a FFF7FEFF 		bl	HAL_MspInit
 177:./Libraries/STM32H7xx_HAL_Driver/Src/stm32h7xx_hal.c **** 
 178:./Libraries/STM32H7xx_HAL_Driver/Src/stm32h7xx_hal.c ****   /* Return function status */
 179:./Libraries/STM32H7xx_HAL_Driver/Src/stm32h7xx_hal.c ****   return HAL_OK;
 110              		.loc 1 179 10
 111 005e 0023     		movs	r3, #0
ARM GAS  /tmp/cclvVaTN.s 			page 6


 112              	.L3:
 180:./Libraries/STM32H7xx_HAL_Driver/Src/stm32h7xx_hal.c **** }
 113              		.loc 1 180 1
 114 0060 1846     		mov	r0, r3
 115 0062 0837     		adds	r7, r7, #8
 116              	.LCFI3:
 117              		.cfi_def_cfa_offset 8
 118 0064 BD46     		mov	sp, r7
 119              	.LCFI4:
 120              		.cfi_def_cfa_register 13
 121              		@ sp needed
 122 0066 80BD     		pop	{r7, pc}
 123              	.L5:
 124              		.align	2
 125              	.L4:
 126 0068 00440258 		.word	1476543488
 127 006c 00000000 		.word	D1CorePrescTable
 128 0070 00000000 		.word	SystemD2Clock
 129 0074 00000000 		.word	SystemCoreClock
 130              		.cfi_endproc
 131              	.LFE331:
 133              		.section	.text.HAL_DeInit,"ax",%progbits
 134              		.align	1
 135              		.global	HAL_DeInit
 136              		.syntax unified
 137              		.thumb
 138              		.thumb_func
 139              		.fpu fpv5-d16
 141              	HAL_DeInit:
 142              	.LFB332:
 181:./Libraries/STM32H7xx_HAL_Driver/Src/stm32h7xx_hal.c **** 
 182:./Libraries/STM32H7xx_HAL_Driver/Src/stm32h7xx_hal.c **** /**
 183:./Libraries/STM32H7xx_HAL_Driver/Src/stm32h7xx_hal.c ****   * @brief  This function de-Initializes common part of the HAL and stops the systick.
 184:./Libraries/STM32H7xx_HAL_Driver/Src/stm32h7xx_hal.c ****   *         This function is optional.
 185:./Libraries/STM32H7xx_HAL_Driver/Src/stm32h7xx_hal.c ****   * @retval HAL status
 186:./Libraries/STM32H7xx_HAL_Driver/Src/stm32h7xx_hal.c ****   */
 187:./Libraries/STM32H7xx_HAL_Driver/Src/stm32h7xx_hal.c **** HAL_StatusTypeDef HAL_DeInit(void)
 188:./Libraries/STM32H7xx_HAL_Driver/Src/stm32h7xx_hal.c **** {
 143              		.loc 1 188 1
 144              		.cfi_startproc
 145              		@ args = 0, pretend = 0, frame = 0
 146              		@ frame_needed = 1, uses_anonymous_args = 0
 147 0000 80B5     		push	{r7, lr}
 148              	.LCFI5:
 149              		.cfi_def_cfa_offset 8
 150              		.cfi_offset 7, -8
 151              		.cfi_offset 14, -4
 152 0002 00AF     		add	r7, sp, #0
 153              	.LCFI6:
 154              		.cfi_def_cfa_register 7
 189:./Libraries/STM32H7xx_HAL_Driver/Src/stm32h7xx_hal.c ****   /* Reset of all peripherals */
 190:./Libraries/STM32H7xx_HAL_Driver/Src/stm32h7xx_hal.c ****   __HAL_RCC_AHB3_FORCE_RESET();
 155              		.loc 1 190 3
 156 0004 264B     		ldr	r3, .L8
 157 0006 274A     		ldr	r2, .L8+4
 158 0008 DA67     		str	r2, [r3, #124]
 191:./Libraries/STM32H7xx_HAL_Driver/Src/stm32h7xx_hal.c ****   __HAL_RCC_AHB3_RELEASE_RESET();
ARM GAS  /tmp/cclvVaTN.s 			page 7


 159              		.loc 1 191 3
 160 000a 254B     		ldr	r3, .L8
 161 000c 0022     		movs	r2, #0
 162 000e DA67     		str	r2, [r3, #124]
 192:./Libraries/STM32H7xx_HAL_Driver/Src/stm32h7xx_hal.c **** 
 193:./Libraries/STM32H7xx_HAL_Driver/Src/stm32h7xx_hal.c ****   __HAL_RCC_AHB1_FORCE_RESET();
 163              		.loc 1 193 3
 164 0010 234B     		ldr	r3, .L8
 165 0012 254A     		ldr	r2, .L8+8
 166 0014 C3F88020 		str	r2, [r3, #128]
 194:./Libraries/STM32H7xx_HAL_Driver/Src/stm32h7xx_hal.c ****   __HAL_RCC_AHB1_RELEASE_RESET();
 167              		.loc 1 194 3
 168 0018 214B     		ldr	r3, .L8
 169 001a 0022     		movs	r2, #0
 170 001c C3F88020 		str	r2, [r3, #128]
 195:./Libraries/STM32H7xx_HAL_Driver/Src/stm32h7xx_hal.c **** 
 196:./Libraries/STM32H7xx_HAL_Driver/Src/stm32h7xx_hal.c ****   __HAL_RCC_AHB2_FORCE_RESET();
 171              		.loc 1 196 3
 172 0020 1F4B     		ldr	r3, .L8
 173 0022 40F27122 		movw	r2, #625
 174 0026 C3F88420 		str	r2, [r3, #132]
 197:./Libraries/STM32H7xx_HAL_Driver/Src/stm32h7xx_hal.c ****   __HAL_RCC_AHB2_RELEASE_RESET();
 175              		.loc 1 197 3
 176 002a 1D4B     		ldr	r3, .L8
 177 002c 0022     		movs	r2, #0
 178 002e C3F88420 		str	r2, [r3, #132]
 198:./Libraries/STM32H7xx_HAL_Driver/Src/stm32h7xx_hal.c **** 
 199:./Libraries/STM32H7xx_HAL_Driver/Src/stm32h7xx_hal.c ****   __HAL_RCC_AHB4_FORCE_RESET();
 179              		.loc 1 199 3
 180 0032 1B4B     		ldr	r3, .L8
 181 0034 1D4A     		ldr	r2, .L8+12
 182 0036 C3F88820 		str	r2, [r3, #136]
 200:./Libraries/STM32H7xx_HAL_Driver/Src/stm32h7xx_hal.c ****  __HAL_RCC_AHB4_RELEASE_RESET();
 183              		.loc 1 200 2
 184 003a 194B     		ldr	r3, .L8
 185 003c 0022     		movs	r2, #0
 186 003e C3F88820 		str	r2, [r3, #136]
 201:./Libraries/STM32H7xx_HAL_Driver/Src/stm32h7xx_hal.c **** 
 202:./Libraries/STM32H7xx_HAL_Driver/Src/stm32h7xx_hal.c ****   __HAL_RCC_APB3_FORCE_RESET();
 187              		.loc 1 202 3
 188 0042 174B     		ldr	r3, .L8
 189 0044 1822     		movs	r2, #24
 190 0046 C3F88C20 		str	r2, [r3, #140]
 203:./Libraries/STM32H7xx_HAL_Driver/Src/stm32h7xx_hal.c ****   __HAL_RCC_APB3_RELEASE_RESET();
 191              		.loc 1 203 3
 192 004a 154B     		ldr	r3, .L8
 193 004c 0022     		movs	r2, #0
 194 004e C3F88C20 		str	r2, [r3, #140]
 204:./Libraries/STM32H7xx_HAL_Driver/Src/stm32h7xx_hal.c **** 
 205:./Libraries/STM32H7xx_HAL_Driver/Src/stm32h7xx_hal.c ****   __HAL_RCC_APB1L_FORCE_RESET();
 195              		.loc 1 205 3
 196 0052 134B     		ldr	r3, .L8
 197 0054 164A     		ldr	r2, .L8+16
 198 0056 C3F89020 		str	r2, [r3, #144]
 206:./Libraries/STM32H7xx_HAL_Driver/Src/stm32h7xx_hal.c ****   __HAL_RCC_APB1L_RELEASE_RESET();
 199              		.loc 1 206 3
 200 005a 114B     		ldr	r3, .L8
ARM GAS  /tmp/cclvVaTN.s 			page 8


 201 005c 0022     		movs	r2, #0
 202 005e C3F89020 		str	r2, [r3, #144]
 207:./Libraries/STM32H7xx_HAL_Driver/Src/stm32h7xx_hal.c **** 
 208:./Libraries/STM32H7xx_HAL_Driver/Src/stm32h7xx_hal.c ****   __HAL_RCC_APB1H_FORCE_RESET();
 203              		.loc 1 208 3
 204 0062 0F4B     		ldr	r3, .L8
 205 0064 4FF49B72 		mov	r2, #310
 206 0068 C3F89420 		str	r2, [r3, #148]
 209:./Libraries/STM32H7xx_HAL_Driver/Src/stm32h7xx_hal.c ****   __HAL_RCC_APB1H_RELEASE_RESET();
 207              		.loc 1 209 3
 208 006c 0C4B     		ldr	r3, .L8
 209 006e 0022     		movs	r2, #0
 210 0070 C3F89420 		str	r2, [r3, #148]
 210:./Libraries/STM32H7xx_HAL_Driver/Src/stm32h7xx_hal.c **** 
 211:./Libraries/STM32H7xx_HAL_Driver/Src/stm32h7xx_hal.c ****    __HAL_RCC_APB2_FORCE_RESET();
 211              		.loc 1 211 4
 212 0074 0A4B     		ldr	r3, .L8
 213 0076 0F4A     		ldr	r2, .L8+20
 214 0078 C3F89820 		str	r2, [r3, #152]
 212:./Libraries/STM32H7xx_HAL_Driver/Src/stm32h7xx_hal.c ****    __HAL_RCC_APB2_RELEASE_RESET();
 215              		.loc 1 212 4
 216 007c 084B     		ldr	r3, .L8
 217 007e 0022     		movs	r2, #0
 218 0080 C3F89820 		str	r2, [r3, #152]
 213:./Libraries/STM32H7xx_HAL_Driver/Src/stm32h7xx_hal.c **** 
 214:./Libraries/STM32H7xx_HAL_Driver/Src/stm32h7xx_hal.c ****   __HAL_RCC_APB4_FORCE_RESET();
 219              		.loc 1 214 3
 220 0084 064B     		ldr	r3, .L8
 221 0086 0C4A     		ldr	r2, .L8+24
 222 0088 C3F89C20 		str	r2, [r3, #156]
 215:./Libraries/STM32H7xx_HAL_Driver/Src/stm32h7xx_hal.c ****   __HAL_RCC_APB4_RELEASE_RESET();
 223              		.loc 1 215 3
 224 008c 044B     		ldr	r3, .L8
 225 008e 0022     		movs	r2, #0
 226 0090 C3F89C20 		str	r2, [r3, #156]
 216:./Libraries/STM32H7xx_HAL_Driver/Src/stm32h7xx_hal.c **** 
 217:./Libraries/STM32H7xx_HAL_Driver/Src/stm32h7xx_hal.c ****   /* De-Init the low level hardware */
 218:./Libraries/STM32H7xx_HAL_Driver/Src/stm32h7xx_hal.c ****   HAL_MspDeInit();
 227              		.loc 1 218 3
 228 0094 FFF7FEFF 		bl	HAL_MspDeInit
 219:./Libraries/STM32H7xx_HAL_Driver/Src/stm32h7xx_hal.c **** 
 220:./Libraries/STM32H7xx_HAL_Driver/Src/stm32h7xx_hal.c ****   /* Return function status */
 221:./Libraries/STM32H7xx_HAL_Driver/Src/stm32h7xx_hal.c ****   return HAL_OK;
 229              		.loc 1 221 10
 230 0098 0023     		movs	r3, #0
 222:./Libraries/STM32H7xx_HAL_Driver/Src/stm32h7xx_hal.c **** }
 231              		.loc 1 222 1
 232 009a 1846     		mov	r0, r3
 233 009c 80BD     		pop	{r7, pc}
 234              	.L9:
 235 009e 00BF     		.align	2
 236              	.L8:
 237 00a0 00440258 		.word	1476543488
 238 00a4 31500100 		.word	86065
 239 00a8 23C0000A 		.word	167821347
 240 00ac FF072803 		.word	52955135
 241 00b0 FFC3FFE8 		.word	-385891329
ARM GAS  /tmp/cclvVaTN.s 			page 9


 242 00b4 3330D731 		.word	836186163
 243 00b8 AADE2000 		.word	2154154
 244              		.cfi_endproc
 245              	.LFE332:
 247              		.section	.text.HAL_MspInit,"ax",%progbits
 248              		.align	1
 249              		.weak	HAL_MspInit
 250              		.syntax unified
 251              		.thumb
 252              		.thumb_func
 253              		.fpu fpv5-d16
 255              	HAL_MspInit:
 256              	.LFB333:
 223:./Libraries/STM32H7xx_HAL_Driver/Src/stm32h7xx_hal.c **** 
 224:./Libraries/STM32H7xx_HAL_Driver/Src/stm32h7xx_hal.c **** /**
 225:./Libraries/STM32H7xx_HAL_Driver/Src/stm32h7xx_hal.c ****   * @brief  Initializes the MSP.
 226:./Libraries/STM32H7xx_HAL_Driver/Src/stm32h7xx_hal.c ****   * @retval None
 227:./Libraries/STM32H7xx_HAL_Driver/Src/stm32h7xx_hal.c ****   */
 228:./Libraries/STM32H7xx_HAL_Driver/Src/stm32h7xx_hal.c **** __weak void HAL_MspInit(void)
 229:./Libraries/STM32H7xx_HAL_Driver/Src/stm32h7xx_hal.c **** {
 257              		.loc 1 229 1
 258              		.cfi_startproc
 259              		@ args = 0, pretend = 0, frame = 0
 260              		@ frame_needed = 1, uses_anonymous_args = 0
 261              		@ link register save eliminated.
 262 0000 80B4     		push	{r7}
 263              	.LCFI7:
 264              		.cfi_def_cfa_offset 4
 265              		.cfi_offset 7, -4
 266 0002 00AF     		add	r7, sp, #0
 267              	.LCFI8:
 268              		.cfi_def_cfa_register 7
 230:./Libraries/STM32H7xx_HAL_Driver/Src/stm32h7xx_hal.c ****   /* NOTE : This function Should not be modified, when the callback is needed,
 231:./Libraries/STM32H7xx_HAL_Driver/Src/stm32h7xx_hal.c ****             the HAL_MspInit could be implemented in the user file
 232:./Libraries/STM32H7xx_HAL_Driver/Src/stm32h7xx_hal.c ****    */
 233:./Libraries/STM32H7xx_HAL_Driver/Src/stm32h7xx_hal.c **** }
 269              		.loc 1 233 1
 270 0004 00BF     		nop
 271 0006 BD46     		mov	sp, r7
 272              	.LCFI9:
 273              		.cfi_def_cfa_register 13
 274              		@ sp needed
 275 0008 5DF8047B 		ldr	r7, [sp], #4
 276              	.LCFI10:
 277              		.cfi_restore 7
 278              		.cfi_def_cfa_offset 0
 279 000c 7047     		bx	lr
 280              		.cfi_endproc
 281              	.LFE333:
 283              		.section	.text.HAL_MspDeInit,"ax",%progbits
 284              		.align	1
 285              		.weak	HAL_MspDeInit
 286              		.syntax unified
 287              		.thumb
 288              		.thumb_func
 289              		.fpu fpv5-d16
 291              	HAL_MspDeInit:
ARM GAS  /tmp/cclvVaTN.s 			page 10


 292              	.LFB334:
 234:./Libraries/STM32H7xx_HAL_Driver/Src/stm32h7xx_hal.c **** 
 235:./Libraries/STM32H7xx_HAL_Driver/Src/stm32h7xx_hal.c **** /**
 236:./Libraries/STM32H7xx_HAL_Driver/Src/stm32h7xx_hal.c ****   * @brief  DeInitializes the MSP.
 237:./Libraries/STM32H7xx_HAL_Driver/Src/stm32h7xx_hal.c ****   * @retval None
 238:./Libraries/STM32H7xx_HAL_Driver/Src/stm32h7xx_hal.c ****   */
 239:./Libraries/STM32H7xx_HAL_Driver/Src/stm32h7xx_hal.c **** __weak void HAL_MspDeInit(void)
 240:./Libraries/STM32H7xx_HAL_Driver/Src/stm32h7xx_hal.c **** {
 293              		.loc 1 240 1
 294              		.cfi_startproc
 295              		@ args = 0, pretend = 0, frame = 0
 296              		@ frame_needed = 1, uses_anonymous_args = 0
 297              		@ link register save eliminated.
 298 0000 80B4     		push	{r7}
 299              	.LCFI11:
 300              		.cfi_def_cfa_offset 4
 301              		.cfi_offset 7, -4
 302 0002 00AF     		add	r7, sp, #0
 303              	.LCFI12:
 304              		.cfi_def_cfa_register 7
 241:./Libraries/STM32H7xx_HAL_Driver/Src/stm32h7xx_hal.c ****   /* NOTE : This function Should not be modified, when the callback is needed,
 242:./Libraries/STM32H7xx_HAL_Driver/Src/stm32h7xx_hal.c ****             the HAL_MspDeInit could be implemented in the user file
 243:./Libraries/STM32H7xx_HAL_Driver/Src/stm32h7xx_hal.c ****    */
 244:./Libraries/STM32H7xx_HAL_Driver/Src/stm32h7xx_hal.c **** }
 305              		.loc 1 244 1
 306 0004 00BF     		nop
 307 0006 BD46     		mov	sp, r7
 308              	.LCFI13:
 309              		.cfi_def_cfa_register 13
 310              		@ sp needed
 311 0008 5DF8047B 		ldr	r7, [sp], #4
 312              	.LCFI14:
 313              		.cfi_restore 7
 314              		.cfi_def_cfa_offset 0
 315 000c 7047     		bx	lr
 316              		.cfi_endproc
 317              	.LFE334:
 319              		.section	.text.HAL_InitTick,"ax",%progbits
 320              		.align	1
 321              		.weak	HAL_InitTick
 322              		.syntax unified
 323              		.thumb
 324              		.thumb_func
 325              		.fpu fpv5-d16
 327              	HAL_InitTick:
 328              	.LFB335:
 245:./Libraries/STM32H7xx_HAL_Driver/Src/stm32h7xx_hal.c **** 
 246:./Libraries/STM32H7xx_HAL_Driver/Src/stm32h7xx_hal.c **** /**
 247:./Libraries/STM32H7xx_HAL_Driver/Src/stm32h7xx_hal.c ****   * @brief This function configures the source of the time base.
 248:./Libraries/STM32H7xx_HAL_Driver/Src/stm32h7xx_hal.c ****   *        The time source is configured  to have 1ms time base with a dedicated
 249:./Libraries/STM32H7xx_HAL_Driver/Src/stm32h7xx_hal.c ****   *        Tick interrupt priority.
 250:./Libraries/STM32H7xx_HAL_Driver/Src/stm32h7xx_hal.c ****   * @note This function is called  automatically at the beginning of program after
 251:./Libraries/STM32H7xx_HAL_Driver/Src/stm32h7xx_hal.c ****   *       reset by HAL_Init() or at any time when clock is reconfigured  by HAL_RCC_ClockConfig().
 252:./Libraries/STM32H7xx_HAL_Driver/Src/stm32h7xx_hal.c ****   * @note In the default implementation, SysTick timer is the source of time base.
 253:./Libraries/STM32H7xx_HAL_Driver/Src/stm32h7xx_hal.c ****   *       It is used to generate interrupts at regular time intervals.
 254:./Libraries/STM32H7xx_HAL_Driver/Src/stm32h7xx_hal.c ****   *       Care must be taken if HAL_Delay() is called from a peripheral ISR process,
 255:./Libraries/STM32H7xx_HAL_Driver/Src/stm32h7xx_hal.c ****   *       The the SysTick interrupt must have higher priority (numerically lower)
ARM GAS  /tmp/cclvVaTN.s 			page 11


 256:./Libraries/STM32H7xx_HAL_Driver/Src/stm32h7xx_hal.c ****   *       than the peripheral interrupt. Otherwise the caller ISR process will be blocked.
 257:./Libraries/STM32H7xx_HAL_Driver/Src/stm32h7xx_hal.c ****   *       The function is declared as __weak  to be overwritten  in case of other
 258:./Libraries/STM32H7xx_HAL_Driver/Src/stm32h7xx_hal.c ****   *       implementation  in user file.
 259:./Libraries/STM32H7xx_HAL_Driver/Src/stm32h7xx_hal.c ****   * @param TickPriority: Tick interrupt priority.
 260:./Libraries/STM32H7xx_HAL_Driver/Src/stm32h7xx_hal.c ****   * @retval HAL status
 261:./Libraries/STM32H7xx_HAL_Driver/Src/stm32h7xx_hal.c ****   */
 262:./Libraries/STM32H7xx_HAL_Driver/Src/stm32h7xx_hal.c **** __weak HAL_StatusTypeDef HAL_InitTick(uint32_t TickPriority)
 263:./Libraries/STM32H7xx_HAL_Driver/Src/stm32h7xx_hal.c **** {
 329              		.loc 1 263 1
 330              		.cfi_startproc
 331              		@ args = 0, pretend = 0, frame = 8
 332              		@ frame_needed = 1, uses_anonymous_args = 0
 333 0000 80B5     		push	{r7, lr}
 334              	.LCFI15:
 335              		.cfi_def_cfa_offset 8
 336              		.cfi_offset 7, -8
 337              		.cfi_offset 14, -4
 338 0002 82B0     		sub	sp, sp, #8
 339              	.LCFI16:
 340              		.cfi_def_cfa_offset 16
 341 0004 00AF     		add	r7, sp, #0
 342              	.LCFI17:
 343              		.cfi_def_cfa_register 7
 344 0006 7860     		str	r0, [r7, #4]
 264:./Libraries/STM32H7xx_HAL_Driver/Src/stm32h7xx_hal.c ****   /* Check uwTickFreq for MisraC 2012 (even if uwTickFreq is a enum type that don't take the value 
 265:./Libraries/STM32H7xx_HAL_Driver/Src/stm32h7xx_hal.c ****   if((uint32_t)uwTickFreq == 0UL)
 345              		.loc 1 265 27
 346 0008 154B     		ldr	r3, .L18
 347 000a 1B78     		ldrb	r3, [r3]	@ zero_extendqisi2
 348              		.loc 1 265 5
 349 000c 002B     		cmp	r3, #0
 350 000e 01D1     		bne	.L13
 266:./Libraries/STM32H7xx_HAL_Driver/Src/stm32h7xx_hal.c ****   {
 267:./Libraries/STM32H7xx_HAL_Driver/Src/stm32h7xx_hal.c ****     return HAL_ERROR;
 351              		.loc 1 267 12
 352 0010 0123     		movs	r3, #1
 353 0012 21E0     		b	.L14
 354              	.L13:
 268:./Libraries/STM32H7xx_HAL_Driver/Src/stm32h7xx_hal.c ****   }
 269:./Libraries/STM32H7xx_HAL_Driver/Src/stm32h7xx_hal.c **** 
 270:./Libraries/STM32H7xx_HAL_Driver/Src/stm32h7xx_hal.c ****     /* Configure the SysTick to have interrupt in 1ms time basis*/
 271:./Libraries/STM32H7xx_HAL_Driver/Src/stm32h7xx_hal.c ****     if (HAL_SYSTICK_Config(SystemCoreClock / (1000UL / (uint32_t)uwTickFreq)) > 0U)
 355              		.loc 1 271 9
 356 0014 134B     		ldr	r3, .L18+4
 357 0016 1A68     		ldr	r2, [r3]
 358              		.loc 1 271 56
 359 0018 114B     		ldr	r3, .L18
 360 001a 1B78     		ldrb	r3, [r3]	@ zero_extendqisi2
 361 001c 1946     		mov	r1, r3
 362              		.loc 1 271 54
 363 001e 4FF47A73 		mov	r3, #1000
 364 0022 B3FBF1F3 		udiv	r3, r3, r1
 365              		.loc 1 271 9
 366 0026 B2FBF3F3 		udiv	r3, r2, r3
 367 002a 1846     		mov	r0, r3
 368 002c FFF7FEFF 		bl	HAL_SYSTICK_Config
 369 0030 0346     		mov	r3, r0
ARM GAS  /tmp/cclvVaTN.s 			page 12


 370              		.loc 1 271 8
 371 0032 002B     		cmp	r3, #0
 372 0034 01D0     		beq	.L15
 272:./Libraries/STM32H7xx_HAL_Driver/Src/stm32h7xx_hal.c ****     {
 273:./Libraries/STM32H7xx_HAL_Driver/Src/stm32h7xx_hal.c ****       return HAL_ERROR;
 373              		.loc 1 273 14
 374 0036 0123     		movs	r3, #1
 375 0038 0EE0     		b	.L14
 376              	.L15:
 274:./Libraries/STM32H7xx_HAL_Driver/Src/stm32h7xx_hal.c ****     }
 275:./Libraries/STM32H7xx_HAL_Driver/Src/stm32h7xx_hal.c **** 
 276:./Libraries/STM32H7xx_HAL_Driver/Src/stm32h7xx_hal.c ****   /* Configure the SysTick IRQ priority */
 277:./Libraries/STM32H7xx_HAL_Driver/Src/stm32h7xx_hal.c ****   if (TickPriority < (1UL << __NVIC_PRIO_BITS))
 377              		.loc 1 277 6
 378 003a 7B68     		ldr	r3, [r7, #4]
 379 003c 0F2B     		cmp	r3, #15
 380 003e 0AD8     		bhi	.L16
 278:./Libraries/STM32H7xx_HAL_Driver/Src/stm32h7xx_hal.c ****   {
 279:./Libraries/STM32H7xx_HAL_Driver/Src/stm32h7xx_hal.c ****     HAL_NVIC_SetPriority(SysTick_IRQn, TickPriority, 0U);
 381              		.loc 1 279 5
 382 0040 0022     		movs	r2, #0
 383 0042 7968     		ldr	r1, [r7, #4]
 384 0044 4FF0FF30 		mov	r0, #-1
 385 0048 FFF7FEFF 		bl	HAL_NVIC_SetPriority
 280:./Libraries/STM32H7xx_HAL_Driver/Src/stm32h7xx_hal.c ****     uwTickPrio = TickPriority;
 386              		.loc 1 280 16
 387 004c 064A     		ldr	r2, .L18+8
 388 004e 7B68     		ldr	r3, [r7, #4]
 389 0050 1360     		str	r3, [r2]
 281:./Libraries/STM32H7xx_HAL_Driver/Src/stm32h7xx_hal.c ****   }
 282:./Libraries/STM32H7xx_HAL_Driver/Src/stm32h7xx_hal.c ****   else
 283:./Libraries/STM32H7xx_HAL_Driver/Src/stm32h7xx_hal.c ****   {
 284:./Libraries/STM32H7xx_HAL_Driver/Src/stm32h7xx_hal.c ****     return HAL_ERROR;
 285:./Libraries/STM32H7xx_HAL_Driver/Src/stm32h7xx_hal.c ****   }
 286:./Libraries/STM32H7xx_HAL_Driver/Src/stm32h7xx_hal.c **** 
 287:./Libraries/STM32H7xx_HAL_Driver/Src/stm32h7xx_hal.c ****   /* Return function status */
 288:./Libraries/STM32H7xx_HAL_Driver/Src/stm32h7xx_hal.c ****   return HAL_OK;
 390              		.loc 1 288 10
 391 0052 0023     		movs	r3, #0
 392 0054 00E0     		b	.L14
 393              	.L16:
 284:./Libraries/STM32H7xx_HAL_Driver/Src/stm32h7xx_hal.c ****   }
 394              		.loc 1 284 12
 395 0056 0123     		movs	r3, #1
 396              	.L14:
 289:./Libraries/STM32H7xx_HAL_Driver/Src/stm32h7xx_hal.c **** }
 397              		.loc 1 289 1
 398 0058 1846     		mov	r0, r3
 399 005a 0837     		adds	r7, r7, #8
 400              	.LCFI18:
 401              		.cfi_def_cfa_offset 8
 402 005c BD46     		mov	sp, r7
 403              	.LCFI19:
 404              		.cfi_def_cfa_register 13
 405              		@ sp needed
 406 005e 80BD     		pop	{r7, pc}
 407              	.L19:
ARM GAS  /tmp/cclvVaTN.s 			page 13


 408              		.align	2
 409              	.L18:
 410 0060 00000000 		.word	uwTickFreq
 411 0064 00000000 		.word	SystemCoreClock
 412 0068 00000000 		.word	uwTickPrio
 413              		.cfi_endproc
 414              	.LFE335:
 416              		.section	.text.HAL_IncTick,"ax",%progbits
 417              		.align	1
 418              		.weak	HAL_IncTick
 419              		.syntax unified
 420              		.thumb
 421              		.thumb_func
 422              		.fpu fpv5-d16
 424              	HAL_IncTick:
 425              	.LFB336:
 290:./Libraries/STM32H7xx_HAL_Driver/Src/stm32h7xx_hal.c **** 
 291:./Libraries/STM32H7xx_HAL_Driver/Src/stm32h7xx_hal.c **** /**
 292:./Libraries/STM32H7xx_HAL_Driver/Src/stm32h7xx_hal.c ****   * @}
 293:./Libraries/STM32H7xx_HAL_Driver/Src/stm32h7xx_hal.c ****   */
 294:./Libraries/STM32H7xx_HAL_Driver/Src/stm32h7xx_hal.c **** 
 295:./Libraries/STM32H7xx_HAL_Driver/Src/stm32h7xx_hal.c **** /** @defgroup HAL_Group2 HAL Control functions
 296:./Libraries/STM32H7xx_HAL_Driver/Src/stm32h7xx_hal.c ****  *  @brief    HAL Control functions
 297:./Libraries/STM32H7xx_HAL_Driver/Src/stm32h7xx_hal.c ****  *
 298:./Libraries/STM32H7xx_HAL_Driver/Src/stm32h7xx_hal.c **** @verbatim
 299:./Libraries/STM32H7xx_HAL_Driver/Src/stm32h7xx_hal.c ****  ===============================================================================
 300:./Libraries/STM32H7xx_HAL_Driver/Src/stm32h7xx_hal.c ****                       ##### HAL Control functions #####
 301:./Libraries/STM32H7xx_HAL_Driver/Src/stm32h7xx_hal.c ****  ===============================================================================
 302:./Libraries/STM32H7xx_HAL_Driver/Src/stm32h7xx_hal.c ****     [..]  This section provides functions allowing to:
 303:./Libraries/STM32H7xx_HAL_Driver/Src/stm32h7xx_hal.c ****       (+) Provide a tick value in millisecond
 304:./Libraries/STM32H7xx_HAL_Driver/Src/stm32h7xx_hal.c ****       (+) Provide a blocking delay in millisecond
 305:./Libraries/STM32H7xx_HAL_Driver/Src/stm32h7xx_hal.c ****       (+) Suspend the time base source interrupt
 306:./Libraries/STM32H7xx_HAL_Driver/Src/stm32h7xx_hal.c ****       (+) Resume the time base source interrupt
 307:./Libraries/STM32H7xx_HAL_Driver/Src/stm32h7xx_hal.c ****       (+) Get the HAL API driver version
 308:./Libraries/STM32H7xx_HAL_Driver/Src/stm32h7xx_hal.c ****       (+) Get the device identifier
 309:./Libraries/STM32H7xx_HAL_Driver/Src/stm32h7xx_hal.c ****       (+) Get the device revision identifier
 310:./Libraries/STM32H7xx_HAL_Driver/Src/stm32h7xx_hal.c ****       (+) Enable/Disable Debug module during SLEEP mode
 311:./Libraries/STM32H7xx_HAL_Driver/Src/stm32h7xx_hal.c ****       (+) Enable/Disable Debug module during STOP mode
 312:./Libraries/STM32H7xx_HAL_Driver/Src/stm32h7xx_hal.c ****       (+) Enable/Disable Debug module during STANDBY mode
 313:./Libraries/STM32H7xx_HAL_Driver/Src/stm32h7xx_hal.c **** 
 314:./Libraries/STM32H7xx_HAL_Driver/Src/stm32h7xx_hal.c **** @endverbatim
 315:./Libraries/STM32H7xx_HAL_Driver/Src/stm32h7xx_hal.c ****   * @{
 316:./Libraries/STM32H7xx_HAL_Driver/Src/stm32h7xx_hal.c ****   */
 317:./Libraries/STM32H7xx_HAL_Driver/Src/stm32h7xx_hal.c **** 
 318:./Libraries/STM32H7xx_HAL_Driver/Src/stm32h7xx_hal.c **** /**
 319:./Libraries/STM32H7xx_HAL_Driver/Src/stm32h7xx_hal.c ****   * @brief This function is called to increment  a global variable "uwTick"
 320:./Libraries/STM32H7xx_HAL_Driver/Src/stm32h7xx_hal.c ****   *        used as application time base.
 321:./Libraries/STM32H7xx_HAL_Driver/Src/stm32h7xx_hal.c ****   * @note In the default implementation, this variable is incremented each 1ms
 322:./Libraries/STM32H7xx_HAL_Driver/Src/stm32h7xx_hal.c ****   *       in Systick ISR.
 323:./Libraries/STM32H7xx_HAL_Driver/Src/stm32h7xx_hal.c ****  * @note This function is declared as __weak to be overwritten in case of other
 324:./Libraries/STM32H7xx_HAL_Driver/Src/stm32h7xx_hal.c ****   *      implementations in user file.
 325:./Libraries/STM32H7xx_HAL_Driver/Src/stm32h7xx_hal.c ****   * @retval None
 326:./Libraries/STM32H7xx_HAL_Driver/Src/stm32h7xx_hal.c ****   */
 327:./Libraries/STM32H7xx_HAL_Driver/Src/stm32h7xx_hal.c **** __weak void HAL_IncTick(void)
 328:./Libraries/STM32H7xx_HAL_Driver/Src/stm32h7xx_hal.c **** {
 426              		.loc 1 328 1
 427              		.cfi_startproc
ARM GAS  /tmp/cclvVaTN.s 			page 14


 428              		@ args = 0, pretend = 0, frame = 0
 429              		@ frame_needed = 1, uses_anonymous_args = 0
 430              		@ link register save eliminated.
 431 0000 80B4     		push	{r7}
 432              	.LCFI20:
 433              		.cfi_def_cfa_offset 4
 434              		.cfi_offset 7, -4
 435 0002 00AF     		add	r7, sp, #0
 436              	.LCFI21:
 437              		.cfi_def_cfa_register 7
 329:./Libraries/STM32H7xx_HAL_Driver/Src/stm32h7xx_hal.c ****   uwTick += (uint32_t)uwTickFreq;
 438              		.loc 1 329 13
 439 0004 064B     		ldr	r3, .L21
 440 0006 1B78     		ldrb	r3, [r3]	@ zero_extendqisi2
 441 0008 1A46     		mov	r2, r3
 442              		.loc 1 329 10
 443 000a 064B     		ldr	r3, .L21+4
 444 000c 1B68     		ldr	r3, [r3]
 445 000e 1344     		add	r3, r3, r2
 446 0010 044A     		ldr	r2, .L21+4
 447 0012 1360     		str	r3, [r2]
 330:./Libraries/STM32H7xx_HAL_Driver/Src/stm32h7xx_hal.c **** }
 448              		.loc 1 330 1
 449 0014 00BF     		nop
 450 0016 BD46     		mov	sp, r7
 451              	.LCFI22:
 452              		.cfi_def_cfa_register 13
 453              		@ sp needed
 454 0018 5DF8047B 		ldr	r7, [sp], #4
 455              	.LCFI23:
 456              		.cfi_restore 7
 457              		.cfi_def_cfa_offset 0
 458 001c 7047     		bx	lr
 459              	.L22:
 460 001e 00BF     		.align	2
 461              	.L21:
 462 0020 00000000 		.word	uwTickFreq
 463 0024 00000000 		.word	uwTick
 464              		.cfi_endproc
 465              	.LFE336:
 467              		.section	.text.HAL_GetTick,"ax",%progbits
 468              		.align	1
 469              		.weak	HAL_GetTick
 470              		.syntax unified
 471              		.thumb
 472              		.thumb_func
 473              		.fpu fpv5-d16
 475              	HAL_GetTick:
 476              	.LFB337:
 331:./Libraries/STM32H7xx_HAL_Driver/Src/stm32h7xx_hal.c **** 
 332:./Libraries/STM32H7xx_HAL_Driver/Src/stm32h7xx_hal.c **** /**
 333:./Libraries/STM32H7xx_HAL_Driver/Src/stm32h7xx_hal.c ****   * @brief Provides a tick value in millisecond.
 334:./Libraries/STM32H7xx_HAL_Driver/Src/stm32h7xx_hal.c ****   * @note This function is declared as __weak to be overwritten in case of other
 335:./Libraries/STM32H7xx_HAL_Driver/Src/stm32h7xx_hal.c ****   *       implementations in user file.
 336:./Libraries/STM32H7xx_HAL_Driver/Src/stm32h7xx_hal.c ****   * @retval tick value
 337:./Libraries/STM32H7xx_HAL_Driver/Src/stm32h7xx_hal.c ****   */
 338:./Libraries/STM32H7xx_HAL_Driver/Src/stm32h7xx_hal.c **** __weak uint32_t HAL_GetTick(void)
ARM GAS  /tmp/cclvVaTN.s 			page 15


 339:./Libraries/STM32H7xx_HAL_Driver/Src/stm32h7xx_hal.c **** {
 477              		.loc 1 339 1
 478              		.cfi_startproc
 479              		@ args = 0, pretend = 0, frame = 0
 480              		@ frame_needed = 1, uses_anonymous_args = 0
 481              		@ link register save eliminated.
 482 0000 80B4     		push	{r7}
 483              	.LCFI24:
 484              		.cfi_def_cfa_offset 4
 485              		.cfi_offset 7, -4
 486 0002 00AF     		add	r7, sp, #0
 487              	.LCFI25:
 488              		.cfi_def_cfa_register 7
 340:./Libraries/STM32H7xx_HAL_Driver/Src/stm32h7xx_hal.c ****   return uwTick;
 489              		.loc 1 340 10
 490 0004 034B     		ldr	r3, .L25
 491 0006 1B68     		ldr	r3, [r3]
 341:./Libraries/STM32H7xx_HAL_Driver/Src/stm32h7xx_hal.c **** }
 492              		.loc 1 341 1
 493 0008 1846     		mov	r0, r3
 494 000a BD46     		mov	sp, r7
 495              	.LCFI26:
 496              		.cfi_def_cfa_register 13
 497              		@ sp needed
 498 000c 5DF8047B 		ldr	r7, [sp], #4
 499              	.LCFI27:
 500              		.cfi_restore 7
 501              		.cfi_def_cfa_offset 0
 502 0010 7047     		bx	lr
 503              	.L26:
 504 0012 00BF     		.align	2
 505              	.L25:
 506 0014 00000000 		.word	uwTick
 507              		.cfi_endproc
 508              	.LFE337:
 510              		.section	.text.HAL_GetTickPrio,"ax",%progbits
 511              		.align	1
 512              		.global	HAL_GetTickPrio
 513              		.syntax unified
 514              		.thumb
 515              		.thumb_func
 516              		.fpu fpv5-d16
 518              	HAL_GetTickPrio:
 519              	.LFB338:
 342:./Libraries/STM32H7xx_HAL_Driver/Src/stm32h7xx_hal.c **** 
 343:./Libraries/STM32H7xx_HAL_Driver/Src/stm32h7xx_hal.c **** /**
 344:./Libraries/STM32H7xx_HAL_Driver/Src/stm32h7xx_hal.c ****   * @brief This function returns a tick priority.
 345:./Libraries/STM32H7xx_HAL_Driver/Src/stm32h7xx_hal.c ****   * @retval tick priority
 346:./Libraries/STM32H7xx_HAL_Driver/Src/stm32h7xx_hal.c ****   */
 347:./Libraries/STM32H7xx_HAL_Driver/Src/stm32h7xx_hal.c **** uint32_t HAL_GetTickPrio(void)
 348:./Libraries/STM32H7xx_HAL_Driver/Src/stm32h7xx_hal.c **** {
 520              		.loc 1 348 1
 521              		.cfi_startproc
 522              		@ args = 0, pretend = 0, frame = 0
 523              		@ frame_needed = 1, uses_anonymous_args = 0
 524              		@ link register save eliminated.
 525 0000 80B4     		push	{r7}
ARM GAS  /tmp/cclvVaTN.s 			page 16


 526              	.LCFI28:
 527              		.cfi_def_cfa_offset 4
 528              		.cfi_offset 7, -4
 529 0002 00AF     		add	r7, sp, #0
 530              	.LCFI29:
 531              		.cfi_def_cfa_register 7
 349:./Libraries/STM32H7xx_HAL_Driver/Src/stm32h7xx_hal.c ****   return uwTickPrio;
 532              		.loc 1 349 10
 533 0004 034B     		ldr	r3, .L29
 534 0006 1B68     		ldr	r3, [r3]
 350:./Libraries/STM32H7xx_HAL_Driver/Src/stm32h7xx_hal.c **** }
 535              		.loc 1 350 1
 536 0008 1846     		mov	r0, r3
 537 000a BD46     		mov	sp, r7
 538              	.LCFI30:
 539              		.cfi_def_cfa_register 13
 540              		@ sp needed
 541 000c 5DF8047B 		ldr	r7, [sp], #4
 542              	.LCFI31:
 543              		.cfi_restore 7
 544              		.cfi_def_cfa_offset 0
 545 0010 7047     		bx	lr
 546              	.L30:
 547 0012 00BF     		.align	2
 548              	.L29:
 549 0014 00000000 		.word	uwTickPrio
 550              		.cfi_endproc
 551              	.LFE338:
 553              		.section	.text.HAL_SetTickFreq,"ax",%progbits
 554              		.align	1
 555              		.global	HAL_SetTickFreq
 556              		.syntax unified
 557              		.thumb
 558              		.thumb_func
 559              		.fpu fpv5-d16
 561              	HAL_SetTickFreq:
 562              	.LFB339:
 351:./Libraries/STM32H7xx_HAL_Driver/Src/stm32h7xx_hal.c **** 
 352:./Libraries/STM32H7xx_HAL_Driver/Src/stm32h7xx_hal.c **** /**
 353:./Libraries/STM32H7xx_HAL_Driver/Src/stm32h7xx_hal.c ****   * @brief Set new tick Freq.
 354:./Libraries/STM32H7xx_HAL_Driver/Src/stm32h7xx_hal.c ****   * @retval Status
 355:./Libraries/STM32H7xx_HAL_Driver/Src/stm32h7xx_hal.c ****   */
 356:./Libraries/STM32H7xx_HAL_Driver/Src/stm32h7xx_hal.c **** HAL_StatusTypeDef HAL_SetTickFreq(HAL_TickFreqTypeDef Freq)
 357:./Libraries/STM32H7xx_HAL_Driver/Src/stm32h7xx_hal.c **** {
 563              		.loc 1 357 1
 564              		.cfi_startproc
 565              		@ args = 0, pretend = 0, frame = 16
 566              		@ frame_needed = 1, uses_anonymous_args = 0
 567 0000 80B5     		push	{r7, lr}
 568              	.LCFI32:
 569              		.cfi_def_cfa_offset 8
 570              		.cfi_offset 7, -8
 571              		.cfi_offset 14, -4
 572 0002 84B0     		sub	sp, sp, #16
 573              	.LCFI33:
 574              		.cfi_def_cfa_offset 24
 575 0004 00AF     		add	r7, sp, #0
ARM GAS  /tmp/cclvVaTN.s 			page 17


 576              	.LCFI34:
 577              		.cfi_def_cfa_register 7
 578 0006 0346     		mov	r3, r0
 579 0008 FB71     		strb	r3, [r7, #7]
 358:./Libraries/STM32H7xx_HAL_Driver/Src/stm32h7xx_hal.c ****   HAL_StatusTypeDef status  = HAL_OK;
 580              		.loc 1 358 21
 581 000a 0023     		movs	r3, #0
 582 000c FB73     		strb	r3, [r7, #15]
 359:./Libraries/STM32H7xx_HAL_Driver/Src/stm32h7xx_hal.c ****   HAL_TickFreqTypeDef prevTickFreq;
 360:./Libraries/STM32H7xx_HAL_Driver/Src/stm32h7xx_hal.c **** 
 361:./Libraries/STM32H7xx_HAL_Driver/Src/stm32h7xx_hal.c ****   assert_param(IS_TICKFREQ(Freq));
 362:./Libraries/STM32H7xx_HAL_Driver/Src/stm32h7xx_hal.c **** 
 363:./Libraries/STM32H7xx_HAL_Driver/Src/stm32h7xx_hal.c ****   if (uwTickFreq != Freq)
 583              		.loc 1 363 18
 584 000e 0E4B     		ldr	r3, .L34
 585 0010 1B78     		ldrb	r3, [r3]	@ zero_extendqisi2
 586              		.loc 1 363 6
 587 0012 FA79     		ldrb	r2, [r7, #7]	@ zero_extendqisi2
 588 0014 9A42     		cmp	r2, r3
 589 0016 12D0     		beq	.L32
 364:./Libraries/STM32H7xx_HAL_Driver/Src/stm32h7xx_hal.c ****   {
 365:./Libraries/STM32H7xx_HAL_Driver/Src/stm32h7xx_hal.c **** 
 366:./Libraries/STM32H7xx_HAL_Driver/Src/stm32h7xx_hal.c ****     /* Back up uwTickFreq frequency */
 367:./Libraries/STM32H7xx_HAL_Driver/Src/stm32h7xx_hal.c ****     prevTickFreq = uwTickFreq;
 590              		.loc 1 367 18
 591 0018 0B4B     		ldr	r3, .L34
 592 001a 1B78     		ldrb	r3, [r3]
 593 001c BB73     		strb	r3, [r7, #14]
 368:./Libraries/STM32H7xx_HAL_Driver/Src/stm32h7xx_hal.c **** 
 369:./Libraries/STM32H7xx_HAL_Driver/Src/stm32h7xx_hal.c ****     /* Update uwTickFreq global variable used by HAL_InitTick() */
 370:./Libraries/STM32H7xx_HAL_Driver/Src/stm32h7xx_hal.c ****     uwTickFreq = Freq;
 594              		.loc 1 370 16
 595 001e 0A4A     		ldr	r2, .L34
 596 0020 FB79     		ldrb	r3, [r7, #7]
 597 0022 1370     		strb	r3, [r2]
 371:./Libraries/STM32H7xx_HAL_Driver/Src/stm32h7xx_hal.c **** 
 372:./Libraries/STM32H7xx_HAL_Driver/Src/stm32h7xx_hal.c ****     /* Apply the new tick Freq  */
 373:./Libraries/STM32H7xx_HAL_Driver/Src/stm32h7xx_hal.c ****     status = HAL_InitTick(uwTickPrio);
 598              		.loc 1 373 14
 599 0024 094B     		ldr	r3, .L34+4
 600 0026 1B68     		ldr	r3, [r3]
 601 0028 1846     		mov	r0, r3
 602 002a FFF7FEFF 		bl	HAL_InitTick
 603 002e 0346     		mov	r3, r0
 604 0030 FB73     		strb	r3, [r7, #15]
 374:./Libraries/STM32H7xx_HAL_Driver/Src/stm32h7xx_hal.c ****     if (status != HAL_OK)
 605              		.loc 1 374 8
 606 0032 FB7B     		ldrb	r3, [r7, #15]	@ zero_extendqisi2
 607 0034 002B     		cmp	r3, #0
 608 0036 02D0     		beq	.L32
 375:./Libraries/STM32H7xx_HAL_Driver/Src/stm32h7xx_hal.c ****     {
 376:./Libraries/STM32H7xx_HAL_Driver/Src/stm32h7xx_hal.c ****       /* Restore previous tick frequency */
 377:./Libraries/STM32H7xx_HAL_Driver/Src/stm32h7xx_hal.c ****       uwTickFreq = prevTickFreq;
 609              		.loc 1 377 18
 610 0038 034A     		ldr	r2, .L34
 611 003a BB7B     		ldrb	r3, [r7, #14]
 612 003c 1370     		strb	r3, [r2]
ARM GAS  /tmp/cclvVaTN.s 			page 18


 613              	.L32:
 378:./Libraries/STM32H7xx_HAL_Driver/Src/stm32h7xx_hal.c ****     }
 379:./Libraries/STM32H7xx_HAL_Driver/Src/stm32h7xx_hal.c ****   }
 380:./Libraries/STM32H7xx_HAL_Driver/Src/stm32h7xx_hal.c **** 
 381:./Libraries/STM32H7xx_HAL_Driver/Src/stm32h7xx_hal.c ****   return status;
 614              		.loc 1 381 10
 615 003e FB7B     		ldrb	r3, [r7, #15]	@ zero_extendqisi2
 382:./Libraries/STM32H7xx_HAL_Driver/Src/stm32h7xx_hal.c **** }
 616              		.loc 1 382 1
 617 0040 1846     		mov	r0, r3
 618 0042 1037     		adds	r7, r7, #16
 619              	.LCFI35:
 620              		.cfi_def_cfa_offset 8
 621 0044 BD46     		mov	sp, r7
 622              	.LCFI36:
 623              		.cfi_def_cfa_register 13
 624              		@ sp needed
 625 0046 80BD     		pop	{r7, pc}
 626              	.L35:
 627              		.align	2
 628              	.L34:
 629 0048 00000000 		.word	uwTickFreq
 630 004c 00000000 		.word	uwTickPrio
 631              		.cfi_endproc
 632              	.LFE339:
 634              		.section	.text.HAL_GetTickFreq,"ax",%progbits
 635              		.align	1
 636              		.global	HAL_GetTickFreq
 637              		.syntax unified
 638              		.thumb
 639              		.thumb_func
 640              		.fpu fpv5-d16
 642              	HAL_GetTickFreq:
 643              	.LFB340:
 383:./Libraries/STM32H7xx_HAL_Driver/Src/stm32h7xx_hal.c **** 
 384:./Libraries/STM32H7xx_HAL_Driver/Src/stm32h7xx_hal.c **** /**
 385:./Libraries/STM32H7xx_HAL_Driver/Src/stm32h7xx_hal.c ****   * @brief Return tick frequency.
 386:./Libraries/STM32H7xx_HAL_Driver/Src/stm32h7xx_hal.c ****   * @retval tick period in Hz
 387:./Libraries/STM32H7xx_HAL_Driver/Src/stm32h7xx_hal.c ****   */
 388:./Libraries/STM32H7xx_HAL_Driver/Src/stm32h7xx_hal.c **** HAL_TickFreqTypeDef HAL_GetTickFreq(void)
 389:./Libraries/STM32H7xx_HAL_Driver/Src/stm32h7xx_hal.c **** {
 644              		.loc 1 389 1
 645              		.cfi_startproc
 646              		@ args = 0, pretend = 0, frame = 0
 647              		@ frame_needed = 1, uses_anonymous_args = 0
 648              		@ link register save eliminated.
 649 0000 80B4     		push	{r7}
 650              	.LCFI37:
 651              		.cfi_def_cfa_offset 4
 652              		.cfi_offset 7, -4
 653 0002 00AF     		add	r7, sp, #0
 654              	.LCFI38:
 655              		.cfi_def_cfa_register 7
 390:./Libraries/STM32H7xx_HAL_Driver/Src/stm32h7xx_hal.c ****   return uwTickFreq;
 656              		.loc 1 390 10
 657 0004 034B     		ldr	r3, .L38
 658 0006 1B78     		ldrb	r3, [r3]	@ zero_extendqisi2
ARM GAS  /tmp/cclvVaTN.s 			page 19


 391:./Libraries/STM32H7xx_HAL_Driver/Src/stm32h7xx_hal.c **** }
 659              		.loc 1 391 1
 660 0008 1846     		mov	r0, r3
 661 000a BD46     		mov	sp, r7
 662              	.LCFI39:
 663              		.cfi_def_cfa_register 13
 664              		@ sp needed
 665 000c 5DF8047B 		ldr	r7, [sp], #4
 666              	.LCFI40:
 667              		.cfi_restore 7
 668              		.cfi_def_cfa_offset 0
 669 0010 7047     		bx	lr
 670              	.L39:
 671 0012 00BF     		.align	2
 672              	.L38:
 673 0014 00000000 		.word	uwTickFreq
 674              		.cfi_endproc
 675              	.LFE340:
 677              		.section	.text.HAL_Delay,"ax",%progbits
 678              		.align	1
 679              		.weak	HAL_Delay
 680              		.syntax unified
 681              		.thumb
 682              		.thumb_func
 683              		.fpu fpv5-d16
 685              	HAL_Delay:
 686              	.LFB341:
 392:./Libraries/STM32H7xx_HAL_Driver/Src/stm32h7xx_hal.c **** 
 393:./Libraries/STM32H7xx_HAL_Driver/Src/stm32h7xx_hal.c **** /**
 394:./Libraries/STM32H7xx_HAL_Driver/Src/stm32h7xx_hal.c ****   * @brief This function provides minimum delay (in milliseconds) based
 395:./Libraries/STM32H7xx_HAL_Driver/Src/stm32h7xx_hal.c ****   *        on variable incremented.
 396:./Libraries/STM32H7xx_HAL_Driver/Src/stm32h7xx_hal.c ****   * @note In the default implementation , SysTick timer is the source of time base.
 397:./Libraries/STM32H7xx_HAL_Driver/Src/stm32h7xx_hal.c ****   *       It is used to generate interrupts at regular time intervals where uwTick
 398:./Libraries/STM32H7xx_HAL_Driver/Src/stm32h7xx_hal.c ****   *       is incremented.
 399:./Libraries/STM32H7xx_HAL_Driver/Src/stm32h7xx_hal.c ****   * @note This function is declared as __weak to be overwritten in case of other
 400:./Libraries/STM32H7xx_HAL_Driver/Src/stm32h7xx_hal.c ****   *       implementations in user file.
 401:./Libraries/STM32H7xx_HAL_Driver/Src/stm32h7xx_hal.c ****   * @param Delay  specifies the delay time length, in milliseconds.
 402:./Libraries/STM32H7xx_HAL_Driver/Src/stm32h7xx_hal.c ****   * @retval None
 403:./Libraries/STM32H7xx_HAL_Driver/Src/stm32h7xx_hal.c ****   */
 404:./Libraries/STM32H7xx_HAL_Driver/Src/stm32h7xx_hal.c **** __weak void HAL_Delay(uint32_t Delay)
 405:./Libraries/STM32H7xx_HAL_Driver/Src/stm32h7xx_hal.c **** {
 687              		.loc 1 405 1
 688              		.cfi_startproc
 689              		@ args = 0, pretend = 0, frame = 16
 690              		@ frame_needed = 1, uses_anonymous_args = 0
 691 0000 80B5     		push	{r7, lr}
 692              	.LCFI41:
 693              		.cfi_def_cfa_offset 8
 694              		.cfi_offset 7, -8
 695              		.cfi_offset 14, -4
 696 0002 84B0     		sub	sp, sp, #16
 697              	.LCFI42:
 698              		.cfi_def_cfa_offset 24
 699 0004 00AF     		add	r7, sp, #0
 700              	.LCFI43:
 701              		.cfi_def_cfa_register 7
 702 0006 7860     		str	r0, [r7, #4]
ARM GAS  /tmp/cclvVaTN.s 			page 20


 406:./Libraries/STM32H7xx_HAL_Driver/Src/stm32h7xx_hal.c ****   uint32_t tickstart = HAL_GetTick();
 703              		.loc 1 406 24
 704 0008 FFF7FEFF 		bl	HAL_GetTick
 705 000c B860     		str	r0, [r7, #8]
 407:./Libraries/STM32H7xx_HAL_Driver/Src/stm32h7xx_hal.c ****   uint32_t wait = Delay;
 706              		.loc 1 407 12
 707 000e 7B68     		ldr	r3, [r7, #4]
 708 0010 FB60     		str	r3, [r7, #12]
 408:./Libraries/STM32H7xx_HAL_Driver/Src/stm32h7xx_hal.c **** 
 409:./Libraries/STM32H7xx_HAL_Driver/Src/stm32h7xx_hal.c ****   /* Add a freq to guarantee minimum wait */
 410:./Libraries/STM32H7xx_HAL_Driver/Src/stm32h7xx_hal.c ****   if (wait < HAL_MAX_DELAY)
 709              		.loc 1 410 6
 710 0012 FB68     		ldr	r3, [r7, #12]
 711 0014 B3F1FF3F 		cmp	r3, #-1
 712 0018 05D0     		beq	.L43
 411:./Libraries/STM32H7xx_HAL_Driver/Src/stm32h7xx_hal.c ****   {
 412:./Libraries/STM32H7xx_HAL_Driver/Src/stm32h7xx_hal.c ****     wait += (uint32_t)(uwTickFreq);
 713              		.loc 1 412 13
 714 001a 0A4B     		ldr	r3, .L44
 715 001c 1B78     		ldrb	r3, [r3]	@ zero_extendqisi2
 716 001e 1A46     		mov	r2, r3
 717              		.loc 1 412 10
 718 0020 FB68     		ldr	r3, [r7, #12]
 719 0022 1344     		add	r3, r3, r2
 720 0024 FB60     		str	r3, [r7, #12]
 721              	.L43:
 413:./Libraries/STM32H7xx_HAL_Driver/Src/stm32h7xx_hal.c ****   }
 414:./Libraries/STM32H7xx_HAL_Driver/Src/stm32h7xx_hal.c **** 
 415:./Libraries/STM32H7xx_HAL_Driver/Src/stm32h7xx_hal.c ****   while ((HAL_GetTick() - tickstart) < wait)
 722              		.loc 1 415 9
 723 0026 00BF     		nop
 724              	.L42:
 725              		.loc 1 415 11 discriminator 1
 726 0028 FFF7FEFF 		bl	HAL_GetTick
 727 002c 0246     		mov	r2, r0
 728              		.loc 1 415 25 discriminator 1
 729 002e BB68     		ldr	r3, [r7, #8]
 730 0030 D31A     		subs	r3, r2, r3
 731              		.loc 1 415 9 discriminator 1
 732 0032 FA68     		ldr	r2, [r7, #12]
 733 0034 9A42     		cmp	r2, r3
 734 0036 F7D8     		bhi	.L42
 416:./Libraries/STM32H7xx_HAL_Driver/Src/stm32h7xx_hal.c ****   {
 417:./Libraries/STM32H7xx_HAL_Driver/Src/stm32h7xx_hal.c ****   }
 418:./Libraries/STM32H7xx_HAL_Driver/Src/stm32h7xx_hal.c **** }
 735              		.loc 1 418 1
 736 0038 00BF     		nop
 737 003a 00BF     		nop
 738 003c 1037     		adds	r7, r7, #16
 739              	.LCFI44:
 740              		.cfi_def_cfa_offset 8
 741 003e BD46     		mov	sp, r7
 742              	.LCFI45:
 743              		.cfi_def_cfa_register 13
 744              		@ sp needed
 745 0040 80BD     		pop	{r7, pc}
 746              	.L45:
ARM GAS  /tmp/cclvVaTN.s 			page 21


 747 0042 00BF     		.align	2
 748              	.L44:
 749 0044 00000000 		.word	uwTickFreq
 750              		.cfi_endproc
 751              	.LFE341:
 753              		.section	.text.HAL_SuspendTick,"ax",%progbits
 754              		.align	1
 755              		.weak	HAL_SuspendTick
 756              		.syntax unified
 757              		.thumb
 758              		.thumb_func
 759              		.fpu fpv5-d16
 761              	HAL_SuspendTick:
 762              	.LFB342:
 419:./Libraries/STM32H7xx_HAL_Driver/Src/stm32h7xx_hal.c **** 
 420:./Libraries/STM32H7xx_HAL_Driver/Src/stm32h7xx_hal.c **** /**
 421:./Libraries/STM32H7xx_HAL_Driver/Src/stm32h7xx_hal.c ****   * @brief Suspend Tick increment.
 422:./Libraries/STM32H7xx_HAL_Driver/Src/stm32h7xx_hal.c ****   * @note In the default implementation , SysTick timer is the source of time base. It is
 423:./Libraries/STM32H7xx_HAL_Driver/Src/stm32h7xx_hal.c ****   *       used to generate interrupts at regular time intervals. Once HAL_SuspendTick()
 424:./Libraries/STM32H7xx_HAL_Driver/Src/stm32h7xx_hal.c ****   *       is called, the the SysTick interrupt will be disabled and so Tick increment
 425:./Libraries/STM32H7xx_HAL_Driver/Src/stm32h7xx_hal.c ****   *       is suspended.
 426:./Libraries/STM32H7xx_HAL_Driver/Src/stm32h7xx_hal.c ****   * @note This function is declared as __weak to be overwritten in case of other
 427:./Libraries/STM32H7xx_HAL_Driver/Src/stm32h7xx_hal.c ****   *       implementations in user file.
 428:./Libraries/STM32H7xx_HAL_Driver/Src/stm32h7xx_hal.c ****   * @retval None
 429:./Libraries/STM32H7xx_HAL_Driver/Src/stm32h7xx_hal.c ****   */
 430:./Libraries/STM32H7xx_HAL_Driver/Src/stm32h7xx_hal.c **** __weak void HAL_SuspendTick(void)
 431:./Libraries/STM32H7xx_HAL_Driver/Src/stm32h7xx_hal.c **** {
 763              		.loc 1 431 1
 764              		.cfi_startproc
 765              		@ args = 0, pretend = 0, frame = 0
 766              		@ frame_needed = 1, uses_anonymous_args = 0
 767              		@ link register save eliminated.
 768 0000 80B4     		push	{r7}
 769              	.LCFI46:
 770              		.cfi_def_cfa_offset 4
 771              		.cfi_offset 7, -4
 772 0002 00AF     		add	r7, sp, #0
 773              	.LCFI47:
 774              		.cfi_def_cfa_register 7
 432:./Libraries/STM32H7xx_HAL_Driver/Src/stm32h7xx_hal.c ****   /* Disable SysTick Interrupt */
 433:./Libraries/STM32H7xx_HAL_Driver/Src/stm32h7xx_hal.c ****   SysTick->CTRL &= ~SysTick_CTRL_TICKINT_Msk;
 775              		.loc 1 433 17
 776 0004 054B     		ldr	r3, .L47
 777 0006 1B68     		ldr	r3, [r3]
 778 0008 044A     		ldr	r2, .L47
 779 000a 23F00203 		bic	r3, r3, #2
 780 000e 1360     		str	r3, [r2]
 434:./Libraries/STM32H7xx_HAL_Driver/Src/stm32h7xx_hal.c **** }
 781              		.loc 1 434 1
 782 0010 00BF     		nop
 783 0012 BD46     		mov	sp, r7
 784              	.LCFI48:
 785              		.cfi_def_cfa_register 13
 786              		@ sp needed
 787 0014 5DF8047B 		ldr	r7, [sp], #4
 788              	.LCFI49:
 789              		.cfi_restore 7
ARM GAS  /tmp/cclvVaTN.s 			page 22


 790              		.cfi_def_cfa_offset 0
 791 0018 7047     		bx	lr
 792              	.L48:
 793 001a 00BF     		.align	2
 794              	.L47:
 795 001c 10E000E0 		.word	-536813552
 796              		.cfi_endproc
 797              	.LFE342:
 799              		.section	.text.HAL_ResumeTick,"ax",%progbits
 800              		.align	1
 801              		.weak	HAL_ResumeTick
 802              		.syntax unified
 803              		.thumb
 804              		.thumb_func
 805              		.fpu fpv5-d16
 807              	HAL_ResumeTick:
 808              	.LFB343:
 435:./Libraries/STM32H7xx_HAL_Driver/Src/stm32h7xx_hal.c **** 
 436:./Libraries/STM32H7xx_HAL_Driver/Src/stm32h7xx_hal.c **** /**
 437:./Libraries/STM32H7xx_HAL_Driver/Src/stm32h7xx_hal.c ****   * @brief Resume Tick increment.
 438:./Libraries/STM32H7xx_HAL_Driver/Src/stm32h7xx_hal.c ****   * @note In the default implementation , SysTick timer is the source of time base. It is
 439:./Libraries/STM32H7xx_HAL_Driver/Src/stm32h7xx_hal.c ****   *       used to generate interrupts at regular time intervals. Once HAL_ResumeTick()
 440:./Libraries/STM32H7xx_HAL_Driver/Src/stm32h7xx_hal.c ****   *       is called, the the SysTick interrupt will be enabled and so Tick increment
 441:./Libraries/STM32H7xx_HAL_Driver/Src/stm32h7xx_hal.c ****   *       is resumed.
 442:./Libraries/STM32H7xx_HAL_Driver/Src/stm32h7xx_hal.c ****   * @note This function is declared as __weak to be overwritten in case of other
 443:./Libraries/STM32H7xx_HAL_Driver/Src/stm32h7xx_hal.c ****   *       implementations in user file.
 444:./Libraries/STM32H7xx_HAL_Driver/Src/stm32h7xx_hal.c ****   * @retval None
 445:./Libraries/STM32H7xx_HAL_Driver/Src/stm32h7xx_hal.c ****   */
 446:./Libraries/STM32H7xx_HAL_Driver/Src/stm32h7xx_hal.c **** __weak void HAL_ResumeTick(void)
 447:./Libraries/STM32H7xx_HAL_Driver/Src/stm32h7xx_hal.c **** {
 809              		.loc 1 447 1
 810              		.cfi_startproc
 811              		@ args = 0, pretend = 0, frame = 0
 812              		@ frame_needed = 1, uses_anonymous_args = 0
 813              		@ link register save eliminated.
 814 0000 80B4     		push	{r7}
 815              	.LCFI50:
 816              		.cfi_def_cfa_offset 4
 817              		.cfi_offset 7, -4
 818 0002 00AF     		add	r7, sp, #0
 819              	.LCFI51:
 820              		.cfi_def_cfa_register 7
 448:./Libraries/STM32H7xx_HAL_Driver/Src/stm32h7xx_hal.c ****   /* Enable SysTick Interrupt */
 449:./Libraries/STM32H7xx_HAL_Driver/Src/stm32h7xx_hal.c ****   SysTick->CTRL  |= SysTick_CTRL_TICKINT_Msk;
 821              		.loc 1 449 18
 822 0004 054B     		ldr	r3, .L50
 823 0006 1B68     		ldr	r3, [r3]
 824 0008 044A     		ldr	r2, .L50
 825 000a 43F00203 		orr	r3, r3, #2
 826 000e 1360     		str	r3, [r2]
 450:./Libraries/STM32H7xx_HAL_Driver/Src/stm32h7xx_hal.c **** }
 827              		.loc 1 450 1
 828 0010 00BF     		nop
 829 0012 BD46     		mov	sp, r7
 830              	.LCFI52:
 831              		.cfi_def_cfa_register 13
 832              		@ sp needed
ARM GAS  /tmp/cclvVaTN.s 			page 23


 833 0014 5DF8047B 		ldr	r7, [sp], #4
 834              	.LCFI53:
 835              		.cfi_restore 7
 836              		.cfi_def_cfa_offset 0
 837 0018 7047     		bx	lr
 838              	.L51:
 839 001a 00BF     		.align	2
 840              	.L50:
 841 001c 10E000E0 		.word	-536813552
 842              		.cfi_endproc
 843              	.LFE343:
 845              		.section	.text.HAL_GetHalVersion,"ax",%progbits
 846              		.align	1
 847              		.global	HAL_GetHalVersion
 848              		.syntax unified
 849              		.thumb
 850              		.thumb_func
 851              		.fpu fpv5-d16
 853              	HAL_GetHalVersion:
 854              	.LFB344:
 451:./Libraries/STM32H7xx_HAL_Driver/Src/stm32h7xx_hal.c **** 
 452:./Libraries/STM32H7xx_HAL_Driver/Src/stm32h7xx_hal.c **** /**
 453:./Libraries/STM32H7xx_HAL_Driver/Src/stm32h7xx_hal.c ****   * @brief  Returns the HAL revision
 454:./Libraries/STM32H7xx_HAL_Driver/Src/stm32h7xx_hal.c ****   * @retval version : 0xXYZR (8bits for each decimal, R for RC)
 455:./Libraries/STM32H7xx_HAL_Driver/Src/stm32h7xx_hal.c ****   */
 456:./Libraries/STM32H7xx_HAL_Driver/Src/stm32h7xx_hal.c **** uint32_t HAL_GetHalVersion(void)
 457:./Libraries/STM32H7xx_HAL_Driver/Src/stm32h7xx_hal.c **** {
 855              		.loc 1 457 1
 856              		.cfi_startproc
 857              		@ args = 0, pretend = 0, frame = 0
 858              		@ frame_needed = 1, uses_anonymous_args = 0
 859              		@ link register save eliminated.
 860 0000 80B4     		push	{r7}
 861              	.LCFI54:
 862              		.cfi_def_cfa_offset 4
 863              		.cfi_offset 7, -4
 864 0002 00AF     		add	r7, sp, #0
 865              	.LCFI55:
 866              		.cfi_def_cfa_register 7
 458:./Libraries/STM32H7xx_HAL_Driver/Src/stm32h7xx_hal.c ****  return __STM32H7xx_HAL_VERSION;
 867              		.loc 1 458 9
 868 0004 4FF08573 		mov	r3, #17432576
 459:./Libraries/STM32H7xx_HAL_Driver/Src/stm32h7xx_hal.c **** }
 869              		.loc 1 459 1
 870 0008 1846     		mov	r0, r3
 871 000a BD46     		mov	sp, r7
 872              	.LCFI56:
 873              		.cfi_def_cfa_register 13
 874              		@ sp needed
 875 000c 5DF8047B 		ldr	r7, [sp], #4
 876              	.LCFI57:
 877              		.cfi_restore 7
 878              		.cfi_def_cfa_offset 0
 879 0010 7047     		bx	lr
 880              		.cfi_endproc
 881              	.LFE344:
 883              		.section	.text.HAL_GetREVID,"ax",%progbits
ARM GAS  /tmp/cclvVaTN.s 			page 24


 884              		.align	1
 885              		.global	HAL_GetREVID
 886              		.syntax unified
 887              		.thumb
 888              		.thumb_func
 889              		.fpu fpv5-d16
 891              	HAL_GetREVID:
 892              	.LFB345:
 460:./Libraries/STM32H7xx_HAL_Driver/Src/stm32h7xx_hal.c **** 
 461:./Libraries/STM32H7xx_HAL_Driver/Src/stm32h7xx_hal.c **** /**
 462:./Libraries/STM32H7xx_HAL_Driver/Src/stm32h7xx_hal.c ****   * @brief  Returns the device revision identifier.
 463:./Libraries/STM32H7xx_HAL_Driver/Src/stm32h7xx_hal.c ****   * @retval Device revision identifier
 464:./Libraries/STM32H7xx_HAL_Driver/Src/stm32h7xx_hal.c ****   */
 465:./Libraries/STM32H7xx_HAL_Driver/Src/stm32h7xx_hal.c **** uint32_t HAL_GetREVID(void)
 466:./Libraries/STM32H7xx_HAL_Driver/Src/stm32h7xx_hal.c **** {
 893              		.loc 1 466 1
 894              		.cfi_startproc
 895              		@ args = 0, pretend = 0, frame = 0
 896              		@ frame_needed = 1, uses_anonymous_args = 0
 897              		@ link register save eliminated.
 898 0000 80B4     		push	{r7}
 899              	.LCFI58:
 900              		.cfi_def_cfa_offset 4
 901              		.cfi_offset 7, -4
 902 0002 00AF     		add	r7, sp, #0
 903              	.LCFI59:
 904              		.cfi_def_cfa_register 7
 467:./Libraries/STM32H7xx_HAL_Driver/Src/stm32h7xx_hal.c ****    return((DBGMCU->IDCODE) >> 16);
 905              		.loc 1 467 18
 906 0004 034B     		ldr	r3, .L56
 907 0006 1B68     		ldr	r3, [r3]
 908              		.loc 1 467 28
 909 0008 1B0C     		lsrs	r3, r3, #16
 468:./Libraries/STM32H7xx_HAL_Driver/Src/stm32h7xx_hal.c **** }
 910              		.loc 1 468 1
 911 000a 1846     		mov	r0, r3
 912 000c BD46     		mov	sp, r7
 913              	.LCFI60:
 914              		.cfi_def_cfa_register 13
 915              		@ sp needed
 916 000e 5DF8047B 		ldr	r7, [sp], #4
 917              	.LCFI61:
 918              		.cfi_restore 7
 919              		.cfi_def_cfa_offset 0
 920 0012 7047     		bx	lr
 921              	.L57:
 922              		.align	2
 923              	.L56:
 924 0014 0010005C 		.word	1543507968
 925              		.cfi_endproc
 926              	.LFE345:
 928              		.section	.text.HAL_GetDEVID,"ax",%progbits
 929              		.align	1
 930              		.global	HAL_GetDEVID
 931              		.syntax unified
 932              		.thumb
 933              		.thumb_func
ARM GAS  /tmp/cclvVaTN.s 			page 25


 934              		.fpu fpv5-d16
 936              	HAL_GetDEVID:
 937              	.LFB346:
 469:./Libraries/STM32H7xx_HAL_Driver/Src/stm32h7xx_hal.c **** 
 470:./Libraries/STM32H7xx_HAL_Driver/Src/stm32h7xx_hal.c **** /**
 471:./Libraries/STM32H7xx_HAL_Driver/Src/stm32h7xx_hal.c ****   * @brief  Returns the device identifier.
 472:./Libraries/STM32H7xx_HAL_Driver/Src/stm32h7xx_hal.c ****   * @retval Device identifier
 473:./Libraries/STM32H7xx_HAL_Driver/Src/stm32h7xx_hal.c ****   */
 474:./Libraries/STM32H7xx_HAL_Driver/Src/stm32h7xx_hal.c **** uint32_t HAL_GetDEVID(void)
 475:./Libraries/STM32H7xx_HAL_Driver/Src/stm32h7xx_hal.c **** {
 938              		.loc 1 475 1
 939              		.cfi_startproc
 940              		@ args = 0, pretend = 0, frame = 0
 941              		@ frame_needed = 1, uses_anonymous_args = 0
 942              		@ link register save eliminated.
 943 0000 80B4     		push	{r7}
 944              	.LCFI62:
 945              		.cfi_def_cfa_offset 4
 946              		.cfi_offset 7, -4
 947 0002 00AF     		add	r7, sp, #0
 948              	.LCFI63:
 949              		.cfi_def_cfa_register 7
 476:./Libraries/STM32H7xx_HAL_Driver/Src/stm32h7xx_hal.c ****    return((DBGMCU->IDCODE) & IDCODE_DEVID_MASK);
 950              		.loc 1 476 18
 951 0004 044B     		ldr	r3, .L60
 952 0006 1B68     		ldr	r3, [r3]
 953              		.loc 1 476 28
 954 0008 C3F30B03 		ubfx	r3, r3, #0, #12
 477:./Libraries/STM32H7xx_HAL_Driver/Src/stm32h7xx_hal.c **** }
 955              		.loc 1 477 1
 956 000c 1846     		mov	r0, r3
 957 000e BD46     		mov	sp, r7
 958              	.LCFI64:
 959              		.cfi_def_cfa_register 13
 960              		@ sp needed
 961 0010 5DF8047B 		ldr	r7, [sp], #4
 962              	.LCFI65:
 963              		.cfi_restore 7
 964              		.cfi_def_cfa_offset 0
 965 0014 7047     		bx	lr
 966              	.L61:
 967 0016 00BF     		.align	2
 968              	.L60:
 969 0018 0010005C 		.word	1543507968
 970              		.cfi_endproc
 971              	.LFE346:
 973              		.section	.text.HAL_GetUIDw0,"ax",%progbits
 974              		.align	1
 975              		.global	HAL_GetUIDw0
 976              		.syntax unified
 977              		.thumb
 978              		.thumb_func
 979              		.fpu fpv5-d16
 981              	HAL_GetUIDw0:
 982              	.LFB347:
 478:./Libraries/STM32H7xx_HAL_Driver/Src/stm32h7xx_hal.c **** 
 479:./Libraries/STM32H7xx_HAL_Driver/Src/stm32h7xx_hal.c **** /**
ARM GAS  /tmp/cclvVaTN.s 			page 26


 480:./Libraries/STM32H7xx_HAL_Driver/Src/stm32h7xx_hal.c ****   * @brief  Return the first word of the unique device identifier (UID based on 96 bits)
 481:./Libraries/STM32H7xx_HAL_Driver/Src/stm32h7xx_hal.c ****   * @retval Device identifier
 482:./Libraries/STM32H7xx_HAL_Driver/Src/stm32h7xx_hal.c ****   */
 483:./Libraries/STM32H7xx_HAL_Driver/Src/stm32h7xx_hal.c **** uint32_t HAL_GetUIDw0(void)
 484:./Libraries/STM32H7xx_HAL_Driver/Src/stm32h7xx_hal.c **** {
 983              		.loc 1 484 1
 984              		.cfi_startproc
 985              		@ args = 0, pretend = 0, frame = 0
 986              		@ frame_needed = 1, uses_anonymous_args = 0
 987              		@ link register save eliminated.
 988 0000 80B4     		push	{r7}
 989              	.LCFI66:
 990              		.cfi_def_cfa_offset 4
 991              		.cfi_offset 7, -4
 992 0002 00AF     		add	r7, sp, #0
 993              	.LCFI67:
 994              		.cfi_def_cfa_register 7
 485:./Libraries/STM32H7xx_HAL_Driver/Src/stm32h7xx_hal.c ****   return(READ_REG(*((uint32_t *)UID_BASE)));
 995              		.loc 1 485 10
 996 0004 034B     		ldr	r3, .L64
 997 0006 1B68     		ldr	r3, [r3]
 486:./Libraries/STM32H7xx_HAL_Driver/Src/stm32h7xx_hal.c **** }
 998              		.loc 1 486 1
 999 0008 1846     		mov	r0, r3
 1000 000a BD46     		mov	sp, r7
 1001              	.LCFI68:
 1002              		.cfi_def_cfa_register 13
 1003              		@ sp needed
 1004 000c 5DF8047B 		ldr	r7, [sp], #4
 1005              	.LCFI69:
 1006              		.cfi_restore 7
 1007              		.cfi_def_cfa_offset 0
 1008 0010 7047     		bx	lr
 1009              	.L65:
 1010 0012 00BF     		.align	2
 1011              	.L64:
 1012 0014 00E8F11F 		.word	535947264
 1013              		.cfi_endproc
 1014              	.LFE347:
 1016              		.section	.text.HAL_GetUIDw1,"ax",%progbits
 1017              		.align	1
 1018              		.global	HAL_GetUIDw1
 1019              		.syntax unified
 1020              		.thumb
 1021              		.thumb_func
 1022              		.fpu fpv5-d16
 1024              	HAL_GetUIDw1:
 1025              	.LFB348:
 487:./Libraries/STM32H7xx_HAL_Driver/Src/stm32h7xx_hal.c **** 
 488:./Libraries/STM32H7xx_HAL_Driver/Src/stm32h7xx_hal.c **** /**
 489:./Libraries/STM32H7xx_HAL_Driver/Src/stm32h7xx_hal.c ****   * @brief  Return the second word of the unique device identifier (UID based on 96 bits)
 490:./Libraries/STM32H7xx_HAL_Driver/Src/stm32h7xx_hal.c ****   * @retval Device identifier
 491:./Libraries/STM32H7xx_HAL_Driver/Src/stm32h7xx_hal.c ****   */
 492:./Libraries/STM32H7xx_HAL_Driver/Src/stm32h7xx_hal.c **** uint32_t HAL_GetUIDw1(void)
 493:./Libraries/STM32H7xx_HAL_Driver/Src/stm32h7xx_hal.c **** {
 1026              		.loc 1 493 1
 1027              		.cfi_startproc
ARM GAS  /tmp/cclvVaTN.s 			page 27


 1028              		@ args = 0, pretend = 0, frame = 0
 1029              		@ frame_needed = 1, uses_anonymous_args = 0
 1030              		@ link register save eliminated.
 1031 0000 80B4     		push	{r7}
 1032              	.LCFI70:
 1033              		.cfi_def_cfa_offset 4
 1034              		.cfi_offset 7, -4
 1035 0002 00AF     		add	r7, sp, #0
 1036              	.LCFI71:
 1037              		.cfi_def_cfa_register 7
 494:./Libraries/STM32H7xx_HAL_Driver/Src/stm32h7xx_hal.c ****   return(READ_REG(*((uint32_t *)(UID_BASE + 4U))));
 1038              		.loc 1 494 10
 1039 0004 034B     		ldr	r3, .L68
 1040 0006 1B68     		ldr	r3, [r3]
 495:./Libraries/STM32H7xx_HAL_Driver/Src/stm32h7xx_hal.c **** }
 1041              		.loc 1 495 1
 1042 0008 1846     		mov	r0, r3
 1043 000a BD46     		mov	sp, r7
 1044              	.LCFI72:
 1045              		.cfi_def_cfa_register 13
 1046              		@ sp needed
 1047 000c 5DF8047B 		ldr	r7, [sp], #4
 1048              	.LCFI73:
 1049              		.cfi_restore 7
 1050              		.cfi_def_cfa_offset 0
 1051 0010 7047     		bx	lr
 1052              	.L69:
 1053 0012 00BF     		.align	2
 1054              	.L68:
 1055 0014 04E8F11F 		.word	535947268
 1056              		.cfi_endproc
 1057              	.LFE348:
 1059              		.section	.text.HAL_GetUIDw2,"ax",%progbits
 1060              		.align	1
 1061              		.global	HAL_GetUIDw2
 1062              		.syntax unified
 1063              		.thumb
 1064              		.thumb_func
 1065              		.fpu fpv5-d16
 1067              	HAL_GetUIDw2:
 1068              	.LFB349:
 496:./Libraries/STM32H7xx_HAL_Driver/Src/stm32h7xx_hal.c **** 
 497:./Libraries/STM32H7xx_HAL_Driver/Src/stm32h7xx_hal.c **** /**
 498:./Libraries/STM32H7xx_HAL_Driver/Src/stm32h7xx_hal.c ****   * @brief  Return the third word of the unique device identifier (UID based on 96 bits)
 499:./Libraries/STM32H7xx_HAL_Driver/Src/stm32h7xx_hal.c ****   * @retval Device identifier
 500:./Libraries/STM32H7xx_HAL_Driver/Src/stm32h7xx_hal.c ****   */
 501:./Libraries/STM32H7xx_HAL_Driver/Src/stm32h7xx_hal.c **** uint32_t HAL_GetUIDw2(void)
 502:./Libraries/STM32H7xx_HAL_Driver/Src/stm32h7xx_hal.c **** {
 1069              		.loc 1 502 1
 1070              		.cfi_startproc
 1071              		@ args = 0, pretend = 0, frame = 0
 1072              		@ frame_needed = 1, uses_anonymous_args = 0
 1073              		@ link register save eliminated.
 1074 0000 80B4     		push	{r7}
 1075              	.LCFI74:
 1076              		.cfi_def_cfa_offset 4
 1077              		.cfi_offset 7, -4
ARM GAS  /tmp/cclvVaTN.s 			page 28


 1078 0002 00AF     		add	r7, sp, #0
 1079              	.LCFI75:
 1080              		.cfi_def_cfa_register 7
 503:./Libraries/STM32H7xx_HAL_Driver/Src/stm32h7xx_hal.c ****   return(READ_REG(*((uint32_t *)(UID_BASE + 8U))));
 1081              		.loc 1 503 10
 1082 0004 034B     		ldr	r3, .L72
 1083 0006 1B68     		ldr	r3, [r3]
 504:./Libraries/STM32H7xx_HAL_Driver/Src/stm32h7xx_hal.c **** }
 1084              		.loc 1 504 1
 1085 0008 1846     		mov	r0, r3
 1086 000a BD46     		mov	sp, r7
 1087              	.LCFI76:
 1088              		.cfi_def_cfa_register 13
 1089              		@ sp needed
 1090 000c 5DF8047B 		ldr	r7, [sp], #4
 1091              	.LCFI77:
 1092              		.cfi_restore 7
 1093              		.cfi_def_cfa_offset 0
 1094 0010 7047     		bx	lr
 1095              	.L73:
 1096 0012 00BF     		.align	2
 1097              	.L72:
 1098 0014 08E8F11F 		.word	535947272
 1099              		.cfi_endproc
 1100              	.LFE349:
 1102              		.section	.text.HAL_SYSCFG_VREFBUF_VoltageScalingConfig,"ax",%progbits
 1103              		.align	1
 1104              		.global	HAL_SYSCFG_VREFBUF_VoltageScalingConfig
 1105              		.syntax unified
 1106              		.thumb
 1107              		.thumb_func
 1108              		.fpu fpv5-d16
 1110              	HAL_SYSCFG_VREFBUF_VoltageScalingConfig:
 1111              	.LFB350:
 505:./Libraries/STM32H7xx_HAL_Driver/Src/stm32h7xx_hal.c **** 
 506:./Libraries/STM32H7xx_HAL_Driver/Src/stm32h7xx_hal.c **** /**
 507:./Libraries/STM32H7xx_HAL_Driver/Src/stm32h7xx_hal.c ****   * @brief Configure the internal voltage reference buffer voltage scale.
 508:./Libraries/STM32H7xx_HAL_Driver/Src/stm32h7xx_hal.c ****   * @param VoltageScaling  specifies the output voltage to achieve
 509:./Libraries/STM32H7xx_HAL_Driver/Src/stm32h7xx_hal.c ****   *          This parameter can be one of the following values:
 510:./Libraries/STM32H7xx_HAL_Driver/Src/stm32h7xx_hal.c ****   *            @arg SYSCFG_VREFBUF_VOLTAGE_SCALE0: VREF_OUT1 around 2.5 V.
 511:./Libraries/STM32H7xx_HAL_Driver/Src/stm32h7xx_hal.c ****   *                                                This requires VDDA equal to or higher than 2.8 V
 512:./Libraries/STM32H7xx_HAL_Driver/Src/stm32h7xx_hal.c ****   *            @arg SYSCFG_VREFBUF_VOLTAGE_SCALE1: VREF_OUT2 around 2.048 V.
 513:./Libraries/STM32H7xx_HAL_Driver/Src/stm32h7xx_hal.c ****   *                                                This requires VDDA equal to or higher than 2.4 V
 514:./Libraries/STM32H7xx_HAL_Driver/Src/stm32h7xx_hal.c ****   *            @arg SYSCFG_VREFBUF_VOLTAGE_SCALE2: VREF_OUT3 around 1.8 V.
 515:./Libraries/STM32H7xx_HAL_Driver/Src/stm32h7xx_hal.c ****   *                                                This requires VDDA equal to or higher than 2.1 V
 516:./Libraries/STM32H7xx_HAL_Driver/Src/stm32h7xx_hal.c ****   *            @arg SYSCFG_VREFBUF_VOLTAGE_SCALE3: VREF_OUT4 around 1.5 V.
 517:./Libraries/STM32H7xx_HAL_Driver/Src/stm32h7xx_hal.c ****   *                                                This requires VDDA equal to or higher than 1.8 V
 518:./Libraries/STM32H7xx_HAL_Driver/Src/stm32h7xx_hal.c ****   * @retval None
 519:./Libraries/STM32H7xx_HAL_Driver/Src/stm32h7xx_hal.c ****   */
 520:./Libraries/STM32H7xx_HAL_Driver/Src/stm32h7xx_hal.c **** void HAL_SYSCFG_VREFBUF_VoltageScalingConfig(uint32_t VoltageScaling)
 521:./Libraries/STM32H7xx_HAL_Driver/Src/stm32h7xx_hal.c **** {
 1112              		.loc 1 521 1
 1113              		.cfi_startproc
 1114              		@ args = 0, pretend = 0, frame = 8
 1115              		@ frame_needed = 1, uses_anonymous_args = 0
 1116              		@ link register save eliminated.
 1117 0000 80B4     		push	{r7}
ARM GAS  /tmp/cclvVaTN.s 			page 29


 1118              	.LCFI78:
 1119              		.cfi_def_cfa_offset 4
 1120              		.cfi_offset 7, -4
 1121 0002 83B0     		sub	sp, sp, #12
 1122              	.LCFI79:
 1123              		.cfi_def_cfa_offset 16
 1124 0004 00AF     		add	r7, sp, #0
 1125              	.LCFI80:
 1126              		.cfi_def_cfa_register 7
 1127 0006 7860     		str	r0, [r7, #4]
 522:./Libraries/STM32H7xx_HAL_Driver/Src/stm32h7xx_hal.c ****   /* Check the parameters */
 523:./Libraries/STM32H7xx_HAL_Driver/Src/stm32h7xx_hal.c ****   assert_param(IS_SYSCFG_VREFBUF_VOLTAGE_SCALE(VoltageScaling));
 524:./Libraries/STM32H7xx_HAL_Driver/Src/stm32h7xx_hal.c **** 
 525:./Libraries/STM32H7xx_HAL_Driver/Src/stm32h7xx_hal.c ****   MODIFY_REG(VREFBUF->CSR, VREFBUF_CSR_VRS, VoltageScaling);
 1128              		.loc 1 525 3
 1129 0008 064B     		ldr	r3, .L75
 1130 000a 1B68     		ldr	r3, [r3]
 1131 000c 23F07002 		bic	r2, r3, #112
 1132 0010 0449     		ldr	r1, .L75
 1133 0012 7B68     		ldr	r3, [r7, #4]
 1134 0014 1343     		orrs	r3, r3, r2
 1135 0016 0B60     		str	r3, [r1]
 526:./Libraries/STM32H7xx_HAL_Driver/Src/stm32h7xx_hal.c **** }
 1136              		.loc 1 526 1
 1137 0018 00BF     		nop
 1138 001a 0C37     		adds	r7, r7, #12
 1139              	.LCFI81:
 1140              		.cfi_def_cfa_offset 4
 1141 001c BD46     		mov	sp, r7
 1142              	.LCFI82:
 1143              		.cfi_def_cfa_register 13
 1144              		@ sp needed
 1145 001e 5DF8047B 		ldr	r7, [sp], #4
 1146              	.LCFI83:
 1147              		.cfi_restore 7
 1148              		.cfi_def_cfa_offset 0
 1149 0022 7047     		bx	lr
 1150              	.L76:
 1151              		.align	2
 1152              	.L75:
 1153 0024 003C0058 		.word	1476410368
 1154              		.cfi_endproc
 1155              	.LFE350:
 1157              		.section	.text.HAL_SYSCFG_VREFBUF_HighImpedanceConfig,"ax",%progbits
 1158              		.align	1
 1159              		.global	HAL_SYSCFG_VREFBUF_HighImpedanceConfig
 1160              		.syntax unified
 1161              		.thumb
 1162              		.thumb_func
 1163              		.fpu fpv5-d16
 1165              	HAL_SYSCFG_VREFBUF_HighImpedanceConfig:
 1166              	.LFB351:
 527:./Libraries/STM32H7xx_HAL_Driver/Src/stm32h7xx_hal.c **** 
 528:./Libraries/STM32H7xx_HAL_Driver/Src/stm32h7xx_hal.c **** /**
 529:./Libraries/STM32H7xx_HAL_Driver/Src/stm32h7xx_hal.c ****   * @brief Configure the internal voltage reference buffer high impedance mode.
 530:./Libraries/STM32H7xx_HAL_Driver/Src/stm32h7xx_hal.c ****   * @param Mode  specifies the high impedance mode
 531:./Libraries/STM32H7xx_HAL_Driver/Src/stm32h7xx_hal.c ****   *          This parameter can be one of the following values:
ARM GAS  /tmp/cclvVaTN.s 			page 30


 532:./Libraries/STM32H7xx_HAL_Driver/Src/stm32h7xx_hal.c ****   *            @arg SYSCFG_VREFBUF_HIGH_IMPEDANCE_DISABLE: VREF+ pin is internally connect to VREFI
 533:./Libraries/STM32H7xx_HAL_Driver/Src/stm32h7xx_hal.c ****   *            @arg SYSCFG_VREFBUF_HIGH_IMPEDANCE_ENABLE: VREF+ pin is high impedance.
 534:./Libraries/STM32H7xx_HAL_Driver/Src/stm32h7xx_hal.c ****   * @retval None
 535:./Libraries/STM32H7xx_HAL_Driver/Src/stm32h7xx_hal.c ****   */
 536:./Libraries/STM32H7xx_HAL_Driver/Src/stm32h7xx_hal.c **** void HAL_SYSCFG_VREFBUF_HighImpedanceConfig(uint32_t Mode)
 537:./Libraries/STM32H7xx_HAL_Driver/Src/stm32h7xx_hal.c **** {
 1167              		.loc 1 537 1
 1168              		.cfi_startproc
 1169              		@ args = 0, pretend = 0, frame = 8
 1170              		@ frame_needed = 1, uses_anonymous_args = 0
 1171              		@ link register save eliminated.
 1172 0000 80B4     		push	{r7}
 1173              	.LCFI84:
 1174              		.cfi_def_cfa_offset 4
 1175              		.cfi_offset 7, -4
 1176 0002 83B0     		sub	sp, sp, #12
 1177              	.LCFI85:
 1178              		.cfi_def_cfa_offset 16
 1179 0004 00AF     		add	r7, sp, #0
 1180              	.LCFI86:
 1181              		.cfi_def_cfa_register 7
 1182 0006 7860     		str	r0, [r7, #4]
 538:./Libraries/STM32H7xx_HAL_Driver/Src/stm32h7xx_hal.c ****   /* Check the parameters */
 539:./Libraries/STM32H7xx_HAL_Driver/Src/stm32h7xx_hal.c ****   assert_param(IS_SYSCFG_VREFBUF_HIGH_IMPEDANCE(Mode));
 540:./Libraries/STM32H7xx_HAL_Driver/Src/stm32h7xx_hal.c **** 
 541:./Libraries/STM32H7xx_HAL_Driver/Src/stm32h7xx_hal.c ****   MODIFY_REG(VREFBUF->CSR, VREFBUF_CSR_HIZ, Mode);
 1183              		.loc 1 541 3
 1184 0008 064B     		ldr	r3, .L78
 1185 000a 1B68     		ldr	r3, [r3]
 1186 000c 23F00202 		bic	r2, r3, #2
 1187 0010 0449     		ldr	r1, .L78
 1188 0012 7B68     		ldr	r3, [r7, #4]
 1189 0014 1343     		orrs	r3, r3, r2
 1190 0016 0B60     		str	r3, [r1]
 542:./Libraries/STM32H7xx_HAL_Driver/Src/stm32h7xx_hal.c **** }
 1191              		.loc 1 542 1
 1192 0018 00BF     		nop
 1193 001a 0C37     		adds	r7, r7, #12
 1194              	.LCFI87:
 1195              		.cfi_def_cfa_offset 4
 1196 001c BD46     		mov	sp, r7
 1197              	.LCFI88:
 1198              		.cfi_def_cfa_register 13
 1199              		@ sp needed
 1200 001e 5DF8047B 		ldr	r7, [sp], #4
 1201              	.LCFI89:
 1202              		.cfi_restore 7
 1203              		.cfi_def_cfa_offset 0
 1204 0022 7047     		bx	lr
 1205              	.L79:
 1206              		.align	2
 1207              	.L78:
 1208 0024 003C0058 		.word	1476410368
 1209              		.cfi_endproc
 1210              	.LFE351:
 1212              		.section	.text.HAL_SYSCFG_VREFBUF_TrimmingConfig,"ax",%progbits
 1213              		.align	1
ARM GAS  /tmp/cclvVaTN.s 			page 31


 1214              		.global	HAL_SYSCFG_VREFBUF_TrimmingConfig
 1215              		.syntax unified
 1216              		.thumb
 1217              		.thumb_func
 1218              		.fpu fpv5-d16
 1220              	HAL_SYSCFG_VREFBUF_TrimmingConfig:
 1221              	.LFB352:
 543:./Libraries/STM32H7xx_HAL_Driver/Src/stm32h7xx_hal.c **** 
 544:./Libraries/STM32H7xx_HAL_Driver/Src/stm32h7xx_hal.c **** /**
 545:./Libraries/STM32H7xx_HAL_Driver/Src/stm32h7xx_hal.c ****   * @brief  Tune the Internal Voltage Reference buffer (VREFBUF).
 546:./Libraries/STM32H7xx_HAL_Driver/Src/stm32h7xx_hal.c ****   * @retval None
 547:./Libraries/STM32H7xx_HAL_Driver/Src/stm32h7xx_hal.c ****   */
 548:./Libraries/STM32H7xx_HAL_Driver/Src/stm32h7xx_hal.c **** void HAL_SYSCFG_VREFBUF_TrimmingConfig(uint32_t TrimmingValue)
 549:./Libraries/STM32H7xx_HAL_Driver/Src/stm32h7xx_hal.c **** {
 1222              		.loc 1 549 1
 1223              		.cfi_startproc
 1224              		@ args = 0, pretend = 0, frame = 8
 1225              		@ frame_needed = 1, uses_anonymous_args = 0
 1226              		@ link register save eliminated.
 1227 0000 80B4     		push	{r7}
 1228              	.LCFI90:
 1229              		.cfi_def_cfa_offset 4
 1230              		.cfi_offset 7, -4
 1231 0002 83B0     		sub	sp, sp, #12
 1232              	.LCFI91:
 1233              		.cfi_def_cfa_offset 16
 1234 0004 00AF     		add	r7, sp, #0
 1235              	.LCFI92:
 1236              		.cfi_def_cfa_register 7
 1237 0006 7860     		str	r0, [r7, #4]
 550:./Libraries/STM32H7xx_HAL_Driver/Src/stm32h7xx_hal.c ****   /* Check the parameters */
 551:./Libraries/STM32H7xx_HAL_Driver/Src/stm32h7xx_hal.c ****   assert_param(IS_SYSCFG_VREFBUF_TRIMMING(TrimmingValue));
 552:./Libraries/STM32H7xx_HAL_Driver/Src/stm32h7xx_hal.c **** 
 553:./Libraries/STM32H7xx_HAL_Driver/Src/stm32h7xx_hal.c ****   MODIFY_REG(VREFBUF->CCR, VREFBUF_CCR_TRIM, TrimmingValue);
 1238              		.loc 1 553 3
 1239 0008 064B     		ldr	r3, .L81
 1240 000a 5B68     		ldr	r3, [r3, #4]
 1241 000c 23F03F02 		bic	r2, r3, #63
 1242 0010 0449     		ldr	r1, .L81
 1243 0012 7B68     		ldr	r3, [r7, #4]
 1244 0014 1343     		orrs	r3, r3, r2
 1245 0016 4B60     		str	r3, [r1, #4]
 554:./Libraries/STM32H7xx_HAL_Driver/Src/stm32h7xx_hal.c **** }
 1246              		.loc 1 554 1
 1247 0018 00BF     		nop
 1248 001a 0C37     		adds	r7, r7, #12
 1249              	.LCFI93:
 1250              		.cfi_def_cfa_offset 4
 1251 001c BD46     		mov	sp, r7
 1252              	.LCFI94:
 1253              		.cfi_def_cfa_register 13
 1254              		@ sp needed
 1255 001e 5DF8047B 		ldr	r7, [sp], #4
 1256              	.LCFI95:
 1257              		.cfi_restore 7
 1258              		.cfi_def_cfa_offset 0
 1259 0022 7047     		bx	lr
ARM GAS  /tmp/cclvVaTN.s 			page 32


 1260              	.L82:
 1261              		.align	2
 1262              	.L81:
 1263 0024 003C0058 		.word	1476410368
 1264              		.cfi_endproc
 1265              	.LFE352:
 1267              		.section	.text.HAL_SYSCFG_EnableVREFBUF,"ax",%progbits
 1268              		.align	1
 1269              		.global	HAL_SYSCFG_EnableVREFBUF
 1270              		.syntax unified
 1271              		.thumb
 1272              		.thumb_func
 1273              		.fpu fpv5-d16
 1275              	HAL_SYSCFG_EnableVREFBUF:
 1276              	.LFB353:
 555:./Libraries/STM32H7xx_HAL_Driver/Src/stm32h7xx_hal.c **** 
 556:./Libraries/STM32H7xx_HAL_Driver/Src/stm32h7xx_hal.c **** /**
 557:./Libraries/STM32H7xx_HAL_Driver/Src/stm32h7xx_hal.c ****   * @brief  Enable the Internal Voltage Reference buffer (VREFBUF).
 558:./Libraries/STM32H7xx_HAL_Driver/Src/stm32h7xx_hal.c ****   * @retval HAL_OK/HAL_TIMEOUT
 559:./Libraries/STM32H7xx_HAL_Driver/Src/stm32h7xx_hal.c ****   */
 560:./Libraries/STM32H7xx_HAL_Driver/Src/stm32h7xx_hal.c **** HAL_StatusTypeDef HAL_SYSCFG_EnableVREFBUF(void)
 561:./Libraries/STM32H7xx_HAL_Driver/Src/stm32h7xx_hal.c **** {
 1277              		.loc 1 561 1
 1278              		.cfi_startproc
 1279              		@ args = 0, pretend = 0, frame = 8
 1280              		@ frame_needed = 1, uses_anonymous_args = 0
 1281 0000 80B5     		push	{r7, lr}
 1282              	.LCFI96:
 1283              		.cfi_def_cfa_offset 8
 1284              		.cfi_offset 7, -8
 1285              		.cfi_offset 14, -4
 1286 0002 82B0     		sub	sp, sp, #8
 1287              	.LCFI97:
 1288              		.cfi_def_cfa_offset 16
 1289 0004 00AF     		add	r7, sp, #0
 1290              	.LCFI98:
 1291              		.cfi_def_cfa_register 7
 562:./Libraries/STM32H7xx_HAL_Driver/Src/stm32h7xx_hal.c ****   uint32_t  tickstart;
 563:./Libraries/STM32H7xx_HAL_Driver/Src/stm32h7xx_hal.c **** 
 564:./Libraries/STM32H7xx_HAL_Driver/Src/stm32h7xx_hal.c ****   SET_BIT(VREFBUF->CSR, VREFBUF_CSR_ENVR);
 1292              		.loc 1 564 3
 1293 0006 0F4B     		ldr	r3, .L87
 1294 0008 1B68     		ldr	r3, [r3]
 1295 000a 0E4A     		ldr	r2, .L87
 1296 000c 43F00103 		orr	r3, r3, #1
 1297 0010 1360     		str	r3, [r2]
 565:./Libraries/STM32H7xx_HAL_Driver/Src/stm32h7xx_hal.c **** 
 566:./Libraries/STM32H7xx_HAL_Driver/Src/stm32h7xx_hal.c ****   /* Get Start Tick*/
 567:./Libraries/STM32H7xx_HAL_Driver/Src/stm32h7xx_hal.c ****   tickstart = HAL_GetTick();
 1298              		.loc 1 567 15
 1299 0012 FFF7FEFF 		bl	HAL_GetTick
 1300 0016 7860     		str	r0, [r7, #4]
 568:./Libraries/STM32H7xx_HAL_Driver/Src/stm32h7xx_hal.c **** 
 569:./Libraries/STM32H7xx_HAL_Driver/Src/stm32h7xx_hal.c ****   /* Wait for VRR bit  */
 570:./Libraries/STM32H7xx_HAL_Driver/Src/stm32h7xx_hal.c ****   while(READ_BIT(VREFBUF->CSR, VREFBUF_CSR_VRR) == 0UL)
 1301              		.loc 1 570 8
 1302 0018 08E0     		b	.L84
ARM GAS  /tmp/cclvVaTN.s 			page 33


 1303              	.L86:
 571:./Libraries/STM32H7xx_HAL_Driver/Src/stm32h7xx_hal.c ****   {
 572:./Libraries/STM32H7xx_HAL_Driver/Src/stm32h7xx_hal.c ****     if((HAL_GetTick() - tickstart) > VREFBUF_TIMEOUT_VALUE)
 1304              		.loc 1 572 9
 1305 001a FFF7FEFF 		bl	HAL_GetTick
 1306 001e 0246     		mov	r2, r0
 1307              		.loc 1 572 23
 1308 0020 7B68     		ldr	r3, [r7, #4]
 1309 0022 D31A     		subs	r3, r2, r3
 1310              		.loc 1 572 7
 1311 0024 0A2B     		cmp	r3, #10
 1312 0026 01D9     		bls	.L84
 573:./Libraries/STM32H7xx_HAL_Driver/Src/stm32h7xx_hal.c ****     {
 574:./Libraries/STM32H7xx_HAL_Driver/Src/stm32h7xx_hal.c ****       return HAL_TIMEOUT;
 1313              		.loc 1 574 14
 1314 0028 0323     		movs	r3, #3
 1315 002a 06E0     		b	.L85
 1316              	.L84:
 570:./Libraries/STM32H7xx_HAL_Driver/Src/stm32h7xx_hal.c ****   {
 1317              		.loc 1 570 9
 1318 002c 054B     		ldr	r3, .L87
 1319 002e 1B68     		ldr	r3, [r3]
 1320 0030 03F00803 		and	r3, r3, #8
 570:./Libraries/STM32H7xx_HAL_Driver/Src/stm32h7xx_hal.c ****   {
 1321              		.loc 1 570 8
 1322 0034 002B     		cmp	r3, #0
 1323 0036 F0D0     		beq	.L86
 575:./Libraries/STM32H7xx_HAL_Driver/Src/stm32h7xx_hal.c ****     }
 576:./Libraries/STM32H7xx_HAL_Driver/Src/stm32h7xx_hal.c ****   }
 577:./Libraries/STM32H7xx_HAL_Driver/Src/stm32h7xx_hal.c **** 
 578:./Libraries/STM32H7xx_HAL_Driver/Src/stm32h7xx_hal.c ****   return HAL_OK;
 1324              		.loc 1 578 10
 1325 0038 0023     		movs	r3, #0
 1326              	.L85:
 579:./Libraries/STM32H7xx_HAL_Driver/Src/stm32h7xx_hal.c **** }
 1327              		.loc 1 579 1
 1328 003a 1846     		mov	r0, r3
 1329 003c 0837     		adds	r7, r7, #8
 1330              	.LCFI99:
 1331              		.cfi_def_cfa_offset 8
 1332 003e BD46     		mov	sp, r7
 1333              	.LCFI100:
 1334              		.cfi_def_cfa_register 13
 1335              		@ sp needed
 1336 0040 80BD     		pop	{r7, pc}
 1337              	.L88:
 1338 0042 00BF     		.align	2
 1339              	.L87:
 1340 0044 003C0058 		.word	1476410368
 1341              		.cfi_endproc
 1342              	.LFE353:
 1344              		.section	.text.HAL_SYSCFG_DisableVREFBUF,"ax",%progbits
 1345              		.align	1
 1346              		.global	HAL_SYSCFG_DisableVREFBUF
 1347              		.syntax unified
 1348              		.thumb
 1349              		.thumb_func
ARM GAS  /tmp/cclvVaTN.s 			page 34


 1350              		.fpu fpv5-d16
 1352              	HAL_SYSCFG_DisableVREFBUF:
 1353              	.LFB354:
 580:./Libraries/STM32H7xx_HAL_Driver/Src/stm32h7xx_hal.c **** 
 581:./Libraries/STM32H7xx_HAL_Driver/Src/stm32h7xx_hal.c **** /**
 582:./Libraries/STM32H7xx_HAL_Driver/Src/stm32h7xx_hal.c ****   * @brief  Disable the Internal Voltage Reference buffer (VREFBUF).
 583:./Libraries/STM32H7xx_HAL_Driver/Src/stm32h7xx_hal.c ****   *
 584:./Libraries/STM32H7xx_HAL_Driver/Src/stm32h7xx_hal.c ****   * @retval None
 585:./Libraries/STM32H7xx_HAL_Driver/Src/stm32h7xx_hal.c ****   */
 586:./Libraries/STM32H7xx_HAL_Driver/Src/stm32h7xx_hal.c **** void HAL_SYSCFG_DisableVREFBUF(void)
 587:./Libraries/STM32H7xx_HAL_Driver/Src/stm32h7xx_hal.c **** {
 1354              		.loc 1 587 1
 1355              		.cfi_startproc
 1356              		@ args = 0, pretend = 0, frame = 0
 1357              		@ frame_needed = 1, uses_anonymous_args = 0
 1358              		@ link register save eliminated.
 1359 0000 80B4     		push	{r7}
 1360              	.LCFI101:
 1361              		.cfi_def_cfa_offset 4
 1362              		.cfi_offset 7, -4
 1363 0002 00AF     		add	r7, sp, #0
 1364              	.LCFI102:
 1365              		.cfi_def_cfa_register 7
 588:./Libraries/STM32H7xx_HAL_Driver/Src/stm32h7xx_hal.c ****   CLEAR_BIT(VREFBUF->CSR, VREFBUF_CSR_ENVR);
 1366              		.loc 1 588 3
 1367 0004 054B     		ldr	r3, .L90
 1368 0006 1B68     		ldr	r3, [r3]
 1369 0008 044A     		ldr	r2, .L90
 1370 000a 23F00103 		bic	r3, r3, #1
 1371 000e 1360     		str	r3, [r2]
 589:./Libraries/STM32H7xx_HAL_Driver/Src/stm32h7xx_hal.c **** }
 1372              		.loc 1 589 1
 1373 0010 00BF     		nop
 1374 0012 BD46     		mov	sp, r7
 1375              	.LCFI103:
 1376              		.cfi_def_cfa_register 13
 1377              		@ sp needed
 1378 0014 5DF8047B 		ldr	r7, [sp], #4
 1379              	.LCFI104:
 1380              		.cfi_restore 7
 1381              		.cfi_def_cfa_offset 0
 1382 0018 7047     		bx	lr
 1383              	.L91:
 1384 001a 00BF     		.align	2
 1385              	.L90:
 1386 001c 003C0058 		.word	1476410368
 1387              		.cfi_endproc
 1388              	.LFE354:
 1390              		.section	.text.HAL_SYSCFG_ETHInterfaceSelect,"ax",%progbits
 1391              		.align	1
 1392              		.global	HAL_SYSCFG_ETHInterfaceSelect
 1393              		.syntax unified
 1394              		.thumb
 1395              		.thumb_func
 1396              		.fpu fpv5-d16
 1398              	HAL_SYSCFG_ETHInterfaceSelect:
 1399              	.LFB355:
ARM GAS  /tmp/cclvVaTN.s 			page 35


 590:./Libraries/STM32H7xx_HAL_Driver/Src/stm32h7xx_hal.c **** 
 591:./Libraries/STM32H7xx_HAL_Driver/Src/stm32h7xx_hal.c **** #if defined(SYSCFG_PMCR_EPIS_SEL)
 592:./Libraries/STM32H7xx_HAL_Driver/Src/stm32h7xx_hal.c **** /**
 593:./Libraries/STM32H7xx_HAL_Driver/Src/stm32h7xx_hal.c ****   * @brief  Ethernet PHY Interface Selection either MII or RMII
 594:./Libraries/STM32H7xx_HAL_Driver/Src/stm32h7xx_hal.c ****   * @param  SYSCFG_ETHInterface: Selects the Ethernet PHY interface
 595:./Libraries/STM32H7xx_HAL_Driver/Src/stm32h7xx_hal.c ****   *   This parameter can be one of the following values:
 596:./Libraries/STM32H7xx_HAL_Driver/Src/stm32h7xx_hal.c ****   *   @arg SYSCFG_ETH_MII : Select the Media Independent Interface
 597:./Libraries/STM32H7xx_HAL_Driver/Src/stm32h7xx_hal.c ****   *   @arg SYSCFG_ETH_RMII: Select the Reduced Media Independent Interface
 598:./Libraries/STM32H7xx_HAL_Driver/Src/stm32h7xx_hal.c ****   * @retval None
 599:./Libraries/STM32H7xx_HAL_Driver/Src/stm32h7xx_hal.c ****   */
 600:./Libraries/STM32H7xx_HAL_Driver/Src/stm32h7xx_hal.c **** void HAL_SYSCFG_ETHInterfaceSelect(uint32_t SYSCFG_ETHInterface)
 601:./Libraries/STM32H7xx_HAL_Driver/Src/stm32h7xx_hal.c **** {
 1400              		.loc 1 601 1
 1401              		.cfi_startproc
 1402              		@ args = 0, pretend = 0, frame = 8
 1403              		@ frame_needed = 1, uses_anonymous_args = 0
 1404              		@ link register save eliminated.
 1405 0000 80B4     		push	{r7}
 1406              	.LCFI105:
 1407              		.cfi_def_cfa_offset 4
 1408              		.cfi_offset 7, -4
 1409 0002 83B0     		sub	sp, sp, #12
 1410              	.LCFI106:
 1411              		.cfi_def_cfa_offset 16
 1412 0004 00AF     		add	r7, sp, #0
 1413              	.LCFI107:
 1414              		.cfi_def_cfa_register 7
 1415 0006 7860     		str	r0, [r7, #4]
 602:./Libraries/STM32H7xx_HAL_Driver/Src/stm32h7xx_hal.c ****   /* Check the parameter */
 603:./Libraries/STM32H7xx_HAL_Driver/Src/stm32h7xx_hal.c ****   assert_param(IS_SYSCFG_ETHERNET_CONFIG(SYSCFG_ETHInterface));
 604:./Libraries/STM32H7xx_HAL_Driver/Src/stm32h7xx_hal.c **** 
 605:./Libraries/STM32H7xx_HAL_Driver/Src/stm32h7xx_hal.c ****   MODIFY_REG(SYSCFG->PMCR, SYSCFG_PMCR_EPIS_SEL, (uint32_t)(SYSCFG_ETHInterface));
 1416              		.loc 1 605 3
 1417 0008 064B     		ldr	r3, .L93
 1418 000a 5B68     		ldr	r3, [r3, #4]
 1419 000c 23F46002 		bic	r2, r3, #14680064
 1420 0010 0449     		ldr	r1, .L93
 1421 0012 7B68     		ldr	r3, [r7, #4]
 1422 0014 1343     		orrs	r3, r3, r2
 1423 0016 4B60     		str	r3, [r1, #4]
 606:./Libraries/STM32H7xx_HAL_Driver/Src/stm32h7xx_hal.c **** }
 1424              		.loc 1 606 1
 1425 0018 00BF     		nop
 1426 001a 0C37     		adds	r7, r7, #12
 1427              	.LCFI108:
 1428              		.cfi_def_cfa_offset 4
 1429 001c BD46     		mov	sp, r7
 1430              	.LCFI109:
 1431              		.cfi_def_cfa_register 13
 1432              		@ sp needed
 1433 001e 5DF8047B 		ldr	r7, [sp], #4
 1434              	.LCFI110:
 1435              		.cfi_restore 7
 1436              		.cfi_def_cfa_offset 0
 1437 0022 7047     		bx	lr
 1438              	.L94:
 1439              		.align	2
ARM GAS  /tmp/cclvVaTN.s 			page 36


 1440              	.L93:
 1441 0024 00040058 		.word	1476396032
 1442              		.cfi_endproc
 1443              	.LFE355:
 1445              		.section	.text.HAL_SYSCFG_AnalogSwitchConfig,"ax",%progbits
 1446              		.align	1
 1447              		.global	HAL_SYSCFG_AnalogSwitchConfig
 1448              		.syntax unified
 1449              		.thumb
 1450              		.thumb_func
 1451              		.fpu fpv5-d16
 1453              	HAL_SYSCFG_AnalogSwitchConfig:
 1454              	.LFB356:
 607:./Libraries/STM32H7xx_HAL_Driver/Src/stm32h7xx_hal.c **** #endif /* SYSCFG_PMCR_EPIS_SEL */
 608:./Libraries/STM32H7xx_HAL_Driver/Src/stm32h7xx_hal.c **** 
 609:./Libraries/STM32H7xx_HAL_Driver/Src/stm32h7xx_hal.c **** /**
 610:./Libraries/STM32H7xx_HAL_Driver/Src/stm32h7xx_hal.c ****   * @brief  Analog Switch control for dual analog pads.
 611:./Libraries/STM32H7xx_HAL_Driver/Src/stm32h7xx_hal.c ****   * @param  SYSCFG_AnalogSwitch: Selects the analog pad
 612:./Libraries/STM32H7xx_HAL_Driver/Src/stm32h7xx_hal.c ****   *   This parameter can be one or a combination of the following values:
 613:./Libraries/STM32H7xx_HAL_Driver/Src/stm32h7xx_hal.c ****   *   @arg SYSCFG_SWITCH_PA0 : Select PA0 analog switch
 614:./Libraries/STM32H7xx_HAL_Driver/Src/stm32h7xx_hal.c ****   *   @arg SYSCFG_SWITCH_PA1:  Select PA1 analog switch
 615:./Libraries/STM32H7xx_HAL_Driver/Src/stm32h7xx_hal.c ****   *   @arg SYSCFG_SWITCH_PC2 : Select PC2 analog switch
 616:./Libraries/STM32H7xx_HAL_Driver/Src/stm32h7xx_hal.c ****   *   @arg SYSCFG_SWITCH_PC3:  Select PC3 analog switch
 617:./Libraries/STM32H7xx_HAL_Driver/Src/stm32h7xx_hal.c ****   * @param  SYSCFG_SwitchState: Open or Close the analog switch between dual pads (PXn and PXn_C)
 618:./Libraries/STM32H7xx_HAL_Driver/Src/stm32h7xx_hal.c ****   *   This parameter can be one or a combination of the following values:
 619:./Libraries/STM32H7xx_HAL_Driver/Src/stm32h7xx_hal.c ****   *   @arg SYSCFG_SWITCH_PA0_OPEN
 620:./Libraries/STM32H7xx_HAL_Driver/Src/stm32h7xx_hal.c ****   *   @arg SYSCFG_SWITCH_PA0_CLOSE
 621:./Libraries/STM32H7xx_HAL_Driver/Src/stm32h7xx_hal.c ****   *   @arg SYSCFG_SWITCH_PA1_OPEN
 622:./Libraries/STM32H7xx_HAL_Driver/Src/stm32h7xx_hal.c ****   *   @arg SYSCFG_SWITCH_PA1_CLOSE
 623:./Libraries/STM32H7xx_HAL_Driver/Src/stm32h7xx_hal.c ****   *   @arg SYSCFG_SWITCH_PC2_OPEN
 624:./Libraries/STM32H7xx_HAL_Driver/Src/stm32h7xx_hal.c ****   *   @arg SYSCFG_SWITCH_PC2_CLOSE
 625:./Libraries/STM32H7xx_HAL_Driver/Src/stm32h7xx_hal.c ****   *   @arg SYSCFG_SWITCH_PC3_OPEN
 626:./Libraries/STM32H7xx_HAL_Driver/Src/stm32h7xx_hal.c ****   *   @arg SYSCFG_SWITCH_PC3_CLOSE
 627:./Libraries/STM32H7xx_HAL_Driver/Src/stm32h7xx_hal.c ****   * @retval None
 628:./Libraries/STM32H7xx_HAL_Driver/Src/stm32h7xx_hal.c ****   */
 629:./Libraries/STM32H7xx_HAL_Driver/Src/stm32h7xx_hal.c **** 
 630:./Libraries/STM32H7xx_HAL_Driver/Src/stm32h7xx_hal.c **** void HAL_SYSCFG_AnalogSwitchConfig(uint32_t SYSCFG_AnalogSwitch , uint32_t SYSCFG_SwitchState )
 631:./Libraries/STM32H7xx_HAL_Driver/Src/stm32h7xx_hal.c **** {
 1455              		.loc 1 631 1
 1456              		.cfi_startproc
 1457              		@ args = 0, pretend = 0, frame = 8
 1458              		@ frame_needed = 1, uses_anonymous_args = 0
 1459              		@ link register save eliminated.
 1460 0000 80B4     		push	{r7}
 1461              	.LCFI111:
 1462              		.cfi_def_cfa_offset 4
 1463              		.cfi_offset 7, -4
 1464 0002 83B0     		sub	sp, sp, #12
 1465              	.LCFI112:
 1466              		.cfi_def_cfa_offset 16
 1467 0004 00AF     		add	r7, sp, #0
 1468              	.LCFI113:
 1469              		.cfi_def_cfa_register 7
 1470 0006 7860     		str	r0, [r7, #4]
 1471 0008 3960     		str	r1, [r7]
 632:./Libraries/STM32H7xx_HAL_Driver/Src/stm32h7xx_hal.c ****   /* Check the parameter */
 633:./Libraries/STM32H7xx_HAL_Driver/Src/stm32h7xx_hal.c ****   assert_param(IS_SYSCFG_ANALOG_SWITCH(SYSCFG_AnalogSwitch));
ARM GAS  /tmp/cclvVaTN.s 			page 37


 634:./Libraries/STM32H7xx_HAL_Driver/Src/stm32h7xx_hal.c ****   assert_param(IS_SYSCFG_SWITCH_STATE(SYSCFG_SwitchState));
 635:./Libraries/STM32H7xx_HAL_Driver/Src/stm32h7xx_hal.c **** 
 636:./Libraries/STM32H7xx_HAL_Driver/Src/stm32h7xx_hal.c ****   MODIFY_REG(SYSCFG->PMCR, (uint32_t) SYSCFG_AnalogSwitch, (uint32_t)(SYSCFG_SwitchState));
 1472              		.loc 1 636 3
 1473 000a 074B     		ldr	r3, .L96
 1474 000c 5A68     		ldr	r2, [r3, #4]
 1475 000e 7B68     		ldr	r3, [r7, #4]
 1476 0010 DB43     		mvns	r3, r3
 1477 0012 1A40     		ands	r2, r2, r3
 1478 0014 0449     		ldr	r1, .L96
 1479 0016 3B68     		ldr	r3, [r7]
 1480 0018 1343     		orrs	r3, r3, r2
 1481 001a 4B60     		str	r3, [r1, #4]
 637:./Libraries/STM32H7xx_HAL_Driver/Src/stm32h7xx_hal.c **** }
 1482              		.loc 1 637 1
 1483 001c 00BF     		nop
 1484 001e 0C37     		adds	r7, r7, #12
 1485              	.LCFI114:
 1486              		.cfi_def_cfa_offset 4
 1487 0020 BD46     		mov	sp, r7
 1488              	.LCFI115:
 1489              		.cfi_def_cfa_register 13
 1490              		@ sp needed
 1491 0022 5DF8047B 		ldr	r7, [sp], #4
 1492              	.LCFI116:
 1493              		.cfi_restore 7
 1494              		.cfi_def_cfa_offset 0
 1495 0026 7047     		bx	lr
 1496              	.L97:
 1497              		.align	2
 1498              	.L96:
 1499 0028 00040058 		.word	1476396032
 1500              		.cfi_endproc
 1501              	.LFE356:
 1503              		.section	.text.HAL_SYSCFG_EnableBOOST,"ax",%progbits
 1504              		.align	1
 1505              		.global	HAL_SYSCFG_EnableBOOST
 1506              		.syntax unified
 1507              		.thumb
 1508              		.thumb_func
 1509              		.fpu fpv5-d16
 1511              	HAL_SYSCFG_EnableBOOST:
 1512              	.LFB357:
 638:./Libraries/STM32H7xx_HAL_Driver/Src/stm32h7xx_hal.c **** 
 639:./Libraries/STM32H7xx_HAL_Driver/Src/stm32h7xx_hal.c **** #if defined(SYSCFG_PMCR_BOOSTEN)
 640:./Libraries/STM32H7xx_HAL_Driver/Src/stm32h7xx_hal.c **** /**
 641:./Libraries/STM32H7xx_HAL_Driver/Src/stm32h7xx_hal.c ****   * @brief  Enables the booster to reduce the total harmonic distortion of the analog
 642:./Libraries/STM32H7xx_HAL_Driver/Src/stm32h7xx_hal.c ****   *         switch when the supply voltage is lower than 2.7 V.
 643:./Libraries/STM32H7xx_HAL_Driver/Src/stm32h7xx_hal.c ****   * @note   Activating the booster allows to guaranty the analog switch AC performance
 644:./Libraries/STM32H7xx_HAL_Driver/Src/stm32h7xx_hal.c ****   *         when the supply voltage is below 2.7 V: in this case, the analog switch
 645:./Libraries/STM32H7xx_HAL_Driver/Src/stm32h7xx_hal.c ****   *         performance is the same on the full voltage range
 646:./Libraries/STM32H7xx_HAL_Driver/Src/stm32h7xx_hal.c ****   * @retval None
 647:./Libraries/STM32H7xx_HAL_Driver/Src/stm32h7xx_hal.c ****   */
 648:./Libraries/STM32H7xx_HAL_Driver/Src/stm32h7xx_hal.c **** void HAL_SYSCFG_EnableBOOST(void)
 649:./Libraries/STM32H7xx_HAL_Driver/Src/stm32h7xx_hal.c **** {
 1513              		.loc 1 649 1
 1514              		.cfi_startproc
ARM GAS  /tmp/cclvVaTN.s 			page 38


 1515              		@ args = 0, pretend = 0, frame = 0
 1516              		@ frame_needed = 1, uses_anonymous_args = 0
 1517              		@ link register save eliminated.
 1518 0000 80B4     		push	{r7}
 1519              	.LCFI117:
 1520              		.cfi_def_cfa_offset 4
 1521              		.cfi_offset 7, -4
 1522 0002 00AF     		add	r7, sp, #0
 1523              	.LCFI118:
 1524              		.cfi_def_cfa_register 7
 650:./Libraries/STM32H7xx_HAL_Driver/Src/stm32h7xx_hal.c ****  SET_BIT(SYSCFG->PMCR, SYSCFG_PMCR_BOOSTEN) ;
 1525              		.loc 1 650 2
 1526 0004 054B     		ldr	r3, .L99
 1527 0006 5B68     		ldr	r3, [r3, #4]
 1528 0008 044A     		ldr	r2, .L99
 1529 000a 43F48073 		orr	r3, r3, #256
 1530 000e 5360     		str	r3, [r2, #4]
 651:./Libraries/STM32H7xx_HAL_Driver/Src/stm32h7xx_hal.c **** }
 1531              		.loc 1 651 1
 1532 0010 00BF     		nop
 1533 0012 BD46     		mov	sp, r7
 1534              	.LCFI119:
 1535              		.cfi_def_cfa_register 13
 1536              		@ sp needed
 1537 0014 5DF8047B 		ldr	r7, [sp], #4
 1538              	.LCFI120:
 1539              		.cfi_restore 7
 1540              		.cfi_def_cfa_offset 0
 1541 0018 7047     		bx	lr
 1542              	.L100:
 1543 001a 00BF     		.align	2
 1544              	.L99:
 1545 001c 00040058 		.word	1476396032
 1546              		.cfi_endproc
 1547              	.LFE357:
 1549              		.section	.text.HAL_SYSCFG_DisableBOOST,"ax",%progbits
 1550              		.align	1
 1551              		.global	HAL_SYSCFG_DisableBOOST
 1552              		.syntax unified
 1553              		.thumb
 1554              		.thumb_func
 1555              		.fpu fpv5-d16
 1557              	HAL_SYSCFG_DisableBOOST:
 1558              	.LFB358:
 652:./Libraries/STM32H7xx_HAL_Driver/Src/stm32h7xx_hal.c **** 
 653:./Libraries/STM32H7xx_HAL_Driver/Src/stm32h7xx_hal.c **** /**
 654:./Libraries/STM32H7xx_HAL_Driver/Src/stm32h7xx_hal.c ****   * @brief  Disables the booster
 655:./Libraries/STM32H7xx_HAL_Driver/Src/stm32h7xx_hal.c ****   * @note   Activating the booster allows to guaranty the analog switch AC performance
 656:./Libraries/STM32H7xx_HAL_Driver/Src/stm32h7xx_hal.c ****   *         when the supply voltage is below 2.7 V: in this case, the analog switch
 657:./Libraries/STM32H7xx_HAL_Driver/Src/stm32h7xx_hal.c ****   *         performance is the same on the full voltage range
 658:./Libraries/STM32H7xx_HAL_Driver/Src/stm32h7xx_hal.c ****   * @retval None
 659:./Libraries/STM32H7xx_HAL_Driver/Src/stm32h7xx_hal.c ****   */
 660:./Libraries/STM32H7xx_HAL_Driver/Src/stm32h7xx_hal.c **** void HAL_SYSCFG_DisableBOOST(void)
 661:./Libraries/STM32H7xx_HAL_Driver/Src/stm32h7xx_hal.c **** {
 1559              		.loc 1 661 1
 1560              		.cfi_startproc
 1561              		@ args = 0, pretend = 0, frame = 0
ARM GAS  /tmp/cclvVaTN.s 			page 39


 1562              		@ frame_needed = 1, uses_anonymous_args = 0
 1563              		@ link register save eliminated.
 1564 0000 80B4     		push	{r7}
 1565              	.LCFI121:
 1566              		.cfi_def_cfa_offset 4
 1567              		.cfi_offset 7, -4
 1568 0002 00AF     		add	r7, sp, #0
 1569              	.LCFI122:
 1570              		.cfi_def_cfa_register 7
 662:./Libraries/STM32H7xx_HAL_Driver/Src/stm32h7xx_hal.c ****  CLEAR_BIT(SYSCFG->PMCR, SYSCFG_PMCR_BOOSTEN) ;
 1571              		.loc 1 662 2
 1572 0004 054B     		ldr	r3, .L102
 1573 0006 5B68     		ldr	r3, [r3, #4]
 1574 0008 044A     		ldr	r2, .L102
 1575 000a 23F48073 		bic	r3, r3, #256
 1576 000e 5360     		str	r3, [r2, #4]
 663:./Libraries/STM32H7xx_HAL_Driver/Src/stm32h7xx_hal.c **** }
 1577              		.loc 1 663 1
 1578 0010 00BF     		nop
 1579 0012 BD46     		mov	sp, r7
 1580              	.LCFI123:
 1581              		.cfi_def_cfa_register 13
 1582              		@ sp needed
 1583 0014 5DF8047B 		ldr	r7, [sp], #4
 1584              	.LCFI124:
 1585              		.cfi_restore 7
 1586              		.cfi_def_cfa_offset 0
 1587 0018 7047     		bx	lr
 1588              	.L103:
 1589 001a 00BF     		.align	2
 1590              	.L102:
 1591 001c 00040058 		.word	1476396032
 1592              		.cfi_endproc
 1593              	.LFE358:
 1595              		.section	.text.HAL_SYSCFG_CM7BootAddConfig,"ax",%progbits
 1596              		.align	1
 1597              		.global	HAL_SYSCFG_CM7BootAddConfig
 1598              		.syntax unified
 1599              		.thumb
 1600              		.thumb_func
 1601              		.fpu fpv5-d16
 1603              	HAL_SYSCFG_CM7BootAddConfig:
 1604              	.LFB359:
 664:./Libraries/STM32H7xx_HAL_Driver/Src/stm32h7xx_hal.c **** #endif /* SYSCFG_PMCR_BOOSTEN */
 665:./Libraries/STM32H7xx_HAL_Driver/Src/stm32h7xx_hal.c **** 
 666:./Libraries/STM32H7xx_HAL_Driver/Src/stm32h7xx_hal.c **** #if defined (SYSCFG_UR2_BOOT_ADD0) ||  defined (SYSCFG_UR2_BCM7_ADD0)
 667:./Libraries/STM32H7xx_HAL_Driver/Src/stm32h7xx_hal.c **** /**
 668:./Libraries/STM32H7xx_HAL_Driver/Src/stm32h7xx_hal.c ****   * @brief  BootCM7 address 0 configuration
 669:./Libraries/STM32H7xx_HAL_Driver/Src/stm32h7xx_hal.c ****   * @param  BootRegister :Specifies the Boot Address register (Address0 or Address1)
 670:./Libraries/STM32H7xx_HAL_Driver/Src/stm32h7xx_hal.c ****   *   This parameter can be one of the following values:
 671:./Libraries/STM32H7xx_HAL_Driver/Src/stm32h7xx_hal.c ****   *   @arg SYSCFG_BOOT_ADDR0 : Select the boot address0
 672:./Libraries/STM32H7xx_HAL_Driver/Src/stm32h7xx_hal.c ****   *   @arg SYSCFG_BOOT_ADDR1:  Select the boot address1
 673:./Libraries/STM32H7xx_HAL_Driver/Src/stm32h7xx_hal.c ****   * @param  BootAddress :Specifies the CM7 Boot Address to be loaded in Address0 or Address1
 674:./Libraries/STM32H7xx_HAL_Driver/Src/stm32h7xx_hal.c ****   * @retval None
 675:./Libraries/STM32H7xx_HAL_Driver/Src/stm32h7xx_hal.c ****   */
 676:./Libraries/STM32H7xx_HAL_Driver/Src/stm32h7xx_hal.c **** void HAL_SYSCFG_CM7BootAddConfig(uint32_t BootRegister, uint32_t BootAddress)
 677:./Libraries/STM32H7xx_HAL_Driver/Src/stm32h7xx_hal.c **** {
ARM GAS  /tmp/cclvVaTN.s 			page 40


 1605              		.loc 1 677 1
 1606              		.cfi_startproc
 1607              		@ args = 0, pretend = 0, frame = 8
 1608              		@ frame_needed = 1, uses_anonymous_args = 0
 1609              		@ link register save eliminated.
 1610 0000 80B4     		push	{r7}
 1611              	.LCFI125:
 1612              		.cfi_def_cfa_offset 4
 1613              		.cfi_offset 7, -4
 1614 0002 83B0     		sub	sp, sp, #12
 1615              	.LCFI126:
 1616              		.cfi_def_cfa_offset 16
 1617 0004 00AF     		add	r7, sp, #0
 1618              	.LCFI127:
 1619              		.cfi_def_cfa_register 7
 1620 0006 7860     		str	r0, [r7, #4]
 1621 0008 3960     		str	r1, [r7]
 678:./Libraries/STM32H7xx_HAL_Driver/Src/stm32h7xx_hal.c ****   /* Check the parameters */
 679:./Libraries/STM32H7xx_HAL_Driver/Src/stm32h7xx_hal.c ****   assert_param(IS_SYSCFG_BOOT_REGISTER(BootRegister));
 680:./Libraries/STM32H7xx_HAL_Driver/Src/stm32h7xx_hal.c ****   assert_param(IS_SYSCFG_BOOT_ADDRESS(BootAddress));
 681:./Libraries/STM32H7xx_HAL_Driver/Src/stm32h7xx_hal.c ****   if ( BootRegister == SYSCFG_BOOT_ADDR0 )
 1622              		.loc 1 681 6
 1623 000a 7B68     		ldr	r3, [r7, #4]
 1624 000c 002B     		cmp	r3, #0
 1625 000e 0BD1     		bne	.L105
 682:./Libraries/STM32H7xx_HAL_Driver/Src/stm32h7xx_hal.c ****   {
 683:./Libraries/STM32H7xx_HAL_Driver/Src/stm32h7xx_hal.c ****     /* Configure CM7 BOOT ADD0 */
 684:./Libraries/STM32H7xx_HAL_Driver/Src/stm32h7xx_hal.c **** #if defined(DUAL_CORE)
 685:./Libraries/STM32H7xx_HAL_Driver/Src/stm32h7xx_hal.c ****     MODIFY_REG(SYSCFG->UR2, SYSCFG_UR2_BCM7_ADD0, ((BootAddress >> 16) << SYSCFG_UR2_BCM7_ADD0_Pos)
 1626              		.loc 1 685 5
 1627 0010 0E4B     		ldr	r3, .L108
 1628 0012 D3F80833 		ldr	r3, [r3, #776]
 1629 0016 9AB2     		uxth	r2, r3
 1630 0018 3B68     		ldr	r3, [r7]
 1631 001a 1B0C     		lsrs	r3, r3, #16
 1632 001c 1B04     		lsls	r3, r3, #16
 1633 001e 0B49     		ldr	r1, .L108
 1634 0020 1343     		orrs	r3, r3, r2
 1635 0022 C1F80833 		str	r3, [r1, #776]
 686:./Libraries/STM32H7xx_HAL_Driver/Src/stm32h7xx_hal.c **** #else
 687:./Libraries/STM32H7xx_HAL_Driver/Src/stm32h7xx_hal.c ****     MODIFY_REG(SYSCFG->UR2, SYSCFG_UR2_BOOT_ADD0, ((BootAddress >> 16) << SYSCFG_UR2_BOOT_ADD0_Pos)
 688:./Libraries/STM32H7xx_HAL_Driver/Src/stm32h7xx_hal.c **** #endif /*DUAL_CORE*/
 689:./Libraries/STM32H7xx_HAL_Driver/Src/stm32h7xx_hal.c ****   }
 690:./Libraries/STM32H7xx_HAL_Driver/Src/stm32h7xx_hal.c ****   else
 691:./Libraries/STM32H7xx_HAL_Driver/Src/stm32h7xx_hal.c ****   {
 692:./Libraries/STM32H7xx_HAL_Driver/Src/stm32h7xx_hal.c ****     /* Configure CM7 BOOT ADD1 */
 693:./Libraries/STM32H7xx_HAL_Driver/Src/stm32h7xx_hal.c **** #if defined(DUAL_CORE)
 694:./Libraries/STM32H7xx_HAL_Driver/Src/stm32h7xx_hal.c ****     MODIFY_REG(SYSCFG->UR3, SYSCFG_UR3_BCM7_ADD1, (BootAddress >> 16));
 695:./Libraries/STM32H7xx_HAL_Driver/Src/stm32h7xx_hal.c **** #else
 696:./Libraries/STM32H7xx_HAL_Driver/Src/stm32h7xx_hal.c ****     MODIFY_REG(SYSCFG->UR3, SYSCFG_UR3_BOOT_ADD1, (BootAddress >> 16));
 697:./Libraries/STM32H7xx_HAL_Driver/Src/stm32h7xx_hal.c **** #endif /*DUAL_CORE*/
 698:./Libraries/STM32H7xx_HAL_Driver/Src/stm32h7xx_hal.c ****   }
 699:./Libraries/STM32H7xx_HAL_Driver/Src/stm32h7xx_hal.c **** }
 1636              		.loc 1 699 1
 1637 0026 0AE0     		b	.L107
 1638              	.L105:
 694:./Libraries/STM32H7xx_HAL_Driver/Src/stm32h7xx_hal.c **** #else
ARM GAS  /tmp/cclvVaTN.s 			page 41


 1639              		.loc 1 694 5
 1640 0028 084B     		ldr	r3, .L108
 1641 002a D3F80C23 		ldr	r2, [r3, #780]
 1642 002e 084B     		ldr	r3, .L108+4
 1643 0030 1340     		ands	r3, r3, r2
 1644 0032 3A68     		ldr	r2, [r7]
 1645 0034 120C     		lsrs	r2, r2, #16
 1646 0036 0549     		ldr	r1, .L108
 1647 0038 1343     		orrs	r3, r3, r2
 1648 003a C1F80C33 		str	r3, [r1, #780]
 1649              	.L107:
 1650              		.loc 1 699 1
 1651 003e 00BF     		nop
 1652 0040 0C37     		adds	r7, r7, #12
 1653              	.LCFI128:
 1654              		.cfi_def_cfa_offset 4
 1655 0042 BD46     		mov	sp, r7
 1656              	.LCFI129:
 1657              		.cfi_def_cfa_register 13
 1658              		@ sp needed
 1659 0044 5DF8047B 		ldr	r7, [sp], #4
 1660              	.LCFI130:
 1661              		.cfi_restore 7
 1662              		.cfi_def_cfa_offset 0
 1663 0048 7047     		bx	lr
 1664              	.L109:
 1665 004a 00BF     		.align	2
 1666              	.L108:
 1667 004c 00040058 		.word	1476396032
 1668 0050 0000FFFF 		.word	-65536
 1669              		.cfi_endproc
 1670              	.LFE359:
 1672              		.section	.text.HAL_SYSCFG_CM4BootAddConfig,"ax",%progbits
 1673              		.align	1
 1674              		.global	HAL_SYSCFG_CM4BootAddConfig
 1675              		.syntax unified
 1676              		.thumb
 1677              		.thumb_func
 1678              		.fpu fpv5-d16
 1680              	HAL_SYSCFG_CM4BootAddConfig:
 1681              	.LFB360:
 700:./Libraries/STM32H7xx_HAL_Driver/Src/stm32h7xx_hal.c **** #endif /* SYSCFG_UR2_BOOT_ADD0 || SYSCFG_UR2_BCM7_ADD0 */
 701:./Libraries/STM32H7xx_HAL_Driver/Src/stm32h7xx_hal.c **** 
 702:./Libraries/STM32H7xx_HAL_Driver/Src/stm32h7xx_hal.c **** #if defined(DUAL_CORE)
 703:./Libraries/STM32H7xx_HAL_Driver/Src/stm32h7xx_hal.c **** /**
 704:./Libraries/STM32H7xx_HAL_Driver/Src/stm32h7xx_hal.c ****   * @brief  BootCM4 address 0 configuration
 705:./Libraries/STM32H7xx_HAL_Driver/Src/stm32h7xx_hal.c ****   * @param  BootRegister :Specifies the Boot Address register (Address0 or Address1)
 706:./Libraries/STM32H7xx_HAL_Driver/Src/stm32h7xx_hal.c ****   *   This parameter can be one of the following values:
 707:./Libraries/STM32H7xx_HAL_Driver/Src/stm32h7xx_hal.c ****   *   @arg SYSCFG_BOOT_ADDR0 : Select the boot address0
 708:./Libraries/STM32H7xx_HAL_Driver/Src/stm32h7xx_hal.c ****   *   @arg SYSCFG_BOOT_ADDR1:  Select the boot address1
 709:./Libraries/STM32H7xx_HAL_Driver/Src/stm32h7xx_hal.c ****   * @param  BootAddress :Specifies the CM4 Boot Address to be loaded in Address0 or Address1
 710:./Libraries/STM32H7xx_HAL_Driver/Src/stm32h7xx_hal.c ****   * @retval None
 711:./Libraries/STM32H7xx_HAL_Driver/Src/stm32h7xx_hal.c ****   */
 712:./Libraries/STM32H7xx_HAL_Driver/Src/stm32h7xx_hal.c **** void HAL_SYSCFG_CM4BootAddConfig(uint32_t BootRegister, uint32_t BootAddress)
 713:./Libraries/STM32H7xx_HAL_Driver/Src/stm32h7xx_hal.c **** {
 1682              		.loc 1 713 1
 1683              		.cfi_startproc
ARM GAS  /tmp/cclvVaTN.s 			page 42


 1684              		@ args = 0, pretend = 0, frame = 8
 1685              		@ frame_needed = 1, uses_anonymous_args = 0
 1686              		@ link register save eliminated.
 1687 0000 80B4     		push	{r7}
 1688              	.LCFI131:
 1689              		.cfi_def_cfa_offset 4
 1690              		.cfi_offset 7, -4
 1691 0002 83B0     		sub	sp, sp, #12
 1692              	.LCFI132:
 1693              		.cfi_def_cfa_offset 16
 1694 0004 00AF     		add	r7, sp, #0
 1695              	.LCFI133:
 1696              		.cfi_def_cfa_register 7
 1697 0006 7860     		str	r0, [r7, #4]
 1698 0008 3960     		str	r1, [r7]
 714:./Libraries/STM32H7xx_HAL_Driver/Src/stm32h7xx_hal.c ****   /* Check the parameters */
 715:./Libraries/STM32H7xx_HAL_Driver/Src/stm32h7xx_hal.c ****   assert_param(IS_SYSCFG_BOOT_REGISTER(BootRegister));
 716:./Libraries/STM32H7xx_HAL_Driver/Src/stm32h7xx_hal.c ****   assert_param(IS_SYSCFG_BOOT_ADDRESS(BootAddress));
 717:./Libraries/STM32H7xx_HAL_Driver/Src/stm32h7xx_hal.c **** 
 718:./Libraries/STM32H7xx_HAL_Driver/Src/stm32h7xx_hal.c ****   if ( BootRegister == SYSCFG_BOOT_ADDR0 )
 1699              		.loc 1 718 6
 1700 000a 7B68     		ldr	r3, [r7, #4]
 1701 000c 002B     		cmp	r3, #0
 1702 000e 0BD1     		bne	.L111
 719:./Libraries/STM32H7xx_HAL_Driver/Src/stm32h7xx_hal.c ****   {
 720:./Libraries/STM32H7xx_HAL_Driver/Src/stm32h7xx_hal.c ****     /* Configure CM4 BOOT ADD0 */
 721:./Libraries/STM32H7xx_HAL_Driver/Src/stm32h7xx_hal.c ****     MODIFY_REG(SYSCFG->UR3, SYSCFG_UR3_BCM4_ADD0, ((BootAddress >> 16)<< SYSCFG_UR3_BCM4_ADD0_Pos))
 1703              		.loc 1 721 5
 1704 0010 0E4B     		ldr	r3, .L114
 1705 0012 D3F80C33 		ldr	r3, [r3, #780]
 1706 0016 9AB2     		uxth	r2, r3
 1707 0018 3B68     		ldr	r3, [r7]
 1708 001a 1B0C     		lsrs	r3, r3, #16
 1709 001c 1B04     		lsls	r3, r3, #16
 1710 001e 0B49     		ldr	r1, .L114
 1711 0020 1343     		orrs	r3, r3, r2
 1712 0022 C1F80C33 		str	r3, [r1, #780]
 722:./Libraries/STM32H7xx_HAL_Driver/Src/stm32h7xx_hal.c ****   }
 723:./Libraries/STM32H7xx_HAL_Driver/Src/stm32h7xx_hal.c **** 
 724:./Libraries/STM32H7xx_HAL_Driver/Src/stm32h7xx_hal.c ****   else
 725:./Libraries/STM32H7xx_HAL_Driver/Src/stm32h7xx_hal.c ****   {
 726:./Libraries/STM32H7xx_HAL_Driver/Src/stm32h7xx_hal.c ****     /* Configure CM4 BOOT ADD1 */
 727:./Libraries/STM32H7xx_HAL_Driver/Src/stm32h7xx_hal.c ****     MODIFY_REG(SYSCFG->UR4, SYSCFG_UR4_BCM4_ADD1, (BootAddress >> 16));
 728:./Libraries/STM32H7xx_HAL_Driver/Src/stm32h7xx_hal.c ****   }
 729:./Libraries/STM32H7xx_HAL_Driver/Src/stm32h7xx_hal.c **** }
 1713              		.loc 1 729 1
 1714 0026 0AE0     		b	.L113
 1715              	.L111:
 727:./Libraries/STM32H7xx_HAL_Driver/Src/stm32h7xx_hal.c ****   }
 1716              		.loc 1 727 5
 1717 0028 084B     		ldr	r3, .L114
 1718 002a D3F81023 		ldr	r2, [r3, #784]
 1719 002e 084B     		ldr	r3, .L114+4
 1720 0030 1340     		ands	r3, r3, r2
 1721 0032 3A68     		ldr	r2, [r7]
 1722 0034 120C     		lsrs	r2, r2, #16
 1723 0036 0549     		ldr	r1, .L114
ARM GAS  /tmp/cclvVaTN.s 			page 43


 1724 0038 1343     		orrs	r3, r3, r2
 1725 003a C1F81033 		str	r3, [r1, #784]
 1726              	.L113:
 1727              		.loc 1 729 1
 1728 003e 00BF     		nop
 1729 0040 0C37     		adds	r7, r7, #12
 1730              	.LCFI134:
 1731              		.cfi_def_cfa_offset 4
 1732 0042 BD46     		mov	sp, r7
 1733              	.LCFI135:
 1734              		.cfi_def_cfa_register 13
 1735              		@ sp needed
 1736 0044 5DF8047B 		ldr	r7, [sp], #4
 1737              	.LCFI136:
 1738              		.cfi_restore 7
 1739              		.cfi_def_cfa_offset 0
 1740 0048 7047     		bx	lr
 1741              	.L115:
 1742 004a 00BF     		.align	2
 1743              	.L114:
 1744 004c 00040058 		.word	1476396032
 1745 0050 0000FFFF 		.word	-65536
 1746              		.cfi_endproc
 1747              	.LFE360:
 1749              		.section	.text.HAL_SYSCFG_EnableCM7BOOT,"ax",%progbits
 1750              		.align	1
 1751              		.global	HAL_SYSCFG_EnableCM7BOOT
 1752              		.syntax unified
 1753              		.thumb
 1754              		.thumb_func
 1755              		.fpu fpv5-d16
 1757              	HAL_SYSCFG_EnableCM7BOOT:
 1758              	.LFB361:
 730:./Libraries/STM32H7xx_HAL_Driver/Src/stm32h7xx_hal.c **** 
 731:./Libraries/STM32H7xx_HAL_Driver/Src/stm32h7xx_hal.c **** /**
 732:./Libraries/STM32H7xx_HAL_Driver/Src/stm32h7xx_hal.c ****   * @brief  Enables the Cortex-M7 boot
 733:./Libraries/STM32H7xx_HAL_Driver/Src/stm32h7xx_hal.c ****   * @retval None
 734:./Libraries/STM32H7xx_HAL_Driver/Src/stm32h7xx_hal.c ****   */
 735:./Libraries/STM32H7xx_HAL_Driver/Src/stm32h7xx_hal.c **** void HAL_SYSCFG_EnableCM7BOOT(void)
 736:./Libraries/STM32H7xx_HAL_Driver/Src/stm32h7xx_hal.c **** {
 1759              		.loc 1 736 1
 1760              		.cfi_startproc
 1761              		@ args = 0, pretend = 0, frame = 0
 1762              		@ frame_needed = 1, uses_anonymous_args = 0
 1763              		@ link register save eliminated.
 1764 0000 80B4     		push	{r7}
 1765              	.LCFI137:
 1766              		.cfi_def_cfa_offset 4
 1767              		.cfi_offset 7, -4
 1768 0002 00AF     		add	r7, sp, #0
 1769              	.LCFI138:
 1770              		.cfi_def_cfa_register 7
 737:./Libraries/STM32H7xx_HAL_Driver/Src/stm32h7xx_hal.c ****  SET_BIT(SYSCFG->UR1, SYSCFG_UR1_BCM7);
 1771              		.loc 1 737 2
 1772 0004 064B     		ldr	r3, .L117
 1773 0006 D3F80433 		ldr	r3, [r3, #772]
 1774 000a 054A     		ldr	r2, .L117
ARM GAS  /tmp/cclvVaTN.s 			page 44


 1775 000c 43F48033 		orr	r3, r3, #65536
 1776 0010 C2F80433 		str	r3, [r2, #772]
 738:./Libraries/STM32H7xx_HAL_Driver/Src/stm32h7xx_hal.c **** }
 1777              		.loc 1 738 1
 1778 0014 00BF     		nop
 1779 0016 BD46     		mov	sp, r7
 1780              	.LCFI139:
 1781              		.cfi_def_cfa_register 13
 1782              		@ sp needed
 1783 0018 5DF8047B 		ldr	r7, [sp], #4
 1784              	.LCFI140:
 1785              		.cfi_restore 7
 1786              		.cfi_def_cfa_offset 0
 1787 001c 7047     		bx	lr
 1788              	.L118:
 1789 001e 00BF     		.align	2
 1790              	.L117:
 1791 0020 00040058 		.word	1476396032
 1792              		.cfi_endproc
 1793              	.LFE361:
 1795              		.section	.text.HAL_SYSCFG_DisableCM7BOOT,"ax",%progbits
 1796              		.align	1
 1797              		.global	HAL_SYSCFG_DisableCM7BOOT
 1798              		.syntax unified
 1799              		.thumb
 1800              		.thumb_func
 1801              		.fpu fpv5-d16
 1803              	HAL_SYSCFG_DisableCM7BOOT:
 1804              	.LFB362:
 739:./Libraries/STM32H7xx_HAL_Driver/Src/stm32h7xx_hal.c **** 
 740:./Libraries/STM32H7xx_HAL_Driver/Src/stm32h7xx_hal.c **** /**
 741:./Libraries/STM32H7xx_HAL_Driver/Src/stm32h7xx_hal.c ****   * @brief  Disables the Cortex-M7 boot
 742:./Libraries/STM32H7xx_HAL_Driver/Src/stm32h7xx_hal.c ****   * @note   Disabling the boot will gate the CPU clock
 743:./Libraries/STM32H7xx_HAL_Driver/Src/stm32h7xx_hal.c ****   * @retval None
 744:./Libraries/STM32H7xx_HAL_Driver/Src/stm32h7xx_hal.c ****   */
 745:./Libraries/STM32H7xx_HAL_Driver/Src/stm32h7xx_hal.c **** void HAL_SYSCFG_DisableCM7BOOT(void)
 746:./Libraries/STM32H7xx_HAL_Driver/Src/stm32h7xx_hal.c **** {
 1805              		.loc 1 746 1
 1806              		.cfi_startproc
 1807              		@ args = 0, pretend = 0, frame = 0
 1808              		@ frame_needed = 1, uses_anonymous_args = 0
 1809              		@ link register save eliminated.
 1810 0000 80B4     		push	{r7}
 1811              	.LCFI141:
 1812              		.cfi_def_cfa_offset 4
 1813              		.cfi_offset 7, -4
 1814 0002 00AF     		add	r7, sp, #0
 1815              	.LCFI142:
 1816              		.cfi_def_cfa_register 7
 747:./Libraries/STM32H7xx_HAL_Driver/Src/stm32h7xx_hal.c ****  CLEAR_BIT(SYSCFG->UR1, SYSCFG_UR1_BCM7) ;
 1817              		.loc 1 747 2
 1818 0004 064B     		ldr	r3, .L120
 1819 0006 D3F80433 		ldr	r3, [r3, #772]
 1820 000a 054A     		ldr	r2, .L120
 1821 000c 23F48033 		bic	r3, r3, #65536
 1822 0010 C2F80433 		str	r3, [r2, #772]
 748:./Libraries/STM32H7xx_HAL_Driver/Src/stm32h7xx_hal.c **** }
ARM GAS  /tmp/cclvVaTN.s 			page 45


 1823              		.loc 1 748 1
 1824 0014 00BF     		nop
 1825 0016 BD46     		mov	sp, r7
 1826              	.LCFI143:
 1827              		.cfi_def_cfa_register 13
 1828              		@ sp needed
 1829 0018 5DF8047B 		ldr	r7, [sp], #4
 1830              	.LCFI144:
 1831              		.cfi_restore 7
 1832              		.cfi_def_cfa_offset 0
 1833 001c 7047     		bx	lr
 1834              	.L121:
 1835 001e 00BF     		.align	2
 1836              	.L120:
 1837 0020 00040058 		.word	1476396032
 1838              		.cfi_endproc
 1839              	.LFE362:
 1841              		.section	.text.HAL_SYSCFG_EnableCM4BOOT,"ax",%progbits
 1842              		.align	1
 1843              		.global	HAL_SYSCFG_EnableCM4BOOT
 1844              		.syntax unified
 1845              		.thumb
 1846              		.thumb_func
 1847              		.fpu fpv5-d16
 1849              	HAL_SYSCFG_EnableCM4BOOT:
 1850              	.LFB363:
 749:./Libraries/STM32H7xx_HAL_Driver/Src/stm32h7xx_hal.c **** 
 750:./Libraries/STM32H7xx_HAL_Driver/Src/stm32h7xx_hal.c **** /**
 751:./Libraries/STM32H7xx_HAL_Driver/Src/stm32h7xx_hal.c ****   * @brief  Enables the Cortex-M4 boot
 752:./Libraries/STM32H7xx_HAL_Driver/Src/stm32h7xx_hal.c ****   * @retval None
 753:./Libraries/STM32H7xx_HAL_Driver/Src/stm32h7xx_hal.c ****   */
 754:./Libraries/STM32H7xx_HAL_Driver/Src/stm32h7xx_hal.c **** void HAL_SYSCFG_EnableCM4BOOT(void)
 755:./Libraries/STM32H7xx_HAL_Driver/Src/stm32h7xx_hal.c **** {
 1851              		.loc 1 755 1
 1852              		.cfi_startproc
 1853              		@ args = 0, pretend = 0, frame = 0
 1854              		@ frame_needed = 1, uses_anonymous_args = 0
 1855              		@ link register save eliminated.
 1856 0000 80B4     		push	{r7}
 1857              	.LCFI145:
 1858              		.cfi_def_cfa_offset 4
 1859              		.cfi_offset 7, -4
 1860 0002 00AF     		add	r7, sp, #0
 1861              	.LCFI146:
 1862              		.cfi_def_cfa_register 7
 756:./Libraries/STM32H7xx_HAL_Driver/Src/stm32h7xx_hal.c ****  SET_BIT(SYSCFG->UR1, SYSCFG_UR1_BCM4);
 1863              		.loc 1 756 2
 1864 0004 064B     		ldr	r3, .L123
 1865 0006 D3F80433 		ldr	r3, [r3, #772]
 1866 000a 054A     		ldr	r2, .L123
 1867 000c 43F00103 		orr	r3, r3, #1
 1868 0010 C2F80433 		str	r3, [r2, #772]
 757:./Libraries/STM32H7xx_HAL_Driver/Src/stm32h7xx_hal.c **** }
 1869              		.loc 1 757 1
 1870 0014 00BF     		nop
 1871 0016 BD46     		mov	sp, r7
 1872              	.LCFI147:
ARM GAS  /tmp/cclvVaTN.s 			page 46


 1873              		.cfi_def_cfa_register 13
 1874              		@ sp needed
 1875 0018 5DF8047B 		ldr	r7, [sp], #4
 1876              	.LCFI148:
 1877              		.cfi_restore 7
 1878              		.cfi_def_cfa_offset 0
 1879 001c 7047     		bx	lr
 1880              	.L124:
 1881 001e 00BF     		.align	2
 1882              	.L123:
 1883 0020 00040058 		.word	1476396032
 1884              		.cfi_endproc
 1885              	.LFE363:
 1887              		.section	.text.HAL_SYSCFG_DisableCM4BOOT,"ax",%progbits
 1888              		.align	1
 1889              		.global	HAL_SYSCFG_DisableCM4BOOT
 1890              		.syntax unified
 1891              		.thumb
 1892              		.thumb_func
 1893              		.fpu fpv5-d16
 1895              	HAL_SYSCFG_DisableCM4BOOT:
 1896              	.LFB364:
 758:./Libraries/STM32H7xx_HAL_Driver/Src/stm32h7xx_hal.c **** 
 759:./Libraries/STM32H7xx_HAL_Driver/Src/stm32h7xx_hal.c **** /**
 760:./Libraries/STM32H7xx_HAL_Driver/Src/stm32h7xx_hal.c ****   * @brief  Disables the Cortex-M4 boot
 761:./Libraries/STM32H7xx_HAL_Driver/Src/stm32h7xx_hal.c ****   * @note   Disabling the boot will gate the CPU clock
 762:./Libraries/STM32H7xx_HAL_Driver/Src/stm32h7xx_hal.c ****   * @retval None
 763:./Libraries/STM32H7xx_HAL_Driver/Src/stm32h7xx_hal.c ****   */
 764:./Libraries/STM32H7xx_HAL_Driver/Src/stm32h7xx_hal.c **** void HAL_SYSCFG_DisableCM4BOOT(void)
 765:./Libraries/STM32H7xx_HAL_Driver/Src/stm32h7xx_hal.c **** {
 1897              		.loc 1 765 1
 1898              		.cfi_startproc
 1899              		@ args = 0, pretend = 0, frame = 0
 1900              		@ frame_needed = 1, uses_anonymous_args = 0
 1901              		@ link register save eliminated.
 1902 0000 80B4     		push	{r7}
 1903              	.LCFI149:
 1904              		.cfi_def_cfa_offset 4
 1905              		.cfi_offset 7, -4
 1906 0002 00AF     		add	r7, sp, #0
 1907              	.LCFI150:
 1908              		.cfi_def_cfa_register 7
 766:./Libraries/STM32H7xx_HAL_Driver/Src/stm32h7xx_hal.c ****   CLEAR_BIT(SYSCFG->UR1, SYSCFG_UR1_BCM4);
 1909              		.loc 1 766 3
 1910 0004 064B     		ldr	r3, .L126
 1911 0006 D3F80433 		ldr	r3, [r3, #772]
 1912 000a 054A     		ldr	r2, .L126
 1913 000c 23F00103 		bic	r3, r3, #1
 1914 0010 C2F80433 		str	r3, [r2, #772]
 767:./Libraries/STM32H7xx_HAL_Driver/Src/stm32h7xx_hal.c **** }
 1915              		.loc 1 767 1
 1916 0014 00BF     		nop
 1917 0016 BD46     		mov	sp, r7
 1918              	.LCFI151:
 1919              		.cfi_def_cfa_register 13
 1920              		@ sp needed
 1921 0018 5DF8047B 		ldr	r7, [sp], #4
ARM GAS  /tmp/cclvVaTN.s 			page 47


 1922              	.LCFI152:
 1923              		.cfi_restore 7
 1924              		.cfi_def_cfa_offset 0
 1925 001c 7047     		bx	lr
 1926              	.L127:
 1927 001e 00BF     		.align	2
 1928              	.L126:
 1929 0020 00040058 		.word	1476396032
 1930              		.cfi_endproc
 1931              	.LFE364:
 1933              		.section	.text.HAL_EnableCompensationCell,"ax",%progbits
 1934              		.align	1
 1935              		.global	HAL_EnableCompensationCell
 1936              		.syntax unified
 1937              		.thumb
 1938              		.thumb_func
 1939              		.fpu fpv5-d16
 1941              	HAL_EnableCompensationCell:
 1942              	.LFB365:
 768:./Libraries/STM32H7xx_HAL_Driver/Src/stm32h7xx_hal.c **** #endif /*DUAL_CORE*/
 769:./Libraries/STM32H7xx_HAL_Driver/Src/stm32h7xx_hal.c **** /**
 770:./Libraries/STM32H7xx_HAL_Driver/Src/stm32h7xx_hal.c ****   * @brief  Enables the I/O Compensation Cell.
 771:./Libraries/STM32H7xx_HAL_Driver/Src/stm32h7xx_hal.c ****   * @note   The I/O compensation cell can be used only when the device supply
 772:./Libraries/STM32H7xx_HAL_Driver/Src/stm32h7xx_hal.c ****   *         voltage ranges from 1.62 to 2.0 V and from 2.7 to 3.6 V.
 773:./Libraries/STM32H7xx_HAL_Driver/Src/stm32h7xx_hal.c ****   * @retval None
 774:./Libraries/STM32H7xx_HAL_Driver/Src/stm32h7xx_hal.c ****   */
 775:./Libraries/STM32H7xx_HAL_Driver/Src/stm32h7xx_hal.c **** void HAL_EnableCompensationCell(void)
 776:./Libraries/STM32H7xx_HAL_Driver/Src/stm32h7xx_hal.c **** {
 1943              		.loc 1 776 1
 1944              		.cfi_startproc
 1945              		@ args = 0, pretend = 0, frame = 0
 1946              		@ frame_needed = 1, uses_anonymous_args = 0
 1947              		@ link register save eliminated.
 1948 0000 80B4     		push	{r7}
 1949              	.LCFI153:
 1950              		.cfi_def_cfa_offset 4
 1951              		.cfi_offset 7, -4
 1952 0002 00AF     		add	r7, sp, #0
 1953              	.LCFI154:
 1954              		.cfi_def_cfa_register 7
 777:./Libraries/STM32H7xx_HAL_Driver/Src/stm32h7xx_hal.c ****   SET_BIT(SYSCFG->CCCSR, SYSCFG_CCCSR_EN) ;
 1955              		.loc 1 777 3
 1956 0004 054B     		ldr	r3, .L129
 1957 0006 1B6A     		ldr	r3, [r3, #32]
 1958 0008 044A     		ldr	r2, .L129
 1959 000a 43F00103 		orr	r3, r3, #1
 1960 000e 1362     		str	r3, [r2, #32]
 778:./Libraries/STM32H7xx_HAL_Driver/Src/stm32h7xx_hal.c **** }
 1961              		.loc 1 778 1
 1962 0010 00BF     		nop
 1963 0012 BD46     		mov	sp, r7
 1964              	.LCFI155:
 1965              		.cfi_def_cfa_register 13
 1966              		@ sp needed
 1967 0014 5DF8047B 		ldr	r7, [sp], #4
 1968              	.LCFI156:
 1969              		.cfi_restore 7
ARM GAS  /tmp/cclvVaTN.s 			page 48


 1970              		.cfi_def_cfa_offset 0
 1971 0018 7047     		bx	lr
 1972              	.L130:
 1973 001a 00BF     		.align	2
 1974              	.L129:
 1975 001c 00040058 		.word	1476396032
 1976              		.cfi_endproc
 1977              	.LFE365:
 1979              		.section	.text.HAL_DisableCompensationCell,"ax",%progbits
 1980              		.align	1
 1981              		.global	HAL_DisableCompensationCell
 1982              		.syntax unified
 1983              		.thumb
 1984              		.thumb_func
 1985              		.fpu fpv5-d16
 1987              	HAL_DisableCompensationCell:
 1988              	.LFB366:
 779:./Libraries/STM32H7xx_HAL_Driver/Src/stm32h7xx_hal.c **** 
 780:./Libraries/STM32H7xx_HAL_Driver/Src/stm32h7xx_hal.c **** /**
 781:./Libraries/STM32H7xx_HAL_Driver/Src/stm32h7xx_hal.c ****   * @brief  Power-down the I/O Compensation Cell.
 782:./Libraries/STM32H7xx_HAL_Driver/Src/stm32h7xx_hal.c ****   * @note   The I/O compensation cell can be used only when the device supply
 783:./Libraries/STM32H7xx_HAL_Driver/Src/stm32h7xx_hal.c ****   *         voltage ranges from 1.62 to 2.0 V and from 2.7 to 3.6 V.
 784:./Libraries/STM32H7xx_HAL_Driver/Src/stm32h7xx_hal.c ****   * @retval None
 785:./Libraries/STM32H7xx_HAL_Driver/Src/stm32h7xx_hal.c ****   */
 786:./Libraries/STM32H7xx_HAL_Driver/Src/stm32h7xx_hal.c **** void HAL_DisableCompensationCell(void)
 787:./Libraries/STM32H7xx_HAL_Driver/Src/stm32h7xx_hal.c **** {
 1989              		.loc 1 787 1
 1990              		.cfi_startproc
 1991              		@ args = 0, pretend = 0, frame = 0
 1992              		@ frame_needed = 1, uses_anonymous_args = 0
 1993              		@ link register save eliminated.
 1994 0000 80B4     		push	{r7}
 1995              	.LCFI157:
 1996              		.cfi_def_cfa_offset 4
 1997              		.cfi_offset 7, -4
 1998 0002 00AF     		add	r7, sp, #0
 1999              	.LCFI158:
 2000              		.cfi_def_cfa_register 7
 788:./Libraries/STM32H7xx_HAL_Driver/Src/stm32h7xx_hal.c ****   CLEAR_BIT(SYSCFG->CCCSR, SYSCFG_CCCSR_EN);
 2001              		.loc 1 788 3
 2002 0004 054B     		ldr	r3, .L132
 2003 0006 1B6A     		ldr	r3, [r3, #32]
 2004 0008 044A     		ldr	r2, .L132
 2005 000a 23F00103 		bic	r3, r3, #1
 2006 000e 1362     		str	r3, [r2, #32]
 789:./Libraries/STM32H7xx_HAL_Driver/Src/stm32h7xx_hal.c **** }
 2007              		.loc 1 789 1
 2008 0010 00BF     		nop
 2009 0012 BD46     		mov	sp, r7
 2010              	.LCFI159:
 2011              		.cfi_def_cfa_register 13
 2012              		@ sp needed
 2013 0014 5DF8047B 		ldr	r7, [sp], #4
 2014              	.LCFI160:
 2015              		.cfi_restore 7
 2016              		.cfi_def_cfa_offset 0
 2017 0018 7047     		bx	lr
ARM GAS  /tmp/cclvVaTN.s 			page 49


 2018              	.L133:
 2019 001a 00BF     		.align	2
 2020              	.L132:
 2021 001c 00040058 		.word	1476396032
 2022              		.cfi_endproc
 2023              	.LFE366:
 2025              		.section	.text.HAL_SYSCFG_EnableIOSpeedOptimize,"ax",%progbits
 2026              		.align	1
 2027              		.global	HAL_SYSCFG_EnableIOSpeedOptimize
 2028              		.syntax unified
 2029              		.thumb
 2030              		.thumb_func
 2031              		.fpu fpv5-d16
 2033              	HAL_SYSCFG_EnableIOSpeedOptimize:
 2034              	.LFB367:
 790:./Libraries/STM32H7xx_HAL_Driver/Src/stm32h7xx_hal.c **** 
 791:./Libraries/STM32H7xx_HAL_Driver/Src/stm32h7xx_hal.c **** 
 792:./Libraries/STM32H7xx_HAL_Driver/Src/stm32h7xx_hal.c **** /**
 793:./Libraries/STM32H7xx_HAL_Driver/Src/stm32h7xx_hal.c ****   * @brief  To Enable optimize the I/O speed when the product voltage is low.
 794:./Libraries/STM32H7xx_HAL_Driver/Src/stm32h7xx_hal.c ****   * @note   This bit is active only if PRODUCT_BELOW_25V user option bit is set. It must be
 795:./Libraries/STM32H7xx_HAL_Driver/Src/stm32h7xx_hal.c ****   *         used only if the product supply voltage is below 2.5 V. Setting this bit when VDD is
 796:./Libraries/STM32H7xx_HAL_Driver/Src/stm32h7xx_hal.c ****   *         higher than 2.5 V might be destructive.
 797:./Libraries/STM32H7xx_HAL_Driver/Src/stm32h7xx_hal.c ****   * @retval None
 798:./Libraries/STM32H7xx_HAL_Driver/Src/stm32h7xx_hal.c ****   */
 799:./Libraries/STM32H7xx_HAL_Driver/Src/stm32h7xx_hal.c **** void HAL_SYSCFG_EnableIOSpeedOptimize(void)
 800:./Libraries/STM32H7xx_HAL_Driver/Src/stm32h7xx_hal.c **** {
 2035              		.loc 1 800 1
 2036              		.cfi_startproc
 2037              		@ args = 0, pretend = 0, frame = 0
 2038              		@ frame_needed = 1, uses_anonymous_args = 0
 2039              		@ link register save eliminated.
 2040 0000 80B4     		push	{r7}
 2041              	.LCFI161:
 2042              		.cfi_def_cfa_offset 4
 2043              		.cfi_offset 7, -4
 2044 0002 00AF     		add	r7, sp, #0
 2045              	.LCFI162:
 2046              		.cfi_def_cfa_register 7
 801:./Libraries/STM32H7xx_HAL_Driver/Src/stm32h7xx_hal.c **** #if defined(SYSCFG_CCCSR_HSLV)
 802:./Libraries/STM32H7xx_HAL_Driver/Src/stm32h7xx_hal.c ****   SET_BIT(SYSCFG->CCCSR, SYSCFG_CCCSR_HSLV);
 2047              		.loc 1 802 3
 2048 0004 054B     		ldr	r3, .L135
 2049 0006 1B6A     		ldr	r3, [r3, #32]
 2050 0008 044A     		ldr	r2, .L135
 2051 000a 43F48033 		orr	r3, r3, #65536
 2052 000e 1362     		str	r3, [r2, #32]
 803:./Libraries/STM32H7xx_HAL_Driver/Src/stm32h7xx_hal.c **** #else
 804:./Libraries/STM32H7xx_HAL_Driver/Src/stm32h7xx_hal.c ****   SET_BIT(SYSCFG->CCCSR, (SYSCFG_CCCSR_HSLV0| SYSCFG_CCCSR_HSLV1 | SYSCFG_CCCSR_HSLV2  | SYSCFG_CCC
 805:./Libraries/STM32H7xx_HAL_Driver/Src/stm32h7xx_hal.c **** #endif   /* SYSCFG_CCCSR_HSLV */
 806:./Libraries/STM32H7xx_HAL_Driver/Src/stm32h7xx_hal.c **** }
 2053              		.loc 1 806 1
 2054 0010 00BF     		nop
 2055 0012 BD46     		mov	sp, r7
 2056              	.LCFI163:
 2057              		.cfi_def_cfa_register 13
 2058              		@ sp needed
 2059 0014 5DF8047B 		ldr	r7, [sp], #4
ARM GAS  /tmp/cclvVaTN.s 			page 50


 2060              	.LCFI164:
 2061              		.cfi_restore 7
 2062              		.cfi_def_cfa_offset 0
 2063 0018 7047     		bx	lr
 2064              	.L136:
 2065 001a 00BF     		.align	2
 2066              	.L135:
 2067 001c 00040058 		.word	1476396032
 2068              		.cfi_endproc
 2069              	.LFE367:
 2071              		.section	.text.HAL_SYSCFG_DisableIOSpeedOptimize,"ax",%progbits
 2072              		.align	1
 2073              		.global	HAL_SYSCFG_DisableIOSpeedOptimize
 2074              		.syntax unified
 2075              		.thumb
 2076              		.thumb_func
 2077              		.fpu fpv5-d16
 2079              	HAL_SYSCFG_DisableIOSpeedOptimize:
 2080              	.LFB368:
 807:./Libraries/STM32H7xx_HAL_Driver/Src/stm32h7xx_hal.c **** 
 808:./Libraries/STM32H7xx_HAL_Driver/Src/stm32h7xx_hal.c **** /**
 809:./Libraries/STM32H7xx_HAL_Driver/Src/stm32h7xx_hal.c ****   * @brief  To Disable optimize the I/O speed when the product voltage is low.
 810:./Libraries/STM32H7xx_HAL_Driver/Src/stm32h7xx_hal.c ****   * @note   This bit is active only if PRODUCT_BELOW_25V user option bit is set. It must be
 811:./Libraries/STM32H7xx_HAL_Driver/Src/stm32h7xx_hal.c ****   *         used only if the product supply voltage is below 2.5 V. Setting this bit when VDD is
 812:./Libraries/STM32H7xx_HAL_Driver/Src/stm32h7xx_hal.c ****   *         higher than 2.5 V might be destructive.
 813:./Libraries/STM32H7xx_HAL_Driver/Src/stm32h7xx_hal.c ****   * @retval None
 814:./Libraries/STM32H7xx_HAL_Driver/Src/stm32h7xx_hal.c ****   */
 815:./Libraries/STM32H7xx_HAL_Driver/Src/stm32h7xx_hal.c **** void HAL_SYSCFG_DisableIOSpeedOptimize(void)
 816:./Libraries/STM32H7xx_HAL_Driver/Src/stm32h7xx_hal.c **** {
 2081              		.loc 1 816 1
 2082              		.cfi_startproc
 2083              		@ args = 0, pretend = 0, frame = 0
 2084              		@ frame_needed = 1, uses_anonymous_args = 0
 2085              		@ link register save eliminated.
 2086 0000 80B4     		push	{r7}
 2087              	.LCFI165:
 2088              		.cfi_def_cfa_offset 4
 2089              		.cfi_offset 7, -4
 2090 0002 00AF     		add	r7, sp, #0
 2091              	.LCFI166:
 2092              		.cfi_def_cfa_register 7
 817:./Libraries/STM32H7xx_HAL_Driver/Src/stm32h7xx_hal.c **** #if defined(SYSCFG_CCCSR_HSLV)
 818:./Libraries/STM32H7xx_HAL_Driver/Src/stm32h7xx_hal.c ****   CLEAR_BIT(SYSCFG->CCCSR, SYSCFG_CCCSR_HSLV);
 2093              		.loc 1 818 3
 2094 0004 054B     		ldr	r3, .L138
 2095 0006 1B6A     		ldr	r3, [r3, #32]
 2096 0008 044A     		ldr	r2, .L138
 2097 000a 23F48033 		bic	r3, r3, #65536
 2098 000e 1362     		str	r3, [r2, #32]
 819:./Libraries/STM32H7xx_HAL_Driver/Src/stm32h7xx_hal.c **** #else
 820:./Libraries/STM32H7xx_HAL_Driver/Src/stm32h7xx_hal.c ****   CLEAR_BIT(SYSCFG->CCCSR, (SYSCFG_CCCSR_HSLV0| SYSCFG_CCCSR_HSLV1 | SYSCFG_CCCSR_HSLV2  | SYSCFG_C
 821:./Libraries/STM32H7xx_HAL_Driver/Src/stm32h7xx_hal.c **** #endif   /* SYSCFG_CCCSR_HSLV */
 822:./Libraries/STM32H7xx_HAL_Driver/Src/stm32h7xx_hal.c **** }
 2099              		.loc 1 822 1
 2100 0010 00BF     		nop
 2101 0012 BD46     		mov	sp, r7
 2102              	.LCFI167:
ARM GAS  /tmp/cclvVaTN.s 			page 51


 2103              		.cfi_def_cfa_register 13
 2104              		@ sp needed
 2105 0014 5DF8047B 		ldr	r7, [sp], #4
 2106              	.LCFI168:
 2107              		.cfi_restore 7
 2108              		.cfi_def_cfa_offset 0
 2109 0018 7047     		bx	lr
 2110              	.L139:
 2111 001a 00BF     		.align	2
 2112              	.L138:
 2113 001c 00040058 		.word	1476396032
 2114              		.cfi_endproc
 2115              	.LFE368:
 2117              		.section	.text.HAL_SYSCFG_CompensationCodeSelect,"ax",%progbits
 2118              		.align	1
 2119              		.global	HAL_SYSCFG_CompensationCodeSelect
 2120              		.syntax unified
 2121              		.thumb
 2122              		.thumb_func
 2123              		.fpu fpv5-d16
 2125              	HAL_SYSCFG_CompensationCodeSelect:
 2126              	.LFB369:
 823:./Libraries/STM32H7xx_HAL_Driver/Src/stm32h7xx_hal.c **** 
 824:./Libraries/STM32H7xx_HAL_Driver/Src/stm32h7xx_hal.c **** /**
 825:./Libraries/STM32H7xx_HAL_Driver/Src/stm32h7xx_hal.c ****   * @brief  Code selection for the I/O Compensation cell
 826:./Libraries/STM32H7xx_HAL_Driver/Src/stm32h7xx_hal.c ****   * @param  SYSCFG_CompCode: Selects the code to be applied for the I/O compensation cell
 827:./Libraries/STM32H7xx_HAL_Driver/Src/stm32h7xx_hal.c ****   *   This parameter can be one of the following values:
 828:./Libraries/STM32H7xx_HAL_Driver/Src/stm32h7xx_hal.c ****   *   @arg SYSCFG_CELL_CODE : Select Code from the cell (available in the SYSCFG_CCVR)
 829:./Libraries/STM32H7xx_HAL_Driver/Src/stm32h7xx_hal.c ****   *   @arg SYSCFG_REGISTER_CODE: Select Code from the SYSCFG compensation cell code register (SYSCF
 830:./Libraries/STM32H7xx_HAL_Driver/Src/stm32h7xx_hal.c ****   * @retval None
 831:./Libraries/STM32H7xx_HAL_Driver/Src/stm32h7xx_hal.c ****   */
 832:./Libraries/STM32H7xx_HAL_Driver/Src/stm32h7xx_hal.c **** void HAL_SYSCFG_CompensationCodeSelect(uint32_t SYSCFG_CompCode)
 833:./Libraries/STM32H7xx_HAL_Driver/Src/stm32h7xx_hal.c **** {
 2127              		.loc 1 833 1
 2128              		.cfi_startproc
 2129              		@ args = 0, pretend = 0, frame = 8
 2130              		@ frame_needed = 1, uses_anonymous_args = 0
 2131              		@ link register save eliminated.
 2132 0000 80B4     		push	{r7}
 2133              	.LCFI169:
 2134              		.cfi_def_cfa_offset 4
 2135              		.cfi_offset 7, -4
 2136 0002 83B0     		sub	sp, sp, #12
 2137              	.LCFI170:
 2138              		.cfi_def_cfa_offset 16
 2139 0004 00AF     		add	r7, sp, #0
 2140              	.LCFI171:
 2141              		.cfi_def_cfa_register 7
 2142 0006 7860     		str	r0, [r7, #4]
 834:./Libraries/STM32H7xx_HAL_Driver/Src/stm32h7xx_hal.c ****   /* Check the parameter */
 835:./Libraries/STM32H7xx_HAL_Driver/Src/stm32h7xx_hal.c ****   assert_param(IS_SYSCFG_CODE_SELECT(SYSCFG_CompCode));
 836:./Libraries/STM32H7xx_HAL_Driver/Src/stm32h7xx_hal.c ****   MODIFY_REG(SYSCFG->CCCSR, SYSCFG_CCCSR_CS, (uint32_t)(SYSCFG_CompCode));
 2143              		.loc 1 836 3
 2144 0008 064B     		ldr	r3, .L141
 2145 000a 1B6A     		ldr	r3, [r3, #32]
 2146 000c 23F00202 		bic	r2, r3, #2
 2147 0010 0449     		ldr	r1, .L141
ARM GAS  /tmp/cclvVaTN.s 			page 52


 2148 0012 7B68     		ldr	r3, [r7, #4]
 2149 0014 1343     		orrs	r3, r3, r2
 2150 0016 0B62     		str	r3, [r1, #32]
 837:./Libraries/STM32H7xx_HAL_Driver/Src/stm32h7xx_hal.c **** }
 2151              		.loc 1 837 1
 2152 0018 00BF     		nop
 2153 001a 0C37     		adds	r7, r7, #12
 2154              	.LCFI172:
 2155              		.cfi_def_cfa_offset 4
 2156 001c BD46     		mov	sp, r7
 2157              	.LCFI173:
 2158              		.cfi_def_cfa_register 13
 2159              		@ sp needed
 2160 001e 5DF8047B 		ldr	r7, [sp], #4
 2161              	.LCFI174:
 2162              		.cfi_restore 7
 2163              		.cfi_def_cfa_offset 0
 2164 0022 7047     		bx	lr
 2165              	.L142:
 2166              		.align	2
 2167              	.L141:
 2168 0024 00040058 		.word	1476396032
 2169              		.cfi_endproc
 2170              	.LFE369:
 2172              		.section	.text.HAL_SYSCFG_CompensationCodeConfig,"ax",%progbits
 2173              		.align	1
 2174              		.global	HAL_SYSCFG_CompensationCodeConfig
 2175              		.syntax unified
 2176              		.thumb
 2177              		.thumb_func
 2178              		.fpu fpv5-d16
 2180              	HAL_SYSCFG_CompensationCodeConfig:
 2181              	.LFB370:
 838:./Libraries/STM32H7xx_HAL_Driver/Src/stm32h7xx_hal.c **** 
 839:./Libraries/STM32H7xx_HAL_Driver/Src/stm32h7xx_hal.c **** /**
 840:./Libraries/STM32H7xx_HAL_Driver/Src/stm32h7xx_hal.c ****   * @brief  Code selection for the I/O Compensation cell
 841:./Libraries/STM32H7xx_HAL_Driver/Src/stm32h7xx_hal.c ****   * @param  SYSCFG_PMOSCode: PMOS compensation code
 842:./Libraries/STM32H7xx_HAL_Driver/Src/stm32h7xx_hal.c ****   *         This code is applied to the I/O compensation cell when the CS bit of the
 843:./Libraries/STM32H7xx_HAL_Driver/Src/stm32h7xx_hal.c ****   *          SYSCFG_CMPCR is set
 844:./Libraries/STM32H7xx_HAL_Driver/Src/stm32h7xx_hal.c ****   * @param  SYSCFG_NMOSCode: NMOS compensation code
 845:./Libraries/STM32H7xx_HAL_Driver/Src/stm32h7xx_hal.c ****   *         This code is applied to the I/O compensation cell when the CS bit of the
 846:./Libraries/STM32H7xx_HAL_Driver/Src/stm32h7xx_hal.c ****   *          SYSCFG_CMPCR is set
 847:./Libraries/STM32H7xx_HAL_Driver/Src/stm32h7xx_hal.c ****   * @retval None
 848:./Libraries/STM32H7xx_HAL_Driver/Src/stm32h7xx_hal.c ****   */
 849:./Libraries/STM32H7xx_HAL_Driver/Src/stm32h7xx_hal.c **** void HAL_SYSCFG_CompensationCodeConfig(uint32_t SYSCFG_PMOSCode, uint32_t SYSCFG_NMOSCode )
 850:./Libraries/STM32H7xx_HAL_Driver/Src/stm32h7xx_hal.c **** {
 2182              		.loc 1 850 1
 2183              		.cfi_startproc
 2184              		@ args = 0, pretend = 0, frame = 8
 2185              		@ frame_needed = 1, uses_anonymous_args = 0
 2186              		@ link register save eliminated.
 2187 0000 80B4     		push	{r7}
 2188              	.LCFI175:
 2189              		.cfi_def_cfa_offset 4
 2190              		.cfi_offset 7, -4
 2191 0002 83B0     		sub	sp, sp, #12
 2192              	.LCFI176:
ARM GAS  /tmp/cclvVaTN.s 			page 53


 2193              		.cfi_def_cfa_offset 16
 2194 0004 00AF     		add	r7, sp, #0
 2195              	.LCFI177:
 2196              		.cfi_def_cfa_register 7
 2197 0006 7860     		str	r0, [r7, #4]
 2198 0008 3960     		str	r1, [r7]
 851:./Libraries/STM32H7xx_HAL_Driver/Src/stm32h7xx_hal.c ****   /* Check the parameter */
 852:./Libraries/STM32H7xx_HAL_Driver/Src/stm32h7xx_hal.c ****   assert_param(IS_SYSCFG_CODE_CONFIG(SYSCFG_PMOSCode));
 853:./Libraries/STM32H7xx_HAL_Driver/Src/stm32h7xx_hal.c ****   assert_param(IS_SYSCFG_CODE_CONFIG(SYSCFG_NMOSCode));
 854:./Libraries/STM32H7xx_HAL_Driver/Src/stm32h7xx_hal.c ****   MODIFY_REG(SYSCFG->CCCR, SYSCFG_CCCR_NCC|SYSCFG_CCCR_PCC, (((uint32_t)(SYSCFG_PMOSCode)<< 4)|(uin
 2199              		.loc 1 854 3
 2200 000a 084B     		ldr	r3, .L144
 2201 000c 9B6A     		ldr	r3, [r3, #40]
 2202 000e 23F0FF02 		bic	r2, r3, #255
 2203 0012 7B68     		ldr	r3, [r7, #4]
 2204 0014 1901     		lsls	r1, r3, #4
 2205 0016 3B68     		ldr	r3, [r7]
 2206 0018 0B43     		orrs	r3, r3, r1
 2207 001a 0449     		ldr	r1, .L144
 2208 001c 1343     		orrs	r3, r3, r2
 2209 001e 8B62     		str	r3, [r1, #40]
 855:./Libraries/STM32H7xx_HAL_Driver/Src/stm32h7xx_hal.c **** }
 2210              		.loc 1 855 1
 2211 0020 00BF     		nop
 2212 0022 0C37     		adds	r7, r7, #12
 2213              	.LCFI178:
 2214              		.cfi_def_cfa_offset 4
 2215 0024 BD46     		mov	sp, r7
 2216              	.LCFI179:
 2217              		.cfi_def_cfa_register 13
 2218              		@ sp needed
 2219 0026 5DF8047B 		ldr	r7, [sp], #4
 2220              	.LCFI180:
 2221              		.cfi_restore 7
 2222              		.cfi_def_cfa_offset 0
 2223 002a 7047     		bx	lr
 2224              	.L145:
 2225              		.align	2
 2226              	.L144:
 2227 002c 00040058 		.word	1476396032
 2228              		.cfi_endproc
 2229              	.LFE370:
 2231              		.section	.text.HAL_DBGMCU_EnableDBGSleepMode,"ax",%progbits
 2232              		.align	1
 2233              		.global	HAL_DBGMCU_EnableDBGSleepMode
 2234              		.syntax unified
 2235              		.thumb
 2236              		.thumb_func
 2237              		.fpu fpv5-d16
 2239              	HAL_DBGMCU_EnableDBGSleepMode:
 2240              	.LFB371:
 856:./Libraries/STM32H7xx_HAL_Driver/Src/stm32h7xx_hal.c **** 
 857:./Libraries/STM32H7xx_HAL_Driver/Src/stm32h7xx_hal.c **** #if defined(SYSCFG_CCCR_NCC_MMC)
 858:./Libraries/STM32H7xx_HAL_Driver/Src/stm32h7xx_hal.c **** /**
 859:./Libraries/STM32H7xx_HAL_Driver/Src/stm32h7xx_hal.c ****   * @brief  Code selection for the I/O Compensation cell
 860:./Libraries/STM32H7xx_HAL_Driver/Src/stm32h7xx_hal.c ****   * @param  SYSCFG_PMOSCode: VDDMMC PMOS compensation code
 861:./Libraries/STM32H7xx_HAL_Driver/Src/stm32h7xx_hal.c ****   *         This code is applied to the I/O compensation cell when the CS bit of the
ARM GAS  /tmp/cclvVaTN.s 			page 54


 862:./Libraries/STM32H7xx_HAL_Driver/Src/stm32h7xx_hal.c ****   *          SYSCFG_CMPCR is set
 863:./Libraries/STM32H7xx_HAL_Driver/Src/stm32h7xx_hal.c ****   * @param  SYSCFG_NMOSCode: VDDMMC NMOS compensation code
 864:./Libraries/STM32H7xx_HAL_Driver/Src/stm32h7xx_hal.c ****   *         This code is applied to the I/O compensation cell when the CS bit of the
 865:./Libraries/STM32H7xx_HAL_Driver/Src/stm32h7xx_hal.c ****   *          SYSCFG_CMPCR is set
 866:./Libraries/STM32H7xx_HAL_Driver/Src/stm32h7xx_hal.c ****   * @retval None
 867:./Libraries/STM32H7xx_HAL_Driver/Src/stm32h7xx_hal.c ****   */
 868:./Libraries/STM32H7xx_HAL_Driver/Src/stm32h7xx_hal.c **** void HAL_SYSCFG_VDDMMC_CompensationCodeConfig(uint32_t SYSCFG_PMOSCode, uint32_t SYSCFG_NMOSCode )
 869:./Libraries/STM32H7xx_HAL_Driver/Src/stm32h7xx_hal.c **** {
 870:./Libraries/STM32H7xx_HAL_Driver/Src/stm32h7xx_hal.c ****   /* Check the parameter */
 871:./Libraries/STM32H7xx_HAL_Driver/Src/stm32h7xx_hal.c ****   assert_param(IS_SYSCFG_CODE_CONFIG(SYSCFG_PMOSCode));
 872:./Libraries/STM32H7xx_HAL_Driver/Src/stm32h7xx_hal.c ****   assert_param(IS_SYSCFG_CODE_CONFIG(SYSCFG_NMOSCode));
 873:./Libraries/STM32H7xx_HAL_Driver/Src/stm32h7xx_hal.c ****   MODIFY_REG(SYSCFG->CCCR, (SYSCFG_CCCR_NCC_MMC | SYSCFG_CCCR_PCC_MMC), (((uint32_t)(SYSCFG_PMOSCod
 874:./Libraries/STM32H7xx_HAL_Driver/Src/stm32h7xx_hal.c **** }
 875:./Libraries/STM32H7xx_HAL_Driver/Src/stm32h7xx_hal.c **** #endif /* SYSCFG_CCCR_NCC_MMC */
 876:./Libraries/STM32H7xx_HAL_Driver/Src/stm32h7xx_hal.c **** 
 877:./Libraries/STM32H7xx_HAL_Driver/Src/stm32h7xx_hal.c **** #if defined(SYSCFG_ADC2ALT_ADC2_ROUT0)
 878:./Libraries/STM32H7xx_HAL_Driver/Src/stm32h7xx_hal.c **** /** @brief  SYSCFG ADC2 internal input alternate connection macros
 879:./Libraries/STM32H7xx_HAL_Driver/Src/stm32h7xx_hal.c ****   * @param Adc2AltRout0 This parameter can be a value of :
 880:./Libraries/STM32H7xx_HAL_Driver/Src/stm32h7xx_hal.c ****   *     @arg @ref SYSCFG_ADC2_ROUT0_DAC1_1   DAC1_out1 connected to ADC2 VINP[16]
 881:./Libraries/STM32H7xx_HAL_Driver/Src/stm32h7xx_hal.c ****   *     @arg @ref SYSCFG_ADC2_ROUT0_VBAT4    VBAT/4 connected to ADC2 VINP[16]
 882:./Libraries/STM32H7xx_HAL_Driver/Src/stm32h7xx_hal.c ****   */
 883:./Libraries/STM32H7xx_HAL_Driver/Src/stm32h7xx_hal.c **** void HAL_SYSCFG_ADC2ALT_Rout0Config(uint32_t Adc2AltRout0)
 884:./Libraries/STM32H7xx_HAL_Driver/Src/stm32h7xx_hal.c **** {
 885:./Libraries/STM32H7xx_HAL_Driver/Src/stm32h7xx_hal.c ****   /* Check the parameters */
 886:./Libraries/STM32H7xx_HAL_Driver/Src/stm32h7xx_hal.c ****   assert_param(IS_SYSCFG_ADC2ALT_ROUT0(Adc2AltRout0));
 887:./Libraries/STM32H7xx_HAL_Driver/Src/stm32h7xx_hal.c **** 
 888:./Libraries/STM32H7xx_HAL_Driver/Src/stm32h7xx_hal.c ****   MODIFY_REG(SYSCFG->ADC2ALT, SYSCFG_ADC2ALT_ADC2_ROUT0, Adc2AltRout0);
 889:./Libraries/STM32H7xx_HAL_Driver/Src/stm32h7xx_hal.c **** }
 890:./Libraries/STM32H7xx_HAL_Driver/Src/stm32h7xx_hal.c **** /**
 891:./Libraries/STM32H7xx_HAL_Driver/Src/stm32h7xx_hal.c ****   * @}
 892:./Libraries/STM32H7xx_HAL_Driver/Src/stm32h7xx_hal.c ****   */
 893:./Libraries/STM32H7xx_HAL_Driver/Src/stm32h7xx_hal.c **** #endif /*SYSCFG_ADC2ALT_ADC2_ROUT0*/
 894:./Libraries/STM32H7xx_HAL_Driver/Src/stm32h7xx_hal.c **** 
 895:./Libraries/STM32H7xx_HAL_Driver/Src/stm32h7xx_hal.c **** #if defined(SYSCFG_ADC2ALT_ADC2_ROUT1)
 896:./Libraries/STM32H7xx_HAL_Driver/Src/stm32h7xx_hal.c **** /** @brief  SYSCFG ADC2 internal input alternate connection macros
 897:./Libraries/STM32H7xx_HAL_Driver/Src/stm32h7xx_hal.c ****   * @param Adc2AltRout1  This parameter can be a value of :
 898:./Libraries/STM32H7xx_HAL_Driver/Src/stm32h7xx_hal.c ****   *     @arg @ref SYSCFG_ADC2_ROUT1_DAC1_2   DAC1_out2 connected to ADC2 VINP[17]
 899:./Libraries/STM32H7xx_HAL_Driver/Src/stm32h7xx_hal.c ****   *     @arg @ref SYSCFG_ADC2_ROUT1_VREFINT  VREFINT connected to ADC2 VINP[17]
 900:./Libraries/STM32H7xx_HAL_Driver/Src/stm32h7xx_hal.c ****   */
 901:./Libraries/STM32H7xx_HAL_Driver/Src/stm32h7xx_hal.c **** void HAL_SYSCFG_ADC2ALT_Rout1Config(uint32_t Adc2AltRout1)
 902:./Libraries/STM32H7xx_HAL_Driver/Src/stm32h7xx_hal.c **** {
 903:./Libraries/STM32H7xx_HAL_Driver/Src/stm32h7xx_hal.c ****   /* Check the parameters */
 904:./Libraries/STM32H7xx_HAL_Driver/Src/stm32h7xx_hal.c ****   assert_param(IS_SYSCFG_ADC2ALT_ROUT1(Adc2AltRout1));
 905:./Libraries/STM32H7xx_HAL_Driver/Src/stm32h7xx_hal.c **** 
 906:./Libraries/STM32H7xx_HAL_Driver/Src/stm32h7xx_hal.c ****   MODIFY_REG(SYSCFG->ADC2ALT, SYSCFG_ADC2ALT_ADC2_ROUT1, Adc2AltRout1);
 907:./Libraries/STM32H7xx_HAL_Driver/Src/stm32h7xx_hal.c **** }
 908:./Libraries/STM32H7xx_HAL_Driver/Src/stm32h7xx_hal.c **** /**
 909:./Libraries/STM32H7xx_HAL_Driver/Src/stm32h7xx_hal.c ****   * @}
 910:./Libraries/STM32H7xx_HAL_Driver/Src/stm32h7xx_hal.c ****   */
 911:./Libraries/STM32H7xx_HAL_Driver/Src/stm32h7xx_hal.c **** #endif /*SYSCFG_ADC2ALT_ADC2_ROUT1*/
 912:./Libraries/STM32H7xx_HAL_Driver/Src/stm32h7xx_hal.c **** 
 913:./Libraries/STM32H7xx_HAL_Driver/Src/stm32h7xx_hal.c **** /**
 914:./Libraries/STM32H7xx_HAL_Driver/Src/stm32h7xx_hal.c ****   * @brief  Enable the Debug Module during Domain1/CDomain SLEEP mode
 915:./Libraries/STM32H7xx_HAL_Driver/Src/stm32h7xx_hal.c ****   * @retval None
 916:./Libraries/STM32H7xx_HAL_Driver/Src/stm32h7xx_hal.c ****   */
 917:./Libraries/STM32H7xx_HAL_Driver/Src/stm32h7xx_hal.c **** void HAL_EnableDBGSleepMode(void)
 918:./Libraries/STM32H7xx_HAL_Driver/Src/stm32h7xx_hal.c **** {
ARM GAS  /tmp/cclvVaTN.s 			page 55


 2241              		.loc 1 918 1
 2242              		.cfi_startproc
 2243              		@ args = 0, pretend = 0, frame = 0
 2244              		@ frame_needed = 1, uses_anonymous_args = 0
 2245              		@ link register save eliminated.
 2246 0000 80B4     		push	{r7}
 2247              	.LCFI181:
 2248              		.cfi_def_cfa_offset 4
 2249              		.cfi_offset 7, -4
 2250 0002 00AF     		add	r7, sp, #0
 2251              	.LCFI182:
 2252              		.cfi_def_cfa_register 7
 919:./Libraries/STM32H7xx_HAL_Driver/Src/stm32h7xx_hal.c ****   SET_BIT(DBGMCU->CR, DBGMCU_CR_DBG_SLEEPD1);
 2253              		.loc 1 919 3
 2254 0004 054B     		ldr	r3, .L147
 2255 0006 5B68     		ldr	r3, [r3, #4]
 2256 0008 044A     		ldr	r2, .L147
 2257 000a 43F00103 		orr	r3, r3, #1
 2258 000e 5360     		str	r3, [r2, #4]
 920:./Libraries/STM32H7xx_HAL_Driver/Src/stm32h7xx_hal.c **** }
 2259              		.loc 1 920 1
 2260 0010 00BF     		nop
 2261 0012 BD46     		mov	sp, r7
 2262              	.LCFI183:
 2263              		.cfi_def_cfa_register 13
 2264              		@ sp needed
 2265 0014 5DF8047B 		ldr	r7, [sp], #4
 2266              	.LCFI184:
 2267              		.cfi_restore 7
 2268              		.cfi_def_cfa_offset 0
 2269 0018 7047     		bx	lr
 2270              	.L148:
 2271 001a 00BF     		.align	2
 2272              	.L147:
 2273 001c 0010005C 		.word	1543507968
 2274              		.cfi_endproc
 2275              	.LFE371:
 2277              		.section	.text.HAL_DBGMCU_DisableDBGSleepMode,"ax",%progbits
 2278              		.align	1
 2279              		.global	HAL_DBGMCU_DisableDBGSleepMode
 2280              		.syntax unified
 2281              		.thumb
 2282              		.thumb_func
 2283              		.fpu fpv5-d16
 2285              	HAL_DBGMCU_DisableDBGSleepMode:
 2286              	.LFB372:
 921:./Libraries/STM32H7xx_HAL_Driver/Src/stm32h7xx_hal.c **** 
 922:./Libraries/STM32H7xx_HAL_Driver/Src/stm32h7xx_hal.c **** /**
 923:./Libraries/STM32H7xx_HAL_Driver/Src/stm32h7xx_hal.c ****   * @brief  Disable the Debug Module during Domain1/CDomain SLEEP mode
 924:./Libraries/STM32H7xx_HAL_Driver/Src/stm32h7xx_hal.c ****   * @retval None
 925:./Libraries/STM32H7xx_HAL_Driver/Src/stm32h7xx_hal.c ****   */
 926:./Libraries/STM32H7xx_HAL_Driver/Src/stm32h7xx_hal.c **** void HAL_DisableDBGSleepMode(void)
 927:./Libraries/STM32H7xx_HAL_Driver/Src/stm32h7xx_hal.c **** {
 2287              		.loc 1 927 1
 2288              		.cfi_startproc
 2289              		@ args = 0, pretend = 0, frame = 0
 2290              		@ frame_needed = 1, uses_anonymous_args = 0
ARM GAS  /tmp/cclvVaTN.s 			page 56


 2291              		@ link register save eliminated.
 2292 0000 80B4     		push	{r7}
 2293              	.LCFI185:
 2294              		.cfi_def_cfa_offset 4
 2295              		.cfi_offset 7, -4
 2296 0002 00AF     		add	r7, sp, #0
 2297              	.LCFI186:
 2298              		.cfi_def_cfa_register 7
 928:./Libraries/STM32H7xx_HAL_Driver/Src/stm32h7xx_hal.c ****   CLEAR_BIT(DBGMCU->CR, DBGMCU_CR_DBG_SLEEPD1);
 2299              		.loc 1 928 3
 2300 0004 054B     		ldr	r3, .L150
 2301 0006 5B68     		ldr	r3, [r3, #4]
 2302 0008 044A     		ldr	r2, .L150
 2303 000a 23F00103 		bic	r3, r3, #1
 2304 000e 5360     		str	r3, [r2, #4]
 929:./Libraries/STM32H7xx_HAL_Driver/Src/stm32h7xx_hal.c **** }
 2305              		.loc 1 929 1
 2306 0010 00BF     		nop
 2307 0012 BD46     		mov	sp, r7
 2308              	.LCFI187:
 2309              		.cfi_def_cfa_register 13
 2310              		@ sp needed
 2311 0014 5DF8047B 		ldr	r7, [sp], #4
 2312              	.LCFI188:
 2313              		.cfi_restore 7
 2314              		.cfi_def_cfa_offset 0
 2315 0018 7047     		bx	lr
 2316              	.L151:
 2317 001a 00BF     		.align	2
 2318              	.L150:
 2319 001c 0010005C 		.word	1543507968
 2320              		.cfi_endproc
 2321              	.LFE372:
 2323              		.section	.text.HAL_DBGMCU_EnableDBGStopMode,"ax",%progbits
 2324              		.align	1
 2325              		.global	HAL_DBGMCU_EnableDBGStopMode
 2326              		.syntax unified
 2327              		.thumb
 2328              		.thumb_func
 2329              		.fpu fpv5-d16
 2331              	HAL_DBGMCU_EnableDBGStopMode:
 2332              	.LFB373:
 930:./Libraries/STM32H7xx_HAL_Driver/Src/stm32h7xx_hal.c **** 
 931:./Libraries/STM32H7xx_HAL_Driver/Src/stm32h7xx_hal.c **** 
 932:./Libraries/STM32H7xx_HAL_Driver/Src/stm32h7xx_hal.c **** /**
 933:./Libraries/STM32H7xx_HAL_Driver/Src/stm32h7xx_hal.c ****   * @brief  Enable the Debug Module during Domain1/CDomain STOP mode
 934:./Libraries/STM32H7xx_HAL_Driver/Src/stm32h7xx_hal.c ****   * @retval None
 935:./Libraries/STM32H7xx_HAL_Driver/Src/stm32h7xx_hal.c ****   */
 936:./Libraries/STM32H7xx_HAL_Driver/Src/stm32h7xx_hal.c **** void HAL_EnableDBGStopMode(void)
 937:./Libraries/STM32H7xx_HAL_Driver/Src/stm32h7xx_hal.c **** {
 2333              		.loc 1 937 1
 2334              		.cfi_startproc
 2335              		@ args = 0, pretend = 0, frame = 0
 2336              		@ frame_needed = 1, uses_anonymous_args = 0
 2337              		@ link register save eliminated.
 2338 0000 80B4     		push	{r7}
 2339              	.LCFI189:
ARM GAS  /tmp/cclvVaTN.s 			page 57


 2340              		.cfi_def_cfa_offset 4
 2341              		.cfi_offset 7, -4
 2342 0002 00AF     		add	r7, sp, #0
 2343              	.LCFI190:
 2344              		.cfi_def_cfa_register 7
 938:./Libraries/STM32H7xx_HAL_Driver/Src/stm32h7xx_hal.c ****   SET_BIT(DBGMCU->CR, DBGMCU_CR_DBG_STOPD1);
 2345              		.loc 1 938 3
 2346 0004 054B     		ldr	r3, .L153
 2347 0006 5B68     		ldr	r3, [r3, #4]
 2348 0008 044A     		ldr	r2, .L153
 2349 000a 43F00203 		orr	r3, r3, #2
 2350 000e 5360     		str	r3, [r2, #4]
 939:./Libraries/STM32H7xx_HAL_Driver/Src/stm32h7xx_hal.c **** }
 2351              		.loc 1 939 1
 2352 0010 00BF     		nop
 2353 0012 BD46     		mov	sp, r7
 2354              	.LCFI191:
 2355              		.cfi_def_cfa_register 13
 2356              		@ sp needed
 2357 0014 5DF8047B 		ldr	r7, [sp], #4
 2358              	.LCFI192:
 2359              		.cfi_restore 7
 2360              		.cfi_def_cfa_offset 0
 2361 0018 7047     		bx	lr
 2362              	.L154:
 2363 001a 00BF     		.align	2
 2364              	.L153:
 2365 001c 0010005C 		.word	1543507968
 2366              		.cfi_endproc
 2367              	.LFE373:
 2369              		.section	.text.HAL_DBGMCU_DisableDBGStopMode,"ax",%progbits
 2370              		.align	1
 2371              		.global	HAL_DBGMCU_DisableDBGStopMode
 2372              		.syntax unified
 2373              		.thumb
 2374              		.thumb_func
 2375              		.fpu fpv5-d16
 2377              	HAL_DBGMCU_DisableDBGStopMode:
 2378              	.LFB374:
 940:./Libraries/STM32H7xx_HAL_Driver/Src/stm32h7xx_hal.c **** 
 941:./Libraries/STM32H7xx_HAL_Driver/Src/stm32h7xx_hal.c **** /**
 942:./Libraries/STM32H7xx_HAL_Driver/Src/stm32h7xx_hal.c ****   * @brief  Disable the Debug Module during Domain1/CDomain STOP mode
 943:./Libraries/STM32H7xx_HAL_Driver/Src/stm32h7xx_hal.c ****   * @retval None
 944:./Libraries/STM32H7xx_HAL_Driver/Src/stm32h7xx_hal.c ****   */
 945:./Libraries/STM32H7xx_HAL_Driver/Src/stm32h7xx_hal.c **** void HAL_DisableDBGStopMode(void)
 946:./Libraries/STM32H7xx_HAL_Driver/Src/stm32h7xx_hal.c **** {
 2379              		.loc 1 946 1
 2380              		.cfi_startproc
 2381              		@ args = 0, pretend = 0, frame = 0
 2382              		@ frame_needed = 1, uses_anonymous_args = 0
 2383              		@ link register save eliminated.
 2384 0000 80B4     		push	{r7}
 2385              	.LCFI193:
 2386              		.cfi_def_cfa_offset 4
 2387              		.cfi_offset 7, -4
 2388 0002 00AF     		add	r7, sp, #0
 2389              	.LCFI194:
ARM GAS  /tmp/cclvVaTN.s 			page 58


 2390              		.cfi_def_cfa_register 7
 947:./Libraries/STM32H7xx_HAL_Driver/Src/stm32h7xx_hal.c ****   CLEAR_BIT(DBGMCU->CR, DBGMCU_CR_DBG_STOPD1);
 2391              		.loc 1 947 3
 2392 0004 054B     		ldr	r3, .L156
 2393 0006 5B68     		ldr	r3, [r3, #4]
 2394 0008 044A     		ldr	r2, .L156
 2395 000a 23F00203 		bic	r3, r3, #2
 2396 000e 5360     		str	r3, [r2, #4]
 948:./Libraries/STM32H7xx_HAL_Driver/Src/stm32h7xx_hal.c **** }
 2397              		.loc 1 948 1
 2398 0010 00BF     		nop
 2399 0012 BD46     		mov	sp, r7
 2400              	.LCFI195:
 2401              		.cfi_def_cfa_register 13
 2402              		@ sp needed
 2403 0014 5DF8047B 		ldr	r7, [sp], #4
 2404              	.LCFI196:
 2405              		.cfi_restore 7
 2406              		.cfi_def_cfa_offset 0
 2407 0018 7047     		bx	lr
 2408              	.L157:
 2409 001a 00BF     		.align	2
 2410              	.L156:
 2411 001c 0010005C 		.word	1543507968
 2412              		.cfi_endproc
 2413              	.LFE374:
 2415              		.section	.text.HAL_DBGMCU_EnableDBGStandbyMode,"ax",%progbits
 2416              		.align	1
 2417              		.global	HAL_DBGMCU_EnableDBGStandbyMode
 2418              		.syntax unified
 2419              		.thumb
 2420              		.thumb_func
 2421              		.fpu fpv5-d16
 2423              	HAL_DBGMCU_EnableDBGStandbyMode:
 2424              	.LFB375:
 949:./Libraries/STM32H7xx_HAL_Driver/Src/stm32h7xx_hal.c **** 
 950:./Libraries/STM32H7xx_HAL_Driver/Src/stm32h7xx_hal.c **** /**
 951:./Libraries/STM32H7xx_HAL_Driver/Src/stm32h7xx_hal.c ****   * @brief  Enable the Debug Module during Domain1/CDomain STANDBY mode
 952:./Libraries/STM32H7xx_HAL_Driver/Src/stm32h7xx_hal.c ****   * @retval None
 953:./Libraries/STM32H7xx_HAL_Driver/Src/stm32h7xx_hal.c ****   */
 954:./Libraries/STM32H7xx_HAL_Driver/Src/stm32h7xx_hal.c **** void HAL_EnableDBGStandbyMode(void)
 955:./Libraries/STM32H7xx_HAL_Driver/Src/stm32h7xx_hal.c **** {
 2425              		.loc 1 955 1
 2426              		.cfi_startproc
 2427              		@ args = 0, pretend = 0, frame = 0
 2428              		@ frame_needed = 1, uses_anonymous_args = 0
 2429              		@ link register save eliminated.
 2430 0000 80B4     		push	{r7}
 2431              	.LCFI197:
 2432              		.cfi_def_cfa_offset 4
 2433              		.cfi_offset 7, -4
 2434 0002 00AF     		add	r7, sp, #0
 2435              	.LCFI198:
 2436              		.cfi_def_cfa_register 7
 956:./Libraries/STM32H7xx_HAL_Driver/Src/stm32h7xx_hal.c ****   SET_BIT(DBGMCU->CR, DBGMCU_CR_DBG_STANDBYD1);
 2437              		.loc 1 956 3
 2438 0004 054B     		ldr	r3, .L159
ARM GAS  /tmp/cclvVaTN.s 			page 59


 2439 0006 5B68     		ldr	r3, [r3, #4]
 2440 0008 044A     		ldr	r2, .L159
 2441 000a 43F00403 		orr	r3, r3, #4
 2442 000e 5360     		str	r3, [r2, #4]
 957:./Libraries/STM32H7xx_HAL_Driver/Src/stm32h7xx_hal.c **** }
 2443              		.loc 1 957 1
 2444 0010 00BF     		nop
 2445 0012 BD46     		mov	sp, r7
 2446              	.LCFI199:
 2447              		.cfi_def_cfa_register 13
 2448              		@ sp needed
 2449 0014 5DF8047B 		ldr	r7, [sp], #4
 2450              	.LCFI200:
 2451              		.cfi_restore 7
 2452              		.cfi_def_cfa_offset 0
 2453 0018 7047     		bx	lr
 2454              	.L160:
 2455 001a 00BF     		.align	2
 2456              	.L159:
 2457 001c 0010005C 		.word	1543507968
 2458              		.cfi_endproc
 2459              	.LFE375:
 2461              		.section	.text.HAL_DBGMCU_DisableDBGStandbyMode,"ax",%progbits
 2462              		.align	1
 2463              		.global	HAL_DBGMCU_DisableDBGStandbyMode
 2464              		.syntax unified
 2465              		.thumb
 2466              		.thumb_func
 2467              		.fpu fpv5-d16
 2469              	HAL_DBGMCU_DisableDBGStandbyMode:
 2470              	.LFB376:
 958:./Libraries/STM32H7xx_HAL_Driver/Src/stm32h7xx_hal.c **** 
 959:./Libraries/STM32H7xx_HAL_Driver/Src/stm32h7xx_hal.c **** /**
 960:./Libraries/STM32H7xx_HAL_Driver/Src/stm32h7xx_hal.c ****   * @brief  Disable the Debug Module during Domain1/CDomain STANDBY mode
 961:./Libraries/STM32H7xx_HAL_Driver/Src/stm32h7xx_hal.c ****   * @retval None
 962:./Libraries/STM32H7xx_HAL_Driver/Src/stm32h7xx_hal.c ****   */
 963:./Libraries/STM32H7xx_HAL_Driver/Src/stm32h7xx_hal.c **** void HAL_DisableDBGStandbyMode(void)
 964:./Libraries/STM32H7xx_HAL_Driver/Src/stm32h7xx_hal.c **** {
 2471              		.loc 1 964 1
 2472              		.cfi_startproc
 2473              		@ args = 0, pretend = 0, frame = 0
 2474              		@ frame_needed = 1, uses_anonymous_args = 0
 2475              		@ link register save eliminated.
 2476 0000 80B4     		push	{r7}
 2477              	.LCFI201:
 2478              		.cfi_def_cfa_offset 4
 2479              		.cfi_offset 7, -4
 2480 0002 00AF     		add	r7, sp, #0
 2481              	.LCFI202:
 2482              		.cfi_def_cfa_register 7
 965:./Libraries/STM32H7xx_HAL_Driver/Src/stm32h7xx_hal.c ****   CLEAR_BIT(DBGMCU->CR, DBGMCU_CR_DBG_STANDBYD1);
 2483              		.loc 1 965 3
 2484 0004 054B     		ldr	r3, .L162
 2485 0006 5B68     		ldr	r3, [r3, #4]
 2486 0008 044A     		ldr	r2, .L162
 2487 000a 23F00403 		bic	r3, r3, #4
 2488 000e 5360     		str	r3, [r2, #4]
ARM GAS  /tmp/cclvVaTN.s 			page 60


 966:./Libraries/STM32H7xx_HAL_Driver/Src/stm32h7xx_hal.c **** }
 2489              		.loc 1 966 1
 2490 0010 00BF     		nop
 2491 0012 BD46     		mov	sp, r7
 2492              	.LCFI203:
 2493              		.cfi_def_cfa_register 13
 2494              		@ sp needed
 2495 0014 5DF8047B 		ldr	r7, [sp], #4
 2496              	.LCFI204:
 2497              		.cfi_restore 7
 2498              		.cfi_def_cfa_offset 0
 2499 0018 7047     		bx	lr
 2500              	.L163:
 2501 001a 00BF     		.align	2
 2502              	.L162:
 2503 001c 0010005C 		.word	1543507968
 2504              		.cfi_endproc
 2505              	.LFE376:
 2507              		.section	.text.HAL_EnableDomain2DBGSleepMode,"ax",%progbits
 2508              		.align	1
 2509              		.global	HAL_EnableDomain2DBGSleepMode
 2510              		.syntax unified
 2511              		.thumb
 2512              		.thumb_func
 2513              		.fpu fpv5-d16
 2515              	HAL_EnableDomain2DBGSleepMode:
 2516              	.LFB377:
 967:./Libraries/STM32H7xx_HAL_Driver/Src/stm32h7xx_hal.c **** 
 968:./Libraries/STM32H7xx_HAL_Driver/Src/stm32h7xx_hal.c **** #if defined(DUAL_CORE)
 969:./Libraries/STM32H7xx_HAL_Driver/Src/stm32h7xx_hal.c **** /**
 970:./Libraries/STM32H7xx_HAL_Driver/Src/stm32h7xx_hal.c ****   * @brief  Enable the Debug Module during Domain1 SLEEP mode
 971:./Libraries/STM32H7xx_HAL_Driver/Src/stm32h7xx_hal.c ****   * @retval None
 972:./Libraries/STM32H7xx_HAL_Driver/Src/stm32h7xx_hal.c ****   */
 973:./Libraries/STM32H7xx_HAL_Driver/Src/stm32h7xx_hal.c **** void HAL_EnableDomain2DBGSleepMode(void)
 974:./Libraries/STM32H7xx_HAL_Driver/Src/stm32h7xx_hal.c **** {
 2517              		.loc 1 974 1
 2518              		.cfi_startproc
 2519              		@ args = 0, pretend = 0, frame = 0
 2520              		@ frame_needed = 1, uses_anonymous_args = 0
 2521              		@ link register save eliminated.
 2522 0000 80B4     		push	{r7}
 2523              	.LCFI205:
 2524              		.cfi_def_cfa_offset 4
 2525              		.cfi_offset 7, -4
 2526 0002 00AF     		add	r7, sp, #0
 2527              	.LCFI206:
 2528              		.cfi_def_cfa_register 7
 975:./Libraries/STM32H7xx_HAL_Driver/Src/stm32h7xx_hal.c ****   SET_BIT(DBGMCU->CR, DBGMCU_CR_DBG_SLEEPD2);
 2529              		.loc 1 975 3
 2530 0004 054B     		ldr	r3, .L165
 2531 0006 5B68     		ldr	r3, [r3, #4]
 2532 0008 044A     		ldr	r2, .L165
 2533 000a 43F00803 		orr	r3, r3, #8
 2534 000e 5360     		str	r3, [r2, #4]
 976:./Libraries/STM32H7xx_HAL_Driver/Src/stm32h7xx_hal.c **** }
 2535              		.loc 1 976 1
 2536 0010 00BF     		nop
ARM GAS  /tmp/cclvVaTN.s 			page 61


 2537 0012 BD46     		mov	sp, r7
 2538              	.LCFI207:
 2539              		.cfi_def_cfa_register 13
 2540              		@ sp needed
 2541 0014 5DF8047B 		ldr	r7, [sp], #4
 2542              	.LCFI208:
 2543              		.cfi_restore 7
 2544              		.cfi_def_cfa_offset 0
 2545 0018 7047     		bx	lr
 2546              	.L166:
 2547 001a 00BF     		.align	2
 2548              	.L165:
 2549 001c 0010005C 		.word	1543507968
 2550              		.cfi_endproc
 2551              	.LFE377:
 2553              		.section	.text.HAL_DisableDomain2DBGSleepMode,"ax",%progbits
 2554              		.align	1
 2555              		.global	HAL_DisableDomain2DBGSleepMode
 2556              		.syntax unified
 2557              		.thumb
 2558              		.thumb_func
 2559              		.fpu fpv5-d16
 2561              	HAL_DisableDomain2DBGSleepMode:
 2562              	.LFB378:
 977:./Libraries/STM32H7xx_HAL_Driver/Src/stm32h7xx_hal.c **** 
 978:./Libraries/STM32H7xx_HAL_Driver/Src/stm32h7xx_hal.c **** /**
 979:./Libraries/STM32H7xx_HAL_Driver/Src/stm32h7xx_hal.c ****   * @brief  Disable the Debug Module during Domain2 SLEEP mode
 980:./Libraries/STM32H7xx_HAL_Driver/Src/stm32h7xx_hal.c ****   * @retval None
 981:./Libraries/STM32H7xx_HAL_Driver/Src/stm32h7xx_hal.c ****   */
 982:./Libraries/STM32H7xx_HAL_Driver/Src/stm32h7xx_hal.c **** void HAL_DisableDomain2DBGSleepMode(void)
 983:./Libraries/STM32H7xx_HAL_Driver/Src/stm32h7xx_hal.c **** {
 2563              		.loc 1 983 1
 2564              		.cfi_startproc
 2565              		@ args = 0, pretend = 0, frame = 0
 2566              		@ frame_needed = 1, uses_anonymous_args = 0
 2567              		@ link register save eliminated.
 2568 0000 80B4     		push	{r7}
 2569              	.LCFI209:
 2570              		.cfi_def_cfa_offset 4
 2571              		.cfi_offset 7, -4
 2572 0002 00AF     		add	r7, sp, #0
 2573              	.LCFI210:
 2574              		.cfi_def_cfa_register 7
 984:./Libraries/STM32H7xx_HAL_Driver/Src/stm32h7xx_hal.c ****   CLEAR_BIT(DBGMCU->CR, DBGMCU_CR_DBG_SLEEPD2);
 2575              		.loc 1 984 3
 2576 0004 054B     		ldr	r3, .L168
 2577 0006 5B68     		ldr	r3, [r3, #4]
 2578 0008 044A     		ldr	r2, .L168
 2579 000a 23F00803 		bic	r3, r3, #8
 2580 000e 5360     		str	r3, [r2, #4]
 985:./Libraries/STM32H7xx_HAL_Driver/Src/stm32h7xx_hal.c **** }
 2581              		.loc 1 985 1
 2582 0010 00BF     		nop
 2583 0012 BD46     		mov	sp, r7
 2584              	.LCFI211:
 2585              		.cfi_def_cfa_register 13
 2586              		@ sp needed
ARM GAS  /tmp/cclvVaTN.s 			page 62


 2587 0014 5DF8047B 		ldr	r7, [sp], #4
 2588              	.LCFI212:
 2589              		.cfi_restore 7
 2590              		.cfi_def_cfa_offset 0
 2591 0018 7047     		bx	lr
 2592              	.L169:
 2593 001a 00BF     		.align	2
 2594              	.L168:
 2595 001c 0010005C 		.word	1543507968
 2596              		.cfi_endproc
 2597              	.LFE378:
 2599              		.section	.text.HAL_EnableDomain2DBGStopMode,"ax",%progbits
 2600              		.align	1
 2601              		.global	HAL_EnableDomain2DBGStopMode
 2602              		.syntax unified
 2603              		.thumb
 2604              		.thumb_func
 2605              		.fpu fpv5-d16
 2607              	HAL_EnableDomain2DBGStopMode:
 2608              	.LFB379:
 986:./Libraries/STM32H7xx_HAL_Driver/Src/stm32h7xx_hal.c **** 
 987:./Libraries/STM32H7xx_HAL_Driver/Src/stm32h7xx_hal.c **** /**
 988:./Libraries/STM32H7xx_HAL_Driver/Src/stm32h7xx_hal.c ****   * @brief  Enable the Debug Module during Domain2 STOP mode
 989:./Libraries/STM32H7xx_HAL_Driver/Src/stm32h7xx_hal.c ****   * @retval None
 990:./Libraries/STM32H7xx_HAL_Driver/Src/stm32h7xx_hal.c ****   */
 991:./Libraries/STM32H7xx_HAL_Driver/Src/stm32h7xx_hal.c **** void HAL_EnableDomain2DBGStopMode(void)
 992:./Libraries/STM32H7xx_HAL_Driver/Src/stm32h7xx_hal.c **** {
 2609              		.loc 1 992 1
 2610              		.cfi_startproc
 2611              		@ args = 0, pretend = 0, frame = 0
 2612              		@ frame_needed = 1, uses_anonymous_args = 0
 2613              		@ link register save eliminated.
 2614 0000 80B4     		push	{r7}
 2615              	.LCFI213:
 2616              		.cfi_def_cfa_offset 4
 2617              		.cfi_offset 7, -4
 2618 0002 00AF     		add	r7, sp, #0
 2619              	.LCFI214:
 2620              		.cfi_def_cfa_register 7
 993:./Libraries/STM32H7xx_HAL_Driver/Src/stm32h7xx_hal.c ****   SET_BIT(DBGMCU->CR, DBGMCU_CR_DBG_STOPD2);
 2621              		.loc 1 993 3
 2622 0004 054B     		ldr	r3, .L171
 2623 0006 5B68     		ldr	r3, [r3, #4]
 2624 0008 044A     		ldr	r2, .L171
 2625 000a 43F01003 		orr	r3, r3, #16
 2626 000e 5360     		str	r3, [r2, #4]
 994:./Libraries/STM32H7xx_HAL_Driver/Src/stm32h7xx_hal.c **** }
 2627              		.loc 1 994 1
 2628 0010 00BF     		nop
 2629 0012 BD46     		mov	sp, r7
 2630              	.LCFI215:
 2631              		.cfi_def_cfa_register 13
 2632              		@ sp needed
 2633 0014 5DF8047B 		ldr	r7, [sp], #4
 2634              	.LCFI216:
 2635              		.cfi_restore 7
 2636              		.cfi_def_cfa_offset 0
ARM GAS  /tmp/cclvVaTN.s 			page 63


 2637 0018 7047     		bx	lr
 2638              	.L172:
 2639 001a 00BF     		.align	2
 2640              	.L171:
 2641 001c 0010005C 		.word	1543507968
 2642              		.cfi_endproc
 2643              	.LFE379:
 2645              		.section	.text.HAL_DisableDomain2DBGStopMode,"ax",%progbits
 2646              		.align	1
 2647              		.global	HAL_DisableDomain2DBGStopMode
 2648              		.syntax unified
 2649              		.thumb
 2650              		.thumb_func
 2651              		.fpu fpv5-d16
 2653              	HAL_DisableDomain2DBGStopMode:
 2654              	.LFB380:
 995:./Libraries/STM32H7xx_HAL_Driver/Src/stm32h7xx_hal.c **** 
 996:./Libraries/STM32H7xx_HAL_Driver/Src/stm32h7xx_hal.c **** /**
 997:./Libraries/STM32H7xx_HAL_Driver/Src/stm32h7xx_hal.c ****   * @brief  Disable the Debug Module during Domain2 STOP mode
 998:./Libraries/STM32H7xx_HAL_Driver/Src/stm32h7xx_hal.c ****   * @retval None
 999:./Libraries/STM32H7xx_HAL_Driver/Src/stm32h7xx_hal.c ****   */
1000:./Libraries/STM32H7xx_HAL_Driver/Src/stm32h7xx_hal.c **** void HAL_DisableDomain2DBGStopMode(void)
1001:./Libraries/STM32H7xx_HAL_Driver/Src/stm32h7xx_hal.c **** {
 2655              		.loc 1 1001 1
 2656              		.cfi_startproc
 2657              		@ args = 0, pretend = 0, frame = 0
 2658              		@ frame_needed = 1, uses_anonymous_args = 0
 2659              		@ link register save eliminated.
 2660 0000 80B4     		push	{r7}
 2661              	.LCFI217:
 2662              		.cfi_def_cfa_offset 4
 2663              		.cfi_offset 7, -4
 2664 0002 00AF     		add	r7, sp, #0
 2665              	.LCFI218:
 2666              		.cfi_def_cfa_register 7
1002:./Libraries/STM32H7xx_HAL_Driver/Src/stm32h7xx_hal.c ****   CLEAR_BIT(DBGMCU->CR, DBGMCU_CR_DBG_STOPD2);
 2667              		.loc 1 1002 3
 2668 0004 054B     		ldr	r3, .L174
 2669 0006 5B68     		ldr	r3, [r3, #4]
 2670 0008 044A     		ldr	r2, .L174
 2671 000a 23F01003 		bic	r3, r3, #16
 2672 000e 5360     		str	r3, [r2, #4]
1003:./Libraries/STM32H7xx_HAL_Driver/Src/stm32h7xx_hal.c **** }
 2673              		.loc 1 1003 1
 2674 0010 00BF     		nop
 2675 0012 BD46     		mov	sp, r7
 2676              	.LCFI219:
 2677              		.cfi_def_cfa_register 13
 2678              		@ sp needed
 2679 0014 5DF8047B 		ldr	r7, [sp], #4
 2680              	.LCFI220:
 2681              		.cfi_restore 7
 2682              		.cfi_def_cfa_offset 0
 2683 0018 7047     		bx	lr
 2684              	.L175:
 2685 001a 00BF     		.align	2
 2686              	.L174:
ARM GAS  /tmp/cclvVaTN.s 			page 64


 2687 001c 0010005C 		.word	1543507968
 2688              		.cfi_endproc
 2689              	.LFE380:
 2691              		.section	.text.HAL_EnableDomain2DBGStandbyMode,"ax",%progbits
 2692              		.align	1
 2693              		.global	HAL_EnableDomain2DBGStandbyMode
 2694              		.syntax unified
 2695              		.thumb
 2696              		.thumb_func
 2697              		.fpu fpv5-d16
 2699              	HAL_EnableDomain2DBGStandbyMode:
 2700              	.LFB381:
1004:./Libraries/STM32H7xx_HAL_Driver/Src/stm32h7xx_hal.c **** 
1005:./Libraries/STM32H7xx_HAL_Driver/Src/stm32h7xx_hal.c **** /**
1006:./Libraries/STM32H7xx_HAL_Driver/Src/stm32h7xx_hal.c ****   * @brief  Enable the Debug Module during Domain2 STANDBY mode
1007:./Libraries/STM32H7xx_HAL_Driver/Src/stm32h7xx_hal.c ****   * @retval None
1008:./Libraries/STM32H7xx_HAL_Driver/Src/stm32h7xx_hal.c ****   */
1009:./Libraries/STM32H7xx_HAL_Driver/Src/stm32h7xx_hal.c **** void HAL_EnableDomain2DBGStandbyMode(void)
1010:./Libraries/STM32H7xx_HAL_Driver/Src/stm32h7xx_hal.c **** {
 2701              		.loc 1 1010 1
 2702              		.cfi_startproc
 2703              		@ args = 0, pretend = 0, frame = 0
 2704              		@ frame_needed = 1, uses_anonymous_args = 0
 2705              		@ link register save eliminated.
 2706 0000 80B4     		push	{r7}
 2707              	.LCFI221:
 2708              		.cfi_def_cfa_offset 4
 2709              		.cfi_offset 7, -4
 2710 0002 00AF     		add	r7, sp, #0
 2711              	.LCFI222:
 2712              		.cfi_def_cfa_register 7
1011:./Libraries/STM32H7xx_HAL_Driver/Src/stm32h7xx_hal.c ****   SET_BIT(DBGMCU->CR, DBGMCU_CR_DBG_STANDBYD2);
 2713              		.loc 1 1011 3
 2714 0004 054B     		ldr	r3, .L177
 2715 0006 5B68     		ldr	r3, [r3, #4]
 2716 0008 044A     		ldr	r2, .L177
 2717 000a 43F02003 		orr	r3, r3, #32
 2718 000e 5360     		str	r3, [r2, #4]
1012:./Libraries/STM32H7xx_HAL_Driver/Src/stm32h7xx_hal.c **** }
 2719              		.loc 1 1012 1
 2720 0010 00BF     		nop
 2721 0012 BD46     		mov	sp, r7
 2722              	.LCFI223:
 2723              		.cfi_def_cfa_register 13
 2724              		@ sp needed
 2725 0014 5DF8047B 		ldr	r7, [sp], #4
 2726              	.LCFI224:
 2727              		.cfi_restore 7
 2728              		.cfi_def_cfa_offset 0
 2729 0018 7047     		bx	lr
 2730              	.L178:
 2731 001a 00BF     		.align	2
 2732              	.L177:
 2733 001c 0010005C 		.word	1543507968
 2734              		.cfi_endproc
 2735              	.LFE381:
 2737              		.section	.text.HAL_DisableDomain2DBGStandbyMode,"ax",%progbits
ARM GAS  /tmp/cclvVaTN.s 			page 65


 2738              		.align	1
 2739              		.global	HAL_DisableDomain2DBGStandbyMode
 2740              		.syntax unified
 2741              		.thumb
 2742              		.thumb_func
 2743              		.fpu fpv5-d16
 2745              	HAL_DisableDomain2DBGStandbyMode:
 2746              	.LFB382:
1013:./Libraries/STM32H7xx_HAL_Driver/Src/stm32h7xx_hal.c **** 
1014:./Libraries/STM32H7xx_HAL_Driver/Src/stm32h7xx_hal.c **** /**
1015:./Libraries/STM32H7xx_HAL_Driver/Src/stm32h7xx_hal.c ****   * @brief  Disable the Debug Module during Domain2 STANDBY mode
1016:./Libraries/STM32H7xx_HAL_Driver/Src/stm32h7xx_hal.c ****   * @retval None
1017:./Libraries/STM32H7xx_HAL_Driver/Src/stm32h7xx_hal.c ****   */
1018:./Libraries/STM32H7xx_HAL_Driver/Src/stm32h7xx_hal.c **** void HAL_DisableDomain2DBGStandbyMode(void)
1019:./Libraries/STM32H7xx_HAL_Driver/Src/stm32h7xx_hal.c **** {
 2747              		.loc 1 1019 1
 2748              		.cfi_startproc
 2749              		@ args = 0, pretend = 0, frame = 0
 2750              		@ frame_needed = 1, uses_anonymous_args = 0
 2751              		@ link register save eliminated.
 2752 0000 80B4     		push	{r7}
 2753              	.LCFI225:
 2754              		.cfi_def_cfa_offset 4
 2755              		.cfi_offset 7, -4
 2756 0002 00AF     		add	r7, sp, #0
 2757              	.LCFI226:
 2758              		.cfi_def_cfa_register 7
1020:./Libraries/STM32H7xx_HAL_Driver/Src/stm32h7xx_hal.c ****   CLEAR_BIT(DBGMCU->CR, DBGMCU_CR_DBG_STANDBYD2);
 2759              		.loc 1 1020 3
 2760 0004 054B     		ldr	r3, .L180
 2761 0006 5B68     		ldr	r3, [r3, #4]
 2762 0008 044A     		ldr	r2, .L180
 2763 000a 23F02003 		bic	r3, r3, #32
 2764 000e 5360     		str	r3, [r2, #4]
1021:./Libraries/STM32H7xx_HAL_Driver/Src/stm32h7xx_hal.c **** }
 2765              		.loc 1 1021 1
 2766 0010 00BF     		nop
 2767 0012 BD46     		mov	sp, r7
 2768              	.LCFI227:
 2769              		.cfi_def_cfa_register 13
 2770              		@ sp needed
 2771 0014 5DF8047B 		ldr	r7, [sp], #4
 2772              	.LCFI228:
 2773              		.cfi_restore 7
 2774              		.cfi_def_cfa_offset 0
 2775 0018 7047     		bx	lr
 2776              	.L181:
 2777 001a 00BF     		.align	2
 2778              	.L180:
 2779 001c 0010005C 		.word	1543507968
 2780              		.cfi_endproc
 2781              	.LFE382:
 2783              		.section	.text.HAL_SetFMCMemorySwappingConfig,"ax",%progbits
 2784              		.align	1
 2785              		.global	HAL_SetFMCMemorySwappingConfig
 2786              		.syntax unified
 2787              		.thumb
ARM GAS  /tmp/cclvVaTN.s 			page 66


 2788              		.thumb_func
 2789              		.fpu fpv5-d16
 2791              	HAL_SetFMCMemorySwappingConfig:
 2792              	.LFB383:
1022:./Libraries/STM32H7xx_HAL_Driver/Src/stm32h7xx_hal.c **** #endif /*DUAL_CORE*/
1023:./Libraries/STM32H7xx_HAL_Driver/Src/stm32h7xx_hal.c **** 
1024:./Libraries/STM32H7xx_HAL_Driver/Src/stm32h7xx_hal.c **** #if defined(DBGMCU_CR_DBG_STOPD3)
1025:./Libraries/STM32H7xx_HAL_Driver/Src/stm32h7xx_hal.c **** /**
1026:./Libraries/STM32H7xx_HAL_Driver/Src/stm32h7xx_hal.c ****   * @brief  Enable the Debug Module during Domain3/SRDomain STOP mode
1027:./Libraries/STM32H7xx_HAL_Driver/Src/stm32h7xx_hal.c ****   * @retval None
1028:./Libraries/STM32H7xx_HAL_Driver/Src/stm32h7xx_hal.c ****   */
1029:./Libraries/STM32H7xx_HAL_Driver/Src/stm32h7xx_hal.c **** void HAL_EnableDomain3DBGStopMode(void)
1030:./Libraries/STM32H7xx_HAL_Driver/Src/stm32h7xx_hal.c **** {
1031:./Libraries/STM32H7xx_HAL_Driver/Src/stm32h7xx_hal.c ****   SET_BIT(DBGMCU->CR, DBGMCU_CR_DBG_STOPD3);
1032:./Libraries/STM32H7xx_HAL_Driver/Src/stm32h7xx_hal.c **** }
1033:./Libraries/STM32H7xx_HAL_Driver/Src/stm32h7xx_hal.c **** 
1034:./Libraries/STM32H7xx_HAL_Driver/Src/stm32h7xx_hal.c **** /**
1035:./Libraries/STM32H7xx_HAL_Driver/Src/stm32h7xx_hal.c ****   * @brief  Disable the Debug Module during Domain3/SRDomain STOP mode
1036:./Libraries/STM32H7xx_HAL_Driver/Src/stm32h7xx_hal.c ****   * @retval None
1037:./Libraries/STM32H7xx_HAL_Driver/Src/stm32h7xx_hal.c ****   */
1038:./Libraries/STM32H7xx_HAL_Driver/Src/stm32h7xx_hal.c **** void HAL_DisableDomain3DBGStopMode(void)
1039:./Libraries/STM32H7xx_HAL_Driver/Src/stm32h7xx_hal.c **** {
1040:./Libraries/STM32H7xx_HAL_Driver/Src/stm32h7xx_hal.c ****   CLEAR_BIT(DBGMCU->CR, DBGMCU_CR_DBG_STOPD3);
1041:./Libraries/STM32H7xx_HAL_Driver/Src/stm32h7xx_hal.c **** }
1042:./Libraries/STM32H7xx_HAL_Driver/Src/stm32h7xx_hal.c **** #endif /*DBGMCU_CR_DBG_STOPD3*/
1043:./Libraries/STM32H7xx_HAL_Driver/Src/stm32h7xx_hal.c **** 
1044:./Libraries/STM32H7xx_HAL_Driver/Src/stm32h7xx_hal.c **** #if defined(DBGMCU_CR_DBG_STANDBYD3)
1045:./Libraries/STM32H7xx_HAL_Driver/Src/stm32h7xx_hal.c **** /**
1046:./Libraries/STM32H7xx_HAL_Driver/Src/stm32h7xx_hal.c ****   * @brief  Enable the Debug Module during Domain3/SRDomain STANDBY mode
1047:./Libraries/STM32H7xx_HAL_Driver/Src/stm32h7xx_hal.c ****   * @retval None
1048:./Libraries/STM32H7xx_HAL_Driver/Src/stm32h7xx_hal.c ****   */
1049:./Libraries/STM32H7xx_HAL_Driver/Src/stm32h7xx_hal.c **** void HAL_EnableDomain3DBGStandbyMode(void)
1050:./Libraries/STM32H7xx_HAL_Driver/Src/stm32h7xx_hal.c **** {
1051:./Libraries/STM32H7xx_HAL_Driver/Src/stm32h7xx_hal.c ****   SET_BIT(DBGMCU->CR, DBGMCU_CR_DBG_STANDBYD3);
1052:./Libraries/STM32H7xx_HAL_Driver/Src/stm32h7xx_hal.c **** }
1053:./Libraries/STM32H7xx_HAL_Driver/Src/stm32h7xx_hal.c **** 
1054:./Libraries/STM32H7xx_HAL_Driver/Src/stm32h7xx_hal.c **** /**
1055:./Libraries/STM32H7xx_HAL_Driver/Src/stm32h7xx_hal.c ****   * @brief  Disable the Debug Module during Domain3/SRDomain STANDBY mode
1056:./Libraries/STM32H7xx_HAL_Driver/Src/stm32h7xx_hal.c ****   * @retval None
1057:./Libraries/STM32H7xx_HAL_Driver/Src/stm32h7xx_hal.c ****   */
1058:./Libraries/STM32H7xx_HAL_Driver/Src/stm32h7xx_hal.c **** void HAL_DisableDomain3DBGStandbyMode(void)
1059:./Libraries/STM32H7xx_HAL_Driver/Src/stm32h7xx_hal.c **** {
1060:./Libraries/STM32H7xx_HAL_Driver/Src/stm32h7xx_hal.c ****   CLEAR_BIT(DBGMCU->CR, DBGMCU_CR_DBG_STANDBYD3);
1061:./Libraries/STM32H7xx_HAL_Driver/Src/stm32h7xx_hal.c **** }
1062:./Libraries/STM32H7xx_HAL_Driver/Src/stm32h7xx_hal.c **** #endif /*DBGMCU_CR_DBG_STANDBYD3*/
1063:./Libraries/STM32H7xx_HAL_Driver/Src/stm32h7xx_hal.c **** 
1064:./Libraries/STM32H7xx_HAL_Driver/Src/stm32h7xx_hal.c **** /**
1065:./Libraries/STM32H7xx_HAL_Driver/Src/stm32h7xx_hal.c ****   * @brief  Set the FMC Memory Mapping Swapping config.
1066:./Libraries/STM32H7xx_HAL_Driver/Src/stm32h7xx_hal.c ****   * @param  BankMapConfig: Defines the FMC Bank mapping configuration. This parameter can be
1067:./Libraries/STM32H7xx_HAL_Driver/Src/stm32h7xx_hal.c ****             FMC_SWAPBMAP_DISABLE, FMC_SWAPBMAP_SDRAM_SRAM, FMC_SWAPBMAP_SDRAMB2
1068:./Libraries/STM32H7xx_HAL_Driver/Src/stm32h7xx_hal.c ****   * @retval HAL state
1069:./Libraries/STM32H7xx_HAL_Driver/Src/stm32h7xx_hal.c ****   */
1070:./Libraries/STM32H7xx_HAL_Driver/Src/stm32h7xx_hal.c **** void HAL_SetFMCMemorySwappingConfig(uint32_t BankMapConfig)
1071:./Libraries/STM32H7xx_HAL_Driver/Src/stm32h7xx_hal.c **** {
 2793              		.loc 1 1071 1
 2794              		.cfi_startproc
 2795              		@ args = 0, pretend = 0, frame = 8
ARM GAS  /tmp/cclvVaTN.s 			page 67


 2796              		@ frame_needed = 1, uses_anonymous_args = 0
 2797              		@ link register save eliminated.
 2798 0000 80B4     		push	{r7}
 2799              	.LCFI229:
 2800              		.cfi_def_cfa_offset 4
 2801              		.cfi_offset 7, -4
 2802 0002 83B0     		sub	sp, sp, #12
 2803              	.LCFI230:
 2804              		.cfi_def_cfa_offset 16
 2805 0004 00AF     		add	r7, sp, #0
 2806              	.LCFI231:
 2807              		.cfi_def_cfa_register 7
 2808 0006 7860     		str	r0, [r7, #4]
1072:./Libraries/STM32H7xx_HAL_Driver/Src/stm32h7xx_hal.c ****   /* Check the parameter */
1073:./Libraries/STM32H7xx_HAL_Driver/Src/stm32h7xx_hal.c ****   assert_param(IS_FMC_SWAPBMAP_MODE(BankMapConfig));
1074:./Libraries/STM32H7xx_HAL_Driver/Src/stm32h7xx_hal.c ****   MODIFY_REG(FMC_Bank1_R->BTCR[0], FMC_BCR1_BMAP, BankMapConfig);
 2809              		.loc 1 1074 3
 2810 0008 064B     		ldr	r3, .L183
 2811 000a 1B68     		ldr	r3, [r3]
 2812 000c 23F04072 		bic	r2, r3, #50331648
 2813 0010 0449     		ldr	r1, .L183
 2814 0012 7B68     		ldr	r3, [r7, #4]
 2815 0014 1343     		orrs	r3, r3, r2
 2816 0016 0B60     		str	r3, [r1]
1075:./Libraries/STM32H7xx_HAL_Driver/Src/stm32h7xx_hal.c **** }
 2817              		.loc 1 1075 1
 2818 0018 00BF     		nop
 2819 001a 0C37     		adds	r7, r7, #12
 2820              	.LCFI232:
 2821              		.cfi_def_cfa_offset 4
 2822 001c BD46     		mov	sp, r7
 2823              	.LCFI233:
 2824              		.cfi_def_cfa_register 13
 2825              		@ sp needed
 2826 001e 5DF8047B 		ldr	r7, [sp], #4
 2827              	.LCFI234:
 2828              		.cfi_restore 7
 2829              		.cfi_def_cfa_offset 0
 2830 0022 7047     		bx	lr
 2831              	.L184:
 2832              		.align	2
 2833              	.L183:
 2834 0024 00400052 		.word	1375748096
 2835              		.cfi_endproc
 2836              	.LFE383:
 2838              		.section	.text.HAL_GetFMCMemorySwappingConfig,"ax",%progbits
 2839              		.align	1
 2840              		.global	HAL_GetFMCMemorySwappingConfig
 2841              		.syntax unified
 2842              		.thumb
 2843              		.thumb_func
 2844              		.fpu fpv5-d16
 2846              	HAL_GetFMCMemorySwappingConfig:
 2847              	.LFB384:
1076:./Libraries/STM32H7xx_HAL_Driver/Src/stm32h7xx_hal.c **** 
1077:./Libraries/STM32H7xx_HAL_Driver/Src/stm32h7xx_hal.c **** /**
1078:./Libraries/STM32H7xx_HAL_Driver/Src/stm32h7xx_hal.c ****   * @brief  Get FMC Bank mapping mode.
ARM GAS  /tmp/cclvVaTN.s 			page 68


1079:./Libraries/STM32H7xx_HAL_Driver/Src/stm32h7xx_hal.c ****   * @retval The FMC Bank mapping mode. This parameter can be
1080:./Libraries/STM32H7xx_HAL_Driver/Src/stm32h7xx_hal.c ****             FMC_SWAPBMAP_DISABLE, FMC_SWAPBMAP_SDRAM_SRAM, FMC_SWAPBMAP_SDRAMB2
1081:./Libraries/STM32H7xx_HAL_Driver/Src/stm32h7xx_hal.c **** */
1082:./Libraries/STM32H7xx_HAL_Driver/Src/stm32h7xx_hal.c **** uint32_t HAL_GetFMCMemorySwappingConfig(void)
1083:./Libraries/STM32H7xx_HAL_Driver/Src/stm32h7xx_hal.c **** {
 2848              		.loc 1 1083 1
 2849              		.cfi_startproc
 2850              		@ args = 0, pretend = 0, frame = 0
 2851              		@ frame_needed = 1, uses_anonymous_args = 0
 2852              		@ link register save eliminated.
 2853 0000 80B4     		push	{r7}
 2854              	.LCFI235:
 2855              		.cfi_def_cfa_offset 4
 2856              		.cfi_offset 7, -4
 2857 0002 00AF     		add	r7, sp, #0
 2858              	.LCFI236:
 2859              		.cfi_def_cfa_register 7
1084:./Libraries/STM32H7xx_HAL_Driver/Src/stm32h7xx_hal.c ****   return READ_BIT(FMC_Bank1_R->BTCR[0], FMC_BCR1_BMAP);
 2860              		.loc 1 1084 10
 2861 0004 044B     		ldr	r3, .L187
 2862 0006 1B68     		ldr	r3, [r3]
 2863 0008 03F04073 		and	r3, r3, #50331648
1085:./Libraries/STM32H7xx_HAL_Driver/Src/stm32h7xx_hal.c **** }
 2864              		.loc 1 1085 1
 2865 000c 1846     		mov	r0, r3
 2866 000e BD46     		mov	sp, r7
 2867              	.LCFI237:
 2868              		.cfi_def_cfa_register 13
 2869              		@ sp needed
 2870 0010 5DF8047B 		ldr	r7, [sp], #4
 2871              	.LCFI238:
 2872              		.cfi_restore 7
 2873              		.cfi_def_cfa_offset 0
 2874 0014 7047     		bx	lr
 2875              	.L188:
 2876 0016 00BF     		.align	2
 2877              	.L187:
 2878 0018 00400052 		.word	1375748096
 2879              		.cfi_endproc
 2880              	.LFE384:
 2882              		.section	.text.HAL_EXTI_EdgeConfig,"ax",%progbits
 2883              		.align	1
 2884              		.global	HAL_EXTI_EdgeConfig
 2885              		.syntax unified
 2886              		.thumb
 2887              		.thumb_func
 2888              		.fpu fpv5-d16
 2890              	HAL_EXTI_EdgeConfig:
 2891              	.LFB385:
1086:./Libraries/STM32H7xx_HAL_Driver/Src/stm32h7xx_hal.c **** 
1087:./Libraries/STM32H7xx_HAL_Driver/Src/stm32h7xx_hal.c **** /**
1088:./Libraries/STM32H7xx_HAL_Driver/Src/stm32h7xx_hal.c ****   * @brief  Configure the EXTI input event line edge
1089:./Libraries/STM32H7xx_HAL_Driver/Src/stm32h7xx_hal.c ****   * @note    No edge configuration for direct lines but for configurable lines:(EXTI_LINE0..EXTI_LI
1090:./Libraries/STM32H7xx_HAL_Driver/Src/stm32h7xx_hal.c ****   *          EXTI_LINE49,EXTI_LINE51,EXTI_LINE82,EXTI_LINE84,EXTI_LINE85 and EXTI_LINE86.
1091:./Libraries/STM32H7xx_HAL_Driver/Src/stm32h7xx_hal.c ****   * @param   EXTI_Line: Specifies the EXTI LINE, it can be one of the following values,
1092:./Libraries/STM32H7xx_HAL_Driver/Src/stm32h7xx_hal.c ****   *         (EXTI_LINE0....EXTI_LINE87)excluding :line45, line81,line83 which are reserved
1093:./Libraries/STM32H7xx_HAL_Driver/Src/stm32h7xx_hal.c ****   * @param   EXTI_Edge: Specifies  EXTI line Edge used.
ARM GAS  /tmp/cclvVaTN.s 			page 69


1094:./Libraries/STM32H7xx_HAL_Driver/Src/stm32h7xx_hal.c ****   *          This parameter can be one of the following values :
1095:./Libraries/STM32H7xx_HAL_Driver/Src/stm32h7xx_hal.c ****   *   @arg EXTI_RISING_EDGE : Configurable line, with Rising edge trigger detection
1096:./Libraries/STM32H7xx_HAL_Driver/Src/stm32h7xx_hal.c ****   *   @arg EXTI_FALLING_EDGE: Configurable line, with Falling edge trigger detection
1097:./Libraries/STM32H7xx_HAL_Driver/Src/stm32h7xx_hal.c ****   * @retval None
1098:./Libraries/STM32H7xx_HAL_Driver/Src/stm32h7xx_hal.c ****   */
1099:./Libraries/STM32H7xx_HAL_Driver/Src/stm32h7xx_hal.c **** void HAL_EXTI_EdgeConfig(uint32_t EXTI_Line , uint32_t EXTI_Edge )
1100:./Libraries/STM32H7xx_HAL_Driver/Src/stm32h7xx_hal.c **** {
 2892              		.loc 1 1100 1
 2893              		.cfi_startproc
 2894              		@ args = 0, pretend = 0, frame = 8
 2895              		@ frame_needed = 1, uses_anonymous_args = 0
 2896              		@ link register save eliminated.
 2897 0000 80B4     		push	{r7}
 2898              	.LCFI239:
 2899              		.cfi_def_cfa_offset 4
 2900              		.cfi_offset 7, -4
 2901 0002 83B0     		sub	sp, sp, #12
 2902              	.LCFI240:
 2903              		.cfi_def_cfa_offset 16
 2904 0004 00AF     		add	r7, sp, #0
 2905              	.LCFI241:
 2906              		.cfi_def_cfa_register 7
 2907 0006 7860     		str	r0, [r7, #4]
 2908 0008 3960     		str	r1, [r7]
1101:./Libraries/STM32H7xx_HAL_Driver/Src/stm32h7xx_hal.c ****   /* Check the parameter */
1102:./Libraries/STM32H7xx_HAL_Driver/Src/stm32h7xx_hal.c ****   assert_param(IS_HAL_EXTI_CONFIG_LINE(EXTI_Line));
1103:./Libraries/STM32H7xx_HAL_Driver/Src/stm32h7xx_hal.c ****   assert_param(IS_EXTI_EDGE_LINE(EXTI_Edge));
1104:./Libraries/STM32H7xx_HAL_Driver/Src/stm32h7xx_hal.c **** 
1105:./Libraries/STM32H7xx_HAL_Driver/Src/stm32h7xx_hal.c ****   /* Clear Rising Falling edge configuration */
1106:./Libraries/STM32H7xx_HAL_Driver/Src/stm32h7xx_hal.c ****   CLEAR_BIT(*(__IO uint32_t *) (((uint32_t) &(EXTI->FTSR1)) + ((EXTI_Line >> 5 ) * 0x20UL)), (uint3
 2909              		.loc 1 1106 3
 2910 000a 7B68     		ldr	r3, [r7, #4]
 2911 000c 5B09     		lsrs	r3, r3, #5
 2912 000e 5A01     		lsls	r2, r3, #5
 2913 0010 2E4B     		ldr	r3, .L193
 2914 0012 1344     		add	r3, r3, r2
 2915 0014 1968     		ldr	r1, [r3]
 2916 0016 7B68     		ldr	r3, [r7, #4]
 2917 0018 03F01F03 		and	r3, r3, #31
 2918 001c 0122     		movs	r2, #1
 2919 001e 02FA03F3 		lsl	r3, r2, r3
 2920 0022 DA43     		mvns	r2, r3
 2921 0024 7B68     		ldr	r3, [r7, #4]
 2922 0026 5B09     		lsrs	r3, r3, #5
 2923 0028 5801     		lsls	r0, r3, #5
 2924 002a 284B     		ldr	r3, .L193
 2925 002c 0344     		add	r3, r3, r0
 2926 002e 1846     		mov	r0, r3
 2927 0030 01EA0203 		and	r3, r1, r2
 2928 0034 0360     		str	r3, [r0]
1107:./Libraries/STM32H7xx_HAL_Driver/Src/stm32h7xx_hal.c ****   CLEAR_BIT( *(__IO uint32_t *) (((uint32_t) &(EXTI->RTSR1)) + ((EXTI_Line >> 5 ) * 0x20UL)), (uint
 2929              		.loc 1 1107 3
 2930 0036 7B68     		ldr	r3, [r7, #4]
 2931 0038 5B09     		lsrs	r3, r3, #5
 2932 003a 03F13073 		add	r3, r3, #46137344
 2933 003e 5B01     		lsls	r3, r3, #5
 2934 0040 1A68     		ldr	r2, [r3]
ARM GAS  /tmp/cclvVaTN.s 			page 70


 2935 0042 7B68     		ldr	r3, [r7, #4]
 2936 0044 03F01F03 		and	r3, r3, #31
 2937 0048 0121     		movs	r1, #1
 2938 004a 01FA03F3 		lsl	r3, r1, r3
 2939 004e DB43     		mvns	r3, r3
 2940 0050 7968     		ldr	r1, [r7, #4]
 2941 0052 4909     		lsrs	r1, r1, #5
 2942 0054 01F13071 		add	r1, r1, #46137344
 2943 0058 4901     		lsls	r1, r1, #5
 2944 005a 1340     		ands	r3, r3, r2
 2945 005c 0B60     		str	r3, [r1]
1108:./Libraries/STM32H7xx_HAL_Driver/Src/stm32h7xx_hal.c **** 
1109:./Libraries/STM32H7xx_HAL_Driver/Src/stm32h7xx_hal.c ****   if( (EXTI_Edge & EXTI_RISING_EDGE) == EXTI_RISING_EDGE)
 2946              		.loc 1 1109 18
 2947 005e 3B68     		ldr	r3, [r7]
 2948 0060 03F48013 		and	r3, r3, #1048576
 2949              		.loc 1 1109 5
 2950 0064 002B     		cmp	r3, #0
 2951 0066 12D0     		beq	.L190
1110:./Libraries/STM32H7xx_HAL_Driver/Src/stm32h7xx_hal.c ****   {
1111:./Libraries/STM32H7xx_HAL_Driver/Src/stm32h7xx_hal.c ****    SET_BIT( *(__IO uint32_t *) (((uint32_t) &(EXTI->RTSR1)) + ((EXTI_Line >> 5 ) * 0x20UL)), (uint3
 2952              		.loc 1 1111 4
 2953 0068 7B68     		ldr	r3, [r7, #4]
 2954 006a 5B09     		lsrs	r3, r3, #5
 2955 006c 03F13073 		add	r3, r3, #46137344
 2956 0070 5B01     		lsls	r3, r3, #5
 2957 0072 1A68     		ldr	r2, [r3]
 2958 0074 7B68     		ldr	r3, [r7, #4]
 2959 0076 03F01F03 		and	r3, r3, #31
 2960 007a 0121     		movs	r1, #1
 2961 007c 01FA03F3 		lsl	r3, r1, r3
 2962 0080 7968     		ldr	r1, [r7, #4]
 2963 0082 4909     		lsrs	r1, r1, #5
 2964 0084 01F13071 		add	r1, r1, #46137344
 2965 0088 4901     		lsls	r1, r1, #5
 2966 008a 1343     		orrs	r3, r3, r2
 2967 008c 0B60     		str	r3, [r1]
 2968              	.L190:
1112:./Libraries/STM32H7xx_HAL_Driver/Src/stm32h7xx_hal.c ****   }
1113:./Libraries/STM32H7xx_HAL_Driver/Src/stm32h7xx_hal.c ****   if( (EXTI_Edge & EXTI_FALLING_EDGE) == EXTI_FALLING_EDGE)
 2969              		.loc 1 1113 18
 2970 008e 3B68     		ldr	r3, [r7]
 2971 0090 03F40013 		and	r3, r3, #2097152
 2972              		.loc 1 1113 5
 2973 0094 002B     		cmp	r3, #0
 2974 0096 13D0     		beq	.L192
1114:./Libraries/STM32H7xx_HAL_Driver/Src/stm32h7xx_hal.c ****   {
1115:./Libraries/STM32H7xx_HAL_Driver/Src/stm32h7xx_hal.c ****    SET_BIT(*(__IO uint32_t *) (((uint32_t) &(EXTI->FTSR1)) + ((EXTI_Line >> 5 ) * 0x20UL)), (uint32
 2975              		.loc 1 1115 4
 2976 0098 7B68     		ldr	r3, [r7, #4]
 2977 009a 5B09     		lsrs	r3, r3, #5
 2978 009c 5A01     		lsls	r2, r3, #5
 2979 009e 0B4B     		ldr	r3, .L193
 2980 00a0 1344     		add	r3, r3, r2
 2981 00a2 1968     		ldr	r1, [r3]
 2982 00a4 7B68     		ldr	r3, [r7, #4]
 2983 00a6 03F01F03 		and	r3, r3, #31
ARM GAS  /tmp/cclvVaTN.s 			page 71


 2984 00aa 0122     		movs	r2, #1
 2985 00ac 9A40     		lsls	r2, r2, r3
 2986 00ae 7B68     		ldr	r3, [r7, #4]
 2987 00b0 5B09     		lsrs	r3, r3, #5
 2988 00b2 5801     		lsls	r0, r3, #5
 2989 00b4 054B     		ldr	r3, .L193
 2990 00b6 0344     		add	r3, r3, r0
 2991 00b8 1846     		mov	r0, r3
 2992 00ba 41EA0203 		orr	r3, r1, r2
 2993 00be 0360     		str	r3, [r0]
 2994              	.L192:
1116:./Libraries/STM32H7xx_HAL_Driver/Src/stm32h7xx_hal.c ****   }
1117:./Libraries/STM32H7xx_HAL_Driver/Src/stm32h7xx_hal.c **** }
 2995              		.loc 1 1117 1
 2996 00c0 00BF     		nop
 2997 00c2 0C37     		adds	r7, r7, #12
 2998              	.LCFI242:
 2999              		.cfi_def_cfa_offset 4
 3000 00c4 BD46     		mov	sp, r7
 3001              	.LCFI243:
 3002              		.cfi_def_cfa_register 13
 3003              		@ sp needed
 3004 00c6 5DF8047B 		ldr	r7, [sp], #4
 3005              	.LCFI244:
 3006              		.cfi_restore 7
 3007              		.cfi_def_cfa_offset 0
 3008 00ca 7047     		bx	lr
 3009              	.L194:
 3010              		.align	2
 3011              	.L193:
 3012 00cc 04000058 		.word	1476395012
 3013              		.cfi_endproc
 3014              	.LFE385:
 3016              		.section	.text.HAL_EXTI_GenerateSWInterrupt,"ax",%progbits
 3017              		.align	1
 3018              		.global	HAL_EXTI_GenerateSWInterrupt
 3019              		.syntax unified
 3020              		.thumb
 3021              		.thumb_func
 3022              		.fpu fpv5-d16
 3024              	HAL_EXTI_GenerateSWInterrupt:
 3025              	.LFB386:
1118:./Libraries/STM32H7xx_HAL_Driver/Src/stm32h7xx_hal.c **** 
1119:./Libraries/STM32H7xx_HAL_Driver/Src/stm32h7xx_hal.c **** /**
1120:./Libraries/STM32H7xx_HAL_Driver/Src/stm32h7xx_hal.c ****   * @brief  Generates a Software interrupt on selected EXTI line.
1121:./Libraries/STM32H7xx_HAL_Driver/Src/stm32h7xx_hal.c ****   * @param   EXTI_Line: Specifies the EXTI LINE, it can be one of the following values,
1122:./Libraries/STM32H7xx_HAL_Driver/Src/stm32h7xx_hal.c ****   *          (EXTI_LINE0..EXTI_LINE21),EXTI_LINE49,EXTI_LINE51,EXTI_LINE82,EXTI_LINE84,EXTI_LINE85 
1123:./Libraries/STM32H7xx_HAL_Driver/Src/stm32h7xx_hal.c ****   * @retval None
1124:./Libraries/STM32H7xx_HAL_Driver/Src/stm32h7xx_hal.c ****   */
1125:./Libraries/STM32H7xx_HAL_Driver/Src/stm32h7xx_hal.c **** void HAL_EXTI_GenerateSWInterrupt(uint32_t EXTI_Line)
1126:./Libraries/STM32H7xx_HAL_Driver/Src/stm32h7xx_hal.c **** {
 3026              		.loc 1 1126 1
 3027              		.cfi_startproc
 3028              		@ args = 0, pretend = 0, frame = 8
 3029              		@ frame_needed = 1, uses_anonymous_args = 0
 3030              		@ link register save eliminated.
 3031 0000 80B4     		push	{r7}
ARM GAS  /tmp/cclvVaTN.s 			page 72


 3032              	.LCFI245:
 3033              		.cfi_def_cfa_offset 4
 3034              		.cfi_offset 7, -4
 3035 0002 83B0     		sub	sp, sp, #12
 3036              	.LCFI246:
 3037              		.cfi_def_cfa_offset 16
 3038 0004 00AF     		add	r7, sp, #0
 3039              	.LCFI247:
 3040              		.cfi_def_cfa_register 7
 3041 0006 7860     		str	r0, [r7, #4]
1127:./Libraries/STM32H7xx_HAL_Driver/Src/stm32h7xx_hal.c ****   /* Check the parameters */
1128:./Libraries/STM32H7xx_HAL_Driver/Src/stm32h7xx_hal.c ****   assert_param(IS_HAL_EXTI_CONFIG_LINE(EXTI_Line));
1129:./Libraries/STM32H7xx_HAL_Driver/Src/stm32h7xx_hal.c **** 
1130:./Libraries/STM32H7xx_HAL_Driver/Src/stm32h7xx_hal.c ****   SET_BIT(*(__IO uint32_t *) (((uint32_t) &(EXTI->SWIER1)) + ((EXTI_Line >> 5 ) * 0x20UL)), (uint32
 3042              		.loc 1 1130 3
 3043 0008 7B68     		ldr	r3, [r7, #4]
 3044 000a 5B09     		lsrs	r3, r3, #5
 3045 000c 5A01     		lsls	r2, r3, #5
 3046 000e 0B4B     		ldr	r3, .L196
 3047 0010 1344     		add	r3, r3, r2
 3048 0012 1968     		ldr	r1, [r3]
 3049 0014 7B68     		ldr	r3, [r7, #4]
 3050 0016 03F01F03 		and	r3, r3, #31
 3051 001a 0122     		movs	r2, #1
 3052 001c 9A40     		lsls	r2, r2, r3
 3053 001e 7B68     		ldr	r3, [r7, #4]
 3054 0020 5B09     		lsrs	r3, r3, #5
 3055 0022 5801     		lsls	r0, r3, #5
 3056 0024 054B     		ldr	r3, .L196
 3057 0026 0344     		add	r3, r3, r0
 3058 0028 1846     		mov	r0, r3
 3059 002a 41EA0203 		orr	r3, r1, r2
 3060 002e 0360     		str	r3, [r0]
1131:./Libraries/STM32H7xx_HAL_Driver/Src/stm32h7xx_hal.c **** }
 3061              		.loc 1 1131 1
 3062 0030 00BF     		nop
 3063 0032 0C37     		adds	r7, r7, #12
 3064              	.LCFI248:
 3065              		.cfi_def_cfa_offset 4
 3066 0034 BD46     		mov	sp, r7
 3067              	.LCFI249:
 3068              		.cfi_def_cfa_register 13
 3069              		@ sp needed
 3070 0036 5DF8047B 		ldr	r7, [sp], #4
 3071              	.LCFI250:
 3072              		.cfi_restore 7
 3073              		.cfi_def_cfa_offset 0
 3074 003a 7047     		bx	lr
 3075              	.L197:
 3076              		.align	2
 3077              	.L196:
 3078 003c 08000058 		.word	1476395016
 3079              		.cfi_endproc
 3080              	.LFE386:
 3082              		.section	.text.HAL_EXTI_D1_ClearFlag,"ax",%progbits
 3083              		.align	1
 3084              		.global	HAL_EXTI_D1_ClearFlag
ARM GAS  /tmp/cclvVaTN.s 			page 73


 3085              		.syntax unified
 3086              		.thumb
 3087              		.thumb_func
 3088              		.fpu fpv5-d16
 3090              	HAL_EXTI_D1_ClearFlag:
 3091              	.LFB387:
1132:./Libraries/STM32H7xx_HAL_Driver/Src/stm32h7xx_hal.c **** 
1133:./Libraries/STM32H7xx_HAL_Driver/Src/stm32h7xx_hal.c **** 
1134:./Libraries/STM32H7xx_HAL_Driver/Src/stm32h7xx_hal.c **** /**
1135:./Libraries/STM32H7xx_HAL_Driver/Src/stm32h7xx_hal.c ****   * @brief  Clears the EXTI's line pending flags for Domain D1
1136:./Libraries/STM32H7xx_HAL_Driver/Src/stm32h7xx_hal.c ****   * @param   EXTI_Line: Specifies the EXTI LINE, it can be one of the following values,
1137:./Libraries/STM32H7xx_HAL_Driver/Src/stm32h7xx_hal.c ****   *         (EXTI_LINE0....EXTI_LINE87)excluding :line45, line81,line83 which are reserved
1138:./Libraries/STM32H7xx_HAL_Driver/Src/stm32h7xx_hal.c ****   * @retval None
1139:./Libraries/STM32H7xx_HAL_Driver/Src/stm32h7xx_hal.c ****   */
1140:./Libraries/STM32H7xx_HAL_Driver/Src/stm32h7xx_hal.c **** void HAL_EXTI_D1_ClearFlag(uint32_t EXTI_Line)
1141:./Libraries/STM32H7xx_HAL_Driver/Src/stm32h7xx_hal.c **** {
 3092              		.loc 1 1141 1
 3093              		.cfi_startproc
 3094              		@ args = 0, pretend = 0, frame = 8
 3095              		@ frame_needed = 1, uses_anonymous_args = 0
 3096              		@ link register save eliminated.
 3097 0000 80B4     		push	{r7}
 3098              	.LCFI251:
 3099              		.cfi_def_cfa_offset 4
 3100              		.cfi_offset 7, -4
 3101 0002 83B0     		sub	sp, sp, #12
 3102              	.LCFI252:
 3103              		.cfi_def_cfa_offset 16
 3104 0004 00AF     		add	r7, sp, #0
 3105              	.LCFI253:
 3106              		.cfi_def_cfa_register 7
 3107 0006 7860     		str	r0, [r7, #4]
1142:./Libraries/STM32H7xx_HAL_Driver/Src/stm32h7xx_hal.c ****   /* Check the parameters */
1143:./Libraries/STM32H7xx_HAL_Driver/Src/stm32h7xx_hal.c ****  assert_param(IS_EXTI_D1_LINE(EXTI_Line));
1144:./Libraries/STM32H7xx_HAL_Driver/Src/stm32h7xx_hal.c ****  WRITE_REG(*(__IO uint32_t *) (((uint32_t) &(EXTI_D1->PR1)) + ((EXTI_Line >> 5 ) * 0x10UL)), (uint3
 3108              		.loc 1 1144 2
 3109 0008 7B68     		ldr	r3, [r7, #4]
 3110 000a 03F01F02 		and	r2, r3, #31
 3111 000e 7B68     		ldr	r3, [r7, #4]
 3112 0010 5B09     		lsrs	r3, r3, #5
 3113 0012 1901     		lsls	r1, r3, #4
 3114 0014 054B     		ldr	r3, .L199
 3115 0016 0B44     		add	r3, r3, r1
 3116 0018 1946     		mov	r1, r3
 3117 001a 0123     		movs	r3, #1
 3118 001c 9340     		lsls	r3, r3, r2
 3119 001e 0B60     		str	r3, [r1]
1145:./Libraries/STM32H7xx_HAL_Driver/Src/stm32h7xx_hal.c **** 
1146:./Libraries/STM32H7xx_HAL_Driver/Src/stm32h7xx_hal.c **** }
 3120              		.loc 1 1146 1
 3121 0020 00BF     		nop
 3122 0022 0C37     		adds	r7, r7, #12
 3123              	.LCFI254:
 3124              		.cfi_def_cfa_offset 4
 3125 0024 BD46     		mov	sp, r7
 3126              	.LCFI255:
 3127              		.cfi_def_cfa_register 13
ARM GAS  /tmp/cclvVaTN.s 			page 74


 3128              		@ sp needed
 3129 0026 5DF8047B 		ldr	r7, [sp], #4
 3130              	.LCFI256:
 3131              		.cfi_restore 7
 3132              		.cfi_def_cfa_offset 0
 3133 002a 7047     		bx	lr
 3134              	.L200:
 3135              		.align	2
 3136              	.L199:
 3137 002c 88000058 		.word	1476395144
 3138              		.cfi_endproc
 3139              	.LFE387:
 3141              		.section	.text.HAL_EXTI_D2_ClearFlag,"ax",%progbits
 3142              		.align	1
 3143              		.global	HAL_EXTI_D2_ClearFlag
 3144              		.syntax unified
 3145              		.thumb
 3146              		.thumb_func
 3147              		.fpu fpv5-d16
 3149              	HAL_EXTI_D2_ClearFlag:
 3150              	.LFB388:
1147:./Libraries/STM32H7xx_HAL_Driver/Src/stm32h7xx_hal.c **** 
1148:./Libraries/STM32H7xx_HAL_Driver/Src/stm32h7xx_hal.c **** #if defined(DUAL_CORE)
1149:./Libraries/STM32H7xx_HAL_Driver/Src/stm32h7xx_hal.c **** /**
1150:./Libraries/STM32H7xx_HAL_Driver/Src/stm32h7xx_hal.c ****   * @brief  Clears the EXTI's line pending flags for Domain D2
1151:./Libraries/STM32H7xx_HAL_Driver/Src/stm32h7xx_hal.c ****   * @param   EXTI_Line: Specifies the EXTI LINE, it can be one of the following values,
1152:./Libraries/STM32H7xx_HAL_Driver/Src/stm32h7xx_hal.c ****   *         (EXTI_LINE0....EXTI_LINE87)excluding :line45, line81,line83 which are reserved
1153:./Libraries/STM32H7xx_HAL_Driver/Src/stm32h7xx_hal.c ****   * @retval None
1154:./Libraries/STM32H7xx_HAL_Driver/Src/stm32h7xx_hal.c ****   */
1155:./Libraries/STM32H7xx_HAL_Driver/Src/stm32h7xx_hal.c **** void HAL_EXTI_D2_ClearFlag(uint32_t EXTI_Line)
1156:./Libraries/STM32H7xx_HAL_Driver/Src/stm32h7xx_hal.c **** {
 3151              		.loc 1 1156 1
 3152              		.cfi_startproc
 3153              		@ args = 0, pretend = 0, frame = 8
 3154              		@ frame_needed = 1, uses_anonymous_args = 0
 3155              		@ link register save eliminated.
 3156 0000 80B4     		push	{r7}
 3157              	.LCFI257:
 3158              		.cfi_def_cfa_offset 4
 3159              		.cfi_offset 7, -4
 3160 0002 83B0     		sub	sp, sp, #12
 3161              	.LCFI258:
 3162              		.cfi_def_cfa_offset 16
 3163 0004 00AF     		add	r7, sp, #0
 3164              	.LCFI259:
 3165              		.cfi_def_cfa_register 7
 3166 0006 7860     		str	r0, [r7, #4]
1157:./Libraries/STM32H7xx_HAL_Driver/Src/stm32h7xx_hal.c ****   /* Check the parameters */
1158:./Libraries/STM32H7xx_HAL_Driver/Src/stm32h7xx_hal.c ****  assert_param(IS_EXTI_D2_LINE(EXTI_Line));
1159:./Libraries/STM32H7xx_HAL_Driver/Src/stm32h7xx_hal.c ****  WRITE_REG(*(__IO uint32_t *) (((uint32_t) &(EXTI_D2->PR1)) + ((EXTI_Line >> 5 ) * 0x10UL)), (uint3
 3167              		.loc 1 1159 2
 3168 0008 7B68     		ldr	r3, [r7, #4]
 3169 000a 03F01F02 		and	r2, r3, #31
 3170 000e 7B68     		ldr	r3, [r7, #4]
 3171 0010 5B09     		lsrs	r3, r3, #5
 3172 0012 1901     		lsls	r1, r3, #4
 3173 0014 054B     		ldr	r3, .L202
ARM GAS  /tmp/cclvVaTN.s 			page 75


 3174 0016 0B44     		add	r3, r3, r1
 3175 0018 1946     		mov	r1, r3
 3176 001a 0123     		movs	r3, #1
 3177 001c 9340     		lsls	r3, r3, r2
 3178 001e 0B60     		str	r3, [r1]
1160:./Libraries/STM32H7xx_HAL_Driver/Src/stm32h7xx_hal.c **** }
 3179              		.loc 1 1160 1
 3180 0020 00BF     		nop
 3181 0022 0C37     		adds	r7, r7, #12
 3182              	.LCFI260:
 3183              		.cfi_def_cfa_offset 4
 3184 0024 BD46     		mov	sp, r7
 3185              	.LCFI261:
 3186              		.cfi_def_cfa_register 13
 3187              		@ sp needed
 3188 0026 5DF8047B 		ldr	r7, [sp], #4
 3189              	.LCFI262:
 3190              		.cfi_restore 7
 3191              		.cfi_def_cfa_offset 0
 3192 002a 7047     		bx	lr
 3193              	.L203:
 3194              		.align	2
 3195              	.L202:
 3196 002c C8000058 		.word	1476395208
 3197              		.cfi_endproc
 3198              	.LFE388:
 3200              		.section	.text.HAL_EXTI_D1_EventInputConfig,"ax",%progbits
 3201              		.align	1
 3202              		.global	HAL_EXTI_D1_EventInputConfig
 3203              		.syntax unified
 3204              		.thumb
 3205              		.thumb_func
 3206              		.fpu fpv5-d16
 3208              	HAL_EXTI_D1_EventInputConfig:
 3209              	.LFB389:
1161:./Libraries/STM32H7xx_HAL_Driver/Src/stm32h7xx_hal.c **** 
1162:./Libraries/STM32H7xx_HAL_Driver/Src/stm32h7xx_hal.c **** #endif /*DUAL_CORE*/
1163:./Libraries/STM32H7xx_HAL_Driver/Src/stm32h7xx_hal.c **** /**
1164:./Libraries/STM32H7xx_HAL_Driver/Src/stm32h7xx_hal.c ****   * @brief  Configure the EXTI input event line for Domain D1
1165:./Libraries/STM32H7xx_HAL_Driver/Src/stm32h7xx_hal.c ****   * @param   EXTI_Line: Specifies the EXTI LINE, it can be one of the following values,
1166:./Libraries/STM32H7xx_HAL_Driver/Src/stm32h7xx_hal.c ****   *         (EXTI_LINE0....EXTI_LINE87)excluding :line45, line81,line83 which are reserved
1167:./Libraries/STM32H7xx_HAL_Driver/Src/stm32h7xx_hal.c ****   * @param   EXTI_Mode: Specifies which EXTI line is used as interrupt or an event.
1168:./Libraries/STM32H7xx_HAL_Driver/Src/stm32h7xx_hal.c ****   *          This parameter can be one or a combination of the following values :
1169:./Libraries/STM32H7xx_HAL_Driver/Src/stm32h7xx_hal.c ****   *   @arg EXTI_MODE_IT :  Interrupt Mode selected
1170:./Libraries/STM32H7xx_HAL_Driver/Src/stm32h7xx_hal.c ****   *   @arg EXTI_MODE_EVT : Event Mode selected
1171:./Libraries/STM32H7xx_HAL_Driver/Src/stm32h7xx_hal.c ****   * @param   EXTI_LineCmd controls (Enable/Disable) the EXTI line.
1172:./Libraries/STM32H7xx_HAL_Driver/Src/stm32h7xx_hal.c **** 
1173:./Libraries/STM32H7xx_HAL_Driver/Src/stm32h7xx_hal.c ****   * @retval None
1174:./Libraries/STM32H7xx_HAL_Driver/Src/stm32h7xx_hal.c ****   */
1175:./Libraries/STM32H7xx_HAL_Driver/Src/stm32h7xx_hal.c **** void HAL_EXTI_D1_EventInputConfig(uint32_t EXTI_Line , uint32_t EXTI_Mode,  uint32_t EXTI_LineCmd )
1176:./Libraries/STM32H7xx_HAL_Driver/Src/stm32h7xx_hal.c **** {
 3210              		.loc 1 1176 1
 3211              		.cfi_startproc
 3212              		@ args = 0, pretend = 0, frame = 16
 3213              		@ frame_needed = 1, uses_anonymous_args = 0
 3214              		@ link register save eliminated.
 3215 0000 80B4     		push	{r7}
ARM GAS  /tmp/cclvVaTN.s 			page 76


 3216              	.LCFI263:
 3217              		.cfi_def_cfa_offset 4
 3218              		.cfi_offset 7, -4
 3219 0002 85B0     		sub	sp, sp, #20
 3220              	.LCFI264:
 3221              		.cfi_def_cfa_offset 24
 3222 0004 00AF     		add	r7, sp, #0
 3223              	.LCFI265:
 3224              		.cfi_def_cfa_register 7
 3225 0006 F860     		str	r0, [r7, #12]
 3226 0008 B960     		str	r1, [r7, #8]
 3227 000a 7A60     		str	r2, [r7, #4]
1177:./Libraries/STM32H7xx_HAL_Driver/Src/stm32h7xx_hal.c ****   /* Check the parameter */
1178:./Libraries/STM32H7xx_HAL_Driver/Src/stm32h7xx_hal.c ****   assert_param(IS_EXTI_D1_LINE(EXTI_Line));
1179:./Libraries/STM32H7xx_HAL_Driver/Src/stm32h7xx_hal.c ****   assert_param(IS_EXTI_MODE_LINE(EXTI_Mode));
1180:./Libraries/STM32H7xx_HAL_Driver/Src/stm32h7xx_hal.c **** 
1181:./Libraries/STM32H7xx_HAL_Driver/Src/stm32h7xx_hal.c ****   if( (EXTI_Mode & EXTI_MODE_IT) == EXTI_MODE_IT)
 3228              		.loc 1 1181 18
 3229 000c BB68     		ldr	r3, [r7, #8]
 3230 000e 03F48033 		and	r3, r3, #65536
 3231              		.loc 1 1181 5
 3232 0012 002B     		cmp	r3, #0
 3233 0014 2DD0     		beq	.L205
1182:./Libraries/STM32H7xx_HAL_Driver/Src/stm32h7xx_hal.c ****   {
1183:./Libraries/STM32H7xx_HAL_Driver/Src/stm32h7xx_hal.c ****      if( EXTI_LineCmd == 0UL)
 3234              		.loc 1 1183 8
 3235 0016 7B68     		ldr	r3, [r7, #4]
 3236 0018 002B     		cmp	r3, #0
 3237 001a 16D1     		bne	.L206
1184:./Libraries/STM32H7xx_HAL_Driver/Src/stm32h7xx_hal.c ****      {
1185:./Libraries/STM32H7xx_HAL_Driver/Src/stm32h7xx_hal.c ****        /* Clear EXTI line configuration */
1186:./Libraries/STM32H7xx_HAL_Driver/Src/stm32h7xx_hal.c ****         CLEAR_BIT(*(__IO uint32_t *) (((uint32_t) &(EXTI_D1->IMR1)) + ((EXTI_Line >> 5 ) * 0x10UL))
 3238              		.loc 1 1186 9
 3239 001c FB68     		ldr	r3, [r7, #12]
 3240 001e 5A09     		lsrs	r2, r3, #5
 3241 0020 304B     		ldr	r3, .L210
 3242 0022 1344     		add	r3, r3, r2
 3243 0024 1B01     		lsls	r3, r3, #4
 3244 0026 1968     		ldr	r1, [r3]
 3245 0028 FB68     		ldr	r3, [r7, #12]
 3246 002a 03F01F03 		and	r3, r3, #31
 3247 002e 0122     		movs	r2, #1
 3248 0030 02FA03F3 		lsl	r3, r2, r3
 3249 0034 DA43     		mvns	r2, r3
 3250 0036 FB68     		ldr	r3, [r7, #12]
 3251 0038 5809     		lsrs	r0, r3, #5
 3252 003a 2A4B     		ldr	r3, .L210
 3253 003c 0344     		add	r3, r3, r0
 3254 003e 1B01     		lsls	r3, r3, #4
 3255 0040 1846     		mov	r0, r3
 3256 0042 01EA0203 		and	r3, r1, r2
 3257 0046 0360     		str	r3, [r0]
 3258 0048 13E0     		b	.L205
 3259              	.L206:
1187:./Libraries/STM32H7xx_HAL_Driver/Src/stm32h7xx_hal.c ****      }
1188:./Libraries/STM32H7xx_HAL_Driver/Src/stm32h7xx_hal.c ****      else
1189:./Libraries/STM32H7xx_HAL_Driver/Src/stm32h7xx_hal.c ****      {
ARM GAS  /tmp/cclvVaTN.s 			page 77


1190:./Libraries/STM32H7xx_HAL_Driver/Src/stm32h7xx_hal.c ****         SET_BIT(*(__IO uint32_t *) (((uint32_t) &(EXTI_D1->IMR1)) + ((EXTI_Line >> 5 ) * 0x10UL)), 
 3260              		.loc 1 1190 9
 3261 004a FB68     		ldr	r3, [r7, #12]
 3262 004c 5A09     		lsrs	r2, r3, #5
 3263 004e 254B     		ldr	r3, .L210
 3264 0050 1344     		add	r3, r3, r2
 3265 0052 1B01     		lsls	r3, r3, #4
 3266 0054 1968     		ldr	r1, [r3]
 3267 0056 FB68     		ldr	r3, [r7, #12]
 3268 0058 03F01F03 		and	r3, r3, #31
 3269 005c 0122     		movs	r2, #1
 3270 005e 9A40     		lsls	r2, r2, r3
 3271 0060 FB68     		ldr	r3, [r7, #12]
 3272 0062 5809     		lsrs	r0, r3, #5
 3273 0064 1F4B     		ldr	r3, .L210
 3274 0066 0344     		add	r3, r3, r0
 3275 0068 1B01     		lsls	r3, r3, #4
 3276 006a 1846     		mov	r0, r3
 3277 006c 41EA0203 		orr	r3, r1, r2
 3278 0070 0360     		str	r3, [r0]
 3279              	.L205:
1191:./Libraries/STM32H7xx_HAL_Driver/Src/stm32h7xx_hal.c ****      }
1192:./Libraries/STM32H7xx_HAL_Driver/Src/stm32h7xx_hal.c ****   }
1193:./Libraries/STM32H7xx_HAL_Driver/Src/stm32h7xx_hal.c **** 
1194:./Libraries/STM32H7xx_HAL_Driver/Src/stm32h7xx_hal.c ****   if( (EXTI_Mode & EXTI_MODE_EVT) == EXTI_MODE_EVT)
 3280              		.loc 1 1194 18
 3281 0072 BB68     		ldr	r3, [r7, #8]
 3282 0074 03F40033 		and	r3, r3, #131072
 3283              		.loc 1 1194 5
 3284 0078 002B     		cmp	r3, #0
 3285 007a 2DD0     		beq	.L209
1195:./Libraries/STM32H7xx_HAL_Driver/Src/stm32h7xx_hal.c ****   {
1196:./Libraries/STM32H7xx_HAL_Driver/Src/stm32h7xx_hal.c ****     if( EXTI_LineCmd == 0UL)
 3286              		.loc 1 1196 7
 3287 007c 7B68     		ldr	r3, [r7, #4]
 3288 007e 002B     		cmp	r3, #0
 3289 0080 16D1     		bne	.L208
1197:./Libraries/STM32H7xx_HAL_Driver/Src/stm32h7xx_hal.c ****     {
1198:./Libraries/STM32H7xx_HAL_Driver/Src/stm32h7xx_hal.c ****       /* Clear EXTI line configuration */
1199:./Libraries/STM32H7xx_HAL_Driver/Src/stm32h7xx_hal.c ****       CLEAR_BIT(  *(__IO uint32_t *) (((uint32_t) &(EXTI_D1->EMR1)) + ((EXTI_Line >> 5 ) * 0x10UL))
 3290              		.loc 1 1199 7
 3291 0082 FB68     		ldr	r3, [r7, #12]
 3292 0084 5B09     		lsrs	r3, r3, #5
 3293 0086 1A01     		lsls	r2, r3, #4
 3294 0088 174B     		ldr	r3, .L210+4
 3295 008a 1344     		add	r3, r3, r2
 3296 008c 1968     		ldr	r1, [r3]
 3297 008e FB68     		ldr	r3, [r7, #12]
 3298 0090 03F01F03 		and	r3, r3, #31
 3299 0094 0122     		movs	r2, #1
 3300 0096 02FA03F3 		lsl	r3, r2, r3
 3301 009a DA43     		mvns	r2, r3
 3302 009c FB68     		ldr	r3, [r7, #12]
 3303 009e 5B09     		lsrs	r3, r3, #5
 3304 00a0 1801     		lsls	r0, r3, #4
 3305 00a2 114B     		ldr	r3, .L210+4
 3306 00a4 0344     		add	r3, r3, r0
ARM GAS  /tmp/cclvVaTN.s 			page 78


 3307 00a6 1846     		mov	r0, r3
 3308 00a8 01EA0203 		and	r3, r1, r2
 3309 00ac 0360     		str	r3, [r0]
1200:./Libraries/STM32H7xx_HAL_Driver/Src/stm32h7xx_hal.c ****     }
1201:./Libraries/STM32H7xx_HAL_Driver/Src/stm32h7xx_hal.c ****     else
1202:./Libraries/STM32H7xx_HAL_Driver/Src/stm32h7xx_hal.c ****     {
1203:./Libraries/STM32H7xx_HAL_Driver/Src/stm32h7xx_hal.c ****       SET_BIT(  *(__IO uint32_t *) (((uint32_t) &(EXTI_D1->EMR1)) + ((EXTI_Line >> 5 ) * 0x10UL)), 
1204:./Libraries/STM32H7xx_HAL_Driver/Src/stm32h7xx_hal.c ****     }
1205:./Libraries/STM32H7xx_HAL_Driver/Src/stm32h7xx_hal.c ****   }
1206:./Libraries/STM32H7xx_HAL_Driver/Src/stm32h7xx_hal.c **** }
 3310              		.loc 1 1206 1
 3311 00ae 13E0     		b	.L209
 3312              	.L208:
1203:./Libraries/STM32H7xx_HAL_Driver/Src/stm32h7xx_hal.c ****     }
 3313              		.loc 1 1203 7
 3314 00b0 FB68     		ldr	r3, [r7, #12]
 3315 00b2 5B09     		lsrs	r3, r3, #5
 3316 00b4 1A01     		lsls	r2, r3, #4
 3317 00b6 0C4B     		ldr	r3, .L210+4
 3318 00b8 1344     		add	r3, r3, r2
 3319 00ba 1968     		ldr	r1, [r3]
 3320 00bc FB68     		ldr	r3, [r7, #12]
 3321 00be 03F01F03 		and	r3, r3, #31
 3322 00c2 0122     		movs	r2, #1
 3323 00c4 9A40     		lsls	r2, r2, r3
 3324 00c6 FB68     		ldr	r3, [r7, #12]
 3325 00c8 5B09     		lsrs	r3, r3, #5
 3326 00ca 1801     		lsls	r0, r3, #4
 3327 00cc 064B     		ldr	r3, .L210+4
 3328 00ce 0344     		add	r3, r3, r0
 3329 00d0 1846     		mov	r0, r3
 3330 00d2 41EA0203 		orr	r3, r1, r2
 3331 00d6 0360     		str	r3, [r0]
 3332              	.L209:
 3333              		.loc 1 1206 1
 3334 00d8 00BF     		nop
 3335 00da 1437     		adds	r7, r7, #20
 3336              	.LCFI266:
 3337              		.cfi_def_cfa_offset 4
 3338 00dc BD46     		mov	sp, r7
 3339              	.LCFI267:
 3340              		.cfi_def_cfa_register 13
 3341              		@ sp needed
 3342 00de 5DF8047B 		ldr	r7, [sp], #4
 3343              	.LCFI268:
 3344              		.cfi_restore 7
 3345              		.cfi_def_cfa_offset 0
 3346 00e2 7047     		bx	lr
 3347              	.L211:
 3348              		.align	2
 3349              	.L210:
 3350 00e4 08008005 		.word	92274696
 3351 00e8 84000058 		.word	1476395140
 3352              		.cfi_endproc
 3353              	.LFE389:
 3355              		.section	.text.HAL_EXTI_D2_EventInputConfig,"ax",%progbits
 3356              		.align	1
ARM GAS  /tmp/cclvVaTN.s 			page 79


 3357              		.global	HAL_EXTI_D2_EventInputConfig
 3358              		.syntax unified
 3359              		.thumb
 3360              		.thumb_func
 3361              		.fpu fpv5-d16
 3363              	HAL_EXTI_D2_EventInputConfig:
 3364              	.LFB390:
1207:./Libraries/STM32H7xx_HAL_Driver/Src/stm32h7xx_hal.c **** 
1208:./Libraries/STM32H7xx_HAL_Driver/Src/stm32h7xx_hal.c **** #if defined(DUAL_CORE)
1209:./Libraries/STM32H7xx_HAL_Driver/Src/stm32h7xx_hal.c **** /**
1210:./Libraries/STM32H7xx_HAL_Driver/Src/stm32h7xx_hal.c ****   * @brief  Configure the EXTI input event line for Domain D2
1211:./Libraries/STM32H7xx_HAL_Driver/Src/stm32h7xx_hal.c ****   * @param   EXTI_Line: Specifies the EXTI LINE, it can be one of the following values,
1212:./Libraries/STM32H7xx_HAL_Driver/Src/stm32h7xx_hal.c ****   *         (EXTI_LINE0....EXTI_LINE87)excluding :line45, line81,line83 which are reserved
1213:./Libraries/STM32H7xx_HAL_Driver/Src/stm32h7xx_hal.c ****   * @param   EXTI_Mode: Specifies which EXTI line is used as interrupt or an event.
1214:./Libraries/STM32H7xx_HAL_Driver/Src/stm32h7xx_hal.c ****   *          This parameter can be one or a combination of the following values :
1215:./Libraries/STM32H7xx_HAL_Driver/Src/stm32h7xx_hal.c ****   *   @arg EXTI_MODE_IT :  Interrupt Mode selected
1216:./Libraries/STM32H7xx_HAL_Driver/Src/stm32h7xx_hal.c ****   *   @arg EXTI_MODE_EVT : Event Mode selected
1217:./Libraries/STM32H7xx_HAL_Driver/Src/stm32h7xx_hal.c ****   * @param   EXTI_LineCmd controls (Enable/Disable) the EXTI line.
1218:./Libraries/STM32H7xx_HAL_Driver/Src/stm32h7xx_hal.c **** 
1219:./Libraries/STM32H7xx_HAL_Driver/Src/stm32h7xx_hal.c ****   * @retval None
1220:./Libraries/STM32H7xx_HAL_Driver/Src/stm32h7xx_hal.c ****   */
1221:./Libraries/STM32H7xx_HAL_Driver/Src/stm32h7xx_hal.c **** void HAL_EXTI_D2_EventInputConfig(uint32_t EXTI_Line , uint32_t EXTI_Mode,  uint32_t EXTI_LineCmd )
1222:./Libraries/STM32H7xx_HAL_Driver/Src/stm32h7xx_hal.c **** {
 3365              		.loc 1 1222 1
 3366              		.cfi_startproc
 3367              		@ args = 0, pretend = 0, frame = 16
 3368              		@ frame_needed = 1, uses_anonymous_args = 0
 3369              		@ link register save eliminated.
 3370 0000 80B4     		push	{r7}
 3371              	.LCFI269:
 3372              		.cfi_def_cfa_offset 4
 3373              		.cfi_offset 7, -4
 3374 0002 85B0     		sub	sp, sp, #20
 3375              	.LCFI270:
 3376              		.cfi_def_cfa_offset 24
 3377 0004 00AF     		add	r7, sp, #0
 3378              	.LCFI271:
 3379              		.cfi_def_cfa_register 7
 3380 0006 F860     		str	r0, [r7, #12]
 3381 0008 B960     		str	r1, [r7, #8]
 3382 000a 7A60     		str	r2, [r7, #4]
1223:./Libraries/STM32H7xx_HAL_Driver/Src/stm32h7xx_hal.c ****   /* Check the parameter */
1224:./Libraries/STM32H7xx_HAL_Driver/Src/stm32h7xx_hal.c ****   assert_param(IS_EXTI_D2_LINE(EXTI_Line));
1225:./Libraries/STM32H7xx_HAL_Driver/Src/stm32h7xx_hal.c ****   assert_param(IS_EXTI_MODE_LINE(EXTI_Mode));
1226:./Libraries/STM32H7xx_HAL_Driver/Src/stm32h7xx_hal.c **** 
1227:./Libraries/STM32H7xx_HAL_Driver/Src/stm32h7xx_hal.c ****   if( (EXTI_Mode & EXTI_MODE_IT) == EXTI_MODE_IT)
 3383              		.loc 1 1227 18
 3384 000c BB68     		ldr	r3, [r7, #8]
 3385 000e 03F48033 		and	r3, r3, #65536
 3386              		.loc 1 1227 5
 3387 0012 002B     		cmp	r3, #0
 3388 0014 2DD0     		beq	.L213
1228:./Libraries/STM32H7xx_HAL_Driver/Src/stm32h7xx_hal.c ****   {
1229:./Libraries/STM32H7xx_HAL_Driver/Src/stm32h7xx_hal.c ****     if( EXTI_LineCmd == 0UL)
 3389              		.loc 1 1229 7
 3390 0016 7B68     		ldr	r3, [r7, #4]
 3391 0018 002B     		cmp	r3, #0
ARM GAS  /tmp/cclvVaTN.s 			page 80


 3392 001a 16D1     		bne	.L214
1230:./Libraries/STM32H7xx_HAL_Driver/Src/stm32h7xx_hal.c ****     {
1231:./Libraries/STM32H7xx_HAL_Driver/Src/stm32h7xx_hal.c ****     /* Clear EXTI line configuration */
1232:./Libraries/STM32H7xx_HAL_Driver/Src/stm32h7xx_hal.c ****      CLEAR_BIT(*(__IO uint32_t *) (((uint32_t) &(EXTI_D2->IMR1)) + ((EXTI_Line >> 5 ) * 0x10UL)),(u
 3393              		.loc 1 1232 6
 3394 001c FB68     		ldr	r3, [r7, #12]
 3395 001e 5A09     		lsrs	r2, r3, #5
 3396 0020 304B     		ldr	r3, .L218
 3397 0022 1344     		add	r3, r3, r2
 3398 0024 1B01     		lsls	r3, r3, #4
 3399 0026 1968     		ldr	r1, [r3]
 3400 0028 FB68     		ldr	r3, [r7, #12]
 3401 002a 03F01F03 		and	r3, r3, #31
 3402 002e 0122     		movs	r2, #1
 3403 0030 02FA03F3 		lsl	r3, r2, r3
 3404 0034 DA43     		mvns	r2, r3
 3405 0036 FB68     		ldr	r3, [r7, #12]
 3406 0038 5809     		lsrs	r0, r3, #5
 3407 003a 2A4B     		ldr	r3, .L218
 3408 003c 0344     		add	r3, r3, r0
 3409 003e 1B01     		lsls	r3, r3, #4
 3410 0040 1846     		mov	r0, r3
 3411 0042 01EA0203 		and	r3, r1, r2
 3412 0046 0360     		str	r3, [r0]
 3413 0048 13E0     		b	.L213
 3414              	.L214:
1233:./Libraries/STM32H7xx_HAL_Driver/Src/stm32h7xx_hal.c ****     }
1234:./Libraries/STM32H7xx_HAL_Driver/Src/stm32h7xx_hal.c ****     else
1235:./Libraries/STM32H7xx_HAL_Driver/Src/stm32h7xx_hal.c ****     {
1236:./Libraries/STM32H7xx_HAL_Driver/Src/stm32h7xx_hal.c ****      SET_BIT(*(__IO uint32_t *) (((uint32_t) &(EXTI_D2->IMR1)) + ((EXTI_Line >> 5 ) * 0x10UL)), (ui
 3415              		.loc 1 1236 6
 3416 004a FB68     		ldr	r3, [r7, #12]
 3417 004c 5A09     		lsrs	r2, r3, #5
 3418 004e 254B     		ldr	r3, .L218
 3419 0050 1344     		add	r3, r3, r2
 3420 0052 1B01     		lsls	r3, r3, #4
 3421 0054 1968     		ldr	r1, [r3]
 3422 0056 FB68     		ldr	r3, [r7, #12]
 3423 0058 03F01F03 		and	r3, r3, #31
 3424 005c 0122     		movs	r2, #1
 3425 005e 9A40     		lsls	r2, r2, r3
 3426 0060 FB68     		ldr	r3, [r7, #12]
 3427 0062 5809     		lsrs	r0, r3, #5
 3428 0064 1F4B     		ldr	r3, .L218
 3429 0066 0344     		add	r3, r3, r0
 3430 0068 1B01     		lsls	r3, r3, #4
 3431 006a 1846     		mov	r0, r3
 3432 006c 41EA0203 		orr	r3, r1, r2
 3433 0070 0360     		str	r3, [r0]
 3434              	.L213:
1237:./Libraries/STM32H7xx_HAL_Driver/Src/stm32h7xx_hal.c ****     }
1238:./Libraries/STM32H7xx_HAL_Driver/Src/stm32h7xx_hal.c ****   }
1239:./Libraries/STM32H7xx_HAL_Driver/Src/stm32h7xx_hal.c **** 
1240:./Libraries/STM32H7xx_HAL_Driver/Src/stm32h7xx_hal.c ****   if( (EXTI_Mode & EXTI_MODE_EVT) == EXTI_MODE_EVT)
 3435              		.loc 1 1240 18
 3436 0072 BB68     		ldr	r3, [r7, #8]
 3437 0074 03F40033 		and	r3, r3, #131072
ARM GAS  /tmp/cclvVaTN.s 			page 81


 3438              		.loc 1 1240 5
 3439 0078 002B     		cmp	r3, #0
 3440 007a 2DD0     		beq	.L217
1241:./Libraries/STM32H7xx_HAL_Driver/Src/stm32h7xx_hal.c ****   {
1242:./Libraries/STM32H7xx_HAL_Driver/Src/stm32h7xx_hal.c ****     if( EXTI_LineCmd == 0UL)
 3441              		.loc 1 1242 7
 3442 007c 7B68     		ldr	r3, [r7, #4]
 3443 007e 002B     		cmp	r3, #0
 3444 0080 16D1     		bne	.L216
1243:./Libraries/STM32H7xx_HAL_Driver/Src/stm32h7xx_hal.c ****     {
1244:./Libraries/STM32H7xx_HAL_Driver/Src/stm32h7xx_hal.c ****       /* Clear EXTI line configuration */
1245:./Libraries/STM32H7xx_HAL_Driver/Src/stm32h7xx_hal.c ****       CLEAR_BIT(  *(__IO uint32_t *) (((uint32_t) &(EXTI_D2->EMR1)) + ((EXTI_Line >> 5 ) * 0x10UL))
 3445              		.loc 1 1245 7
 3446 0082 FB68     		ldr	r3, [r7, #12]
 3447 0084 5B09     		lsrs	r3, r3, #5
 3448 0086 1A01     		lsls	r2, r3, #4
 3449 0088 174B     		ldr	r3, .L218+4
 3450 008a 1344     		add	r3, r3, r2
 3451 008c 1968     		ldr	r1, [r3]
 3452 008e FB68     		ldr	r3, [r7, #12]
 3453 0090 03F01F03 		and	r3, r3, #31
 3454 0094 0122     		movs	r2, #1
 3455 0096 02FA03F3 		lsl	r3, r2, r3
 3456 009a DA43     		mvns	r2, r3
 3457 009c FB68     		ldr	r3, [r7, #12]
 3458 009e 5B09     		lsrs	r3, r3, #5
 3459 00a0 1801     		lsls	r0, r3, #4
 3460 00a2 114B     		ldr	r3, .L218+4
 3461 00a4 0344     		add	r3, r3, r0
 3462 00a6 1846     		mov	r0, r3
 3463 00a8 01EA0203 		and	r3, r1, r2
 3464 00ac 0360     		str	r3, [r0]
1246:./Libraries/STM32H7xx_HAL_Driver/Src/stm32h7xx_hal.c ****     }
1247:./Libraries/STM32H7xx_HAL_Driver/Src/stm32h7xx_hal.c ****     else
1248:./Libraries/STM32H7xx_HAL_Driver/Src/stm32h7xx_hal.c ****     {
1249:./Libraries/STM32H7xx_HAL_Driver/Src/stm32h7xx_hal.c ****       SET_BIT(  *(__IO uint32_t *) (((uint32_t) &(EXTI_D2->EMR1)) + ((EXTI_Line >> 5 ) * 0x10UL)), 
1250:./Libraries/STM32H7xx_HAL_Driver/Src/stm32h7xx_hal.c ****     }
1251:./Libraries/STM32H7xx_HAL_Driver/Src/stm32h7xx_hal.c ****   }
1252:./Libraries/STM32H7xx_HAL_Driver/Src/stm32h7xx_hal.c **** }
 3465              		.loc 1 1252 1
 3466 00ae 13E0     		b	.L217
 3467              	.L216:
1249:./Libraries/STM32H7xx_HAL_Driver/Src/stm32h7xx_hal.c ****     }
 3468              		.loc 1 1249 7
 3469 00b0 FB68     		ldr	r3, [r7, #12]
 3470 00b2 5B09     		lsrs	r3, r3, #5
 3471 00b4 1A01     		lsls	r2, r3, #4
 3472 00b6 0C4B     		ldr	r3, .L218+4
 3473 00b8 1344     		add	r3, r3, r2
 3474 00ba 1968     		ldr	r1, [r3]
 3475 00bc FB68     		ldr	r3, [r7, #12]
 3476 00be 03F01F03 		and	r3, r3, #31
 3477 00c2 0122     		movs	r2, #1
 3478 00c4 9A40     		lsls	r2, r2, r3
 3479 00c6 FB68     		ldr	r3, [r7, #12]
 3480 00c8 5B09     		lsrs	r3, r3, #5
 3481 00ca 1801     		lsls	r0, r3, #4
ARM GAS  /tmp/cclvVaTN.s 			page 82


 3482 00cc 064B     		ldr	r3, .L218+4
 3483 00ce 0344     		add	r3, r3, r0
 3484 00d0 1846     		mov	r0, r3
 3485 00d2 41EA0203 		orr	r3, r1, r2
 3486 00d6 0360     		str	r3, [r0]
 3487              	.L217:
 3488              		.loc 1 1252 1
 3489 00d8 00BF     		nop
 3490 00da 1437     		adds	r7, r7, #20
 3491              	.LCFI272:
 3492              		.cfi_def_cfa_offset 4
 3493 00dc BD46     		mov	sp, r7
 3494              	.LCFI273:
 3495              		.cfi_def_cfa_register 13
 3496              		@ sp needed
 3497 00de 5DF8047B 		ldr	r7, [sp], #4
 3498              	.LCFI274:
 3499              		.cfi_restore 7
 3500              		.cfi_def_cfa_offset 0
 3501 00e2 7047     		bx	lr
 3502              	.L219:
 3503              		.align	2
 3504              	.L218:
 3505 00e4 0C008005 		.word	92274700
 3506 00e8 C4000058 		.word	1476395204
 3507              		.cfi_endproc
 3508              	.LFE390:
 3510              		.section	.text.HAL_EXTI_D3_EventInputConfig,"ax",%progbits
 3511              		.align	1
 3512              		.global	HAL_EXTI_D3_EventInputConfig
 3513              		.syntax unified
 3514              		.thumb
 3515              		.thumb_func
 3516              		.fpu fpv5-d16
 3518              	HAL_EXTI_D3_EventInputConfig:
 3519              	.LFB391:
1253:./Libraries/STM32H7xx_HAL_Driver/Src/stm32h7xx_hal.c **** #endif /*DUAL_CORE*/
1254:./Libraries/STM32H7xx_HAL_Driver/Src/stm32h7xx_hal.c **** 
1255:./Libraries/STM32H7xx_HAL_Driver/Src/stm32h7xx_hal.c **** /**
1256:./Libraries/STM32H7xx_HAL_Driver/Src/stm32h7xx_hal.c ****   * @brief  Configure the EXTI input event line for Domain D3
1257:./Libraries/STM32H7xx_HAL_Driver/Src/stm32h7xx_hal.c ****   * @param   EXTI_Line: Specifies the EXTI LINE, it can be one of the following values,
1258:./Libraries/STM32H7xx_HAL_Driver/Src/stm32h7xx_hal.c ****   *         (EXTI_LINE0...EXTI_LINE15),(EXTI_LINE19...EXTI_LINE21),EXTI_LINE25, EXTI_LINE34,
1259:./Libraries/STM32H7xx_HAL_Driver/Src/stm32h7xx_hal.c ****   *          EXTI_LINE35,EXTI_LINE41,(EXTI_LINE48...EXTI_LINE53)
1260:./Libraries/STM32H7xx_HAL_Driver/Src/stm32h7xx_hal.c ****   * @param   EXTI_LineCmd controls (Enable/Disable) the EXTI line.
1261:./Libraries/STM32H7xx_HAL_Driver/Src/stm32h7xx_hal.c ****   * @param   EXTI_ClearSrc: Specifies the clear source of D3 pending event.
