ARM GAS  /tmp/ccss59G4.s 			page 1


   1              		.cpu cortex-m7
   2              		.eabi_attribute 28, 1
   3              		.eabi_attribute 20, 1
   4              		.eabi_attribute 21, 1
   5              		.eabi_attribute 23, 3
   6              		.eabi_attribute 24, 1
   7              		.eabi_attribute 25, 1
   8              		.eabi_attribute 26, 1
   9              		.eabi_attribute 30, 6
  10              		.eabi_attribute 34, 1
  11              		.eabi_attribute 18, 4
  12              		.file	"stm32h7xx_hal_hsem.c"
  13              		.text
  14              	.Ltext0:
  15              		.cfi_sections	.debug_frame
  16              		.section	.text.HAL_HSEM_Take,"ax",%progbits
  17              		.align	1
  18              		.global	HAL_HSEM_Take
  19              		.arch armv7e-m
  20              		.syntax unified
  21              		.thumb
  22              		.thumb_func
  23              		.fpu fpv5-d16
  25              	HAL_HSEM_Take:
  26              	.LFB331:
  27              		.file 1 "./Libraries/STM32H7xx_HAL_Driver/Src/stm32h7xx_hal_hsem.c"
   1:./Libraries/STM32H7xx_HAL_Driver/Src/stm32h7xx_hal_hsem.c **** /**
   2:./Libraries/STM32H7xx_HAL_Driver/Src/stm32h7xx_hal_hsem.c ****   ******************************************************************************
   3:./Libraries/STM32H7xx_HAL_Driver/Src/stm32h7xx_hal_hsem.c ****   * @file    stm32h7xx_hal_hsem.c
   4:./Libraries/STM32H7xx_HAL_Driver/Src/stm32h7xx_hal_hsem.c ****   * @author  MCD Application Team
   5:./Libraries/STM32H7xx_HAL_Driver/Src/stm32h7xx_hal_hsem.c ****   * @brief   HSEM HAL module driver.
   6:./Libraries/STM32H7xx_HAL_Driver/Src/stm32h7xx_hal_hsem.c ****   *          This file provides firmware functions to manage the following
   7:./Libraries/STM32H7xx_HAL_Driver/Src/stm32h7xx_hal_hsem.c ****   *          functionalities of the semaphore peripheral:
   8:./Libraries/STM32H7xx_HAL_Driver/Src/stm32h7xx_hal_hsem.c ****   *           + Semaphore Take function (2-Step Procedure) , non blocking
   9:./Libraries/STM32H7xx_HAL_Driver/Src/stm32h7xx_hal_hsem.c ****   *           + Semaphore FastTake function (1-Step Procedure) , non blocking
  10:./Libraries/STM32H7xx_HAL_Driver/Src/stm32h7xx_hal_hsem.c ****   *           + Semaphore Status check
  11:./Libraries/STM32H7xx_HAL_Driver/Src/stm32h7xx_hal_hsem.c ****   *           + Semaphore Clear Key Set and Get
  12:./Libraries/STM32H7xx_HAL_Driver/Src/stm32h7xx_hal_hsem.c ****   *           + Release and release all functions
  13:./Libraries/STM32H7xx_HAL_Driver/Src/stm32h7xx_hal_hsem.c ****   *           + Semaphore notification enabling and disabling and callnack functions
  14:./Libraries/STM32H7xx_HAL_Driver/Src/stm32h7xx_hal_hsem.c ****   *           + IRQ handler management
  15:./Libraries/STM32H7xx_HAL_Driver/Src/stm32h7xx_hal_hsem.c ****   *
  16:./Libraries/STM32H7xx_HAL_Driver/Src/stm32h7xx_hal_hsem.c ****   *
  17:./Libraries/STM32H7xx_HAL_Driver/Src/stm32h7xx_hal_hsem.c ****   @verbatim
  18:./Libraries/STM32H7xx_HAL_Driver/Src/stm32h7xx_hal_hsem.c ****   ==============================================================================
  19:./Libraries/STM32H7xx_HAL_Driver/Src/stm32h7xx_hal_hsem.c ****                      ##### How to use this driver #####
  20:./Libraries/STM32H7xx_HAL_Driver/Src/stm32h7xx_hal_hsem.c ****   ==============================================================================
  21:./Libraries/STM32H7xx_HAL_Driver/Src/stm32h7xx_hal_hsem.c ****   [..]
  22:./Libraries/STM32H7xx_HAL_Driver/Src/stm32h7xx_hal_hsem.c ****       (#)Take a semaphore In 2-Step mode Using function HAL_HSEM_Take. This function takes as param
  23:./Libraries/STM32H7xx_HAL_Driver/Src/stm32h7xx_hal_hsem.c ****            (++) the semaphore ID from 0 to 31
  24:./Libraries/STM32H7xx_HAL_Driver/Src/stm32h7xx_hal_hsem.c ****            (++) the process ID from 0 to 255
  25:./Libraries/STM32H7xx_HAL_Driver/Src/stm32h7xx_hal_hsem.c ****       (#) Fast Take semaphore In 1-Step mode Using function HAL_HSEM_FastTake. This function takes 
  26:./Libraries/STM32H7xx_HAL_Driver/Src/stm32h7xx_hal_hsem.c ****            (++) the semaphore ID from 0_ID to 31. Note that the process ID value is implicitly assu
  27:./Libraries/STM32H7xx_HAL_Driver/Src/stm32h7xx_hal_hsem.c ****       (#) Check if a semaphore is Taken using function HAL_HSEM_IsSemTaken. This function takes as 
  28:./Libraries/STM32H7xx_HAL_Driver/Src/stm32h7xx_hal_hsem.c ****           (++) the semaphore ID from 0_ID to 31
  29:./Libraries/STM32H7xx_HAL_Driver/Src/stm32h7xx_hal_hsem.c ****           (++) It returns 1 if the given semaphore is taken otherwise (Free) zero
  30:./Libraries/STM32H7xx_HAL_Driver/Src/stm32h7xx_hal_hsem.c ****       (#)Release a semaphore using function with HAL_HSEM_Release. This function takes as parameter
  31:./Libraries/STM32H7xx_HAL_Driver/Src/stm32h7xx_hal_hsem.c ****            (++) the semaphore ID from 0 to 31
ARM GAS  /tmp/ccss59G4.s 			page 2


  32:./Libraries/STM32H7xx_HAL_Driver/Src/stm32h7xx_hal_hsem.c ****            (++) the process ID from 0 to 255:
  33:./Libraries/STM32H7xx_HAL_Driver/Src/stm32h7xx_hal_hsem.c ****            (++) Note: If ProcessID and MasterID match, semaphore is freed, and an interrupt
  34:./Libraries/STM32H7xx_HAL_Driver/Src/stm32h7xx_hal_hsem.c ****          may be generated when enabled (notification activated). If ProcessID or MasterID does not 
  35:./Libraries/STM32H7xx_HAL_Driver/Src/stm32h7xx_hal_hsem.c ****          semaphore remains taken (locked)
  36:./Libraries/STM32H7xx_HAL_Driver/Src/stm32h7xx_hal_hsem.c **** 
  37:./Libraries/STM32H7xx_HAL_Driver/Src/stm32h7xx_hal_hsem.c ****       (#)Release all semaphores at once taken by a given Master using function HAL_HSEM_Release_All
  38:./Libraries/STM32H7xx_HAL_Driver/Src/stm32h7xx_hal_hsem.c ****           This function takes as parameters :
  39:./Libraries/STM32H7xx_HAL_Driver/Src/stm32h7xx_hal_hsem.c ****            (++) the Release Key (value from 0 to 0xFFFF) can be Set or Get respectively by
  40:./Libraries/STM32H7xx_HAL_Driver/Src/stm32h7xx_hal_hsem.c ****               HAL_HSEM_SetClearKey() or HAL_HSEM_GetClearKey functions
  41:./Libraries/STM32H7xx_HAL_Driver/Src/stm32h7xx_hal_hsem.c ****            (++) the Master ID:
  42:./Libraries/STM32H7xx_HAL_Driver/Src/stm32h7xx_hal_hsem.c ****            (++) Note: If the Key and MasterID match, all semaphores taken by the given CPU that cor
  43:./Libraries/STM32H7xx_HAL_Driver/Src/stm32h7xx_hal_hsem.c ****            to MasterID  will be freed, and an interrupt may be generated when enabled (notification
  44:./Libraries/STM32H7xx_HAL_Driver/Src/stm32h7xx_hal_hsem.c ****            Key or the MasterID doesn't match, semaphores remains taken (locked)
  45:./Libraries/STM32H7xx_HAL_Driver/Src/stm32h7xx_hal_hsem.c **** 
  46:./Libraries/STM32H7xx_HAL_Driver/Src/stm32h7xx_hal_hsem.c ****       (#)Semaphores Release all key functions:
  47:./Libraries/STM32H7xx_HAL_Driver/Src/stm32h7xx_hal_hsem.c ****          (++)  HAL_HSEM_SetClearKey() to set semaphore release all Key
  48:./Libraries/STM32H7xx_HAL_Driver/Src/stm32h7xx_hal_hsem.c ****          (++)  HAL_HSEM_GetClearKey() to get release all Key
  49:./Libraries/STM32H7xx_HAL_Driver/Src/stm32h7xx_hal_hsem.c ****       (#)Semaphores notification functions :
  50:./Libraries/STM32H7xx_HAL_Driver/Src/stm32h7xx_hal_hsem.c ****          (++)  HAL_HSEM_ActivateNotification to activate a notification callback on
  51:./Libraries/STM32H7xx_HAL_Driver/Src/stm32h7xx_hal_hsem.c ****                a given semaphores Mask (bitfield). When one or more semaphores defined by the mask 
  52:./Libraries/STM32H7xx_HAL_Driver/Src/stm32h7xx_hal_hsem.c ****                the callback HAL_HSEM_FreeCallback will be asserted giving as parameters a mask of t
  53:./Libraries/STM32H7xx_HAL_Driver/Src/stm32h7xx_hal_hsem.c ****                semaphores (bitfield).
  54:./Libraries/STM32H7xx_HAL_Driver/Src/stm32h7xx_hal_hsem.c **** 
  55:./Libraries/STM32H7xx_HAL_Driver/Src/stm32h7xx_hal_hsem.c ****          (++)  HAL_HSEM_DeactivateNotification to deactivate the notification of a given semaphores
  56:./Libraries/STM32H7xx_HAL_Driver/Src/stm32h7xx_hal_hsem.c ****          (++) See the description of the macro __HAL_HSEM_SEMID_TO_MASK to check how to calculate a
  57:./Libraries/STM32H7xx_HAL_Driver/Src/stm32h7xx_hal_hsem.c ****                 Used by the notification functions
  58:./Libraries/STM32H7xx_HAL_Driver/Src/stm32h7xx_hal_hsem.c ****      *** HSEM HAL driver macros list ***
  59:./Libraries/STM32H7xx_HAL_Driver/Src/stm32h7xx_hal_hsem.c ****      =============================================
  60:./Libraries/STM32H7xx_HAL_Driver/Src/stm32h7xx_hal_hsem.c ****      [..] Below the list of most used macros in HSEM HAL driver.
  61:./Libraries/STM32H7xx_HAL_Driver/Src/stm32h7xx_hal_hsem.c **** 
  62:./Libraries/STM32H7xx_HAL_Driver/Src/stm32h7xx_hal_hsem.c ****       (+) __HAL_HSEM_SEMID_TO_MASK: Helper macro to convert a Semaphore ID to a Mask.
  63:./Libraries/STM32H7xx_HAL_Driver/Src/stm32h7xx_hal_hsem.c ****       [..] Example of use :
  64:./Libraries/STM32H7xx_HAL_Driver/Src/stm32h7xx_hal_hsem.c ****       [..] mask = __HAL_HSEM_SEMID_TO_MASK(8)  |  __HAL_HSEM_SEMID_TO_MASK(21) | __HAL_HSEM_SEMID_T
  65:./Libraries/STM32H7xx_HAL_Driver/Src/stm32h7xx_hal_hsem.c ****       [..] All next macros take as parameter a semaphore Mask (bitfiled) that can be constructed us
  66:./Libraries/STM32H7xx_HAL_Driver/Src/stm32h7xx_hal_hsem.c ****       (+) __HAL_HSEM_ENABLE_IT: Enable the specified semaphores Mask interrupts.
  67:./Libraries/STM32H7xx_HAL_Driver/Src/stm32h7xx_hal_hsem.c ****       (+) __HAL_HSEM_DISABLE_IT: Disable the specified semaphores Mask interrupts.
  68:./Libraries/STM32H7xx_HAL_Driver/Src/stm32h7xx_hal_hsem.c ****       (+) __HAL_HSEM_GET_IT: Checks whether the specified semaphore interrupt has occurred or not.
  69:./Libraries/STM32H7xx_HAL_Driver/Src/stm32h7xx_hal_hsem.c ****       (+) __HAL_HSEM_GET_FLAG: Get the semaphores status release flags.
  70:./Libraries/STM32H7xx_HAL_Driver/Src/stm32h7xx_hal_hsem.c ****       (+) __HAL_HSEM_CLEAR_FLAG: Clear the semaphores status release flags.
  71:./Libraries/STM32H7xx_HAL_Driver/Src/stm32h7xx_hal_hsem.c **** 
  72:./Libraries/STM32H7xx_HAL_Driver/Src/stm32h7xx_hal_hsem.c ****   @endverbatim
  73:./Libraries/STM32H7xx_HAL_Driver/Src/stm32h7xx_hal_hsem.c ****   ******************************************************************************
  74:./Libraries/STM32H7xx_HAL_Driver/Src/stm32h7xx_hal_hsem.c ****   * @attention
  75:./Libraries/STM32H7xx_HAL_Driver/Src/stm32h7xx_hal_hsem.c ****   *
  76:./Libraries/STM32H7xx_HAL_Driver/Src/stm32h7xx_hal_hsem.c ****   * <h2><center>&copy; Copyright (c) 2017 STMicroelectronics.
  77:./Libraries/STM32H7xx_HAL_Driver/Src/stm32h7xx_hal_hsem.c ****   * All rights reserved.</center></h2>
  78:./Libraries/STM32H7xx_HAL_Driver/Src/stm32h7xx_hal_hsem.c ****   *
  79:./Libraries/STM32H7xx_HAL_Driver/Src/stm32h7xx_hal_hsem.c ****   * This software component is licensed by ST under BSD 3-Clause license,
  80:./Libraries/STM32H7xx_HAL_Driver/Src/stm32h7xx_hal_hsem.c ****   * the "License"; You may not use this file except in compliance with the
  81:./Libraries/STM32H7xx_HAL_Driver/Src/stm32h7xx_hal_hsem.c ****   * License. You may obtain a copy of the License at:
  82:./Libraries/STM32H7xx_HAL_Driver/Src/stm32h7xx_hal_hsem.c ****   *                        opensource.org/licenses/BSD-3-Clause
  83:./Libraries/STM32H7xx_HAL_Driver/Src/stm32h7xx_hal_hsem.c ****   *
  84:./Libraries/STM32H7xx_HAL_Driver/Src/stm32h7xx_hal_hsem.c ****   ******************************************************************************
  85:./Libraries/STM32H7xx_HAL_Driver/Src/stm32h7xx_hal_hsem.c ****   */
  86:./Libraries/STM32H7xx_HAL_Driver/Src/stm32h7xx_hal_hsem.c **** 
  87:./Libraries/STM32H7xx_HAL_Driver/Src/stm32h7xx_hal_hsem.c **** /* Includes ------------------------------------------------------------------*/
  88:./Libraries/STM32H7xx_HAL_Driver/Src/stm32h7xx_hal_hsem.c **** #include "stm32h7xx_hal.h"
ARM GAS  /tmp/ccss59G4.s 			page 3


  89:./Libraries/STM32H7xx_HAL_Driver/Src/stm32h7xx_hal_hsem.c **** 
  90:./Libraries/STM32H7xx_HAL_Driver/Src/stm32h7xx_hal_hsem.c **** /** @addtogroup STM32H7xx_HAL_Driver
  91:./Libraries/STM32H7xx_HAL_Driver/Src/stm32h7xx_hal_hsem.c ****   * @{
  92:./Libraries/STM32H7xx_HAL_Driver/Src/stm32h7xx_hal_hsem.c ****   */
  93:./Libraries/STM32H7xx_HAL_Driver/Src/stm32h7xx_hal_hsem.c **** 
  94:./Libraries/STM32H7xx_HAL_Driver/Src/stm32h7xx_hal_hsem.c **** /** @defgroup HSEM HSEM
  95:./Libraries/STM32H7xx_HAL_Driver/Src/stm32h7xx_hal_hsem.c ****   * @brief HSEM HAL module driver
  96:./Libraries/STM32H7xx_HAL_Driver/Src/stm32h7xx_hal_hsem.c ****   * @{
  97:./Libraries/STM32H7xx_HAL_Driver/Src/stm32h7xx_hal_hsem.c ****   */
  98:./Libraries/STM32H7xx_HAL_Driver/Src/stm32h7xx_hal_hsem.c **** 
  99:./Libraries/STM32H7xx_HAL_Driver/Src/stm32h7xx_hal_hsem.c **** #ifdef HAL_HSEM_MODULE_ENABLED
 100:./Libraries/STM32H7xx_HAL_Driver/Src/stm32h7xx_hal_hsem.c **** 
 101:./Libraries/STM32H7xx_HAL_Driver/Src/stm32h7xx_hal_hsem.c **** /* Private typedef -----------------------------------------------------------*/
 102:./Libraries/STM32H7xx_HAL_Driver/Src/stm32h7xx_hal_hsem.c **** /* Private define ------------------------------------------------------------*/
 103:./Libraries/STM32H7xx_HAL_Driver/Src/stm32h7xx_hal_hsem.c **** #if defined(DUAL_CORE)
 104:./Libraries/STM32H7xx_HAL_Driver/Src/stm32h7xx_hal_hsem.c **** /** @defgroup HSEM_Private_Constants  HSEM Private Constants
 105:./Libraries/STM32H7xx_HAL_Driver/Src/stm32h7xx_hal_hsem.c ****   * @{
 106:./Libraries/STM32H7xx_HAL_Driver/Src/stm32h7xx_hal_hsem.c ****   */
 107:./Libraries/STM32H7xx_HAL_Driver/Src/stm32h7xx_hal_hsem.c **** 
 108:./Libraries/STM32H7xx_HAL_Driver/Src/stm32h7xx_hal_hsem.c **** #ifndef HSEM_R_MASTERID
 109:./Libraries/STM32H7xx_HAL_Driver/Src/stm32h7xx_hal_hsem.c **** #define HSEM_R_MASTERID HSEM_R_COREID
 110:./Libraries/STM32H7xx_HAL_Driver/Src/stm32h7xx_hal_hsem.c **** #endif
 111:./Libraries/STM32H7xx_HAL_Driver/Src/stm32h7xx_hal_hsem.c **** 
 112:./Libraries/STM32H7xx_HAL_Driver/Src/stm32h7xx_hal_hsem.c **** #ifndef HSEM_RLR_MASTERID
 113:./Libraries/STM32H7xx_HAL_Driver/Src/stm32h7xx_hal_hsem.c **** #define HSEM_RLR_MASTERID HSEM_RLR_COREID
 114:./Libraries/STM32H7xx_HAL_Driver/Src/stm32h7xx_hal_hsem.c **** #endif
 115:./Libraries/STM32H7xx_HAL_Driver/Src/stm32h7xx_hal_hsem.c **** 
 116:./Libraries/STM32H7xx_HAL_Driver/Src/stm32h7xx_hal_hsem.c **** #ifndef HSEM_CR_MASTERID
 117:./Libraries/STM32H7xx_HAL_Driver/Src/stm32h7xx_hal_hsem.c **** #define HSEM_CR_MASTERID HSEM_CR_COREID
 118:./Libraries/STM32H7xx_HAL_Driver/Src/stm32h7xx_hal_hsem.c **** #endif
 119:./Libraries/STM32H7xx_HAL_Driver/Src/stm32h7xx_hal_hsem.c **** 
 120:./Libraries/STM32H7xx_HAL_Driver/Src/stm32h7xx_hal_hsem.c **** /**
 121:./Libraries/STM32H7xx_HAL_Driver/Src/stm32h7xx_hal_hsem.c ****   * @}
 122:./Libraries/STM32H7xx_HAL_Driver/Src/stm32h7xx_hal_hsem.c ****   */  
 123:./Libraries/STM32H7xx_HAL_Driver/Src/stm32h7xx_hal_hsem.c **** #endif /* DUAL_CORE */
 124:./Libraries/STM32H7xx_HAL_Driver/Src/stm32h7xx_hal_hsem.c **** /* Private macro -------------------------------------------------------------*/
 125:./Libraries/STM32H7xx_HAL_Driver/Src/stm32h7xx_hal_hsem.c **** /* Private variables ---------------------------------------------------------*/
 126:./Libraries/STM32H7xx_HAL_Driver/Src/stm32h7xx_hal_hsem.c **** /* Private function prototypes -----------------------------------------------*/
 127:./Libraries/STM32H7xx_HAL_Driver/Src/stm32h7xx_hal_hsem.c **** /* Private functions ---------------------------------------------------------*/
 128:./Libraries/STM32H7xx_HAL_Driver/Src/stm32h7xx_hal_hsem.c **** /* Exported functions --------------------------------------------------------*/
 129:./Libraries/STM32H7xx_HAL_Driver/Src/stm32h7xx_hal_hsem.c **** 
 130:./Libraries/STM32H7xx_HAL_Driver/Src/stm32h7xx_hal_hsem.c **** /** @defgroup HSEM_Exported_Functions  HSEM Exported Functions
 131:./Libraries/STM32H7xx_HAL_Driver/Src/stm32h7xx_hal_hsem.c ****   * @{
 132:./Libraries/STM32H7xx_HAL_Driver/Src/stm32h7xx_hal_hsem.c ****   */
 133:./Libraries/STM32H7xx_HAL_Driver/Src/stm32h7xx_hal_hsem.c **** 
 134:./Libraries/STM32H7xx_HAL_Driver/Src/stm32h7xx_hal_hsem.c **** /** @defgroup HSEM_Exported_Functions_Group1 Take and Release functions
 135:./Libraries/STM32H7xx_HAL_Driver/Src/stm32h7xx_hal_hsem.c ****   *  @brief    HSEM Take and Release functions
 136:./Libraries/STM32H7xx_HAL_Driver/Src/stm32h7xx_hal_hsem.c ****   *
 137:./Libraries/STM32H7xx_HAL_Driver/Src/stm32h7xx_hal_hsem.c **** @verbatim
 138:./Libraries/STM32H7xx_HAL_Driver/Src/stm32h7xx_hal_hsem.c ****  ==============================================================================
 139:./Libraries/STM32H7xx_HAL_Driver/Src/stm32h7xx_hal_hsem.c ****               ##### HSEM Take and Release functions #####
 140:./Libraries/STM32H7xx_HAL_Driver/Src/stm32h7xx_hal_hsem.c ****  ==============================================================================
 141:./Libraries/STM32H7xx_HAL_Driver/Src/stm32h7xx_hal_hsem.c **** [..] This section provides functions allowing to:
 142:./Libraries/STM32H7xx_HAL_Driver/Src/stm32h7xx_hal_hsem.c ****       (+) Take a semaphore with 2 Step method
 143:./Libraries/STM32H7xx_HAL_Driver/Src/stm32h7xx_hal_hsem.c ****       (+) Fast Take a semaphore with 1 Step method
 144:./Libraries/STM32H7xx_HAL_Driver/Src/stm32h7xx_hal_hsem.c ****       (+) Check semaphore state Taken or not
 145:./Libraries/STM32H7xx_HAL_Driver/Src/stm32h7xx_hal_hsem.c ****       (+) Release a semaphore
ARM GAS  /tmp/ccss59G4.s 			page 4


 146:./Libraries/STM32H7xx_HAL_Driver/Src/stm32h7xx_hal_hsem.c ****       (+) Release all semaphore at once
 147:./Libraries/STM32H7xx_HAL_Driver/Src/stm32h7xx_hal_hsem.c **** 
 148:./Libraries/STM32H7xx_HAL_Driver/Src/stm32h7xx_hal_hsem.c **** @endverbatim
 149:./Libraries/STM32H7xx_HAL_Driver/Src/stm32h7xx_hal_hsem.c ****   * @{
 150:./Libraries/STM32H7xx_HAL_Driver/Src/stm32h7xx_hal_hsem.c ****   */
 151:./Libraries/STM32H7xx_HAL_Driver/Src/stm32h7xx_hal_hsem.c **** 
 152:./Libraries/STM32H7xx_HAL_Driver/Src/stm32h7xx_hal_hsem.c **** 
 153:./Libraries/STM32H7xx_HAL_Driver/Src/stm32h7xx_hal_hsem.c **** /**
 154:./Libraries/STM32H7xx_HAL_Driver/Src/stm32h7xx_hal_hsem.c ****   * @brief  Take a semaphore in 2 Step mode.
 155:./Libraries/STM32H7xx_HAL_Driver/Src/stm32h7xx_hal_hsem.c ****   * @param  SemID: semaphore ID from 0 to 31
 156:./Libraries/STM32H7xx_HAL_Driver/Src/stm32h7xx_hal_hsem.c ****   * @param  ProcessID: Process ID from 0 to 255
 157:./Libraries/STM32H7xx_HAL_Driver/Src/stm32h7xx_hal_hsem.c ****   * @retval HAL status
 158:./Libraries/STM32H7xx_HAL_Driver/Src/stm32h7xx_hal_hsem.c ****   */
 159:./Libraries/STM32H7xx_HAL_Driver/Src/stm32h7xx_hal_hsem.c **** HAL_StatusTypeDef  HAL_HSEM_Take(uint32_t SemID, uint32_t ProcessID)
 160:./Libraries/STM32H7xx_HAL_Driver/Src/stm32h7xx_hal_hsem.c **** {
  28              		.loc 1 160 1
  29              		.cfi_startproc
  30              		@ args = 0, pretend = 0, frame = 8
  31              		@ frame_needed = 1, uses_anonymous_args = 0
  32              		@ link register save eliminated.
  33 0000 80B4     		push	{r7}
  34              	.LCFI0:
  35              		.cfi_def_cfa_offset 4
  36              		.cfi_offset 7, -4
  37 0002 83B0     		sub	sp, sp, #12
  38              	.LCFI1:
  39              		.cfi_def_cfa_offset 16
  40 0004 00AF     		add	r7, sp, #0
  41              	.LCFI2:
  42              		.cfi_def_cfa_register 7
  43 0006 7860     		str	r0, [r7, #4]
  44 0008 3960     		str	r1, [r7]
 161:./Libraries/STM32H7xx_HAL_Driver/Src/stm32h7xx_hal_hsem.c ****   /* Check the parameters */
 162:./Libraries/STM32H7xx_HAL_Driver/Src/stm32h7xx_hal_hsem.c ****   assert_param(IS_HSEM_SEMID(SemID));
 163:./Libraries/STM32H7xx_HAL_Driver/Src/stm32h7xx_hal_hsem.c ****   assert_param(IS_HSEM_PROCESSID(ProcessID));
 164:./Libraries/STM32H7xx_HAL_Driver/Src/stm32h7xx_hal_hsem.c **** 
 165:./Libraries/STM32H7xx_HAL_Driver/Src/stm32h7xx_hal_hsem.c **** #if  USE_MULTI_CORE_SHARED_CODE != 0U
 166:./Libraries/STM32H7xx_HAL_Driver/Src/stm32h7xx_hal_hsem.c ****   /* First step  write R register with MasterID, processID and take bit=1*/
 167:./Libraries/STM32H7xx_HAL_Driver/Src/stm32h7xx_hal_hsem.c ****   HSEM->R[SemID] = ((ProcessID & HSEM_R_PROCID) | ((HAL_GetCurrentCPUID() << POSITION_VAL(HSEM_R_MA
 168:./Libraries/STM32H7xx_HAL_Driver/Src/stm32h7xx_hal_hsem.c **** 
 169:./Libraries/STM32H7xx_HAL_Driver/Src/stm32h7xx_hal_hsem.c ****   /* second step : read the R register . Take achieved if MasterID and processID match and take bit
 170:./Libraries/STM32H7xx_HAL_Driver/Src/stm32h7xx_hal_hsem.c ****   if (HSEM->R[SemID] == ((ProcessID & HSEM_R_PROCID) | ((HAL_GetCurrentCPUID() << POSITION_VAL(HSEM
 171:./Libraries/STM32H7xx_HAL_Driver/Src/stm32h7xx_hal_hsem.c ****   {
 172:./Libraries/STM32H7xx_HAL_Driver/Src/stm32h7xx_hal_hsem.c ****     /*take success when MasterID and ProcessID match and take bit set*/
 173:./Libraries/STM32H7xx_HAL_Driver/Src/stm32h7xx_hal_hsem.c ****     return HAL_OK;
 174:./Libraries/STM32H7xx_HAL_Driver/Src/stm32h7xx_hal_hsem.c ****   }
 175:./Libraries/STM32H7xx_HAL_Driver/Src/stm32h7xx_hal_hsem.c **** #else
 176:./Libraries/STM32H7xx_HAL_Driver/Src/stm32h7xx_hal_hsem.c ****   /* First step  write R register with MasterID, processID and take bit=1*/
 177:./Libraries/STM32H7xx_HAL_Driver/Src/stm32h7xx_hal_hsem.c ****   HSEM->R[SemID] = (ProcessID | HSEM_CR_COREID_CURRENT | HSEM_R_LOCK);
  45              		.loc 1 177 7
  46 000a 0C49     		ldr	r1, .L4
  47              		.loc 1 177 56
  48 000c 3A68     		ldr	r2, [r7]
  49 000e 0C4B     		ldr	r3, .L4+4
  50 0010 1343     		orrs	r3, r3, r2
  51              		.loc 1 177 18
  52 0012 7A68     		ldr	r2, [r7, #4]
ARM GAS  /tmp/ccss59G4.s 			page 5


  53 0014 41F82230 		str	r3, [r1, r2, lsl #2]
 178:./Libraries/STM32H7xx_HAL_Driver/Src/stm32h7xx_hal_hsem.c **** 
 179:./Libraries/STM32H7xx_HAL_Driver/Src/stm32h7xx_hal_hsem.c ****   /* second step : read the R register . Take achieved if MasterID and processID match and take bit
 180:./Libraries/STM32H7xx_HAL_Driver/Src/stm32h7xx_hal_hsem.c ****   if (HSEM->R[SemID] == (ProcessID | HSEM_CR_COREID_CURRENT | HSEM_R_LOCK))
  54              		.loc 1 180 11
  55 0018 084A     		ldr	r2, .L4
  56              		.loc 1 180 14
  57 001a 7B68     		ldr	r3, [r7, #4]
  58 001c 52F82320 		ldr	r2, [r2, r3, lsl #2]
  59              		.loc 1 180 61
  60 0020 3968     		ldr	r1, [r7]
  61 0022 074B     		ldr	r3, .L4+4
  62 0024 0B43     		orrs	r3, r3, r1
  63              		.loc 1 180 6
  64 0026 9A42     		cmp	r2, r3
  65 0028 01D1     		bne	.L2
 181:./Libraries/STM32H7xx_HAL_Driver/Src/stm32h7xx_hal_hsem.c ****   {
 182:./Libraries/STM32H7xx_HAL_Driver/Src/stm32h7xx_hal_hsem.c ****     /*take success when MasterID and ProcessID match and take bit set*/
 183:./Libraries/STM32H7xx_HAL_Driver/Src/stm32h7xx_hal_hsem.c ****     return HAL_OK;
  66              		.loc 1 183 12
  67 002a 0023     		movs	r3, #0
  68 002c 00E0     		b	.L3
  69              	.L2:
 184:./Libraries/STM32H7xx_HAL_Driver/Src/stm32h7xx_hal_hsem.c ****   }
 185:./Libraries/STM32H7xx_HAL_Driver/Src/stm32h7xx_hal_hsem.c **** #endif
 186:./Libraries/STM32H7xx_HAL_Driver/Src/stm32h7xx_hal_hsem.c **** 
 187:./Libraries/STM32H7xx_HAL_Driver/Src/stm32h7xx_hal_hsem.c ****   /* Semaphore take fails*/
 188:./Libraries/STM32H7xx_HAL_Driver/Src/stm32h7xx_hal_hsem.c ****   return HAL_ERROR;
  70              		.loc 1 188 10
  71 002e 0123     		movs	r3, #1
  72              	.L3:
 189:./Libraries/STM32H7xx_HAL_Driver/Src/stm32h7xx_hal_hsem.c **** }
  73              		.loc 1 189 1
  74 0030 1846     		mov	r0, r3
  75 0032 0C37     		adds	r7, r7, #12
  76              	.LCFI3:
  77              		.cfi_def_cfa_offset 4
  78 0034 BD46     		mov	sp, r7
  79              	.LCFI4:
  80              		.cfi_def_cfa_register 13
  81              		@ sp needed
  82 0036 5DF8047B 		ldr	r7, [sp], #4
  83              	.LCFI5:
  84              		.cfi_restore 7
  85              		.cfi_def_cfa_offset 0
  86 003a 7047     		bx	lr
  87              	.L5:
  88              		.align	2
  89              	.L4:
  90 003c 00640258 		.word	1476551680
  91 0040 00030080 		.word	-2147482880
  92              		.cfi_endproc
  93              	.LFE331:
  95              		.section	.text.HAL_HSEM_FastTake,"ax",%progbits
  96              		.align	1
  97              		.global	HAL_HSEM_FastTake
  98              		.syntax unified
ARM GAS  /tmp/ccss59G4.s 			page 6


  99              		.thumb
 100              		.thumb_func
 101              		.fpu fpv5-d16
 103              	HAL_HSEM_FastTake:
 104              	.LFB332:
 190:./Libraries/STM32H7xx_HAL_Driver/Src/stm32h7xx_hal_hsem.c **** 
 191:./Libraries/STM32H7xx_HAL_Driver/Src/stm32h7xx_hal_hsem.c **** /**
 192:./Libraries/STM32H7xx_HAL_Driver/Src/stm32h7xx_hal_hsem.c ****   * @brief  Fast Take a semaphore with 1 Step mode.
 193:./Libraries/STM32H7xx_HAL_Driver/Src/stm32h7xx_hal_hsem.c ****   * @param  SemID: semaphore ID from 0 to 31
 194:./Libraries/STM32H7xx_HAL_Driver/Src/stm32h7xx_hal_hsem.c ****   * @retval HAL status
 195:./Libraries/STM32H7xx_HAL_Driver/Src/stm32h7xx_hal_hsem.c ****   */
 196:./Libraries/STM32H7xx_HAL_Driver/Src/stm32h7xx_hal_hsem.c **** HAL_StatusTypeDef HAL_HSEM_FastTake(uint32_t SemID)
 197:./Libraries/STM32H7xx_HAL_Driver/Src/stm32h7xx_hal_hsem.c **** {
 105              		.loc 1 197 1
 106              		.cfi_startproc
 107              		@ args = 0, pretend = 0, frame = 8
 108              		@ frame_needed = 1, uses_anonymous_args = 0
 109              		@ link register save eliminated.
 110 0000 80B4     		push	{r7}
 111              	.LCFI6:
 112              		.cfi_def_cfa_offset 4
 113              		.cfi_offset 7, -4
 114 0002 83B0     		sub	sp, sp, #12
 115              	.LCFI7:
 116              		.cfi_def_cfa_offset 16
 117 0004 00AF     		add	r7, sp, #0
 118              	.LCFI8:
 119              		.cfi_def_cfa_register 7
 120 0006 7860     		str	r0, [r7, #4]
 198:./Libraries/STM32H7xx_HAL_Driver/Src/stm32h7xx_hal_hsem.c ****   /* Check the parameters */
 199:./Libraries/STM32H7xx_HAL_Driver/Src/stm32h7xx_hal_hsem.c ****   assert_param(IS_HSEM_SEMID(SemID));
 200:./Libraries/STM32H7xx_HAL_Driver/Src/stm32h7xx_hal_hsem.c **** 
 201:./Libraries/STM32H7xx_HAL_Driver/Src/stm32h7xx_hal_hsem.c **** #if  USE_MULTI_CORE_SHARED_CODE != 0U
 202:./Libraries/STM32H7xx_HAL_Driver/Src/stm32h7xx_hal_hsem.c ****   /* Read the RLR register to take the semaphore */
 203:./Libraries/STM32H7xx_HAL_Driver/Src/stm32h7xx_hal_hsem.c ****   if (HSEM->RLR[SemID] == (((HAL_GetCurrentCPUID() << POSITION_VAL(HSEM_R_MASTERID)) & HSEM_RLR_MAS
 204:./Libraries/STM32H7xx_HAL_Driver/Src/stm32h7xx_hal_hsem.c ****   {
 205:./Libraries/STM32H7xx_HAL_Driver/Src/stm32h7xx_hal_hsem.c ****     /*take success when MasterID match and take bit set*/
 206:./Libraries/STM32H7xx_HAL_Driver/Src/stm32h7xx_hal_hsem.c ****     return HAL_OK;
 207:./Libraries/STM32H7xx_HAL_Driver/Src/stm32h7xx_hal_hsem.c ****   }
 208:./Libraries/STM32H7xx_HAL_Driver/Src/stm32h7xx_hal_hsem.c **** #else
 209:./Libraries/STM32H7xx_HAL_Driver/Src/stm32h7xx_hal_hsem.c ****   /* Read the RLR register to take the semaphore */
 210:./Libraries/STM32H7xx_HAL_Driver/Src/stm32h7xx_hal_hsem.c ****   if (HSEM->RLR[SemID] == (HSEM_CR_COREID_CURRENT | HSEM_RLR_LOCK))
 121              		.loc 1 210 11
 122 0008 084A     		ldr	r2, .L9
 123              		.loc 1 210 16
 124 000a 7B68     		ldr	r3, [r7, #4]
 125 000c 2033     		adds	r3, r3, #32
 126 000e 52F82330 		ldr	r3, [r2, r3, lsl #2]
 127              		.loc 1 210 6
 128 0012 074A     		ldr	r2, .L9+4
 129 0014 9342     		cmp	r3, r2
 130 0016 01D1     		bne	.L7
 211:./Libraries/STM32H7xx_HAL_Driver/Src/stm32h7xx_hal_hsem.c ****   {
 212:./Libraries/STM32H7xx_HAL_Driver/Src/stm32h7xx_hal_hsem.c ****     /*take success when MasterID match and take bit set*/
 213:./Libraries/STM32H7xx_HAL_Driver/Src/stm32h7xx_hal_hsem.c ****     return HAL_OK;
 131              		.loc 1 213 12
 132 0018 0023     		movs	r3, #0
ARM GAS  /tmp/ccss59G4.s 			page 7


 133 001a 00E0     		b	.L8
 134              	.L7:
 214:./Libraries/STM32H7xx_HAL_Driver/Src/stm32h7xx_hal_hsem.c ****   }
 215:./Libraries/STM32H7xx_HAL_Driver/Src/stm32h7xx_hal_hsem.c **** #endif
 216:./Libraries/STM32H7xx_HAL_Driver/Src/stm32h7xx_hal_hsem.c **** 
 217:./Libraries/STM32H7xx_HAL_Driver/Src/stm32h7xx_hal_hsem.c ****   /* Semaphore take fails */
 218:./Libraries/STM32H7xx_HAL_Driver/Src/stm32h7xx_hal_hsem.c ****   return HAL_ERROR;
 135              		.loc 1 218 10
 136 001c 0123     		movs	r3, #1
 137              	.L8:
 219:./Libraries/STM32H7xx_HAL_Driver/Src/stm32h7xx_hal_hsem.c **** }
 138              		.loc 1 219 1
 139 001e 1846     		mov	r0, r3
 140 0020 0C37     		adds	r7, r7, #12
 141              	.LCFI9:
 142              		.cfi_def_cfa_offset 4
 143 0022 BD46     		mov	sp, r7
 144              	.LCFI10:
 145              		.cfi_def_cfa_register 13
 146              		@ sp needed
 147 0024 5DF8047B 		ldr	r7, [sp], #4
 148              	.LCFI11:
 149              		.cfi_restore 7
 150              		.cfi_def_cfa_offset 0
 151 0028 7047     		bx	lr
 152              	.L10:
 153 002a 00BF     		.align	2
 154              	.L9:
 155 002c 00640258 		.word	1476551680
 156 0030 00030080 		.word	-2147482880
 157              		.cfi_endproc
 158              	.LFE332:
 160              		.section	.text.HAL_HSEM_IsSemTaken,"ax",%progbits
 161              		.align	1
 162              		.global	HAL_HSEM_IsSemTaken
 163              		.syntax unified
 164              		.thumb
 165              		.thumb_func
 166              		.fpu fpv5-d16
 168              	HAL_HSEM_IsSemTaken:
 169              	.LFB333:
 220:./Libraries/STM32H7xx_HAL_Driver/Src/stm32h7xx_hal_hsem.c **** /**
 221:./Libraries/STM32H7xx_HAL_Driver/Src/stm32h7xx_hal_hsem.c ****   * @brief  Check semaphore state Taken or not.
 222:./Libraries/STM32H7xx_HAL_Driver/Src/stm32h7xx_hal_hsem.c ****   * @param  SemID: semaphore ID
 223:./Libraries/STM32H7xx_HAL_Driver/Src/stm32h7xx_hal_hsem.c ****   * @retval HAL HSEM state
 224:./Libraries/STM32H7xx_HAL_Driver/Src/stm32h7xx_hal_hsem.c ****   */
 225:./Libraries/STM32H7xx_HAL_Driver/Src/stm32h7xx_hal_hsem.c **** uint32_t HAL_HSEM_IsSemTaken(uint32_t SemID)
 226:./Libraries/STM32H7xx_HAL_Driver/Src/stm32h7xx_hal_hsem.c **** {
 170              		.loc 1 226 1
 171              		.cfi_startproc
 172              		@ args = 0, pretend = 0, frame = 8
 173              		@ frame_needed = 1, uses_anonymous_args = 0
 174              		@ link register save eliminated.
 175 0000 80B4     		push	{r7}
 176              	.LCFI12:
 177              		.cfi_def_cfa_offset 4
 178              		.cfi_offset 7, -4
ARM GAS  /tmp/ccss59G4.s 			page 8


 179 0002 83B0     		sub	sp, sp, #12
 180              	.LCFI13:
 181              		.cfi_def_cfa_offset 16
 182 0004 00AF     		add	r7, sp, #0
 183              	.LCFI14:
 184              		.cfi_def_cfa_register 7
 185 0006 7860     		str	r0, [r7, #4]
 227:./Libraries/STM32H7xx_HAL_Driver/Src/stm32h7xx_hal_hsem.c ****   return (((HSEM->R[SemID] & HSEM_R_LOCK) != 0U) ? 1UL : 0UL);
 186              		.loc 1 227 17
 187 0008 074A     		ldr	r2, .L15
 188              		.loc 1 227 20
 189 000a 7B68     		ldr	r3, [r7, #4]
 190 000c 52F82330 		ldr	r3, [r2, r3, lsl #2]
 191              		.loc 1 227 56
 192 0010 002B     		cmp	r3, #0
 193 0012 01DA     		bge	.L12
 194              		.loc 1 227 56 is_stmt 0 discriminator 1
 195 0014 0123     		movs	r3, #1
 196 0016 00E0     		b	.L14
 197              	.L12:
 198              		.loc 1 227 56 discriminator 2
 199 0018 0023     		movs	r3, #0
 200              	.L14:
 228:./Libraries/STM32H7xx_HAL_Driver/Src/stm32h7xx_hal_hsem.c **** }
 201              		.loc 1 228 1 is_stmt 1 discriminator 5
 202 001a 1846     		mov	r0, r3
 203 001c 0C37     		adds	r7, r7, #12
 204              	.LCFI15:
 205              		.cfi_def_cfa_offset 4
 206 001e BD46     		mov	sp, r7
 207              	.LCFI16:
 208              		.cfi_def_cfa_register 13
 209              		@ sp needed
 210 0020 5DF8047B 		ldr	r7, [sp], #4
 211              	.LCFI17:
 212              		.cfi_restore 7
 213              		.cfi_def_cfa_offset 0
 214 0024 7047     		bx	lr
 215              	.L16:
 216 0026 00BF     		.align	2
 217              	.L15:
 218 0028 00640258 		.word	1476551680
 219              		.cfi_endproc
 220              	.LFE333:
 222              		.section	.text.HAL_HSEM_Release,"ax",%progbits
 223              		.align	1
 224              		.global	HAL_HSEM_Release
 225              		.syntax unified
 226              		.thumb
 227              		.thumb_func
 228              		.fpu fpv5-d16
 230              	HAL_HSEM_Release:
 231              	.LFB334:
 229:./Libraries/STM32H7xx_HAL_Driver/Src/stm32h7xx_hal_hsem.c **** 
 230:./Libraries/STM32H7xx_HAL_Driver/Src/stm32h7xx_hal_hsem.c **** 
 231:./Libraries/STM32H7xx_HAL_Driver/Src/stm32h7xx_hal_hsem.c **** /**
 232:./Libraries/STM32H7xx_HAL_Driver/Src/stm32h7xx_hal_hsem.c ****   * @brief  Release a semaphore.
ARM GAS  /tmp/ccss59G4.s 			page 9


 233:./Libraries/STM32H7xx_HAL_Driver/Src/stm32h7xx_hal_hsem.c ****   * @param  SemID: semaphore ID from 0 to 31
 234:./Libraries/STM32H7xx_HAL_Driver/Src/stm32h7xx_hal_hsem.c ****   * @param  ProcessID: Process ID from 0 to 255
 235:./Libraries/STM32H7xx_HAL_Driver/Src/stm32h7xx_hal_hsem.c ****   * @retval None
 236:./Libraries/STM32H7xx_HAL_Driver/Src/stm32h7xx_hal_hsem.c ****   */
 237:./Libraries/STM32H7xx_HAL_Driver/Src/stm32h7xx_hal_hsem.c **** void  HAL_HSEM_Release(uint32_t SemID, uint32_t ProcessID)
 238:./Libraries/STM32H7xx_HAL_Driver/Src/stm32h7xx_hal_hsem.c **** {
 232              		.loc 1 238 1
 233              		.cfi_startproc
 234              		@ args = 0, pretend = 0, frame = 8
 235              		@ frame_needed = 1, uses_anonymous_args = 0
 236              		@ link register save eliminated.
 237 0000 80B4     		push	{r7}
 238              	.LCFI18:
 239              		.cfi_def_cfa_offset 4
 240              		.cfi_offset 7, -4
 241 0002 83B0     		sub	sp, sp, #12
 242              	.LCFI19:
 243              		.cfi_def_cfa_offset 16
 244 0004 00AF     		add	r7, sp, #0
 245              	.LCFI20:
 246              		.cfi_def_cfa_register 7
 247 0006 7860     		str	r0, [r7, #4]
 248 0008 3960     		str	r1, [r7]
 239:./Libraries/STM32H7xx_HAL_Driver/Src/stm32h7xx_hal_hsem.c ****   /* Check the parameters */
 240:./Libraries/STM32H7xx_HAL_Driver/Src/stm32h7xx_hal_hsem.c ****   assert_param(IS_HSEM_SEMID(SemID));
 241:./Libraries/STM32H7xx_HAL_Driver/Src/stm32h7xx_hal_hsem.c ****   assert_param(IS_HSEM_PROCESSID(ProcessID));
 242:./Libraries/STM32H7xx_HAL_Driver/Src/stm32h7xx_hal_hsem.c **** 
 243:./Libraries/STM32H7xx_HAL_Driver/Src/stm32h7xx_hal_hsem.c ****   /* Clear the semaphore by writing to the R register : the MasterID , the processID and take bit =
 244:./Libraries/STM32H7xx_HAL_Driver/Src/stm32h7xx_hal_hsem.c **** #if  USE_MULTI_CORE_SHARED_CODE != 0U
 245:./Libraries/STM32H7xx_HAL_Driver/Src/stm32h7xx_hal_hsem.c ****   HSEM->R[SemID] = (ProcessID | ((HAL_GetCurrentCPUID() << POSITION_VAL(HSEM_R_MASTERID)) & HSEM_R_
 246:./Libraries/STM32H7xx_HAL_Driver/Src/stm32h7xx_hal_hsem.c **** #else
 247:./Libraries/STM32H7xx_HAL_Driver/Src/stm32h7xx_hal_hsem.c ****   HSEM->R[SemID] = (ProcessID | HSEM_CR_COREID_CURRENT);
 249              		.loc 1 247 7
 250 000a 0649     		ldr	r1, .L18
 251              		.loc 1 247 31
 252 000c 3B68     		ldr	r3, [r7]
 253 000e 43F44072 		orr	r2, r3, #768
 254              		.loc 1 247 18
 255 0012 7B68     		ldr	r3, [r7, #4]
 256 0014 41F82320 		str	r2, [r1, r3, lsl #2]
 248:./Libraries/STM32H7xx_HAL_Driver/Src/stm32h7xx_hal_hsem.c **** #endif
 249:./Libraries/STM32H7xx_HAL_Driver/Src/stm32h7xx_hal_hsem.c **** 
 250:./Libraries/STM32H7xx_HAL_Driver/Src/stm32h7xx_hal_hsem.c **** }
 257              		.loc 1 250 1
 258 0018 00BF     		nop
 259 001a 0C37     		adds	r7, r7, #12
 260              	.LCFI21:
 261              		.cfi_def_cfa_offset 4
 262 001c BD46     		mov	sp, r7
 263              	.LCFI22:
 264              		.cfi_def_cfa_register 13
 265              		@ sp needed
 266 001e 5DF8047B 		ldr	r7, [sp], #4
 267              	.LCFI23:
 268              		.cfi_restore 7
 269              		.cfi_def_cfa_offset 0
 270 0022 7047     		bx	lr
ARM GAS  /tmp/ccss59G4.s 			page 10


 271              	.L19:
 272              		.align	2
 273              	.L18:
 274 0024 00640258 		.word	1476551680
 275              		.cfi_endproc
 276              	.LFE334:
 278              		.section	.text.HAL_HSEM_ReleaseAll,"ax",%progbits
 279              		.align	1
 280              		.global	HAL_HSEM_ReleaseAll
 281              		.syntax unified
 282              		.thumb
 283              		.thumb_func
 284              		.fpu fpv5-d16
 286              	HAL_HSEM_ReleaseAll:
 287              	.LFB335:
 251:./Libraries/STM32H7xx_HAL_Driver/Src/stm32h7xx_hal_hsem.c **** 
 252:./Libraries/STM32H7xx_HAL_Driver/Src/stm32h7xx_hal_hsem.c **** /**
 253:./Libraries/STM32H7xx_HAL_Driver/Src/stm32h7xx_hal_hsem.c ****   * @brief  Release All semaphore used by a given Master .
 254:./Libraries/STM32H7xx_HAL_Driver/Src/stm32h7xx_hal_hsem.c ****   * @param  Key: Semaphore Key , value from 0 to 0xFFFF
 255:./Libraries/STM32H7xx_HAL_Driver/Src/stm32h7xx_hal_hsem.c ****   * @param  CoreID: CoreID of the CPU that is using semaphores to be released
 256:./Libraries/STM32H7xx_HAL_Driver/Src/stm32h7xx_hal_hsem.c ****   * @retval None
 257:./Libraries/STM32H7xx_HAL_Driver/Src/stm32h7xx_hal_hsem.c ****   */
 258:./Libraries/STM32H7xx_HAL_Driver/Src/stm32h7xx_hal_hsem.c **** void HAL_HSEM_ReleaseAll(uint32_t Key, uint32_t CoreID)
 259:./Libraries/STM32H7xx_HAL_Driver/Src/stm32h7xx_hal_hsem.c **** {
 288              		.loc 1 259 1
 289              		.cfi_startproc
 290              		@ args = 0, pretend = 0, frame = 8
 291              		@ frame_needed = 1, uses_anonymous_args = 0
 292              		@ link register save eliminated.
 293 0000 80B4     		push	{r7}
 294              	.LCFI24:
 295              		.cfi_def_cfa_offset 4
 296              		.cfi_offset 7, -4
 297 0002 83B0     		sub	sp, sp, #12
 298              	.LCFI25:
 299              		.cfi_def_cfa_offset 16
 300 0004 00AF     		add	r7, sp, #0
 301              	.LCFI26:
 302              		.cfi_def_cfa_register 7
 303 0006 7860     		str	r0, [r7, #4]
 304 0008 3960     		str	r1, [r7]
 260:./Libraries/STM32H7xx_HAL_Driver/Src/stm32h7xx_hal_hsem.c ****   assert_param(IS_HSEM_KEY(Key));
 261:./Libraries/STM32H7xx_HAL_Driver/Src/stm32h7xx_hal_hsem.c ****   assert_param(IS_HSEM_COREID(CoreID));
 262:./Libraries/STM32H7xx_HAL_Driver/Src/stm32h7xx_hal_hsem.c **** 
 263:./Libraries/STM32H7xx_HAL_Driver/Src/stm32h7xx_hal_hsem.c ****   HSEM->CR = ((Key << HSEM_CR_KEY_Pos) | (CoreID << HSEM_CR_COREID_Pos));
 305              		.loc 1 263 20
 306 000a 7B68     		ldr	r3, [r7, #4]
 307 000c 1A04     		lsls	r2, r3, #16
 308              		.loc 1 263 50
 309 000e 3B68     		ldr	r3, [r7]
 310 0010 1B02     		lsls	r3, r3, #8
 311              		.loc 1 263 7
 312 0012 0549     		ldr	r1, .L21
 313              		.loc 1 263 40
 314 0014 1343     		orrs	r3, r3, r2
 315              		.loc 1 263 12
 316 0016 C1F84031 		str	r3, [r1, #320]
ARM GAS  /tmp/ccss59G4.s 			page 11


 264:./Libraries/STM32H7xx_HAL_Driver/Src/stm32h7xx_hal_hsem.c **** }
 317              		.loc 1 264 1
 318 001a 00BF     		nop
 319 001c 0C37     		adds	r7, r7, #12
 320              	.LCFI27:
 321              		.cfi_def_cfa_offset 4
 322 001e BD46     		mov	sp, r7
 323              	.LCFI28:
 324              		.cfi_def_cfa_register 13
 325              		@ sp needed
 326 0020 5DF8047B 		ldr	r7, [sp], #4
 327              	.LCFI29:
 328              		.cfi_restore 7
 329              		.cfi_def_cfa_offset 0
 330 0024 7047     		bx	lr
 331              	.L22:
 332 0026 00BF     		.align	2
 333              	.L21:
 334 0028 00640258 		.word	1476551680
 335              		.cfi_endproc
 336              	.LFE335:
 338              		.section	.text.HAL_HSEM_SetClearKey,"ax",%progbits
 339              		.align	1
 340              		.global	HAL_HSEM_SetClearKey
 341              		.syntax unified
 342              		.thumb
 343              		.thumb_func
 344              		.fpu fpv5-d16
 346              	HAL_HSEM_SetClearKey:
 347              	.LFB336:
 265:./Libraries/STM32H7xx_HAL_Driver/Src/stm32h7xx_hal_hsem.c **** 
 266:./Libraries/STM32H7xx_HAL_Driver/Src/stm32h7xx_hal_hsem.c **** /**
 267:./Libraries/STM32H7xx_HAL_Driver/Src/stm32h7xx_hal_hsem.c ****   * @}
 268:./Libraries/STM32H7xx_HAL_Driver/Src/stm32h7xx_hal_hsem.c ****   */
 269:./Libraries/STM32H7xx_HAL_Driver/Src/stm32h7xx_hal_hsem.c **** 
 270:./Libraries/STM32H7xx_HAL_Driver/Src/stm32h7xx_hal_hsem.c **** /** @defgroup HSEM_Exported_Functions_Group2 HSEM Set and Get Key functions
 271:./Libraries/STM32H7xx_HAL_Driver/Src/stm32h7xx_hal_hsem.c ****   *  @brief    HSEM Set and Get Key functions.
 272:./Libraries/STM32H7xx_HAL_Driver/Src/stm32h7xx_hal_hsem.c ****   *
 273:./Libraries/STM32H7xx_HAL_Driver/Src/stm32h7xx_hal_hsem.c **** @verbatim
 274:./Libraries/STM32H7xx_HAL_Driver/Src/stm32h7xx_hal_hsem.c ****   ==============================================================================
 275:./Libraries/STM32H7xx_HAL_Driver/Src/stm32h7xx_hal_hsem.c ****               ##### HSEM Set and Get Key functions #####
 276:./Libraries/STM32H7xx_HAL_Driver/Src/stm32h7xx_hal_hsem.c ****   ==============================================================================
 277:./Libraries/STM32H7xx_HAL_Driver/Src/stm32h7xx_hal_hsem.c ****     [..]  This section provides functions allowing to:
 278:./Libraries/STM32H7xx_HAL_Driver/Src/stm32h7xx_hal_hsem.c ****       (+) Set semaphore Key
 279:./Libraries/STM32H7xx_HAL_Driver/Src/stm32h7xx_hal_hsem.c ****       (+) Get semaphore Key
 280:./Libraries/STM32H7xx_HAL_Driver/Src/stm32h7xx_hal_hsem.c **** @endverbatim
 281:./Libraries/STM32H7xx_HAL_Driver/Src/stm32h7xx_hal_hsem.c **** 
 282:./Libraries/STM32H7xx_HAL_Driver/Src/stm32h7xx_hal_hsem.c ****   * @{
 283:./Libraries/STM32H7xx_HAL_Driver/Src/stm32h7xx_hal_hsem.c ****   */
 284:./Libraries/STM32H7xx_HAL_Driver/Src/stm32h7xx_hal_hsem.c **** 
 285:./Libraries/STM32H7xx_HAL_Driver/Src/stm32h7xx_hal_hsem.c **** /**
 286:./Libraries/STM32H7xx_HAL_Driver/Src/stm32h7xx_hal_hsem.c ****   * @brief  Set semaphore Key .
 287:./Libraries/STM32H7xx_HAL_Driver/Src/stm32h7xx_hal_hsem.c ****   * @param  Key: Semaphore Key , value from 0 to 0xFFFF
 288:./Libraries/STM32H7xx_HAL_Driver/Src/stm32h7xx_hal_hsem.c ****   * @retval None
 289:./Libraries/STM32H7xx_HAL_Driver/Src/stm32h7xx_hal_hsem.c ****   */
 290:./Libraries/STM32H7xx_HAL_Driver/Src/stm32h7xx_hal_hsem.c **** void  HAL_HSEM_SetClearKey(uint32_t Key)
 291:./Libraries/STM32H7xx_HAL_Driver/Src/stm32h7xx_hal_hsem.c **** {
ARM GAS  /tmp/ccss59G4.s 			page 12


 348              		.loc 1 291 1
 349              		.cfi_startproc
 350              		@ args = 0, pretend = 0, frame = 8
 351              		@ frame_needed = 1, uses_anonymous_args = 0
 352              		@ link register save eliminated.
 353 0000 80B4     		push	{r7}
 354              	.LCFI30:
 355              		.cfi_def_cfa_offset 4
 356              		.cfi_offset 7, -4
 357 0002 83B0     		sub	sp, sp, #12
 358              	.LCFI31:
 359              		.cfi_def_cfa_offset 16
 360 0004 00AF     		add	r7, sp, #0
 361              	.LCFI32:
 362              		.cfi_def_cfa_register 7
 363 0006 7860     		str	r0, [r7, #4]
 292:./Libraries/STM32H7xx_HAL_Driver/Src/stm32h7xx_hal_hsem.c ****   assert_param(IS_HSEM_KEY(Key));
 293:./Libraries/STM32H7xx_HAL_Driver/Src/stm32h7xx_hal_hsem.c **** 
 294:./Libraries/STM32H7xx_HAL_Driver/Src/stm32h7xx_hal_hsem.c ****   MODIFY_REG(HSEM->KEYR, HSEM_KEYR_KEY, (Key << HSEM_KEYR_KEY_Pos));
 364              		.loc 1 294 3
 365 0008 074B     		ldr	r3, .L24
 366 000a D3F84431 		ldr	r3, [r3, #324]
 367 000e 9AB2     		uxth	r2, r3
 368 0010 7B68     		ldr	r3, [r7, #4]
 369 0012 1B04     		lsls	r3, r3, #16
 370 0014 0449     		ldr	r1, .L24
 371 0016 1343     		orrs	r3, r3, r2
 372 0018 C1F84431 		str	r3, [r1, #324]
 295:./Libraries/STM32H7xx_HAL_Driver/Src/stm32h7xx_hal_hsem.c **** 
 296:./Libraries/STM32H7xx_HAL_Driver/Src/stm32h7xx_hal_hsem.c **** }
 373              		.loc 1 296 1
 374 001c 00BF     		nop
 375 001e 0C37     		adds	r7, r7, #12
 376              	.LCFI33:
 377              		.cfi_def_cfa_offset 4
 378 0020 BD46     		mov	sp, r7
 379              	.LCFI34:
 380              		.cfi_def_cfa_register 13
 381              		@ sp needed
 382 0022 5DF8047B 		ldr	r7, [sp], #4
 383              	.LCFI35:
 384              		.cfi_restore 7
 385              		.cfi_def_cfa_offset 0
 386 0026 7047     		bx	lr
 387              	.L25:
 388              		.align	2
 389              	.L24:
 390 0028 00640258 		.word	1476551680
 391              		.cfi_endproc
 392              	.LFE336:
 394              		.section	.text.HAL_HSEM_GetClearKey,"ax",%progbits
 395              		.align	1
 396              		.global	HAL_HSEM_GetClearKey
 397              		.syntax unified
 398              		.thumb
 399              		.thumb_func
 400              		.fpu fpv5-d16
ARM GAS  /tmp/ccss59G4.s 			page 13


 402              	HAL_HSEM_GetClearKey:
 403              	.LFB337:
 297:./Libraries/STM32H7xx_HAL_Driver/Src/stm32h7xx_hal_hsem.c **** 
 298:./Libraries/STM32H7xx_HAL_Driver/Src/stm32h7xx_hal_hsem.c **** /**
 299:./Libraries/STM32H7xx_HAL_Driver/Src/stm32h7xx_hal_hsem.c ****   * @brief  Get semaphore Key .
 300:./Libraries/STM32H7xx_HAL_Driver/Src/stm32h7xx_hal_hsem.c ****   * @retval Semaphore Key , value from 0 to 0xFFFF
 301:./Libraries/STM32H7xx_HAL_Driver/Src/stm32h7xx_hal_hsem.c ****   */
 302:./Libraries/STM32H7xx_HAL_Driver/Src/stm32h7xx_hal_hsem.c **** uint32_t HAL_HSEM_GetClearKey(void)
 303:./Libraries/STM32H7xx_HAL_Driver/Src/stm32h7xx_hal_hsem.c **** {
 404              		.loc 1 303 1
 405              		.cfi_startproc
 406              		@ args = 0, pretend = 0, frame = 0
 407              		@ frame_needed = 1, uses_anonymous_args = 0
 408              		@ link register save eliminated.
 409 0000 80B4     		push	{r7}
 410              	.LCFI36:
 411              		.cfi_def_cfa_offset 4
 412              		.cfi_offset 7, -4
 413 0002 00AF     		add	r7, sp, #0
 414              	.LCFI37:
 415              		.cfi_def_cfa_register 7
 304:./Libraries/STM32H7xx_HAL_Driver/Src/stm32h7xx_hal_hsem.c ****   return (HSEM->KEYR >> HSEM_KEYR_KEY_Pos);
 416              		.loc 1 304 15
 417 0004 044B     		ldr	r3, .L28
 418 0006 D3F84431 		ldr	r3, [r3, #324]
 419              		.loc 1 304 22
 420 000a 1B0C     		lsrs	r3, r3, #16
 305:./Libraries/STM32H7xx_HAL_Driver/Src/stm32h7xx_hal_hsem.c **** }
 421              		.loc 1 305 1
 422 000c 1846     		mov	r0, r3
 423 000e BD46     		mov	sp, r7
 424              	.LCFI38:
 425              		.cfi_def_cfa_register 13
 426              		@ sp needed
 427 0010 5DF8047B 		ldr	r7, [sp], #4
 428              	.LCFI39:
 429              		.cfi_restore 7
 430              		.cfi_def_cfa_offset 0
 431 0014 7047     		bx	lr
 432              	.L29:
 433 0016 00BF     		.align	2
 434              	.L28:
 435 0018 00640258 		.word	1476551680
 436              		.cfi_endproc
 437              	.LFE337:
 439              		.section	.text.HAL_HSEM_ActivateNotification,"ax",%progbits
 440              		.align	1
 441              		.global	HAL_HSEM_ActivateNotification
 442              		.syntax unified
 443              		.thumb
 444              		.thumb_func
 445              		.fpu fpv5-d16
 447              	HAL_HSEM_ActivateNotification:
 448              	.LFB338:
 306:./Libraries/STM32H7xx_HAL_Driver/Src/stm32h7xx_hal_hsem.c **** 
 307:./Libraries/STM32H7xx_HAL_Driver/Src/stm32h7xx_hal_hsem.c **** /**
 308:./Libraries/STM32H7xx_HAL_Driver/Src/stm32h7xx_hal_hsem.c ****   * @}
ARM GAS  /tmp/ccss59G4.s 			page 14


 309:./Libraries/STM32H7xx_HAL_Driver/Src/stm32h7xx_hal_hsem.c ****   */
 310:./Libraries/STM32H7xx_HAL_Driver/Src/stm32h7xx_hal_hsem.c **** 
 311:./Libraries/STM32H7xx_HAL_Driver/Src/stm32h7xx_hal_hsem.c **** /** @defgroup HSEM_Exported_Functions_Group3 HSEM IRQ handler management
 312:./Libraries/STM32H7xx_HAL_Driver/Src/stm32h7xx_hal_hsem.c ****   *  @brief    HSEM Notification functions.
 313:./Libraries/STM32H7xx_HAL_Driver/Src/stm32h7xx_hal_hsem.c ****   *
 314:./Libraries/STM32H7xx_HAL_Driver/Src/stm32h7xx_hal_hsem.c **** @verbatim
 315:./Libraries/STM32H7xx_HAL_Driver/Src/stm32h7xx_hal_hsem.c ****   ==============================================================================
 316:./Libraries/STM32H7xx_HAL_Driver/Src/stm32h7xx_hal_hsem.c ****       ##### HSEM IRQ handler management and Notification functions #####
 317:./Libraries/STM32H7xx_HAL_Driver/Src/stm32h7xx_hal_hsem.c ****   ==============================================================================
 318:./Libraries/STM32H7xx_HAL_Driver/Src/stm32h7xx_hal_hsem.c **** [..]  This section provides HSEM IRQ handler and Notification function.
 319:./Libraries/STM32H7xx_HAL_Driver/Src/stm32h7xx_hal_hsem.c **** 
 320:./Libraries/STM32H7xx_HAL_Driver/Src/stm32h7xx_hal_hsem.c **** @endverbatim
 321:./Libraries/STM32H7xx_HAL_Driver/Src/stm32h7xx_hal_hsem.c ****   * @{
 322:./Libraries/STM32H7xx_HAL_Driver/Src/stm32h7xx_hal_hsem.c ****   */
 323:./Libraries/STM32H7xx_HAL_Driver/Src/stm32h7xx_hal_hsem.c **** 
 324:./Libraries/STM32H7xx_HAL_Driver/Src/stm32h7xx_hal_hsem.c **** /**
 325:./Libraries/STM32H7xx_HAL_Driver/Src/stm32h7xx_hal_hsem.c ****   * @brief  Activate Semaphore release Notification for a given Semaphores Mask .
 326:./Libraries/STM32H7xx_HAL_Driver/Src/stm32h7xx_hal_hsem.c ****   * @param  SemMask: Mask of Released semaphores
 327:./Libraries/STM32H7xx_HAL_Driver/Src/stm32h7xx_hal_hsem.c ****   * @retval Semaphore Key
 328:./Libraries/STM32H7xx_HAL_Driver/Src/stm32h7xx_hal_hsem.c ****   */
 329:./Libraries/STM32H7xx_HAL_Driver/Src/stm32h7xx_hal_hsem.c **** void HAL_HSEM_ActivateNotification(uint32_t SemMask)
 330:./Libraries/STM32H7xx_HAL_Driver/Src/stm32h7xx_hal_hsem.c **** {
 449              		.loc 1 330 1
 450              		.cfi_startproc
 451              		@ args = 0, pretend = 0, frame = 8
 452              		@ frame_needed = 1, uses_anonymous_args = 0
 453              		@ link register save eliminated.
 454 0000 80B4     		push	{r7}
 455              	.LCFI40:
 456              		.cfi_def_cfa_offset 4
 457              		.cfi_offset 7, -4
 458 0002 83B0     		sub	sp, sp, #12
 459              	.LCFI41:
 460              		.cfi_def_cfa_offset 16
 461 0004 00AF     		add	r7, sp, #0
 462              	.LCFI42:
 463              		.cfi_def_cfa_register 7
 464 0006 7860     		str	r0, [r7, #4]
 331:./Libraries/STM32H7xx_HAL_Driver/Src/stm32h7xx_hal_hsem.c **** #if  USE_MULTI_CORE_SHARED_CODE != 0U
 332:./Libraries/STM32H7xx_HAL_Driver/Src/stm32h7xx_hal_hsem.c ****   /*enable the semaphore mask interrupts */
 333:./Libraries/STM32H7xx_HAL_Driver/Src/stm32h7xx_hal_hsem.c ****   if (HAL_GetCurrentCPUID() == HSEM_CPU1_COREID)
 334:./Libraries/STM32H7xx_HAL_Driver/Src/stm32h7xx_hal_hsem.c ****   {
 335:./Libraries/STM32H7xx_HAL_Driver/Src/stm32h7xx_hal_hsem.c ****     /*Use interrupt line 0 for CPU1 Master */
 336:./Libraries/STM32H7xx_HAL_Driver/Src/stm32h7xx_hal_hsem.c ****     HSEM->C1IER |= SemMask;
 337:./Libraries/STM32H7xx_HAL_Driver/Src/stm32h7xx_hal_hsem.c ****   }
 338:./Libraries/STM32H7xx_HAL_Driver/Src/stm32h7xx_hal_hsem.c ****   else /* HSEM_CPU2_COREID */
 339:./Libraries/STM32H7xx_HAL_Driver/Src/stm32h7xx_hal_hsem.c ****   {
 340:./Libraries/STM32H7xx_HAL_Driver/Src/stm32h7xx_hal_hsem.c ****     /*Use interrupt line 1 for CPU2 Master*/
 341:./Libraries/STM32H7xx_HAL_Driver/Src/stm32h7xx_hal_hsem.c ****     HSEM->C2IER |= SemMask;
 342:./Libraries/STM32H7xx_HAL_Driver/Src/stm32h7xx_hal_hsem.c ****   }
 343:./Libraries/STM32H7xx_HAL_Driver/Src/stm32h7xx_hal_hsem.c **** #else
 344:./Libraries/STM32H7xx_HAL_Driver/Src/stm32h7xx_hal_hsem.c ****   HSEM_COMMON->IER |= SemMask;
 465              		.loc 1 344 20
 466 0008 054B     		ldr	r3, .L31
 467 000a 1A68     		ldr	r2, [r3]
 468 000c 0449     		ldr	r1, .L31
 469 000e 7B68     		ldr	r3, [r7, #4]
ARM GAS  /tmp/ccss59G4.s 			page 15


 470 0010 1343     		orrs	r3, r3, r2
 471 0012 0B60     		str	r3, [r1]
 345:./Libraries/STM32H7xx_HAL_Driver/Src/stm32h7xx_hal_hsem.c **** #endif
 346:./Libraries/STM32H7xx_HAL_Driver/Src/stm32h7xx_hal_hsem.c **** }
 472              		.loc 1 346 1
 473 0014 00BF     		nop
 474 0016 0C37     		adds	r7, r7, #12
 475              	.LCFI43:
 476              		.cfi_def_cfa_offset 4
 477 0018 BD46     		mov	sp, r7
 478              	.LCFI44:
 479              		.cfi_def_cfa_register 13
 480              		@ sp needed
 481 001a 5DF8047B 		ldr	r7, [sp], #4
 482              	.LCFI45:
 483              		.cfi_restore 7
 484              		.cfi_def_cfa_offset 0
 485 001e 7047     		bx	lr
 486              	.L32:
 487              		.align	2
 488              	.L31:
 489 0020 00650258 		.word	1476551936
 490              		.cfi_endproc
 491              	.LFE338:
 493              		.section	.text.HAL_HSEM_DeactivateNotification,"ax",%progbits
 494              		.align	1
 495              		.global	HAL_HSEM_DeactivateNotification
 496              		.syntax unified
 497              		.thumb
 498              		.thumb_func
 499              		.fpu fpv5-d16
 501              	HAL_HSEM_DeactivateNotification:
 502              	.LFB339:
 347:./Libraries/STM32H7xx_HAL_Driver/Src/stm32h7xx_hal_hsem.c **** 
 348:./Libraries/STM32H7xx_HAL_Driver/Src/stm32h7xx_hal_hsem.c **** /**
 349:./Libraries/STM32H7xx_HAL_Driver/Src/stm32h7xx_hal_hsem.c ****   * @brief  Deactivate Semaphore release Notification for a given Semaphores Mask .
 350:./Libraries/STM32H7xx_HAL_Driver/Src/stm32h7xx_hal_hsem.c ****   * @param  SemMask: Mask of Released semaphores
 351:./Libraries/STM32H7xx_HAL_Driver/Src/stm32h7xx_hal_hsem.c ****   * @retval Semaphore Key
 352:./Libraries/STM32H7xx_HAL_Driver/Src/stm32h7xx_hal_hsem.c ****   */
 353:./Libraries/STM32H7xx_HAL_Driver/Src/stm32h7xx_hal_hsem.c **** void HAL_HSEM_DeactivateNotification(uint32_t SemMask)
 354:./Libraries/STM32H7xx_HAL_Driver/Src/stm32h7xx_hal_hsem.c **** {
 503              		.loc 1 354 1
 504              		.cfi_startproc
 505              		@ args = 0, pretend = 0, frame = 8
 506              		@ frame_needed = 1, uses_anonymous_args = 0
 507              		@ link register save eliminated.
 508 0000 80B4     		push	{r7}
 509              	.LCFI46:
 510              		.cfi_def_cfa_offset 4
 511              		.cfi_offset 7, -4
 512 0002 83B0     		sub	sp, sp, #12
 513              	.LCFI47:
 514              		.cfi_def_cfa_offset 16
 515 0004 00AF     		add	r7, sp, #0
 516              	.LCFI48:
 517              		.cfi_def_cfa_register 7
 518 0006 7860     		str	r0, [r7, #4]
ARM GAS  /tmp/ccss59G4.s 			page 16


 355:./Libraries/STM32H7xx_HAL_Driver/Src/stm32h7xx_hal_hsem.c **** #if  USE_MULTI_CORE_SHARED_CODE != 0U
 356:./Libraries/STM32H7xx_HAL_Driver/Src/stm32h7xx_hal_hsem.c ****   /*enable the semaphore mask interrupts */
 357:./Libraries/STM32H7xx_HAL_Driver/Src/stm32h7xx_hal_hsem.c ****   if (HAL_GetCurrentCPUID() == HSEM_CPU1_COREID)
 358:./Libraries/STM32H7xx_HAL_Driver/Src/stm32h7xx_hal_hsem.c ****   {
 359:./Libraries/STM32H7xx_HAL_Driver/Src/stm32h7xx_hal_hsem.c ****     /*Use interrupt line 0 for CPU1 Master */
 360:./Libraries/STM32H7xx_HAL_Driver/Src/stm32h7xx_hal_hsem.c ****     HSEM->C1IER &= ~SemMask;
 361:./Libraries/STM32H7xx_HAL_Driver/Src/stm32h7xx_hal_hsem.c ****   }
 362:./Libraries/STM32H7xx_HAL_Driver/Src/stm32h7xx_hal_hsem.c ****   else /* HSEM_CPU2_COREID */
 363:./Libraries/STM32H7xx_HAL_Driver/Src/stm32h7xx_hal_hsem.c ****   {
 364:./Libraries/STM32H7xx_HAL_Driver/Src/stm32h7xx_hal_hsem.c ****     /*Use interrupt line 1 for CPU2 Master*/
 365:./Libraries/STM32H7xx_HAL_Driver/Src/stm32h7xx_hal_hsem.c ****     HSEM->C2IER &= ~SemMask;
 366:./Libraries/STM32H7xx_HAL_Driver/Src/stm32h7xx_hal_hsem.c ****   }
 367:./Libraries/STM32H7xx_HAL_Driver/Src/stm32h7xx_hal_hsem.c **** #else
 368:./Libraries/STM32H7xx_HAL_Driver/Src/stm32h7xx_hal_hsem.c ****   HSEM_COMMON->IER &= ~SemMask;
 519              		.loc 1 368 20
 520 0008 064B     		ldr	r3, .L34
 521 000a 1A68     		ldr	r2, [r3]
 522              		.loc 1 368 23
 523 000c 7B68     		ldr	r3, [r7, #4]
 524 000e DB43     		mvns	r3, r3
 525              		.loc 1 368 20
 526 0010 0449     		ldr	r1, .L34
 527 0012 1340     		ands	r3, r3, r2
 528 0014 0B60     		str	r3, [r1]
 369:./Libraries/STM32H7xx_HAL_Driver/Src/stm32h7xx_hal_hsem.c **** #endif
 370:./Libraries/STM32H7xx_HAL_Driver/Src/stm32h7xx_hal_hsem.c **** }
 529              		.loc 1 370 1
 530 0016 00BF     		nop
 531 0018 0C37     		adds	r7, r7, #12
 532              	.LCFI49:
 533              		.cfi_def_cfa_offset 4
 534 001a BD46     		mov	sp, r7
 535              	.LCFI50:
 536              		.cfi_def_cfa_register 13
 537              		@ sp needed
 538 001c 5DF8047B 		ldr	r7, [sp], #4
 539              	.LCFI51:
 540              		.cfi_restore 7
 541              		.cfi_def_cfa_offset 0
 542 0020 7047     		bx	lr
 543              	.L35:
 544 0022 00BF     		.align	2
 545              	.L34:
 546 0024 00650258 		.word	1476551936
 547              		.cfi_endproc
 548              	.LFE339:
 550              		.section	.text.HAL_HSEM_IRQHandler,"ax",%progbits
 551              		.align	1
 552              		.global	HAL_HSEM_IRQHandler
 553              		.syntax unified
 554              		.thumb
 555              		.thumb_func
 556              		.fpu fpv5-d16
 558              	HAL_HSEM_IRQHandler:
 559              	.LFB340:
 371:./Libraries/STM32H7xx_HAL_Driver/Src/stm32h7xx_hal_hsem.c **** 
 372:./Libraries/STM32H7xx_HAL_Driver/Src/stm32h7xx_hal_hsem.c **** /**
ARM GAS  /tmp/ccss59G4.s 			page 17


 373:./Libraries/STM32H7xx_HAL_Driver/Src/stm32h7xx_hal_hsem.c ****   * @brief  This function handles HSEM interrupt request
 374:./Libraries/STM32H7xx_HAL_Driver/Src/stm32h7xx_hal_hsem.c ****   * @retval None
 375:./Libraries/STM32H7xx_HAL_Driver/Src/stm32h7xx_hal_hsem.c ****   */
 376:./Libraries/STM32H7xx_HAL_Driver/Src/stm32h7xx_hal_hsem.c **** void HAL_HSEM_IRQHandler(void)
 377:./Libraries/STM32H7xx_HAL_Driver/Src/stm32h7xx_hal_hsem.c **** {
 560              		.loc 1 377 1
 561              		.cfi_startproc
 562              		@ args = 0, pretend = 0, frame = 8
 563              		@ frame_needed = 1, uses_anonymous_args = 0
 564 0000 80B5     		push	{r7, lr}
 565              	.LCFI52:
 566              		.cfi_def_cfa_offset 8
 567              		.cfi_offset 7, -8
 568              		.cfi_offset 14, -4
 569 0002 82B0     		sub	sp, sp, #8
 570              	.LCFI53:
 571              		.cfi_def_cfa_offset 16
 572 0004 00AF     		add	r7, sp, #0
 573              	.LCFI54:
 574              		.cfi_def_cfa_register 7
 378:./Libraries/STM32H7xx_HAL_Driver/Src/stm32h7xx_hal_hsem.c ****   uint32_t statusreg;
 379:./Libraries/STM32H7xx_HAL_Driver/Src/stm32h7xx_hal_hsem.c **** #if  USE_MULTI_CORE_SHARED_CODE != 0U
 380:./Libraries/STM32H7xx_HAL_Driver/Src/stm32h7xx_hal_hsem.c ****   if (HAL_GetCurrentCPUID() == HSEM_CPU1_COREID)
 381:./Libraries/STM32H7xx_HAL_Driver/Src/stm32h7xx_hal_hsem.c ****   {
 382:./Libraries/STM32H7xx_HAL_Driver/Src/stm32h7xx_hal_hsem.c ****     /* Get the list of masked freed semaphores*/
 383:./Libraries/STM32H7xx_HAL_Driver/Src/stm32h7xx_hal_hsem.c ****     statusreg = HSEM->C1MISR; /*Use interrupt line 0 for CPU1 Master*/
 384:./Libraries/STM32H7xx_HAL_Driver/Src/stm32h7xx_hal_hsem.c **** 
 385:./Libraries/STM32H7xx_HAL_Driver/Src/stm32h7xx_hal_hsem.c ****     /*Disable Interrupts*/
 386:./Libraries/STM32H7xx_HAL_Driver/Src/stm32h7xx_hal_hsem.c ****     HSEM->C1IER &= ~((uint32_t)statusreg);
 387:./Libraries/STM32H7xx_HAL_Driver/Src/stm32h7xx_hal_hsem.c **** 
 388:./Libraries/STM32H7xx_HAL_Driver/Src/stm32h7xx_hal_hsem.c ****     /*Clear Flags*/
 389:./Libraries/STM32H7xx_HAL_Driver/Src/stm32h7xx_hal_hsem.c ****     HSEM->C1ICR = ((uint32_t)statusreg);
 390:./Libraries/STM32H7xx_HAL_Driver/Src/stm32h7xx_hal_hsem.c ****   }
 391:./Libraries/STM32H7xx_HAL_Driver/Src/stm32h7xx_hal_hsem.c ****   else /* HSEM_CPU2_COREID */
 392:./Libraries/STM32H7xx_HAL_Driver/Src/stm32h7xx_hal_hsem.c ****   {
 393:./Libraries/STM32H7xx_HAL_Driver/Src/stm32h7xx_hal_hsem.c ****     /* Get the list of masked freed semaphores*/
 394:./Libraries/STM32H7xx_HAL_Driver/Src/stm32h7xx_hal_hsem.c ****     statusreg = HSEM->C2MISR;/*Use interrupt line 1 for CPU2 Master*/
 395:./Libraries/STM32H7xx_HAL_Driver/Src/stm32h7xx_hal_hsem.c **** 
 396:./Libraries/STM32H7xx_HAL_Driver/Src/stm32h7xx_hal_hsem.c ****     /*Disable Interrupts*/
 397:./Libraries/STM32H7xx_HAL_Driver/Src/stm32h7xx_hal_hsem.c ****     HSEM->C2IER &= ~((uint32_t)statusreg);
 398:./Libraries/STM32H7xx_HAL_Driver/Src/stm32h7xx_hal_hsem.c **** 
 399:./Libraries/STM32H7xx_HAL_Driver/Src/stm32h7xx_hal_hsem.c ****     /*Clear Flags*/
 400:./Libraries/STM32H7xx_HAL_Driver/Src/stm32h7xx_hal_hsem.c ****     HSEM->C2ICR = ((uint32_t)statusreg);
 401:./Libraries/STM32H7xx_HAL_Driver/Src/stm32h7xx_hal_hsem.c ****   }
 402:./Libraries/STM32H7xx_HAL_Driver/Src/stm32h7xx_hal_hsem.c **** #else
 403:./Libraries/STM32H7xx_HAL_Driver/Src/stm32h7xx_hal_hsem.c ****   /* Get the list of masked freed semaphores*/
 404:./Libraries/STM32H7xx_HAL_Driver/Src/stm32h7xx_hal_hsem.c ****   statusreg = HSEM_COMMON->MISR;
 575              		.loc 1 404 26
 576 0006 0A4B     		ldr	r3, .L37
 577              		.loc 1 404 13
 578 0008 DB68     		ldr	r3, [r3, #12]
 579 000a 7B60     		str	r3, [r7, #4]
 405:./Libraries/STM32H7xx_HAL_Driver/Src/stm32h7xx_hal_hsem.c **** 
 406:./Libraries/STM32H7xx_HAL_Driver/Src/stm32h7xx_hal_hsem.c ****   /*Disable Interrupts*/
 407:./Libraries/STM32H7xx_HAL_Driver/Src/stm32h7xx_hal_hsem.c ****   HSEM_COMMON->IER &= ~((uint32_t)statusreg);
 580              		.loc 1 407 20
 581 000c 084B     		ldr	r3, .L37
ARM GAS  /tmp/ccss59G4.s 			page 18


 582 000e 1A68     		ldr	r2, [r3]
 583              		.loc 1 407 23
 584 0010 7B68     		ldr	r3, [r7, #4]
 585 0012 DB43     		mvns	r3, r3
 586              		.loc 1 407 20
 587 0014 0649     		ldr	r1, .L37
 588 0016 1340     		ands	r3, r3, r2
 589 0018 0B60     		str	r3, [r1]
 408:./Libraries/STM32H7xx_HAL_Driver/Src/stm32h7xx_hal_hsem.c **** 
 409:./Libraries/STM32H7xx_HAL_Driver/Src/stm32h7xx_hal_hsem.c ****   /*Clear Flags*/
 410:./Libraries/STM32H7xx_HAL_Driver/Src/stm32h7xx_hal_hsem.c ****   HSEM_COMMON->ICR = ((uint32_t)statusreg);
 590              		.loc 1 410 14
 591 001a 054A     		ldr	r2, .L37
 592              		.loc 1 410 20
 593 001c 7B68     		ldr	r3, [r7, #4]
 594 001e 5360     		str	r3, [r2, #4]
 411:./Libraries/STM32H7xx_HAL_Driver/Src/stm32h7xx_hal_hsem.c **** 
 412:./Libraries/STM32H7xx_HAL_Driver/Src/stm32h7xx_hal_hsem.c **** #endif
 413:./Libraries/STM32H7xx_HAL_Driver/Src/stm32h7xx_hal_hsem.c ****   /* Call FreeCallback */
 414:./Libraries/STM32H7xx_HAL_Driver/Src/stm32h7xx_hal_hsem.c ****   HAL_HSEM_FreeCallback(statusreg);
 595              		.loc 1 414 3
 596 0020 7868     		ldr	r0, [r7, #4]
 597 0022 FFF7FEFF 		bl	HAL_HSEM_FreeCallback
 415:./Libraries/STM32H7xx_HAL_Driver/Src/stm32h7xx_hal_hsem.c **** }
 598              		.loc 1 415 1
 599 0026 00BF     		nop
 600 0028 0837     		adds	r7, r7, #8
 601              	.LCFI55:
 602              		.cfi_def_cfa_offset 8
 603 002a BD46     		mov	sp, r7
 604              	.LCFI56:
 605              		.cfi_def_cfa_register 13
 606              		@ sp needed
 607 002c 80BD     		pop	{r7, pc}
 608              	.L38:
 609 002e 00BF     		.align	2
 610              	.L37:
 611 0030 00650258 		.word	1476551936
 612              		.cfi_endproc
 613              	.LFE340:
 615              		.section	.text.HAL_HSEM_FreeCallback,"ax",%progbits
 616              		.align	1
 617              		.weak	HAL_HSEM_FreeCallback
 618              		.syntax unified
 619              		.thumb
 620              		.thumb_func
 621              		.fpu fpv5-d16
 623              	HAL_HSEM_FreeCallback:
 624              	.LFB341:
 416:./Libraries/STM32H7xx_HAL_Driver/Src/stm32h7xx_hal_hsem.c **** 
 417:./Libraries/STM32H7xx_HAL_Driver/Src/stm32h7xx_hal_hsem.c **** /**
 418:./Libraries/STM32H7xx_HAL_Driver/Src/stm32h7xx_hal_hsem.c ****   * @brief Semaphore Released Callback.
 419:./Libraries/STM32H7xx_HAL_Driver/Src/stm32h7xx_hal_hsem.c ****   * @param SemMask: Mask of Released semaphores
 420:./Libraries/STM32H7xx_HAL_Driver/Src/stm32h7xx_hal_hsem.c ****   * @retval None
 421:./Libraries/STM32H7xx_HAL_Driver/Src/stm32h7xx_hal_hsem.c ****   */
 422:./Libraries/STM32H7xx_HAL_Driver/Src/stm32h7xx_hal_hsem.c **** __weak void HAL_HSEM_FreeCallback(uint32_t SemMask)
 423:./Libraries/STM32H7xx_HAL_Driver/Src/stm32h7xx_hal_hsem.c **** {
ARM GAS  /tmp/ccss59G4.s 			page 19


 625              		.loc 1 423 1
 626              		.cfi_startproc
 627              		@ args = 0, pretend = 0, frame = 8
 628              		@ frame_needed = 1, uses_anonymous_args = 0
 629              		@ link register save eliminated.
 630 0000 80B4     		push	{r7}
 631              	.LCFI57:
 632              		.cfi_def_cfa_offset 4
 633              		.cfi_offset 7, -4
 634 0002 83B0     		sub	sp, sp, #12
 635              	.LCFI58:
 636              		.cfi_def_cfa_offset 16
 637 0004 00AF     		add	r7, sp, #0
 638              	.LCFI59:
 639              		.cfi_def_cfa_register 7
 640 0006 7860     		str	r0, [r7, #4]
 424:./Libraries/STM32H7xx_HAL_Driver/Src/stm32h7xx_hal_hsem.c ****   /* Prevent unused argument(s) compilation warning */
 425:./Libraries/STM32H7xx_HAL_Driver/Src/stm32h7xx_hal_hsem.c ****   UNUSED(SemMask);
 426:./Libraries/STM32H7xx_HAL_Driver/Src/stm32h7xx_hal_hsem.c **** 
 427:./Libraries/STM32H7xx_HAL_Driver/Src/stm32h7xx_hal_hsem.c ****   /* NOTE : This function should not be modified, when the callback is needed,
 428:./Libraries/STM32H7xx_HAL_Driver/Src/stm32h7xx_hal_hsem.c ****   the HAL_HSEM_FreeCallback can be implemented in the user file
 429:./Libraries/STM32H7xx_HAL_Driver/Src/stm32h7xx_hal_hsem.c ****     */
 430:./Libraries/STM32H7xx_HAL_Driver/Src/stm32h7xx_hal_hsem.c **** }
 641              		.loc 1 430 1
 642 0008 00BF     		nop
 643 000a 0C37     		adds	r7, r7, #12
 644              	.LCFI60:
 645              		.cfi_def_cfa_offset 4
 646 000c BD46     		mov	sp, r7
 647              	.LCFI61:
 648              		.cfi_def_cfa_register 13
 649              		@ sp needed
 650 000e 5DF8047B 		ldr	r7, [sp], #4
 651              	.LCFI62:
 652              		.cfi_restore 7
 653              		.cfi_def_cfa_offset 0
 654 0012 7047     		bx	lr
 655              		.cfi_endproc
 656              	.LFE341:
 658              		.text
 659              	.Letext0:
 660              		.file 2 "/usr/lib/gcc/arm-none-eabi/9.2.1/include/stdint.h"
 661              		.file 3 "./Libraries/CMSIS/Core/Include/core_cm7.h"
 662              		.file 4 "./Libraries/CMSIS/Device/ST/STM32H7xx/Include/system_stm32h7xx.h"
 663              		.file 5 "./Libraries/CMSIS/Device/ST/STM32H7xx/Include/stm32h747xx.h"
 664              		.file 6 "/usr/lib/gcc/arm-none-eabi/9.2.1/include/stddef.h"
 665              		.file 7 "/usr/include/newlib/sys/_types.h"
 666              		.file 8 "/usr/include/newlib/sys/reent.h"
 667              		.file 9 "/usr/include/newlib/sys/lock.h"
 668              		.file 10 "/usr/include/newlib/math.h"
 669              		.file 11 "./Libraries/STM32H7xx_HAL_Driver/Inc/stm32h7xx_hal_def.h"
 670              		.file 12 "./Libraries/STM32H7xx_HAL_Driver/Inc/stm32h7xx_hal_flash.h"
 671              		.file 13 "./Libraries/STM32H7xx_HAL_Driver/Inc/stm32h7xx_hal_uart.h"
 672              		.file 14 "./Libraries/STM32H7xx_HAL_Driver/Inc/stm32h7xx_hal.h"
ARM GAS  /tmp/ccss59G4.s 			page 20

