ARM GAS  /tmp/cc81WS73.s 			page 1


   1              		.cpu cortex-m7
   2              		.eabi_attribute 28, 1
   3              		.eabi_attribute 20, 1
   4              		.eabi_attribute 21, 1
   5              		.eabi_attribute 23, 3
   6              		.eabi_attribute 24, 1
   7              		.eabi_attribute 25, 1
   8              		.eabi_attribute 26, 1
   9              		.eabi_attribute 30, 6
  10              		.eabi_attribute 34, 1
  11              		.eabi_attribute 18, 4
  12              		.file	"stm32h7xx_it.c"
  13              		.text
  14              	.Ltext0:
  15              		.cfi_sections	.debug_frame
  16              		.section	.text.NMI_Handler,"ax",%progbits
  17              		.align	1
  18              		.global	NMI_Handler
  19              		.arch armv7e-m
  20              		.syntax unified
  21              		.thumb
  22              		.thumb_func
  23              		.fpu fpv5-d16
  25              	NMI_Handler:
  26              	.LFB331:
  27              		.file 1 "./User/Src/stm32h7xx_it.c"
   1:./User/Src/stm32h7xx_it.c **** /**
   2:./User/Src/stm32h7xx_it.c ****   ******************************************************************************
   3:./User/Src/stm32h7xx_it.c ****   * @file    LCD_DSI/LCD_DSI_CmdMode_SingleBuffer/CM7/Src/stm32h7xx_it.c
   4:./User/Src/stm32h7xx_it.c ****   * @author  MCD Application Team
   5:./User/Src/stm32h7xx_it.c ****   * @brief   Main Interrupt Service Routines for Cortex-M7 .
   6:./User/Src/stm32h7xx_it.c ****   ******************************************************************************
   7:./User/Src/stm32h7xx_it.c ****   * @attention
   8:./User/Src/stm32h7xx_it.c ****   *
   9:./User/Src/stm32h7xx_it.c ****   * <h2><center>&copy; Copyright (c) 2019 STMicroelectronics.
  10:./User/Src/stm32h7xx_it.c ****   * All rights reserved.</center></h2>
  11:./User/Src/stm32h7xx_it.c ****   *
  12:./User/Src/stm32h7xx_it.c ****   * This software component is licensed by ST under BSD 3-Clause license,
  13:./User/Src/stm32h7xx_it.c ****   * the "License"; You may not use this file except in compliance with the
  14:./User/Src/stm32h7xx_it.c ****   * License. You may obtain a copy of the License at:
  15:./User/Src/stm32h7xx_it.c ****   *                        opensource.org/licenses/BSD-3-Clause
  16:./User/Src/stm32h7xx_it.c ****   *
  17:./User/Src/stm32h7xx_it.c ****   ******************************************************************************
  18:./User/Src/stm32h7xx_it.c ****   */
  19:./User/Src/stm32h7xx_it.c **** 
  20:./User/Src/stm32h7xx_it.c **** /* Includes ------------------------------------------------------------------*/
  21:./User/Src/stm32h7xx_it.c **** #include "main.h"
  22:./User/Src/stm32h7xx_it.c **** #include "stm32h7xx_it.h"
  23:./User/Src/stm32h7xx_it.c **** 
  24:./User/Src/stm32h7xx_it.c **** /** @addtogroup STM32H7xx_HAL_Examples
  25:./User/Src/stm32h7xx_it.c ****   * @{
  26:./User/Src/stm32h7xx_it.c ****   */
  27:./User/Src/stm32h7xx_it.c **** 
  28:./User/Src/stm32h7xx_it.c **** /** @addtogroup LCD_DSI_CmdMode_SingleBuffer
  29:./User/Src/stm32h7xx_it.c ****   * @{
  30:./User/Src/stm32h7xx_it.c ****   */
  31:./User/Src/stm32h7xx_it.c **** 
ARM GAS  /tmp/cc81WS73.s 			page 2


  32:./User/Src/stm32h7xx_it.c **** /* Private typedef -----------------------------------------------------------*/
  33:./User/Src/stm32h7xx_it.c **** /* Private define ------------------------------------------------------------*/
  34:./User/Src/stm32h7xx_it.c **** /* Private macro -------------------------------------------------------------*/
  35:./User/Src/stm32h7xx_it.c **** /* Private variables ---------------------------------------------------------*/ 
  36:./User/Src/stm32h7xx_it.c **** extern DSI_HandleTypeDef hlcd_dsi;
  37:./User/Src/stm32h7xx_it.c **** /* Private function prototypes -----------------------------------------------*/
  38:./User/Src/stm32h7xx_it.c **** /* Private functions ---------------------------------------------------------*/
  39:./User/Src/stm32h7xx_it.c **** 
  40:./User/Src/stm32h7xx_it.c **** /******************************************************************************/
  41:./User/Src/stm32h7xx_it.c **** /*            Cortex-M7 Processor Exceptions Handlers                         */
  42:./User/Src/stm32h7xx_it.c **** /******************************************************************************/
  43:./User/Src/stm32h7xx_it.c **** 
  44:./User/Src/stm32h7xx_it.c **** /**
  45:./User/Src/stm32h7xx_it.c ****   * @brief   This function handles NMI exception.
  46:./User/Src/stm32h7xx_it.c ****   * @param  None
  47:./User/Src/stm32h7xx_it.c ****   * @retval None
  48:./User/Src/stm32h7xx_it.c ****   */
  49:./User/Src/stm32h7xx_it.c **** void NMI_Handler(void)
  50:./User/Src/stm32h7xx_it.c **** {
  28              		.loc 1 50 1
  29              		.cfi_startproc
  30              		@ args = 0, pretend = 0, frame = 0
  31              		@ frame_needed = 1, uses_anonymous_args = 0
  32              		@ link register save eliminated.
  33 0000 80B4     		push	{r7}
  34              	.LCFI0:
  35              		.cfi_def_cfa_offset 4
  36              		.cfi_offset 7, -4
  37 0002 00AF     		add	r7, sp, #0
  38              	.LCFI1:
  39              		.cfi_def_cfa_register 7
  51:./User/Src/stm32h7xx_it.c **** }
  40              		.loc 1 51 1
  41 0004 00BF     		nop
  42 0006 BD46     		mov	sp, r7
  43              	.LCFI2:
  44              		.cfi_def_cfa_register 13
  45              		@ sp needed
  46 0008 5DF8047B 		ldr	r7, [sp], #4
  47              	.LCFI3:
  48              		.cfi_restore 7
  49              		.cfi_def_cfa_offset 0
  50 000c 7047     		bx	lr
  51              		.cfi_endproc
  52              	.LFE331:
  54              		.section	.text.HardFault_Handler,"ax",%progbits
  55              		.align	1
  56              		.global	HardFault_Handler
  57              		.syntax unified
  58              		.thumb
  59              		.thumb_func
  60              		.fpu fpv5-d16
  62              	HardFault_Handler:
  63              	.LFB332:
  52:./User/Src/stm32h7xx_it.c **** 
  53:./User/Src/stm32h7xx_it.c **** /**
  54:./User/Src/stm32h7xx_it.c ****   * @brief  This function handles Hard Fault exception.
ARM GAS  /tmp/cc81WS73.s 			page 3


  55:./User/Src/stm32h7xx_it.c ****   * @param  None
  56:./User/Src/stm32h7xx_it.c ****   * @retval None
  57:./User/Src/stm32h7xx_it.c ****   */
  58:./User/Src/stm32h7xx_it.c **** void HardFault_Handler(void)
  59:./User/Src/stm32h7xx_it.c **** {
  64              		.loc 1 59 1
  65              		.cfi_startproc
  66              		@ args = 0, pretend = 0, frame = 0
  67              		@ frame_needed = 1, uses_anonymous_args = 0
  68              		@ link register save eliminated.
  69 0000 80B4     		push	{r7}
  70              	.LCFI4:
  71              		.cfi_def_cfa_offset 4
  72              		.cfi_offset 7, -4
  73 0002 00AF     		add	r7, sp, #0
  74              	.LCFI5:
  75              		.cfi_def_cfa_register 7
  76              	.L3:
  60:./User/Src/stm32h7xx_it.c ****   /* Go to infinite loop when Hard Fault exception occurs */
  61:./User/Src/stm32h7xx_it.c ****   while (1)
  77              		.loc 1 61 9 discriminator 1
  78 0004 FEE7     		b	.L3
  79              		.cfi_endproc
  80              	.LFE332:
  82              		.section	.text.MemManage_Handler,"ax",%progbits
  83              		.align	1
  84              		.global	MemManage_Handler
  85              		.syntax unified
  86              		.thumb
  87              		.thumb_func
  88              		.fpu fpv5-d16
  90              	MemManage_Handler:
  91              	.LFB333:
  62:./User/Src/stm32h7xx_it.c ****   {
  63:./User/Src/stm32h7xx_it.c ****   }
  64:./User/Src/stm32h7xx_it.c **** }
  65:./User/Src/stm32h7xx_it.c **** 
  66:./User/Src/stm32h7xx_it.c **** /**
  67:./User/Src/stm32h7xx_it.c ****   * @brief  This function handles Memory Manage exception.
  68:./User/Src/stm32h7xx_it.c ****   * @param  None
  69:./User/Src/stm32h7xx_it.c ****   * @retval None
  70:./User/Src/stm32h7xx_it.c ****   */
  71:./User/Src/stm32h7xx_it.c **** void MemManage_Handler(void)
  72:./User/Src/stm32h7xx_it.c **** {
  92              		.loc 1 72 1
  93              		.cfi_startproc
  94              		@ args = 0, pretend = 0, frame = 0
  95              		@ frame_needed = 1, uses_anonymous_args = 0
  96              		@ link register save eliminated.
  97 0000 80B4     		push	{r7}
  98              	.LCFI6:
  99              		.cfi_def_cfa_offset 4
 100              		.cfi_offset 7, -4
 101 0002 00AF     		add	r7, sp, #0
 102              	.LCFI7:
 103              		.cfi_def_cfa_register 7
 104              	.L5:
ARM GAS  /tmp/cc81WS73.s 			page 4


  73:./User/Src/stm32h7xx_it.c ****   /* Go to infinite loop when Memory Manage exception occurs */
  74:./User/Src/stm32h7xx_it.c ****   while (1)
 105              		.loc 1 74 9 discriminator 1
 106 0004 FEE7     		b	.L5
 107              		.cfi_endproc
 108              	.LFE333:
 110              		.section	.text.BusFault_Handler,"ax",%progbits
 111              		.align	1
 112              		.global	BusFault_Handler
 113              		.syntax unified
 114              		.thumb
 115              		.thumb_func
 116              		.fpu fpv5-d16
 118              	BusFault_Handler:
 119              	.LFB334:
  75:./User/Src/stm32h7xx_it.c ****   {
  76:./User/Src/stm32h7xx_it.c ****   }
  77:./User/Src/stm32h7xx_it.c **** }
  78:./User/Src/stm32h7xx_it.c **** 
  79:./User/Src/stm32h7xx_it.c **** /**
  80:./User/Src/stm32h7xx_it.c ****   * @brief  This function handles Bus Fault exception.
  81:./User/Src/stm32h7xx_it.c ****   * @param  None
  82:./User/Src/stm32h7xx_it.c ****   * @retval None
  83:./User/Src/stm32h7xx_it.c ****   */
  84:./User/Src/stm32h7xx_it.c **** void BusFault_Handler(void)
  85:./User/Src/stm32h7xx_it.c **** {
 120              		.loc 1 85 1
 121              		.cfi_startproc
 122              		@ args = 0, pretend = 0, frame = 0
 123              		@ frame_needed = 1, uses_anonymous_args = 0
 124              		@ link register save eliminated.
 125 0000 80B4     		push	{r7}
 126              	.LCFI8:
 127              		.cfi_def_cfa_offset 4
 128              		.cfi_offset 7, -4
 129 0002 00AF     		add	r7, sp, #0
 130              	.LCFI9:
 131              		.cfi_def_cfa_register 7
 132              	.L7:
  86:./User/Src/stm32h7xx_it.c ****   /* Go to infinite loop when Bus Fault exception occurs */
  87:./User/Src/stm32h7xx_it.c ****   while (1)
 133              		.loc 1 87 9 discriminator 1
 134 0004 FEE7     		b	.L7
 135              		.cfi_endproc
 136              	.LFE334:
 138              		.section	.text.UsageFault_Handler,"ax",%progbits
 139              		.align	1
 140              		.global	UsageFault_Handler
 141              		.syntax unified
 142              		.thumb
 143              		.thumb_func
 144              		.fpu fpv5-d16
 146              	UsageFault_Handler:
 147              	.LFB335:
  88:./User/Src/stm32h7xx_it.c ****   {
  89:./User/Src/stm32h7xx_it.c ****   }
  90:./User/Src/stm32h7xx_it.c **** }
ARM GAS  /tmp/cc81WS73.s 			page 5


  91:./User/Src/stm32h7xx_it.c **** 
  92:./User/Src/stm32h7xx_it.c **** /**
  93:./User/Src/stm32h7xx_it.c ****   * @brief  This function handles Usage Fault exception.
  94:./User/Src/stm32h7xx_it.c ****   * @param  None
  95:./User/Src/stm32h7xx_it.c ****   * @retval None
  96:./User/Src/stm32h7xx_it.c ****   */
  97:./User/Src/stm32h7xx_it.c **** void UsageFault_Handler(void)
  98:./User/Src/stm32h7xx_it.c **** {
 148              		.loc 1 98 1
 149              		.cfi_startproc
 150              		@ args = 0, pretend = 0, frame = 0
 151              		@ frame_needed = 1, uses_anonymous_args = 0
 152              		@ link register save eliminated.
 153 0000 80B4     		push	{r7}
 154              	.LCFI10:
 155              		.cfi_def_cfa_offset 4
 156              		.cfi_offset 7, -4
 157 0002 00AF     		add	r7, sp, #0
 158              	.LCFI11:
 159              		.cfi_def_cfa_register 7
 160              	.L9:
  99:./User/Src/stm32h7xx_it.c ****   /* Go to infinite loop when Usage Fault exception occurs */
 100:./User/Src/stm32h7xx_it.c ****   while (1)
 161              		.loc 1 100 9 discriminator 1
 162 0004 FEE7     		b	.L9
 163              		.cfi_endproc
 164              	.LFE335:
 166              		.section	.text.SVC_Handler,"ax",%progbits
 167              		.align	1
 168              		.global	SVC_Handler
 169              		.syntax unified
 170              		.thumb
 171              		.thumb_func
 172              		.fpu fpv5-d16
 174              	SVC_Handler:
 175              	.LFB336:
 101:./User/Src/stm32h7xx_it.c ****   {
 102:./User/Src/stm32h7xx_it.c ****   }
 103:./User/Src/stm32h7xx_it.c **** }
 104:./User/Src/stm32h7xx_it.c **** 
 105:./User/Src/stm32h7xx_it.c **** /**
 106:./User/Src/stm32h7xx_it.c ****   * @brief  This function handles SVCall exception.
 107:./User/Src/stm32h7xx_it.c ****   * @param  None
 108:./User/Src/stm32h7xx_it.c ****   * @retval None
 109:./User/Src/stm32h7xx_it.c ****   */
 110:./User/Src/stm32h7xx_it.c **** void SVC_Handler(void)
 111:./User/Src/stm32h7xx_it.c **** {
 176              		.loc 1 111 1
 177              		.cfi_startproc
 178              		@ args = 0, pretend = 0, frame = 0
 179              		@ frame_needed = 1, uses_anonymous_args = 0
 180              		@ link register save eliminated.
 181 0000 80B4     		push	{r7}
 182              	.LCFI12:
 183              		.cfi_def_cfa_offset 4
 184              		.cfi_offset 7, -4
 185 0002 00AF     		add	r7, sp, #0
ARM GAS  /tmp/cc81WS73.s 			page 6


 186              	.LCFI13:
 187              		.cfi_def_cfa_register 7
 112:./User/Src/stm32h7xx_it.c **** }
 188              		.loc 1 112 1
 189 0004 00BF     		nop
 190 0006 BD46     		mov	sp, r7
 191              	.LCFI14:
 192              		.cfi_def_cfa_register 13
 193              		@ sp needed
 194 0008 5DF8047B 		ldr	r7, [sp], #4
 195              	.LCFI15:
 196              		.cfi_restore 7
 197              		.cfi_def_cfa_offset 0
 198 000c 7047     		bx	lr
 199              		.cfi_endproc
 200              	.LFE336:
 202              		.section	.text.DebugMon_Handler,"ax",%progbits
 203              		.align	1
 204              		.global	DebugMon_Handler
 205              		.syntax unified
 206              		.thumb
 207              		.thumb_func
 208              		.fpu fpv5-d16
 210              	DebugMon_Handler:
 211              	.LFB337:
 113:./User/Src/stm32h7xx_it.c **** 
 114:./User/Src/stm32h7xx_it.c **** /**
 115:./User/Src/stm32h7xx_it.c ****   * @brief  This function handles Debug Monitor exception.
 116:./User/Src/stm32h7xx_it.c ****   * @param  None
 117:./User/Src/stm32h7xx_it.c ****   * @retval None
 118:./User/Src/stm32h7xx_it.c ****   */
 119:./User/Src/stm32h7xx_it.c **** void DebugMon_Handler(void)
 120:./User/Src/stm32h7xx_it.c **** {
 212              		.loc 1 120 1
 213              		.cfi_startproc
 214              		@ args = 0, pretend = 0, frame = 0
 215              		@ frame_needed = 1, uses_anonymous_args = 0
 216              		@ link register save eliminated.
 217 0000 80B4     		push	{r7}
 218              	.LCFI16:
 219              		.cfi_def_cfa_offset 4
 220              		.cfi_offset 7, -4
 221 0002 00AF     		add	r7, sp, #0
 222              	.LCFI17:
 223              		.cfi_def_cfa_register 7
 121:./User/Src/stm32h7xx_it.c **** }
 224              		.loc 1 121 1
 225 0004 00BF     		nop
 226 0006 BD46     		mov	sp, r7
 227              	.LCFI18:
 228              		.cfi_def_cfa_register 13
 229              		@ sp needed
 230 0008 5DF8047B 		ldr	r7, [sp], #4
 231              	.LCFI19:
 232              		.cfi_restore 7
 233              		.cfi_def_cfa_offset 0
 234 000c 7047     		bx	lr
ARM GAS  /tmp/cc81WS73.s 			page 7


 235              		.cfi_endproc
 236              	.LFE337:
 238              		.section	.text.PendSV_Handler,"ax",%progbits
 239              		.align	1
 240              		.global	PendSV_Handler
 241              		.syntax unified
 242              		.thumb
 243              		.thumb_func
 244              		.fpu fpv5-d16
 246              	PendSV_Handler:
 247              	.LFB338:
 122:./User/Src/stm32h7xx_it.c **** 
 123:./User/Src/stm32h7xx_it.c **** /**
 124:./User/Src/stm32h7xx_it.c ****   * @brief  This function handles PendSVC exception.
 125:./User/Src/stm32h7xx_it.c ****   * @param  None
 126:./User/Src/stm32h7xx_it.c ****   * @retval None
 127:./User/Src/stm32h7xx_it.c ****   */
 128:./User/Src/stm32h7xx_it.c **** void PendSV_Handler(void)
 129:./User/Src/stm32h7xx_it.c **** {
 248              		.loc 1 129 1
 249              		.cfi_startproc
 250              		@ args = 0, pretend = 0, frame = 0
 251              		@ frame_needed = 1, uses_anonymous_args = 0
 252              		@ link register save eliminated.
 253 0000 80B4     		push	{r7}
 254              	.LCFI20:
 255              		.cfi_def_cfa_offset 4
 256              		.cfi_offset 7, -4
 257 0002 00AF     		add	r7, sp, #0
 258              	.LCFI21:
 259              		.cfi_def_cfa_register 7
 130:./User/Src/stm32h7xx_it.c **** }
 260              		.loc 1 130 1
 261 0004 00BF     		nop
 262 0006 BD46     		mov	sp, r7
 263              	.LCFI22:
 264              		.cfi_def_cfa_register 13
 265              		@ sp needed
 266 0008 5DF8047B 		ldr	r7, [sp], #4
 267              	.LCFI23:
 268              		.cfi_restore 7
 269              		.cfi_def_cfa_offset 0
 270 000c 7047     		bx	lr
 271              		.cfi_endproc
 272              	.LFE338:
 274              		.section	.text.SysTick_Handler,"ax",%progbits
 275              		.align	1
 276              		.global	SysTick_Handler
 277              		.syntax unified
 278              		.thumb
 279              		.thumb_func
 280              		.fpu fpv5-d16
 282              	SysTick_Handler:
 283              	.LFB339:
 131:./User/Src/stm32h7xx_it.c **** 
 132:./User/Src/stm32h7xx_it.c **** /**
 133:./User/Src/stm32h7xx_it.c ****   * @brief  This function handles SysTick Handler.
ARM GAS  /tmp/cc81WS73.s 			page 8


 134:./User/Src/stm32h7xx_it.c ****   * @param  None
 135:./User/Src/stm32h7xx_it.c ****   * @retval None
 136:./User/Src/stm32h7xx_it.c ****   */
 137:./User/Src/stm32h7xx_it.c **** void SysTick_Handler(void)
 138:./User/Src/stm32h7xx_it.c **** {
 284              		.loc 1 138 1
 285              		.cfi_startproc
 286              		@ args = 0, pretend = 0, frame = 0
 287              		@ frame_needed = 1, uses_anonymous_args = 0
 288 0000 80B5     		push	{r7, lr}
 289              	.LCFI24:
 290              		.cfi_def_cfa_offset 8
 291              		.cfi_offset 7, -8
 292              		.cfi_offset 14, -4
 293 0002 00AF     		add	r7, sp, #0
 294              	.LCFI25:
 295              		.cfi_def_cfa_register 7
 139:./User/Src/stm32h7xx_it.c ****   HAL_IncTick();
 296              		.loc 1 139 3
 297 0004 FFF7FEFF 		bl	HAL_IncTick
 140:./User/Src/stm32h7xx_it.c **** }
 298              		.loc 1 140 1
 299 0008 00BF     		nop
 300 000a 80BD     		pop	{r7, pc}
 301              		.cfi_endproc
 302              	.LFE339:
 304              		.section	.text.DSI_IRQHandler,"ax",%progbits
 305              		.align	1
 306              		.global	DSI_IRQHandler
 307              		.syntax unified
 308              		.thumb
 309              		.thumb_func
 310              		.fpu fpv5-d16
 312              	DSI_IRQHandler:
 313              	.LFB340:
 141:./User/Src/stm32h7xx_it.c **** 
 142:./User/Src/stm32h7xx_it.c **** /******************************************************************************/
 143:./User/Src/stm32h7xx_it.c **** /*                 STM32H7xx Peripherals Interrupt Handlers                   */
 144:./User/Src/stm32h7xx_it.c **** /*  Add here the Interrupt Handler for the used peripheral(s) (PPP), for the  */
 145:./User/Src/stm32h7xx_it.c **** /*  available peripheral interrupt handler's name please refer to the startup */
 146:./User/Src/stm32h7xx_it.c **** /*  file (startup_stm32h7xx.s).                                               */
 147:./User/Src/stm32h7xx_it.c **** /******************************************************************************/
 148:./User/Src/stm32h7xx_it.c **** /**
 149:./User/Src/stm32h7xx_it.c ****   * @brief  This function handles DSI Handler.
 150:./User/Src/stm32h7xx_it.c ****   * @param  None
 151:./User/Src/stm32h7xx_it.c ****   * @retval None
 152:./User/Src/stm32h7xx_it.c ****   */
 153:./User/Src/stm32h7xx_it.c **** void DSI_IRQHandler(void)
 154:./User/Src/stm32h7xx_it.c **** {
 314              		.loc 1 154 1
 315              		.cfi_startproc
 316              		@ args = 0, pretend = 0, frame = 0
 317              		@ frame_needed = 1, uses_anonymous_args = 0
 318 0000 80B5     		push	{r7, lr}
 319              	.LCFI26:
 320              		.cfi_def_cfa_offset 8
 321              		.cfi_offset 7, -8
ARM GAS  /tmp/cc81WS73.s 			page 9


 322              		.cfi_offset 14, -4
 323 0002 00AF     		add	r7, sp, #0
 324              	.LCFI27:
 325              		.cfi_def_cfa_register 7
 155:./User/Src/stm32h7xx_it.c ****   HAL_DSI_IRQHandler(&hlcd_dsi);
 326              		.loc 1 155 3
 327 0004 0248     		ldr	r0, .L15
 328 0006 FFF7FEFF 		bl	HAL_DSI_IRQHandler
 156:./User/Src/stm32h7xx_it.c **** }
 329              		.loc 1 156 1
 330 000a 00BF     		nop
 331 000c 80BD     		pop	{r7, pc}
 332              	.L16:
 333 000e 00BF     		.align	2
 334              	.L15:
 335 0010 00000000 		.word	hlcd_dsi
 336              		.cfi_endproc
 337              	.LFE340:
 339              		.text
 340              	.Letext0:
 341              		.file 2 "/usr/lib/gcc/arm-none-eabi/9.2.1/include/stdint.h"
 342              		.file 3 "./Libraries/CMSIS/Core/Include/core_cm7.h"
 343              		.file 4 "./Libraries/CMSIS/Device/ST/STM32H7xx/Include/system_stm32h7xx.h"
 344              		.file 5 "./Libraries/CMSIS/Device/ST/STM32H7xx/Include/stm32h747xx.h"
 345              		.file 6 "/usr/lib/gcc/arm-none-eabi/9.2.1/include/stddef.h"
 346              		.file 7 "/usr/include/newlib/sys/_types.h"
 347              		.file 8 "/usr/include/newlib/sys/reent.h"
 348              		.file 9 "/usr/include/newlib/sys/lock.h"
 349              		.file 10 "/usr/include/newlib/math.h"
 350              		.file 11 "./Libraries/STM32H7xx_HAL_Driver/Inc/stm32h7xx_hal_def.h"
 351              		.file 12 "./Libraries/STM32H7xx_HAL_Driver/Inc/stm32h7xx_hal_dma.h"
 352              		.file 13 "./Libraries/STM32H7xx_HAL_Driver/Inc/stm32h7xx_hal_mdma.h"
 353              		.file 14 "./Libraries/STM32H7xx_HAL_Driver/Inc/stm32h7xx_hal_dma2d.h"
 354              		.file 15 "./Libraries/STM32H7xx_HAL_Driver/Inc/stm32h7xx_hal_dsi.h"
 355              		.file 16 "./Libraries/STM32H7xx_HAL_Driver/Inc/stm32h7xx_hal_exti.h"
 356              		.file 17 "./Libraries/STM32H7xx_HAL_Driver/Inc/stm32h7xx_hal_flash.h"
 357              		.file 18 "./Libraries/STM32H7xx_HAL_Driver/Inc/stm32h7xx_hal_i2c.h"
 358              		.file 19 "./Libraries/STM32H7xx_HAL_Driver/Inc/stm32h7xx_hal_ltdc.h"
 359              		.file 20 "./Libraries/STM32H7xx_HAL_Driver/Inc/stm32h7xx_ll_fmc.h"
 360              		.file 21 "./Libraries/STM32H7xx_HAL_Driver/Inc/stm32h7xx_hal_sdram.h"
 361              		.file 22 "./Libraries/STM32H7xx_HAL_Driver/Inc/stm32h7xx_hal_uart.h"
 362              		.file 23 "./Libraries/STM32H7xx_HAL_Driver/Inc/stm32h7xx_hal.h"
 363              		.file 24 "./BSP/ST/stm32h747i_discovery.h"
 364              		.file 25 "./BSP/ST/lcd.h"
 365              		.file 26 "./BSP/ST/../Components/otm8009a/otm8009a_reg.h"
 366              		.file 27 "./BSP/ST/../Components/otm8009a/otm8009a.h"
 367              		.file 28 "./BSP/ST/../Components/adv7533/adv7533_reg.h"
 368              		.file 29 "./BSP/ST/../Components/adv7533/adv7533.h"
 369              		.file 30 "./BSP/ST/stm32h747i_discovery_lcd.h"
 370              		.file 31 "./BSP/ST/stm32h747i_discovery_sdram.h"
 371              		.file 32 "./BSP/ST/stm32h747i_discovery_bus.h"
 372              		.file 33 "./BSP/ST/Fonts/../Fonts/fonts.h"
ARM GAS  /tmp/cc81WS73.s 			page 10

