ARM GAS  /tmp/cc7azozz.s 			page 1


   1              		.cpu cortex-m7
   2              		.eabi_attribute 28, 1
   3              		.eabi_attribute 20, 1
   4              		.eabi_attribute 21, 1
   5              		.eabi_attribute 23, 3
   6              		.eabi_attribute 24, 1
   7              		.eabi_attribute 25, 1
   8              		.eabi_attribute 26, 1
   9              		.eabi_attribute 30, 6
  10              		.eabi_attribute 34, 1
  11              		.eabi_attribute 18, 4
  12              		.file	"stm32h7xx_hal_ltdc.c"
  13              		.text
  14              	.Ltext0:
  15              		.cfi_sections	.debug_frame
  16              		.section	.text.HAL_LTDC_Init,"ax",%progbits
  17              		.align	1
  18              		.global	HAL_LTDC_Init
  19              		.arch armv7e-m
  20              		.syntax unified
  21              		.thumb
  22              		.thumb_func
  23              		.fpu fpv5-d16
  25              	HAL_LTDC_Init:
  26              	.LFB331:
  27              		.file 1 "./Libraries/STM32H7xx_HAL_Driver/Src/stm32h7xx_hal_ltdc.c"
   1:./Libraries/STM32H7xx_HAL_Driver/Src/stm32h7xx_hal_ltdc.c **** /**
   2:./Libraries/STM32H7xx_HAL_Driver/Src/stm32h7xx_hal_ltdc.c ****   ******************************************************************************
   3:./Libraries/STM32H7xx_HAL_Driver/Src/stm32h7xx_hal_ltdc.c ****   * @file    stm32h7xx_hal_ltdc.c
   4:./Libraries/STM32H7xx_HAL_Driver/Src/stm32h7xx_hal_ltdc.c ****   * @author  MCD Application Team
   5:./Libraries/STM32H7xx_HAL_Driver/Src/stm32h7xx_hal_ltdc.c ****   * @brief   LTDC HAL module driver.
   6:./Libraries/STM32H7xx_HAL_Driver/Src/stm32h7xx_hal_ltdc.c ****   *          This file provides firmware functions to manage the following
   7:./Libraries/STM32H7xx_HAL_Driver/Src/stm32h7xx_hal_ltdc.c ****   *          functionalities of the LTDC peripheral:
   8:./Libraries/STM32H7xx_HAL_Driver/Src/stm32h7xx_hal_ltdc.c ****   *           + Initialization and de-initialization functions
   9:./Libraries/STM32H7xx_HAL_Driver/Src/stm32h7xx_hal_ltdc.c ****   *           + IO operation functions
  10:./Libraries/STM32H7xx_HAL_Driver/Src/stm32h7xx_hal_ltdc.c ****   *           + Peripheral Control functions
  11:./Libraries/STM32H7xx_HAL_Driver/Src/stm32h7xx_hal_ltdc.c ****   *           + Peripheral State and Errors functions
  12:./Libraries/STM32H7xx_HAL_Driver/Src/stm32h7xx_hal_ltdc.c ****   *
  13:./Libraries/STM32H7xx_HAL_Driver/Src/stm32h7xx_hal_ltdc.c ****   @verbatim
  14:./Libraries/STM32H7xx_HAL_Driver/Src/stm32h7xx_hal_ltdc.c ****   ==============================================================================
  15:./Libraries/STM32H7xx_HAL_Driver/Src/stm32h7xx_hal_ltdc.c ****                         ##### How to use this driver #####
  16:./Libraries/STM32H7xx_HAL_Driver/Src/stm32h7xx_hal_ltdc.c ****   ==============================================================================
  17:./Libraries/STM32H7xx_HAL_Driver/Src/stm32h7xx_hal_ltdc.c ****      [..]
  18:./Libraries/STM32H7xx_HAL_Driver/Src/stm32h7xx_hal_ltdc.c ****      The LTDC HAL driver can be used as follows:
  19:./Libraries/STM32H7xx_HAL_Driver/Src/stm32h7xx_hal_ltdc.c **** 
  20:./Libraries/STM32H7xx_HAL_Driver/Src/stm32h7xx_hal_ltdc.c ****      (#) Declare a LTDC_HandleTypeDef handle structure, for example: LTDC_HandleTypeDef  hltdc;
  21:./Libraries/STM32H7xx_HAL_Driver/Src/stm32h7xx_hal_ltdc.c **** 
  22:./Libraries/STM32H7xx_HAL_Driver/Src/stm32h7xx_hal_ltdc.c ****      (#) Initialize the LTDC low level resources by implementing the HAL_LTDC_MspInit() API:
  23:./Libraries/STM32H7xx_HAL_Driver/Src/stm32h7xx_hal_ltdc.c ****          (##) Enable the LTDC interface clock
  24:./Libraries/STM32H7xx_HAL_Driver/Src/stm32h7xx_hal_ltdc.c ****          (##) NVIC configuration if you need to use interrupt process
  25:./Libraries/STM32H7xx_HAL_Driver/Src/stm32h7xx_hal_ltdc.c ****              (+++) Configure the LTDC interrupt priority
  26:./Libraries/STM32H7xx_HAL_Driver/Src/stm32h7xx_hal_ltdc.c ****              (+++) Enable the NVIC LTDC IRQ Channel
  27:./Libraries/STM32H7xx_HAL_Driver/Src/stm32h7xx_hal_ltdc.c **** 
  28:./Libraries/STM32H7xx_HAL_Driver/Src/stm32h7xx_hal_ltdc.c ****      (#) Initialize the required configuration through the following parameters:
  29:./Libraries/STM32H7xx_HAL_Driver/Src/stm32h7xx_hal_ltdc.c ****          the LTDC timing, the horizontal and vertical polarity, the pixel clock polarity,
  30:./Libraries/STM32H7xx_HAL_Driver/Src/stm32h7xx_hal_ltdc.c ****          Data Enable polarity and the LTDC background color value using HAL_LTDC_Init() function
  31:./Libraries/STM32H7xx_HAL_Driver/Src/stm32h7xx_hal_ltdc.c **** 
ARM GAS  /tmp/cc7azozz.s 			page 2


  32:./Libraries/STM32H7xx_HAL_Driver/Src/stm32h7xx_hal_ltdc.c ****      *** Configuration ***
  33:./Libraries/STM32H7xx_HAL_Driver/Src/stm32h7xx_hal_ltdc.c ****      =========================
  34:./Libraries/STM32H7xx_HAL_Driver/Src/stm32h7xx_hal_ltdc.c ****      [..]
  35:./Libraries/STM32H7xx_HAL_Driver/Src/stm32h7xx_hal_ltdc.c ****      (#) Program the required configuration through the following parameters:
  36:./Libraries/STM32H7xx_HAL_Driver/Src/stm32h7xx_hal_ltdc.c ****          the pixel format, the blending factors, input alpha value, the window size
  37:./Libraries/STM32H7xx_HAL_Driver/Src/stm32h7xx_hal_ltdc.c ****          and the image size using HAL_LTDC_ConfigLayer() function for foreground
  38:./Libraries/STM32H7xx_HAL_Driver/Src/stm32h7xx_hal_ltdc.c ****          or/and background layer.
  39:./Libraries/STM32H7xx_HAL_Driver/Src/stm32h7xx_hal_ltdc.c **** 
  40:./Libraries/STM32H7xx_HAL_Driver/Src/stm32h7xx_hal_ltdc.c ****      (#) Optionally, configure and enable the CLUT using HAL_LTDC_ConfigCLUT() and
  41:./Libraries/STM32H7xx_HAL_Driver/Src/stm32h7xx_hal_ltdc.c ****          HAL_LTDC_EnableCLUT functions.
  42:./Libraries/STM32H7xx_HAL_Driver/Src/stm32h7xx_hal_ltdc.c **** 
  43:./Libraries/STM32H7xx_HAL_Driver/Src/stm32h7xx_hal_ltdc.c ****      (#) Optionally, enable the Dither using HAL_LTDC_EnableDither().
  44:./Libraries/STM32H7xx_HAL_Driver/Src/stm32h7xx_hal_ltdc.c **** 
  45:./Libraries/STM32H7xx_HAL_Driver/Src/stm32h7xx_hal_ltdc.c ****      (#) Optionally, configure and enable the Color keying using HAL_LTDC_ConfigColorKeying()
  46:./Libraries/STM32H7xx_HAL_Driver/Src/stm32h7xx_hal_ltdc.c ****          and HAL_LTDC_EnableColorKeying functions.
  47:./Libraries/STM32H7xx_HAL_Driver/Src/stm32h7xx_hal_ltdc.c **** 
  48:./Libraries/STM32H7xx_HAL_Driver/Src/stm32h7xx_hal_ltdc.c ****      (#) Optionally, configure LineInterrupt using HAL_LTDC_ProgramLineEvent()
  49:./Libraries/STM32H7xx_HAL_Driver/Src/stm32h7xx_hal_ltdc.c ****          function
  50:./Libraries/STM32H7xx_HAL_Driver/Src/stm32h7xx_hal_ltdc.c **** 
  51:./Libraries/STM32H7xx_HAL_Driver/Src/stm32h7xx_hal_ltdc.c ****      (#) If needed, reconfigure and change the pixel format value, the alpha value
  52:./Libraries/STM32H7xx_HAL_Driver/Src/stm32h7xx_hal_ltdc.c ****          value, the window size, the window position and the layer start address
  53:./Libraries/STM32H7xx_HAL_Driver/Src/stm32h7xx_hal_ltdc.c ****          for foreground or/and background layer using respectively the following
  54:./Libraries/STM32H7xx_HAL_Driver/Src/stm32h7xx_hal_ltdc.c ****          functions: HAL_LTDC_SetPixelFormat(), HAL_LTDC_SetAlpha(), HAL_LTDC_SetWindowSize(),
  55:./Libraries/STM32H7xx_HAL_Driver/Src/stm32h7xx_hal_ltdc.c ****          HAL_LTDC_SetWindowPosition() and HAL_LTDC_SetAddress().
  56:./Libraries/STM32H7xx_HAL_Driver/Src/stm32h7xx_hal_ltdc.c **** 
  57:./Libraries/STM32H7xx_HAL_Driver/Src/stm32h7xx_hal_ltdc.c ****      (#) Variant functions with _NoReload suffix allows to set the LTDC configuration/settings with
  58:./Libraries/STM32H7xx_HAL_Driver/Src/stm32h7xx_hal_ltdc.c ****          This is useful in case when the program requires to modify serval LTDC settings (on one or
  59:./Libraries/STM32H7xx_HAL_Driver/Src/stm32h7xx_hal_ltdc.c ****          then applying(reload) these settings in one shot by calling the function HAL_LTDC_Reload()
  60:./Libraries/STM32H7xx_HAL_Driver/Src/stm32h7xx_hal_ltdc.c **** 
  61:./Libraries/STM32H7xx_HAL_Driver/Src/stm32h7xx_hal_ltdc.c ****          After calling the _NoReload functions to set different color/format/layer settings,
  62:./Libraries/STM32H7xx_HAL_Driver/Src/stm32h7xx_hal_ltdc.c ****          the program shall call the function HAL_LTDC_Reload() to apply(reload) these settings.
  63:./Libraries/STM32H7xx_HAL_Driver/Src/stm32h7xx_hal_ltdc.c ****          Function HAL_LTDC_Reload() can be called with the parameter ReloadType set to LTDC_RELOAD_
  64:./Libraries/STM32H7xx_HAL_Driver/Src/stm32h7xx_hal_ltdc.c ****          an immediate reload is required.
  65:./Libraries/STM32H7xx_HAL_Driver/Src/stm32h7xx_hal_ltdc.c ****          Function HAL_LTDC_Reload() can be called with the parameter ReloadType set to LTDC_RELOAD_
  66:./Libraries/STM32H7xx_HAL_Driver/Src/stm32h7xx_hal_ltdc.c ****          the reload should be done in the next vertical blanking period,
  67:./Libraries/STM32H7xx_HAL_Driver/Src/stm32h7xx_hal_ltdc.c ****          this option allows to avoid display flicker by applying the new settings during the vertic
  68:./Libraries/STM32H7xx_HAL_Driver/Src/stm32h7xx_hal_ltdc.c **** 
  69:./Libraries/STM32H7xx_HAL_Driver/Src/stm32h7xx_hal_ltdc.c **** 
  70:./Libraries/STM32H7xx_HAL_Driver/Src/stm32h7xx_hal_ltdc.c ****      (#) To control LTDC state you can use the following function: HAL_LTDC_GetState()
  71:./Libraries/STM32H7xx_HAL_Driver/Src/stm32h7xx_hal_ltdc.c **** 
  72:./Libraries/STM32H7xx_HAL_Driver/Src/stm32h7xx_hal_ltdc.c ****      *** LTDC HAL driver macros list ***
  73:./Libraries/STM32H7xx_HAL_Driver/Src/stm32h7xx_hal_ltdc.c ****      =============================================
  74:./Libraries/STM32H7xx_HAL_Driver/Src/stm32h7xx_hal_ltdc.c ****      [..]
  75:./Libraries/STM32H7xx_HAL_Driver/Src/stm32h7xx_hal_ltdc.c ****        Below the list of most used macros in LTDC HAL driver.
  76:./Libraries/STM32H7xx_HAL_Driver/Src/stm32h7xx_hal_ltdc.c **** 
  77:./Libraries/STM32H7xx_HAL_Driver/Src/stm32h7xx_hal_ltdc.c ****       (+) __HAL_LTDC_ENABLE: Enable the LTDC.
  78:./Libraries/STM32H7xx_HAL_Driver/Src/stm32h7xx_hal_ltdc.c ****       (+) __HAL_LTDC_DISABLE: Disable the LTDC.
  79:./Libraries/STM32H7xx_HAL_Driver/Src/stm32h7xx_hal_ltdc.c ****       (+) __HAL_LTDC_LAYER_ENABLE: Enable an LTDC Layer.
  80:./Libraries/STM32H7xx_HAL_Driver/Src/stm32h7xx_hal_ltdc.c ****       (+) __HAL_LTDC_LAYER_DISABLE: Disable an LTDC Layer.
  81:./Libraries/STM32H7xx_HAL_Driver/Src/stm32h7xx_hal_ltdc.c ****       (+) __HAL_LTDC_RELOAD_IMMEDIATE_CONFIG: Reload  Layer Configuration.
  82:./Libraries/STM32H7xx_HAL_Driver/Src/stm32h7xx_hal_ltdc.c ****       (+) __HAL_LTDC_GET_FLAG: Get the LTDC pending flags.
  83:./Libraries/STM32H7xx_HAL_Driver/Src/stm32h7xx_hal_ltdc.c ****       (+) __HAL_LTDC_CLEAR_FLAG: Clear the LTDC pending flags.
  84:./Libraries/STM32H7xx_HAL_Driver/Src/stm32h7xx_hal_ltdc.c ****       (+) __HAL_LTDC_ENABLE_IT: Enable the specified LTDC interrupts.
  85:./Libraries/STM32H7xx_HAL_Driver/Src/stm32h7xx_hal_ltdc.c ****       (+) __HAL_LTDC_DISABLE_IT: Disable the specified LTDC interrupts.
  86:./Libraries/STM32H7xx_HAL_Driver/Src/stm32h7xx_hal_ltdc.c ****       (+) __HAL_LTDC_GET_IT_SOURCE: Check whether the specified LTDC interrupt has occurred or not.
  87:./Libraries/STM32H7xx_HAL_Driver/Src/stm32h7xx_hal_ltdc.c **** 
  88:./Libraries/STM32H7xx_HAL_Driver/Src/stm32h7xx_hal_ltdc.c ****      [..]
ARM GAS  /tmp/cc7azozz.s 			page 3


  89:./Libraries/STM32H7xx_HAL_Driver/Src/stm32h7xx_hal_ltdc.c ****        (@) You can refer to the LTDC HAL driver header file for more useful macros
  90:./Libraries/STM32H7xx_HAL_Driver/Src/stm32h7xx_hal_ltdc.c **** 
  91:./Libraries/STM32H7xx_HAL_Driver/Src/stm32h7xx_hal_ltdc.c **** 
  92:./Libraries/STM32H7xx_HAL_Driver/Src/stm32h7xx_hal_ltdc.c ****      *** Callback registration ***
  93:./Libraries/STM32H7xx_HAL_Driver/Src/stm32h7xx_hal_ltdc.c ****      =============================================
  94:./Libraries/STM32H7xx_HAL_Driver/Src/stm32h7xx_hal_ltdc.c ****      [..]
  95:./Libraries/STM32H7xx_HAL_Driver/Src/stm32h7xx_hal_ltdc.c ****      The compilation define  USE_HAL_LTDC_REGISTER_CALLBACKS when set to 1
  96:./Libraries/STM32H7xx_HAL_Driver/Src/stm32h7xx_hal_ltdc.c ****      allows the user to configure dynamically the driver callbacks.
  97:./Libraries/STM32H7xx_HAL_Driver/Src/stm32h7xx_hal_ltdc.c ****      Use function HAL_LTDC_RegisterCallback() to register a callback.
  98:./Libraries/STM32H7xx_HAL_Driver/Src/stm32h7xx_hal_ltdc.c **** 
  99:./Libraries/STM32H7xx_HAL_Driver/Src/stm32h7xx_hal_ltdc.c ****     [..]
 100:./Libraries/STM32H7xx_HAL_Driver/Src/stm32h7xx_hal_ltdc.c ****     Function HAL_LTDC_RegisterCallback() allows to register following callbacks:
 101:./Libraries/STM32H7xx_HAL_Driver/Src/stm32h7xx_hal_ltdc.c ****       (+) LineEventCallback   : LTDC Line Event Callback.
 102:./Libraries/STM32H7xx_HAL_Driver/Src/stm32h7xx_hal_ltdc.c ****       (+) ReloadEventCallback : LTDC Reload Event Callback.
 103:./Libraries/STM32H7xx_HAL_Driver/Src/stm32h7xx_hal_ltdc.c ****       (+) ErrorCallback       : LTDC Error Callback
 104:./Libraries/STM32H7xx_HAL_Driver/Src/stm32h7xx_hal_ltdc.c ****       (+) MspInitCallback     : LTDC MspInit.
 105:./Libraries/STM32H7xx_HAL_Driver/Src/stm32h7xx_hal_ltdc.c ****       (+) MspDeInitCallback   : LTDC MspDeInit.
 106:./Libraries/STM32H7xx_HAL_Driver/Src/stm32h7xx_hal_ltdc.c ****     [..]
 107:./Libraries/STM32H7xx_HAL_Driver/Src/stm32h7xx_hal_ltdc.c ****     This function takes as parameters the HAL peripheral handle, the callback ID
 108:./Libraries/STM32H7xx_HAL_Driver/Src/stm32h7xx_hal_ltdc.c ****     and a pointer to the user callback function.
 109:./Libraries/STM32H7xx_HAL_Driver/Src/stm32h7xx_hal_ltdc.c **** 
 110:./Libraries/STM32H7xx_HAL_Driver/Src/stm32h7xx_hal_ltdc.c ****     [..]
 111:./Libraries/STM32H7xx_HAL_Driver/Src/stm32h7xx_hal_ltdc.c ****     Use function HAL_LTDC_UnRegisterCallback() to reset a callback to the default
 112:./Libraries/STM32H7xx_HAL_Driver/Src/stm32h7xx_hal_ltdc.c ****     weak function.
 113:./Libraries/STM32H7xx_HAL_Driver/Src/stm32h7xx_hal_ltdc.c ****     HAL_LTDC_UnRegisterCallback() takes as parameters the HAL peripheral handle
 114:./Libraries/STM32H7xx_HAL_Driver/Src/stm32h7xx_hal_ltdc.c ****     and the callback ID.
 115:./Libraries/STM32H7xx_HAL_Driver/Src/stm32h7xx_hal_ltdc.c ****     [..]
 116:./Libraries/STM32H7xx_HAL_Driver/Src/stm32h7xx_hal_ltdc.c ****     This function allows to reset following callbacks:
 117:./Libraries/STM32H7xx_HAL_Driver/Src/stm32h7xx_hal_ltdc.c ****       (+) LineEventCallback   : LTDC Line Event Callback
 118:./Libraries/STM32H7xx_HAL_Driver/Src/stm32h7xx_hal_ltdc.c ****       (+) ReloadEventCallback : LTDC Reload Event Callback
 119:./Libraries/STM32H7xx_HAL_Driver/Src/stm32h7xx_hal_ltdc.c ****       (+) ErrorCallback       : LTDC Error Callback
 120:./Libraries/STM32H7xx_HAL_Driver/Src/stm32h7xx_hal_ltdc.c ****       (+) MspInitCallback     : LTDC MspInit
 121:./Libraries/STM32H7xx_HAL_Driver/Src/stm32h7xx_hal_ltdc.c ****       (+) MspDeInitCallback   : LTDC MspDeInit.
 122:./Libraries/STM32H7xx_HAL_Driver/Src/stm32h7xx_hal_ltdc.c **** 
 123:./Libraries/STM32H7xx_HAL_Driver/Src/stm32h7xx_hal_ltdc.c ****     [..]
 124:./Libraries/STM32H7xx_HAL_Driver/Src/stm32h7xx_hal_ltdc.c ****     By default, after the HAL_LTDC_Init and when the state is HAL_LTDC_STATE_RESET
 125:./Libraries/STM32H7xx_HAL_Driver/Src/stm32h7xx_hal_ltdc.c ****     all callbacks are set to the corresponding weak functions:
 126:./Libraries/STM32H7xx_HAL_Driver/Src/stm32h7xx_hal_ltdc.c ****     examples HAL_LTDC_LineEventCallback(), HAL_LTDC_ErrorCallback().
 127:./Libraries/STM32H7xx_HAL_Driver/Src/stm32h7xx_hal_ltdc.c ****     Exception done for MspInit and MspDeInit functions that are
 128:./Libraries/STM32H7xx_HAL_Driver/Src/stm32h7xx_hal_ltdc.c ****     reset to the legacy weak (surcharged) functions in the HAL_LTDC_Init() and HAL_LTDC_DeInit()
 129:./Libraries/STM32H7xx_HAL_Driver/Src/stm32h7xx_hal_ltdc.c ****     only when these callbacks are null (not registered beforehand).
 130:./Libraries/STM32H7xx_HAL_Driver/Src/stm32h7xx_hal_ltdc.c ****     If not, MspInit or MspDeInit are not null, the HAL_LTDC_Init() and HAL_LTDC_DeInit()
 131:./Libraries/STM32H7xx_HAL_Driver/Src/stm32h7xx_hal_ltdc.c ****     keep and use the user MspInit/MspDeInit callbacks (registered beforehand).
 132:./Libraries/STM32H7xx_HAL_Driver/Src/stm32h7xx_hal_ltdc.c **** 
 133:./Libraries/STM32H7xx_HAL_Driver/Src/stm32h7xx_hal_ltdc.c ****     [..]
 134:./Libraries/STM32H7xx_HAL_Driver/Src/stm32h7xx_hal_ltdc.c ****     Callbacks can be registered/unregistered in HAL_LTDC_STATE_READY state only.
 135:./Libraries/STM32H7xx_HAL_Driver/Src/stm32h7xx_hal_ltdc.c ****     Exception done MspInit/MspDeInit that can be registered/unregistered
 136:./Libraries/STM32H7xx_HAL_Driver/Src/stm32h7xx_hal_ltdc.c ****     in HAL_LTDC_STATE_READY or HAL_LTDC_STATE_RESET state,
 137:./Libraries/STM32H7xx_HAL_Driver/Src/stm32h7xx_hal_ltdc.c ****     thus registered (user) MspInit/DeInit callbacks can be used during the Init/DeInit.
 138:./Libraries/STM32H7xx_HAL_Driver/Src/stm32h7xx_hal_ltdc.c ****     In that case first register the MspInit/MspDeInit user callbacks
 139:./Libraries/STM32H7xx_HAL_Driver/Src/stm32h7xx_hal_ltdc.c ****     using HAL_LTDC_RegisterCallback() before calling HAL_LTDC_DeInit()
 140:./Libraries/STM32H7xx_HAL_Driver/Src/stm32h7xx_hal_ltdc.c ****     or HAL_LTDC_Init() function.
 141:./Libraries/STM32H7xx_HAL_Driver/Src/stm32h7xx_hal_ltdc.c **** 
 142:./Libraries/STM32H7xx_HAL_Driver/Src/stm32h7xx_hal_ltdc.c ****     [..]
 143:./Libraries/STM32H7xx_HAL_Driver/Src/stm32h7xx_hal_ltdc.c ****     When the compilation define USE_HAL_LTDC_REGISTER_CALLBACKS is set to 0 or
 144:./Libraries/STM32H7xx_HAL_Driver/Src/stm32h7xx_hal_ltdc.c ****     not defined, the callback registration feature is not available and all callbacks
 145:./Libraries/STM32H7xx_HAL_Driver/Src/stm32h7xx_hal_ltdc.c ****     are set to the corresponding weak functions.
ARM GAS  /tmp/cc7azozz.s 			page 4


 146:./Libraries/STM32H7xx_HAL_Driver/Src/stm32h7xx_hal_ltdc.c **** 
 147:./Libraries/STM32H7xx_HAL_Driver/Src/stm32h7xx_hal_ltdc.c ****   @endverbatim
 148:./Libraries/STM32H7xx_HAL_Driver/Src/stm32h7xx_hal_ltdc.c ****   ******************************************************************************
 149:./Libraries/STM32H7xx_HAL_Driver/Src/stm32h7xx_hal_ltdc.c ****   * @attention
 150:./Libraries/STM32H7xx_HAL_Driver/Src/stm32h7xx_hal_ltdc.c ****   *
 151:./Libraries/STM32H7xx_HAL_Driver/Src/stm32h7xx_hal_ltdc.c ****   * <h2><center>&copy; Copyright (c) 2017 STMicroelectronics.
 152:./Libraries/STM32H7xx_HAL_Driver/Src/stm32h7xx_hal_ltdc.c ****   * All rights reserved.</center></h2>
 153:./Libraries/STM32H7xx_HAL_Driver/Src/stm32h7xx_hal_ltdc.c ****   *
 154:./Libraries/STM32H7xx_HAL_Driver/Src/stm32h7xx_hal_ltdc.c ****   * This software component is licensed by ST under BSD 3-Clause license,
 155:./Libraries/STM32H7xx_HAL_Driver/Src/stm32h7xx_hal_ltdc.c ****   * the "License"; You may not use this file except in compliance with the
 156:./Libraries/STM32H7xx_HAL_Driver/Src/stm32h7xx_hal_ltdc.c ****   * License. You may obtain a copy of the License at:
 157:./Libraries/STM32H7xx_HAL_Driver/Src/stm32h7xx_hal_ltdc.c ****   *                        opensource.org/licenses/BSD-3-Clause
 158:./Libraries/STM32H7xx_HAL_Driver/Src/stm32h7xx_hal_ltdc.c ****   *
 159:./Libraries/STM32H7xx_HAL_Driver/Src/stm32h7xx_hal_ltdc.c ****   ******************************************************************************
 160:./Libraries/STM32H7xx_HAL_Driver/Src/stm32h7xx_hal_ltdc.c ****   */
 161:./Libraries/STM32H7xx_HAL_Driver/Src/stm32h7xx_hal_ltdc.c **** 
 162:./Libraries/STM32H7xx_HAL_Driver/Src/stm32h7xx_hal_ltdc.c **** /* Includes ------------------------------------------------------------------*/
 163:./Libraries/STM32H7xx_HAL_Driver/Src/stm32h7xx_hal_ltdc.c **** #include "stm32h7xx_hal.h"
 164:./Libraries/STM32H7xx_HAL_Driver/Src/stm32h7xx_hal_ltdc.c **** 
 165:./Libraries/STM32H7xx_HAL_Driver/Src/stm32h7xx_hal_ltdc.c **** /** @addtogroup STM32H7xx_HAL_Driver
 166:./Libraries/STM32H7xx_HAL_Driver/Src/stm32h7xx_hal_ltdc.c ****   * @{
 167:./Libraries/STM32H7xx_HAL_Driver/Src/stm32h7xx_hal_ltdc.c ****   */
 168:./Libraries/STM32H7xx_HAL_Driver/Src/stm32h7xx_hal_ltdc.c **** 
 169:./Libraries/STM32H7xx_HAL_Driver/Src/stm32h7xx_hal_ltdc.c **** #ifdef HAL_LTDC_MODULE_ENABLED
 170:./Libraries/STM32H7xx_HAL_Driver/Src/stm32h7xx_hal_ltdc.c **** 
 171:./Libraries/STM32H7xx_HAL_Driver/Src/stm32h7xx_hal_ltdc.c **** #if defined (LTDC)
 172:./Libraries/STM32H7xx_HAL_Driver/Src/stm32h7xx_hal_ltdc.c **** 
 173:./Libraries/STM32H7xx_HAL_Driver/Src/stm32h7xx_hal_ltdc.c **** /** @defgroup LTDC LTDC
 174:./Libraries/STM32H7xx_HAL_Driver/Src/stm32h7xx_hal_ltdc.c ****   * @brief LTDC HAL module driver
 175:./Libraries/STM32H7xx_HAL_Driver/Src/stm32h7xx_hal_ltdc.c ****   * @{
 176:./Libraries/STM32H7xx_HAL_Driver/Src/stm32h7xx_hal_ltdc.c ****   */
 177:./Libraries/STM32H7xx_HAL_Driver/Src/stm32h7xx_hal_ltdc.c **** 
 178:./Libraries/STM32H7xx_HAL_Driver/Src/stm32h7xx_hal_ltdc.c **** 
 179:./Libraries/STM32H7xx_HAL_Driver/Src/stm32h7xx_hal_ltdc.c **** /* Private typedef -----------------------------------------------------------*/
 180:./Libraries/STM32H7xx_HAL_Driver/Src/stm32h7xx_hal_ltdc.c **** /* Private define ------------------------------------------------------------*/
 181:./Libraries/STM32H7xx_HAL_Driver/Src/stm32h7xx_hal_ltdc.c **** /* Private macro -------------------------------------------------------------*/
 182:./Libraries/STM32H7xx_HAL_Driver/Src/stm32h7xx_hal_ltdc.c **** /* Private variables ---------------------------------------------------------*/
 183:./Libraries/STM32H7xx_HAL_Driver/Src/stm32h7xx_hal_ltdc.c **** /* Private function prototypes -----------------------------------------------*/
 184:./Libraries/STM32H7xx_HAL_Driver/Src/stm32h7xx_hal_ltdc.c **** static void LTDC_SetConfig(LTDC_HandleTypeDef *hltdc, LTDC_LayerCfgTypeDef *pLayerCfg, uint32_t Lay
 185:./Libraries/STM32H7xx_HAL_Driver/Src/stm32h7xx_hal_ltdc.c **** /* Private functions ---------------------------------------------------------*/
 186:./Libraries/STM32H7xx_HAL_Driver/Src/stm32h7xx_hal_ltdc.c **** 
 187:./Libraries/STM32H7xx_HAL_Driver/Src/stm32h7xx_hal_ltdc.c **** /** @defgroup LTDC_Exported_Functions LTDC Exported Functions
 188:./Libraries/STM32H7xx_HAL_Driver/Src/stm32h7xx_hal_ltdc.c ****   * @{
 189:./Libraries/STM32H7xx_HAL_Driver/Src/stm32h7xx_hal_ltdc.c ****   */
 190:./Libraries/STM32H7xx_HAL_Driver/Src/stm32h7xx_hal_ltdc.c **** 
 191:./Libraries/STM32H7xx_HAL_Driver/Src/stm32h7xx_hal_ltdc.c **** /** @defgroup LTDC_Exported_Functions_Group1 Initialization and Configuration functions
 192:./Libraries/STM32H7xx_HAL_Driver/Src/stm32h7xx_hal_ltdc.c ****   *  @brief   Initialization and Configuration functions
 193:./Libraries/STM32H7xx_HAL_Driver/Src/stm32h7xx_hal_ltdc.c ****   *
 194:./Libraries/STM32H7xx_HAL_Driver/Src/stm32h7xx_hal_ltdc.c **** @verbatim
 195:./Libraries/STM32H7xx_HAL_Driver/Src/stm32h7xx_hal_ltdc.c ****  ===============================================================================
 196:./Libraries/STM32H7xx_HAL_Driver/Src/stm32h7xx_hal_ltdc.c ****                 ##### Initialization and Configuration functions #####
 197:./Libraries/STM32H7xx_HAL_Driver/Src/stm32h7xx_hal_ltdc.c ****  ===============================================================================
 198:./Libraries/STM32H7xx_HAL_Driver/Src/stm32h7xx_hal_ltdc.c ****     [..]  This section provides functions allowing to:
 199:./Libraries/STM32H7xx_HAL_Driver/Src/stm32h7xx_hal_ltdc.c ****       (+) Initialize and configure the LTDC
 200:./Libraries/STM32H7xx_HAL_Driver/Src/stm32h7xx_hal_ltdc.c ****       (+) De-initialize the LTDC
 201:./Libraries/STM32H7xx_HAL_Driver/Src/stm32h7xx_hal_ltdc.c **** 
 202:./Libraries/STM32H7xx_HAL_Driver/Src/stm32h7xx_hal_ltdc.c **** @endverbatim
ARM GAS  /tmp/cc7azozz.s 			page 5


 203:./Libraries/STM32H7xx_HAL_Driver/Src/stm32h7xx_hal_ltdc.c ****   * @{
 204:./Libraries/STM32H7xx_HAL_Driver/Src/stm32h7xx_hal_ltdc.c ****   */
 205:./Libraries/STM32H7xx_HAL_Driver/Src/stm32h7xx_hal_ltdc.c **** 
 206:./Libraries/STM32H7xx_HAL_Driver/Src/stm32h7xx_hal_ltdc.c **** /**
 207:./Libraries/STM32H7xx_HAL_Driver/Src/stm32h7xx_hal_ltdc.c ****   * @brief  Initialize the LTDC according to the specified parameters in the LTDC_InitTypeDef.
 208:./Libraries/STM32H7xx_HAL_Driver/Src/stm32h7xx_hal_ltdc.c ****   * @param  hltdc  pointer to a LTDC_HandleTypeDef structure that contains
 209:./Libraries/STM32H7xx_HAL_Driver/Src/stm32h7xx_hal_ltdc.c ****   *                the configuration information for the LTDC.
 210:./Libraries/STM32H7xx_HAL_Driver/Src/stm32h7xx_hal_ltdc.c ****   * @retval HAL status
 211:./Libraries/STM32H7xx_HAL_Driver/Src/stm32h7xx_hal_ltdc.c ****   */
 212:./Libraries/STM32H7xx_HAL_Driver/Src/stm32h7xx_hal_ltdc.c **** HAL_StatusTypeDef HAL_LTDC_Init(LTDC_HandleTypeDef *hltdc)
 213:./Libraries/STM32H7xx_HAL_Driver/Src/stm32h7xx_hal_ltdc.c **** {
  28              		.loc 1 213 1
  29              		.cfi_startproc
  30              		@ args = 0, pretend = 0, frame = 16
  31              		@ frame_needed = 1, uses_anonymous_args = 0
  32 0000 80B5     		push	{r7, lr}
  33              	.LCFI0:
  34              		.cfi_def_cfa_offset 8
  35              		.cfi_offset 7, -8
  36              		.cfi_offset 14, -4
  37 0002 84B0     		sub	sp, sp, #16
  38              	.LCFI1:
  39              		.cfi_def_cfa_offset 24
  40 0004 00AF     		add	r7, sp, #0
  41              	.LCFI2:
  42              		.cfi_def_cfa_register 7
  43 0006 7860     		str	r0, [r7, #4]
 214:./Libraries/STM32H7xx_HAL_Driver/Src/stm32h7xx_hal_ltdc.c ****   uint32_t tmp, tmp1;
 215:./Libraries/STM32H7xx_HAL_Driver/Src/stm32h7xx_hal_ltdc.c **** 
 216:./Libraries/STM32H7xx_HAL_Driver/Src/stm32h7xx_hal_ltdc.c ****   /* Check the LTDC peripheral state */
 217:./Libraries/STM32H7xx_HAL_Driver/Src/stm32h7xx_hal_ltdc.c ****   if (hltdc == NULL)
  44              		.loc 1 217 6
  45 0008 7B68     		ldr	r3, [r7, #4]
  46 000a 002B     		cmp	r3, #0
  47 000c 01D1     		bne	.L2
 218:./Libraries/STM32H7xx_HAL_Driver/Src/stm32h7xx_hal_ltdc.c ****   {
 219:./Libraries/STM32H7xx_HAL_Driver/Src/stm32h7xx_hal_ltdc.c ****     return HAL_ERROR;
  48              		.loc 1 219 12
  49 000e 0123     		movs	r3, #1
  50 0010 BFE0     		b	.L3
  51              	.L2:
 220:./Libraries/STM32H7xx_HAL_Driver/Src/stm32h7xx_hal_ltdc.c ****   }
 221:./Libraries/STM32H7xx_HAL_Driver/Src/stm32h7xx_hal_ltdc.c **** 
 222:./Libraries/STM32H7xx_HAL_Driver/Src/stm32h7xx_hal_ltdc.c ****   /* Check function parameters */
 223:./Libraries/STM32H7xx_HAL_Driver/Src/stm32h7xx_hal_ltdc.c ****   assert_param(IS_LTDC_ALL_INSTANCE(hltdc->Instance));
 224:./Libraries/STM32H7xx_HAL_Driver/Src/stm32h7xx_hal_ltdc.c ****   assert_param(IS_LTDC_HSYNC(hltdc->Init.HorizontalSync));
 225:./Libraries/STM32H7xx_HAL_Driver/Src/stm32h7xx_hal_ltdc.c ****   assert_param(IS_LTDC_VSYNC(hltdc->Init.VerticalSync));
 226:./Libraries/STM32H7xx_HAL_Driver/Src/stm32h7xx_hal_ltdc.c ****   assert_param(IS_LTDC_AHBP(hltdc->Init.AccumulatedHBP));
 227:./Libraries/STM32H7xx_HAL_Driver/Src/stm32h7xx_hal_ltdc.c ****   assert_param(IS_LTDC_AVBP(hltdc->Init.AccumulatedVBP));
 228:./Libraries/STM32H7xx_HAL_Driver/Src/stm32h7xx_hal_ltdc.c ****   assert_param(IS_LTDC_AAH(hltdc->Init.AccumulatedActiveH));
 229:./Libraries/STM32H7xx_HAL_Driver/Src/stm32h7xx_hal_ltdc.c ****   assert_param(IS_LTDC_AAW(hltdc->Init.AccumulatedActiveW));
 230:./Libraries/STM32H7xx_HAL_Driver/Src/stm32h7xx_hal_ltdc.c ****   assert_param(IS_LTDC_TOTALH(hltdc->Init.TotalHeigh));
 231:./Libraries/STM32H7xx_HAL_Driver/Src/stm32h7xx_hal_ltdc.c ****   assert_param(IS_LTDC_TOTALW(hltdc->Init.TotalWidth));
 232:./Libraries/STM32H7xx_HAL_Driver/Src/stm32h7xx_hal_ltdc.c ****   assert_param(IS_LTDC_HSPOL(hltdc->Init.HSPolarity));
 233:./Libraries/STM32H7xx_HAL_Driver/Src/stm32h7xx_hal_ltdc.c ****   assert_param(IS_LTDC_VSPOL(hltdc->Init.VSPolarity));
 234:./Libraries/STM32H7xx_HAL_Driver/Src/stm32h7xx_hal_ltdc.c ****   assert_param(IS_LTDC_DEPOL(hltdc->Init.DEPolarity));
 235:./Libraries/STM32H7xx_HAL_Driver/Src/stm32h7xx_hal_ltdc.c ****   assert_param(IS_LTDC_PCPOL(hltdc->Init.PCPolarity));
ARM GAS  /tmp/cc7azozz.s 			page 6


 236:./Libraries/STM32H7xx_HAL_Driver/Src/stm32h7xx_hal_ltdc.c **** 
 237:./Libraries/STM32H7xx_HAL_Driver/Src/stm32h7xx_hal_ltdc.c **** #if (USE_HAL_LTDC_REGISTER_CALLBACKS == 1)
 238:./Libraries/STM32H7xx_HAL_Driver/Src/stm32h7xx_hal_ltdc.c ****   if (hltdc->State == HAL_LTDC_STATE_RESET)
 239:./Libraries/STM32H7xx_HAL_Driver/Src/stm32h7xx_hal_ltdc.c ****   {
 240:./Libraries/STM32H7xx_HAL_Driver/Src/stm32h7xx_hal_ltdc.c ****     /* Allocate lock resource and initialize it */
 241:./Libraries/STM32H7xx_HAL_Driver/Src/stm32h7xx_hal_ltdc.c ****     hltdc->Lock = HAL_UNLOCKED;
 242:./Libraries/STM32H7xx_HAL_Driver/Src/stm32h7xx_hal_ltdc.c **** 
 243:./Libraries/STM32H7xx_HAL_Driver/Src/stm32h7xx_hal_ltdc.c ****     /* Reset the LTDC callback to the legacy weak callbacks */
 244:./Libraries/STM32H7xx_HAL_Driver/Src/stm32h7xx_hal_ltdc.c ****     hltdc->LineEventCallback   = HAL_LTDC_LineEventCallback;    /* Legacy weak LineEventCallback   
 245:./Libraries/STM32H7xx_HAL_Driver/Src/stm32h7xx_hal_ltdc.c ****     hltdc->ReloadEventCallback = HAL_LTDC_ReloadEventCallback;  /* Legacy weak ReloadEventCallback 
 246:./Libraries/STM32H7xx_HAL_Driver/Src/stm32h7xx_hal_ltdc.c ****     hltdc->ErrorCallback       = HAL_LTDC_ErrorCallback;        /* Legacy weak ErrorCallback       
 247:./Libraries/STM32H7xx_HAL_Driver/Src/stm32h7xx_hal_ltdc.c **** 
 248:./Libraries/STM32H7xx_HAL_Driver/Src/stm32h7xx_hal_ltdc.c ****     if (hltdc->MspInitCallback == NULL)
 249:./Libraries/STM32H7xx_HAL_Driver/Src/stm32h7xx_hal_ltdc.c ****     {
 250:./Libraries/STM32H7xx_HAL_Driver/Src/stm32h7xx_hal_ltdc.c ****       hltdc->MspInitCallback = HAL_LTDC_MspInit;
 251:./Libraries/STM32H7xx_HAL_Driver/Src/stm32h7xx_hal_ltdc.c ****     }
 252:./Libraries/STM32H7xx_HAL_Driver/Src/stm32h7xx_hal_ltdc.c ****     /* Init the low level hardware */
 253:./Libraries/STM32H7xx_HAL_Driver/Src/stm32h7xx_hal_ltdc.c ****     hltdc->MspInitCallback(hltdc);
 254:./Libraries/STM32H7xx_HAL_Driver/Src/stm32h7xx_hal_ltdc.c ****   }
 255:./Libraries/STM32H7xx_HAL_Driver/Src/stm32h7xx_hal_ltdc.c **** #else
 256:./Libraries/STM32H7xx_HAL_Driver/Src/stm32h7xx_hal_ltdc.c ****   if (hltdc->State == HAL_LTDC_STATE_RESET)
  52              		.loc 1 256 12
  53 0012 7B68     		ldr	r3, [r7, #4]
  54 0014 93F8A130 		ldrb	r3, [r3, #161]
  55 0018 DBB2     		uxtb	r3, r3
  56              		.loc 1 256 6
  57 001a 002B     		cmp	r3, #0
  58 001c 06D1     		bne	.L4
 257:./Libraries/STM32H7xx_HAL_Driver/Src/stm32h7xx_hal_ltdc.c ****   {
 258:./Libraries/STM32H7xx_HAL_Driver/Src/stm32h7xx_hal_ltdc.c ****     /* Allocate lock resource and initialize it */
 259:./Libraries/STM32H7xx_HAL_Driver/Src/stm32h7xx_hal_ltdc.c ****     hltdc->Lock = HAL_UNLOCKED;
  59              		.loc 1 259 17
  60 001e 7B68     		ldr	r3, [r7, #4]
  61 0020 0022     		movs	r2, #0
  62 0022 83F8A020 		strb	r2, [r3, #160]
 260:./Libraries/STM32H7xx_HAL_Driver/Src/stm32h7xx_hal_ltdc.c ****     /* Init the low level hardware */
 261:./Libraries/STM32H7xx_HAL_Driver/Src/stm32h7xx_hal_ltdc.c ****     HAL_LTDC_MspInit(hltdc);
  63              		.loc 1 261 5
  64 0026 7868     		ldr	r0, [r7, #4]
  65 0028 FFF7FEFF 		bl	HAL_LTDC_MspInit
  66              	.L4:
 262:./Libraries/STM32H7xx_HAL_Driver/Src/stm32h7xx_hal_ltdc.c ****   }
 263:./Libraries/STM32H7xx_HAL_Driver/Src/stm32h7xx_hal_ltdc.c **** #endif /* USE_HAL_LTDC_REGISTER_CALLBACKS */
 264:./Libraries/STM32H7xx_HAL_Driver/Src/stm32h7xx_hal_ltdc.c **** 
 265:./Libraries/STM32H7xx_HAL_Driver/Src/stm32h7xx_hal_ltdc.c ****   /* Change LTDC peripheral state */
 266:./Libraries/STM32H7xx_HAL_Driver/Src/stm32h7xx_hal_ltdc.c ****   hltdc->State = HAL_LTDC_STATE_BUSY;
  67              		.loc 1 266 16
  68 002c 7B68     		ldr	r3, [r7, #4]
  69 002e 0222     		movs	r2, #2
  70 0030 83F8A120 		strb	r2, [r3, #161]
 267:./Libraries/STM32H7xx_HAL_Driver/Src/stm32h7xx_hal_ltdc.c **** 
 268:./Libraries/STM32H7xx_HAL_Driver/Src/stm32h7xx_hal_ltdc.c ****   /* Configure the HS, VS, DE and PC polarity */
 269:./Libraries/STM32H7xx_HAL_Driver/Src/stm32h7xx_hal_ltdc.c ****   hltdc->Instance->GCR &= ~(LTDC_GCR_HSPOL | LTDC_GCR_VSPOL | LTDC_GCR_DEPOL | LTDC_GCR_PCPOL);
  71              		.loc 1 269 8
  72 0034 7B68     		ldr	r3, [r7, #4]
  73 0036 1B68     		ldr	r3, [r3]
  74              		.loc 1 269 24
ARM GAS  /tmp/cc7azozz.s 			page 7


  75 0038 9A69     		ldr	r2, [r3, #24]
  76              		.loc 1 269 8
  77 003a 7B68     		ldr	r3, [r7, #4]
  78 003c 1B68     		ldr	r3, [r3]
  79              		.loc 1 269 24
  80 003e 22F07042 		bic	r2, r2, #-268435456
  81 0042 9A61     		str	r2, [r3, #24]
 270:./Libraries/STM32H7xx_HAL_Driver/Src/stm32h7xx_hal_ltdc.c ****   hltdc->Instance->GCR |= (uint32_t)(hltdc->Init.HSPolarity | hltdc->Init.VSPolarity | \
  82              		.loc 1 270 8
  83 0044 7B68     		ldr	r3, [r7, #4]
  84 0046 1B68     		ldr	r3, [r3]
  85              		.loc 1 270 24
  86 0048 9969     		ldr	r1, [r3, #24]
  87              		.loc 1 270 49
  88 004a 7B68     		ldr	r3, [r7, #4]
  89 004c 5A68     		ldr	r2, [r3, #4]
  90              		.loc 1 270 74
  91 004e 7B68     		ldr	r3, [r7, #4]
  92 0050 9B68     		ldr	r3, [r3, #8]
  93              		.loc 1 270 61
  94 0052 1A43     		orrs	r2, r2, r3
 271:./Libraries/STM32H7xx_HAL_Driver/Src/stm32h7xx_hal_ltdc.c ****                                      hltdc->Init.DEPolarity | hltdc->Init.PCPolarity);
  95              		.loc 1 271 49
  96 0054 7B68     		ldr	r3, [r7, #4]
  97 0056 DB68     		ldr	r3, [r3, #12]
 270:./Libraries/STM32H7xx_HAL_Driver/Src/stm32h7xx_hal_ltdc.c ****   hltdc->Instance->GCR |= (uint32_t)(hltdc->Init.HSPolarity | hltdc->Init.VSPolarity | \
  98              		.loc 1 270 86
  99 0058 1A43     		orrs	r2, r2, r3
 100              		.loc 1 271 74
 101 005a 7B68     		ldr	r3, [r7, #4]
 102 005c 1B69     		ldr	r3, [r3, #16]
 103              		.loc 1 271 61
 104 005e 1A43     		orrs	r2, r2, r3
 270:./Libraries/STM32H7xx_HAL_Driver/Src/stm32h7xx_hal_ltdc.c ****   hltdc->Instance->GCR |= (uint32_t)(hltdc->Init.HSPolarity | hltdc->Init.VSPolarity | \
 105              		.loc 1 270 8
 106 0060 7B68     		ldr	r3, [r7, #4]
 107 0062 1B68     		ldr	r3, [r3]
 270:./Libraries/STM32H7xx_HAL_Driver/Src/stm32h7xx_hal_ltdc.c ****   hltdc->Instance->GCR |= (uint32_t)(hltdc->Init.HSPolarity | hltdc->Init.VSPolarity | \
 108              		.loc 1 270 24
 109 0064 0A43     		orrs	r2, r2, r1
 110 0066 9A61     		str	r2, [r3, #24]
 272:./Libraries/STM32H7xx_HAL_Driver/Src/stm32h7xx_hal_ltdc.c **** 
 273:./Libraries/STM32H7xx_HAL_Driver/Src/stm32h7xx_hal_ltdc.c ****   /* Set Synchronization size */
 274:./Libraries/STM32H7xx_HAL_Driver/Src/stm32h7xx_hal_ltdc.c ****   hltdc->Instance->SSCR &= ~(LTDC_SSCR_VSH | LTDC_SSCR_HSW);
 111              		.loc 1 274 8
 112 0068 7B68     		ldr	r3, [r7, #4]
 113 006a 1B68     		ldr	r3, [r3]
 114              		.loc 1 274 25
 115 006c 9968     		ldr	r1, [r3, #8]
 116              		.loc 1 274 8
 117 006e 7B68     		ldr	r3, [r7, #4]
 118 0070 1A68     		ldr	r2, [r3]
 119              		.loc 1 274 25
 120 0072 4A4B     		ldr	r3, .L5
 121 0074 0B40     		ands	r3, r3, r1
 122 0076 9360     		str	r3, [r2, #8]
 275:./Libraries/STM32H7xx_HAL_Driver/Src/stm32h7xx_hal_ltdc.c ****   tmp = (hltdc->Init.HorizontalSync << 16U);
ARM GAS  /tmp/cc7azozz.s 			page 8


 123              		.loc 1 275 21
 124 0078 7B68     		ldr	r3, [r7, #4]
 125 007a 5B69     		ldr	r3, [r3, #20]
 126              		.loc 1 275 7
 127 007c 1B04     		lsls	r3, r3, #16
 128 007e FB60     		str	r3, [r7, #12]
 276:./Libraries/STM32H7xx_HAL_Driver/Src/stm32h7xx_hal_ltdc.c ****   hltdc->Instance->SSCR |= (tmp | hltdc->Init.VerticalSync);
 129              		.loc 1 276 8
 130 0080 7B68     		ldr	r3, [r7, #4]
 131 0082 1B68     		ldr	r3, [r3]
 132              		.loc 1 276 25
 133 0084 9968     		ldr	r1, [r3, #8]
 134              		.loc 1 276 46
 135 0086 7B68     		ldr	r3, [r7, #4]
 136 0088 9A69     		ldr	r2, [r3, #24]
 137              		.loc 1 276 33
 138 008a FB68     		ldr	r3, [r7, #12]
 139 008c 1A43     		orrs	r2, r2, r3
 140              		.loc 1 276 8
 141 008e 7B68     		ldr	r3, [r7, #4]
 142 0090 1B68     		ldr	r3, [r3]
 143              		.loc 1 276 25
 144 0092 0A43     		orrs	r2, r2, r1
 145 0094 9A60     		str	r2, [r3, #8]
 277:./Libraries/STM32H7xx_HAL_Driver/Src/stm32h7xx_hal_ltdc.c **** 
 278:./Libraries/STM32H7xx_HAL_Driver/Src/stm32h7xx_hal_ltdc.c ****   /* Set Accumulated Back porch */
 279:./Libraries/STM32H7xx_HAL_Driver/Src/stm32h7xx_hal_ltdc.c ****   hltdc->Instance->BPCR &= ~(LTDC_BPCR_AVBP | LTDC_BPCR_AHBP);
 146              		.loc 1 279 8
 147 0096 7B68     		ldr	r3, [r7, #4]
 148 0098 1B68     		ldr	r3, [r3]
 149              		.loc 1 279 25
 150 009a D968     		ldr	r1, [r3, #12]
 151              		.loc 1 279 8
 152 009c 7B68     		ldr	r3, [r7, #4]
 153 009e 1A68     		ldr	r2, [r3]
 154              		.loc 1 279 25
 155 00a0 3E4B     		ldr	r3, .L5
 156 00a2 0B40     		ands	r3, r3, r1
 157 00a4 D360     		str	r3, [r2, #12]
 280:./Libraries/STM32H7xx_HAL_Driver/Src/stm32h7xx_hal_ltdc.c ****   tmp = (hltdc->Init.AccumulatedHBP << 16U);
 158              		.loc 1 280 21
 159 00a6 7B68     		ldr	r3, [r7, #4]
 160 00a8 DB69     		ldr	r3, [r3, #28]
 161              		.loc 1 280 7
 162 00aa 1B04     		lsls	r3, r3, #16
 163 00ac FB60     		str	r3, [r7, #12]
 281:./Libraries/STM32H7xx_HAL_Driver/Src/stm32h7xx_hal_ltdc.c ****   hltdc->Instance->BPCR |= (tmp | hltdc->Init.AccumulatedVBP);
 164              		.loc 1 281 8
 165 00ae 7B68     		ldr	r3, [r7, #4]
 166 00b0 1B68     		ldr	r3, [r3]
 167              		.loc 1 281 25
 168 00b2 D968     		ldr	r1, [r3, #12]
 169              		.loc 1 281 46
 170 00b4 7B68     		ldr	r3, [r7, #4]
 171 00b6 1A6A     		ldr	r2, [r3, #32]
 172              		.loc 1 281 33
 173 00b8 FB68     		ldr	r3, [r7, #12]
ARM GAS  /tmp/cc7azozz.s 			page 9


 174 00ba 1A43     		orrs	r2, r2, r3
 175              		.loc 1 281 8
 176 00bc 7B68     		ldr	r3, [r7, #4]
 177 00be 1B68     		ldr	r3, [r3]
 178              		.loc 1 281 25
 179 00c0 0A43     		orrs	r2, r2, r1
 180 00c2 DA60     		str	r2, [r3, #12]
 282:./Libraries/STM32H7xx_HAL_Driver/Src/stm32h7xx_hal_ltdc.c **** 
 283:./Libraries/STM32H7xx_HAL_Driver/Src/stm32h7xx_hal_ltdc.c ****   /* Set Accumulated Active Width */
 284:./Libraries/STM32H7xx_HAL_Driver/Src/stm32h7xx_hal_ltdc.c ****   hltdc->Instance->AWCR &= ~(LTDC_AWCR_AAH | LTDC_AWCR_AAW);
 181              		.loc 1 284 8
 182 00c4 7B68     		ldr	r3, [r7, #4]
 183 00c6 1B68     		ldr	r3, [r3]
 184              		.loc 1 284 25
 185 00c8 1969     		ldr	r1, [r3, #16]
 186              		.loc 1 284 8
 187 00ca 7B68     		ldr	r3, [r7, #4]
 188 00cc 1A68     		ldr	r2, [r3]
 189              		.loc 1 284 25
 190 00ce 334B     		ldr	r3, .L5
 191 00d0 0B40     		ands	r3, r3, r1
 192 00d2 1361     		str	r3, [r2, #16]
 285:./Libraries/STM32H7xx_HAL_Driver/Src/stm32h7xx_hal_ltdc.c ****   tmp = (hltdc->Init.AccumulatedActiveW << 16U);
 193              		.loc 1 285 21
 194 00d4 7B68     		ldr	r3, [r7, #4]
 195 00d6 5B6A     		ldr	r3, [r3, #36]
 196              		.loc 1 285 7
 197 00d8 1B04     		lsls	r3, r3, #16
 198 00da FB60     		str	r3, [r7, #12]
 286:./Libraries/STM32H7xx_HAL_Driver/Src/stm32h7xx_hal_ltdc.c ****   hltdc->Instance->AWCR |= (tmp | hltdc->Init.AccumulatedActiveH);
 199              		.loc 1 286 8
 200 00dc 7B68     		ldr	r3, [r7, #4]
 201 00de 1B68     		ldr	r3, [r3]
 202              		.loc 1 286 25
 203 00e0 1969     		ldr	r1, [r3, #16]
 204              		.loc 1 286 46
 205 00e2 7B68     		ldr	r3, [r7, #4]
 206 00e4 9A6A     		ldr	r2, [r3, #40]
 207              		.loc 1 286 33
 208 00e6 FB68     		ldr	r3, [r7, #12]
 209 00e8 1A43     		orrs	r2, r2, r3
 210              		.loc 1 286 8
 211 00ea 7B68     		ldr	r3, [r7, #4]
 212 00ec 1B68     		ldr	r3, [r3]
 213              		.loc 1 286 25
 214 00ee 0A43     		orrs	r2, r2, r1
 215 00f0 1A61     		str	r2, [r3, #16]
 287:./Libraries/STM32H7xx_HAL_Driver/Src/stm32h7xx_hal_ltdc.c **** 
 288:./Libraries/STM32H7xx_HAL_Driver/Src/stm32h7xx_hal_ltdc.c ****   /* Set Total Width */
 289:./Libraries/STM32H7xx_HAL_Driver/Src/stm32h7xx_hal_ltdc.c ****   hltdc->Instance->TWCR &= ~(LTDC_TWCR_TOTALH | LTDC_TWCR_TOTALW);
 216              		.loc 1 289 8
 217 00f2 7B68     		ldr	r3, [r7, #4]
 218 00f4 1B68     		ldr	r3, [r3]
 219              		.loc 1 289 25
 220 00f6 5969     		ldr	r1, [r3, #20]
 221              		.loc 1 289 8
 222 00f8 7B68     		ldr	r3, [r7, #4]
ARM GAS  /tmp/cc7azozz.s 			page 10


 223 00fa 1A68     		ldr	r2, [r3]
 224              		.loc 1 289 25
 225 00fc 274B     		ldr	r3, .L5
 226 00fe 0B40     		ands	r3, r3, r1
 227 0100 5361     		str	r3, [r2, #20]
 290:./Libraries/STM32H7xx_HAL_Driver/Src/stm32h7xx_hal_ltdc.c ****   tmp = (hltdc->Init.TotalWidth << 16U);
 228              		.loc 1 290 21
 229 0102 7B68     		ldr	r3, [r7, #4]
 230 0104 DB6A     		ldr	r3, [r3, #44]
 231              		.loc 1 290 7
 232 0106 1B04     		lsls	r3, r3, #16
 233 0108 FB60     		str	r3, [r7, #12]
 291:./Libraries/STM32H7xx_HAL_Driver/Src/stm32h7xx_hal_ltdc.c ****   hltdc->Instance->TWCR |= (tmp | hltdc->Init.TotalHeigh);
 234              		.loc 1 291 8
 235 010a 7B68     		ldr	r3, [r7, #4]
 236 010c 1B68     		ldr	r3, [r3]
 237              		.loc 1 291 25
 238 010e 5969     		ldr	r1, [r3, #20]
 239              		.loc 1 291 46
 240 0110 7B68     		ldr	r3, [r7, #4]
 241 0112 1A6B     		ldr	r2, [r3, #48]
 242              		.loc 1 291 33
 243 0114 FB68     		ldr	r3, [r7, #12]
 244 0116 1A43     		orrs	r2, r2, r3
 245              		.loc 1 291 8
 246 0118 7B68     		ldr	r3, [r7, #4]
 247 011a 1B68     		ldr	r3, [r3]
 248              		.loc 1 291 25
 249 011c 0A43     		orrs	r2, r2, r1
 250 011e 5A61     		str	r2, [r3, #20]
 292:./Libraries/STM32H7xx_HAL_Driver/Src/stm32h7xx_hal_ltdc.c **** 
 293:./Libraries/STM32H7xx_HAL_Driver/Src/stm32h7xx_hal_ltdc.c ****   /* Set the background color value */
 294:./Libraries/STM32H7xx_HAL_Driver/Src/stm32h7xx_hal_ltdc.c ****   tmp = ((uint32_t)(hltdc->Init.Backcolor.Green) << 8U);
 251              		.loc 1 294 42
 252 0120 7B68     		ldr	r3, [r7, #4]
 253 0122 93F83530 		ldrb	r3, [r3, #53]	@ zero_extendqisi2
 254              		.loc 1 294 7
 255 0126 1B02     		lsls	r3, r3, #8
 256 0128 FB60     		str	r3, [r7, #12]
 295:./Libraries/STM32H7xx_HAL_Driver/Src/stm32h7xx_hal_ltdc.c ****   tmp1 = ((uint32_t)(hltdc->Init.Backcolor.Red) << 16U);
 257              		.loc 1 295 43
 258 012a 7B68     		ldr	r3, [r7, #4]
 259 012c 93F83630 		ldrb	r3, [r3, #54]	@ zero_extendqisi2
 260              		.loc 1 295 8
 261 0130 1B04     		lsls	r3, r3, #16
 262 0132 BB60     		str	r3, [r7, #8]
 296:./Libraries/STM32H7xx_HAL_Driver/Src/stm32h7xx_hal_ltdc.c ****   hltdc->Instance->BCCR &= ~(LTDC_BCCR_BCBLUE | LTDC_BCCR_BCGREEN | LTDC_BCCR_BCRED);
 263              		.loc 1 296 8
 264 0134 7B68     		ldr	r3, [r7, #4]
 265 0136 1B68     		ldr	r3, [r3]
 266              		.loc 1 296 25
 267 0138 DA6A     		ldr	r2, [r3, #44]
 268              		.loc 1 296 8
 269 013a 7B68     		ldr	r3, [r7, #4]
 270 013c 1B68     		ldr	r3, [r3]
 271              		.loc 1 296 25
 272 013e 02F07F42 		and	r2, r2, #-16777216
ARM GAS  /tmp/cc7azozz.s 			page 11


 273 0142 DA62     		str	r2, [r3, #44]
 297:./Libraries/STM32H7xx_HAL_Driver/Src/stm32h7xx_hal_ltdc.c ****   hltdc->Instance->BCCR |= (tmp1 | tmp | hltdc->Init.Backcolor.Blue);
 274              		.loc 1 297 8
 275 0144 7B68     		ldr	r3, [r7, #4]
 276 0146 1B68     		ldr	r3, [r3]
 277              		.loc 1 297 25
 278 0148 D96A     		ldr	r1, [r3, #44]
 279              		.loc 1 297 34
 280 014a BA68     		ldr	r2, [r7, #8]
 281 014c FB68     		ldr	r3, [r7, #12]
 282 014e 1343     		orrs	r3, r3, r2
 283              		.loc 1 297 63
 284 0150 7A68     		ldr	r2, [r7, #4]
 285 0152 92F83420 		ldrb	r2, [r2, #52]	@ zero_extendqisi2
 286              		.loc 1 297 40
 287 0156 1A43     		orrs	r2, r2, r3
 288              		.loc 1 297 8
 289 0158 7B68     		ldr	r3, [r7, #4]
 290 015a 1B68     		ldr	r3, [r3]
 291              		.loc 1 297 25
 292 015c 0A43     		orrs	r2, r2, r1
 293 015e DA62     		str	r2, [r3, #44]
 298:./Libraries/STM32H7xx_HAL_Driver/Src/stm32h7xx_hal_ltdc.c **** 
 299:./Libraries/STM32H7xx_HAL_Driver/Src/stm32h7xx_hal_ltdc.c ****   /* Enable the Transfer Error and FIFO underrun interrupts */
 300:./Libraries/STM32H7xx_HAL_Driver/Src/stm32h7xx_hal_ltdc.c ****   __HAL_LTDC_ENABLE_IT(hltdc, LTDC_IT_TE | LTDC_IT_FU);
 294              		.loc 1 300 3
 295 0160 7B68     		ldr	r3, [r7, #4]
 296 0162 1B68     		ldr	r3, [r3]
 297 0164 5A6B     		ldr	r2, [r3, #52]
 298 0166 7B68     		ldr	r3, [r7, #4]
 299 0168 1B68     		ldr	r3, [r3]
 300 016a 42F00602 		orr	r2, r2, #6
 301 016e 5A63     		str	r2, [r3, #52]
 301:./Libraries/STM32H7xx_HAL_Driver/Src/stm32h7xx_hal_ltdc.c **** 
 302:./Libraries/STM32H7xx_HAL_Driver/Src/stm32h7xx_hal_ltdc.c ****   /* Enable LTDC by setting LTDCEN bit */
 303:./Libraries/STM32H7xx_HAL_Driver/Src/stm32h7xx_hal_ltdc.c ****   __HAL_LTDC_ENABLE(hltdc);
 302              		.loc 1 303 3
 303 0170 7B68     		ldr	r3, [r7, #4]
 304 0172 1B68     		ldr	r3, [r3]
 305 0174 9A69     		ldr	r2, [r3, #24]
 306 0176 7B68     		ldr	r3, [r7, #4]
 307 0178 1B68     		ldr	r3, [r3]
 308 017a 42F00102 		orr	r2, r2, #1
 309 017e 9A61     		str	r2, [r3, #24]
 304:./Libraries/STM32H7xx_HAL_Driver/Src/stm32h7xx_hal_ltdc.c **** 
 305:./Libraries/STM32H7xx_HAL_Driver/Src/stm32h7xx_hal_ltdc.c ****   /* Initialize the error code */
 306:./Libraries/STM32H7xx_HAL_Driver/Src/stm32h7xx_hal_ltdc.c ****   hltdc->ErrorCode = HAL_LTDC_ERROR_NONE;
 310              		.loc 1 306 20
 311 0180 7B68     		ldr	r3, [r7, #4]
 312 0182 0022     		movs	r2, #0
 313 0184 C3F8A420 		str	r2, [r3, #164]
 307:./Libraries/STM32H7xx_HAL_Driver/Src/stm32h7xx_hal_ltdc.c **** 
 308:./Libraries/STM32H7xx_HAL_Driver/Src/stm32h7xx_hal_ltdc.c ****   /* Initialize the LTDC state*/
 309:./Libraries/STM32H7xx_HAL_Driver/Src/stm32h7xx_hal_ltdc.c ****   hltdc->State = HAL_LTDC_STATE_READY;
 314              		.loc 1 309 16
 315 0188 7B68     		ldr	r3, [r7, #4]
 316 018a 0122     		movs	r2, #1
ARM GAS  /tmp/cc7azozz.s 			page 12


 317 018c 83F8A120 		strb	r2, [r3, #161]
 310:./Libraries/STM32H7xx_HAL_Driver/Src/stm32h7xx_hal_ltdc.c **** 
 311:./Libraries/STM32H7xx_HAL_Driver/Src/stm32h7xx_hal_ltdc.c ****   return HAL_OK;
 318              		.loc 1 311 10
 319 0190 0023     		movs	r3, #0
 320              	.L3:
 312:./Libraries/STM32H7xx_HAL_Driver/Src/stm32h7xx_hal_ltdc.c **** }
 321              		.loc 1 312 1
 322 0192 1846     		mov	r0, r3
 323 0194 1037     		adds	r7, r7, #16
 324              	.LCFI3:
 325              		.cfi_def_cfa_offset 8
 326 0196 BD46     		mov	sp, r7
 327              	.LCFI4:
 328              		.cfi_def_cfa_register 13
 329              		@ sp needed
 330 0198 80BD     		pop	{r7, pc}
 331              	.L6:
 332 019a 00BF     		.align	2
 333              	.L5:
 334 019c 00F800F0 		.word	-268371968
 335              		.cfi_endproc
 336              	.LFE331:
 338              		.section	.text.HAL_LTDC_DeInit,"ax",%progbits
 339              		.align	1
 340              		.global	HAL_LTDC_DeInit
 341              		.syntax unified
 342              		.thumb
 343              		.thumb_func
 344              		.fpu fpv5-d16
 346              	HAL_LTDC_DeInit:
 347              	.LFB332:
 313:./Libraries/STM32H7xx_HAL_Driver/Src/stm32h7xx_hal_ltdc.c **** 
 314:./Libraries/STM32H7xx_HAL_Driver/Src/stm32h7xx_hal_ltdc.c **** /**
 315:./Libraries/STM32H7xx_HAL_Driver/Src/stm32h7xx_hal_ltdc.c ****   * @brief  De-initialize the LTDC peripheral.
 316:./Libraries/STM32H7xx_HAL_Driver/Src/stm32h7xx_hal_ltdc.c ****   * @param  hltdc  pointer to a LTDC_HandleTypeDef structure that contains
 317:./Libraries/STM32H7xx_HAL_Driver/Src/stm32h7xx_hal_ltdc.c ****   *                the configuration information for the LTDC.
 318:./Libraries/STM32H7xx_HAL_Driver/Src/stm32h7xx_hal_ltdc.c ****   * @retval None
 319:./Libraries/STM32H7xx_HAL_Driver/Src/stm32h7xx_hal_ltdc.c ****   */
 320:./Libraries/STM32H7xx_HAL_Driver/Src/stm32h7xx_hal_ltdc.c **** 
 321:./Libraries/STM32H7xx_HAL_Driver/Src/stm32h7xx_hal_ltdc.c **** HAL_StatusTypeDef HAL_LTDC_DeInit(LTDC_HandleTypeDef *hltdc)
 322:./Libraries/STM32H7xx_HAL_Driver/Src/stm32h7xx_hal_ltdc.c **** {
 348              		.loc 1 322 1
 349              		.cfi_startproc
 350              		@ args = 0, pretend = 0, frame = 8
 351              		@ frame_needed = 1, uses_anonymous_args = 0
 352 0000 80B5     		push	{r7, lr}
 353              	.LCFI5:
 354              		.cfi_def_cfa_offset 8
 355              		.cfi_offset 7, -8
 356              		.cfi_offset 14, -4
 357 0002 82B0     		sub	sp, sp, #8
 358              	.LCFI6:
 359              		.cfi_def_cfa_offset 16
 360 0004 00AF     		add	r7, sp, #0
 361              	.LCFI7:
 362              		.cfi_def_cfa_register 7
ARM GAS  /tmp/cc7azozz.s 			page 13


 363 0006 7860     		str	r0, [r7, #4]
 323:./Libraries/STM32H7xx_HAL_Driver/Src/stm32h7xx_hal_ltdc.c **** #if (USE_HAL_LTDC_REGISTER_CALLBACKS == 1)
 324:./Libraries/STM32H7xx_HAL_Driver/Src/stm32h7xx_hal_ltdc.c ****   if (hltdc->MspDeInitCallback == NULL)
 325:./Libraries/STM32H7xx_HAL_Driver/Src/stm32h7xx_hal_ltdc.c ****   {
 326:./Libraries/STM32H7xx_HAL_Driver/Src/stm32h7xx_hal_ltdc.c ****     hltdc->MspDeInitCallback = HAL_LTDC_MspDeInit;
 327:./Libraries/STM32H7xx_HAL_Driver/Src/stm32h7xx_hal_ltdc.c ****   }
 328:./Libraries/STM32H7xx_HAL_Driver/Src/stm32h7xx_hal_ltdc.c ****   /* DeInit the low level hardware */
 329:./Libraries/STM32H7xx_HAL_Driver/Src/stm32h7xx_hal_ltdc.c ****   hltdc->MspDeInitCallback(hltdc);
 330:./Libraries/STM32H7xx_HAL_Driver/Src/stm32h7xx_hal_ltdc.c **** #else
 331:./Libraries/STM32H7xx_HAL_Driver/Src/stm32h7xx_hal_ltdc.c ****   /* DeInit the low level hardware */
 332:./Libraries/STM32H7xx_HAL_Driver/Src/stm32h7xx_hal_ltdc.c ****   HAL_LTDC_MspDeInit(hltdc);
 364              		.loc 1 332 3
 365 0008 7868     		ldr	r0, [r7, #4]
 366 000a FFF7FEFF 		bl	HAL_LTDC_MspDeInit
 333:./Libraries/STM32H7xx_HAL_Driver/Src/stm32h7xx_hal_ltdc.c **** #endif /* USE_HAL_LTDC_REGISTER_CALLBACKS */
 334:./Libraries/STM32H7xx_HAL_Driver/Src/stm32h7xx_hal_ltdc.c **** 
 335:./Libraries/STM32H7xx_HAL_Driver/Src/stm32h7xx_hal_ltdc.c ****   /* Initialize the error code */
 336:./Libraries/STM32H7xx_HAL_Driver/Src/stm32h7xx_hal_ltdc.c ****   hltdc->ErrorCode = HAL_LTDC_ERROR_NONE;
 367              		.loc 1 336 20
 368 000e 7B68     		ldr	r3, [r7, #4]
 369 0010 0022     		movs	r2, #0
 370 0012 C3F8A420 		str	r2, [r3, #164]
 337:./Libraries/STM32H7xx_HAL_Driver/Src/stm32h7xx_hal_ltdc.c **** 
 338:./Libraries/STM32H7xx_HAL_Driver/Src/stm32h7xx_hal_ltdc.c ****   /* Initialize the LTDC state*/
 339:./Libraries/STM32H7xx_HAL_Driver/Src/stm32h7xx_hal_ltdc.c ****   hltdc->State = HAL_LTDC_STATE_RESET;
 371              		.loc 1 339 16
 372 0016 7B68     		ldr	r3, [r7, #4]
 373 0018 0022     		movs	r2, #0
 374 001a 83F8A120 		strb	r2, [r3, #161]
 340:./Libraries/STM32H7xx_HAL_Driver/Src/stm32h7xx_hal_ltdc.c **** 
 341:./Libraries/STM32H7xx_HAL_Driver/Src/stm32h7xx_hal_ltdc.c ****   /* Release Lock */
 342:./Libraries/STM32H7xx_HAL_Driver/Src/stm32h7xx_hal_ltdc.c ****   __HAL_UNLOCK(hltdc);
 375              		.loc 1 342 3
 376 001e 7B68     		ldr	r3, [r7, #4]
 377 0020 0022     		movs	r2, #0
 378 0022 83F8A020 		strb	r2, [r3, #160]
 343:./Libraries/STM32H7xx_HAL_Driver/Src/stm32h7xx_hal_ltdc.c **** 
 344:./Libraries/STM32H7xx_HAL_Driver/Src/stm32h7xx_hal_ltdc.c ****   return HAL_OK;
 379              		.loc 1 344 10
 380 0026 0023     		movs	r3, #0
 345:./Libraries/STM32H7xx_HAL_Driver/Src/stm32h7xx_hal_ltdc.c **** }
 381              		.loc 1 345 1
 382 0028 1846     		mov	r0, r3
 383 002a 0837     		adds	r7, r7, #8
 384              	.LCFI8:
 385              		.cfi_def_cfa_offset 8
 386 002c BD46     		mov	sp, r7
 387              	.LCFI9:
 388              		.cfi_def_cfa_register 13
 389              		@ sp needed
 390 002e 80BD     		pop	{r7, pc}
 391              		.cfi_endproc
 392              	.LFE332:
 394              		.section	.text.HAL_LTDC_MspInit,"ax",%progbits
 395              		.align	1
 396              		.weak	HAL_LTDC_MspInit
 397              		.syntax unified
ARM GAS  /tmp/cc7azozz.s 			page 14


 398              		.thumb
 399              		.thumb_func
 400              		.fpu fpv5-d16
 402              	HAL_LTDC_MspInit:
 403              	.LFB333:
 346:./Libraries/STM32H7xx_HAL_Driver/Src/stm32h7xx_hal_ltdc.c **** 
 347:./Libraries/STM32H7xx_HAL_Driver/Src/stm32h7xx_hal_ltdc.c **** /**
 348:./Libraries/STM32H7xx_HAL_Driver/Src/stm32h7xx_hal_ltdc.c ****   * @brief  Initialize the LTDC MSP.
 349:./Libraries/STM32H7xx_HAL_Driver/Src/stm32h7xx_hal_ltdc.c ****   * @param  hltdc  pointer to a LTDC_HandleTypeDef structure that contains
 350:./Libraries/STM32H7xx_HAL_Driver/Src/stm32h7xx_hal_ltdc.c ****   *                the configuration information for the LTDC.
 351:./Libraries/STM32H7xx_HAL_Driver/Src/stm32h7xx_hal_ltdc.c ****   * @retval None
 352:./Libraries/STM32H7xx_HAL_Driver/Src/stm32h7xx_hal_ltdc.c ****   */
 353:./Libraries/STM32H7xx_HAL_Driver/Src/stm32h7xx_hal_ltdc.c **** __weak void HAL_LTDC_MspInit(LTDC_HandleTypeDef *hltdc)
 354:./Libraries/STM32H7xx_HAL_Driver/Src/stm32h7xx_hal_ltdc.c **** {
 404              		.loc 1 354 1
 405              		.cfi_startproc
 406              		@ args = 0, pretend = 0, frame = 8
 407              		@ frame_needed = 1, uses_anonymous_args = 0
 408              		@ link register save eliminated.
 409 0000 80B4     		push	{r7}
 410              	.LCFI10:
 411              		.cfi_def_cfa_offset 4
 412              		.cfi_offset 7, -4
 413 0002 83B0     		sub	sp, sp, #12
 414              	.LCFI11:
 415              		.cfi_def_cfa_offset 16
 416 0004 00AF     		add	r7, sp, #0
 417              	.LCFI12:
 418              		.cfi_def_cfa_register 7
 419 0006 7860     		str	r0, [r7, #4]
 355:./Libraries/STM32H7xx_HAL_Driver/Src/stm32h7xx_hal_ltdc.c ****   /* Prevent unused argument(s) compilation warning */
 356:./Libraries/STM32H7xx_HAL_Driver/Src/stm32h7xx_hal_ltdc.c ****   UNUSED(hltdc);
 357:./Libraries/STM32H7xx_HAL_Driver/Src/stm32h7xx_hal_ltdc.c **** 
 358:./Libraries/STM32H7xx_HAL_Driver/Src/stm32h7xx_hal_ltdc.c ****   /* NOTE : This function should not be modified, when the callback is needed,
 359:./Libraries/STM32H7xx_HAL_Driver/Src/stm32h7xx_hal_ltdc.c ****             the HAL_LTDC_MspInit could be implemented in the user file
 360:./Libraries/STM32H7xx_HAL_Driver/Src/stm32h7xx_hal_ltdc.c ****    */
 361:./Libraries/STM32H7xx_HAL_Driver/Src/stm32h7xx_hal_ltdc.c **** }
 420              		.loc 1 361 1
 421 0008 00BF     		nop
 422 000a 0C37     		adds	r7, r7, #12
 423              	.LCFI13:
 424              		.cfi_def_cfa_offset 4
 425 000c BD46     		mov	sp, r7
 426              	.LCFI14:
 427              		.cfi_def_cfa_register 13
 428              		@ sp needed
 429 000e 5DF8047B 		ldr	r7, [sp], #4
 430              	.LCFI15:
 431              		.cfi_restore 7
 432              		.cfi_def_cfa_offset 0
 433 0012 7047     		bx	lr
 434              		.cfi_endproc
 435              	.LFE333:
 437              		.section	.text.HAL_LTDC_MspDeInit,"ax",%progbits
 438              		.align	1
 439              		.weak	HAL_LTDC_MspDeInit
 440              		.syntax unified
ARM GAS  /tmp/cc7azozz.s 			page 15


 441              		.thumb
 442              		.thumb_func
 443              		.fpu fpv5-d16
 445              	HAL_LTDC_MspDeInit:
 446              	.LFB334:
 362:./Libraries/STM32H7xx_HAL_Driver/Src/stm32h7xx_hal_ltdc.c **** 
 363:./Libraries/STM32H7xx_HAL_Driver/Src/stm32h7xx_hal_ltdc.c **** /**
 364:./Libraries/STM32H7xx_HAL_Driver/Src/stm32h7xx_hal_ltdc.c ****   * @brief  De-initialize the LTDC MSP.
 365:./Libraries/STM32H7xx_HAL_Driver/Src/stm32h7xx_hal_ltdc.c ****   * @param  hltdc  pointer to a LTDC_HandleTypeDef structure that contains
 366:./Libraries/STM32H7xx_HAL_Driver/Src/stm32h7xx_hal_ltdc.c ****   *                the configuration information for the LTDC.
 367:./Libraries/STM32H7xx_HAL_Driver/Src/stm32h7xx_hal_ltdc.c ****   * @retval None
 368:./Libraries/STM32H7xx_HAL_Driver/Src/stm32h7xx_hal_ltdc.c ****   */
 369:./Libraries/STM32H7xx_HAL_Driver/Src/stm32h7xx_hal_ltdc.c **** __weak void HAL_LTDC_MspDeInit(LTDC_HandleTypeDef *hltdc)
 370:./Libraries/STM32H7xx_HAL_Driver/Src/stm32h7xx_hal_ltdc.c **** {
 447              		.loc 1 370 1
 448              		.cfi_startproc
 449              		@ args = 0, pretend = 0, frame = 8
 450              		@ frame_needed = 1, uses_anonymous_args = 0
 451              		@ link register save eliminated.
 452 0000 80B4     		push	{r7}
 453              	.LCFI16:
 454              		.cfi_def_cfa_offset 4
 455              		.cfi_offset 7, -4
 456 0002 83B0     		sub	sp, sp, #12
 457              	.LCFI17:
 458              		.cfi_def_cfa_offset 16
 459 0004 00AF     		add	r7, sp, #0
 460              	.LCFI18:
 461              		.cfi_def_cfa_register 7
 462 0006 7860     		str	r0, [r7, #4]
 371:./Libraries/STM32H7xx_HAL_Driver/Src/stm32h7xx_hal_ltdc.c ****   /* Prevent unused argument(s) compilation warning */
 372:./Libraries/STM32H7xx_HAL_Driver/Src/stm32h7xx_hal_ltdc.c ****   UNUSED(hltdc);
 373:./Libraries/STM32H7xx_HAL_Driver/Src/stm32h7xx_hal_ltdc.c **** 
 374:./Libraries/STM32H7xx_HAL_Driver/Src/stm32h7xx_hal_ltdc.c ****   /* NOTE : This function should not be modified, when the callback is needed,
 375:./Libraries/STM32H7xx_HAL_Driver/Src/stm32h7xx_hal_ltdc.c ****             the HAL_LTDC_MspDeInit could be implemented in the user file
 376:./Libraries/STM32H7xx_HAL_Driver/Src/stm32h7xx_hal_ltdc.c ****    */
 377:./Libraries/STM32H7xx_HAL_Driver/Src/stm32h7xx_hal_ltdc.c **** }
 463              		.loc 1 377 1
 464 0008 00BF     		nop
 465 000a 0C37     		adds	r7, r7, #12
 466              	.LCFI19:
 467              		.cfi_def_cfa_offset 4
 468 000c BD46     		mov	sp, r7
 469              	.LCFI20:
 470              		.cfi_def_cfa_register 13
 471              		@ sp needed
 472 000e 5DF8047B 		ldr	r7, [sp], #4
 473              	.LCFI21:
 474              		.cfi_restore 7
 475              		.cfi_def_cfa_offset 0
 476 0012 7047     		bx	lr
 477              		.cfi_endproc
 478              	.LFE334:
 480              		.section	.text.HAL_LTDC_IRQHandler,"ax",%progbits
 481              		.align	1
 482              		.global	HAL_LTDC_IRQHandler
 483              		.syntax unified
ARM GAS  /tmp/cc7azozz.s 			page 16


 484              		.thumb
 485              		.thumb_func
 486              		.fpu fpv5-d16
 488              	HAL_LTDC_IRQHandler:
 489              	.LFB335:
 378:./Libraries/STM32H7xx_HAL_Driver/Src/stm32h7xx_hal_ltdc.c **** 
 379:./Libraries/STM32H7xx_HAL_Driver/Src/stm32h7xx_hal_ltdc.c **** #if (USE_HAL_LTDC_REGISTER_CALLBACKS == 1)
 380:./Libraries/STM32H7xx_HAL_Driver/Src/stm32h7xx_hal_ltdc.c **** /**
 381:./Libraries/STM32H7xx_HAL_Driver/Src/stm32h7xx_hal_ltdc.c ****   * @brief  Register a User LTDC Callback
 382:./Libraries/STM32H7xx_HAL_Driver/Src/stm32h7xx_hal_ltdc.c ****   *         To be used instead of the weak predefined callback
 383:./Libraries/STM32H7xx_HAL_Driver/Src/stm32h7xx_hal_ltdc.c ****   * @param hltdc ltdc handle
 384:./Libraries/STM32H7xx_HAL_Driver/Src/stm32h7xx_hal_ltdc.c ****   * @param CallbackID ID of the callback to be registered
 385:./Libraries/STM32H7xx_HAL_Driver/Src/stm32h7xx_hal_ltdc.c ****   *        This parameter can be one of the following values:
 386:./Libraries/STM32H7xx_HAL_Driver/Src/stm32h7xx_hal_ltdc.c ****   *          @arg @ref HAL_LTDC_LINE_EVENT_CB_ID Line Event Callback ID
 387:./Libraries/STM32H7xx_HAL_Driver/Src/stm32h7xx_hal_ltdc.c ****   *          @arg @ref HAL_LTDC_RELOAD_EVENT_CB_ID Reload Event Callback ID
 388:./Libraries/STM32H7xx_HAL_Driver/Src/stm32h7xx_hal_ltdc.c ****   *          @arg @ref HAL_LTDC_ERROR_CB_ID Error Callback ID
 389:./Libraries/STM32H7xx_HAL_Driver/Src/stm32h7xx_hal_ltdc.c ****   *          @arg @ref HAL_LTDC_MSPINIT_CB_ID MspInit callback ID
 390:./Libraries/STM32H7xx_HAL_Driver/Src/stm32h7xx_hal_ltdc.c ****   *          @arg @ref HAL_LTDC_MSPDEINIT_CB_ID MspDeInit callback ID
 391:./Libraries/STM32H7xx_HAL_Driver/Src/stm32h7xx_hal_ltdc.c ****   * @param pCallback pointer to the Callback function
 392:./Libraries/STM32H7xx_HAL_Driver/Src/stm32h7xx_hal_ltdc.c ****   * @retval status
 393:./Libraries/STM32H7xx_HAL_Driver/Src/stm32h7xx_hal_ltdc.c ****   */
 394:./Libraries/STM32H7xx_HAL_Driver/Src/stm32h7xx_hal_ltdc.c **** HAL_StatusTypeDef HAL_LTDC_RegisterCallback(LTDC_HandleTypeDef *hltdc, HAL_LTDC_CallbackIDTypeDef C
 395:./Libraries/STM32H7xx_HAL_Driver/Src/stm32h7xx_hal_ltdc.c **** {
 396:./Libraries/STM32H7xx_HAL_Driver/Src/stm32h7xx_hal_ltdc.c ****   HAL_StatusTypeDef status = HAL_OK;
 397:./Libraries/STM32H7xx_HAL_Driver/Src/stm32h7xx_hal_ltdc.c **** 
 398:./Libraries/STM32H7xx_HAL_Driver/Src/stm32h7xx_hal_ltdc.c ****   if (pCallback == NULL)
 399:./Libraries/STM32H7xx_HAL_Driver/Src/stm32h7xx_hal_ltdc.c ****   {
 400:./Libraries/STM32H7xx_HAL_Driver/Src/stm32h7xx_hal_ltdc.c ****     /* Update the error code */
 401:./Libraries/STM32H7xx_HAL_Driver/Src/stm32h7xx_hal_ltdc.c ****     hltdc->ErrorCode |= HAL_LTDC_ERROR_INVALID_CALLBACK;
 402:./Libraries/STM32H7xx_HAL_Driver/Src/stm32h7xx_hal_ltdc.c **** 
 403:./Libraries/STM32H7xx_HAL_Driver/Src/stm32h7xx_hal_ltdc.c ****     return HAL_ERROR;
 404:./Libraries/STM32H7xx_HAL_Driver/Src/stm32h7xx_hal_ltdc.c ****   }
 405:./Libraries/STM32H7xx_HAL_Driver/Src/stm32h7xx_hal_ltdc.c ****   /* Process locked */
 406:./Libraries/STM32H7xx_HAL_Driver/Src/stm32h7xx_hal_ltdc.c ****   __HAL_LOCK(hltdc);
 407:./Libraries/STM32H7xx_HAL_Driver/Src/stm32h7xx_hal_ltdc.c **** 
 408:./Libraries/STM32H7xx_HAL_Driver/Src/stm32h7xx_hal_ltdc.c ****   if (hltdc->State == HAL_LTDC_STATE_READY)
 409:./Libraries/STM32H7xx_HAL_Driver/Src/stm32h7xx_hal_ltdc.c ****   {
 410:./Libraries/STM32H7xx_HAL_Driver/Src/stm32h7xx_hal_ltdc.c ****     switch (CallbackID)
 411:./Libraries/STM32H7xx_HAL_Driver/Src/stm32h7xx_hal_ltdc.c ****     {
 412:./Libraries/STM32H7xx_HAL_Driver/Src/stm32h7xx_hal_ltdc.c ****       case HAL_LTDC_LINE_EVENT_CB_ID :
 413:./Libraries/STM32H7xx_HAL_Driver/Src/stm32h7xx_hal_ltdc.c ****         hltdc->LineEventCallback = pCallback;
 414:./Libraries/STM32H7xx_HAL_Driver/Src/stm32h7xx_hal_ltdc.c ****         break;
 415:./Libraries/STM32H7xx_HAL_Driver/Src/stm32h7xx_hal_ltdc.c **** 
 416:./Libraries/STM32H7xx_HAL_Driver/Src/stm32h7xx_hal_ltdc.c ****       case HAL_LTDC_RELOAD_EVENT_CB_ID :
 417:./Libraries/STM32H7xx_HAL_Driver/Src/stm32h7xx_hal_ltdc.c ****         hltdc->ReloadEventCallback = pCallback;
 418:./Libraries/STM32H7xx_HAL_Driver/Src/stm32h7xx_hal_ltdc.c ****         break;
 419:./Libraries/STM32H7xx_HAL_Driver/Src/stm32h7xx_hal_ltdc.c **** 
 420:./Libraries/STM32H7xx_HAL_Driver/Src/stm32h7xx_hal_ltdc.c ****       case HAL_LTDC_ERROR_CB_ID :
 421:./Libraries/STM32H7xx_HAL_Driver/Src/stm32h7xx_hal_ltdc.c ****         hltdc->ErrorCallback = pCallback;
 422:./Libraries/STM32H7xx_HAL_Driver/Src/stm32h7xx_hal_ltdc.c ****         break;
 423:./Libraries/STM32H7xx_HAL_Driver/Src/stm32h7xx_hal_ltdc.c **** 
 424:./Libraries/STM32H7xx_HAL_Driver/Src/stm32h7xx_hal_ltdc.c ****       case HAL_LTDC_MSPINIT_CB_ID :
 425:./Libraries/STM32H7xx_HAL_Driver/Src/stm32h7xx_hal_ltdc.c ****         hltdc->MspInitCallback = pCallback;
 426:./Libraries/STM32H7xx_HAL_Driver/Src/stm32h7xx_hal_ltdc.c ****         break;
 427:./Libraries/STM32H7xx_HAL_Driver/Src/stm32h7xx_hal_ltdc.c **** 
 428:./Libraries/STM32H7xx_HAL_Driver/Src/stm32h7xx_hal_ltdc.c ****       case HAL_LTDC_MSPDEINIT_CB_ID :
 429:./Libraries/STM32H7xx_HAL_Driver/Src/stm32h7xx_hal_ltdc.c ****         hltdc->MspDeInitCallback = pCallback;
ARM GAS  /tmp/cc7azozz.s 			page 17


 430:./Libraries/STM32H7xx_HAL_Driver/Src/stm32h7xx_hal_ltdc.c ****         break;
 431:./Libraries/STM32H7xx_HAL_Driver/Src/stm32h7xx_hal_ltdc.c **** 
 432:./Libraries/STM32H7xx_HAL_Driver/Src/stm32h7xx_hal_ltdc.c ****       default :
 433:./Libraries/STM32H7xx_HAL_Driver/Src/stm32h7xx_hal_ltdc.c ****         /* Update the error code */
 434:./Libraries/STM32H7xx_HAL_Driver/Src/stm32h7xx_hal_ltdc.c ****         hltdc->ErrorCode |= HAL_LTDC_ERROR_INVALID_CALLBACK;
 435:./Libraries/STM32H7xx_HAL_Driver/Src/stm32h7xx_hal_ltdc.c ****         /* Return error status */
 436:./Libraries/STM32H7xx_HAL_Driver/Src/stm32h7xx_hal_ltdc.c ****         status =  HAL_ERROR;
 437:./Libraries/STM32H7xx_HAL_Driver/Src/stm32h7xx_hal_ltdc.c ****         break;
 438:./Libraries/STM32H7xx_HAL_Driver/Src/stm32h7xx_hal_ltdc.c ****     }
 439:./Libraries/STM32H7xx_HAL_Driver/Src/stm32h7xx_hal_ltdc.c ****   }
 440:./Libraries/STM32H7xx_HAL_Driver/Src/stm32h7xx_hal_ltdc.c ****   else if (hltdc->State == HAL_LTDC_STATE_RESET)
 441:./Libraries/STM32H7xx_HAL_Driver/Src/stm32h7xx_hal_ltdc.c ****   {
 442:./Libraries/STM32H7xx_HAL_Driver/Src/stm32h7xx_hal_ltdc.c ****     switch (CallbackID)
 443:./Libraries/STM32H7xx_HAL_Driver/Src/stm32h7xx_hal_ltdc.c ****     {
 444:./Libraries/STM32H7xx_HAL_Driver/Src/stm32h7xx_hal_ltdc.c ****       case HAL_LTDC_MSPINIT_CB_ID :
 445:./Libraries/STM32H7xx_HAL_Driver/Src/stm32h7xx_hal_ltdc.c ****         hltdc->MspInitCallback = pCallback;
 446:./Libraries/STM32H7xx_HAL_Driver/Src/stm32h7xx_hal_ltdc.c ****         break;
 447:./Libraries/STM32H7xx_HAL_Driver/Src/stm32h7xx_hal_ltdc.c **** 
 448:./Libraries/STM32H7xx_HAL_Driver/Src/stm32h7xx_hal_ltdc.c ****       case HAL_LTDC_MSPDEINIT_CB_ID :
 449:./Libraries/STM32H7xx_HAL_Driver/Src/stm32h7xx_hal_ltdc.c ****         hltdc->MspDeInitCallback = pCallback;
 450:./Libraries/STM32H7xx_HAL_Driver/Src/stm32h7xx_hal_ltdc.c ****         break;
 451:./Libraries/STM32H7xx_HAL_Driver/Src/stm32h7xx_hal_ltdc.c **** 
 452:./Libraries/STM32H7xx_HAL_Driver/Src/stm32h7xx_hal_ltdc.c ****       default :
 453:./Libraries/STM32H7xx_HAL_Driver/Src/stm32h7xx_hal_ltdc.c ****         /* Update the error code */
 454:./Libraries/STM32H7xx_HAL_Driver/Src/stm32h7xx_hal_ltdc.c ****         hltdc->ErrorCode |= HAL_LTDC_ERROR_INVALID_CALLBACK;
 455:./Libraries/STM32H7xx_HAL_Driver/Src/stm32h7xx_hal_ltdc.c ****         /* Return error status */
 456:./Libraries/STM32H7xx_HAL_Driver/Src/stm32h7xx_hal_ltdc.c ****         status =  HAL_ERROR;
 457:./Libraries/STM32H7xx_HAL_Driver/Src/stm32h7xx_hal_ltdc.c ****         break;
 458:./Libraries/STM32H7xx_HAL_Driver/Src/stm32h7xx_hal_ltdc.c ****     }
 459:./Libraries/STM32H7xx_HAL_Driver/Src/stm32h7xx_hal_ltdc.c ****   }
 460:./Libraries/STM32H7xx_HAL_Driver/Src/stm32h7xx_hal_ltdc.c ****   else
 461:./Libraries/STM32H7xx_HAL_Driver/Src/stm32h7xx_hal_ltdc.c ****   {
 462:./Libraries/STM32H7xx_HAL_Driver/Src/stm32h7xx_hal_ltdc.c ****     /* Update the error code */
 463:./Libraries/STM32H7xx_HAL_Driver/Src/stm32h7xx_hal_ltdc.c ****     hltdc->ErrorCode |= HAL_LTDC_ERROR_INVALID_CALLBACK;
 464:./Libraries/STM32H7xx_HAL_Driver/Src/stm32h7xx_hal_ltdc.c ****     /* Return error status */
 465:./Libraries/STM32H7xx_HAL_Driver/Src/stm32h7xx_hal_ltdc.c ****     status =  HAL_ERROR;
 466:./Libraries/STM32H7xx_HAL_Driver/Src/stm32h7xx_hal_ltdc.c ****   }
 467:./Libraries/STM32H7xx_HAL_Driver/Src/stm32h7xx_hal_ltdc.c **** 
 468:./Libraries/STM32H7xx_HAL_Driver/Src/stm32h7xx_hal_ltdc.c ****   /* Release Lock */
 469:./Libraries/STM32H7xx_HAL_Driver/Src/stm32h7xx_hal_ltdc.c ****   __HAL_UNLOCK(hltdc);
 470:./Libraries/STM32H7xx_HAL_Driver/Src/stm32h7xx_hal_ltdc.c **** 
 471:./Libraries/STM32H7xx_HAL_Driver/Src/stm32h7xx_hal_ltdc.c ****   return status;
 472:./Libraries/STM32H7xx_HAL_Driver/Src/stm32h7xx_hal_ltdc.c **** }
 473:./Libraries/STM32H7xx_HAL_Driver/Src/stm32h7xx_hal_ltdc.c **** 
 474:./Libraries/STM32H7xx_HAL_Driver/Src/stm32h7xx_hal_ltdc.c **** /**
 475:./Libraries/STM32H7xx_HAL_Driver/Src/stm32h7xx_hal_ltdc.c ****   * @brief  Unregister an LTDC Callback
 476:./Libraries/STM32H7xx_HAL_Driver/Src/stm32h7xx_hal_ltdc.c ****   *         LTDC callabck is redirected to the weak predefined callback
 477:./Libraries/STM32H7xx_HAL_Driver/Src/stm32h7xx_hal_ltdc.c ****   * @param hltdc ltdc handle
 478:./Libraries/STM32H7xx_HAL_Driver/Src/stm32h7xx_hal_ltdc.c ****   * @param CallbackID ID of the callback to be unregistered
 479:./Libraries/STM32H7xx_HAL_Driver/Src/stm32h7xx_hal_ltdc.c ****   *        This parameter can be one of the following values:
 480:./Libraries/STM32H7xx_HAL_Driver/Src/stm32h7xx_hal_ltdc.c ****   *          @arg @ref HAL_LTDC_LINE_EVENT_CB_ID Line Event Callback ID
 481:./Libraries/STM32H7xx_HAL_Driver/Src/stm32h7xx_hal_ltdc.c ****   *          @arg @ref HAL_LTDC_RELOAD_EVENT_CB_ID Reload Event Callback ID
 482:./Libraries/STM32H7xx_HAL_Driver/Src/stm32h7xx_hal_ltdc.c ****   *          @arg @ref HAL_LTDC_ERROR_CB_ID Error Callback ID
 483:./Libraries/STM32H7xx_HAL_Driver/Src/stm32h7xx_hal_ltdc.c ****   *          @arg @ref HAL_LTDC_MSPINIT_CB_ID MspInit callback ID
 484:./Libraries/STM32H7xx_HAL_Driver/Src/stm32h7xx_hal_ltdc.c ****   *          @arg @ref HAL_LTDC_MSPDEINIT_CB_ID MspDeInit callback ID
 485:./Libraries/STM32H7xx_HAL_Driver/Src/stm32h7xx_hal_ltdc.c ****   * @retval status
 486:./Libraries/STM32H7xx_HAL_Driver/Src/stm32h7xx_hal_ltdc.c ****   */
ARM GAS  /tmp/cc7azozz.s 			page 18


 487:./Libraries/STM32H7xx_HAL_Driver/Src/stm32h7xx_hal_ltdc.c **** HAL_StatusTypeDef HAL_LTDC_UnRegisterCallback(LTDC_HandleTypeDef *hltdc, HAL_LTDC_CallbackIDTypeDef
 488:./Libraries/STM32H7xx_HAL_Driver/Src/stm32h7xx_hal_ltdc.c **** {
 489:./Libraries/STM32H7xx_HAL_Driver/Src/stm32h7xx_hal_ltdc.c ****   HAL_StatusTypeDef status = HAL_OK;
 490:./Libraries/STM32H7xx_HAL_Driver/Src/stm32h7xx_hal_ltdc.c **** 
 491:./Libraries/STM32H7xx_HAL_Driver/Src/stm32h7xx_hal_ltdc.c ****   /* Process locked */
 492:./Libraries/STM32H7xx_HAL_Driver/Src/stm32h7xx_hal_ltdc.c ****   __HAL_LOCK(hltdc);
 493:./Libraries/STM32H7xx_HAL_Driver/Src/stm32h7xx_hal_ltdc.c **** 
 494:./Libraries/STM32H7xx_HAL_Driver/Src/stm32h7xx_hal_ltdc.c ****   if (hltdc->State == HAL_LTDC_STATE_READY)
 495:./Libraries/STM32H7xx_HAL_Driver/Src/stm32h7xx_hal_ltdc.c ****   {
 496:./Libraries/STM32H7xx_HAL_Driver/Src/stm32h7xx_hal_ltdc.c ****     switch (CallbackID)
 497:./Libraries/STM32H7xx_HAL_Driver/Src/stm32h7xx_hal_ltdc.c ****     {
 498:./Libraries/STM32H7xx_HAL_Driver/Src/stm32h7xx_hal_ltdc.c ****       case HAL_LTDC_LINE_EVENT_CB_ID :
 499:./Libraries/STM32H7xx_HAL_Driver/Src/stm32h7xx_hal_ltdc.c ****         hltdc->LineEventCallback = HAL_LTDC_LineEventCallback;      /* Legacy weak LineEventCallbac
 500:./Libraries/STM32H7xx_HAL_Driver/Src/stm32h7xx_hal_ltdc.c ****         break;
 501:./Libraries/STM32H7xx_HAL_Driver/Src/stm32h7xx_hal_ltdc.c **** 
 502:./Libraries/STM32H7xx_HAL_Driver/Src/stm32h7xx_hal_ltdc.c ****       case HAL_LTDC_RELOAD_EVENT_CB_ID :
 503:./Libraries/STM32H7xx_HAL_Driver/Src/stm32h7xx_hal_ltdc.c ****         hltdc->ReloadEventCallback = HAL_LTDC_ReloadEventCallback;  /* Legacy weak ReloadEventCallb
 504:./Libraries/STM32H7xx_HAL_Driver/Src/stm32h7xx_hal_ltdc.c ****         break;
 505:./Libraries/STM32H7xx_HAL_Driver/Src/stm32h7xx_hal_ltdc.c **** 
 506:./Libraries/STM32H7xx_HAL_Driver/Src/stm32h7xx_hal_ltdc.c ****       case HAL_LTDC_ERROR_CB_ID :
 507:./Libraries/STM32H7xx_HAL_Driver/Src/stm32h7xx_hal_ltdc.c ****         hltdc->ErrorCallback       = HAL_LTDC_ErrorCallback;        /* Legacy weak ErrorCallback   
 508:./Libraries/STM32H7xx_HAL_Driver/Src/stm32h7xx_hal_ltdc.c ****         break;
 509:./Libraries/STM32H7xx_HAL_Driver/Src/stm32h7xx_hal_ltdc.c **** 
 510:./Libraries/STM32H7xx_HAL_Driver/Src/stm32h7xx_hal_ltdc.c ****       case HAL_LTDC_MSPINIT_CB_ID :
 511:./Libraries/STM32H7xx_HAL_Driver/Src/stm32h7xx_hal_ltdc.c ****         hltdc->MspInitCallback = HAL_LTDC_MspInit;                  /* Legcay weak MspInit Callback
 512:./Libraries/STM32H7xx_HAL_Driver/Src/stm32h7xx_hal_ltdc.c ****         break;
 513:./Libraries/STM32H7xx_HAL_Driver/Src/stm32h7xx_hal_ltdc.c **** 
 514:./Libraries/STM32H7xx_HAL_Driver/Src/stm32h7xx_hal_ltdc.c ****       case HAL_LTDC_MSPDEINIT_CB_ID :
 515:./Libraries/STM32H7xx_HAL_Driver/Src/stm32h7xx_hal_ltdc.c ****         hltdc->MspDeInitCallback = HAL_LTDC_MspDeInit;              /* Legcay weak MspDeInit Callba
 516:./Libraries/STM32H7xx_HAL_Driver/Src/stm32h7xx_hal_ltdc.c ****         break;
 517:./Libraries/STM32H7xx_HAL_Driver/Src/stm32h7xx_hal_ltdc.c **** 
 518:./Libraries/STM32H7xx_HAL_Driver/Src/stm32h7xx_hal_ltdc.c ****       default :
 519:./Libraries/STM32H7xx_HAL_Driver/Src/stm32h7xx_hal_ltdc.c ****         /* Update the error code */
 520:./Libraries/STM32H7xx_HAL_Driver/Src/stm32h7xx_hal_ltdc.c ****         hltdc->ErrorCode |= HAL_LTDC_ERROR_INVALID_CALLBACK;
 521:./Libraries/STM32H7xx_HAL_Driver/Src/stm32h7xx_hal_ltdc.c ****         /* Return error status */
 522:./Libraries/STM32H7xx_HAL_Driver/Src/stm32h7xx_hal_ltdc.c ****         status =  HAL_ERROR;
 523:./Libraries/STM32H7xx_HAL_Driver/Src/stm32h7xx_hal_ltdc.c ****         break;
 524:./Libraries/STM32H7xx_HAL_Driver/Src/stm32h7xx_hal_ltdc.c ****     }
 525:./Libraries/STM32H7xx_HAL_Driver/Src/stm32h7xx_hal_ltdc.c ****   }
 526:./Libraries/STM32H7xx_HAL_Driver/Src/stm32h7xx_hal_ltdc.c ****   else if (hltdc->State == HAL_LTDC_STATE_RESET)
 527:./Libraries/STM32H7xx_HAL_Driver/Src/stm32h7xx_hal_ltdc.c ****   {
 528:./Libraries/STM32H7xx_HAL_Driver/Src/stm32h7xx_hal_ltdc.c ****     switch (CallbackID)
 529:./Libraries/STM32H7xx_HAL_Driver/Src/stm32h7xx_hal_ltdc.c ****     {
 530:./Libraries/STM32H7xx_HAL_Driver/Src/stm32h7xx_hal_ltdc.c ****       case HAL_LTDC_MSPINIT_CB_ID :
 531:./Libraries/STM32H7xx_HAL_Driver/Src/stm32h7xx_hal_ltdc.c ****         hltdc->MspInitCallback = HAL_LTDC_MspInit;                  /* Legcay weak MspInit Callback
 532:./Libraries/STM32H7xx_HAL_Driver/Src/stm32h7xx_hal_ltdc.c ****         break;
 533:./Libraries/STM32H7xx_HAL_Driver/Src/stm32h7xx_hal_ltdc.c **** 
 534:./Libraries/STM32H7xx_HAL_Driver/Src/stm32h7xx_hal_ltdc.c ****       case HAL_LTDC_MSPDEINIT_CB_ID :
 535:./Libraries/STM32H7xx_HAL_Driver/Src/stm32h7xx_hal_ltdc.c ****         hltdc->MspDeInitCallback = HAL_LTDC_MspDeInit;              /* Legcay weak MspDeInit Callba
 536:./Libraries/STM32H7xx_HAL_Driver/Src/stm32h7xx_hal_ltdc.c ****         break;
 537:./Libraries/STM32H7xx_HAL_Driver/Src/stm32h7xx_hal_ltdc.c **** 
 538:./Libraries/STM32H7xx_HAL_Driver/Src/stm32h7xx_hal_ltdc.c ****       default :
 539:./Libraries/STM32H7xx_HAL_Driver/Src/stm32h7xx_hal_ltdc.c ****         /* Update the error code */
 540:./Libraries/STM32H7xx_HAL_Driver/Src/stm32h7xx_hal_ltdc.c ****         hltdc->ErrorCode |= HAL_LTDC_ERROR_INVALID_CALLBACK;
 541:./Libraries/STM32H7xx_HAL_Driver/Src/stm32h7xx_hal_ltdc.c ****         /* Return error status */
 542:./Libraries/STM32H7xx_HAL_Driver/Src/stm32h7xx_hal_ltdc.c ****         status =  HAL_ERROR;
 543:./Libraries/STM32H7xx_HAL_Driver/Src/stm32h7xx_hal_ltdc.c ****         break;
ARM GAS  /tmp/cc7azozz.s 			page 19


 544:./Libraries/STM32H7xx_HAL_Driver/Src/stm32h7xx_hal_ltdc.c ****     }
 545:./Libraries/STM32H7xx_HAL_Driver/Src/stm32h7xx_hal_ltdc.c ****   }
 546:./Libraries/STM32H7xx_HAL_Driver/Src/stm32h7xx_hal_ltdc.c ****   else
 547:./Libraries/STM32H7xx_HAL_Driver/Src/stm32h7xx_hal_ltdc.c ****   {
 548:./Libraries/STM32H7xx_HAL_Driver/Src/stm32h7xx_hal_ltdc.c ****     /* Update the error code */
 549:./Libraries/STM32H7xx_HAL_Driver/Src/stm32h7xx_hal_ltdc.c ****     hltdc->ErrorCode |= HAL_LTDC_ERROR_INVALID_CALLBACK;
 550:./Libraries/STM32H7xx_HAL_Driver/Src/stm32h7xx_hal_ltdc.c ****     /* Return error status */
 551:./Libraries/STM32H7xx_HAL_Driver/Src/stm32h7xx_hal_ltdc.c ****     status =  HAL_ERROR;
 552:./Libraries/STM32H7xx_HAL_Driver/Src/stm32h7xx_hal_ltdc.c ****   }
 553:./Libraries/STM32H7xx_HAL_Driver/Src/stm32h7xx_hal_ltdc.c **** 
 554:./Libraries/STM32H7xx_HAL_Driver/Src/stm32h7xx_hal_ltdc.c ****   /* Release Lock */
 555:./Libraries/STM32H7xx_HAL_Driver/Src/stm32h7xx_hal_ltdc.c ****   __HAL_UNLOCK(hltdc);
 556:./Libraries/STM32H7xx_HAL_Driver/Src/stm32h7xx_hal_ltdc.c **** 
 557:./Libraries/STM32H7xx_HAL_Driver/Src/stm32h7xx_hal_ltdc.c ****   return status;
 558:./Libraries/STM32H7xx_HAL_Driver/Src/stm32h7xx_hal_ltdc.c **** }
 559:./Libraries/STM32H7xx_HAL_Driver/Src/stm32h7xx_hal_ltdc.c **** #endif /* USE_HAL_LTDC_REGISTER_CALLBACKS */
 560:./Libraries/STM32H7xx_HAL_Driver/Src/stm32h7xx_hal_ltdc.c **** 
 561:./Libraries/STM32H7xx_HAL_Driver/Src/stm32h7xx_hal_ltdc.c **** /**
 562:./Libraries/STM32H7xx_HAL_Driver/Src/stm32h7xx_hal_ltdc.c ****   * @}
 563:./Libraries/STM32H7xx_HAL_Driver/Src/stm32h7xx_hal_ltdc.c ****   */
 564:./Libraries/STM32H7xx_HAL_Driver/Src/stm32h7xx_hal_ltdc.c **** 
 565:./Libraries/STM32H7xx_HAL_Driver/Src/stm32h7xx_hal_ltdc.c **** /** @defgroup LTDC_Exported_Functions_Group2 IO operation functions
 566:./Libraries/STM32H7xx_HAL_Driver/Src/stm32h7xx_hal_ltdc.c ****   *  @brief   IO operation functions
 567:./Libraries/STM32H7xx_HAL_Driver/Src/stm32h7xx_hal_ltdc.c ****   *
 568:./Libraries/STM32H7xx_HAL_Driver/Src/stm32h7xx_hal_ltdc.c **** @verbatim
 569:./Libraries/STM32H7xx_HAL_Driver/Src/stm32h7xx_hal_ltdc.c ****  ===============================================================================
 570:./Libraries/STM32H7xx_HAL_Driver/Src/stm32h7xx_hal_ltdc.c ****                       #####  IO operation functions  #####
 571:./Libraries/STM32H7xx_HAL_Driver/Src/stm32h7xx_hal_ltdc.c ****  ===============================================================================
 572:./Libraries/STM32H7xx_HAL_Driver/Src/stm32h7xx_hal_ltdc.c ****     [..]  This section provides function allowing to:
 573:./Libraries/STM32H7xx_HAL_Driver/Src/stm32h7xx_hal_ltdc.c ****       (+) Handle LTDC interrupt request
 574:./Libraries/STM32H7xx_HAL_Driver/Src/stm32h7xx_hal_ltdc.c **** 
 575:./Libraries/STM32H7xx_HAL_Driver/Src/stm32h7xx_hal_ltdc.c **** @endverbatim
 576:./Libraries/STM32H7xx_HAL_Driver/Src/stm32h7xx_hal_ltdc.c ****   * @{
 577:./Libraries/STM32H7xx_HAL_Driver/Src/stm32h7xx_hal_ltdc.c ****   */
 578:./Libraries/STM32H7xx_HAL_Driver/Src/stm32h7xx_hal_ltdc.c **** /**
 579:./Libraries/STM32H7xx_HAL_Driver/Src/stm32h7xx_hal_ltdc.c ****   * @brief  Handle LTDC interrupt request.
 580:./Libraries/STM32H7xx_HAL_Driver/Src/stm32h7xx_hal_ltdc.c ****   * @param  hltdc  pointer to a LTDC_HandleTypeDef structure that contains
 581:./Libraries/STM32H7xx_HAL_Driver/Src/stm32h7xx_hal_ltdc.c ****   *                the configuration information for the LTDC.
 582:./Libraries/STM32H7xx_HAL_Driver/Src/stm32h7xx_hal_ltdc.c ****   * @retval HAL status
 583:./Libraries/STM32H7xx_HAL_Driver/Src/stm32h7xx_hal_ltdc.c ****   */
 584:./Libraries/STM32H7xx_HAL_Driver/Src/stm32h7xx_hal_ltdc.c **** void HAL_LTDC_IRQHandler(LTDC_HandleTypeDef *hltdc)
 585:./Libraries/STM32H7xx_HAL_Driver/Src/stm32h7xx_hal_ltdc.c **** {
 490              		.loc 1 585 1
 491              		.cfi_startproc
 492              		@ args = 0, pretend = 0, frame = 16
 493              		@ frame_needed = 1, uses_anonymous_args = 0
 494 0000 80B5     		push	{r7, lr}
 495              	.LCFI22:
 496              		.cfi_def_cfa_offset 8
 497              		.cfi_offset 7, -8
 498              		.cfi_offset 14, -4
 499 0002 84B0     		sub	sp, sp, #16
 500              	.LCFI23:
 501              		.cfi_def_cfa_offset 24
 502 0004 00AF     		add	r7, sp, #0
 503              	.LCFI24:
 504              		.cfi_def_cfa_register 7
ARM GAS  /tmp/cc7azozz.s 			page 20


 505 0006 7860     		str	r0, [r7, #4]
 586:./Libraries/STM32H7xx_HAL_Driver/Src/stm32h7xx_hal_ltdc.c ****   uint32_t isrflags  = READ_REG(hltdc->Instance->ISR);
 506              		.loc 1 586 24
 507 0008 7B68     		ldr	r3, [r7, #4]
 508 000a 1B68     		ldr	r3, [r3]
 509              		.loc 1 586 12
 510 000c 9B6B     		ldr	r3, [r3, #56]
 511 000e FB60     		str	r3, [r7, #12]
 587:./Libraries/STM32H7xx_HAL_Driver/Src/stm32h7xx_hal_ltdc.c ****   uint32_t itsources = READ_REG(hltdc->Instance->IER);
 512              		.loc 1 587 24
 513 0010 7B68     		ldr	r3, [r7, #4]
 514 0012 1B68     		ldr	r3, [r3]
 515              		.loc 1 587 12
 516 0014 5B6B     		ldr	r3, [r3, #52]
 517 0016 BB60     		str	r3, [r7, #8]
 588:./Libraries/STM32H7xx_HAL_Driver/Src/stm32h7xx_hal_ltdc.c **** 
 589:./Libraries/STM32H7xx_HAL_Driver/Src/stm32h7xx_hal_ltdc.c ****   /* Transfer Error Interrupt management ***************************************/
 590:./Libraries/STM32H7xx_HAL_Driver/Src/stm32h7xx_hal_ltdc.c ****   if (((isrflags & LTDC_ISR_TERRIF) != 0U) && ((itsources & LTDC_IER_TERRIE) != 0U))
 518              		.loc 1 590 18
 519 0018 FB68     		ldr	r3, [r7, #12]
 520 001a 03F00403 		and	r3, r3, #4
 521              		.loc 1 590 6
 522 001e 002B     		cmp	r3, #0
 523 0020 23D0     		beq	.L12
 524              		.loc 1 590 59 discriminator 1
 525 0022 BB68     		ldr	r3, [r7, #8]
 526 0024 03F00403 		and	r3, r3, #4
 527              		.loc 1 590 44 discriminator 1
 528 0028 002B     		cmp	r3, #0
 529 002a 1ED0     		beq	.L12
 591:./Libraries/STM32H7xx_HAL_Driver/Src/stm32h7xx_hal_ltdc.c ****   {
 592:./Libraries/STM32H7xx_HAL_Driver/Src/stm32h7xx_hal_ltdc.c ****     /* Disable the transfer Error interrupt */
 593:./Libraries/STM32H7xx_HAL_Driver/Src/stm32h7xx_hal_ltdc.c ****     __HAL_LTDC_DISABLE_IT(hltdc, LTDC_IT_TE);
 530              		.loc 1 593 5
 531 002c 7B68     		ldr	r3, [r7, #4]
 532 002e 1B68     		ldr	r3, [r3]
 533 0030 5A6B     		ldr	r2, [r3, #52]
 534 0032 7B68     		ldr	r3, [r7, #4]
 535 0034 1B68     		ldr	r3, [r3]
 536 0036 22F00402 		bic	r2, r2, #4
 537 003a 5A63     		str	r2, [r3, #52]
 594:./Libraries/STM32H7xx_HAL_Driver/Src/stm32h7xx_hal_ltdc.c **** 
 595:./Libraries/STM32H7xx_HAL_Driver/Src/stm32h7xx_hal_ltdc.c ****     /* Clear the transfer error flag */
 596:./Libraries/STM32H7xx_HAL_Driver/Src/stm32h7xx_hal_ltdc.c ****     __HAL_LTDC_CLEAR_FLAG(hltdc, LTDC_FLAG_TE);
 538              		.loc 1 596 5
 539 003c 7B68     		ldr	r3, [r7, #4]
 540 003e 1B68     		ldr	r3, [r3]
 541 0040 0422     		movs	r2, #4
 542 0042 DA63     		str	r2, [r3, #60]
 597:./Libraries/STM32H7xx_HAL_Driver/Src/stm32h7xx_hal_ltdc.c **** 
 598:./Libraries/STM32H7xx_HAL_Driver/Src/stm32h7xx_hal_ltdc.c ****     /* Update error code */
 599:./Libraries/STM32H7xx_HAL_Driver/Src/stm32h7xx_hal_ltdc.c ****     hltdc->ErrorCode |= HAL_LTDC_ERROR_TE;
 543              		.loc 1 599 22
 544 0044 7B68     		ldr	r3, [r7, #4]
 545 0046 D3F8A430 		ldr	r3, [r3, #164]
 546 004a 43F00102 		orr	r2, r3, #1
 547 004e 7B68     		ldr	r3, [r7, #4]
ARM GAS  /tmp/cc7azozz.s 			page 21


 548 0050 C3F8A420 		str	r2, [r3, #164]
 600:./Libraries/STM32H7xx_HAL_Driver/Src/stm32h7xx_hal_ltdc.c **** 
 601:./Libraries/STM32H7xx_HAL_Driver/Src/stm32h7xx_hal_ltdc.c ****     /* Change LTDC state */
 602:./Libraries/STM32H7xx_HAL_Driver/Src/stm32h7xx_hal_ltdc.c ****     hltdc->State = HAL_LTDC_STATE_ERROR;
 549              		.loc 1 602 18
 550 0054 7B68     		ldr	r3, [r7, #4]
 551 0056 0422     		movs	r2, #4
 552 0058 83F8A120 		strb	r2, [r3, #161]
 603:./Libraries/STM32H7xx_HAL_Driver/Src/stm32h7xx_hal_ltdc.c **** 
 604:./Libraries/STM32H7xx_HAL_Driver/Src/stm32h7xx_hal_ltdc.c ****     /* Process unlocked */
 605:./Libraries/STM32H7xx_HAL_Driver/Src/stm32h7xx_hal_ltdc.c ****     __HAL_UNLOCK(hltdc);
 553              		.loc 1 605 5
 554 005c 7B68     		ldr	r3, [r7, #4]
 555 005e 0022     		movs	r2, #0
 556 0060 83F8A020 		strb	r2, [r3, #160]
 606:./Libraries/STM32H7xx_HAL_Driver/Src/stm32h7xx_hal_ltdc.c **** 
 607:./Libraries/STM32H7xx_HAL_Driver/Src/stm32h7xx_hal_ltdc.c ****     /* Transfer error Callback */
 608:./Libraries/STM32H7xx_HAL_Driver/Src/stm32h7xx_hal_ltdc.c **** #if (USE_HAL_LTDC_REGISTER_CALLBACKS == 1)
 609:./Libraries/STM32H7xx_HAL_Driver/Src/stm32h7xx_hal_ltdc.c ****     /*Call registered error callback*/
 610:./Libraries/STM32H7xx_HAL_Driver/Src/stm32h7xx_hal_ltdc.c ****     hltdc->ErrorCallback(hltdc);
 611:./Libraries/STM32H7xx_HAL_Driver/Src/stm32h7xx_hal_ltdc.c **** #else
 612:./Libraries/STM32H7xx_HAL_Driver/Src/stm32h7xx_hal_ltdc.c ****     /* Call legacy error callback*/
 613:./Libraries/STM32H7xx_HAL_Driver/Src/stm32h7xx_hal_ltdc.c ****     HAL_LTDC_ErrorCallback(hltdc);
 557              		.loc 1 613 5
 558 0064 7868     		ldr	r0, [r7, #4]
 559 0066 FFF7FEFF 		bl	HAL_LTDC_ErrorCallback
 560              	.L12:
 614:./Libraries/STM32H7xx_HAL_Driver/Src/stm32h7xx_hal_ltdc.c **** #endif /* USE_HAL_LTDC_REGISTER_CALLBACKS */
 615:./Libraries/STM32H7xx_HAL_Driver/Src/stm32h7xx_hal_ltdc.c ****   }
 616:./Libraries/STM32H7xx_HAL_Driver/Src/stm32h7xx_hal_ltdc.c **** 
 617:./Libraries/STM32H7xx_HAL_Driver/Src/stm32h7xx_hal_ltdc.c ****   /* FIFO underrun Interrupt management ***************************************/
 618:./Libraries/STM32H7xx_HAL_Driver/Src/stm32h7xx_hal_ltdc.c ****   if (((isrflags & LTDC_ISR_FUIF) != 0U) && ((itsources & LTDC_IER_FUIE) != 0U))
 561              		.loc 1 618 18
 562 006a FB68     		ldr	r3, [r7, #12]
 563 006c 03F00203 		and	r3, r3, #2
 564              		.loc 1 618 6
 565 0070 002B     		cmp	r3, #0
 566 0072 23D0     		beq	.L13
 567              		.loc 1 618 57 discriminator 1
 568 0074 BB68     		ldr	r3, [r7, #8]
 569 0076 03F00203 		and	r3, r3, #2
 570              		.loc 1 618 42 discriminator 1
 571 007a 002B     		cmp	r3, #0
 572 007c 1ED0     		beq	.L13
 619:./Libraries/STM32H7xx_HAL_Driver/Src/stm32h7xx_hal_ltdc.c ****   {
 620:./Libraries/STM32H7xx_HAL_Driver/Src/stm32h7xx_hal_ltdc.c ****     /* Disable the FIFO underrun interrupt */
 621:./Libraries/STM32H7xx_HAL_Driver/Src/stm32h7xx_hal_ltdc.c ****     __HAL_LTDC_DISABLE_IT(hltdc, LTDC_IT_FU);
 573              		.loc 1 621 5
 574 007e 7B68     		ldr	r3, [r7, #4]
 575 0080 1B68     		ldr	r3, [r3]
 576 0082 5A6B     		ldr	r2, [r3, #52]
 577 0084 7B68     		ldr	r3, [r7, #4]
 578 0086 1B68     		ldr	r3, [r3]
 579 0088 22F00202 		bic	r2, r2, #2
 580 008c 5A63     		str	r2, [r3, #52]
 622:./Libraries/STM32H7xx_HAL_Driver/Src/stm32h7xx_hal_ltdc.c **** 
 623:./Libraries/STM32H7xx_HAL_Driver/Src/stm32h7xx_hal_ltdc.c ****     /* Clear the FIFO underrun flag */
ARM GAS  /tmp/cc7azozz.s 			page 22


 624:./Libraries/STM32H7xx_HAL_Driver/Src/stm32h7xx_hal_ltdc.c ****     __HAL_LTDC_CLEAR_FLAG(hltdc, LTDC_FLAG_FU);
 581              		.loc 1 624 5
 582 008e 7B68     		ldr	r3, [r7, #4]
 583 0090 1B68     		ldr	r3, [r3]
 584 0092 0222     		movs	r2, #2
 585 0094 DA63     		str	r2, [r3, #60]
 625:./Libraries/STM32H7xx_HAL_Driver/Src/stm32h7xx_hal_ltdc.c **** 
 626:./Libraries/STM32H7xx_HAL_Driver/Src/stm32h7xx_hal_ltdc.c ****     /* Update error code */
 627:./Libraries/STM32H7xx_HAL_Driver/Src/stm32h7xx_hal_ltdc.c ****     hltdc->ErrorCode |= HAL_LTDC_ERROR_FU;
 586              		.loc 1 627 22
 587 0096 7B68     		ldr	r3, [r7, #4]
 588 0098 D3F8A430 		ldr	r3, [r3, #164]
 589 009c 43F00202 		orr	r2, r3, #2
 590 00a0 7B68     		ldr	r3, [r7, #4]
 591 00a2 C3F8A420 		str	r2, [r3, #164]
 628:./Libraries/STM32H7xx_HAL_Driver/Src/stm32h7xx_hal_ltdc.c **** 
 629:./Libraries/STM32H7xx_HAL_Driver/Src/stm32h7xx_hal_ltdc.c ****     /* Change LTDC state */
 630:./Libraries/STM32H7xx_HAL_Driver/Src/stm32h7xx_hal_ltdc.c ****     hltdc->State = HAL_LTDC_STATE_ERROR;
 592              		.loc 1 630 18
 593 00a6 7B68     		ldr	r3, [r7, #4]
 594 00a8 0422     		movs	r2, #4
 595 00aa 83F8A120 		strb	r2, [r3, #161]
 631:./Libraries/STM32H7xx_HAL_Driver/Src/stm32h7xx_hal_ltdc.c **** 
 632:./Libraries/STM32H7xx_HAL_Driver/Src/stm32h7xx_hal_ltdc.c ****     /* Process unlocked */
 633:./Libraries/STM32H7xx_HAL_Driver/Src/stm32h7xx_hal_ltdc.c ****     __HAL_UNLOCK(hltdc);
 596              		.loc 1 633 5
 597 00ae 7B68     		ldr	r3, [r7, #4]
 598 00b0 0022     		movs	r2, #0
 599 00b2 83F8A020 		strb	r2, [r3, #160]
 634:./Libraries/STM32H7xx_HAL_Driver/Src/stm32h7xx_hal_ltdc.c **** 
 635:./Libraries/STM32H7xx_HAL_Driver/Src/stm32h7xx_hal_ltdc.c ****     /* Transfer error Callback */
 636:./Libraries/STM32H7xx_HAL_Driver/Src/stm32h7xx_hal_ltdc.c **** #if (USE_HAL_LTDC_REGISTER_CALLBACKS == 1)
 637:./Libraries/STM32H7xx_HAL_Driver/Src/stm32h7xx_hal_ltdc.c ****     /*Call registered error callback*/
 638:./Libraries/STM32H7xx_HAL_Driver/Src/stm32h7xx_hal_ltdc.c ****     hltdc->ErrorCallback(hltdc);
 639:./Libraries/STM32H7xx_HAL_Driver/Src/stm32h7xx_hal_ltdc.c **** #else
 640:./Libraries/STM32H7xx_HAL_Driver/Src/stm32h7xx_hal_ltdc.c ****     /* Call legacy error callback*/
 641:./Libraries/STM32H7xx_HAL_Driver/Src/stm32h7xx_hal_ltdc.c ****     HAL_LTDC_ErrorCallback(hltdc);
 600              		.loc 1 641 5
 601 00b6 7868     		ldr	r0, [r7, #4]
 602 00b8 FFF7FEFF 		bl	HAL_LTDC_ErrorCallback
 603              	.L13:
 642:./Libraries/STM32H7xx_HAL_Driver/Src/stm32h7xx_hal_ltdc.c **** #endif /* USE_HAL_LTDC_REGISTER_CALLBACKS */
 643:./Libraries/STM32H7xx_HAL_Driver/Src/stm32h7xx_hal_ltdc.c ****   }
 644:./Libraries/STM32H7xx_HAL_Driver/Src/stm32h7xx_hal_ltdc.c **** 
 645:./Libraries/STM32H7xx_HAL_Driver/Src/stm32h7xx_hal_ltdc.c ****   /* Line Interrupt management ************************************************/
 646:./Libraries/STM32H7xx_HAL_Driver/Src/stm32h7xx_hal_ltdc.c ****   if (((isrflags & LTDC_ISR_LIF) != 0U) && ((itsources & LTDC_IER_LIE) != 0U))
 604              		.loc 1 646 18
 605 00bc FB68     		ldr	r3, [r7, #12]
 606 00be 03F00103 		and	r3, r3, #1
 607              		.loc 1 646 6
 608 00c2 002B     		cmp	r3, #0
 609 00c4 1BD0     		beq	.L14
 610              		.loc 1 646 56 discriminator 1
 611 00c6 BB68     		ldr	r3, [r7, #8]
 612 00c8 03F00103 		and	r3, r3, #1
 613              		.loc 1 646 41 discriminator 1
 614 00cc 002B     		cmp	r3, #0
ARM GAS  /tmp/cc7azozz.s 			page 23


 615 00ce 16D0     		beq	.L14
 647:./Libraries/STM32H7xx_HAL_Driver/Src/stm32h7xx_hal_ltdc.c ****   {
 648:./Libraries/STM32H7xx_HAL_Driver/Src/stm32h7xx_hal_ltdc.c ****     /* Disable the Line interrupt */
 649:./Libraries/STM32H7xx_HAL_Driver/Src/stm32h7xx_hal_ltdc.c ****     __HAL_LTDC_DISABLE_IT(hltdc, LTDC_IT_LI);
 616              		.loc 1 649 5
 617 00d0 7B68     		ldr	r3, [r7, #4]
 618 00d2 1B68     		ldr	r3, [r3]
 619 00d4 5A6B     		ldr	r2, [r3, #52]
 620 00d6 7B68     		ldr	r3, [r7, #4]
 621 00d8 1B68     		ldr	r3, [r3]
 622 00da 22F00102 		bic	r2, r2, #1
 623 00de 5A63     		str	r2, [r3, #52]
 650:./Libraries/STM32H7xx_HAL_Driver/Src/stm32h7xx_hal_ltdc.c **** 
 651:./Libraries/STM32H7xx_HAL_Driver/Src/stm32h7xx_hal_ltdc.c ****     /* Clear the Line interrupt flag */
 652:./Libraries/STM32H7xx_HAL_Driver/Src/stm32h7xx_hal_ltdc.c ****     __HAL_LTDC_CLEAR_FLAG(hltdc, LTDC_FLAG_LI);
 624              		.loc 1 652 5
 625 00e0 7B68     		ldr	r3, [r7, #4]
 626 00e2 1B68     		ldr	r3, [r3]
 627 00e4 0122     		movs	r2, #1
 628 00e6 DA63     		str	r2, [r3, #60]
 653:./Libraries/STM32H7xx_HAL_Driver/Src/stm32h7xx_hal_ltdc.c **** 
 654:./Libraries/STM32H7xx_HAL_Driver/Src/stm32h7xx_hal_ltdc.c ****     /* Change LTDC state */
 655:./Libraries/STM32H7xx_HAL_Driver/Src/stm32h7xx_hal_ltdc.c ****     hltdc->State = HAL_LTDC_STATE_READY;
 629              		.loc 1 655 18
 630 00e8 7B68     		ldr	r3, [r7, #4]
 631 00ea 0122     		movs	r2, #1
 632 00ec 83F8A120 		strb	r2, [r3, #161]
 656:./Libraries/STM32H7xx_HAL_Driver/Src/stm32h7xx_hal_ltdc.c **** 
 657:./Libraries/STM32H7xx_HAL_Driver/Src/stm32h7xx_hal_ltdc.c ****     /* Process unlocked */
 658:./Libraries/STM32H7xx_HAL_Driver/Src/stm32h7xx_hal_ltdc.c ****     __HAL_UNLOCK(hltdc);
 633              		.loc 1 658 5
 634 00f0 7B68     		ldr	r3, [r7, #4]
 635 00f2 0022     		movs	r2, #0
 636 00f4 83F8A020 		strb	r2, [r3, #160]
 659:./Libraries/STM32H7xx_HAL_Driver/Src/stm32h7xx_hal_ltdc.c **** 
 660:./Libraries/STM32H7xx_HAL_Driver/Src/stm32h7xx_hal_ltdc.c ****     /* Line interrupt Callback */
 661:./Libraries/STM32H7xx_HAL_Driver/Src/stm32h7xx_hal_ltdc.c **** #if (USE_HAL_LTDC_REGISTER_CALLBACKS == 1)
 662:./Libraries/STM32H7xx_HAL_Driver/Src/stm32h7xx_hal_ltdc.c ****     /*Call registered Line Event callback */
 663:./Libraries/STM32H7xx_HAL_Driver/Src/stm32h7xx_hal_ltdc.c ****     hltdc->LineEventCallback(hltdc);
 664:./Libraries/STM32H7xx_HAL_Driver/Src/stm32h7xx_hal_ltdc.c **** #else
 665:./Libraries/STM32H7xx_HAL_Driver/Src/stm32h7xx_hal_ltdc.c ****     /*Call Legacy Line Event callback */
 666:./Libraries/STM32H7xx_HAL_Driver/Src/stm32h7xx_hal_ltdc.c ****     HAL_LTDC_LineEventCallback(hltdc);
 637              		.loc 1 666 5
 638 00f8 7868     		ldr	r0, [r7, #4]
 639 00fa FFF7FEFF 		bl	HAL_LTDC_LineEventCallback
 640              	.L14:
 667:./Libraries/STM32H7xx_HAL_Driver/Src/stm32h7xx_hal_ltdc.c **** #endif /* USE_HAL_LTDC_REGISTER_CALLBACKS */
 668:./Libraries/STM32H7xx_HAL_Driver/Src/stm32h7xx_hal_ltdc.c ****   }
 669:./Libraries/STM32H7xx_HAL_Driver/Src/stm32h7xx_hal_ltdc.c **** 
 670:./Libraries/STM32H7xx_HAL_Driver/Src/stm32h7xx_hal_ltdc.c ****   /* Register reload Interrupt management ***************************************/
 671:./Libraries/STM32H7xx_HAL_Driver/Src/stm32h7xx_hal_ltdc.c ****   if (((isrflags & LTDC_ISR_RRIF) != 0U) && ((itsources & LTDC_IER_RRIE) != 0U))
 641              		.loc 1 671 18
 642 00fe FB68     		ldr	r3, [r7, #12]
 643 0100 03F00803 		and	r3, r3, #8
 644              		.loc 1 671 6
 645 0104 002B     		cmp	r3, #0
 646 0106 1BD0     		beq	.L16
ARM GAS  /tmp/cc7azozz.s 			page 24


 647              		.loc 1 671 57 discriminator 1
 648 0108 BB68     		ldr	r3, [r7, #8]
 649 010a 03F00803 		and	r3, r3, #8
 650              		.loc 1 671 42 discriminator 1
 651 010e 002B     		cmp	r3, #0
 652 0110 16D0     		beq	.L16
 672:./Libraries/STM32H7xx_HAL_Driver/Src/stm32h7xx_hal_ltdc.c ****   {
 673:./Libraries/STM32H7xx_HAL_Driver/Src/stm32h7xx_hal_ltdc.c ****     /* Disable the register reload interrupt */
 674:./Libraries/STM32H7xx_HAL_Driver/Src/stm32h7xx_hal_ltdc.c ****     __HAL_LTDC_DISABLE_IT(hltdc, LTDC_IT_RR);
 653              		.loc 1 674 5
 654 0112 7B68     		ldr	r3, [r7, #4]
 655 0114 1B68     		ldr	r3, [r3]
 656 0116 5A6B     		ldr	r2, [r3, #52]
 657 0118 7B68     		ldr	r3, [r7, #4]
 658 011a 1B68     		ldr	r3, [r3]
 659 011c 22F00802 		bic	r2, r2, #8
 660 0120 5A63     		str	r2, [r3, #52]
 675:./Libraries/STM32H7xx_HAL_Driver/Src/stm32h7xx_hal_ltdc.c **** 
 676:./Libraries/STM32H7xx_HAL_Driver/Src/stm32h7xx_hal_ltdc.c ****     /* Clear the register reload flag */
 677:./Libraries/STM32H7xx_HAL_Driver/Src/stm32h7xx_hal_ltdc.c ****     __HAL_LTDC_CLEAR_FLAG(hltdc, LTDC_FLAG_RR);
 661              		.loc 1 677 5
 662 0122 7B68     		ldr	r3, [r7, #4]
 663 0124 1B68     		ldr	r3, [r3]
 664 0126 0822     		movs	r2, #8
 665 0128 DA63     		str	r2, [r3, #60]
 678:./Libraries/STM32H7xx_HAL_Driver/Src/stm32h7xx_hal_ltdc.c **** 
 679:./Libraries/STM32H7xx_HAL_Driver/Src/stm32h7xx_hal_ltdc.c ****     /* Change LTDC state */
 680:./Libraries/STM32H7xx_HAL_Driver/Src/stm32h7xx_hal_ltdc.c ****     hltdc->State = HAL_LTDC_STATE_READY;
 666              		.loc 1 680 18
 667 012a 7B68     		ldr	r3, [r7, #4]
 668 012c 0122     		movs	r2, #1
 669 012e 83F8A120 		strb	r2, [r3, #161]
 681:./Libraries/STM32H7xx_HAL_Driver/Src/stm32h7xx_hal_ltdc.c **** 
 682:./Libraries/STM32H7xx_HAL_Driver/Src/stm32h7xx_hal_ltdc.c ****     /* Process unlocked */
 683:./Libraries/STM32H7xx_HAL_Driver/Src/stm32h7xx_hal_ltdc.c ****     __HAL_UNLOCK(hltdc);
 670              		.loc 1 683 5
 671 0132 7B68     		ldr	r3, [r7, #4]
 672 0134 0022     		movs	r2, #0
 673 0136 83F8A020 		strb	r2, [r3, #160]
 684:./Libraries/STM32H7xx_HAL_Driver/Src/stm32h7xx_hal_ltdc.c **** 
 685:./Libraries/STM32H7xx_HAL_Driver/Src/stm32h7xx_hal_ltdc.c ****     /* Reload interrupt Callback */
 686:./Libraries/STM32H7xx_HAL_Driver/Src/stm32h7xx_hal_ltdc.c **** #if (USE_HAL_LTDC_REGISTER_CALLBACKS == 1)
 687:./Libraries/STM32H7xx_HAL_Driver/Src/stm32h7xx_hal_ltdc.c ****     /*Call registered reload Event callback */
 688:./Libraries/STM32H7xx_HAL_Driver/Src/stm32h7xx_hal_ltdc.c ****     hltdc->ReloadEventCallback(hltdc);
 689:./Libraries/STM32H7xx_HAL_Driver/Src/stm32h7xx_hal_ltdc.c **** #else
 690:./Libraries/STM32H7xx_HAL_Driver/Src/stm32h7xx_hal_ltdc.c ****     /*Call Legacy Reload Event callback */
 691:./Libraries/STM32H7xx_HAL_Driver/Src/stm32h7xx_hal_ltdc.c ****     HAL_LTDC_ReloadEventCallback(hltdc);
 674              		.loc 1 691 5
 675 013a 7868     		ldr	r0, [r7, #4]
 676 013c FFF7FEFF 		bl	HAL_LTDC_ReloadEventCallback
 677              	.L16:
 692:./Libraries/STM32H7xx_HAL_Driver/Src/stm32h7xx_hal_ltdc.c **** #endif /* USE_HAL_LTDC_REGISTER_CALLBACKS */
 693:./Libraries/STM32H7xx_HAL_Driver/Src/stm32h7xx_hal_ltdc.c ****   }
 694:./Libraries/STM32H7xx_HAL_Driver/Src/stm32h7xx_hal_ltdc.c **** }
 678              		.loc 1 694 1
 679 0140 00BF     		nop
 680 0142 1037     		adds	r7, r7, #16
ARM GAS  /tmp/cc7azozz.s 			page 25


 681              	.LCFI25:
 682              		.cfi_def_cfa_offset 8
 683 0144 BD46     		mov	sp, r7
 684              	.LCFI26:
 685              		.cfi_def_cfa_register 13
 686              		@ sp needed
 687 0146 80BD     		pop	{r7, pc}
 688              		.cfi_endproc
 689              	.LFE335:
 691              		.section	.text.HAL_LTDC_ErrorCallback,"ax",%progbits
 692              		.align	1
 693              		.weak	HAL_LTDC_ErrorCallback
 694              		.syntax unified
 695              		.thumb
 696              		.thumb_func
 697              		.fpu fpv5-d16
 699              	HAL_LTDC_ErrorCallback:
 700              	.LFB336:
 695:./Libraries/STM32H7xx_HAL_Driver/Src/stm32h7xx_hal_ltdc.c **** 
 696:./Libraries/STM32H7xx_HAL_Driver/Src/stm32h7xx_hal_ltdc.c **** /**
 697:./Libraries/STM32H7xx_HAL_Driver/Src/stm32h7xx_hal_ltdc.c ****   * @brief  Error LTDC callback.
 698:./Libraries/STM32H7xx_HAL_Driver/Src/stm32h7xx_hal_ltdc.c ****   * @param  hltdc  pointer to a LTDC_HandleTypeDef structure that contains
 699:./Libraries/STM32H7xx_HAL_Driver/Src/stm32h7xx_hal_ltdc.c ****   *                the configuration information for the LTDC.
 700:./Libraries/STM32H7xx_HAL_Driver/Src/stm32h7xx_hal_ltdc.c ****   * @retval None
 701:./Libraries/STM32H7xx_HAL_Driver/Src/stm32h7xx_hal_ltdc.c ****   */
 702:./Libraries/STM32H7xx_HAL_Driver/Src/stm32h7xx_hal_ltdc.c **** __weak void HAL_LTDC_ErrorCallback(LTDC_HandleTypeDef *hltdc)
 703:./Libraries/STM32H7xx_HAL_Driver/Src/stm32h7xx_hal_ltdc.c **** {
 701              		.loc 1 703 1
 702              		.cfi_startproc
 703              		@ args = 0, pretend = 0, frame = 8
 704              		@ frame_needed = 1, uses_anonymous_args = 0
 705              		@ link register save eliminated.
 706 0000 80B4     		push	{r7}
 707              	.LCFI27:
 708              		.cfi_def_cfa_offset 4
 709              		.cfi_offset 7, -4
 710 0002 83B0     		sub	sp, sp, #12
 711              	.LCFI28:
 712              		.cfi_def_cfa_offset 16
 713 0004 00AF     		add	r7, sp, #0
 714              	.LCFI29:
 715              		.cfi_def_cfa_register 7
 716 0006 7860     		str	r0, [r7, #4]
 704:./Libraries/STM32H7xx_HAL_Driver/Src/stm32h7xx_hal_ltdc.c ****   /* Prevent unused argument(s) compilation warning */
 705:./Libraries/STM32H7xx_HAL_Driver/Src/stm32h7xx_hal_ltdc.c ****   UNUSED(hltdc);
 706:./Libraries/STM32H7xx_HAL_Driver/Src/stm32h7xx_hal_ltdc.c **** 
 707:./Libraries/STM32H7xx_HAL_Driver/Src/stm32h7xx_hal_ltdc.c ****   /* NOTE : This function should not be modified, when the callback is needed,
 708:./Libraries/STM32H7xx_HAL_Driver/Src/stm32h7xx_hal_ltdc.c ****             the HAL_LTDC_ErrorCallback could be implemented in the user file
 709:./Libraries/STM32H7xx_HAL_Driver/Src/stm32h7xx_hal_ltdc.c ****    */
 710:./Libraries/STM32H7xx_HAL_Driver/Src/stm32h7xx_hal_ltdc.c **** }
 717              		.loc 1 710 1
 718 0008 00BF     		nop
 719 000a 0C37     		adds	r7, r7, #12
 720              	.LCFI30:
 721              		.cfi_def_cfa_offset 4
 722 000c BD46     		mov	sp, r7
 723              	.LCFI31:
ARM GAS  /tmp/cc7azozz.s 			page 26


 724              		.cfi_def_cfa_register 13
 725              		@ sp needed
 726 000e 5DF8047B 		ldr	r7, [sp], #4
 727              	.LCFI32:
 728              		.cfi_restore 7
 729              		.cfi_def_cfa_offset 0
 730 0012 7047     		bx	lr
 731              		.cfi_endproc
 732              	.LFE336:
 734              		.section	.text.HAL_LTDC_LineEventCallback,"ax",%progbits
 735              		.align	1
 736              		.weak	HAL_LTDC_LineEventCallback
 737              		.syntax unified
 738              		.thumb
 739              		.thumb_func
 740              		.fpu fpv5-d16
 742              	HAL_LTDC_LineEventCallback:
 743              	.LFB337:
 711:./Libraries/STM32H7xx_HAL_Driver/Src/stm32h7xx_hal_ltdc.c **** 
 712:./Libraries/STM32H7xx_HAL_Driver/Src/stm32h7xx_hal_ltdc.c **** /**
 713:./Libraries/STM32H7xx_HAL_Driver/Src/stm32h7xx_hal_ltdc.c ****   * @brief  Line Event callback.
 714:./Libraries/STM32H7xx_HAL_Driver/Src/stm32h7xx_hal_ltdc.c ****   * @param  hltdc  pointer to a LTDC_HandleTypeDef structure that contains
 715:./Libraries/STM32H7xx_HAL_Driver/Src/stm32h7xx_hal_ltdc.c ****   *                the configuration information for the LTDC.
 716:./Libraries/STM32H7xx_HAL_Driver/Src/stm32h7xx_hal_ltdc.c ****   * @retval None
 717:./Libraries/STM32H7xx_HAL_Driver/Src/stm32h7xx_hal_ltdc.c ****   */
 718:./Libraries/STM32H7xx_HAL_Driver/Src/stm32h7xx_hal_ltdc.c **** __weak void HAL_LTDC_LineEventCallback(LTDC_HandleTypeDef *hltdc)
 719:./Libraries/STM32H7xx_HAL_Driver/Src/stm32h7xx_hal_ltdc.c **** {
 744              		.loc 1 719 1
 745              		.cfi_startproc
 746              		@ args = 0, pretend = 0, frame = 8
 747              		@ frame_needed = 1, uses_anonymous_args = 0
 748              		@ link register save eliminated.
 749 0000 80B4     		push	{r7}
 750              	.LCFI33:
 751              		.cfi_def_cfa_offset 4
 752              		.cfi_offset 7, -4
 753 0002 83B0     		sub	sp, sp, #12
 754              	.LCFI34:
 755              		.cfi_def_cfa_offset 16
 756 0004 00AF     		add	r7, sp, #0
 757              	.LCFI35:
 758              		.cfi_def_cfa_register 7
 759 0006 7860     		str	r0, [r7, #4]
 720:./Libraries/STM32H7xx_HAL_Driver/Src/stm32h7xx_hal_ltdc.c ****   /* Prevent unused argument(s) compilation warning */
 721:./Libraries/STM32H7xx_HAL_Driver/Src/stm32h7xx_hal_ltdc.c ****   UNUSED(hltdc);
 722:./Libraries/STM32H7xx_HAL_Driver/Src/stm32h7xx_hal_ltdc.c **** 
 723:./Libraries/STM32H7xx_HAL_Driver/Src/stm32h7xx_hal_ltdc.c ****   /* NOTE : This function should not be modified, when the callback is needed,
 724:./Libraries/STM32H7xx_HAL_Driver/Src/stm32h7xx_hal_ltdc.c ****             the HAL_LTDC_LineEventCallback could be implemented in the user file
 725:./Libraries/STM32H7xx_HAL_Driver/Src/stm32h7xx_hal_ltdc.c ****    */
 726:./Libraries/STM32H7xx_HAL_Driver/Src/stm32h7xx_hal_ltdc.c **** }
 760              		.loc 1 726 1
 761 0008 00BF     		nop
 762 000a 0C37     		adds	r7, r7, #12
 763              	.LCFI36:
 764              		.cfi_def_cfa_offset 4
 765 000c BD46     		mov	sp, r7
 766              	.LCFI37:
ARM GAS  /tmp/cc7azozz.s 			page 27


 767              		.cfi_def_cfa_register 13
 768              		@ sp needed
 769 000e 5DF8047B 		ldr	r7, [sp], #4
 770              	.LCFI38:
 771              		.cfi_restore 7
 772              		.cfi_def_cfa_offset 0
 773 0012 7047     		bx	lr
 774              		.cfi_endproc
 775              	.LFE337:
 777              		.section	.text.HAL_LTDC_ReloadEventCallback,"ax",%progbits
 778              		.align	1
 779              		.weak	HAL_LTDC_ReloadEventCallback
 780              		.syntax unified
 781              		.thumb
 782              		.thumb_func
 783              		.fpu fpv5-d16
 785              	HAL_LTDC_ReloadEventCallback:
 786              	.LFB338:
 727:./Libraries/STM32H7xx_HAL_Driver/Src/stm32h7xx_hal_ltdc.c **** 
 728:./Libraries/STM32H7xx_HAL_Driver/Src/stm32h7xx_hal_ltdc.c **** /**
 729:./Libraries/STM32H7xx_HAL_Driver/Src/stm32h7xx_hal_ltdc.c ****   * @brief  Reload Event callback.
 730:./Libraries/STM32H7xx_HAL_Driver/Src/stm32h7xx_hal_ltdc.c ****   * @param  hltdc  pointer to a LTDC_HandleTypeDef structure that contains
 731:./Libraries/STM32H7xx_HAL_Driver/Src/stm32h7xx_hal_ltdc.c ****   *                the configuration information for the LTDC.
 732:./Libraries/STM32H7xx_HAL_Driver/Src/stm32h7xx_hal_ltdc.c ****   * @retval None
 733:./Libraries/STM32H7xx_HAL_Driver/Src/stm32h7xx_hal_ltdc.c ****   */
 734:./Libraries/STM32H7xx_HAL_Driver/Src/stm32h7xx_hal_ltdc.c **** __weak void HAL_LTDC_ReloadEventCallback(LTDC_HandleTypeDef *hltdc)
 735:./Libraries/STM32H7xx_HAL_Driver/Src/stm32h7xx_hal_ltdc.c **** {
 787              		.loc 1 735 1
 788              		.cfi_startproc
 789              		@ args = 0, pretend = 0, frame = 8
 790              		@ frame_needed = 1, uses_anonymous_args = 0
 791              		@ link register save eliminated.
 792 0000 80B4     		push	{r7}
 793              	.LCFI39:
 794              		.cfi_def_cfa_offset 4
 795              		.cfi_offset 7, -4
 796 0002 83B0     		sub	sp, sp, #12
 797              	.LCFI40:
 798              		.cfi_def_cfa_offset 16
 799 0004 00AF     		add	r7, sp, #0
 800              	.LCFI41:
 801              		.cfi_def_cfa_register 7
 802 0006 7860     		str	r0, [r7, #4]
 736:./Libraries/STM32H7xx_HAL_Driver/Src/stm32h7xx_hal_ltdc.c ****   /* Prevent unused argument(s) compilation warning */
 737:./Libraries/STM32H7xx_HAL_Driver/Src/stm32h7xx_hal_ltdc.c ****   UNUSED(hltdc);
 738:./Libraries/STM32H7xx_HAL_Driver/Src/stm32h7xx_hal_ltdc.c **** 
 739:./Libraries/STM32H7xx_HAL_Driver/Src/stm32h7xx_hal_ltdc.c ****   /* NOTE : This function should not be modified, when the callback is needed,
 740:./Libraries/STM32H7xx_HAL_Driver/Src/stm32h7xx_hal_ltdc.c ****             the HAL_LTDC_ReloadEvenCallback could be implemented in the user file
 741:./Libraries/STM32H7xx_HAL_Driver/Src/stm32h7xx_hal_ltdc.c ****    */
 742:./Libraries/STM32H7xx_HAL_Driver/Src/stm32h7xx_hal_ltdc.c **** }
 803              		.loc 1 742 1
 804 0008 00BF     		nop
 805 000a 0C37     		adds	r7, r7, #12
 806              	.LCFI42:
 807              		.cfi_def_cfa_offset 4
 808 000c BD46     		mov	sp, r7
 809              	.LCFI43:
ARM GAS  /tmp/cc7azozz.s 			page 28


 810              		.cfi_def_cfa_register 13
 811              		@ sp needed
 812 000e 5DF8047B 		ldr	r7, [sp], #4
 813              	.LCFI44:
 814              		.cfi_restore 7
 815              		.cfi_def_cfa_offset 0
 816 0012 7047     		bx	lr
 817              		.cfi_endproc
 818              	.LFE338:
 820              		.section	.text.HAL_LTDC_ConfigLayer,"ax",%progbits
 821              		.align	1
 822              		.global	HAL_LTDC_ConfigLayer
 823              		.syntax unified
 824              		.thumb
 825              		.thumb_func
 826              		.fpu fpv5-d16
 828              	HAL_LTDC_ConfigLayer:
 829              	.LFB339:
 743:./Libraries/STM32H7xx_HAL_Driver/Src/stm32h7xx_hal_ltdc.c **** 
 744:./Libraries/STM32H7xx_HAL_Driver/Src/stm32h7xx_hal_ltdc.c **** /**
 745:./Libraries/STM32H7xx_HAL_Driver/Src/stm32h7xx_hal_ltdc.c ****   * @}
 746:./Libraries/STM32H7xx_HAL_Driver/Src/stm32h7xx_hal_ltdc.c ****   */
 747:./Libraries/STM32H7xx_HAL_Driver/Src/stm32h7xx_hal_ltdc.c **** 
 748:./Libraries/STM32H7xx_HAL_Driver/Src/stm32h7xx_hal_ltdc.c **** /** @defgroup LTDC_Exported_Functions_Group3 Peripheral Control functions
 749:./Libraries/STM32H7xx_HAL_Driver/Src/stm32h7xx_hal_ltdc.c ****   *  @brief    Peripheral Control functions
 750:./Libraries/STM32H7xx_HAL_Driver/Src/stm32h7xx_hal_ltdc.c ****   *
 751:./Libraries/STM32H7xx_HAL_Driver/Src/stm32h7xx_hal_ltdc.c **** @verbatim
 752:./Libraries/STM32H7xx_HAL_Driver/Src/stm32h7xx_hal_ltdc.c ****  ===============================================================================
 753:./Libraries/STM32H7xx_HAL_Driver/Src/stm32h7xx_hal_ltdc.c ****                     ##### Peripheral Control functions #####
 754:./Libraries/STM32H7xx_HAL_Driver/Src/stm32h7xx_hal_ltdc.c ****  ===============================================================================
 755:./Libraries/STM32H7xx_HAL_Driver/Src/stm32h7xx_hal_ltdc.c ****     [..]  This section provides functions allowing to:
 756:./Libraries/STM32H7xx_HAL_Driver/Src/stm32h7xx_hal_ltdc.c ****       (+) Configure the LTDC foreground or/and background parameters.
 757:./Libraries/STM32H7xx_HAL_Driver/Src/stm32h7xx_hal_ltdc.c ****       (+) Set the active layer.
 758:./Libraries/STM32H7xx_HAL_Driver/Src/stm32h7xx_hal_ltdc.c ****       (+) Configure the color keying.
 759:./Libraries/STM32H7xx_HAL_Driver/Src/stm32h7xx_hal_ltdc.c ****       (+) Configure the C-LUT.
 760:./Libraries/STM32H7xx_HAL_Driver/Src/stm32h7xx_hal_ltdc.c ****       (+) Enable / Disable the color keying.
 761:./Libraries/STM32H7xx_HAL_Driver/Src/stm32h7xx_hal_ltdc.c ****       (+) Enable / Disable the C-LUT.
 762:./Libraries/STM32H7xx_HAL_Driver/Src/stm32h7xx_hal_ltdc.c ****       (+) Update the layer position.
 763:./Libraries/STM32H7xx_HAL_Driver/Src/stm32h7xx_hal_ltdc.c ****       (+) Update the layer size.
 764:./Libraries/STM32H7xx_HAL_Driver/Src/stm32h7xx_hal_ltdc.c ****       (+) Update pixel format on the fly.
 765:./Libraries/STM32H7xx_HAL_Driver/Src/stm32h7xx_hal_ltdc.c ****       (+) Update transparency on the fly.
 766:./Libraries/STM32H7xx_HAL_Driver/Src/stm32h7xx_hal_ltdc.c ****       (+) Update address on the fly.
 767:./Libraries/STM32H7xx_HAL_Driver/Src/stm32h7xx_hal_ltdc.c **** 
 768:./Libraries/STM32H7xx_HAL_Driver/Src/stm32h7xx_hal_ltdc.c **** @endverbatim
 769:./Libraries/STM32H7xx_HAL_Driver/Src/stm32h7xx_hal_ltdc.c ****   * @{
 770:./Libraries/STM32H7xx_HAL_Driver/Src/stm32h7xx_hal_ltdc.c ****   */
 771:./Libraries/STM32H7xx_HAL_Driver/Src/stm32h7xx_hal_ltdc.c **** 
 772:./Libraries/STM32H7xx_HAL_Driver/Src/stm32h7xx_hal_ltdc.c **** /**
 773:./Libraries/STM32H7xx_HAL_Driver/Src/stm32h7xx_hal_ltdc.c ****   * @brief  Configure the LTDC Layer according to the specified
 774:./Libraries/STM32H7xx_HAL_Driver/Src/stm32h7xx_hal_ltdc.c ****   *         parameters in the LTDC_InitTypeDef and create the associated handle.
 775:./Libraries/STM32H7xx_HAL_Driver/Src/stm32h7xx_hal_ltdc.c ****   * @param  hltdc      pointer to a LTDC_HandleTypeDef structure that contains
 776:./Libraries/STM32H7xx_HAL_Driver/Src/stm32h7xx_hal_ltdc.c ****   *                    the configuration information for the LTDC.
 777:./Libraries/STM32H7xx_HAL_Driver/Src/stm32h7xx_hal_ltdc.c ****   * @param  pLayerCfg  pointer to a LTDC_LayerCfgTypeDef structure that contains
 778:./Libraries/STM32H7xx_HAL_Driver/Src/stm32h7xx_hal_ltdc.c ****   *                    the configuration information for the Layer.
 779:./Libraries/STM32H7xx_HAL_Driver/Src/stm32h7xx_hal_ltdc.c ****   * @param  LayerIdx  LTDC Layer index.
 780:./Libraries/STM32H7xx_HAL_Driver/Src/stm32h7xx_hal_ltdc.c ****   *                    This parameter can be one of the following values:
 781:./Libraries/STM32H7xx_HAL_Driver/Src/stm32h7xx_hal_ltdc.c ****   *                    LTDC_LAYER_1 (0) or LTDC_LAYER_2 (1)
ARM GAS  /tmp/cc7azozz.s 			page 29


 782:./Libraries/STM32H7xx_HAL_Driver/Src/stm32h7xx_hal_ltdc.c ****   * @retval HAL status
 783:./Libraries/STM32H7xx_HAL_Driver/Src/stm32h7xx_hal_ltdc.c ****   */
 784:./Libraries/STM32H7xx_HAL_Driver/Src/stm32h7xx_hal_ltdc.c **** HAL_StatusTypeDef HAL_LTDC_ConfigLayer(LTDC_HandleTypeDef *hltdc, LTDC_LayerCfgTypeDef *pLayerCfg, 
 785:./Libraries/STM32H7xx_HAL_Driver/Src/stm32h7xx_hal_ltdc.c **** {
 830              		.loc 1 785 1
 831              		.cfi_startproc
 832              		@ args = 0, pretend = 0, frame = 16
 833              		@ frame_needed = 1, uses_anonymous_args = 0
 834 0000 B0B5     		push	{r4, r5, r7, lr}
 835              	.LCFI45:
 836              		.cfi_def_cfa_offset 16
 837              		.cfi_offset 4, -16
 838              		.cfi_offset 5, -12
 839              		.cfi_offset 7, -8
 840              		.cfi_offset 14, -4
 841 0002 84B0     		sub	sp, sp, #16
 842              	.LCFI46:
 843              		.cfi_def_cfa_offset 32
 844 0004 00AF     		add	r7, sp, #0
 845              	.LCFI47:
 846              		.cfi_def_cfa_register 7
 847 0006 F860     		str	r0, [r7, #12]
 848 0008 B960     		str	r1, [r7, #8]
 849 000a 7A60     		str	r2, [r7, #4]
 786:./Libraries/STM32H7xx_HAL_Driver/Src/stm32h7xx_hal_ltdc.c ****   /* Check the parameters */
 787:./Libraries/STM32H7xx_HAL_Driver/Src/stm32h7xx_hal_ltdc.c ****   assert_param(IS_LTDC_LAYER(LayerIdx));
 788:./Libraries/STM32H7xx_HAL_Driver/Src/stm32h7xx_hal_ltdc.c ****   assert_param(IS_LTDC_HCONFIGST(pLayerCfg->WindowX0));
 789:./Libraries/STM32H7xx_HAL_Driver/Src/stm32h7xx_hal_ltdc.c ****   assert_param(IS_LTDC_HCONFIGSP(pLayerCfg->WindowX1));
 790:./Libraries/STM32H7xx_HAL_Driver/Src/stm32h7xx_hal_ltdc.c ****   assert_param(IS_LTDC_VCONFIGST(pLayerCfg->WindowY0));
 791:./Libraries/STM32H7xx_HAL_Driver/Src/stm32h7xx_hal_ltdc.c ****   assert_param(IS_LTDC_VCONFIGSP(pLayerCfg->WindowY1));
 792:./Libraries/STM32H7xx_HAL_Driver/Src/stm32h7xx_hal_ltdc.c ****   assert_param(IS_LTDC_PIXEL_FORMAT(pLayerCfg->PixelFormat));
 793:./Libraries/STM32H7xx_HAL_Driver/Src/stm32h7xx_hal_ltdc.c ****   assert_param(IS_LTDC_ALPHA(pLayerCfg->Alpha));
 794:./Libraries/STM32H7xx_HAL_Driver/Src/stm32h7xx_hal_ltdc.c ****   assert_param(IS_LTDC_ALPHA(pLayerCfg->Alpha0));
 795:./Libraries/STM32H7xx_HAL_Driver/Src/stm32h7xx_hal_ltdc.c ****   assert_param(IS_LTDC_BLENDING_FACTOR1(pLayerCfg->BlendingFactor1));
 796:./Libraries/STM32H7xx_HAL_Driver/Src/stm32h7xx_hal_ltdc.c ****   assert_param(IS_LTDC_BLENDING_FACTOR2(pLayerCfg->BlendingFactor2));
 797:./Libraries/STM32H7xx_HAL_Driver/Src/stm32h7xx_hal_ltdc.c ****   assert_param(IS_LTDC_CFBLL(pLayerCfg->ImageWidth));
 798:./Libraries/STM32H7xx_HAL_Driver/Src/stm32h7xx_hal_ltdc.c ****   assert_param(IS_LTDC_CFBLNBR(pLayerCfg->ImageHeight));
 799:./Libraries/STM32H7xx_HAL_Driver/Src/stm32h7xx_hal_ltdc.c **** 
 800:./Libraries/STM32H7xx_HAL_Driver/Src/stm32h7xx_hal_ltdc.c ****   /* Process locked */
 801:./Libraries/STM32H7xx_HAL_Driver/Src/stm32h7xx_hal_ltdc.c ****   __HAL_LOCK(hltdc);
 850              		.loc 1 801 3
 851 000c FB68     		ldr	r3, [r7, #12]
 852 000e 93F8A030 		ldrb	r3, [r3, #160]	@ zero_extendqisi2
 853 0012 012B     		cmp	r3, #1
 854 0014 01D1     		bne	.L21
 855              		.loc 1 801 3 is_stmt 0 discriminator 1
 856 0016 0223     		movs	r3, #2
 857 0018 2CE0     		b	.L22
 858              	.L21:
 859              		.loc 1 801 3 discriminator 2
 860 001a FB68     		ldr	r3, [r7, #12]
 861 001c 0122     		movs	r2, #1
 862 001e 83F8A020 		strb	r2, [r3, #160]
 802:./Libraries/STM32H7xx_HAL_Driver/Src/stm32h7xx_hal_ltdc.c **** 
 803:./Libraries/STM32H7xx_HAL_Driver/Src/stm32h7xx_hal_ltdc.c ****   /* Change LTDC peripheral state */
 804:./Libraries/STM32H7xx_HAL_Driver/Src/stm32h7xx_hal_ltdc.c ****   hltdc->State = HAL_LTDC_STATE_BUSY;
 863              		.loc 1 804 16 is_stmt 1 discriminator 2
ARM GAS  /tmp/cc7azozz.s 			page 30


 864 0022 FB68     		ldr	r3, [r7, #12]
 865 0024 0222     		movs	r2, #2
 866 0026 83F8A120 		strb	r2, [r3, #161]
 805:./Libraries/STM32H7xx_HAL_Driver/Src/stm32h7xx_hal_ltdc.c **** 
 806:./Libraries/STM32H7xx_HAL_Driver/Src/stm32h7xx_hal_ltdc.c ****   /* Copy new layer configuration into handle structure */
 807:./Libraries/STM32H7xx_HAL_Driver/Src/stm32h7xx_hal_ltdc.c ****   hltdc->LayerCfg[LayerIdx] = *pLayerCfg;
 867              		.loc 1 807 29 discriminator 2
 868 002a FA68     		ldr	r2, [r7, #12]
 869 002c 7B68     		ldr	r3, [r7, #4]
 870 002e 3421     		movs	r1, #52
 871 0030 01FB03F3 		mul	r3, r1, r3
 872 0034 1344     		add	r3, r3, r2
 873 0036 03F13802 		add	r2, r3, #56
 874 003a BB68     		ldr	r3, [r7, #8]
 875 003c 1446     		mov	r4, r2
 876 003e 1D46     		mov	r5, r3
 877 0040 0FCD     		ldmia	r5!, {r0, r1, r2, r3}
 878 0042 0FC4     		stmia	r4!, {r0, r1, r2, r3}
 879 0044 0FCD     		ldmia	r5!, {r0, r1, r2, r3}
 880 0046 0FC4     		stmia	r4!, {r0, r1, r2, r3}
 881 0048 0FCD     		ldmia	r5!, {r0, r1, r2, r3}
 882 004a 0FC4     		stmia	r4!, {r0, r1, r2, r3}
 883 004c 2B68     		ldr	r3, [r5]
 884 004e 2360     		str	r3, [r4]
 808:./Libraries/STM32H7xx_HAL_Driver/Src/stm32h7xx_hal_ltdc.c **** 
 809:./Libraries/STM32H7xx_HAL_Driver/Src/stm32h7xx_hal_ltdc.c ****   /* Configure the LTDC Layer */
 810:./Libraries/STM32H7xx_HAL_Driver/Src/stm32h7xx_hal_ltdc.c ****   LTDC_SetConfig(hltdc, pLayerCfg, LayerIdx);
 885              		.loc 1 810 3 discriminator 2
 886 0050 7A68     		ldr	r2, [r7, #4]
 887 0052 B968     		ldr	r1, [r7, #8]
 888 0054 F868     		ldr	r0, [r7, #12]
 889 0056 FFF7FEFF 		bl	LTDC_SetConfig
 811:./Libraries/STM32H7xx_HAL_Driver/Src/stm32h7xx_hal_ltdc.c **** 
 812:./Libraries/STM32H7xx_HAL_Driver/Src/stm32h7xx_hal_ltdc.c ****   /* Set the Immediate Reload type */
 813:./Libraries/STM32H7xx_HAL_Driver/Src/stm32h7xx_hal_ltdc.c ****   hltdc->Instance->SRCR = LTDC_SRCR_IMR;
 890              		.loc 1 813 8 discriminator 2
 891 005a FB68     		ldr	r3, [r7, #12]
 892 005c 1B68     		ldr	r3, [r3]
 893              		.loc 1 813 25 discriminator 2
 894 005e 0122     		movs	r2, #1
 895 0060 5A62     		str	r2, [r3, #36]
 814:./Libraries/STM32H7xx_HAL_Driver/Src/stm32h7xx_hal_ltdc.c **** 
 815:./Libraries/STM32H7xx_HAL_Driver/Src/stm32h7xx_hal_ltdc.c ****   /* Initialize the LTDC state*/
 816:./Libraries/STM32H7xx_HAL_Driver/Src/stm32h7xx_hal_ltdc.c ****   hltdc->State  = HAL_LTDC_STATE_READY;
 896              		.loc 1 816 17 discriminator 2
 897 0062 FB68     		ldr	r3, [r7, #12]
 898 0064 0122     		movs	r2, #1
 899 0066 83F8A120 		strb	r2, [r3, #161]
 817:./Libraries/STM32H7xx_HAL_Driver/Src/stm32h7xx_hal_ltdc.c **** 
 818:./Libraries/STM32H7xx_HAL_Driver/Src/stm32h7xx_hal_ltdc.c ****   /* Process unlocked */
 819:./Libraries/STM32H7xx_HAL_Driver/Src/stm32h7xx_hal_ltdc.c ****   __HAL_UNLOCK(hltdc);
 900              		.loc 1 819 3 discriminator 2
 901 006a FB68     		ldr	r3, [r7, #12]
 902 006c 0022     		movs	r2, #0
 903 006e 83F8A020 		strb	r2, [r3, #160]
 820:./Libraries/STM32H7xx_HAL_Driver/Src/stm32h7xx_hal_ltdc.c **** 
 821:./Libraries/STM32H7xx_HAL_Driver/Src/stm32h7xx_hal_ltdc.c ****   return HAL_OK;
ARM GAS  /tmp/cc7azozz.s 			page 31


 904              		.loc 1 821 10 discriminator 2
 905 0072 0023     		movs	r3, #0
 906              	.L22:
 822:./Libraries/STM32H7xx_HAL_Driver/Src/stm32h7xx_hal_ltdc.c **** }
 907              		.loc 1 822 1
 908 0074 1846     		mov	r0, r3
 909 0076 1037     		adds	r7, r7, #16
 910              	.LCFI48:
 911              		.cfi_def_cfa_offset 16
 912 0078 BD46     		mov	sp, r7
 913              	.LCFI49:
 914              		.cfi_def_cfa_register 13
 915              		@ sp needed
 916 007a B0BD     		pop	{r4, r5, r7, pc}
 917              		.cfi_endproc
 918              	.LFE339:
 920              		.section	.text.HAL_LTDC_ConfigColorKeying,"ax",%progbits
 921              		.align	1
 922              		.global	HAL_LTDC_ConfigColorKeying
 923              		.syntax unified
 924              		.thumb
 925              		.thumb_func
 926              		.fpu fpv5-d16
 928              	HAL_LTDC_ConfigColorKeying:
 929              	.LFB340:
 823:./Libraries/STM32H7xx_HAL_Driver/Src/stm32h7xx_hal_ltdc.c **** 
 824:./Libraries/STM32H7xx_HAL_Driver/Src/stm32h7xx_hal_ltdc.c **** /**
 825:./Libraries/STM32H7xx_HAL_Driver/Src/stm32h7xx_hal_ltdc.c ****   * @brief  Configure the color keying.
 826:./Libraries/STM32H7xx_HAL_Driver/Src/stm32h7xx_hal_ltdc.c ****   * @param  hltdc     pointer to a LTDC_HandleTypeDef structure that contains
 827:./Libraries/STM32H7xx_HAL_Driver/Src/stm32h7xx_hal_ltdc.c ****   *                   the configuration information for the LTDC.
 828:./Libraries/STM32H7xx_HAL_Driver/Src/stm32h7xx_hal_ltdc.c ****   * @param  RGBValue  the color key value
 829:./Libraries/STM32H7xx_HAL_Driver/Src/stm32h7xx_hal_ltdc.c ****   * @param  LayerIdx  LTDC Layer index.
 830:./Libraries/STM32H7xx_HAL_Driver/Src/stm32h7xx_hal_ltdc.c ****   *                   This parameter can be one of the following values:
 831:./Libraries/STM32H7xx_HAL_Driver/Src/stm32h7xx_hal_ltdc.c ****   *                   LTDC_LAYER_1 (0) or LTDC_LAYER_2 (1)
 832:./Libraries/STM32H7xx_HAL_Driver/Src/stm32h7xx_hal_ltdc.c ****   * @retval HAL status
 833:./Libraries/STM32H7xx_HAL_Driver/Src/stm32h7xx_hal_ltdc.c ****   */
 834:./Libraries/STM32H7xx_HAL_Driver/Src/stm32h7xx_hal_ltdc.c **** HAL_StatusTypeDef HAL_LTDC_ConfigColorKeying(LTDC_HandleTypeDef *hltdc, uint32_t RGBValue, uint32_t
 835:./Libraries/STM32H7xx_HAL_Driver/Src/stm32h7xx_hal_ltdc.c **** {
 930              		.loc 1 835 1
 931              		.cfi_startproc
 932              		@ args = 0, pretend = 0, frame = 16
 933              		@ frame_needed = 1, uses_anonymous_args = 0
 934              		@ link register save eliminated.
 935 0000 80B4     		push	{r7}
 936              	.LCFI50:
 937              		.cfi_def_cfa_offset 4
 938              		.cfi_offset 7, -4
 939 0002 85B0     		sub	sp, sp, #20
 940              	.LCFI51:
 941              		.cfi_def_cfa_offset 24
 942 0004 00AF     		add	r7, sp, #0
 943              	.LCFI52:
 944              		.cfi_def_cfa_register 7
 945 0006 F860     		str	r0, [r7, #12]
 946 0008 B960     		str	r1, [r7, #8]
 947 000a 7A60     		str	r2, [r7, #4]
 836:./Libraries/STM32H7xx_HAL_Driver/Src/stm32h7xx_hal_ltdc.c ****   /* Check the parameters */
ARM GAS  /tmp/cc7azozz.s 			page 32


 837:./Libraries/STM32H7xx_HAL_Driver/Src/stm32h7xx_hal_ltdc.c ****   assert_param(IS_LTDC_LAYER(LayerIdx));
 838:./Libraries/STM32H7xx_HAL_Driver/Src/stm32h7xx_hal_ltdc.c **** 
 839:./Libraries/STM32H7xx_HAL_Driver/Src/stm32h7xx_hal_ltdc.c ****   /* Process locked */
 840:./Libraries/STM32H7xx_HAL_Driver/Src/stm32h7xx_hal_ltdc.c ****   __HAL_LOCK(hltdc);
 948              		.loc 1 840 3
 949 000c FB68     		ldr	r3, [r7, #12]
 950 000e 93F8A030 		ldrb	r3, [r3, #160]	@ zero_extendqisi2
 951 0012 012B     		cmp	r3, #1
 952 0014 01D1     		bne	.L24
 953              		.loc 1 840 3 is_stmt 0 discriminator 1
 954 0016 0223     		movs	r3, #2
 955 0018 30E0     		b	.L25
 956              	.L24:
 957              		.loc 1 840 3 discriminator 2
 958 001a FB68     		ldr	r3, [r7, #12]
 959 001c 0122     		movs	r2, #1
 960 001e 83F8A020 		strb	r2, [r3, #160]
 841:./Libraries/STM32H7xx_HAL_Driver/Src/stm32h7xx_hal_ltdc.c **** 
 842:./Libraries/STM32H7xx_HAL_Driver/Src/stm32h7xx_hal_ltdc.c ****   /* Change LTDC peripheral state */
 843:./Libraries/STM32H7xx_HAL_Driver/Src/stm32h7xx_hal_ltdc.c ****   hltdc->State = HAL_LTDC_STATE_BUSY;
 961              		.loc 1 843 16 is_stmt 1 discriminator 2
 962 0022 FB68     		ldr	r3, [r7, #12]
 963 0024 0222     		movs	r2, #2
 964 0026 83F8A120 		strb	r2, [r3, #161]
 844:./Libraries/STM32H7xx_HAL_Driver/Src/stm32h7xx_hal_ltdc.c **** 
 845:./Libraries/STM32H7xx_HAL_Driver/Src/stm32h7xx_hal_ltdc.c ****   /* Configure the default color values */
 846:./Libraries/STM32H7xx_HAL_Driver/Src/stm32h7xx_hal_ltdc.c ****   LTDC_LAYER(hltdc, LayerIdx)->CKCR &=  ~(LTDC_LxCKCR_CKBLUE | LTDC_LxCKCR_CKGREEN | LTDC_LxCKCR_CK
 965              		.loc 1 846 3 discriminator 2
 966 002a FB68     		ldr	r3, [r7, #12]
 967 002c 1B68     		ldr	r3, [r3]
 968              		.loc 1 846 37 discriminator 2
 969 002e 1A46     		mov	r2, r3
 970 0030 7B68     		ldr	r3, [r7, #4]
 971 0032 DB01     		lsls	r3, r3, #7
 972 0034 1344     		add	r3, r3, r2
 973 0036 8433     		adds	r3, r3, #132
 974 0038 DB68     		ldr	r3, [r3, #12]
 975              		.loc 1 846 3 discriminator 2
 976 003a FA68     		ldr	r2, [r7, #12]
 977 003c 1268     		ldr	r2, [r2]
 978              		.loc 1 846 37 discriminator 2
 979 003e 1146     		mov	r1, r2
 980 0040 7A68     		ldr	r2, [r7, #4]
 981 0042 D201     		lsls	r2, r2, #7
 982 0044 0A44     		add	r2, r2, r1
 983 0046 8432     		adds	r2, r2, #132
 984 0048 03F07F43 		and	r3, r3, #-16777216
 985 004c D360     		str	r3, [r2, #12]
 847:./Libraries/STM32H7xx_HAL_Driver/Src/stm32h7xx_hal_ltdc.c ****   LTDC_LAYER(hltdc, LayerIdx)->CKCR  = RGBValue;
 986              		.loc 1 847 3 discriminator 2
 987 004e FB68     		ldr	r3, [r7, #12]
 988 0050 1B68     		ldr	r3, [r3]
 989 0052 1A46     		mov	r2, r3
 990 0054 7B68     		ldr	r3, [r7, #4]
 991 0056 DB01     		lsls	r3, r3, #7
 992 0058 1344     		add	r3, r3, r2
 993 005a 8433     		adds	r3, r3, #132
ARM GAS  /tmp/cc7azozz.s 			page 33


 994 005c 1A46     		mov	r2, r3
 995              		.loc 1 847 38 discriminator 2
 996 005e BB68     		ldr	r3, [r7, #8]
 997 0060 D360     		str	r3, [r2, #12]
 848:./Libraries/STM32H7xx_HAL_Driver/Src/stm32h7xx_hal_ltdc.c **** 
 849:./Libraries/STM32H7xx_HAL_Driver/Src/stm32h7xx_hal_ltdc.c ****   /* Set the Immediate Reload type */
 850:./Libraries/STM32H7xx_HAL_Driver/Src/stm32h7xx_hal_ltdc.c ****   hltdc->Instance->SRCR = LTDC_SRCR_IMR;
 998              		.loc 1 850 8 discriminator 2
 999 0062 FB68     		ldr	r3, [r7, #12]
 1000 0064 1B68     		ldr	r3, [r3]
 1001              		.loc 1 850 25 discriminator 2
 1002 0066 0122     		movs	r2, #1
 1003 0068 5A62     		str	r2, [r3, #36]
 851:./Libraries/STM32H7xx_HAL_Driver/Src/stm32h7xx_hal_ltdc.c **** 
 852:./Libraries/STM32H7xx_HAL_Driver/Src/stm32h7xx_hal_ltdc.c ****   /* Change the LTDC state*/
 853:./Libraries/STM32H7xx_HAL_Driver/Src/stm32h7xx_hal_ltdc.c ****   hltdc->State = HAL_LTDC_STATE_READY;
 1004              		.loc 1 853 16 discriminator 2
 1005 006a FB68     		ldr	r3, [r7, #12]
 1006 006c 0122     		movs	r2, #1
 1007 006e 83F8A120 		strb	r2, [r3, #161]
 854:./Libraries/STM32H7xx_HAL_Driver/Src/stm32h7xx_hal_ltdc.c **** 
 855:./Libraries/STM32H7xx_HAL_Driver/Src/stm32h7xx_hal_ltdc.c ****   /* Process unlocked */
 856:./Libraries/STM32H7xx_HAL_Driver/Src/stm32h7xx_hal_ltdc.c ****   __HAL_UNLOCK(hltdc);
 1008              		.loc 1 856 3 discriminator 2
 1009 0072 FB68     		ldr	r3, [r7, #12]
 1010 0074 0022     		movs	r2, #0
 1011 0076 83F8A020 		strb	r2, [r3, #160]
 857:./Libraries/STM32H7xx_HAL_Driver/Src/stm32h7xx_hal_ltdc.c **** 
 858:./Libraries/STM32H7xx_HAL_Driver/Src/stm32h7xx_hal_ltdc.c ****   return HAL_OK;
 1012              		.loc 1 858 10 discriminator 2
 1013 007a 0023     		movs	r3, #0
 1014              	.L25:
 859:./Libraries/STM32H7xx_HAL_Driver/Src/stm32h7xx_hal_ltdc.c **** }
 1015              		.loc 1 859 1
 1016 007c 1846     		mov	r0, r3
 1017 007e 1437     		adds	r7, r7, #20
 1018              	.LCFI53:
 1019              		.cfi_def_cfa_offset 4
 1020 0080 BD46     		mov	sp, r7
 1021              	.LCFI54:
 1022              		.cfi_def_cfa_register 13
 1023              		@ sp needed
 1024 0082 5DF8047B 		ldr	r7, [sp], #4
 1025              	.LCFI55:
 1026              		.cfi_restore 7
 1027              		.cfi_def_cfa_offset 0
 1028 0086 7047     		bx	lr
 1029              		.cfi_endproc
 1030              	.LFE340:
 1032              		.section	.text.HAL_LTDC_ConfigCLUT,"ax",%progbits
 1033              		.align	1
 1034              		.global	HAL_LTDC_ConfigCLUT
 1035              		.syntax unified
 1036              		.thumb
 1037              		.thumb_func
 1038              		.fpu fpv5-d16
 1040              	HAL_LTDC_ConfigCLUT:
ARM GAS  /tmp/cc7azozz.s 			page 34


 1041              	.LFB341:
 860:./Libraries/STM32H7xx_HAL_Driver/Src/stm32h7xx_hal_ltdc.c **** 
 861:./Libraries/STM32H7xx_HAL_Driver/Src/stm32h7xx_hal_ltdc.c **** /**
 862:./Libraries/STM32H7xx_HAL_Driver/Src/stm32h7xx_hal_ltdc.c ****   * @brief  Load the color lookup table.
 863:./Libraries/STM32H7xx_HAL_Driver/Src/stm32h7xx_hal_ltdc.c ****   * @param  hltdc     pointer to a LTDC_HandleTypeDef structure that contains
 864:./Libraries/STM32H7xx_HAL_Driver/Src/stm32h7xx_hal_ltdc.c ****   *                   the configuration information for the LTDC.
 865:./Libraries/STM32H7xx_HAL_Driver/Src/stm32h7xx_hal_ltdc.c ****   * @param  pCLUT     pointer to the color lookup table address.
 866:./Libraries/STM32H7xx_HAL_Driver/Src/stm32h7xx_hal_ltdc.c ****   * @param  CLUTSize  the color lookup table size.
 867:./Libraries/STM32H7xx_HAL_Driver/Src/stm32h7xx_hal_ltdc.c ****   * @param  LayerIdx  LTDC Layer index.
 868:./Libraries/STM32H7xx_HAL_Driver/Src/stm32h7xx_hal_ltdc.c ****   *                   This parameter can be one of the following values:
 869:./Libraries/STM32H7xx_HAL_Driver/Src/stm32h7xx_hal_ltdc.c ****   *                   LTDC_LAYER_1 (0) or LTDC_LAYER_2 (1)
 870:./Libraries/STM32H7xx_HAL_Driver/Src/stm32h7xx_hal_ltdc.c ****   * @retval HAL status
 871:./Libraries/STM32H7xx_HAL_Driver/Src/stm32h7xx_hal_ltdc.c ****   */
 872:./Libraries/STM32H7xx_HAL_Driver/Src/stm32h7xx_hal_ltdc.c **** HAL_StatusTypeDef HAL_LTDC_ConfigCLUT(LTDC_HandleTypeDef *hltdc, uint32_t *pCLUT, uint32_t CLUTSize
 873:./Libraries/STM32H7xx_HAL_Driver/Src/stm32h7xx_hal_ltdc.c **** {
 1042              		.loc 1 873 1
 1043              		.cfi_startproc
 1044              		@ args = 0, pretend = 0, frame = 32
 1045              		@ frame_needed = 1, uses_anonymous_args = 0
 1046              		@ link register save eliminated.
 1047 0000 80B4     		push	{r7}
 1048              	.LCFI56:
 1049              		.cfi_def_cfa_offset 4
 1050              		.cfi_offset 7, -4
 1051 0002 89B0     		sub	sp, sp, #36
 1052              	.LCFI57:
 1053              		.cfi_def_cfa_offset 40
 1054 0004 00AF     		add	r7, sp, #0
 1055              	.LCFI58:
 1056              		.cfi_def_cfa_register 7
 1057 0006 F860     		str	r0, [r7, #12]
 1058 0008 B960     		str	r1, [r7, #8]
 1059 000a 7A60     		str	r2, [r7, #4]
 1060 000c 3B60     		str	r3, [r7]
 874:./Libraries/STM32H7xx_HAL_Driver/Src/stm32h7xx_hal_ltdc.c ****   uint32_t tmp;
 875:./Libraries/STM32H7xx_HAL_Driver/Src/stm32h7xx_hal_ltdc.c ****   uint32_t counter;
 876:./Libraries/STM32H7xx_HAL_Driver/Src/stm32h7xx_hal_ltdc.c ****   uint32_t *pcolorlut = pCLUT;
 1061              		.loc 1 876 13
 1062 000e BB68     		ldr	r3, [r7, #8]
 1063 0010 7B61     		str	r3, [r7, #20]
 877:./Libraries/STM32H7xx_HAL_Driver/Src/stm32h7xx_hal_ltdc.c ****   /* Check the parameters */
 878:./Libraries/STM32H7xx_HAL_Driver/Src/stm32h7xx_hal_ltdc.c ****   assert_param(IS_LTDC_LAYER(LayerIdx));
 879:./Libraries/STM32H7xx_HAL_Driver/Src/stm32h7xx_hal_ltdc.c **** 
 880:./Libraries/STM32H7xx_HAL_Driver/Src/stm32h7xx_hal_ltdc.c ****   /* Process locked */
 881:./Libraries/STM32H7xx_HAL_Driver/Src/stm32h7xx_hal_ltdc.c ****   __HAL_LOCK(hltdc);
 1064              		.loc 1 881 3
 1065 0012 FB68     		ldr	r3, [r7, #12]
 1066 0014 93F8A030 		ldrb	r3, [r3, #160]	@ zero_extendqisi2
 1067 0018 012B     		cmp	r3, #1
 1068 001a 01D1     		bne	.L27
 1069              		.loc 1 881 3 is_stmt 0 discriminator 1
 1070 001c 0223     		movs	r3, #2
 1071 001e 57E0     		b	.L28
 1072              	.L27:
 1073              		.loc 1 881 3 discriminator 2
 1074 0020 FB68     		ldr	r3, [r7, #12]
 1075 0022 0122     		movs	r2, #1
ARM GAS  /tmp/cc7azozz.s 			page 35


 1076 0024 83F8A020 		strb	r2, [r3, #160]
 882:./Libraries/STM32H7xx_HAL_Driver/Src/stm32h7xx_hal_ltdc.c **** 
 883:./Libraries/STM32H7xx_HAL_Driver/Src/stm32h7xx_hal_ltdc.c ****   /* Change LTDC peripheral state */
 884:./Libraries/STM32H7xx_HAL_Driver/Src/stm32h7xx_hal_ltdc.c ****   hltdc->State = HAL_LTDC_STATE_BUSY;
 1077              		.loc 1 884 16 is_stmt 1 discriminator 2
 1078 0028 FB68     		ldr	r3, [r7, #12]
 1079 002a 0222     		movs	r2, #2
 1080 002c 83F8A120 		strb	r2, [r3, #161]
 885:./Libraries/STM32H7xx_HAL_Driver/Src/stm32h7xx_hal_ltdc.c **** 
 886:./Libraries/STM32H7xx_HAL_Driver/Src/stm32h7xx_hal_ltdc.c ****   for (counter = 0U; (counter < CLUTSize); counter++)
 1081              		.loc 1 886 16 discriminator 2
 1082 0030 0023     		movs	r3, #0
 1083 0032 BB61     		str	r3, [r7, #24]
 1084              		.loc 1 886 3 discriminator 2
 1085 0034 3FE0     		b	.L29
 1086              	.L32:
 887:./Libraries/STM32H7xx_HAL_Driver/Src/stm32h7xx_hal_ltdc.c ****   {
 888:./Libraries/STM32H7xx_HAL_Driver/Src/stm32h7xx_hal_ltdc.c ****     if (hltdc->LayerCfg[LayerIdx].PixelFormat == LTDC_PIXEL_FORMAT_AL44)
 1087              		.loc 1 888 34
 1088 0036 FA68     		ldr	r2, [r7, #12]
 1089 0038 3B68     		ldr	r3, [r7]
 1090 003a 3421     		movs	r1, #52
 1091 003c 01FB03F3 		mul	r3, r1, r3
 1092 0040 1344     		add	r3, r3, r2
 1093 0042 4833     		adds	r3, r3, #72
 1094 0044 1B68     		ldr	r3, [r3]
 1095              		.loc 1 888 8
 1096 0046 062B     		cmp	r3, #6
 1097 0048 14D1     		bne	.L30
 889:./Libraries/STM32H7xx_HAL_Driver/Src/stm32h7xx_hal_ltdc.c ****     {
 890:./Libraries/STM32H7xx_HAL_Driver/Src/stm32h7xx_hal_ltdc.c ****       tmp  = (((counter + (16U*counter)) << 24U) | ((uint32_t)(*pcolorlut) & 0xFFU) | ((uint32_t)(*
 1098              		.loc 1 890 25
 1099 004a BA69     		ldr	r2, [r7, #24]
 1100 004c 1346     		mov	r3, r2
 1101 004e 1B01     		lsls	r3, r3, #4
 1102 0050 1344     		add	r3, r3, r2
 1103              		.loc 1 890 42
 1104 0052 1A06     		lsls	r2, r3, #24
 1105              		.loc 1 890 53
 1106 0054 7B69     		ldr	r3, [r7, #20]
 1107 0056 1B68     		ldr	r3, [r3]
 1108              		.loc 1 890 76
 1109 0058 DBB2     		uxtb	r3, r3
 1110              		.loc 1 890 50
 1111 005a 1A43     		orrs	r2, r2, r3
 1112              		.loc 1 890 88
 1113 005c 7B69     		ldr	r3, [r7, #20]
 1114 005e 1B68     		ldr	r3, [r3]
 1115              		.loc 1 890 111
 1116 0060 03F47F43 		and	r3, r3, #65280
 1117              		.loc 1 890 85
 1118 0064 1A43     		orrs	r2, r2, r3
 1119              		.loc 1 890 125
 1120 0066 7B69     		ldr	r3, [r7, #20]
 1121 0068 1B68     		ldr	r3, [r3]
 1122              		.loc 1 890 148
 1123 006a 03F47F03 		and	r3, r3, #16711680
ARM GAS  /tmp/cc7azozz.s 			page 36


 1124              		.loc 1 890 12
 1125 006e 1343     		orrs	r3, r3, r2
 1126 0070 FB61     		str	r3, [r7, #28]
 1127 0072 10E0     		b	.L31
 1128              	.L30:
 891:./Libraries/STM32H7xx_HAL_Driver/Src/stm32h7xx_hal_ltdc.c ****     }
 892:./Libraries/STM32H7xx_HAL_Driver/Src/stm32h7xx_hal_ltdc.c ****     else
 893:./Libraries/STM32H7xx_HAL_Driver/Src/stm32h7xx_hal_ltdc.c ****     {
 894:./Libraries/STM32H7xx_HAL_Driver/Src/stm32h7xx_hal_ltdc.c ****       tmp  = ((counter << 24U) | ((uint32_t)(*pcolorlut) & 0xFFU) | ((uint32_t)(*pcolorlut) & 0xFF0
 1129              		.loc 1 894 24
 1130 0074 BB69     		ldr	r3, [r7, #24]
 1131 0076 1A06     		lsls	r2, r3, #24
 1132              		.loc 1 894 35
 1133 0078 7B69     		ldr	r3, [r7, #20]
 1134 007a 1B68     		ldr	r3, [r3]
 1135              		.loc 1 894 58
 1136 007c DBB2     		uxtb	r3, r3
 1137              		.loc 1 894 32
 1138 007e 1A43     		orrs	r2, r2, r3
 1139              		.loc 1 894 70
 1140 0080 7B69     		ldr	r3, [r7, #20]
 1141 0082 1B68     		ldr	r3, [r3]
 1142              		.loc 1 894 93
 1143 0084 03F47F43 		and	r3, r3, #65280
 1144              		.loc 1 894 67
 1145 0088 1A43     		orrs	r2, r2, r3
 1146              		.loc 1 894 107
 1147 008a 7B69     		ldr	r3, [r7, #20]
 1148 008c 1B68     		ldr	r3, [r3]
 1149              		.loc 1 894 130
 1150 008e 03F47F03 		and	r3, r3, #16711680
 1151              		.loc 1 894 12
 1152 0092 1343     		orrs	r3, r3, r2
 1153 0094 FB61     		str	r3, [r7, #28]
 1154              	.L31:
 895:./Libraries/STM32H7xx_HAL_Driver/Src/stm32h7xx_hal_ltdc.c ****     }
 896:./Libraries/STM32H7xx_HAL_Driver/Src/stm32h7xx_hal_ltdc.c **** 
 897:./Libraries/STM32H7xx_HAL_Driver/Src/stm32h7xx_hal_ltdc.c ****     pcolorlut++;
 1155              		.loc 1 897 14 discriminator 2
 1156 0096 7B69     		ldr	r3, [r7, #20]
 1157 0098 0433     		adds	r3, r3, #4
 1158 009a 7B61     		str	r3, [r7, #20]
 898:./Libraries/STM32H7xx_HAL_Driver/Src/stm32h7xx_hal_ltdc.c **** 
 899:./Libraries/STM32H7xx_HAL_Driver/Src/stm32h7xx_hal_ltdc.c ****     /* Specifies the C-LUT address and RGB value */
 900:./Libraries/STM32H7xx_HAL_Driver/Src/stm32h7xx_hal_ltdc.c ****     LTDC_LAYER(hltdc, LayerIdx)->CLUTWR  = tmp;
 1159              		.loc 1 900 5 discriminator 2
 1160 009c FB68     		ldr	r3, [r7, #12]
 1161 009e 1B68     		ldr	r3, [r3]
 1162 00a0 1A46     		mov	r2, r3
 1163 00a2 3B68     		ldr	r3, [r7]
 1164 00a4 DB01     		lsls	r3, r3, #7
 1165 00a6 1344     		add	r3, r3, r2
 1166 00a8 8433     		adds	r3, r3, #132
 1167 00aa 1A46     		mov	r2, r3
 1168              		.loc 1 900 42 discriminator 2
 1169 00ac FB69     		ldr	r3, [r7, #28]
 1170 00ae 1364     		str	r3, [r2, #64]
ARM GAS  /tmp/cc7azozz.s 			page 37


 886:./Libraries/STM32H7xx_HAL_Driver/Src/stm32h7xx_hal_ltdc.c ****   {
 1171              		.loc 1 886 51 discriminator 2
 1172 00b0 BB69     		ldr	r3, [r7, #24]
 1173 00b2 0133     		adds	r3, r3, #1
 1174 00b4 BB61     		str	r3, [r7, #24]
 1175              	.L29:
 886:./Libraries/STM32H7xx_HAL_Driver/Src/stm32h7xx_hal_ltdc.c ****   {
 1176              		.loc 1 886 3 discriminator 1
 1177 00b6 BA69     		ldr	r2, [r7, #24]
 1178 00b8 7B68     		ldr	r3, [r7, #4]
 1179 00ba 9A42     		cmp	r2, r3
 1180 00bc BBD3     		bcc	.L32
 901:./Libraries/STM32H7xx_HAL_Driver/Src/stm32h7xx_hal_ltdc.c ****   }
 902:./Libraries/STM32H7xx_HAL_Driver/Src/stm32h7xx_hal_ltdc.c **** 
 903:./Libraries/STM32H7xx_HAL_Driver/Src/stm32h7xx_hal_ltdc.c ****   /* Change the LTDC state*/
 904:./Libraries/STM32H7xx_HAL_Driver/Src/stm32h7xx_hal_ltdc.c ****   hltdc->State = HAL_LTDC_STATE_READY;
 1181              		.loc 1 904 16
 1182 00be FB68     		ldr	r3, [r7, #12]
 1183 00c0 0122     		movs	r2, #1
 1184 00c2 83F8A120 		strb	r2, [r3, #161]
 905:./Libraries/STM32H7xx_HAL_Driver/Src/stm32h7xx_hal_ltdc.c **** 
 906:./Libraries/STM32H7xx_HAL_Driver/Src/stm32h7xx_hal_ltdc.c ****   /* Process unlocked */
 907:./Libraries/STM32H7xx_HAL_Driver/Src/stm32h7xx_hal_ltdc.c ****   __HAL_UNLOCK(hltdc);
 1185              		.loc 1 907 3
 1186 00c6 FB68     		ldr	r3, [r7, #12]
 1187 00c8 0022     		movs	r2, #0
 1188 00ca 83F8A020 		strb	r2, [r3, #160]
 908:./Libraries/STM32H7xx_HAL_Driver/Src/stm32h7xx_hal_ltdc.c **** 
 909:./Libraries/STM32H7xx_HAL_Driver/Src/stm32h7xx_hal_ltdc.c ****   return HAL_OK;
 1189              		.loc 1 909 10
 1190 00ce 0023     		movs	r3, #0
 1191              	.L28:
 910:./Libraries/STM32H7xx_HAL_Driver/Src/stm32h7xx_hal_ltdc.c **** }
 1192              		.loc 1 910 1
 1193 00d0 1846     		mov	r0, r3
 1194 00d2 2437     		adds	r7, r7, #36
 1195              	.LCFI59:
 1196              		.cfi_def_cfa_offset 4
 1197 00d4 BD46     		mov	sp, r7
 1198              	.LCFI60:
 1199              		.cfi_def_cfa_register 13
 1200              		@ sp needed
 1201 00d6 5DF8047B 		ldr	r7, [sp], #4
 1202              	.LCFI61:
 1203              		.cfi_restore 7
 1204              		.cfi_def_cfa_offset 0
 1205 00da 7047     		bx	lr
 1206              		.cfi_endproc
 1207              	.LFE341:
 1209              		.section	.text.HAL_LTDC_EnableColorKeying,"ax",%progbits
 1210              		.align	1
 1211              		.global	HAL_LTDC_EnableColorKeying
 1212              		.syntax unified
 1213              		.thumb
 1214              		.thumb_func
 1215              		.fpu fpv5-d16
 1217              	HAL_LTDC_EnableColorKeying:
ARM GAS  /tmp/cc7azozz.s 			page 38


 1218              	.LFB342:
 911:./Libraries/STM32H7xx_HAL_Driver/Src/stm32h7xx_hal_ltdc.c **** 
 912:./Libraries/STM32H7xx_HAL_Driver/Src/stm32h7xx_hal_ltdc.c **** /**
 913:./Libraries/STM32H7xx_HAL_Driver/Src/stm32h7xx_hal_ltdc.c ****   * @brief  Enable the color keying.
 914:./Libraries/STM32H7xx_HAL_Driver/Src/stm32h7xx_hal_ltdc.c ****   * @param  hltdc     pointer to a LTDC_HandleTypeDef structure that contains
 915:./Libraries/STM32H7xx_HAL_Driver/Src/stm32h7xx_hal_ltdc.c ****   *                   the configuration information for the LTDC.
 916:./Libraries/STM32H7xx_HAL_Driver/Src/stm32h7xx_hal_ltdc.c ****   * @param  LayerIdx  LTDC Layer index.
 917:./Libraries/STM32H7xx_HAL_Driver/Src/stm32h7xx_hal_ltdc.c ****   *                   This parameter can be one of the following values:
 918:./Libraries/STM32H7xx_HAL_Driver/Src/stm32h7xx_hal_ltdc.c ****   *                   LTDC_LAYER_1 (0) or LTDC_LAYER_2 (1)
 919:./Libraries/STM32H7xx_HAL_Driver/Src/stm32h7xx_hal_ltdc.c ****   * @retval  HAL status
 920:./Libraries/STM32H7xx_HAL_Driver/Src/stm32h7xx_hal_ltdc.c ****   */
 921:./Libraries/STM32H7xx_HAL_Driver/Src/stm32h7xx_hal_ltdc.c **** HAL_StatusTypeDef HAL_LTDC_EnableColorKeying(LTDC_HandleTypeDef *hltdc, uint32_t LayerIdx)
 922:./Libraries/STM32H7xx_HAL_Driver/Src/stm32h7xx_hal_ltdc.c **** {
 1219              		.loc 1 922 1
 1220              		.cfi_startproc
 1221              		@ args = 0, pretend = 0, frame = 8
 1222              		@ frame_needed = 1, uses_anonymous_args = 0
 1223              		@ link register save eliminated.
 1224 0000 80B4     		push	{r7}
 1225              	.LCFI62:
 1226              		.cfi_def_cfa_offset 4
 1227              		.cfi_offset 7, -4
 1228 0002 83B0     		sub	sp, sp, #12
 1229              	.LCFI63:
 1230              		.cfi_def_cfa_offset 16
 1231 0004 00AF     		add	r7, sp, #0
 1232              	.LCFI64:
 1233              		.cfi_def_cfa_register 7
 1234 0006 7860     		str	r0, [r7, #4]
 1235 0008 3960     		str	r1, [r7]
 923:./Libraries/STM32H7xx_HAL_Driver/Src/stm32h7xx_hal_ltdc.c ****   /* Check the parameters */
 924:./Libraries/STM32H7xx_HAL_Driver/Src/stm32h7xx_hal_ltdc.c ****   assert_param(IS_LTDC_LAYER(LayerIdx));
 925:./Libraries/STM32H7xx_HAL_Driver/Src/stm32h7xx_hal_ltdc.c **** 
 926:./Libraries/STM32H7xx_HAL_Driver/Src/stm32h7xx_hal_ltdc.c ****   /* Process locked */
 927:./Libraries/STM32H7xx_HAL_Driver/Src/stm32h7xx_hal_ltdc.c ****   __HAL_LOCK(hltdc);
 1236              		.loc 1 927 3
 1237 000a 7B68     		ldr	r3, [r7, #4]
 1238 000c 93F8A030 		ldrb	r3, [r3, #160]	@ zero_extendqisi2
 1239 0010 012B     		cmp	r3, #1
 1240 0012 01D1     		bne	.L34
 1241              		.loc 1 927 3 is_stmt 0 discriminator 1
 1242 0014 0223     		movs	r3, #2
 1243 0016 26E0     		b	.L35
 1244              	.L34:
 1245              		.loc 1 927 3 discriminator 2
 1246 0018 7B68     		ldr	r3, [r7, #4]
 1247 001a 0122     		movs	r2, #1
 1248 001c 83F8A020 		strb	r2, [r3, #160]
 928:./Libraries/STM32H7xx_HAL_Driver/Src/stm32h7xx_hal_ltdc.c **** 
 929:./Libraries/STM32H7xx_HAL_Driver/Src/stm32h7xx_hal_ltdc.c ****   /* Change LTDC peripheral state */
 930:./Libraries/STM32H7xx_HAL_Driver/Src/stm32h7xx_hal_ltdc.c ****   hltdc->State = HAL_LTDC_STATE_BUSY;
 1249              		.loc 1 930 16 is_stmt 1 discriminator 2
 1250 0020 7B68     		ldr	r3, [r7, #4]
 1251 0022 0222     		movs	r2, #2
 1252 0024 83F8A120 		strb	r2, [r3, #161]
 931:./Libraries/STM32H7xx_HAL_Driver/Src/stm32h7xx_hal_ltdc.c **** 
 932:./Libraries/STM32H7xx_HAL_Driver/Src/stm32h7xx_hal_ltdc.c ****   /* Enable LTDC color keying by setting COLKEN bit */
ARM GAS  /tmp/cc7azozz.s 			page 39


 933:./Libraries/STM32H7xx_HAL_Driver/Src/stm32h7xx_hal_ltdc.c ****   LTDC_LAYER(hltdc, LayerIdx)->CR |= (uint32_t)LTDC_LxCR_COLKEN;
 1253              		.loc 1 933 3 discriminator 2
 1254 0028 7B68     		ldr	r3, [r7, #4]
 1255 002a 1B68     		ldr	r3, [r3]
 1256              		.loc 1 933 35 discriminator 2
 1257 002c 1A46     		mov	r2, r3
 1258 002e 3B68     		ldr	r3, [r7]
 1259 0030 DB01     		lsls	r3, r3, #7
 1260 0032 1344     		add	r3, r3, r2
 1261 0034 8433     		adds	r3, r3, #132
 1262 0036 1B68     		ldr	r3, [r3]
 1263              		.loc 1 933 3 discriminator 2
 1264 0038 7A68     		ldr	r2, [r7, #4]
 1265 003a 1268     		ldr	r2, [r2]
 1266              		.loc 1 933 35 discriminator 2
 1267 003c 1146     		mov	r1, r2
 1268 003e 3A68     		ldr	r2, [r7]
 1269 0040 D201     		lsls	r2, r2, #7
 1270 0042 0A44     		add	r2, r2, r1
 1271 0044 8432     		adds	r2, r2, #132
 1272 0046 43F00203 		orr	r3, r3, #2
 1273 004a 1360     		str	r3, [r2]
 934:./Libraries/STM32H7xx_HAL_Driver/Src/stm32h7xx_hal_ltdc.c **** 
 935:./Libraries/STM32H7xx_HAL_Driver/Src/stm32h7xx_hal_ltdc.c ****   /* Set the Immediate Reload type */
 936:./Libraries/STM32H7xx_HAL_Driver/Src/stm32h7xx_hal_ltdc.c ****   hltdc->Instance->SRCR = LTDC_SRCR_IMR;
 1274              		.loc 1 936 8 discriminator 2
 1275 004c 7B68     		ldr	r3, [r7, #4]
 1276 004e 1B68     		ldr	r3, [r3]
 1277              		.loc 1 936 25 discriminator 2
 1278 0050 0122     		movs	r2, #1
 1279 0052 5A62     		str	r2, [r3, #36]
 937:./Libraries/STM32H7xx_HAL_Driver/Src/stm32h7xx_hal_ltdc.c **** 
 938:./Libraries/STM32H7xx_HAL_Driver/Src/stm32h7xx_hal_ltdc.c ****   /* Change the LTDC state*/
 939:./Libraries/STM32H7xx_HAL_Driver/Src/stm32h7xx_hal_ltdc.c ****   hltdc->State = HAL_LTDC_STATE_READY;
 1280              		.loc 1 939 16 discriminator 2
 1281 0054 7B68     		ldr	r3, [r7, #4]
 1282 0056 0122     		movs	r2, #1
 1283 0058 83F8A120 		strb	r2, [r3, #161]
 940:./Libraries/STM32H7xx_HAL_Driver/Src/stm32h7xx_hal_ltdc.c **** 
 941:./Libraries/STM32H7xx_HAL_Driver/Src/stm32h7xx_hal_ltdc.c ****   /* Process unlocked */
 942:./Libraries/STM32H7xx_HAL_Driver/Src/stm32h7xx_hal_ltdc.c ****   __HAL_UNLOCK(hltdc);
 1284              		.loc 1 942 3 discriminator 2
 1285 005c 7B68     		ldr	r3, [r7, #4]
 1286 005e 0022     		movs	r2, #0
 1287 0060 83F8A020 		strb	r2, [r3, #160]
 943:./Libraries/STM32H7xx_HAL_Driver/Src/stm32h7xx_hal_ltdc.c **** 
 944:./Libraries/STM32H7xx_HAL_Driver/Src/stm32h7xx_hal_ltdc.c ****   return HAL_OK;
 1288              		.loc 1 944 10 discriminator 2
 1289 0064 0023     		movs	r3, #0
 1290              	.L35:
 945:./Libraries/STM32H7xx_HAL_Driver/Src/stm32h7xx_hal_ltdc.c **** }
 1291              		.loc 1 945 1
 1292 0066 1846     		mov	r0, r3
 1293 0068 0C37     		adds	r7, r7, #12
 1294              	.LCFI65:
 1295              		.cfi_def_cfa_offset 4
 1296 006a BD46     		mov	sp, r7
ARM GAS  /tmp/cc7azozz.s 			page 40


 1297              	.LCFI66:
 1298              		.cfi_def_cfa_register 13
 1299              		@ sp needed
 1300 006c 5DF8047B 		ldr	r7, [sp], #4
 1301              	.LCFI67:
 1302              		.cfi_restore 7
 1303              		.cfi_def_cfa_offset 0
 1304 0070 7047     		bx	lr
 1305              		.cfi_endproc
 1306              	.LFE342:
 1308              		.section	.text.HAL_LTDC_DisableColorKeying,"ax",%progbits
 1309              		.align	1
 1310              		.global	HAL_LTDC_DisableColorKeying
 1311              		.syntax unified
 1312              		.thumb
 1313              		.thumb_func
 1314              		.fpu fpv5-d16
 1316              	HAL_LTDC_DisableColorKeying:
 1317              	.LFB343:
 946:./Libraries/STM32H7xx_HAL_Driver/Src/stm32h7xx_hal_ltdc.c **** 
 947:./Libraries/STM32H7xx_HAL_Driver/Src/stm32h7xx_hal_ltdc.c **** /**
 948:./Libraries/STM32H7xx_HAL_Driver/Src/stm32h7xx_hal_ltdc.c ****   * @brief  Disable the color keying.
 949:./Libraries/STM32H7xx_HAL_Driver/Src/stm32h7xx_hal_ltdc.c ****   * @param  hltdc     pointer to a LTDC_HandleTypeDef structure that contains
 950:./Libraries/STM32H7xx_HAL_Driver/Src/stm32h7xx_hal_ltdc.c ****   *                   the configuration information for the LTDC.
 951:./Libraries/STM32H7xx_HAL_Driver/Src/stm32h7xx_hal_ltdc.c ****   * @param  LayerIdx  LTDC Layer index.
 952:./Libraries/STM32H7xx_HAL_Driver/Src/stm32h7xx_hal_ltdc.c ****   *                   This parameter can be one of the following values:
 953:./Libraries/STM32H7xx_HAL_Driver/Src/stm32h7xx_hal_ltdc.c ****   *                   LTDC_LAYER_1 (0) or LTDC_LAYER_2 (1)
 954:./Libraries/STM32H7xx_HAL_Driver/Src/stm32h7xx_hal_ltdc.c ****   * @retval  HAL status
 955:./Libraries/STM32H7xx_HAL_Driver/Src/stm32h7xx_hal_ltdc.c ****   */
 956:./Libraries/STM32H7xx_HAL_Driver/Src/stm32h7xx_hal_ltdc.c **** HAL_StatusTypeDef HAL_LTDC_DisableColorKeying(LTDC_HandleTypeDef *hltdc, uint32_t LayerIdx)
 957:./Libraries/STM32H7xx_HAL_Driver/Src/stm32h7xx_hal_ltdc.c **** {
 1318              		.loc 1 957 1
 1319              		.cfi_startproc
 1320              		@ args = 0, pretend = 0, frame = 8
 1321              		@ frame_needed = 1, uses_anonymous_args = 0
 1322              		@ link register save eliminated.
 1323 0000 80B4     		push	{r7}
 1324              	.LCFI68:
 1325              		.cfi_def_cfa_offset 4
 1326              		.cfi_offset 7, -4
 1327 0002 83B0     		sub	sp, sp, #12
 1328              	.LCFI69:
 1329              		.cfi_def_cfa_offset 16
 1330 0004 00AF     		add	r7, sp, #0
 1331              	.LCFI70:
 1332              		.cfi_def_cfa_register 7
 1333 0006 7860     		str	r0, [r7, #4]
 1334 0008 3960     		str	r1, [r7]
 958:./Libraries/STM32H7xx_HAL_Driver/Src/stm32h7xx_hal_ltdc.c ****   /* Check the parameters */
 959:./Libraries/STM32H7xx_HAL_Driver/Src/stm32h7xx_hal_ltdc.c ****   assert_param(IS_LTDC_LAYER(LayerIdx));
 960:./Libraries/STM32H7xx_HAL_Driver/Src/stm32h7xx_hal_ltdc.c **** 
 961:./Libraries/STM32H7xx_HAL_Driver/Src/stm32h7xx_hal_ltdc.c ****   /* Process locked */
 962:./Libraries/STM32H7xx_HAL_Driver/Src/stm32h7xx_hal_ltdc.c ****   __HAL_LOCK(hltdc);
 1335              		.loc 1 962 3
 1336 000a 7B68     		ldr	r3, [r7, #4]
 1337 000c 93F8A030 		ldrb	r3, [r3, #160]	@ zero_extendqisi2
 1338 0010 012B     		cmp	r3, #1
ARM GAS  /tmp/cc7azozz.s 			page 41


 1339 0012 01D1     		bne	.L37
 1340              		.loc 1 962 3 is_stmt 0 discriminator 1
 1341 0014 0223     		movs	r3, #2
 1342 0016 26E0     		b	.L38
 1343              	.L37:
 1344              		.loc 1 962 3 discriminator 2
 1345 0018 7B68     		ldr	r3, [r7, #4]
 1346 001a 0122     		movs	r2, #1
 1347 001c 83F8A020 		strb	r2, [r3, #160]
 963:./Libraries/STM32H7xx_HAL_Driver/Src/stm32h7xx_hal_ltdc.c **** 
 964:./Libraries/STM32H7xx_HAL_Driver/Src/stm32h7xx_hal_ltdc.c ****   /* Change LTDC peripheral state */
 965:./Libraries/STM32H7xx_HAL_Driver/Src/stm32h7xx_hal_ltdc.c ****   hltdc->State = HAL_LTDC_STATE_BUSY;
 1348              		.loc 1 965 16 is_stmt 1 discriminator 2
 1349 0020 7B68     		ldr	r3, [r7, #4]
 1350 0022 0222     		movs	r2, #2
 1351 0024 83F8A120 		strb	r2, [r3, #161]
 966:./Libraries/STM32H7xx_HAL_Driver/Src/stm32h7xx_hal_ltdc.c **** 
 967:./Libraries/STM32H7xx_HAL_Driver/Src/stm32h7xx_hal_ltdc.c ****   /* Disable LTDC color keying by setting COLKEN bit */
 968:./Libraries/STM32H7xx_HAL_Driver/Src/stm32h7xx_hal_ltdc.c ****   LTDC_LAYER(hltdc, LayerIdx)->CR &= ~(uint32_t)LTDC_LxCR_COLKEN;
 1352              		.loc 1 968 3 discriminator 2
 1353 0028 7B68     		ldr	r3, [r7, #4]
 1354 002a 1B68     		ldr	r3, [r3]
 1355              		.loc 1 968 35 discriminator 2
 1356 002c 1A46     		mov	r2, r3
 1357 002e 3B68     		ldr	r3, [r7]
 1358 0030 DB01     		lsls	r3, r3, #7
 1359 0032 1344     		add	r3, r3, r2
 1360 0034 8433     		adds	r3, r3, #132
 1361 0036 1B68     		ldr	r3, [r3]
 1362              		.loc 1 968 3 discriminator 2
 1363 0038 7A68     		ldr	r2, [r7, #4]
 1364 003a 1268     		ldr	r2, [r2]
 1365              		.loc 1 968 35 discriminator 2
 1366 003c 1146     		mov	r1, r2
 1367 003e 3A68     		ldr	r2, [r7]
 1368 0040 D201     		lsls	r2, r2, #7
 1369 0042 0A44     		add	r2, r2, r1
 1370 0044 8432     		adds	r2, r2, #132
 1371 0046 23F00203 		bic	r3, r3, #2
 1372 004a 1360     		str	r3, [r2]
 969:./Libraries/STM32H7xx_HAL_Driver/Src/stm32h7xx_hal_ltdc.c **** 
 970:./Libraries/STM32H7xx_HAL_Driver/Src/stm32h7xx_hal_ltdc.c ****   /* Set the Immediate Reload type */
 971:./Libraries/STM32H7xx_HAL_Driver/Src/stm32h7xx_hal_ltdc.c ****   hltdc->Instance->SRCR = LTDC_SRCR_IMR;
 1373              		.loc 1 971 8 discriminator 2
 1374 004c 7B68     		ldr	r3, [r7, #4]
 1375 004e 1B68     		ldr	r3, [r3]
 1376              		.loc 1 971 25 discriminator 2
 1377 0050 0122     		movs	r2, #1
 1378 0052 5A62     		str	r2, [r3, #36]
 972:./Libraries/STM32H7xx_HAL_Driver/Src/stm32h7xx_hal_ltdc.c **** 
 973:./Libraries/STM32H7xx_HAL_Driver/Src/stm32h7xx_hal_ltdc.c ****   /* Change the LTDC state*/
 974:./Libraries/STM32H7xx_HAL_Driver/Src/stm32h7xx_hal_ltdc.c ****   hltdc->State = HAL_LTDC_STATE_READY;
 1379              		.loc 1 974 16 discriminator 2
 1380 0054 7B68     		ldr	r3, [r7, #4]
 1381 0056 0122     		movs	r2, #1
 1382 0058 83F8A120 		strb	r2, [r3, #161]
 975:./Libraries/STM32H7xx_HAL_Driver/Src/stm32h7xx_hal_ltdc.c **** 
ARM GAS  /tmp/cc7azozz.s 			page 42


 976:./Libraries/STM32H7xx_HAL_Driver/Src/stm32h7xx_hal_ltdc.c ****   /* Process unlocked */
 977:./Libraries/STM32H7xx_HAL_Driver/Src/stm32h7xx_hal_ltdc.c ****   __HAL_UNLOCK(hltdc);
 1383              		.loc 1 977 3 discriminator 2
 1384 005c 7B68     		ldr	r3, [r7, #4]
 1385 005e 0022     		movs	r2, #0
 1386 0060 83F8A020 		strb	r2, [r3, #160]
 978:./Libraries/STM32H7xx_HAL_Driver/Src/stm32h7xx_hal_ltdc.c **** 
 979:./Libraries/STM32H7xx_HAL_Driver/Src/stm32h7xx_hal_ltdc.c ****   return HAL_OK;
 1387              		.loc 1 979 10 discriminator 2
 1388 0064 0023     		movs	r3, #0
 1389              	.L38:
 980:./Libraries/STM32H7xx_HAL_Driver/Src/stm32h7xx_hal_ltdc.c **** }
 1390              		.loc 1 980 1
 1391 0066 1846     		mov	r0, r3
 1392 0068 0C37     		adds	r7, r7, #12
 1393              	.LCFI71:
 1394              		.cfi_def_cfa_offset 4
 1395 006a BD46     		mov	sp, r7
 1396              	.LCFI72:
 1397              		.cfi_def_cfa_register 13
 1398              		@ sp needed
 1399 006c 5DF8047B 		ldr	r7, [sp], #4
 1400              	.LCFI73:
 1401              		.cfi_restore 7
 1402              		.cfi_def_cfa_offset 0
 1403 0070 7047     		bx	lr
 1404              		.cfi_endproc
 1405              	.LFE343:
 1407              		.section	.text.HAL_LTDC_EnableCLUT,"ax",%progbits
 1408              		.align	1
 1409              		.global	HAL_LTDC_EnableCLUT
 1410              		.syntax unified
 1411              		.thumb
 1412              		.thumb_func
 1413              		.fpu fpv5-d16
 1415              	HAL_LTDC_EnableCLUT:
 1416              	.LFB344:
 981:./Libraries/STM32H7xx_HAL_Driver/Src/stm32h7xx_hal_ltdc.c **** 
 982:./Libraries/STM32H7xx_HAL_Driver/Src/stm32h7xx_hal_ltdc.c **** /**
 983:./Libraries/STM32H7xx_HAL_Driver/Src/stm32h7xx_hal_ltdc.c ****   * @brief  Enable the color lookup table.
 984:./Libraries/STM32H7xx_HAL_Driver/Src/stm32h7xx_hal_ltdc.c ****   * @param  hltdc     pointer to a LTDC_HandleTypeDef structure that contains
 985:./Libraries/STM32H7xx_HAL_Driver/Src/stm32h7xx_hal_ltdc.c ****   *                   the configuration information for the LTDC.
 986:./Libraries/STM32H7xx_HAL_Driver/Src/stm32h7xx_hal_ltdc.c ****   * @param  LayerIdx  LTDC Layer index.
 987:./Libraries/STM32H7xx_HAL_Driver/Src/stm32h7xx_hal_ltdc.c ****   *                   This parameter can be one of the following values:
 988:./Libraries/STM32H7xx_HAL_Driver/Src/stm32h7xx_hal_ltdc.c ****   *                   LTDC_LAYER_1 (0) or LTDC_LAYER_2 (1)
 989:./Libraries/STM32H7xx_HAL_Driver/Src/stm32h7xx_hal_ltdc.c ****   * @retval  HAL status
 990:./Libraries/STM32H7xx_HAL_Driver/Src/stm32h7xx_hal_ltdc.c ****   */
 991:./Libraries/STM32H7xx_HAL_Driver/Src/stm32h7xx_hal_ltdc.c **** HAL_StatusTypeDef HAL_LTDC_EnableCLUT(LTDC_HandleTypeDef *hltdc, uint32_t LayerIdx)
 992:./Libraries/STM32H7xx_HAL_Driver/Src/stm32h7xx_hal_ltdc.c **** {
 1417              		.loc 1 992 1
 1418              		.cfi_startproc
 1419              		@ args = 0, pretend = 0, frame = 8
 1420              		@ frame_needed = 1, uses_anonymous_args = 0
 1421              		@ link register save eliminated.
 1422 0000 80B4     		push	{r7}
 1423              	.LCFI74:
 1424              		.cfi_def_cfa_offset 4
ARM GAS  /tmp/cc7azozz.s 			page 43


 1425              		.cfi_offset 7, -4
 1426 0002 83B0     		sub	sp, sp, #12
 1427              	.LCFI75:
 1428              		.cfi_def_cfa_offset 16
 1429 0004 00AF     		add	r7, sp, #0
 1430              	.LCFI76:
 1431              		.cfi_def_cfa_register 7
 1432 0006 7860     		str	r0, [r7, #4]
 1433 0008 3960     		str	r1, [r7]
 993:./Libraries/STM32H7xx_HAL_Driver/Src/stm32h7xx_hal_ltdc.c ****   /* Check the parameters */
 994:./Libraries/STM32H7xx_HAL_Driver/Src/stm32h7xx_hal_ltdc.c ****   assert_param(IS_LTDC_LAYER(LayerIdx));
 995:./Libraries/STM32H7xx_HAL_Driver/Src/stm32h7xx_hal_ltdc.c **** 
 996:./Libraries/STM32H7xx_HAL_Driver/Src/stm32h7xx_hal_ltdc.c ****   /* Process locked */
 997:./Libraries/STM32H7xx_HAL_Driver/Src/stm32h7xx_hal_ltdc.c ****   __HAL_LOCK(hltdc);
 1434              		.loc 1 997 3
 1435 000a 7B68     		ldr	r3, [r7, #4]
 1436 000c 93F8A030 		ldrb	r3, [r3, #160]	@ zero_extendqisi2
 1437 0010 012B     		cmp	r3, #1
 1438 0012 01D1     		bne	.L40
 1439              		.loc 1 997 3 is_stmt 0 discriminator 1
 1440 0014 0223     		movs	r3, #2
 1441 0016 26E0     		b	.L41
 1442              	.L40:
 1443              		.loc 1 997 3 discriminator 2
 1444 0018 7B68     		ldr	r3, [r7, #4]
 1445 001a 0122     		movs	r2, #1
 1446 001c 83F8A020 		strb	r2, [r3, #160]
 998:./Libraries/STM32H7xx_HAL_Driver/Src/stm32h7xx_hal_ltdc.c **** 
 999:./Libraries/STM32H7xx_HAL_Driver/Src/stm32h7xx_hal_ltdc.c ****   /* Change LTDC peripheral state */
1000:./Libraries/STM32H7xx_HAL_Driver/Src/stm32h7xx_hal_ltdc.c ****   hltdc->State = HAL_LTDC_STATE_BUSY;
 1447              		.loc 1 1000 16 is_stmt 1 discriminator 2
 1448 0020 7B68     		ldr	r3, [r7, #4]
 1449 0022 0222     		movs	r2, #2
 1450 0024 83F8A120 		strb	r2, [r3, #161]
1001:./Libraries/STM32H7xx_HAL_Driver/Src/stm32h7xx_hal_ltdc.c **** 
1002:./Libraries/STM32H7xx_HAL_Driver/Src/stm32h7xx_hal_ltdc.c ****   /* Enable LTDC color lookup table by setting CLUTEN bit */
1003:./Libraries/STM32H7xx_HAL_Driver/Src/stm32h7xx_hal_ltdc.c ****   LTDC_LAYER(hltdc, LayerIdx)->CR |= (uint32_t)LTDC_LxCR_CLUTEN;
 1451              		.loc 1 1003 3 discriminator 2
 1452 0028 7B68     		ldr	r3, [r7, #4]
 1453 002a 1B68     		ldr	r3, [r3]
 1454              		.loc 1 1003 35 discriminator 2
 1455 002c 1A46     		mov	r2, r3
 1456 002e 3B68     		ldr	r3, [r7]
 1457 0030 DB01     		lsls	r3, r3, #7
 1458 0032 1344     		add	r3, r3, r2
 1459 0034 8433     		adds	r3, r3, #132
 1460 0036 1B68     		ldr	r3, [r3]
 1461              		.loc 1 1003 3 discriminator 2
 1462 0038 7A68     		ldr	r2, [r7, #4]
 1463 003a 1268     		ldr	r2, [r2]
 1464              		.loc 1 1003 35 discriminator 2
 1465 003c 1146     		mov	r1, r2
 1466 003e 3A68     		ldr	r2, [r7]
 1467 0040 D201     		lsls	r2, r2, #7
 1468 0042 0A44     		add	r2, r2, r1
 1469 0044 8432     		adds	r2, r2, #132
 1470 0046 43F01003 		orr	r3, r3, #16
ARM GAS  /tmp/cc7azozz.s 			page 44


 1471 004a 1360     		str	r3, [r2]
1004:./Libraries/STM32H7xx_HAL_Driver/Src/stm32h7xx_hal_ltdc.c **** 
1005:./Libraries/STM32H7xx_HAL_Driver/Src/stm32h7xx_hal_ltdc.c ****   /* Set the Immediate Reload type */
1006:./Libraries/STM32H7xx_HAL_Driver/Src/stm32h7xx_hal_ltdc.c ****   hltdc->Instance->SRCR = LTDC_SRCR_IMR;
 1472              		.loc 1 1006 8 discriminator 2
 1473 004c 7B68     		ldr	r3, [r7, #4]
 1474 004e 1B68     		ldr	r3, [r3]
 1475              		.loc 1 1006 25 discriminator 2
 1476 0050 0122     		movs	r2, #1
 1477 0052 5A62     		str	r2, [r3, #36]
1007:./Libraries/STM32H7xx_HAL_Driver/Src/stm32h7xx_hal_ltdc.c **** 
1008:./Libraries/STM32H7xx_HAL_Driver/Src/stm32h7xx_hal_ltdc.c ****   /* Change the LTDC state*/
1009:./Libraries/STM32H7xx_HAL_Driver/Src/stm32h7xx_hal_ltdc.c ****   hltdc->State = HAL_LTDC_STATE_READY;
 1478              		.loc 1 1009 16 discriminator 2
 1479 0054 7B68     		ldr	r3, [r7, #4]
 1480 0056 0122     		movs	r2, #1
 1481 0058 83F8A120 		strb	r2, [r3, #161]
1010:./Libraries/STM32H7xx_HAL_Driver/Src/stm32h7xx_hal_ltdc.c **** 
1011:./Libraries/STM32H7xx_HAL_Driver/Src/stm32h7xx_hal_ltdc.c ****   /* Process unlocked */
1012:./Libraries/STM32H7xx_HAL_Driver/Src/stm32h7xx_hal_ltdc.c ****   __HAL_UNLOCK(hltdc);
 1482              		.loc 1 1012 3 discriminator 2
 1483 005c 7B68     		ldr	r3, [r7, #4]
 1484 005e 0022     		movs	r2, #0
 1485 0060 83F8A020 		strb	r2, [r3, #160]
1013:./Libraries/STM32H7xx_HAL_Driver/Src/stm32h7xx_hal_ltdc.c **** 
1014:./Libraries/STM32H7xx_HAL_Driver/Src/stm32h7xx_hal_ltdc.c ****   return HAL_OK;
 1486              		.loc 1 1014 10 discriminator 2
 1487 0064 0023     		movs	r3, #0
 1488              	.L41:
1015:./Libraries/STM32H7xx_HAL_Driver/Src/stm32h7xx_hal_ltdc.c **** }
 1489              		.loc 1 1015 1
 1490 0066 1846     		mov	r0, r3
 1491 0068 0C37     		adds	r7, r7, #12
 1492              	.LCFI77:
 1493              		.cfi_def_cfa_offset 4
 1494 006a BD46     		mov	sp, r7
 1495              	.LCFI78:
 1496              		.cfi_def_cfa_register 13
 1497              		@ sp needed
 1498 006c 5DF8047B 		ldr	r7, [sp], #4
 1499              	.LCFI79:
 1500              		.cfi_restore 7
 1501              		.cfi_def_cfa_offset 0
 1502 0070 7047     		bx	lr
 1503              		.cfi_endproc
 1504              	.LFE344:
 1506              		.section	.text.HAL_LTDC_DisableCLUT,"ax",%progbits
 1507              		.align	1
 1508              		.global	HAL_LTDC_DisableCLUT
 1509              		.syntax unified
 1510              		.thumb
 1511              		.thumb_func
 1512              		.fpu fpv5-d16
 1514              	HAL_LTDC_DisableCLUT:
 1515              	.LFB345:
1016:./Libraries/STM32H7xx_HAL_Driver/Src/stm32h7xx_hal_ltdc.c **** 
1017:./Libraries/STM32H7xx_HAL_Driver/Src/stm32h7xx_hal_ltdc.c **** /**
ARM GAS  /tmp/cc7azozz.s 			page 45


1018:./Libraries/STM32H7xx_HAL_Driver/Src/stm32h7xx_hal_ltdc.c ****   * @brief  Disable the color lookup table.
1019:./Libraries/STM32H7xx_HAL_Driver/Src/stm32h7xx_hal_ltdc.c ****   * @param  hltdc     pointer to a LTDC_HandleTypeDef structure that contains
1020:./Libraries/STM32H7xx_HAL_Driver/Src/stm32h7xx_hal_ltdc.c ****   *                   the configuration information for the LTDC.
1021:./Libraries/STM32H7xx_HAL_Driver/Src/stm32h7xx_hal_ltdc.c ****   * @param  LayerIdx  LTDC Layer index.
1022:./Libraries/STM32H7xx_HAL_Driver/Src/stm32h7xx_hal_ltdc.c ****   *                   This parameter can be one of the following values:
1023:./Libraries/STM32H7xx_HAL_Driver/Src/stm32h7xx_hal_ltdc.c ****   *                   LTDC_LAYER_1 (0) or LTDC_LAYER_2 (1)
1024:./Libraries/STM32H7xx_HAL_Driver/Src/stm32h7xx_hal_ltdc.c ****   * @retval  HAL status
1025:./Libraries/STM32H7xx_HAL_Driver/Src/stm32h7xx_hal_ltdc.c ****   */
1026:./Libraries/STM32H7xx_HAL_Driver/Src/stm32h7xx_hal_ltdc.c **** HAL_StatusTypeDef HAL_LTDC_DisableCLUT(LTDC_HandleTypeDef *hltdc, uint32_t LayerIdx)
1027:./Libraries/STM32H7xx_HAL_Driver/Src/stm32h7xx_hal_ltdc.c **** {
 1516              		.loc 1 1027 1
 1517              		.cfi_startproc
 1518              		@ args = 0, pretend = 0, frame = 8
 1519              		@ frame_needed = 1, uses_anonymous_args = 0
 1520              		@ link register save eliminated.
 1521 0000 80B4     		push	{r7}
 1522              	.LCFI80:
 1523              		.cfi_def_cfa_offset 4
 1524              		.cfi_offset 7, -4
 1525 0002 83B0     		sub	sp, sp, #12
 1526              	.LCFI81:
 1527              		.cfi_def_cfa_offset 16
 1528 0004 00AF     		add	r7, sp, #0
 1529              	.LCFI82:
 1530              		.cfi_def_cfa_register 7
 1531 0006 7860     		str	r0, [r7, #4]
 1532 0008 3960     		str	r1, [r7]
1028:./Libraries/STM32H7xx_HAL_Driver/Src/stm32h7xx_hal_ltdc.c ****   /* Check the parameters */
1029:./Libraries/STM32H7xx_HAL_Driver/Src/stm32h7xx_hal_ltdc.c ****   assert_param(IS_LTDC_LAYER(LayerIdx));
1030:./Libraries/STM32H7xx_HAL_Driver/Src/stm32h7xx_hal_ltdc.c **** 
1031:./Libraries/STM32H7xx_HAL_Driver/Src/stm32h7xx_hal_ltdc.c ****   /* Process locked */
1032:./Libraries/STM32H7xx_HAL_Driver/Src/stm32h7xx_hal_ltdc.c ****   __HAL_LOCK(hltdc);
 1533              		.loc 1 1032 3
 1534 000a 7B68     		ldr	r3, [r7, #4]
 1535 000c 93F8A030 		ldrb	r3, [r3, #160]	@ zero_extendqisi2
 1536 0010 012B     		cmp	r3, #1
 1537 0012 01D1     		bne	.L43
 1538              		.loc 1 1032 3 is_stmt 0 discriminator 1
 1539 0014 0223     		movs	r3, #2
 1540 0016 26E0     		b	.L44
 1541              	.L43:
 1542              		.loc 1 1032 3 discriminator 2
 1543 0018 7B68     		ldr	r3, [r7, #4]
 1544 001a 0122     		movs	r2, #1
 1545 001c 83F8A020 		strb	r2, [r3, #160]
1033:./Libraries/STM32H7xx_HAL_Driver/Src/stm32h7xx_hal_ltdc.c **** 
1034:./Libraries/STM32H7xx_HAL_Driver/Src/stm32h7xx_hal_ltdc.c ****   /* Change LTDC peripheral state */
1035:./Libraries/STM32H7xx_HAL_Driver/Src/stm32h7xx_hal_ltdc.c ****   hltdc->State = HAL_LTDC_STATE_BUSY;
 1546              		.loc 1 1035 16 is_stmt 1 discriminator 2
 1547 0020 7B68     		ldr	r3, [r7, #4]
 1548 0022 0222     		movs	r2, #2
 1549 0024 83F8A120 		strb	r2, [r3, #161]
1036:./Libraries/STM32H7xx_HAL_Driver/Src/stm32h7xx_hal_ltdc.c **** 
1037:./Libraries/STM32H7xx_HAL_Driver/Src/stm32h7xx_hal_ltdc.c ****   /* Disable LTDC color lookup table by setting CLUTEN bit */
1038:./Libraries/STM32H7xx_HAL_Driver/Src/stm32h7xx_hal_ltdc.c ****   LTDC_LAYER(hltdc, LayerIdx)->CR &= ~(uint32_t)LTDC_LxCR_CLUTEN;
 1550              		.loc 1 1038 3 discriminator 2
 1551 0028 7B68     		ldr	r3, [r7, #4]
ARM GAS  /tmp/cc7azozz.s 			page 46


 1552 002a 1B68     		ldr	r3, [r3]
 1553              		.loc 1 1038 35 discriminator 2
 1554 002c 1A46     		mov	r2, r3
 1555 002e 3B68     		ldr	r3, [r7]
 1556 0030 DB01     		lsls	r3, r3, #7
 1557 0032 1344     		add	r3, r3, r2
 1558 0034 8433     		adds	r3, r3, #132
 1559 0036 1B68     		ldr	r3, [r3]
 1560              		.loc 1 1038 3 discriminator 2
 1561 0038 7A68     		ldr	r2, [r7, #4]
 1562 003a 1268     		ldr	r2, [r2]
 1563              		.loc 1 1038 35 discriminator 2
 1564 003c 1146     		mov	r1, r2
 1565 003e 3A68     		ldr	r2, [r7]
 1566 0040 D201     		lsls	r2, r2, #7
 1567 0042 0A44     		add	r2, r2, r1
 1568 0044 8432     		adds	r2, r2, #132
 1569 0046 23F01003 		bic	r3, r3, #16
 1570 004a 1360     		str	r3, [r2]
1039:./Libraries/STM32H7xx_HAL_Driver/Src/stm32h7xx_hal_ltdc.c **** 
1040:./Libraries/STM32H7xx_HAL_Driver/Src/stm32h7xx_hal_ltdc.c ****   /* Set the Immediate Reload type */
1041:./Libraries/STM32H7xx_HAL_Driver/Src/stm32h7xx_hal_ltdc.c ****   hltdc->Instance->SRCR = LTDC_SRCR_IMR;
 1571              		.loc 1 1041 8 discriminator 2
 1572 004c 7B68     		ldr	r3, [r7, #4]
 1573 004e 1B68     		ldr	r3, [r3]
 1574              		.loc 1 1041 25 discriminator 2
 1575 0050 0122     		movs	r2, #1
 1576 0052 5A62     		str	r2, [r3, #36]
1042:./Libraries/STM32H7xx_HAL_Driver/Src/stm32h7xx_hal_ltdc.c **** 
1043:./Libraries/STM32H7xx_HAL_Driver/Src/stm32h7xx_hal_ltdc.c ****   /* Change the LTDC state*/
1044:./Libraries/STM32H7xx_HAL_Driver/Src/stm32h7xx_hal_ltdc.c ****   hltdc->State = HAL_LTDC_STATE_READY;
 1577              		.loc 1 1044 16 discriminator 2
 1578 0054 7B68     		ldr	r3, [r7, #4]
 1579 0056 0122     		movs	r2, #1
 1580 0058 83F8A120 		strb	r2, [r3, #161]
1045:./Libraries/STM32H7xx_HAL_Driver/Src/stm32h7xx_hal_ltdc.c **** 
1046:./Libraries/STM32H7xx_HAL_Driver/Src/stm32h7xx_hal_ltdc.c ****   /* Process unlocked */
1047:./Libraries/STM32H7xx_HAL_Driver/Src/stm32h7xx_hal_ltdc.c ****   __HAL_UNLOCK(hltdc);
 1581              		.loc 1 1047 3 discriminator 2
 1582 005c 7B68     		ldr	r3, [r7, #4]
 1583 005e 0022     		movs	r2, #0
 1584 0060 83F8A020 		strb	r2, [r3, #160]
1048:./Libraries/STM32H7xx_HAL_Driver/Src/stm32h7xx_hal_ltdc.c **** 
1049:./Libraries/STM32H7xx_HAL_Driver/Src/stm32h7xx_hal_ltdc.c ****   return HAL_OK;
 1585              		.loc 1 1049 10 discriminator 2
 1586 0064 0023     		movs	r3, #0
 1587              	.L44:
1050:./Libraries/STM32H7xx_HAL_Driver/Src/stm32h7xx_hal_ltdc.c **** }
 1588              		.loc 1 1050 1
 1589 0066 1846     		mov	r0, r3
 1590 0068 0C37     		adds	r7, r7, #12
 1591              	.LCFI83:
 1592              		.cfi_def_cfa_offset 4
 1593 006a BD46     		mov	sp, r7
 1594              	.LCFI84:
 1595              		.cfi_def_cfa_register 13
 1596              		@ sp needed
ARM GAS  /tmp/cc7azozz.s 			page 47


 1597 006c 5DF8047B 		ldr	r7, [sp], #4
 1598              	.LCFI85:
 1599              		.cfi_restore 7
 1600              		.cfi_def_cfa_offset 0
 1601 0070 7047     		bx	lr
 1602              		.cfi_endproc
 1603              	.LFE345:
 1605              		.section	.text.HAL_LTDC_EnableDither,"ax",%progbits
 1606              		.align	1
 1607              		.global	HAL_LTDC_EnableDither
 1608              		.syntax unified
 1609              		.thumb
 1610              		.thumb_func
 1611              		.fpu fpv5-d16
 1613              	HAL_LTDC_EnableDither:
 1614              	.LFB346:
1051:./Libraries/STM32H7xx_HAL_Driver/Src/stm32h7xx_hal_ltdc.c **** 
1052:./Libraries/STM32H7xx_HAL_Driver/Src/stm32h7xx_hal_ltdc.c **** /**
1053:./Libraries/STM32H7xx_HAL_Driver/Src/stm32h7xx_hal_ltdc.c ****   * @brief  Enable Dither.
1054:./Libraries/STM32H7xx_HAL_Driver/Src/stm32h7xx_hal_ltdc.c ****   * @param  hltdc  pointer to a LTDC_HandleTypeDef structure that contains
1055:./Libraries/STM32H7xx_HAL_Driver/Src/stm32h7xx_hal_ltdc.c ****   *                the configuration information for the LTDC.
1056:./Libraries/STM32H7xx_HAL_Driver/Src/stm32h7xx_hal_ltdc.c ****   * @retval  HAL status
1057:./Libraries/STM32H7xx_HAL_Driver/Src/stm32h7xx_hal_ltdc.c ****   */
1058:./Libraries/STM32H7xx_HAL_Driver/Src/stm32h7xx_hal_ltdc.c **** 
1059:./Libraries/STM32H7xx_HAL_Driver/Src/stm32h7xx_hal_ltdc.c **** HAL_StatusTypeDef HAL_LTDC_EnableDither(LTDC_HandleTypeDef *hltdc)
1060:./Libraries/STM32H7xx_HAL_Driver/Src/stm32h7xx_hal_ltdc.c **** {
 1615              		.loc 1 1060 1
 1616              		.cfi_startproc
 1617              		@ args = 0, pretend = 0, frame = 8
 1618              		@ frame_needed = 1, uses_anonymous_args = 0
 1619              		@ link register save eliminated.
 1620 0000 80B4     		push	{r7}
 1621              	.LCFI86:
 1622              		.cfi_def_cfa_offset 4
 1623              		.cfi_offset 7, -4
 1624 0002 83B0     		sub	sp, sp, #12
 1625              	.LCFI87:
 1626              		.cfi_def_cfa_offset 16
 1627 0004 00AF     		add	r7, sp, #0
 1628              	.LCFI88:
 1629              		.cfi_def_cfa_register 7
 1630 0006 7860     		str	r0, [r7, #4]
1061:./Libraries/STM32H7xx_HAL_Driver/Src/stm32h7xx_hal_ltdc.c ****   /* Process locked */
1062:./Libraries/STM32H7xx_HAL_Driver/Src/stm32h7xx_hal_ltdc.c ****   __HAL_LOCK(hltdc);
 1631              		.loc 1 1062 3
 1632 0008 7B68     		ldr	r3, [r7, #4]
 1633 000a 93F8A030 		ldrb	r3, [r3, #160]	@ zero_extendqisi2
 1634 000e 012B     		cmp	r3, #1
 1635 0010 01D1     		bne	.L46
 1636              		.loc 1 1062 3 is_stmt 0 discriminator 1
 1637 0012 0223     		movs	r3, #2
 1638 0014 16E0     		b	.L47
 1639              	.L46:
 1640              		.loc 1 1062 3 discriminator 2
 1641 0016 7B68     		ldr	r3, [r7, #4]
 1642 0018 0122     		movs	r2, #1
 1643 001a 83F8A020 		strb	r2, [r3, #160]
ARM GAS  /tmp/cc7azozz.s 			page 48


1063:./Libraries/STM32H7xx_HAL_Driver/Src/stm32h7xx_hal_ltdc.c **** 
1064:./Libraries/STM32H7xx_HAL_Driver/Src/stm32h7xx_hal_ltdc.c ****   /* Change LTDC peripheral state */
1065:./Libraries/STM32H7xx_HAL_Driver/Src/stm32h7xx_hal_ltdc.c ****   hltdc->State = HAL_LTDC_STATE_BUSY;
 1644              		.loc 1 1065 16 is_stmt 1 discriminator 2
 1645 001e 7B68     		ldr	r3, [r7, #4]
 1646 0020 0222     		movs	r2, #2
 1647 0022 83F8A120 		strb	r2, [r3, #161]
1066:./Libraries/STM32H7xx_HAL_Driver/Src/stm32h7xx_hal_ltdc.c **** 
1067:./Libraries/STM32H7xx_HAL_Driver/Src/stm32h7xx_hal_ltdc.c ****   /* Enable Dither by setting DTEN bit */
1068:./Libraries/STM32H7xx_HAL_Driver/Src/stm32h7xx_hal_ltdc.c ****   LTDC->GCR |= (uint32_t)LTDC_GCR_DEN;
 1648              		.loc 1 1068 13 discriminator 2
 1649 0026 0A4B     		ldr	r3, .L48
 1650 0028 9B69     		ldr	r3, [r3, #24]
 1651 002a 094A     		ldr	r2, .L48
 1652 002c 43F48033 		orr	r3, r3, #65536
 1653 0030 9361     		str	r3, [r2, #24]
1069:./Libraries/STM32H7xx_HAL_Driver/Src/stm32h7xx_hal_ltdc.c **** 
1070:./Libraries/STM32H7xx_HAL_Driver/Src/stm32h7xx_hal_ltdc.c ****   /* Change the LTDC state*/
1071:./Libraries/STM32H7xx_HAL_Driver/Src/stm32h7xx_hal_ltdc.c ****   hltdc->State = HAL_LTDC_STATE_READY;
 1654              		.loc 1 1071 16 discriminator 2
 1655 0032 7B68     		ldr	r3, [r7, #4]
 1656 0034 0122     		movs	r2, #1
 1657 0036 83F8A120 		strb	r2, [r3, #161]
1072:./Libraries/STM32H7xx_HAL_Driver/Src/stm32h7xx_hal_ltdc.c **** 
1073:./Libraries/STM32H7xx_HAL_Driver/Src/stm32h7xx_hal_ltdc.c ****   /* Process unlocked */
1074:./Libraries/STM32H7xx_HAL_Driver/Src/stm32h7xx_hal_ltdc.c ****   __HAL_UNLOCK(hltdc);
 1658              		.loc 1 1074 3 discriminator 2
 1659 003a 7B68     		ldr	r3, [r7, #4]
 1660 003c 0022     		movs	r2, #0
 1661 003e 83F8A020 		strb	r2, [r3, #160]
1075:./Libraries/STM32H7xx_HAL_Driver/Src/stm32h7xx_hal_ltdc.c **** 
1076:./Libraries/STM32H7xx_HAL_Driver/Src/stm32h7xx_hal_ltdc.c ****   return HAL_OK;
 1662              		.loc 1 1076 10 discriminator 2
 1663 0042 0023     		movs	r3, #0
 1664              	.L47:
1077:./Libraries/STM32H7xx_HAL_Driver/Src/stm32h7xx_hal_ltdc.c **** }
 1665              		.loc 1 1077 1
 1666 0044 1846     		mov	r0, r3
 1667 0046 0C37     		adds	r7, r7, #12
 1668              	.LCFI89:
 1669              		.cfi_def_cfa_offset 4
 1670 0048 BD46     		mov	sp, r7
 1671              	.LCFI90:
 1672              		.cfi_def_cfa_register 13
 1673              		@ sp needed
 1674 004a 5DF8047B 		ldr	r7, [sp], #4
 1675              	.LCFI91:
 1676              		.cfi_restore 7
 1677              		.cfi_def_cfa_offset 0
 1678 004e 7047     		bx	lr
 1679              	.L49:
 1680              		.align	2
 1681              	.L48:
 1682 0050 00100050 		.word	1342181376
 1683              		.cfi_endproc
 1684              	.LFE346:
 1686              		.section	.text.HAL_LTDC_DisableDither,"ax",%progbits
ARM GAS  /tmp/cc7azozz.s 			page 49


 1687              		.align	1
 1688              		.global	HAL_LTDC_DisableDither
 1689              		.syntax unified
 1690              		.thumb
 1691              		.thumb_func
 1692              		.fpu fpv5-d16
 1694              	HAL_LTDC_DisableDither:
 1695              	.LFB347:
1078:./Libraries/STM32H7xx_HAL_Driver/Src/stm32h7xx_hal_ltdc.c **** 
1079:./Libraries/STM32H7xx_HAL_Driver/Src/stm32h7xx_hal_ltdc.c **** /**
1080:./Libraries/STM32H7xx_HAL_Driver/Src/stm32h7xx_hal_ltdc.c ****   * @brief  Disable Dither.
1081:./Libraries/STM32H7xx_HAL_Driver/Src/stm32h7xx_hal_ltdc.c ****   * @param  hltdc  pointer to a LTDC_HandleTypeDef structure that contains
1082:./Libraries/STM32H7xx_HAL_Driver/Src/stm32h7xx_hal_ltdc.c ****   *                the configuration information for the LTDC.
1083:./Libraries/STM32H7xx_HAL_Driver/Src/stm32h7xx_hal_ltdc.c ****   * @retval  HAL status
1084:./Libraries/STM32H7xx_HAL_Driver/Src/stm32h7xx_hal_ltdc.c ****   */
1085:./Libraries/STM32H7xx_HAL_Driver/Src/stm32h7xx_hal_ltdc.c **** 
1086:./Libraries/STM32H7xx_HAL_Driver/Src/stm32h7xx_hal_ltdc.c **** HAL_StatusTypeDef HAL_LTDC_DisableDither(LTDC_HandleTypeDef *hltdc)
1087:./Libraries/STM32H7xx_HAL_Driver/Src/stm32h7xx_hal_ltdc.c **** {
 1696              		.loc 1 1087 1
 1697              		.cfi_startproc
 1698              		@ args = 0, pretend = 0, frame = 8
 1699              		@ frame_needed = 1, uses_anonymous_args = 0
 1700              		@ link register save eliminated.
 1701 0000 80B4     		push	{r7}
 1702              	.LCFI92:
 1703              		.cfi_def_cfa_offset 4
 1704              		.cfi_offset 7, -4
 1705 0002 83B0     		sub	sp, sp, #12
 1706              	.LCFI93:
 1707              		.cfi_def_cfa_offset 16
 1708 0004 00AF     		add	r7, sp, #0
 1709              	.LCFI94:
 1710              		.cfi_def_cfa_register 7
 1711 0006 7860     		str	r0, [r7, #4]
1088:./Libraries/STM32H7xx_HAL_Driver/Src/stm32h7xx_hal_ltdc.c ****   /* Process locked */
1089:./Libraries/STM32H7xx_HAL_Driver/Src/stm32h7xx_hal_ltdc.c ****   __HAL_LOCK(hltdc);
 1712              		.loc 1 1089 3
 1713 0008 7B68     		ldr	r3, [r7, #4]
 1714 000a 93F8A030 		ldrb	r3, [r3, #160]	@ zero_extendqisi2
 1715 000e 012B     		cmp	r3, #1
 1716 0010 01D1     		bne	.L51
 1717              		.loc 1 1089 3 is_stmt 0 discriminator 1
 1718 0012 0223     		movs	r3, #2
 1719 0014 16E0     		b	.L52
 1720              	.L51:
 1721              		.loc 1 1089 3 discriminator 2
 1722 0016 7B68     		ldr	r3, [r7, #4]
 1723 0018 0122     		movs	r2, #1
 1724 001a 83F8A020 		strb	r2, [r3, #160]
1090:./Libraries/STM32H7xx_HAL_Driver/Src/stm32h7xx_hal_ltdc.c **** 
1091:./Libraries/STM32H7xx_HAL_Driver/Src/stm32h7xx_hal_ltdc.c ****   /* Change LTDC peripheral state */
1092:./Libraries/STM32H7xx_HAL_Driver/Src/stm32h7xx_hal_ltdc.c ****   hltdc->State = HAL_LTDC_STATE_BUSY;
 1725              		.loc 1 1092 16 is_stmt 1 discriminator 2
 1726 001e 7B68     		ldr	r3, [r7, #4]
 1727 0020 0222     		movs	r2, #2
 1728 0022 83F8A120 		strb	r2, [r3, #161]
1093:./Libraries/STM32H7xx_HAL_Driver/Src/stm32h7xx_hal_ltdc.c **** 
ARM GAS  /tmp/cc7azozz.s 			page 50


1094:./Libraries/STM32H7xx_HAL_Driver/Src/stm32h7xx_hal_ltdc.c ****   /* Disable Dither by setting DTEN bit */
1095:./Libraries/STM32H7xx_HAL_Driver/Src/stm32h7xx_hal_ltdc.c ****   LTDC->GCR &= ~(uint32_t)LTDC_GCR_DEN;
 1729              		.loc 1 1095 13 discriminator 2
 1730 0026 0A4B     		ldr	r3, .L53
 1731 0028 9B69     		ldr	r3, [r3, #24]
 1732 002a 094A     		ldr	r2, .L53
 1733 002c 23F48033 		bic	r3, r3, #65536
 1734 0030 9361     		str	r3, [r2, #24]
1096:./Libraries/STM32H7xx_HAL_Driver/Src/stm32h7xx_hal_ltdc.c **** 
1097:./Libraries/STM32H7xx_HAL_Driver/Src/stm32h7xx_hal_ltdc.c ****   /* Change the LTDC state*/
1098:./Libraries/STM32H7xx_HAL_Driver/Src/stm32h7xx_hal_ltdc.c ****   hltdc->State = HAL_LTDC_STATE_READY;
 1735              		.loc 1 1098 16 discriminator 2
 1736 0032 7B68     		ldr	r3, [r7, #4]
 1737 0034 0122     		movs	r2, #1
 1738 0036 83F8A120 		strb	r2, [r3, #161]
1099:./Libraries/STM32H7xx_HAL_Driver/Src/stm32h7xx_hal_ltdc.c **** 
1100:./Libraries/STM32H7xx_HAL_Driver/Src/stm32h7xx_hal_ltdc.c ****   /* Process unlocked */
1101:./Libraries/STM32H7xx_HAL_Driver/Src/stm32h7xx_hal_ltdc.c ****   __HAL_UNLOCK(hltdc);
 1739              		.loc 1 1101 3 discriminator 2
 1740 003a 7B68     		ldr	r3, [r7, #4]
 1741 003c 0022     		movs	r2, #0
 1742 003e 83F8A020 		strb	r2, [r3, #160]
1102:./Libraries/STM32H7xx_HAL_Driver/Src/stm32h7xx_hal_ltdc.c **** 
1103:./Libraries/STM32H7xx_HAL_Driver/Src/stm32h7xx_hal_ltdc.c ****   return HAL_OK;
 1743              		.loc 1 1103 10 discriminator 2
 1744 0042 0023     		movs	r3, #0
 1745              	.L52:
1104:./Libraries/STM32H7xx_HAL_Driver/Src/stm32h7xx_hal_ltdc.c **** }
 1746              		.loc 1 1104 1
 1747 0044 1846     		mov	r0, r3
 1748 0046 0C37     		adds	r7, r7, #12
 1749              	.LCFI95:
 1750              		.cfi_def_cfa_offset 4
 1751 0048 BD46     		mov	sp, r7
 1752              	.LCFI96:
 1753              		.cfi_def_cfa_register 13
 1754              		@ sp needed
 1755 004a 5DF8047B 		ldr	r7, [sp], #4
 1756              	.LCFI97:
 1757              		.cfi_restore 7
 1758              		.cfi_def_cfa_offset 0
 1759 004e 7047     		bx	lr
 1760              	.L54:
 1761              		.align	2
 1762              	.L53:
 1763 0050 00100050 		.word	1342181376
 1764              		.cfi_endproc
 1765              	.LFE347:
 1767              		.section	.text.HAL_LTDC_SetWindowSize,"ax",%progbits
 1768              		.align	1
 1769              		.global	HAL_LTDC_SetWindowSize
 1770              		.syntax unified
 1771              		.thumb
 1772              		.thumb_func
 1773              		.fpu fpv5-d16
 1775              	HAL_LTDC_SetWindowSize:
 1776              	.LFB348:
ARM GAS  /tmp/cc7azozz.s 			page 51


1105:./Libraries/STM32H7xx_HAL_Driver/Src/stm32h7xx_hal_ltdc.c **** 
1106:./Libraries/STM32H7xx_HAL_Driver/Src/stm32h7xx_hal_ltdc.c **** /**
1107:./Libraries/STM32H7xx_HAL_Driver/Src/stm32h7xx_hal_ltdc.c ****   * @brief  Set the LTDC window size.
1108:./Libraries/STM32H7xx_HAL_Driver/Src/stm32h7xx_hal_ltdc.c ****   * @param  hltdc     pointer to a LTDC_HandleTypeDef structure that contains
1109:./Libraries/STM32H7xx_HAL_Driver/Src/stm32h7xx_hal_ltdc.c ****   *                   the configuration information for the LTDC.
1110:./Libraries/STM32H7xx_HAL_Driver/Src/stm32h7xx_hal_ltdc.c ****   * @param  XSize     LTDC Pixel per line
1111:./Libraries/STM32H7xx_HAL_Driver/Src/stm32h7xx_hal_ltdc.c ****   * @param  YSize     LTDC Line number
1112:./Libraries/STM32H7xx_HAL_Driver/Src/stm32h7xx_hal_ltdc.c ****   * @param  LayerIdx  LTDC Layer index.
1113:./Libraries/STM32H7xx_HAL_Driver/Src/stm32h7xx_hal_ltdc.c ****   *                   This parameter can be one of the following values:
1114:./Libraries/STM32H7xx_HAL_Driver/Src/stm32h7xx_hal_ltdc.c ****   *                   LTDC_LAYER_1 (0) or LTDC_LAYER_2 (1)
1115:./Libraries/STM32H7xx_HAL_Driver/Src/stm32h7xx_hal_ltdc.c ****   * @retval  HAL status
1116:./Libraries/STM32H7xx_HAL_Driver/Src/stm32h7xx_hal_ltdc.c ****   */
1117:./Libraries/STM32H7xx_HAL_Driver/Src/stm32h7xx_hal_ltdc.c **** HAL_StatusTypeDef HAL_LTDC_SetWindowSize(LTDC_HandleTypeDef *hltdc, uint32_t XSize, uint32_t YSize,
1118:./Libraries/STM32H7xx_HAL_Driver/Src/stm32h7xx_hal_ltdc.c **** {
 1777              		.loc 1 1118 1
 1778              		.cfi_startproc
 1779              		@ args = 0, pretend = 0, frame = 24
 1780              		@ frame_needed = 1, uses_anonymous_args = 0
 1781 0000 80B5     		push	{r7, lr}
 1782              	.LCFI98:
 1783              		.cfi_def_cfa_offset 8
 1784              		.cfi_offset 7, -8
 1785              		.cfi_offset 14, -4
 1786 0002 86B0     		sub	sp, sp, #24
 1787              	.LCFI99:
 1788              		.cfi_def_cfa_offset 32
 1789 0004 00AF     		add	r7, sp, #0
 1790              	.LCFI100:
 1791              		.cfi_def_cfa_register 7
 1792 0006 F860     		str	r0, [r7, #12]
 1793 0008 B960     		str	r1, [r7, #8]
 1794 000a 7A60     		str	r2, [r7, #4]
 1795 000c 3B60     		str	r3, [r7]
1119:./Libraries/STM32H7xx_HAL_Driver/Src/stm32h7xx_hal_ltdc.c ****   LTDC_LayerCfgTypeDef *pLayerCfg;
1120:./Libraries/STM32H7xx_HAL_Driver/Src/stm32h7xx_hal_ltdc.c **** 
1121:./Libraries/STM32H7xx_HAL_Driver/Src/stm32h7xx_hal_ltdc.c ****   /* Check the parameters (Layers parameters)*/
1122:./Libraries/STM32H7xx_HAL_Driver/Src/stm32h7xx_hal_ltdc.c ****   assert_param(IS_LTDC_LAYER(LayerIdx));
1123:./Libraries/STM32H7xx_HAL_Driver/Src/stm32h7xx_hal_ltdc.c ****   assert_param(IS_LTDC_CFBLL(XSize));
1124:./Libraries/STM32H7xx_HAL_Driver/Src/stm32h7xx_hal_ltdc.c ****   assert_param(IS_LTDC_CFBLNBR(YSize));
1125:./Libraries/STM32H7xx_HAL_Driver/Src/stm32h7xx_hal_ltdc.c **** 
1126:./Libraries/STM32H7xx_HAL_Driver/Src/stm32h7xx_hal_ltdc.c ****   /* Process locked */
1127:./Libraries/STM32H7xx_HAL_Driver/Src/stm32h7xx_hal_ltdc.c ****   __HAL_LOCK(hltdc);
 1796              		.loc 1 1127 3
 1797 000e FB68     		ldr	r3, [r7, #12]
 1798 0010 93F8A030 		ldrb	r3, [r3, #160]	@ zero_extendqisi2
 1799 0014 012B     		cmp	r3, #1
 1800 0016 01D1     		bne	.L56
 1801              		.loc 1 1127 3 is_stmt 0 discriminator 1
 1802 0018 0223     		movs	r3, #2
 1803 001a 33E0     		b	.L57
 1804              	.L56:
 1805              		.loc 1 1127 3 discriminator 2
 1806 001c FB68     		ldr	r3, [r7, #12]
 1807 001e 0122     		movs	r2, #1
 1808 0020 83F8A020 		strb	r2, [r3, #160]
1128:./Libraries/STM32H7xx_HAL_Driver/Src/stm32h7xx_hal_ltdc.c **** 
1129:./Libraries/STM32H7xx_HAL_Driver/Src/stm32h7xx_hal_ltdc.c ****   /* Change LTDC peripheral state */
ARM GAS  /tmp/cc7azozz.s 			page 52


1130:./Libraries/STM32H7xx_HAL_Driver/Src/stm32h7xx_hal_ltdc.c ****   hltdc->State = HAL_LTDC_STATE_BUSY;
 1809              		.loc 1 1130 16 is_stmt 1 discriminator 2
 1810 0024 FB68     		ldr	r3, [r7, #12]
 1811 0026 0222     		movs	r2, #2
 1812 0028 83F8A120 		strb	r2, [r3, #161]
1131:./Libraries/STM32H7xx_HAL_Driver/Src/stm32h7xx_hal_ltdc.c **** 
1132:./Libraries/STM32H7xx_HAL_Driver/Src/stm32h7xx_hal_ltdc.c ****   /* Get layer configuration from handle structure */
1133:./Libraries/STM32H7xx_HAL_Driver/Src/stm32h7xx_hal_ltdc.c ****   pLayerCfg = &hltdc->LayerCfg[LayerIdx];
 1813              		.loc 1 1133 13 discriminator 2
 1814 002c 3B68     		ldr	r3, [r7]
 1815 002e 3422     		movs	r2, #52
 1816 0030 02FB03F3 		mul	r3, r2, r3
 1817 0034 3833     		adds	r3, r3, #56
 1818 0036 FA68     		ldr	r2, [r7, #12]
 1819 0038 1344     		add	r3, r3, r2
 1820 003a 7B61     		str	r3, [r7, #20]
1134:./Libraries/STM32H7xx_HAL_Driver/Src/stm32h7xx_hal_ltdc.c **** 
1135:./Libraries/STM32H7xx_HAL_Driver/Src/stm32h7xx_hal_ltdc.c ****   /* update horizontal stop */
1136:./Libraries/STM32H7xx_HAL_Driver/Src/stm32h7xx_hal_ltdc.c ****   pLayerCfg->WindowX1 = XSize + pLayerCfg->WindowX0;
 1821              		.loc 1 1136 42 discriminator 2
 1822 003c 7B69     		ldr	r3, [r7, #20]
 1823 003e 1A68     		ldr	r2, [r3]
 1824              		.loc 1 1136 31 discriminator 2
 1825 0040 BB68     		ldr	r3, [r7, #8]
 1826 0042 1A44     		add	r2, r2, r3
 1827              		.loc 1 1136 23 discriminator 2
 1828 0044 7B69     		ldr	r3, [r7, #20]
 1829 0046 5A60     		str	r2, [r3, #4]
1137:./Libraries/STM32H7xx_HAL_Driver/Src/stm32h7xx_hal_ltdc.c **** 
1138:./Libraries/STM32H7xx_HAL_Driver/Src/stm32h7xx_hal_ltdc.c ****   /* update vertical stop */
1139:./Libraries/STM32H7xx_HAL_Driver/Src/stm32h7xx_hal_ltdc.c ****   pLayerCfg->WindowY1 = YSize + pLayerCfg->WindowY0;
 1830              		.loc 1 1139 42 discriminator 2
 1831 0048 7B69     		ldr	r3, [r7, #20]
 1832 004a 9A68     		ldr	r2, [r3, #8]
 1833              		.loc 1 1139 31 discriminator 2
 1834 004c 7B68     		ldr	r3, [r7, #4]
 1835 004e 1A44     		add	r2, r2, r3
 1836              		.loc 1 1139 23 discriminator 2
 1837 0050 7B69     		ldr	r3, [r7, #20]
 1838 0052 DA60     		str	r2, [r3, #12]
1140:./Libraries/STM32H7xx_HAL_Driver/Src/stm32h7xx_hal_ltdc.c **** 
1141:./Libraries/STM32H7xx_HAL_Driver/Src/stm32h7xx_hal_ltdc.c ****   /* Reconfigures the color frame buffer pitch in byte */
1142:./Libraries/STM32H7xx_HAL_Driver/Src/stm32h7xx_hal_ltdc.c ****   pLayerCfg->ImageWidth = XSize;
 1839              		.loc 1 1142 25 discriminator 2
 1840 0054 7B69     		ldr	r3, [r7, #20]
 1841 0056 BA68     		ldr	r2, [r7, #8]
 1842 0058 9A62     		str	r2, [r3, #40]
1143:./Libraries/STM32H7xx_HAL_Driver/Src/stm32h7xx_hal_ltdc.c **** 
1144:./Libraries/STM32H7xx_HAL_Driver/Src/stm32h7xx_hal_ltdc.c ****   /* Reconfigures the frame buffer line number */
1145:./Libraries/STM32H7xx_HAL_Driver/Src/stm32h7xx_hal_ltdc.c ****   pLayerCfg->ImageHeight = YSize;
 1843              		.loc 1 1145 26 discriminator 2
 1844 005a 7B69     		ldr	r3, [r7, #20]
 1845 005c 7A68     		ldr	r2, [r7, #4]
 1846 005e DA62     		str	r2, [r3, #44]
1146:./Libraries/STM32H7xx_HAL_Driver/Src/stm32h7xx_hal_ltdc.c **** 
1147:./Libraries/STM32H7xx_HAL_Driver/Src/stm32h7xx_hal_ltdc.c ****   /* Set LTDC parameters */
1148:./Libraries/STM32H7xx_HAL_Driver/Src/stm32h7xx_hal_ltdc.c ****   LTDC_SetConfig(hltdc, pLayerCfg, LayerIdx);
ARM GAS  /tmp/cc7azozz.s 			page 53


 1847              		.loc 1 1148 3 discriminator 2
 1848 0060 3A68     		ldr	r2, [r7]
 1849 0062 7969     		ldr	r1, [r7, #20]
 1850 0064 F868     		ldr	r0, [r7, #12]
 1851 0066 FFF7FEFF 		bl	LTDC_SetConfig
1149:./Libraries/STM32H7xx_HAL_Driver/Src/stm32h7xx_hal_ltdc.c **** 
1150:./Libraries/STM32H7xx_HAL_Driver/Src/stm32h7xx_hal_ltdc.c ****   /* Set the Immediate Reload type */
1151:./Libraries/STM32H7xx_HAL_Driver/Src/stm32h7xx_hal_ltdc.c ****   hltdc->Instance->SRCR = LTDC_SRCR_IMR;
 1852              		.loc 1 1151 8 discriminator 2
 1853 006a FB68     		ldr	r3, [r7, #12]
 1854 006c 1B68     		ldr	r3, [r3]
 1855              		.loc 1 1151 25 discriminator 2
 1856 006e 0122     		movs	r2, #1
 1857 0070 5A62     		str	r2, [r3, #36]
1152:./Libraries/STM32H7xx_HAL_Driver/Src/stm32h7xx_hal_ltdc.c **** 
1153:./Libraries/STM32H7xx_HAL_Driver/Src/stm32h7xx_hal_ltdc.c ****   /* Change the LTDC state*/
1154:./Libraries/STM32H7xx_HAL_Driver/Src/stm32h7xx_hal_ltdc.c ****   hltdc->State = HAL_LTDC_STATE_READY;
 1858              		.loc 1 1154 16 discriminator 2
 1859 0072 FB68     		ldr	r3, [r7, #12]
 1860 0074 0122     		movs	r2, #1
 1861 0076 83F8A120 		strb	r2, [r3, #161]
1155:./Libraries/STM32H7xx_HAL_Driver/Src/stm32h7xx_hal_ltdc.c **** 
1156:./Libraries/STM32H7xx_HAL_Driver/Src/stm32h7xx_hal_ltdc.c ****   /* Process unlocked */
1157:./Libraries/STM32H7xx_HAL_Driver/Src/stm32h7xx_hal_ltdc.c ****   __HAL_UNLOCK(hltdc);
 1862              		.loc 1 1157 3 discriminator 2
 1863 007a FB68     		ldr	r3, [r7, #12]
 1864 007c 0022     		movs	r2, #0
 1865 007e 83F8A020 		strb	r2, [r3, #160]
1158:./Libraries/STM32H7xx_HAL_Driver/Src/stm32h7xx_hal_ltdc.c **** 
1159:./Libraries/STM32H7xx_HAL_Driver/Src/stm32h7xx_hal_ltdc.c ****   return HAL_OK;
 1866              		.loc 1 1159 10 discriminator 2
 1867 0082 0023     		movs	r3, #0
 1868              	.L57:
1160:./Libraries/STM32H7xx_HAL_Driver/Src/stm32h7xx_hal_ltdc.c **** }
 1869              		.loc 1 1160 1
 1870 0084 1846     		mov	r0, r3
 1871 0086 1837     		adds	r7, r7, #24
 1872              	.LCFI101:
 1873              		.cfi_def_cfa_offset 8
 1874 0088 BD46     		mov	sp, r7
 1875              	.LCFI102:
 1876              		.cfi_def_cfa_register 13
 1877              		@ sp needed
 1878 008a 80BD     		pop	{r7, pc}
 1879              		.cfi_endproc
 1880              	.LFE348:
 1882              		.section	.text.HAL_LTDC_SetWindowPosition,"ax",%progbits
 1883              		.align	1
 1884              		.global	HAL_LTDC_SetWindowPosition
 1885              		.syntax unified
 1886              		.thumb
 1887              		.thumb_func
 1888              		.fpu fpv5-d16
 1890              	HAL_LTDC_SetWindowPosition:
 1891              	.LFB349:
1161:./Libraries/STM32H7xx_HAL_Driver/Src/stm32h7xx_hal_ltdc.c **** 
1162:./Libraries/STM32H7xx_HAL_Driver/Src/stm32h7xx_hal_ltdc.c **** /**
ARM GAS  /tmp/cc7azozz.s 			page 54


1163:./Libraries/STM32H7xx_HAL_Driver/Src/stm32h7xx_hal_ltdc.c ****   * @brief  Set the LTDC window position.
1164:./Libraries/STM32H7xx_HAL_Driver/Src/stm32h7xx_hal_ltdc.c ****   * @param  hltdc     pointer to a LTDC_HandleTypeDef structure that contains
1165:./Libraries/STM32H7xx_HAL_Driver/Src/stm32h7xx_hal_ltdc.c ****   *                   the configuration information for the LTDC.
1166:./Libraries/STM32H7xx_HAL_Driver/Src/stm32h7xx_hal_ltdc.c ****   * @param  X0        LTDC window X offset
1167:./Libraries/STM32H7xx_HAL_Driver/Src/stm32h7xx_hal_ltdc.c ****   * @param  Y0        LTDC window Y offset
1168:./Libraries/STM32H7xx_HAL_Driver/Src/stm32h7xx_hal_ltdc.c ****   * @param  LayerIdx  LTDC Layer index.
1169:./Libraries/STM32H7xx_HAL_Driver/Src/stm32h7xx_hal_ltdc.c ****   *                         This parameter can be one of the following values:
1170:./Libraries/STM32H7xx_HAL_Driver/Src/stm32h7xx_hal_ltdc.c ****   *                         LTDC_LAYER_1 (0) or LTDC_LAYER_2 (1)
1171:./Libraries/STM32H7xx_HAL_Driver/Src/stm32h7xx_hal_ltdc.c ****   * @retval  HAL status
1172:./Libraries/STM32H7xx_HAL_Driver/Src/stm32h7xx_hal_ltdc.c ****   */
1173:./Libraries/STM32H7xx_HAL_Driver/Src/stm32h7xx_hal_ltdc.c **** HAL_StatusTypeDef HAL_LTDC_SetWindowPosition(LTDC_HandleTypeDef *hltdc, uint32_t X0, uint32_t Y0, u
1174:./Libraries/STM32H7xx_HAL_Driver/Src/stm32h7xx_hal_ltdc.c **** {
 1892              		.loc 1 1174 1
 1893              		.cfi_startproc
 1894              		@ args = 0, pretend = 0, frame = 24
 1895              		@ frame_needed = 1, uses_anonymous_args = 0
 1896 0000 80B5     		push	{r7, lr}
 1897              	.LCFI103:
 1898              		.cfi_def_cfa_offset 8
 1899              		.cfi_offset 7, -8
 1900              		.cfi_offset 14, -4
 1901 0002 86B0     		sub	sp, sp, #24
 1902              	.LCFI104:
 1903              		.cfi_def_cfa_offset 32
 1904 0004 00AF     		add	r7, sp, #0
 1905              	.LCFI105:
 1906              		.cfi_def_cfa_register 7
 1907 0006 F860     		str	r0, [r7, #12]
 1908 0008 B960     		str	r1, [r7, #8]
 1909 000a 7A60     		str	r2, [r7, #4]
 1910 000c 3B60     		str	r3, [r7]
1175:./Libraries/STM32H7xx_HAL_Driver/Src/stm32h7xx_hal_ltdc.c ****   LTDC_LayerCfgTypeDef *pLayerCfg;
1176:./Libraries/STM32H7xx_HAL_Driver/Src/stm32h7xx_hal_ltdc.c **** 
1177:./Libraries/STM32H7xx_HAL_Driver/Src/stm32h7xx_hal_ltdc.c ****   /* Check the parameters */
1178:./Libraries/STM32H7xx_HAL_Driver/Src/stm32h7xx_hal_ltdc.c ****   assert_param(IS_LTDC_LAYER(LayerIdx));
1179:./Libraries/STM32H7xx_HAL_Driver/Src/stm32h7xx_hal_ltdc.c ****   assert_param(IS_LTDC_CFBLL(X0));
1180:./Libraries/STM32H7xx_HAL_Driver/Src/stm32h7xx_hal_ltdc.c ****   assert_param(IS_LTDC_CFBLNBR(Y0));
1181:./Libraries/STM32H7xx_HAL_Driver/Src/stm32h7xx_hal_ltdc.c **** 
1182:./Libraries/STM32H7xx_HAL_Driver/Src/stm32h7xx_hal_ltdc.c ****   /* Process locked */
1183:./Libraries/STM32H7xx_HAL_Driver/Src/stm32h7xx_hal_ltdc.c ****   __HAL_LOCK(hltdc);
 1911              		.loc 1 1183 3
 1912 000e FB68     		ldr	r3, [r7, #12]
 1913 0010 93F8A030 		ldrb	r3, [r3, #160]	@ zero_extendqisi2
 1914 0014 012B     		cmp	r3, #1
 1915 0016 01D1     		bne	.L59
 1916              		.loc 1 1183 3 is_stmt 0 discriminator 1
 1917 0018 0223     		movs	r3, #2
 1918 001a 33E0     		b	.L60
 1919              	.L59:
 1920              		.loc 1 1183 3 discriminator 2
 1921 001c FB68     		ldr	r3, [r7, #12]
 1922 001e 0122     		movs	r2, #1
 1923 0020 83F8A020 		strb	r2, [r3, #160]
1184:./Libraries/STM32H7xx_HAL_Driver/Src/stm32h7xx_hal_ltdc.c **** 
1185:./Libraries/STM32H7xx_HAL_Driver/Src/stm32h7xx_hal_ltdc.c ****   /* Change LTDC peripheral state */
1186:./Libraries/STM32H7xx_HAL_Driver/Src/stm32h7xx_hal_ltdc.c ****   hltdc->State = HAL_LTDC_STATE_BUSY;
 1924              		.loc 1 1186 16 is_stmt 1 discriminator 2
ARM GAS  /tmp/cc7azozz.s 			page 55


 1925 0024 FB68     		ldr	r3, [r7, #12]
 1926 0026 0222     		movs	r2, #2
 1927 0028 83F8A120 		strb	r2, [r3, #161]
1187:./Libraries/STM32H7xx_HAL_Driver/Src/stm32h7xx_hal_ltdc.c **** 
1188:./Libraries/STM32H7xx_HAL_Driver/Src/stm32h7xx_hal_ltdc.c ****   /* Get layer configuration from handle structure */
1189:./Libraries/STM32H7xx_HAL_Driver/Src/stm32h7xx_hal_ltdc.c ****   pLayerCfg = &hltdc->LayerCfg[LayerIdx];
 1928              		.loc 1 1189 13 discriminator 2
 1929 002c 3B68     		ldr	r3, [r7]
 1930 002e 3422     		movs	r2, #52
 1931 0030 02FB03F3 		mul	r3, r2, r3
 1932 0034 3833     		adds	r3, r3, #56
 1933 0036 FA68     		ldr	r2, [r7, #12]
 1934 0038 1344     		add	r3, r3, r2
 1935 003a 7B61     		str	r3, [r7, #20]
1190:./Libraries/STM32H7xx_HAL_Driver/Src/stm32h7xx_hal_ltdc.c **** 
1191:./Libraries/STM32H7xx_HAL_Driver/Src/stm32h7xx_hal_ltdc.c ****   /* update horizontal start/stop */
1192:./Libraries/STM32H7xx_HAL_Driver/Src/stm32h7xx_hal_ltdc.c ****   pLayerCfg->WindowX0 = X0;
 1936              		.loc 1 1192 23 discriminator 2
 1937 003c 7B69     		ldr	r3, [r7, #20]
 1938 003e BA68     		ldr	r2, [r7, #8]
 1939 0040 1A60     		str	r2, [r3]
1193:./Libraries/STM32H7xx_HAL_Driver/Src/stm32h7xx_hal_ltdc.c ****   pLayerCfg->WindowX1 = X0 + pLayerCfg->ImageWidth;
 1940              		.loc 1 1193 39 discriminator 2
 1941 0042 7B69     		ldr	r3, [r7, #20]
 1942 0044 9A6A     		ldr	r2, [r3, #40]
 1943              		.loc 1 1193 28 discriminator 2
 1944 0046 BB68     		ldr	r3, [r7, #8]
 1945 0048 1A44     		add	r2, r2, r3
 1946              		.loc 1 1193 23 discriminator 2
 1947 004a 7B69     		ldr	r3, [r7, #20]
 1948 004c 5A60     		str	r2, [r3, #4]
1194:./Libraries/STM32H7xx_HAL_Driver/Src/stm32h7xx_hal_ltdc.c **** 
1195:./Libraries/STM32H7xx_HAL_Driver/Src/stm32h7xx_hal_ltdc.c ****   /* update vertical start/stop */
1196:./Libraries/STM32H7xx_HAL_Driver/Src/stm32h7xx_hal_ltdc.c ****   pLayerCfg->WindowY0 = Y0;
 1949              		.loc 1 1196 23 discriminator 2
 1950 004e 7B69     		ldr	r3, [r7, #20]
 1951 0050 7A68     		ldr	r2, [r7, #4]
 1952 0052 9A60     		str	r2, [r3, #8]
1197:./Libraries/STM32H7xx_HAL_Driver/Src/stm32h7xx_hal_ltdc.c ****   pLayerCfg->WindowY1 = Y0 + pLayerCfg->ImageHeight;
 1953              		.loc 1 1197 39 discriminator 2
 1954 0054 7B69     		ldr	r3, [r7, #20]
 1955 0056 DA6A     		ldr	r2, [r3, #44]
 1956              		.loc 1 1197 28 discriminator 2
 1957 0058 7B68     		ldr	r3, [r7, #4]
 1958 005a 1A44     		add	r2, r2, r3
 1959              		.loc 1 1197 23 discriminator 2
 1960 005c 7B69     		ldr	r3, [r7, #20]
 1961 005e DA60     		str	r2, [r3, #12]
1198:./Libraries/STM32H7xx_HAL_Driver/Src/stm32h7xx_hal_ltdc.c **** 
1199:./Libraries/STM32H7xx_HAL_Driver/Src/stm32h7xx_hal_ltdc.c ****   /* Set LTDC parameters */
1200:./Libraries/STM32H7xx_HAL_Driver/Src/stm32h7xx_hal_ltdc.c ****   LTDC_SetConfig(hltdc, pLayerCfg, LayerIdx);
 1962              		.loc 1 1200 3 discriminator 2
 1963 0060 3A68     		ldr	r2, [r7]
 1964 0062 7969     		ldr	r1, [r7, #20]
 1965 0064 F868     		ldr	r0, [r7, #12]
 1966 0066 FFF7FEFF 		bl	LTDC_SetConfig
1201:./Libraries/STM32H7xx_HAL_Driver/Src/stm32h7xx_hal_ltdc.c **** 
ARM GAS  /tmp/cc7azozz.s 			page 56


1202:./Libraries/STM32H7xx_HAL_Driver/Src/stm32h7xx_hal_ltdc.c ****   /* Set the Immediate Reload type */
1203:./Libraries/STM32H7xx_HAL_Driver/Src/stm32h7xx_hal_ltdc.c ****   hltdc->Instance->SRCR = LTDC_SRCR_IMR;
 1967              		.loc 1 1203 8 discriminator 2
 1968 006a FB68     		ldr	r3, [r7, #12]
 1969 006c 1B68     		ldr	r3, [r3]
 1970              		.loc 1 1203 25 discriminator 2
 1971 006e 0122     		movs	r2, #1
 1972 0070 5A62     		str	r2, [r3, #36]
1204:./Libraries/STM32H7xx_HAL_Driver/Src/stm32h7xx_hal_ltdc.c **** 
1205:./Libraries/STM32H7xx_HAL_Driver/Src/stm32h7xx_hal_ltdc.c ****   /* Change the LTDC state*/
1206:./Libraries/STM32H7xx_HAL_Driver/Src/stm32h7xx_hal_ltdc.c ****   hltdc->State = HAL_LTDC_STATE_READY;
 1973              		.loc 1 1206 16 discriminator 2
 1974 0072 FB68     		ldr	r3, [r7, #12]
 1975 0074 0122     		movs	r2, #1
 1976 0076 83F8A120 		strb	r2, [r3, #161]
1207:./Libraries/STM32H7xx_HAL_Driver/Src/stm32h7xx_hal_ltdc.c **** 
1208:./Libraries/STM32H7xx_HAL_Driver/Src/stm32h7xx_hal_ltdc.c ****   /* Process unlocked */
1209:./Libraries/STM32H7xx_HAL_Driver/Src/stm32h7xx_hal_ltdc.c ****   __HAL_UNLOCK(hltdc);
 1977              		.loc 1 1209 3 discriminator 2
 1978 007a FB68     		ldr	r3, [r7, #12]
 1979 007c 0022     		movs	r2, #0
 1980 007e 83F8A020 		strb	r2, [r3, #160]
1210:./Libraries/STM32H7xx_HAL_Driver/Src/stm32h7xx_hal_ltdc.c **** 
1211:./Libraries/STM32H7xx_HAL_Driver/Src/stm32h7xx_hal_ltdc.c ****   return HAL_OK;
 1981              		.loc 1 1211 10 discriminator 2
 1982 0082 0023     		movs	r3, #0
 1983              	.L60:
1212:./Libraries/STM32H7xx_HAL_Driver/Src/stm32h7xx_hal_ltdc.c **** }
 1984              		.loc 1 1212 1
 1985 0084 1846     		mov	r0, r3
 1986 0086 1837     		adds	r7, r7, #24
 1987              	.LCFI106:
 1988              		.cfi_def_cfa_offset 8
 1989 0088 BD46     		mov	sp, r7
 1990              	.LCFI107:
 1991              		.cfi_def_cfa_register 13
 1992              		@ sp needed
 1993 008a 80BD     		pop	{r7, pc}
 1994              		.cfi_endproc
 1995              	.LFE349:
 1997              		.section	.text.HAL_LTDC_SetPixelFormat,"ax",%progbits
 1998              		.align	1
 1999              		.global	HAL_LTDC_SetPixelFormat
 2000              		.syntax unified
 2001              		.thumb
 2002              		.thumb_func
 2003              		.fpu fpv5-d16
 2005              	HAL_LTDC_SetPixelFormat:
 2006              	.LFB350:
1213:./Libraries/STM32H7xx_HAL_Driver/Src/stm32h7xx_hal_ltdc.c **** 
1214:./Libraries/STM32H7xx_HAL_Driver/Src/stm32h7xx_hal_ltdc.c **** /**
1215:./Libraries/STM32H7xx_HAL_Driver/Src/stm32h7xx_hal_ltdc.c ****   * @brief  Reconfigure the pixel format.
1216:./Libraries/STM32H7xx_HAL_Driver/Src/stm32h7xx_hal_ltdc.c ****   * @param  hltdc        pointer to a LTDC_HandleTypeDef structure that contains
1217:./Libraries/STM32H7xx_HAL_Driver/Src/stm32h7xx_hal_ltdc.c ****   *                      the configuration information for the LTDC.
1218:./Libraries/STM32H7xx_HAL_Driver/Src/stm32h7xx_hal_ltdc.c ****   * @param  Pixelformat  new pixel format value.
1219:./Libraries/STM32H7xx_HAL_Driver/Src/stm32h7xx_hal_ltdc.c ****   * @param  LayerIdx     LTDC Layer index.
1220:./Libraries/STM32H7xx_HAL_Driver/Src/stm32h7xx_hal_ltdc.c ****   *                      This parameter can be one of the following values:
ARM GAS  /tmp/cc7azozz.s 			page 57


1221:./Libraries/STM32H7xx_HAL_Driver/Src/stm32h7xx_hal_ltdc.c ****   *                      LTDC_LAYER_1 (0) or LTDC_LAYER_2 (1).
1222:./Libraries/STM32H7xx_HAL_Driver/Src/stm32h7xx_hal_ltdc.c ****   * @retval  HAL status
1223:./Libraries/STM32H7xx_HAL_Driver/Src/stm32h7xx_hal_ltdc.c ****   */
1224:./Libraries/STM32H7xx_HAL_Driver/Src/stm32h7xx_hal_ltdc.c **** HAL_StatusTypeDef HAL_LTDC_SetPixelFormat(LTDC_HandleTypeDef *hltdc, uint32_t Pixelformat, uint32_t
1225:./Libraries/STM32H7xx_HAL_Driver/Src/stm32h7xx_hal_ltdc.c **** {
 2007              		.loc 1 1225 1
 2008              		.cfi_startproc
 2009              		@ args = 0, pretend = 0, frame = 24
 2010              		@ frame_needed = 1, uses_anonymous_args = 0
 2011 0000 80B5     		push	{r7, lr}
 2012              	.LCFI108:
 2013              		.cfi_def_cfa_offset 8
 2014              		.cfi_offset 7, -8
 2015              		.cfi_offset 14, -4
 2016 0002 86B0     		sub	sp, sp, #24
 2017              	.LCFI109:
 2018              		.cfi_def_cfa_offset 32
 2019 0004 00AF     		add	r7, sp, #0
 2020              	.LCFI110:
 2021              		.cfi_def_cfa_register 7
 2022 0006 F860     		str	r0, [r7, #12]
 2023 0008 B960     		str	r1, [r7, #8]
 2024 000a 7A60     		str	r2, [r7, #4]
1226:./Libraries/STM32H7xx_HAL_Driver/Src/stm32h7xx_hal_ltdc.c ****   LTDC_LayerCfgTypeDef *pLayerCfg;
1227:./Libraries/STM32H7xx_HAL_Driver/Src/stm32h7xx_hal_ltdc.c **** 
1228:./Libraries/STM32H7xx_HAL_Driver/Src/stm32h7xx_hal_ltdc.c ****   /* Check the parameters */
1229:./Libraries/STM32H7xx_HAL_Driver/Src/stm32h7xx_hal_ltdc.c ****   assert_param(IS_LTDC_PIXEL_FORMAT(Pixelformat));
1230:./Libraries/STM32H7xx_HAL_Driver/Src/stm32h7xx_hal_ltdc.c ****   assert_param(IS_LTDC_LAYER(LayerIdx));
1231:./Libraries/STM32H7xx_HAL_Driver/Src/stm32h7xx_hal_ltdc.c **** 
1232:./Libraries/STM32H7xx_HAL_Driver/Src/stm32h7xx_hal_ltdc.c ****   /* Process locked */
1233:./Libraries/STM32H7xx_HAL_Driver/Src/stm32h7xx_hal_ltdc.c ****   __HAL_LOCK(hltdc);
 2025              		.loc 1 1233 3
 2026 000c FB68     		ldr	r3, [r7, #12]
 2027 000e 93F8A030 		ldrb	r3, [r3, #160]	@ zero_extendqisi2
 2028 0012 012B     		cmp	r3, #1
 2029 0014 01D1     		bne	.L62
 2030              		.loc 1 1233 3 is_stmt 0 discriminator 1
 2031 0016 0223     		movs	r3, #2
 2032 0018 24E0     		b	.L63
 2033              	.L62:
 2034              		.loc 1 1233 3 discriminator 2
 2035 001a FB68     		ldr	r3, [r7, #12]
 2036 001c 0122     		movs	r2, #1
 2037 001e 83F8A020 		strb	r2, [r3, #160]
1234:./Libraries/STM32H7xx_HAL_Driver/Src/stm32h7xx_hal_ltdc.c **** 
1235:./Libraries/STM32H7xx_HAL_Driver/Src/stm32h7xx_hal_ltdc.c ****   /* Change LTDC peripheral state */
1236:./Libraries/STM32H7xx_HAL_Driver/Src/stm32h7xx_hal_ltdc.c ****   hltdc->State = HAL_LTDC_STATE_BUSY;
 2038              		.loc 1 1236 16 is_stmt 1 discriminator 2
 2039 0022 FB68     		ldr	r3, [r7, #12]
 2040 0024 0222     		movs	r2, #2
 2041 0026 83F8A120 		strb	r2, [r3, #161]
1237:./Libraries/STM32H7xx_HAL_Driver/Src/stm32h7xx_hal_ltdc.c **** 
1238:./Libraries/STM32H7xx_HAL_Driver/Src/stm32h7xx_hal_ltdc.c ****   /* Get layer configuration from handle structure */
1239:./Libraries/STM32H7xx_HAL_Driver/Src/stm32h7xx_hal_ltdc.c ****   pLayerCfg = &hltdc->LayerCfg[LayerIdx];
 2042              		.loc 1 1239 13 discriminator 2
 2043 002a 7B68     		ldr	r3, [r7, #4]
 2044 002c 3422     		movs	r2, #52
ARM GAS  /tmp/cc7azozz.s 			page 58


 2045 002e 02FB03F3 		mul	r3, r2, r3
 2046 0032 3833     		adds	r3, r3, #56
 2047 0034 FA68     		ldr	r2, [r7, #12]
 2048 0036 1344     		add	r3, r3, r2
 2049 0038 7B61     		str	r3, [r7, #20]
1240:./Libraries/STM32H7xx_HAL_Driver/Src/stm32h7xx_hal_ltdc.c **** 
1241:./Libraries/STM32H7xx_HAL_Driver/Src/stm32h7xx_hal_ltdc.c ****   /* Reconfigure the pixel format */
1242:./Libraries/STM32H7xx_HAL_Driver/Src/stm32h7xx_hal_ltdc.c ****   pLayerCfg->PixelFormat = Pixelformat;
 2050              		.loc 1 1242 26 discriminator 2
 2051 003a 7B69     		ldr	r3, [r7, #20]
 2052 003c BA68     		ldr	r2, [r7, #8]
 2053 003e 1A61     		str	r2, [r3, #16]
1243:./Libraries/STM32H7xx_HAL_Driver/Src/stm32h7xx_hal_ltdc.c **** 
1244:./Libraries/STM32H7xx_HAL_Driver/Src/stm32h7xx_hal_ltdc.c ****   /* Set LTDC parameters */
1245:./Libraries/STM32H7xx_HAL_Driver/Src/stm32h7xx_hal_ltdc.c ****   LTDC_SetConfig(hltdc, pLayerCfg, LayerIdx);
 2054              		.loc 1 1245 3 discriminator 2
 2055 0040 7A68     		ldr	r2, [r7, #4]
 2056 0042 7969     		ldr	r1, [r7, #20]
 2057 0044 F868     		ldr	r0, [r7, #12]
 2058 0046 FFF7FEFF 		bl	LTDC_SetConfig
1246:./Libraries/STM32H7xx_HAL_Driver/Src/stm32h7xx_hal_ltdc.c **** 
1247:./Libraries/STM32H7xx_HAL_Driver/Src/stm32h7xx_hal_ltdc.c ****   /* Set the Immediate Reload type */
1248:./Libraries/STM32H7xx_HAL_Driver/Src/stm32h7xx_hal_ltdc.c ****   hltdc->Instance->SRCR = LTDC_SRCR_IMR;
 2059              		.loc 1 1248 8 discriminator 2
 2060 004a FB68     		ldr	r3, [r7, #12]
 2061 004c 1B68     		ldr	r3, [r3]
 2062              		.loc 1 1248 25 discriminator 2
 2063 004e 0122     		movs	r2, #1
 2064 0050 5A62     		str	r2, [r3, #36]
1249:./Libraries/STM32H7xx_HAL_Driver/Src/stm32h7xx_hal_ltdc.c **** 
1250:./Libraries/STM32H7xx_HAL_Driver/Src/stm32h7xx_hal_ltdc.c ****   /* Change the LTDC state*/
1251:./Libraries/STM32H7xx_HAL_Driver/Src/stm32h7xx_hal_ltdc.c ****   hltdc->State = HAL_LTDC_STATE_READY;
 2065              		.loc 1 1251 16 discriminator 2
 2066 0052 FB68     		ldr	r3, [r7, #12]
 2067 0054 0122     		movs	r2, #1
 2068 0056 83F8A120 		strb	r2, [r3, #161]
1252:./Libraries/STM32H7xx_HAL_Driver/Src/stm32h7xx_hal_ltdc.c **** 
1253:./Libraries/STM32H7xx_HAL_Driver/Src/stm32h7xx_hal_ltdc.c ****   /* Process unlocked */
1254:./Libraries/STM32H7xx_HAL_Driver/Src/stm32h7xx_hal_ltdc.c ****   __HAL_UNLOCK(hltdc);
 2069              		.loc 1 1254 3 discriminator 2
 2070 005a FB68     		ldr	r3, [r7, #12]
 2071 005c 0022     		movs	r2, #0
 2072 005e 83F8A020 		strb	r2, [r3, #160]
1255:./Libraries/STM32H7xx_HAL_Driver/Src/stm32h7xx_hal_ltdc.c **** 
1256:./Libraries/STM32H7xx_HAL_Driver/Src/stm32h7xx_hal_ltdc.c ****   return HAL_OK;
 2073              		.loc 1 1256 10 discriminator 2
 2074 0062 0023     		movs	r3, #0
 2075              	.L63:
1257:./Libraries/STM32H7xx_HAL_Driver/Src/stm32h7xx_hal_ltdc.c **** }
 2076              		.loc 1 1257 1
 2077 0064 1846     		mov	r0, r3
 2078 0066 1837     		adds	r7, r7, #24
 2079              	.LCFI111:
 2080              		.cfi_def_cfa_offset 8
 2081 0068 BD46     		mov	sp, r7
 2082              	.LCFI112:
 2083              		.cfi_def_cfa_register 13
ARM GAS  /tmp/cc7azozz.s 			page 59


 2084              		@ sp needed
 2085 006a 80BD     		pop	{r7, pc}
 2086              		.cfi_endproc
 2087              	.LFE350:
 2089              		.section	.text.HAL_LTDC_SetAlpha,"ax",%progbits
 2090              		.align	1
 2091              		.global	HAL_LTDC_SetAlpha
 2092              		.syntax unified
 2093              		.thumb
 2094              		.thumb_func
 2095              		.fpu fpv5-d16
 2097              	HAL_LTDC_SetAlpha:
 2098              	.LFB351:
1258:./Libraries/STM32H7xx_HAL_Driver/Src/stm32h7xx_hal_ltdc.c **** 
1259:./Libraries/STM32H7xx_HAL_Driver/Src/stm32h7xx_hal_ltdc.c **** /**
1260:./Libraries/STM32H7xx_HAL_Driver/Src/stm32h7xx_hal_ltdc.c ****   * @brief  Reconfigure the layer alpha value.
1261:./Libraries/STM32H7xx_HAL_Driver/Src/stm32h7xx_hal_ltdc.c ****   * @param  hltdc     pointer to a LTDC_HandleTypeDef structure that contains
1262:./Libraries/STM32H7xx_HAL_Driver/Src/stm32h7xx_hal_ltdc.c ****   *                   the configuration information for the LTDC.
1263:./Libraries/STM32H7xx_HAL_Driver/Src/stm32h7xx_hal_ltdc.c ****   * @param  Alpha     new alpha value.
1264:./Libraries/STM32H7xx_HAL_Driver/Src/stm32h7xx_hal_ltdc.c ****   * @param  LayerIdx  LTDC Layer index.
1265:./Libraries/STM32H7xx_HAL_Driver/Src/stm32h7xx_hal_ltdc.c ****   *                   This parameter can be one of the following values:
1266:./Libraries/STM32H7xx_HAL_Driver/Src/stm32h7xx_hal_ltdc.c ****   *                   LTDC_LAYER_1 (0) or LTDC_LAYER_2 (1)
1267:./Libraries/STM32H7xx_HAL_Driver/Src/stm32h7xx_hal_ltdc.c ****   * @retval  HAL status
1268:./Libraries/STM32H7xx_HAL_Driver/Src/stm32h7xx_hal_ltdc.c ****   */
1269:./Libraries/STM32H7xx_HAL_Driver/Src/stm32h7xx_hal_ltdc.c **** HAL_StatusTypeDef HAL_LTDC_SetAlpha(LTDC_HandleTypeDef *hltdc, uint32_t Alpha, uint32_t LayerIdx)
1270:./Libraries/STM32H7xx_HAL_Driver/Src/stm32h7xx_hal_ltdc.c **** {
 2099              		.loc 1 1270 1
 2100              		.cfi_startproc
 2101              		@ args = 0, pretend = 0, frame = 24
 2102              		@ frame_needed = 1, uses_anonymous_args = 0
 2103 0000 80B5     		push	{r7, lr}
 2104              	.LCFI113:
 2105              		.cfi_def_cfa_offset 8
 2106              		.cfi_offset 7, -8
 2107              		.cfi_offset 14, -4
 2108 0002 86B0     		sub	sp, sp, #24
 2109              	.LCFI114:
 2110              		.cfi_def_cfa_offset 32
 2111 0004 00AF     		add	r7, sp, #0
 2112              	.LCFI115:
 2113              		.cfi_def_cfa_register 7
 2114 0006 F860     		str	r0, [r7, #12]
 2115 0008 B960     		str	r1, [r7, #8]
 2116 000a 7A60     		str	r2, [r7, #4]
1271:./Libraries/STM32H7xx_HAL_Driver/Src/stm32h7xx_hal_ltdc.c ****   LTDC_LayerCfgTypeDef *pLayerCfg;
1272:./Libraries/STM32H7xx_HAL_Driver/Src/stm32h7xx_hal_ltdc.c **** 
1273:./Libraries/STM32H7xx_HAL_Driver/Src/stm32h7xx_hal_ltdc.c ****   /* Check the parameters */
1274:./Libraries/STM32H7xx_HAL_Driver/Src/stm32h7xx_hal_ltdc.c ****   assert_param(IS_LTDC_ALPHA(Alpha));
1275:./Libraries/STM32H7xx_HAL_Driver/Src/stm32h7xx_hal_ltdc.c ****   assert_param(IS_LTDC_LAYER(LayerIdx));
1276:./Libraries/STM32H7xx_HAL_Driver/Src/stm32h7xx_hal_ltdc.c **** 
1277:./Libraries/STM32H7xx_HAL_Driver/Src/stm32h7xx_hal_ltdc.c ****   /* Process locked */
1278:./Libraries/STM32H7xx_HAL_Driver/Src/stm32h7xx_hal_ltdc.c ****   __HAL_LOCK(hltdc);
 2117              		.loc 1 1278 3
 2118 000c FB68     		ldr	r3, [r7, #12]
 2119 000e 93F8A030 		ldrb	r3, [r3, #160]	@ zero_extendqisi2
 2120 0012 012B     		cmp	r3, #1
 2121 0014 01D1     		bne	.L65
ARM GAS  /tmp/cc7azozz.s 			page 60


 2122              		.loc 1 1278 3 is_stmt 0 discriminator 1
 2123 0016 0223     		movs	r3, #2
 2124 0018 24E0     		b	.L66
 2125              	.L65:
 2126              		.loc 1 1278 3 discriminator 2
 2127 001a FB68     		ldr	r3, [r7, #12]
 2128 001c 0122     		movs	r2, #1
 2129 001e 83F8A020 		strb	r2, [r3, #160]
1279:./Libraries/STM32H7xx_HAL_Driver/Src/stm32h7xx_hal_ltdc.c **** 
1280:./Libraries/STM32H7xx_HAL_Driver/Src/stm32h7xx_hal_ltdc.c ****   /* Change LTDC peripheral state */
1281:./Libraries/STM32H7xx_HAL_Driver/Src/stm32h7xx_hal_ltdc.c ****   hltdc->State = HAL_LTDC_STATE_BUSY;
 2130              		.loc 1 1281 16 is_stmt 1 discriminator 2
 2131 0022 FB68     		ldr	r3, [r7, #12]
 2132 0024 0222     		movs	r2, #2
 2133 0026 83F8A120 		strb	r2, [r3, #161]
1282:./Libraries/STM32H7xx_HAL_Driver/Src/stm32h7xx_hal_ltdc.c **** 
1283:./Libraries/STM32H7xx_HAL_Driver/Src/stm32h7xx_hal_ltdc.c ****   /* Get layer configuration from handle structure */
1284:./Libraries/STM32H7xx_HAL_Driver/Src/stm32h7xx_hal_ltdc.c ****   pLayerCfg = &hltdc->LayerCfg[LayerIdx];
 2134              		.loc 1 1284 13 discriminator 2
 2135 002a 7B68     		ldr	r3, [r7, #4]
 2136 002c 3422     		movs	r2, #52
 2137 002e 02FB03F3 		mul	r3, r2, r3
 2138 0032 3833     		adds	r3, r3, #56
 2139 0034 FA68     		ldr	r2, [r7, #12]
 2140 0036 1344     		add	r3, r3, r2
 2141 0038 7B61     		str	r3, [r7, #20]
1285:./Libraries/STM32H7xx_HAL_Driver/Src/stm32h7xx_hal_ltdc.c **** 
1286:./Libraries/STM32H7xx_HAL_Driver/Src/stm32h7xx_hal_ltdc.c ****   /* Reconfigure the Alpha value */
1287:./Libraries/STM32H7xx_HAL_Driver/Src/stm32h7xx_hal_ltdc.c ****   pLayerCfg->Alpha = Alpha;
 2142              		.loc 1 1287 20 discriminator 2
 2143 003a 7B69     		ldr	r3, [r7, #20]
 2144 003c BA68     		ldr	r2, [r7, #8]
 2145 003e 5A61     		str	r2, [r3, #20]
1288:./Libraries/STM32H7xx_HAL_Driver/Src/stm32h7xx_hal_ltdc.c **** 
1289:./Libraries/STM32H7xx_HAL_Driver/Src/stm32h7xx_hal_ltdc.c ****   /* Set LTDC parameters */
1290:./Libraries/STM32H7xx_HAL_Driver/Src/stm32h7xx_hal_ltdc.c ****   LTDC_SetConfig(hltdc, pLayerCfg, LayerIdx);
 2146              		.loc 1 1290 3 discriminator 2
 2147 0040 7A68     		ldr	r2, [r7, #4]
 2148 0042 7969     		ldr	r1, [r7, #20]
 2149 0044 F868     		ldr	r0, [r7, #12]
 2150 0046 FFF7FEFF 		bl	LTDC_SetConfig
1291:./Libraries/STM32H7xx_HAL_Driver/Src/stm32h7xx_hal_ltdc.c **** 
1292:./Libraries/STM32H7xx_HAL_Driver/Src/stm32h7xx_hal_ltdc.c ****   /* Set the Immediate Reload type */
1293:./Libraries/STM32H7xx_HAL_Driver/Src/stm32h7xx_hal_ltdc.c ****   hltdc->Instance->SRCR = LTDC_SRCR_IMR;
 2151              		.loc 1 1293 8 discriminator 2
 2152 004a FB68     		ldr	r3, [r7, #12]
 2153 004c 1B68     		ldr	r3, [r3]
 2154              		.loc 1 1293 25 discriminator 2
 2155 004e 0122     		movs	r2, #1
 2156 0050 5A62     		str	r2, [r3, #36]
1294:./Libraries/STM32H7xx_HAL_Driver/Src/stm32h7xx_hal_ltdc.c **** 
1295:./Libraries/STM32H7xx_HAL_Driver/Src/stm32h7xx_hal_ltdc.c ****   /* Change the LTDC state*/
1296:./Libraries/STM32H7xx_HAL_Driver/Src/stm32h7xx_hal_ltdc.c ****   hltdc->State = HAL_LTDC_STATE_READY;
 2157              		.loc 1 1296 16 discriminator 2
 2158 0052 FB68     		ldr	r3, [r7, #12]
 2159 0054 0122     		movs	r2, #1
 2160 0056 83F8A120 		strb	r2, [r3, #161]
ARM GAS  /tmp/cc7azozz.s 			page 61


1297:./Libraries/STM32H7xx_HAL_Driver/Src/stm32h7xx_hal_ltdc.c **** 
1298:./Libraries/STM32H7xx_HAL_Driver/Src/stm32h7xx_hal_ltdc.c ****   /* Process unlocked */
1299:./Libraries/STM32H7xx_HAL_Driver/Src/stm32h7xx_hal_ltdc.c ****   __HAL_UNLOCK(hltdc);
 2161              		.loc 1 1299 3 discriminator 2
 2162 005a FB68     		ldr	r3, [r7, #12]
 2163 005c 0022     		movs	r2, #0
 2164 005e 83F8A020 		strb	r2, [r3, #160]
1300:./Libraries/STM32H7xx_HAL_Driver/Src/stm32h7xx_hal_ltdc.c **** 
1301:./Libraries/STM32H7xx_HAL_Driver/Src/stm32h7xx_hal_ltdc.c ****   return HAL_OK;
 2165              		.loc 1 1301 10 discriminator 2
 2166 0062 0023     		movs	r3, #0
 2167              	.L66:
1302:./Libraries/STM32H7xx_HAL_Driver/Src/stm32h7xx_hal_ltdc.c **** }
 2168              		.loc 1 1302 1
 2169 0064 1846     		mov	r0, r3
 2170 0066 1837     		adds	r7, r7, #24
 2171              	.LCFI116:
 2172              		.cfi_def_cfa_offset 8
 2173 0068 BD46     		mov	sp, r7
 2174              	.LCFI117:
 2175              		.cfi_def_cfa_register 13
 2176              		@ sp needed
 2177 006a 80BD     		pop	{r7, pc}
 2178              		.cfi_endproc
 2179              	.LFE351:
 2181              		.section	.text.HAL_LTDC_SetAddress,"ax",%progbits
 2182              		.align	1
 2183              		.global	HAL_LTDC_SetAddress
 2184              		.syntax unified
 2185              		.thumb
 2186              		.thumb_func
 2187              		.fpu fpv5-d16
 2189              	HAL_LTDC_SetAddress:
 2190              	.LFB352:
1303:./Libraries/STM32H7xx_HAL_Driver/Src/stm32h7xx_hal_ltdc.c **** /**
1304:./Libraries/STM32H7xx_HAL_Driver/Src/stm32h7xx_hal_ltdc.c ****   * @brief  Reconfigure the frame buffer Address.
1305:./Libraries/STM32H7xx_HAL_Driver/Src/stm32h7xx_hal_ltdc.c ****   * @param  hltdc     pointer to a LTDC_HandleTypeDef structure that contains
1306:./Libraries/STM32H7xx_HAL_Driver/Src/stm32h7xx_hal_ltdc.c ****   *                   the configuration information for the LTDC.
1307:./Libraries/STM32H7xx_HAL_Driver/Src/stm32h7xx_hal_ltdc.c ****   * @param  Address   new address value.
1308:./Libraries/STM32H7xx_HAL_Driver/Src/stm32h7xx_hal_ltdc.c ****   * @param  LayerIdx  LTDC Layer index.
1309:./Libraries/STM32H7xx_HAL_Driver/Src/stm32h7xx_hal_ltdc.c ****   *                   This parameter can be one of the following values:
1310:./Libraries/STM32H7xx_HAL_Driver/Src/stm32h7xx_hal_ltdc.c ****   *                   LTDC_LAYER_1 (0) or LTDC_LAYER_2 (1).
1311:./Libraries/STM32H7xx_HAL_Driver/Src/stm32h7xx_hal_ltdc.c ****   * @retval  HAL status
1312:./Libraries/STM32H7xx_HAL_Driver/Src/stm32h7xx_hal_ltdc.c ****   */
1313:./Libraries/STM32H7xx_HAL_Driver/Src/stm32h7xx_hal_ltdc.c **** HAL_StatusTypeDef HAL_LTDC_SetAddress(LTDC_HandleTypeDef *hltdc, uint32_t Address, uint32_t LayerId
1314:./Libraries/STM32H7xx_HAL_Driver/Src/stm32h7xx_hal_ltdc.c **** {
 2191              		.loc 1 1314 1
 2192              		.cfi_startproc
 2193              		@ args = 0, pretend = 0, frame = 24
 2194              		@ frame_needed = 1, uses_anonymous_args = 0
 2195 0000 80B5     		push	{r7, lr}
 2196              	.LCFI118:
 2197              		.cfi_def_cfa_offset 8
 2198              		.cfi_offset 7, -8
 2199              		.cfi_offset 14, -4
 2200 0002 86B0     		sub	sp, sp, #24
 2201              	.LCFI119:
ARM GAS  /tmp/cc7azozz.s 			page 62


 2202              		.cfi_def_cfa_offset 32
 2203 0004 00AF     		add	r7, sp, #0
 2204              	.LCFI120:
 2205              		.cfi_def_cfa_register 7
 2206 0006 F860     		str	r0, [r7, #12]
 2207 0008 B960     		str	r1, [r7, #8]
 2208 000a 7A60     		str	r2, [r7, #4]
1315:./Libraries/STM32H7xx_HAL_Driver/Src/stm32h7xx_hal_ltdc.c ****   LTDC_LayerCfgTypeDef *pLayerCfg;
1316:./Libraries/STM32H7xx_HAL_Driver/Src/stm32h7xx_hal_ltdc.c **** 
1317:./Libraries/STM32H7xx_HAL_Driver/Src/stm32h7xx_hal_ltdc.c ****   /* Check the parameters */
1318:./Libraries/STM32H7xx_HAL_Driver/Src/stm32h7xx_hal_ltdc.c ****   assert_param(IS_LTDC_LAYER(LayerIdx));
1319:./Libraries/STM32H7xx_HAL_Driver/Src/stm32h7xx_hal_ltdc.c **** 
1320:./Libraries/STM32H7xx_HAL_Driver/Src/stm32h7xx_hal_ltdc.c ****   /* Process locked */
1321:./Libraries/STM32H7xx_HAL_Driver/Src/stm32h7xx_hal_ltdc.c ****   __HAL_LOCK(hltdc);
 2209              		.loc 1 1321 3
 2210 000c FB68     		ldr	r3, [r7, #12]
 2211 000e 93F8A030 		ldrb	r3, [r3, #160]	@ zero_extendqisi2
 2212 0012 012B     		cmp	r3, #1
 2213 0014 01D1     		bne	.L68
 2214              		.loc 1 1321 3 is_stmt 0 discriminator 1
 2215 0016 0223     		movs	r3, #2
 2216 0018 24E0     		b	.L69
 2217              	.L68:
 2218              		.loc 1 1321 3 discriminator 2
 2219 001a FB68     		ldr	r3, [r7, #12]
 2220 001c 0122     		movs	r2, #1
 2221 001e 83F8A020 		strb	r2, [r3, #160]
1322:./Libraries/STM32H7xx_HAL_Driver/Src/stm32h7xx_hal_ltdc.c **** 
1323:./Libraries/STM32H7xx_HAL_Driver/Src/stm32h7xx_hal_ltdc.c ****   /* Change LTDC peripheral state */
1324:./Libraries/STM32H7xx_HAL_Driver/Src/stm32h7xx_hal_ltdc.c ****   hltdc->State = HAL_LTDC_STATE_BUSY;
 2222              		.loc 1 1324 16 is_stmt 1 discriminator 2
 2223 0022 FB68     		ldr	r3, [r7, #12]
 2224 0024 0222     		movs	r2, #2
 2225 0026 83F8A120 		strb	r2, [r3, #161]
1325:./Libraries/STM32H7xx_HAL_Driver/Src/stm32h7xx_hal_ltdc.c **** 
1326:./Libraries/STM32H7xx_HAL_Driver/Src/stm32h7xx_hal_ltdc.c ****   /* Get layer configuration from handle structure */
1327:./Libraries/STM32H7xx_HAL_Driver/Src/stm32h7xx_hal_ltdc.c ****   pLayerCfg = &hltdc->LayerCfg[LayerIdx];
 2226              		.loc 1 1327 13 discriminator 2
 2227 002a 7B68     		ldr	r3, [r7, #4]
 2228 002c 3422     		movs	r2, #52
 2229 002e 02FB03F3 		mul	r3, r2, r3
 2230 0032 3833     		adds	r3, r3, #56
 2231 0034 FA68     		ldr	r2, [r7, #12]
 2232 0036 1344     		add	r3, r3, r2
 2233 0038 7B61     		str	r3, [r7, #20]
1328:./Libraries/STM32H7xx_HAL_Driver/Src/stm32h7xx_hal_ltdc.c **** 
1329:./Libraries/STM32H7xx_HAL_Driver/Src/stm32h7xx_hal_ltdc.c ****   /* Reconfigure the Address */
1330:./Libraries/STM32H7xx_HAL_Driver/Src/stm32h7xx_hal_ltdc.c ****   pLayerCfg->FBStartAdress = Address;
 2234              		.loc 1 1330 28 discriminator 2
 2235 003a 7B69     		ldr	r3, [r7, #20]
 2236 003c BA68     		ldr	r2, [r7, #8]
 2237 003e 5A62     		str	r2, [r3, #36]
1331:./Libraries/STM32H7xx_HAL_Driver/Src/stm32h7xx_hal_ltdc.c **** 
1332:./Libraries/STM32H7xx_HAL_Driver/Src/stm32h7xx_hal_ltdc.c ****   /* Set LTDC parameters */
1333:./Libraries/STM32H7xx_HAL_Driver/Src/stm32h7xx_hal_ltdc.c ****   LTDC_SetConfig(hltdc, pLayerCfg, LayerIdx);
 2238              		.loc 1 1333 3 discriminator 2
 2239 0040 7A68     		ldr	r2, [r7, #4]
ARM GAS  /tmp/cc7azozz.s 			page 63


 2240 0042 7969     		ldr	r1, [r7, #20]
 2241 0044 F868     		ldr	r0, [r7, #12]
 2242 0046 FFF7FEFF 		bl	LTDC_SetConfig
1334:./Libraries/STM32H7xx_HAL_Driver/Src/stm32h7xx_hal_ltdc.c **** 
1335:./Libraries/STM32H7xx_HAL_Driver/Src/stm32h7xx_hal_ltdc.c ****   /* Set the Immediate Reload type */
1336:./Libraries/STM32H7xx_HAL_Driver/Src/stm32h7xx_hal_ltdc.c ****   hltdc->Instance->SRCR = LTDC_SRCR_IMR;
 2243              		.loc 1 1336 8 discriminator 2
 2244 004a FB68     		ldr	r3, [r7, #12]
 2245 004c 1B68     		ldr	r3, [r3]
 2246              		.loc 1 1336 25 discriminator 2
 2247 004e 0122     		movs	r2, #1
 2248 0050 5A62     		str	r2, [r3, #36]
1337:./Libraries/STM32H7xx_HAL_Driver/Src/stm32h7xx_hal_ltdc.c **** 
1338:./Libraries/STM32H7xx_HAL_Driver/Src/stm32h7xx_hal_ltdc.c ****   /* Change the LTDC state*/
1339:./Libraries/STM32H7xx_HAL_Driver/Src/stm32h7xx_hal_ltdc.c ****   hltdc->State = HAL_LTDC_STATE_READY;
 2249              		.loc 1 1339 16 discriminator 2
 2250 0052 FB68     		ldr	r3, [r7, #12]
 2251 0054 0122     		movs	r2, #1
 2252 0056 83F8A120 		strb	r2, [r3, #161]
1340:./Libraries/STM32H7xx_HAL_Driver/Src/stm32h7xx_hal_ltdc.c **** 
1341:./Libraries/STM32H7xx_HAL_Driver/Src/stm32h7xx_hal_ltdc.c ****   /* Process unlocked */
1342:./Libraries/STM32H7xx_HAL_Driver/Src/stm32h7xx_hal_ltdc.c ****   __HAL_UNLOCK(hltdc);
 2253              		.loc 1 1342 3 discriminator 2
 2254 005a FB68     		ldr	r3, [r7, #12]
 2255 005c 0022     		movs	r2, #0
 2256 005e 83F8A020 		strb	r2, [r3, #160]
1343:./Libraries/STM32H7xx_HAL_Driver/Src/stm32h7xx_hal_ltdc.c **** 
1344:./Libraries/STM32H7xx_HAL_Driver/Src/stm32h7xx_hal_ltdc.c ****   return HAL_OK;
 2257              		.loc 1 1344 10 discriminator 2
 2258 0062 0023     		movs	r3, #0
 2259              	.L69:
1345:./Libraries/STM32H7xx_HAL_Driver/Src/stm32h7xx_hal_ltdc.c **** }
 2260              		.loc 1 1345 1
 2261 0064 1846     		mov	r0, r3
 2262 0066 1837     		adds	r7, r7, #24
 2263              	.LCFI121:
 2264              		.cfi_def_cfa_offset 8
 2265 0068 BD46     		mov	sp, r7
 2266              	.LCFI122:
 2267              		.cfi_def_cfa_register 13
 2268              		@ sp needed
 2269 006a 80BD     		pop	{r7, pc}
 2270              		.cfi_endproc
 2271              	.LFE352:
 2273              		.section	.text.HAL_LTDC_SetPitch,"ax",%progbits
 2274              		.align	1
 2275              		.global	HAL_LTDC_SetPitch
 2276              		.syntax unified
 2277              		.thumb
 2278              		.thumb_func
 2279              		.fpu fpv5-d16
 2281              	HAL_LTDC_SetPitch:
 2282              	.LFB353:
1346:./Libraries/STM32H7xx_HAL_Driver/Src/stm32h7xx_hal_ltdc.c **** 
1347:./Libraries/STM32H7xx_HAL_Driver/Src/stm32h7xx_hal_ltdc.c **** /**
1348:./Libraries/STM32H7xx_HAL_Driver/Src/stm32h7xx_hal_ltdc.c ****   * @brief  Function used to reconfigure the pitch for specific cases where the attached LayerIdx b
1349:./Libraries/STM32H7xx_HAL_Driver/Src/stm32h7xx_hal_ltdc.c ****   *         larger than the one intended to be displayed on screen. Example of a buffer 800x480 att
ARM GAS  /tmp/cc7azozz.s 			page 64


1350:./Libraries/STM32H7xx_HAL_Driver/Src/stm32h7xx_hal_ltdc.c ****   *         want to read and display on screen only a portion 320x240 taken in the center of the bu
1351:./Libraries/STM32H7xx_HAL_Driver/Src/stm32h7xx_hal_ltdc.c ****   *         will be in that case 800 pixels and not 320 pixels as initially configured by previous 
1352:./Libraries/STM32H7xx_HAL_Driver/Src/stm32h7xx_hal_ltdc.c ****   * @note   This function should be called only after a previous call to HAL_LTDC_ConfigLayer() to 
1353:./Libraries/STM32H7xx_HAL_Driver/Src/stm32h7xx_hal_ltdc.c ****   *         configured by HAL_LTDC_ConfigLayer() when required (refer to example described just abo
1354:./Libraries/STM32H7xx_HAL_Driver/Src/stm32h7xx_hal_ltdc.c ****   * @param  hltdc              pointer to a LTDC_HandleTypeDef structure that contains
1355:./Libraries/STM32H7xx_HAL_Driver/Src/stm32h7xx_hal_ltdc.c ****   *                            the configuration information for the LTDC.
1356:./Libraries/STM32H7xx_HAL_Driver/Src/stm32h7xx_hal_ltdc.c ****   * @param  LinePitchInPixels  New line pitch in pixels to configure for LTDC layer 'LayerIdx'.
1357:./Libraries/STM32H7xx_HAL_Driver/Src/stm32h7xx_hal_ltdc.c ****   * @param  LayerIdx           LTDC layer index concerned by the modification of line pitch.
1358:./Libraries/STM32H7xx_HAL_Driver/Src/stm32h7xx_hal_ltdc.c ****   * @retval HAL status
1359:./Libraries/STM32H7xx_HAL_Driver/Src/stm32h7xx_hal_ltdc.c ****   */
1360:./Libraries/STM32H7xx_HAL_Driver/Src/stm32h7xx_hal_ltdc.c **** HAL_StatusTypeDef HAL_LTDC_SetPitch(LTDC_HandleTypeDef *hltdc, uint32_t LinePitchInPixels, uint32_t
1361:./Libraries/STM32H7xx_HAL_Driver/Src/stm32h7xx_hal_ltdc.c **** {
 2283              		.loc 1 1361 1
 2284              		.cfi_startproc
 2285              		@ args = 0, pretend = 0, frame = 32
 2286              		@ frame_needed = 1, uses_anonymous_args = 0
 2287              		@ link register save eliminated.
 2288 0000 80B4     		push	{r7}
 2289              	.LCFI123:
 2290              		.cfi_def_cfa_offset 4
 2291              		.cfi_offset 7, -4
 2292 0002 89B0     		sub	sp, sp, #36
 2293              	.LCFI124:
 2294              		.cfi_def_cfa_offset 40
 2295 0004 00AF     		add	r7, sp, #0
 2296              	.LCFI125:
 2297              		.cfi_def_cfa_register 7
 2298 0006 F860     		str	r0, [r7, #12]
 2299 0008 B960     		str	r1, [r7, #8]
 2300 000a 7A60     		str	r2, [r7, #4]
1362:./Libraries/STM32H7xx_HAL_Driver/Src/stm32h7xx_hal_ltdc.c ****   uint32_t tmp;
1363:./Libraries/STM32H7xx_HAL_Driver/Src/stm32h7xx_hal_ltdc.c ****   uint32_t pitchUpdate;
1364:./Libraries/STM32H7xx_HAL_Driver/Src/stm32h7xx_hal_ltdc.c ****   uint32_t pixelFormat;
1365:./Libraries/STM32H7xx_HAL_Driver/Src/stm32h7xx_hal_ltdc.c **** 
1366:./Libraries/STM32H7xx_HAL_Driver/Src/stm32h7xx_hal_ltdc.c ****   /* Check the parameters */
1367:./Libraries/STM32H7xx_HAL_Driver/Src/stm32h7xx_hal_ltdc.c ****   assert_param(IS_LTDC_LAYER(LayerIdx));
1368:./Libraries/STM32H7xx_HAL_Driver/Src/stm32h7xx_hal_ltdc.c **** 
1369:./Libraries/STM32H7xx_HAL_Driver/Src/stm32h7xx_hal_ltdc.c ****   /* Process locked */
1370:./Libraries/STM32H7xx_HAL_Driver/Src/stm32h7xx_hal_ltdc.c ****   __HAL_LOCK(hltdc);
 2301              		.loc 1 1370 3
 2302 000c FB68     		ldr	r3, [r7, #12]
 2303 000e 93F8A030 		ldrb	r3, [r3, #160]	@ zero_extendqisi2
 2304 0012 012B     		cmp	r3, #1
 2305 0014 01D1     		bne	.L71
 2306              		.loc 1 1370 3 is_stmt 0 discriminator 1
 2307 0016 0223     		movs	r3, #2
 2308 0018 6EE0     		b	.L72
 2309              	.L71:
 2310              		.loc 1 1370 3 discriminator 2
 2311 001a FB68     		ldr	r3, [r7, #12]
 2312 001c 0122     		movs	r2, #1
 2313 001e 83F8A020 		strb	r2, [r3, #160]
1371:./Libraries/STM32H7xx_HAL_Driver/Src/stm32h7xx_hal_ltdc.c **** 
1372:./Libraries/STM32H7xx_HAL_Driver/Src/stm32h7xx_hal_ltdc.c ****   /* Change LTDC peripheral state */
1373:./Libraries/STM32H7xx_HAL_Driver/Src/stm32h7xx_hal_ltdc.c ****   hltdc->State = HAL_LTDC_STATE_BUSY;
 2314              		.loc 1 1373 16 is_stmt 1 discriminator 2
 2315 0022 FB68     		ldr	r3, [r7, #12]
ARM GAS  /tmp/cc7azozz.s 			page 65


 2316 0024 0222     		movs	r2, #2
 2317 0026 83F8A120 		strb	r2, [r3, #161]
1374:./Libraries/STM32H7xx_HAL_Driver/Src/stm32h7xx_hal_ltdc.c **** 
1375:./Libraries/STM32H7xx_HAL_Driver/Src/stm32h7xx_hal_ltdc.c ****   /* get LayerIdx used pixel format */
1376:./Libraries/STM32H7xx_HAL_Driver/Src/stm32h7xx_hal_ltdc.c ****   pixelFormat = hltdc->LayerCfg[LayerIdx].PixelFormat;
 2318              		.loc 1 1376 15 discriminator 2
 2319 002a FA68     		ldr	r2, [r7, #12]
 2320 002c 7B68     		ldr	r3, [r7, #4]
 2321 002e 3421     		movs	r1, #52
 2322 0030 01FB03F3 		mul	r3, r1, r3
 2323 0034 1344     		add	r3, r3, r2
 2324 0036 4833     		adds	r3, r3, #72
 2325 0038 1B68     		ldr	r3, [r3]
 2326 003a BB61     		str	r3, [r7, #24]
1377:./Libraries/STM32H7xx_HAL_Driver/Src/stm32h7xx_hal_ltdc.c **** 
1378:./Libraries/STM32H7xx_HAL_Driver/Src/stm32h7xx_hal_ltdc.c ****   if (pixelFormat == LTDC_PIXEL_FORMAT_ARGB8888)
 2327              		.loc 1 1378 6 discriminator 2
 2328 003c BB69     		ldr	r3, [r7, #24]
 2329 003e 002B     		cmp	r3, #0
 2330 0040 02D1     		bne	.L73
1379:./Libraries/STM32H7xx_HAL_Driver/Src/stm32h7xx_hal_ltdc.c ****   {
1380:./Libraries/STM32H7xx_HAL_Driver/Src/stm32h7xx_hal_ltdc.c ****     tmp = 4U;
 2331              		.loc 1 1380 9
 2332 0042 0423     		movs	r3, #4
 2333 0044 FB61     		str	r3, [r7, #28]
 2334 0046 16E0     		b	.L74
 2335              	.L73:
1381:./Libraries/STM32H7xx_HAL_Driver/Src/stm32h7xx_hal_ltdc.c ****   }
1382:./Libraries/STM32H7xx_HAL_Driver/Src/stm32h7xx_hal_ltdc.c ****   else if (pixelFormat == LTDC_PIXEL_FORMAT_RGB888)
 2336              		.loc 1 1382 11
 2337 0048 BB69     		ldr	r3, [r7, #24]
 2338 004a 012B     		cmp	r3, #1
 2339 004c 02D1     		bne	.L75
1383:./Libraries/STM32H7xx_HAL_Driver/Src/stm32h7xx_hal_ltdc.c ****   {
1384:./Libraries/STM32H7xx_HAL_Driver/Src/stm32h7xx_hal_ltdc.c ****     tmp = 3U;
 2340              		.loc 1 1384 9
 2341 004e 0323     		movs	r3, #3
 2342 0050 FB61     		str	r3, [r7, #28]
 2343 0052 10E0     		b	.L74
 2344              	.L75:
1385:./Libraries/STM32H7xx_HAL_Driver/Src/stm32h7xx_hal_ltdc.c ****   }
1386:./Libraries/STM32H7xx_HAL_Driver/Src/stm32h7xx_hal_ltdc.c ****   else if ((pixelFormat == LTDC_PIXEL_FORMAT_ARGB4444) || \
 2345              		.loc 1 1386 11
 2346 0054 BB69     		ldr	r3, [r7, #24]
 2347 0056 042B     		cmp	r3, #4
 2348 0058 08D0     		beq	.L76
 2349              		.loc 1 1386 56 discriminator 1
 2350 005a BB69     		ldr	r3, [r7, #24]
 2351 005c 022B     		cmp	r3, #2
 2352 005e 05D0     		beq	.L76
1387:./Libraries/STM32H7xx_HAL_Driver/Src/stm32h7xx_hal_ltdc.c ****            (pixelFormat == LTDC_PIXEL_FORMAT_RGB565)   || \
 2353              		.loc 1 1387 56
 2354 0060 BB69     		ldr	r3, [r7, #24]
 2355 0062 032B     		cmp	r3, #3
 2356 0064 02D0     		beq	.L76
1388:./Libraries/STM32H7xx_HAL_Driver/Src/stm32h7xx_hal_ltdc.c ****            (pixelFormat == LTDC_PIXEL_FORMAT_ARGB1555) || \
 2357              		.loc 1 1388 56
ARM GAS  /tmp/cc7azozz.s 			page 66


 2358 0066 BB69     		ldr	r3, [r7, #24]
 2359 0068 072B     		cmp	r3, #7
 2360 006a 02D1     		bne	.L77
 2361              	.L76:
1389:./Libraries/STM32H7xx_HAL_Driver/Src/stm32h7xx_hal_ltdc.c ****            (pixelFormat == LTDC_PIXEL_FORMAT_AL88))
1390:./Libraries/STM32H7xx_HAL_Driver/Src/stm32h7xx_hal_ltdc.c ****   {
1391:./Libraries/STM32H7xx_HAL_Driver/Src/stm32h7xx_hal_ltdc.c ****     tmp = 2U;
 2362              		.loc 1 1391 9
 2363 006c 0223     		movs	r3, #2
 2364 006e FB61     		str	r3, [r7, #28]
 2365 0070 01E0     		b	.L74
 2366              	.L77:
1392:./Libraries/STM32H7xx_HAL_Driver/Src/stm32h7xx_hal_ltdc.c ****   }
1393:./Libraries/STM32H7xx_HAL_Driver/Src/stm32h7xx_hal_ltdc.c ****   else
1394:./Libraries/STM32H7xx_HAL_Driver/Src/stm32h7xx_hal_ltdc.c ****   {
1395:./Libraries/STM32H7xx_HAL_Driver/Src/stm32h7xx_hal_ltdc.c ****     tmp = 1U;
 2367              		.loc 1 1395 9
 2368 0072 0123     		movs	r3, #1
 2369 0074 FB61     		str	r3, [r7, #28]
 2370              	.L74:
1396:./Libraries/STM32H7xx_HAL_Driver/Src/stm32h7xx_hal_ltdc.c ****   }
1397:./Libraries/STM32H7xx_HAL_Driver/Src/stm32h7xx_hal_ltdc.c **** 
1398:./Libraries/STM32H7xx_HAL_Driver/Src/stm32h7xx_hal_ltdc.c ****   pitchUpdate = ((LinePitchInPixels * tmp) << 16U);
 2371              		.loc 1 1398 37
 2372 0076 BB68     		ldr	r3, [r7, #8]
 2373 0078 FA69     		ldr	r2, [r7, #28]
 2374 007a 02FB03F3 		mul	r3, r2, r3
 2375              		.loc 1 1398 15
 2376 007e 1B04     		lsls	r3, r3, #16
 2377 0080 7B61     		str	r3, [r7, #20]
1399:./Libraries/STM32H7xx_HAL_Driver/Src/stm32h7xx_hal_ltdc.c **** 
1400:./Libraries/STM32H7xx_HAL_Driver/Src/stm32h7xx_hal_ltdc.c ****   /* Clear previously set standard pitch */
1401:./Libraries/STM32H7xx_HAL_Driver/Src/stm32h7xx_hal_ltdc.c ****   LTDC_LAYER(hltdc, LayerIdx)->CFBLR &= ~LTDC_LxCFBLR_CFBP;
 2378              		.loc 1 1401 3
 2379 0082 FB68     		ldr	r3, [r7, #12]
 2380 0084 1B68     		ldr	r3, [r3]
 2381              		.loc 1 1401 38
 2382 0086 1A46     		mov	r2, r3
 2383 0088 7B68     		ldr	r3, [r7, #4]
 2384 008a DB01     		lsls	r3, r3, #7
 2385 008c 1344     		add	r3, r3, r2
 2386 008e 8433     		adds	r3, r3, #132
 2387 0090 DA6A     		ldr	r2, [r3, #44]
 2388              		.loc 1 1401 3
 2389 0092 FB68     		ldr	r3, [r7, #12]
 2390 0094 1B68     		ldr	r3, [r3]
 2391              		.loc 1 1401 38
 2392 0096 1946     		mov	r1, r3
 2393 0098 7B68     		ldr	r3, [r7, #4]
 2394 009a DB01     		lsls	r3, r3, #7
 2395 009c 0B44     		add	r3, r3, r1
 2396 009e 8433     		adds	r3, r3, #132
 2397 00a0 1946     		mov	r1, r3
 2398 00a2 184B     		ldr	r3, .L78
 2399 00a4 1340     		ands	r3, r3, r2
 2400 00a6 CB62     		str	r3, [r1, #44]
1402:./Libraries/STM32H7xx_HAL_Driver/Src/stm32h7xx_hal_ltdc.c **** 
ARM GAS  /tmp/cc7azozz.s 			page 67


1403:./Libraries/STM32H7xx_HAL_Driver/Src/stm32h7xx_hal_ltdc.c ****   /* Set the Reload type as immediate update of LTDC pitch configured above */
1404:./Libraries/STM32H7xx_HAL_Driver/Src/stm32h7xx_hal_ltdc.c ****   LTDC->SRCR |= LTDC_SRCR_IMR;
 2401              		.loc 1 1404 14
 2402 00a8 174B     		ldr	r3, .L78+4
 2403 00aa 5B6A     		ldr	r3, [r3, #36]
 2404 00ac 164A     		ldr	r2, .L78+4
 2405 00ae 43F00103 		orr	r3, r3, #1
 2406 00b2 5362     		str	r3, [r2, #36]
1405:./Libraries/STM32H7xx_HAL_Driver/Src/stm32h7xx_hal_ltdc.c **** 
1406:./Libraries/STM32H7xx_HAL_Driver/Src/stm32h7xx_hal_ltdc.c ****   /* Set new line pitch value */
1407:./Libraries/STM32H7xx_HAL_Driver/Src/stm32h7xx_hal_ltdc.c ****   LTDC_LAYER(hltdc, LayerIdx)->CFBLR |= pitchUpdate;
 2407              		.loc 1 1407 3
 2408 00b4 FB68     		ldr	r3, [r7, #12]
 2409 00b6 1B68     		ldr	r3, [r3]
 2410              		.loc 1 1407 38
 2411 00b8 1A46     		mov	r2, r3
 2412 00ba 7B68     		ldr	r3, [r7, #4]
 2413 00bc DB01     		lsls	r3, r3, #7
 2414 00be 1344     		add	r3, r3, r2
 2415 00c0 8433     		adds	r3, r3, #132
 2416 00c2 DA6A     		ldr	r2, [r3, #44]
 2417              		.loc 1 1407 3
 2418 00c4 FB68     		ldr	r3, [r7, #12]
 2419 00c6 1B68     		ldr	r3, [r3]
 2420              		.loc 1 1407 38
 2421 00c8 1946     		mov	r1, r3
 2422 00ca 7B68     		ldr	r3, [r7, #4]
 2423 00cc DB01     		lsls	r3, r3, #7
 2424 00ce 0B44     		add	r3, r3, r1
 2425 00d0 8433     		adds	r3, r3, #132
 2426 00d2 1946     		mov	r1, r3
 2427 00d4 7B69     		ldr	r3, [r7, #20]
 2428 00d6 1343     		orrs	r3, r3, r2
 2429 00d8 CB62     		str	r3, [r1, #44]
1408:./Libraries/STM32H7xx_HAL_Driver/Src/stm32h7xx_hal_ltdc.c **** 
1409:./Libraries/STM32H7xx_HAL_Driver/Src/stm32h7xx_hal_ltdc.c ****   /* Set the Reload type as immediate update of LTDC pitch configured above */
1410:./Libraries/STM32H7xx_HAL_Driver/Src/stm32h7xx_hal_ltdc.c ****   LTDC->SRCR |= LTDC_SRCR_IMR;
 2430              		.loc 1 1410 14
 2431 00da 0B4B     		ldr	r3, .L78+4
 2432 00dc 5B6A     		ldr	r3, [r3, #36]
 2433 00de 0A4A     		ldr	r2, .L78+4
 2434 00e0 43F00103 		orr	r3, r3, #1
 2435 00e4 5362     		str	r3, [r2, #36]
1411:./Libraries/STM32H7xx_HAL_Driver/Src/stm32h7xx_hal_ltdc.c **** 
1412:./Libraries/STM32H7xx_HAL_Driver/Src/stm32h7xx_hal_ltdc.c ****   /* Change the LTDC state*/
1413:./Libraries/STM32H7xx_HAL_Driver/Src/stm32h7xx_hal_ltdc.c ****   hltdc->State = HAL_LTDC_STATE_READY;
 2436              		.loc 1 1413 16
 2437 00e6 FB68     		ldr	r3, [r7, #12]
 2438 00e8 0122     		movs	r2, #1
 2439 00ea 83F8A120 		strb	r2, [r3, #161]
1414:./Libraries/STM32H7xx_HAL_Driver/Src/stm32h7xx_hal_ltdc.c **** 
1415:./Libraries/STM32H7xx_HAL_Driver/Src/stm32h7xx_hal_ltdc.c ****   /* Process unlocked */
1416:./Libraries/STM32H7xx_HAL_Driver/Src/stm32h7xx_hal_ltdc.c ****   __HAL_UNLOCK(hltdc);
 2440              		.loc 1 1416 3
 2441 00ee FB68     		ldr	r3, [r7, #12]
 2442 00f0 0022     		movs	r2, #0
 2443 00f2 83F8A020 		strb	r2, [r3, #160]
ARM GAS  /tmp/cc7azozz.s 			page 68


1417:./Libraries/STM32H7xx_HAL_Driver/Src/stm32h7xx_hal_ltdc.c **** 
1418:./Libraries/STM32H7xx_HAL_Driver/Src/stm32h7xx_hal_ltdc.c ****   return HAL_OK;
 2444              		.loc 1 1418 10
 2445 00f6 0023     		movs	r3, #0
 2446              	.L72:
1419:./Libraries/STM32H7xx_HAL_Driver/Src/stm32h7xx_hal_ltdc.c **** }
 2447              		.loc 1 1419 1
 2448 00f8 1846     		mov	r0, r3
 2449 00fa 2437     		adds	r7, r7, #36
 2450              	.LCFI126:
 2451              		.cfi_def_cfa_offset 4
 2452 00fc BD46     		mov	sp, r7
 2453              	.LCFI127:
 2454              		.cfi_def_cfa_register 13
 2455              		@ sp needed
 2456 00fe 5DF8047B 		ldr	r7, [sp], #4
 2457              	.LCFI128:
 2458              		.cfi_restore 7
 2459              		.cfi_def_cfa_offset 0
 2460 0102 7047     		bx	lr
 2461              	.L79:
 2462              		.align	2
 2463              	.L78:
 2464 0104 FFFF00E0 		.word	-536805377
 2465 0108 00100050 		.word	1342181376
 2466              		.cfi_endproc
 2467              	.LFE353:
 2469              		.section	.text.HAL_LTDC_ProgramLineEvent,"ax",%progbits
 2470              		.align	1
 2471              		.global	HAL_LTDC_ProgramLineEvent
 2472              		.syntax unified
 2473              		.thumb
 2474              		.thumb_func
 2475              		.fpu fpv5-d16
 2477              	HAL_LTDC_ProgramLineEvent:
 2478              	.LFB354:
1420:./Libraries/STM32H7xx_HAL_Driver/Src/stm32h7xx_hal_ltdc.c **** 
1421:./Libraries/STM32H7xx_HAL_Driver/Src/stm32h7xx_hal_ltdc.c **** /**
1422:./Libraries/STM32H7xx_HAL_Driver/Src/stm32h7xx_hal_ltdc.c ****   * @brief  Define the position of the line interrupt.
1423:./Libraries/STM32H7xx_HAL_Driver/Src/stm32h7xx_hal_ltdc.c ****   * @param  hltdc   pointer to a LTDC_HandleTypeDef structure that contains
1424:./Libraries/STM32H7xx_HAL_Driver/Src/stm32h7xx_hal_ltdc.c ****   *                 the configuration information for the LTDC.
1425:./Libraries/STM32H7xx_HAL_Driver/Src/stm32h7xx_hal_ltdc.c ****   * @param  Line    Line Interrupt Position.
1426:./Libraries/STM32H7xx_HAL_Driver/Src/stm32h7xx_hal_ltdc.c ****   * @note   User application may resort to HAL_LTDC_LineEventCallback() at line interrupt generatio
1427:./Libraries/STM32H7xx_HAL_Driver/Src/stm32h7xx_hal_ltdc.c ****   * @retval  HAL status
1428:./Libraries/STM32H7xx_HAL_Driver/Src/stm32h7xx_hal_ltdc.c ****   */
1429:./Libraries/STM32H7xx_HAL_Driver/Src/stm32h7xx_hal_ltdc.c **** HAL_StatusTypeDef HAL_LTDC_ProgramLineEvent(LTDC_HandleTypeDef *hltdc, uint32_t Line)
1430:./Libraries/STM32H7xx_HAL_Driver/Src/stm32h7xx_hal_ltdc.c **** {
 2479              		.loc 1 1430 1
 2480              		.cfi_startproc
 2481              		@ args = 0, pretend = 0, frame = 8
 2482              		@ frame_needed = 1, uses_anonymous_args = 0
 2483              		@ link register save eliminated.
 2484 0000 80B4     		push	{r7}
 2485              	.LCFI129:
 2486              		.cfi_def_cfa_offset 4
 2487              		.cfi_offset 7, -4
 2488 0002 83B0     		sub	sp, sp, #12
ARM GAS  /tmp/cc7azozz.s 			page 69


 2489              	.LCFI130:
 2490              		.cfi_def_cfa_offset 16
 2491 0004 00AF     		add	r7, sp, #0
 2492              	.LCFI131:
 2493              		.cfi_def_cfa_register 7
 2494 0006 7860     		str	r0, [r7, #4]
 2495 0008 3960     		str	r1, [r7]
1431:./Libraries/STM32H7xx_HAL_Driver/Src/stm32h7xx_hal_ltdc.c ****   /* Check the parameters */
1432:./Libraries/STM32H7xx_HAL_Driver/Src/stm32h7xx_hal_ltdc.c ****   assert_param(IS_LTDC_LIPOS(Line));
1433:./Libraries/STM32H7xx_HAL_Driver/Src/stm32h7xx_hal_ltdc.c **** 
1434:./Libraries/STM32H7xx_HAL_Driver/Src/stm32h7xx_hal_ltdc.c ****   /* Process locked */
1435:./Libraries/STM32H7xx_HAL_Driver/Src/stm32h7xx_hal_ltdc.c ****   __HAL_LOCK(hltdc);
 2496              		.loc 1 1435 3
 2497 000a 7B68     		ldr	r3, [r7, #4]
 2498 000c 93F8A030 		ldrb	r3, [r3, #160]	@ zero_extendqisi2
 2499 0010 012B     		cmp	r3, #1
 2500 0012 01D1     		bne	.L81
 2501              		.loc 1 1435 3 is_stmt 0 discriminator 1
 2502 0014 0223     		movs	r3, #2
 2503 0016 23E0     		b	.L82
 2504              	.L81:
 2505              		.loc 1 1435 3 discriminator 2
 2506 0018 7B68     		ldr	r3, [r7, #4]
 2507 001a 0122     		movs	r2, #1
 2508 001c 83F8A020 		strb	r2, [r3, #160]
1436:./Libraries/STM32H7xx_HAL_Driver/Src/stm32h7xx_hal_ltdc.c **** 
1437:./Libraries/STM32H7xx_HAL_Driver/Src/stm32h7xx_hal_ltdc.c ****   /* Change LTDC peripheral state */
1438:./Libraries/STM32H7xx_HAL_Driver/Src/stm32h7xx_hal_ltdc.c ****   hltdc->State = HAL_LTDC_STATE_BUSY;
 2509              		.loc 1 1438 16 is_stmt 1 discriminator 2
 2510 0020 7B68     		ldr	r3, [r7, #4]
 2511 0022 0222     		movs	r2, #2
 2512 0024 83F8A120 		strb	r2, [r3, #161]
1439:./Libraries/STM32H7xx_HAL_Driver/Src/stm32h7xx_hal_ltdc.c **** 
1440:./Libraries/STM32H7xx_HAL_Driver/Src/stm32h7xx_hal_ltdc.c ****   /* Disable the Line interrupt */
1441:./Libraries/STM32H7xx_HAL_Driver/Src/stm32h7xx_hal_ltdc.c ****   __HAL_LTDC_DISABLE_IT(hltdc, LTDC_IT_LI);
 2513              		.loc 1 1441 3 discriminator 2
 2514 0028 7B68     		ldr	r3, [r7, #4]
 2515 002a 1B68     		ldr	r3, [r3]
 2516 002c 5A6B     		ldr	r2, [r3, #52]
 2517 002e 7B68     		ldr	r3, [r7, #4]
 2518 0030 1B68     		ldr	r3, [r3]
 2519 0032 22F00102 		bic	r2, r2, #1
 2520 0036 5A63     		str	r2, [r3, #52]
1442:./Libraries/STM32H7xx_HAL_Driver/Src/stm32h7xx_hal_ltdc.c **** 
1443:./Libraries/STM32H7xx_HAL_Driver/Src/stm32h7xx_hal_ltdc.c ****   /* Set the Line Interrupt position */
1444:./Libraries/STM32H7xx_HAL_Driver/Src/stm32h7xx_hal_ltdc.c ****   LTDC->LIPCR = (uint32_t)Line;
 2521              		.loc 1 1444 7 discriminator 2
 2522 0038 0C4A     		ldr	r2, .L83
 2523              		.loc 1 1444 15 discriminator 2
 2524 003a 3B68     		ldr	r3, [r7]
 2525 003c 1364     		str	r3, [r2, #64]
1445:./Libraries/STM32H7xx_HAL_Driver/Src/stm32h7xx_hal_ltdc.c **** 
1446:./Libraries/STM32H7xx_HAL_Driver/Src/stm32h7xx_hal_ltdc.c ****   /* Enable the Line interrupt */
1447:./Libraries/STM32H7xx_HAL_Driver/Src/stm32h7xx_hal_ltdc.c ****   __HAL_LTDC_ENABLE_IT(hltdc, LTDC_IT_LI);
 2526              		.loc 1 1447 3 discriminator 2
 2527 003e 7B68     		ldr	r3, [r7, #4]
 2528 0040 1B68     		ldr	r3, [r3]
ARM GAS  /tmp/cc7azozz.s 			page 70


 2529 0042 5A6B     		ldr	r2, [r3, #52]
 2530 0044 7B68     		ldr	r3, [r7, #4]
 2531 0046 1B68     		ldr	r3, [r3]
 2532 0048 42F00102 		orr	r2, r2, #1
 2533 004c 5A63     		str	r2, [r3, #52]
1448:./Libraries/STM32H7xx_HAL_Driver/Src/stm32h7xx_hal_ltdc.c **** 
1449:./Libraries/STM32H7xx_HAL_Driver/Src/stm32h7xx_hal_ltdc.c ****   /* Change the LTDC state*/
1450:./Libraries/STM32H7xx_HAL_Driver/Src/stm32h7xx_hal_ltdc.c ****   hltdc->State = HAL_LTDC_STATE_READY;
 2534              		.loc 1 1450 16 discriminator 2
 2535 004e 7B68     		ldr	r3, [r7, #4]
 2536 0050 0122     		movs	r2, #1
 2537 0052 83F8A120 		strb	r2, [r3, #161]
1451:./Libraries/STM32H7xx_HAL_Driver/Src/stm32h7xx_hal_ltdc.c **** 
1452:./Libraries/STM32H7xx_HAL_Driver/Src/stm32h7xx_hal_ltdc.c ****   /* Process unlocked */
1453:./Libraries/STM32H7xx_HAL_Driver/Src/stm32h7xx_hal_ltdc.c ****   __HAL_UNLOCK(hltdc);
 2538              		.loc 1 1453 3 discriminator 2
 2539 0056 7B68     		ldr	r3, [r7, #4]
 2540 0058 0022     		movs	r2, #0
 2541 005a 83F8A020 		strb	r2, [r3, #160]
1454:./Libraries/STM32H7xx_HAL_Driver/Src/stm32h7xx_hal_ltdc.c **** 
1455:./Libraries/STM32H7xx_HAL_Driver/Src/stm32h7xx_hal_ltdc.c ****   return HAL_OK;
 2542              		.loc 1 1455 10 discriminator 2
 2543 005e 0023     		movs	r3, #0
 2544              	.L82:
1456:./Libraries/STM32H7xx_HAL_Driver/Src/stm32h7xx_hal_ltdc.c **** }
 2545              		.loc 1 1456 1
 2546 0060 1846     		mov	r0, r3
 2547 0062 0C37     		adds	r7, r7, #12
 2548              	.LCFI132:
 2549              		.cfi_def_cfa_offset 4
 2550 0064 BD46     		mov	sp, r7
 2551              	.LCFI133:
 2552              		.cfi_def_cfa_register 13
 2553              		@ sp needed
 2554 0066 5DF8047B 		ldr	r7, [sp], #4
 2555              	.LCFI134:
 2556              		.cfi_restore 7
 2557              		.cfi_def_cfa_offset 0
 2558 006a 7047     		bx	lr
 2559              	.L84:
 2560              		.align	2
 2561              	.L83:
 2562 006c 00100050 		.word	1342181376
 2563              		.cfi_endproc
 2564              	.LFE354:
 2566              		.section	.text.HAL_LTDC_Reload,"ax",%progbits
 2567              		.align	1
 2568              		.global	HAL_LTDC_Reload
 2569              		.syntax unified
 2570              		.thumb
 2571              		.thumb_func
 2572              		.fpu fpv5-d16
 2574              	HAL_LTDC_Reload:
 2575              	.LFB355:
1457:./Libraries/STM32H7xx_HAL_Driver/Src/stm32h7xx_hal_ltdc.c **** 
1458:./Libraries/STM32H7xx_HAL_Driver/Src/stm32h7xx_hal_ltdc.c **** /**
1459:./Libraries/STM32H7xx_HAL_Driver/Src/stm32h7xx_hal_ltdc.c ****   * @brief  Reload LTDC Layers configuration.
ARM GAS  /tmp/cc7azozz.s 			page 71


1460:./Libraries/STM32H7xx_HAL_Driver/Src/stm32h7xx_hal_ltdc.c ****   * @param  hltdc      pointer to a LTDC_HandleTypeDef structure that contains
1461:./Libraries/STM32H7xx_HAL_Driver/Src/stm32h7xx_hal_ltdc.c ****   *                    the configuration information for the LTDC.
1462:./Libraries/STM32H7xx_HAL_Driver/Src/stm32h7xx_hal_ltdc.c ****   * @param  ReloadType This parameter can be one of the following values :
1463:./Libraries/STM32H7xx_HAL_Driver/Src/stm32h7xx_hal_ltdc.c ****   *                      LTDC_RELOAD_IMMEDIATE : Immediate Reload
1464:./Libraries/STM32H7xx_HAL_Driver/Src/stm32h7xx_hal_ltdc.c ****   *                      LTDC_RELOAD_VERTICAL_BLANKING  : Reload in the next Vertical Blanking
1465:./Libraries/STM32H7xx_HAL_Driver/Src/stm32h7xx_hal_ltdc.c ****   * @note   User application may resort to HAL_LTDC_ReloadEventCallback() at reload interrupt gener
1466:./Libraries/STM32H7xx_HAL_Driver/Src/stm32h7xx_hal_ltdc.c ****   * @retval  HAL status
1467:./Libraries/STM32H7xx_HAL_Driver/Src/stm32h7xx_hal_ltdc.c ****   */
1468:./Libraries/STM32H7xx_HAL_Driver/Src/stm32h7xx_hal_ltdc.c **** HAL_StatusTypeDef  HAL_LTDC_Reload(LTDC_HandleTypeDef *hltdc, uint32_t ReloadType)
1469:./Libraries/STM32H7xx_HAL_Driver/Src/stm32h7xx_hal_ltdc.c **** {
 2576              		.loc 1 1469 1
 2577              		.cfi_startproc
 2578              		@ args = 0, pretend = 0, frame = 8
 2579              		@ frame_needed = 1, uses_anonymous_args = 0
 2580              		@ link register save eliminated.
 2581 0000 80B4     		push	{r7}
 2582              	.LCFI135:
 2583              		.cfi_def_cfa_offset 4
 2584              		.cfi_offset 7, -4
 2585 0002 83B0     		sub	sp, sp, #12
 2586              	.LCFI136:
 2587              		.cfi_def_cfa_offset 16
 2588 0004 00AF     		add	r7, sp, #0
 2589              	.LCFI137:
 2590              		.cfi_def_cfa_register 7
 2591 0006 7860     		str	r0, [r7, #4]
 2592 0008 3960     		str	r1, [r7]
1470:./Libraries/STM32H7xx_HAL_Driver/Src/stm32h7xx_hal_ltdc.c ****   /* Check the parameters */
1471:./Libraries/STM32H7xx_HAL_Driver/Src/stm32h7xx_hal_ltdc.c ****   assert_param(IS_LTDC_RELOAD(ReloadType));
1472:./Libraries/STM32H7xx_HAL_Driver/Src/stm32h7xx_hal_ltdc.c **** 
1473:./Libraries/STM32H7xx_HAL_Driver/Src/stm32h7xx_hal_ltdc.c ****   /* Process locked */
1474:./Libraries/STM32H7xx_HAL_Driver/Src/stm32h7xx_hal_ltdc.c ****   __HAL_LOCK(hltdc);
 2593              		.loc 1 1474 3
 2594 000a 7B68     		ldr	r3, [r7, #4]
 2595 000c 93F8A030 		ldrb	r3, [r3, #160]	@ zero_extendqisi2
 2596 0010 012B     		cmp	r3, #1
 2597 0012 01D1     		bne	.L86
 2598              		.loc 1 1474 3 is_stmt 0 discriminator 1
 2599 0014 0223     		movs	r3, #2
 2600 0016 1CE0     		b	.L87
 2601              	.L86:
 2602              		.loc 1 1474 3 discriminator 2
 2603 0018 7B68     		ldr	r3, [r7, #4]
 2604 001a 0122     		movs	r2, #1
 2605 001c 83F8A020 		strb	r2, [r3, #160]
1475:./Libraries/STM32H7xx_HAL_Driver/Src/stm32h7xx_hal_ltdc.c **** 
1476:./Libraries/STM32H7xx_HAL_Driver/Src/stm32h7xx_hal_ltdc.c ****   /* Change LTDC peripheral state */
1477:./Libraries/STM32H7xx_HAL_Driver/Src/stm32h7xx_hal_ltdc.c ****   hltdc->State = HAL_LTDC_STATE_BUSY;
 2606              		.loc 1 1477 16 is_stmt 1 discriminator 2
 2607 0020 7B68     		ldr	r3, [r7, #4]
 2608 0022 0222     		movs	r2, #2
 2609 0024 83F8A120 		strb	r2, [r3, #161]
1478:./Libraries/STM32H7xx_HAL_Driver/Src/stm32h7xx_hal_ltdc.c **** 
1479:./Libraries/STM32H7xx_HAL_Driver/Src/stm32h7xx_hal_ltdc.c ****   /* Enable the Reload interrupt */
1480:./Libraries/STM32H7xx_HAL_Driver/Src/stm32h7xx_hal_ltdc.c ****   __HAL_LTDC_ENABLE_IT(hltdc, LTDC_IT_RR);
 2610              		.loc 1 1480 3 discriminator 2
 2611 0028 7B68     		ldr	r3, [r7, #4]
ARM GAS  /tmp/cc7azozz.s 			page 72


 2612 002a 1B68     		ldr	r3, [r3]
 2613 002c 5A6B     		ldr	r2, [r3, #52]
 2614 002e 7B68     		ldr	r3, [r7, #4]
 2615 0030 1B68     		ldr	r3, [r3]
 2616 0032 42F00802 		orr	r2, r2, #8
 2617 0036 5A63     		str	r2, [r3, #52]
1481:./Libraries/STM32H7xx_HAL_Driver/Src/stm32h7xx_hal_ltdc.c **** 
1482:./Libraries/STM32H7xx_HAL_Driver/Src/stm32h7xx_hal_ltdc.c ****   /* Apply Reload type */
1483:./Libraries/STM32H7xx_HAL_Driver/Src/stm32h7xx_hal_ltdc.c ****   hltdc->Instance->SRCR = ReloadType;
 2618              		.loc 1 1483 8 discriminator 2
 2619 0038 7B68     		ldr	r3, [r7, #4]
 2620 003a 1B68     		ldr	r3, [r3]
 2621              		.loc 1 1483 25 discriminator 2
 2622 003c 3A68     		ldr	r2, [r7]
 2623 003e 5A62     		str	r2, [r3, #36]
1484:./Libraries/STM32H7xx_HAL_Driver/Src/stm32h7xx_hal_ltdc.c **** 
1485:./Libraries/STM32H7xx_HAL_Driver/Src/stm32h7xx_hal_ltdc.c ****   /* Change the LTDC state*/
1486:./Libraries/STM32H7xx_HAL_Driver/Src/stm32h7xx_hal_ltdc.c ****   hltdc->State = HAL_LTDC_STATE_READY;
 2624              		.loc 1 1486 16 discriminator 2
 2625 0040 7B68     		ldr	r3, [r7, #4]
 2626 0042 0122     		movs	r2, #1
 2627 0044 83F8A120 		strb	r2, [r3, #161]
1487:./Libraries/STM32H7xx_HAL_Driver/Src/stm32h7xx_hal_ltdc.c **** 
1488:./Libraries/STM32H7xx_HAL_Driver/Src/stm32h7xx_hal_ltdc.c ****   /* Process unlocked */
1489:./Libraries/STM32H7xx_HAL_Driver/Src/stm32h7xx_hal_ltdc.c ****   __HAL_UNLOCK(hltdc);
 2628              		.loc 1 1489 3 discriminator 2
 2629 0048 7B68     		ldr	r3, [r7, #4]
 2630 004a 0022     		movs	r2, #0
 2631 004c 83F8A020 		strb	r2, [r3, #160]
1490:./Libraries/STM32H7xx_HAL_Driver/Src/stm32h7xx_hal_ltdc.c **** 
1491:./Libraries/STM32H7xx_HAL_Driver/Src/stm32h7xx_hal_ltdc.c ****   return HAL_OK;
 2632              		.loc 1 1491 10 discriminator 2
 2633 0050 0023     		movs	r3, #0
 2634              	.L87:
1492:./Libraries/STM32H7xx_HAL_Driver/Src/stm32h7xx_hal_ltdc.c **** }
 2635              		.loc 1 1492 1
 2636 0052 1846     		mov	r0, r3
 2637 0054 0C37     		adds	r7, r7, #12
 2638              	.LCFI138:
 2639              		.cfi_def_cfa_offset 4
 2640 0056 BD46     		mov	sp, r7
 2641              	.LCFI139:
 2642              		.cfi_def_cfa_register 13
 2643              		@ sp needed
 2644 0058 5DF8047B 		ldr	r7, [sp], #4
 2645              	.LCFI140:
 2646              		.cfi_restore 7
 2647              		.cfi_def_cfa_offset 0
 2648 005c 7047     		bx	lr
 2649              		.cfi_endproc
 2650              	.LFE355:
 2652              		.section	.text.HAL_LTDC_ConfigLayer_NoReload,"ax",%progbits
 2653              		.align	1
 2654              		.global	HAL_LTDC_ConfigLayer_NoReload
 2655              		.syntax unified
 2656              		.thumb
 2657              		.thumb_func
ARM GAS  /tmp/cc7azozz.s 			page 73


 2658              		.fpu fpv5-d16
 2660              	HAL_LTDC_ConfigLayer_NoReload:
 2661              	.LFB356:
1493:./Libraries/STM32H7xx_HAL_Driver/Src/stm32h7xx_hal_ltdc.c **** 
1494:./Libraries/STM32H7xx_HAL_Driver/Src/stm32h7xx_hal_ltdc.c **** /**
1495:./Libraries/STM32H7xx_HAL_Driver/Src/stm32h7xx_hal_ltdc.c ****   * @brief  Configure the LTDC Layer according to the specified without reloading
1496:./Libraries/STM32H7xx_HAL_Driver/Src/stm32h7xx_hal_ltdc.c ****   *         parameters in the LTDC_InitTypeDef and create the associated handle.
1497:./Libraries/STM32H7xx_HAL_Driver/Src/stm32h7xx_hal_ltdc.c ****   *         Variant of the function HAL_LTDC_ConfigLayer without immediate reload.
1498:./Libraries/STM32H7xx_HAL_Driver/Src/stm32h7xx_hal_ltdc.c ****   * @param  hltdc      pointer to a LTDC_HandleTypeDef structure that contains
1499:./Libraries/STM32H7xx_HAL_Driver/Src/stm32h7xx_hal_ltdc.c ****   *                    the configuration information for the LTDC.
1500:./Libraries/STM32H7xx_HAL_Driver/Src/stm32h7xx_hal_ltdc.c ****   * @param  pLayerCfg  pointer to a LTDC_LayerCfgTypeDef structure that contains
1501:./Libraries/STM32H7xx_HAL_Driver/Src/stm32h7xx_hal_ltdc.c ****   *                    the configuration information for the Layer.
1502:./Libraries/STM32H7xx_HAL_Driver/Src/stm32h7xx_hal_ltdc.c ****   * @param  LayerIdx   LTDC Layer index.
1503:./Libraries/STM32H7xx_HAL_Driver/Src/stm32h7xx_hal_ltdc.c ****   *                    This parameter can be one of the following values:
1504:./Libraries/STM32H7xx_HAL_Driver/Src/stm32h7xx_hal_ltdc.c ****   *                    LTDC_LAYER_1 (0) or LTDC_LAYER_2 (1)
1505:./Libraries/STM32H7xx_HAL_Driver/Src/stm32h7xx_hal_ltdc.c ****   * @retval HAL status
1506:./Libraries/STM32H7xx_HAL_Driver/Src/stm32h7xx_hal_ltdc.c ****   */
1507:./Libraries/STM32H7xx_HAL_Driver/Src/stm32h7xx_hal_ltdc.c **** HAL_StatusTypeDef HAL_LTDC_ConfigLayer_NoReload(LTDC_HandleTypeDef *hltdc, LTDC_LayerCfgTypeDef *pL
1508:./Libraries/STM32H7xx_HAL_Driver/Src/stm32h7xx_hal_ltdc.c **** {
 2662              		.loc 1 1508 1
 2663              		.cfi_startproc
 2664              		@ args = 0, pretend = 0, frame = 16
 2665              		@ frame_needed = 1, uses_anonymous_args = 0
 2666 0000 B0B5     		push	{r4, r5, r7, lr}
 2667              	.LCFI141:
 2668              		.cfi_def_cfa_offset 16
 2669              		.cfi_offset 4, -16
 2670              		.cfi_offset 5, -12
 2671              		.cfi_offset 7, -8
 2672              		.cfi_offset 14, -4
 2673 0002 84B0     		sub	sp, sp, #16
 2674              	.LCFI142:
 2675              		.cfi_def_cfa_offset 32
 2676 0004 00AF     		add	r7, sp, #0
 2677              	.LCFI143:
 2678              		.cfi_def_cfa_register 7
 2679 0006 F860     		str	r0, [r7, #12]
 2680 0008 B960     		str	r1, [r7, #8]
 2681 000a 7A60     		str	r2, [r7, #4]
1509:./Libraries/STM32H7xx_HAL_Driver/Src/stm32h7xx_hal_ltdc.c ****   /* Check the parameters */
1510:./Libraries/STM32H7xx_HAL_Driver/Src/stm32h7xx_hal_ltdc.c ****   assert_param(IS_LTDC_LAYER(LayerIdx));
1511:./Libraries/STM32H7xx_HAL_Driver/Src/stm32h7xx_hal_ltdc.c ****   assert_param(IS_LTDC_HCONFIGST(pLayerCfg->WindowX0));
1512:./Libraries/STM32H7xx_HAL_Driver/Src/stm32h7xx_hal_ltdc.c ****   assert_param(IS_LTDC_HCONFIGSP(pLayerCfg->WindowX1));
1513:./Libraries/STM32H7xx_HAL_Driver/Src/stm32h7xx_hal_ltdc.c ****   assert_param(IS_LTDC_VCONFIGST(pLayerCfg->WindowY0));
1514:./Libraries/STM32H7xx_HAL_Driver/Src/stm32h7xx_hal_ltdc.c ****   assert_param(IS_LTDC_VCONFIGSP(pLayerCfg->WindowY1));
1515:./Libraries/STM32H7xx_HAL_Driver/Src/stm32h7xx_hal_ltdc.c ****   assert_param(IS_LTDC_PIXEL_FORMAT(pLayerCfg->PixelFormat));
1516:./Libraries/STM32H7xx_HAL_Driver/Src/stm32h7xx_hal_ltdc.c ****   assert_param(IS_LTDC_ALPHA(pLayerCfg->Alpha));
1517:./Libraries/STM32H7xx_HAL_Driver/Src/stm32h7xx_hal_ltdc.c ****   assert_param(IS_LTDC_ALPHA(pLayerCfg->Alpha0));
1518:./Libraries/STM32H7xx_HAL_Driver/Src/stm32h7xx_hal_ltdc.c ****   assert_param(IS_LTDC_BLENDING_FACTOR1(pLayerCfg->BlendingFactor1));
1519:./Libraries/STM32H7xx_HAL_Driver/Src/stm32h7xx_hal_ltdc.c ****   assert_param(IS_LTDC_BLENDING_FACTOR2(pLayerCfg->BlendingFactor2));
1520:./Libraries/STM32H7xx_HAL_Driver/Src/stm32h7xx_hal_ltdc.c ****   assert_param(IS_LTDC_CFBLL(pLayerCfg->ImageWidth));
1521:./Libraries/STM32H7xx_HAL_Driver/Src/stm32h7xx_hal_ltdc.c ****   assert_param(IS_LTDC_CFBLNBR(pLayerCfg->ImageHeight));
1522:./Libraries/STM32H7xx_HAL_Driver/Src/stm32h7xx_hal_ltdc.c **** 
1523:./Libraries/STM32H7xx_HAL_Driver/Src/stm32h7xx_hal_ltdc.c ****   /* Process locked */
1524:./Libraries/STM32H7xx_HAL_Driver/Src/stm32h7xx_hal_ltdc.c ****   __HAL_LOCK(hltdc);
 2682              		.loc 1 1524 3
 2683 000c FB68     		ldr	r3, [r7, #12]
ARM GAS  /tmp/cc7azozz.s 			page 74


 2684 000e 93F8A030 		ldrb	r3, [r3, #160]	@ zero_extendqisi2
 2685 0012 012B     		cmp	r3, #1
 2686 0014 01D1     		bne	.L89
 2687              		.loc 1 1524 3 is_stmt 0 discriminator 1
 2688 0016 0223     		movs	r3, #2
 2689 0018 28E0     		b	.L90
 2690              	.L89:
 2691              		.loc 1 1524 3 discriminator 2
 2692 001a FB68     		ldr	r3, [r7, #12]
 2693 001c 0122     		movs	r2, #1
 2694 001e 83F8A020 		strb	r2, [r3, #160]
1525:./Libraries/STM32H7xx_HAL_Driver/Src/stm32h7xx_hal_ltdc.c **** 
1526:./Libraries/STM32H7xx_HAL_Driver/Src/stm32h7xx_hal_ltdc.c ****   /* Change LTDC peripheral state */
1527:./Libraries/STM32H7xx_HAL_Driver/Src/stm32h7xx_hal_ltdc.c ****   hltdc->State = HAL_LTDC_STATE_BUSY;
 2695              		.loc 1 1527 16 is_stmt 1 discriminator 2
 2696 0022 FB68     		ldr	r3, [r7, #12]
 2697 0024 0222     		movs	r2, #2
 2698 0026 83F8A120 		strb	r2, [r3, #161]
1528:./Libraries/STM32H7xx_HAL_Driver/Src/stm32h7xx_hal_ltdc.c **** 
1529:./Libraries/STM32H7xx_HAL_Driver/Src/stm32h7xx_hal_ltdc.c ****   /* Copy new layer configuration into handle structure */
1530:./Libraries/STM32H7xx_HAL_Driver/Src/stm32h7xx_hal_ltdc.c ****   hltdc->LayerCfg[LayerIdx] = *pLayerCfg;
 2699              		.loc 1 1530 29 discriminator 2
 2700 002a FA68     		ldr	r2, [r7, #12]
 2701 002c 7B68     		ldr	r3, [r7, #4]
 2702 002e 3421     		movs	r1, #52
 2703 0030 01FB03F3 		mul	r3, r1, r3
 2704 0034 1344     		add	r3, r3, r2
 2705 0036 03F13802 		add	r2, r3, #56
 2706 003a BB68     		ldr	r3, [r7, #8]
 2707 003c 1446     		mov	r4, r2
 2708 003e 1D46     		mov	r5, r3
 2709 0040 0FCD     		ldmia	r5!, {r0, r1, r2, r3}
 2710 0042 0FC4     		stmia	r4!, {r0, r1, r2, r3}
 2711 0044 0FCD     		ldmia	r5!, {r0, r1, r2, r3}
 2712 0046 0FC4     		stmia	r4!, {r0, r1, r2, r3}
 2713 0048 0FCD     		ldmia	r5!, {r0, r1, r2, r3}
 2714 004a 0FC4     		stmia	r4!, {r0, r1, r2, r3}
 2715 004c 2B68     		ldr	r3, [r5]
 2716 004e 2360     		str	r3, [r4]
1531:./Libraries/STM32H7xx_HAL_Driver/Src/stm32h7xx_hal_ltdc.c **** 
1532:./Libraries/STM32H7xx_HAL_Driver/Src/stm32h7xx_hal_ltdc.c ****   /* Configure the LTDC Layer */
1533:./Libraries/STM32H7xx_HAL_Driver/Src/stm32h7xx_hal_ltdc.c ****   LTDC_SetConfig(hltdc, pLayerCfg, LayerIdx);
 2717              		.loc 1 1533 3 discriminator 2
 2718 0050 7A68     		ldr	r2, [r7, #4]
 2719 0052 B968     		ldr	r1, [r7, #8]
 2720 0054 F868     		ldr	r0, [r7, #12]
 2721 0056 FFF7FEFF 		bl	LTDC_SetConfig
1534:./Libraries/STM32H7xx_HAL_Driver/Src/stm32h7xx_hal_ltdc.c **** 
1535:./Libraries/STM32H7xx_HAL_Driver/Src/stm32h7xx_hal_ltdc.c ****   /* Initialize the LTDC state*/
1536:./Libraries/STM32H7xx_HAL_Driver/Src/stm32h7xx_hal_ltdc.c ****   hltdc->State  = HAL_LTDC_STATE_READY;
 2722              		.loc 1 1536 17 discriminator 2
 2723 005a FB68     		ldr	r3, [r7, #12]
 2724 005c 0122     		movs	r2, #1
 2725 005e 83F8A120 		strb	r2, [r3, #161]
1537:./Libraries/STM32H7xx_HAL_Driver/Src/stm32h7xx_hal_ltdc.c **** 
1538:./Libraries/STM32H7xx_HAL_Driver/Src/stm32h7xx_hal_ltdc.c ****   /* Process unlocked */
1539:./Libraries/STM32H7xx_HAL_Driver/Src/stm32h7xx_hal_ltdc.c ****   __HAL_UNLOCK(hltdc);
ARM GAS  /tmp/cc7azozz.s 			page 75


 2726              		.loc 1 1539 3 discriminator 2
 2727 0062 FB68     		ldr	r3, [r7, #12]
 2728 0064 0022     		movs	r2, #0
 2729 0066 83F8A020 		strb	r2, [r3, #160]
1540:./Libraries/STM32H7xx_HAL_Driver/Src/stm32h7xx_hal_ltdc.c **** 
1541:./Libraries/STM32H7xx_HAL_Driver/Src/stm32h7xx_hal_ltdc.c ****   return HAL_OK;
 2730              		.loc 1 1541 10 discriminator 2
 2731 006a 0023     		movs	r3, #0
 2732              	.L90:
1542:./Libraries/STM32H7xx_HAL_Driver/Src/stm32h7xx_hal_ltdc.c **** }
 2733              		.loc 1 1542 1
 2734 006c 1846     		mov	r0, r3
 2735 006e 1037     		adds	r7, r7, #16
 2736              	.LCFI144:
 2737              		.cfi_def_cfa_offset 16
 2738 0070 BD46     		mov	sp, r7
 2739              	.LCFI145:
 2740              		.cfi_def_cfa_register 13
 2741              		@ sp needed
 2742 0072 B0BD     		pop	{r4, r5, r7, pc}
 2743              		.cfi_endproc
 2744              	.LFE356:
 2746              		.section	.text.HAL_LTDC_SetWindowSize_NoReload,"ax",%progbits
 2747              		.align	1
 2748              		.global	HAL_LTDC_SetWindowSize_NoReload
 2749              		.syntax unified
 2750              		.thumb
 2751              		.thumb_func
 2752              		.fpu fpv5-d16
 2754              	HAL_LTDC_SetWindowSize_NoReload:
 2755              	.LFB357:
1543:./Libraries/STM32H7xx_HAL_Driver/Src/stm32h7xx_hal_ltdc.c **** 
1544:./Libraries/STM32H7xx_HAL_Driver/Src/stm32h7xx_hal_ltdc.c **** /**
1545:./Libraries/STM32H7xx_HAL_Driver/Src/stm32h7xx_hal_ltdc.c ****   * @brief  Set the LTDC window size without reloading.
1546:./Libraries/STM32H7xx_HAL_Driver/Src/stm32h7xx_hal_ltdc.c ****   *         Variant of the function HAL_LTDC_SetWindowSize without immediate reload.
1547:./Libraries/STM32H7xx_HAL_Driver/Src/stm32h7xx_hal_ltdc.c ****   * @param  hltdc     pointer to a LTDC_HandleTypeDef structure that contains
1548:./Libraries/STM32H7xx_HAL_Driver/Src/stm32h7xx_hal_ltdc.c ****   *                   the configuration information for the LTDC.
1549:./Libraries/STM32H7xx_HAL_Driver/Src/stm32h7xx_hal_ltdc.c ****   * @param  XSize     LTDC Pixel per line
1550:./Libraries/STM32H7xx_HAL_Driver/Src/stm32h7xx_hal_ltdc.c ****   * @param  YSize     LTDC Line number
1551:./Libraries/STM32H7xx_HAL_Driver/Src/stm32h7xx_hal_ltdc.c ****   * @param  LayerIdx  LTDC Layer index.
1552:./Libraries/STM32H7xx_HAL_Driver/Src/stm32h7xx_hal_ltdc.c ****   *                   This parameter can be one of the following values:
1553:./Libraries/STM32H7xx_HAL_Driver/Src/stm32h7xx_hal_ltdc.c ****   *                   LTDC_LAYER_1 (0) or LTDC_LAYER_2 (1)
1554:./Libraries/STM32H7xx_HAL_Driver/Src/stm32h7xx_hal_ltdc.c ****   * @retval  HAL status
1555:./Libraries/STM32H7xx_HAL_Driver/Src/stm32h7xx_hal_ltdc.c ****   */
1556:./Libraries/STM32H7xx_HAL_Driver/Src/stm32h7xx_hal_ltdc.c **** HAL_StatusTypeDef HAL_LTDC_SetWindowSize_NoReload(LTDC_HandleTypeDef *hltdc, uint32_t XSize, uint32
1557:./Libraries/STM32H7xx_HAL_Driver/Src/stm32h7xx_hal_ltdc.c **** {
 2756              		.loc 1 1557 1
 2757              		.cfi_startproc
 2758              		@ args = 0, pretend = 0, frame = 24
 2759              		@ frame_needed = 1, uses_anonymous_args = 0
 2760 0000 80B5     		push	{r7, lr}
 2761              	.LCFI146:
 2762              		.cfi_def_cfa_offset 8
 2763              		.cfi_offset 7, -8
 2764              		.cfi_offset 14, -4
 2765 0002 86B0     		sub	sp, sp, #24
 2766              	.LCFI147:
ARM GAS  /tmp/cc7azozz.s 			page 76


 2767              		.cfi_def_cfa_offset 32
 2768 0004 00AF     		add	r7, sp, #0
 2769              	.LCFI148:
 2770              		.cfi_def_cfa_register 7
 2771 0006 F860     		str	r0, [r7, #12]
 2772 0008 B960     		str	r1, [r7, #8]
 2773 000a 7A60     		str	r2, [r7, #4]
 2774 000c 3B60     		str	r3, [r7]
1558:./Libraries/STM32H7xx_HAL_Driver/Src/stm32h7xx_hal_ltdc.c ****   LTDC_LayerCfgTypeDef *pLayerCfg;
1559:./Libraries/STM32H7xx_HAL_Driver/Src/stm32h7xx_hal_ltdc.c **** 
1560:./Libraries/STM32H7xx_HAL_Driver/Src/stm32h7xx_hal_ltdc.c ****   /* Check the parameters (Layers parameters)*/
1561:./Libraries/STM32H7xx_HAL_Driver/Src/stm32h7xx_hal_ltdc.c ****   assert_param(IS_LTDC_LAYER(LayerIdx));
1562:./Libraries/STM32H7xx_HAL_Driver/Src/stm32h7xx_hal_ltdc.c ****   assert_param(IS_LTDC_CFBLL(XSize));
1563:./Libraries/STM32H7xx_HAL_Driver/Src/stm32h7xx_hal_ltdc.c ****   assert_param(IS_LTDC_CFBLNBR(YSize));
1564:./Libraries/STM32H7xx_HAL_Driver/Src/stm32h7xx_hal_ltdc.c **** 
1565:./Libraries/STM32H7xx_HAL_Driver/Src/stm32h7xx_hal_ltdc.c ****   /* Process locked */
1566:./Libraries/STM32H7xx_HAL_Driver/Src/stm32h7xx_hal_ltdc.c ****   __HAL_LOCK(hltdc);
 2775              		.loc 1 1566 3
 2776 000e FB68     		ldr	r3, [r7, #12]
 2777 0010 93F8A030 		ldrb	r3, [r3, #160]	@ zero_extendqisi2
 2778 0014 012B     		cmp	r3, #1
 2779 0016 01D1     		bne	.L92
 2780              		.loc 1 1566 3 is_stmt 0 discriminator 1
 2781 0018 0223     		movs	r3, #2
 2782 001a 2FE0     		b	.L93
 2783              	.L92:
 2784              		.loc 1 1566 3 discriminator 2
 2785 001c FB68     		ldr	r3, [r7, #12]
 2786 001e 0122     		movs	r2, #1
 2787 0020 83F8A020 		strb	r2, [r3, #160]
1567:./Libraries/STM32H7xx_HAL_Driver/Src/stm32h7xx_hal_ltdc.c **** 
1568:./Libraries/STM32H7xx_HAL_Driver/Src/stm32h7xx_hal_ltdc.c ****   /* Change LTDC peripheral state */
1569:./Libraries/STM32H7xx_HAL_Driver/Src/stm32h7xx_hal_ltdc.c ****   hltdc->State = HAL_LTDC_STATE_BUSY;
 2788              		.loc 1 1569 16 is_stmt 1 discriminator 2
 2789 0024 FB68     		ldr	r3, [r7, #12]
 2790 0026 0222     		movs	r2, #2
 2791 0028 83F8A120 		strb	r2, [r3, #161]
1570:./Libraries/STM32H7xx_HAL_Driver/Src/stm32h7xx_hal_ltdc.c **** 
1571:./Libraries/STM32H7xx_HAL_Driver/Src/stm32h7xx_hal_ltdc.c ****   /* Get layer configuration from handle structure */
1572:./Libraries/STM32H7xx_HAL_Driver/Src/stm32h7xx_hal_ltdc.c ****   pLayerCfg = &hltdc->LayerCfg[LayerIdx];
 2792              		.loc 1 1572 13 discriminator 2
 2793 002c 3B68     		ldr	r3, [r7]
 2794 002e 3422     		movs	r2, #52
 2795 0030 02FB03F3 		mul	r3, r2, r3
 2796 0034 3833     		adds	r3, r3, #56
 2797 0036 FA68     		ldr	r2, [r7, #12]
 2798 0038 1344     		add	r3, r3, r2
 2799 003a 7B61     		str	r3, [r7, #20]
1573:./Libraries/STM32H7xx_HAL_Driver/Src/stm32h7xx_hal_ltdc.c **** 
1574:./Libraries/STM32H7xx_HAL_Driver/Src/stm32h7xx_hal_ltdc.c ****   /* update horizontal stop */
1575:./Libraries/STM32H7xx_HAL_Driver/Src/stm32h7xx_hal_ltdc.c ****   pLayerCfg->WindowX1 = XSize + pLayerCfg->WindowX0;
 2800              		.loc 1 1575 42 discriminator 2
 2801 003c 7B69     		ldr	r3, [r7, #20]
 2802 003e 1A68     		ldr	r2, [r3]
 2803              		.loc 1 1575 31 discriminator 2
 2804 0040 BB68     		ldr	r3, [r7, #8]
 2805 0042 1A44     		add	r2, r2, r3
ARM GAS  /tmp/cc7azozz.s 			page 77


 2806              		.loc 1 1575 23 discriminator 2
 2807 0044 7B69     		ldr	r3, [r7, #20]
 2808 0046 5A60     		str	r2, [r3, #4]
1576:./Libraries/STM32H7xx_HAL_Driver/Src/stm32h7xx_hal_ltdc.c **** 
1577:./Libraries/STM32H7xx_HAL_Driver/Src/stm32h7xx_hal_ltdc.c ****   /* update vertical stop */
1578:./Libraries/STM32H7xx_HAL_Driver/Src/stm32h7xx_hal_ltdc.c ****   pLayerCfg->WindowY1 = YSize + pLayerCfg->WindowY0;
 2809              		.loc 1 1578 42 discriminator 2
 2810 0048 7B69     		ldr	r3, [r7, #20]
 2811 004a 9A68     		ldr	r2, [r3, #8]
 2812              		.loc 1 1578 31 discriminator 2
 2813 004c 7B68     		ldr	r3, [r7, #4]
 2814 004e 1A44     		add	r2, r2, r3
 2815              		.loc 1 1578 23 discriminator 2
 2816 0050 7B69     		ldr	r3, [r7, #20]
 2817 0052 DA60     		str	r2, [r3, #12]
1579:./Libraries/STM32H7xx_HAL_Driver/Src/stm32h7xx_hal_ltdc.c **** 
1580:./Libraries/STM32H7xx_HAL_Driver/Src/stm32h7xx_hal_ltdc.c ****   /* Reconfigures the color frame buffer pitch in byte */
1581:./Libraries/STM32H7xx_HAL_Driver/Src/stm32h7xx_hal_ltdc.c ****   pLayerCfg->ImageWidth = XSize;
 2818              		.loc 1 1581 25 discriminator 2
 2819 0054 7B69     		ldr	r3, [r7, #20]
 2820 0056 BA68     		ldr	r2, [r7, #8]
 2821 0058 9A62     		str	r2, [r3, #40]
1582:./Libraries/STM32H7xx_HAL_Driver/Src/stm32h7xx_hal_ltdc.c **** 
1583:./Libraries/STM32H7xx_HAL_Driver/Src/stm32h7xx_hal_ltdc.c ****   /* Reconfigures the frame buffer line number */
1584:./Libraries/STM32H7xx_HAL_Driver/Src/stm32h7xx_hal_ltdc.c ****   pLayerCfg->ImageHeight = YSize;
 2822              		.loc 1 1584 26 discriminator 2
 2823 005a 7B69     		ldr	r3, [r7, #20]
 2824 005c 7A68     		ldr	r2, [r7, #4]
 2825 005e DA62     		str	r2, [r3, #44]
1585:./Libraries/STM32H7xx_HAL_Driver/Src/stm32h7xx_hal_ltdc.c **** 
1586:./Libraries/STM32H7xx_HAL_Driver/Src/stm32h7xx_hal_ltdc.c ****   /* Set LTDC parameters */
1587:./Libraries/STM32H7xx_HAL_Driver/Src/stm32h7xx_hal_ltdc.c ****   LTDC_SetConfig(hltdc, pLayerCfg, LayerIdx);
 2826              		.loc 1 1587 3 discriminator 2
 2827 0060 3A68     		ldr	r2, [r7]
 2828 0062 7969     		ldr	r1, [r7, #20]
 2829 0064 F868     		ldr	r0, [r7, #12]
 2830 0066 FFF7FEFF 		bl	LTDC_SetConfig
1588:./Libraries/STM32H7xx_HAL_Driver/Src/stm32h7xx_hal_ltdc.c **** 
1589:./Libraries/STM32H7xx_HAL_Driver/Src/stm32h7xx_hal_ltdc.c ****   /* Change the LTDC state*/
1590:./Libraries/STM32H7xx_HAL_Driver/Src/stm32h7xx_hal_ltdc.c ****   hltdc->State = HAL_LTDC_STATE_READY;
 2831              		.loc 1 1590 16 discriminator 2
 2832 006a FB68     		ldr	r3, [r7, #12]
 2833 006c 0122     		movs	r2, #1
 2834 006e 83F8A120 		strb	r2, [r3, #161]
1591:./Libraries/STM32H7xx_HAL_Driver/Src/stm32h7xx_hal_ltdc.c **** 
1592:./Libraries/STM32H7xx_HAL_Driver/Src/stm32h7xx_hal_ltdc.c ****   /* Process unlocked */
1593:./Libraries/STM32H7xx_HAL_Driver/Src/stm32h7xx_hal_ltdc.c ****   __HAL_UNLOCK(hltdc);
 2835              		.loc 1 1593 3 discriminator 2
 2836 0072 FB68     		ldr	r3, [r7, #12]
 2837 0074 0022     		movs	r2, #0
 2838 0076 83F8A020 		strb	r2, [r3, #160]
1594:./Libraries/STM32H7xx_HAL_Driver/Src/stm32h7xx_hal_ltdc.c **** 
1595:./Libraries/STM32H7xx_HAL_Driver/Src/stm32h7xx_hal_ltdc.c ****   return HAL_OK;
 2839              		.loc 1 1595 10 discriminator 2
 2840 007a 0023     		movs	r3, #0
 2841              	.L93:
1596:./Libraries/STM32H7xx_HAL_Driver/Src/stm32h7xx_hal_ltdc.c **** }
ARM GAS  /tmp/cc7azozz.s 			page 78


 2842              		.loc 1 1596 1
 2843 007c 1846     		mov	r0, r3
 2844 007e 1837     		adds	r7, r7, #24
 2845              	.LCFI149:
 2846              		.cfi_def_cfa_offset 8
 2847 0080 BD46     		mov	sp, r7
 2848              	.LCFI150:
 2849              		.cfi_def_cfa_register 13
 2850              		@ sp needed
 2851 0082 80BD     		pop	{r7, pc}
 2852              		.cfi_endproc
 2853              	.LFE357:
 2855              		.section	.text.HAL_LTDC_SetWindowPosition_NoReload,"ax",%progbits
 2856              		.align	1
 2857              		.global	HAL_LTDC_SetWindowPosition_NoReload
 2858              		.syntax unified
 2859              		.thumb
 2860              		.thumb_func
 2861              		.fpu fpv5-d16
 2863              	HAL_LTDC_SetWindowPosition_NoReload:
 2864              	.LFB358:
1597:./Libraries/STM32H7xx_HAL_Driver/Src/stm32h7xx_hal_ltdc.c **** 
1598:./Libraries/STM32H7xx_HAL_Driver/Src/stm32h7xx_hal_ltdc.c **** /**
1599:./Libraries/STM32H7xx_HAL_Driver/Src/stm32h7xx_hal_ltdc.c ****   * @brief  Set the LTDC window position without reloading.
1600:./Libraries/STM32H7xx_HAL_Driver/Src/stm32h7xx_hal_ltdc.c ****   *         Variant of the function HAL_LTDC_SetWindowPosition without immediate reload.
1601:./Libraries/STM32H7xx_HAL_Driver/Src/stm32h7xx_hal_ltdc.c ****   * @param  hltdc     pointer to a LTDC_HandleTypeDef structure that contains
1602:./Libraries/STM32H7xx_HAL_Driver/Src/stm32h7xx_hal_ltdc.c ****   *                   the configuration information for the LTDC.
1603:./Libraries/STM32H7xx_HAL_Driver/Src/stm32h7xx_hal_ltdc.c ****   * @param  X0        LTDC window X offset
1604:./Libraries/STM32H7xx_HAL_Driver/Src/stm32h7xx_hal_ltdc.c ****   * @param  Y0        LTDC window Y offset
1605:./Libraries/STM32H7xx_HAL_Driver/Src/stm32h7xx_hal_ltdc.c ****   * @param  LayerIdx  LTDC Layer index.
1606:./Libraries/STM32H7xx_HAL_Driver/Src/stm32h7xx_hal_ltdc.c ****   *                         This parameter can be one of the following values:
1607:./Libraries/STM32H7xx_HAL_Driver/Src/stm32h7xx_hal_ltdc.c ****   *                         LTDC_LAYER_1 (0) or LTDC_LAYER_2 (1)
1608:./Libraries/STM32H7xx_HAL_Driver/Src/stm32h7xx_hal_ltdc.c ****   * @retval  HAL status
1609:./Libraries/STM32H7xx_HAL_Driver/Src/stm32h7xx_hal_ltdc.c ****   */
1610:./Libraries/STM32H7xx_HAL_Driver/Src/stm32h7xx_hal_ltdc.c **** HAL_StatusTypeDef HAL_LTDC_SetWindowPosition_NoReload(LTDC_HandleTypeDef *hltdc, uint32_t X0, uint3
1611:./Libraries/STM32H7xx_HAL_Driver/Src/stm32h7xx_hal_ltdc.c **** {
 2865              		.loc 1 1611 1
 2866              		.cfi_startproc
 2867              		@ args = 0, pretend = 0, frame = 24
 2868              		@ frame_needed = 1, uses_anonymous_args = 0
 2869 0000 80B5     		push	{r7, lr}
 2870              	.LCFI151:
 2871              		.cfi_def_cfa_offset 8
 2872              		.cfi_offset 7, -8
 2873              		.cfi_offset 14, -4
 2874 0002 86B0     		sub	sp, sp, #24
 2875              	.LCFI152:
 2876              		.cfi_def_cfa_offset 32
 2877 0004 00AF     		add	r7, sp, #0
 2878              	.LCFI153:
 2879              		.cfi_def_cfa_register 7
 2880 0006 F860     		str	r0, [r7, #12]
 2881 0008 B960     		str	r1, [r7, #8]
 2882 000a 7A60     		str	r2, [r7, #4]
 2883 000c 3B60     		str	r3, [r7]
1612:./Libraries/STM32H7xx_HAL_Driver/Src/stm32h7xx_hal_ltdc.c ****   LTDC_LayerCfgTypeDef *pLayerCfg;
1613:./Libraries/STM32H7xx_HAL_Driver/Src/stm32h7xx_hal_ltdc.c **** 
ARM GAS  /tmp/cc7azozz.s 			page 79


1614:./Libraries/STM32H7xx_HAL_Driver/Src/stm32h7xx_hal_ltdc.c ****   /* Check the parameters */
1615:./Libraries/STM32H7xx_HAL_Driver/Src/stm32h7xx_hal_ltdc.c ****   assert_param(IS_LTDC_LAYER(LayerIdx));
1616:./Libraries/STM32H7xx_HAL_Driver/Src/stm32h7xx_hal_ltdc.c ****   assert_param(IS_LTDC_CFBLL(X0));
1617:./Libraries/STM32H7xx_HAL_Driver/Src/stm32h7xx_hal_ltdc.c ****   assert_param(IS_LTDC_CFBLNBR(Y0));
1618:./Libraries/STM32H7xx_HAL_Driver/Src/stm32h7xx_hal_ltdc.c **** 
1619:./Libraries/STM32H7xx_HAL_Driver/Src/stm32h7xx_hal_ltdc.c ****   /* Process locked */
1620:./Libraries/STM32H7xx_HAL_Driver/Src/stm32h7xx_hal_ltdc.c ****   __HAL_LOCK(hltdc);
 2884              		.loc 1 1620 3
 2885 000e FB68     		ldr	r3, [r7, #12]
 2886 0010 93F8A030 		ldrb	r3, [r3, #160]	@ zero_extendqisi2
 2887 0014 012B     		cmp	r3, #1
 2888 0016 01D1     		bne	.L95
 2889              		.loc 1 1620 3 is_stmt 0 discriminator 1
 2890 0018 0223     		movs	r3, #2
 2891 001a 2FE0     		b	.L96
 2892              	.L95:
 2893              		.loc 1 1620 3 discriminator 2
 2894 001c FB68     		ldr	r3, [r7, #12]
 2895 001e 0122     		movs	r2, #1
 2896 0020 83F8A020 		strb	r2, [r3, #160]
1621:./Libraries/STM32H7xx_HAL_Driver/Src/stm32h7xx_hal_ltdc.c **** 
1622:./Libraries/STM32H7xx_HAL_Driver/Src/stm32h7xx_hal_ltdc.c ****   /* Change LTDC peripheral state */
1623:./Libraries/STM32H7xx_HAL_Driver/Src/stm32h7xx_hal_ltdc.c ****   hltdc->State = HAL_LTDC_STATE_BUSY;
 2897              		.loc 1 1623 16 is_stmt 1 discriminator 2
 2898 0024 FB68     		ldr	r3, [r7, #12]
 2899 0026 0222     		movs	r2, #2
 2900 0028 83F8A120 		strb	r2, [r3, #161]
1624:./Libraries/STM32H7xx_HAL_Driver/Src/stm32h7xx_hal_ltdc.c **** 
1625:./Libraries/STM32H7xx_HAL_Driver/Src/stm32h7xx_hal_ltdc.c ****   /* Get layer configuration from handle structure */
1626:./Libraries/STM32H7xx_HAL_Driver/Src/stm32h7xx_hal_ltdc.c ****   pLayerCfg = &hltdc->LayerCfg[LayerIdx];
 2901              		.loc 1 1626 13 discriminator 2
 2902 002c 3B68     		ldr	r3, [r7]
 2903 002e 3422     		movs	r2, #52
 2904 0030 02FB03F3 		mul	r3, r2, r3
 2905 0034 3833     		adds	r3, r3, #56
 2906 0036 FA68     		ldr	r2, [r7, #12]
 2907 0038 1344     		add	r3, r3, r2
 2908 003a 7B61     		str	r3, [r7, #20]
1627:./Libraries/STM32H7xx_HAL_Driver/Src/stm32h7xx_hal_ltdc.c **** 
1628:./Libraries/STM32H7xx_HAL_Driver/Src/stm32h7xx_hal_ltdc.c ****   /* update horizontal start/stop */
1629:./Libraries/STM32H7xx_HAL_Driver/Src/stm32h7xx_hal_ltdc.c ****   pLayerCfg->WindowX0 = X0;
 2909              		.loc 1 1629 23 discriminator 2
 2910 003c 7B69     		ldr	r3, [r7, #20]
 2911 003e BA68     		ldr	r2, [r7, #8]
 2912 0040 1A60     		str	r2, [r3]
1630:./Libraries/STM32H7xx_HAL_Driver/Src/stm32h7xx_hal_ltdc.c ****   pLayerCfg->WindowX1 = X0 + pLayerCfg->ImageWidth;
 2913              		.loc 1 1630 39 discriminator 2
 2914 0042 7B69     		ldr	r3, [r7, #20]
 2915 0044 9A6A     		ldr	r2, [r3, #40]
 2916              		.loc 1 1630 28 discriminator 2
 2917 0046 BB68     		ldr	r3, [r7, #8]
 2918 0048 1A44     		add	r2, r2, r3
 2919              		.loc 1 1630 23 discriminator 2
 2920 004a 7B69     		ldr	r3, [r7, #20]
 2921 004c 5A60     		str	r2, [r3, #4]
1631:./Libraries/STM32H7xx_HAL_Driver/Src/stm32h7xx_hal_ltdc.c **** 
1632:./Libraries/STM32H7xx_HAL_Driver/Src/stm32h7xx_hal_ltdc.c ****   /* update vertical start/stop */
ARM GAS  /tmp/cc7azozz.s 			page 80


1633:./Libraries/STM32H7xx_HAL_Driver/Src/stm32h7xx_hal_ltdc.c ****   pLayerCfg->WindowY0 = Y0;
 2922              		.loc 1 1633 23 discriminator 2
 2923 004e 7B69     		ldr	r3, [r7, #20]
 2924 0050 7A68     		ldr	r2, [r7, #4]
 2925 0052 9A60     		str	r2, [r3, #8]
1634:./Libraries/STM32H7xx_HAL_Driver/Src/stm32h7xx_hal_ltdc.c ****   pLayerCfg->WindowY1 = Y0 + pLayerCfg->ImageHeight;
 2926              		.loc 1 1634 39 discriminator 2
 2927 0054 7B69     		ldr	r3, [r7, #20]
 2928 0056 DA6A     		ldr	r2, [r3, #44]
 2929              		.loc 1 1634 28 discriminator 2
 2930 0058 7B68     		ldr	r3, [r7, #4]
 2931 005a 1A44     		add	r2, r2, r3
 2932              		.loc 1 1634 23 discriminator 2
 2933 005c 7B69     		ldr	r3, [r7, #20]
 2934 005e DA60     		str	r2, [r3, #12]
1635:./Libraries/STM32H7xx_HAL_Driver/Src/stm32h7xx_hal_ltdc.c **** 
1636:./Libraries/STM32H7xx_HAL_Driver/Src/stm32h7xx_hal_ltdc.c ****   /* Set LTDC parameters */
1637:./Libraries/STM32H7xx_HAL_Driver/Src/stm32h7xx_hal_ltdc.c ****   LTDC_SetConfig(hltdc, pLayerCfg, LayerIdx);
 2935              		.loc 1 1637 3 discriminator 2
 2936 0060 3A68     		ldr	r2, [r7]
 2937 0062 7969     		ldr	r1, [r7, #20]
 2938 0064 F868     		ldr	r0, [r7, #12]
 2939 0066 FFF7FEFF 		bl	LTDC_SetConfig
1638:./Libraries/STM32H7xx_HAL_Driver/Src/stm32h7xx_hal_ltdc.c **** 
1639:./Libraries/STM32H7xx_HAL_Driver/Src/stm32h7xx_hal_ltdc.c ****   /* Change the LTDC state*/
1640:./Libraries/STM32H7xx_HAL_Driver/Src/stm32h7xx_hal_ltdc.c ****   hltdc->State = HAL_LTDC_STATE_READY;
 2940              		.loc 1 1640 16 discriminator 2
 2941 006a FB68     		ldr	r3, [r7, #12]
 2942 006c 0122     		movs	r2, #1
 2943 006e 83F8A120 		strb	r2, [r3, #161]
1641:./Libraries/STM32H7xx_HAL_Driver/Src/stm32h7xx_hal_ltdc.c **** 
1642:./Libraries/STM32H7xx_HAL_Driver/Src/stm32h7xx_hal_ltdc.c ****   /* Process unlocked */
1643:./Libraries/STM32H7xx_HAL_Driver/Src/stm32h7xx_hal_ltdc.c ****   __HAL_UNLOCK(hltdc);
 2944              		.loc 1 1643 3 discriminator 2
 2945 0072 FB68     		ldr	r3, [r7, #12]
 2946 0074 0022     		movs	r2, #0
 2947 0076 83F8A020 		strb	r2, [r3, #160]
1644:./Libraries/STM32H7xx_HAL_Driver/Src/stm32h7xx_hal_ltdc.c **** 
1645:./Libraries/STM32H7xx_HAL_Driver/Src/stm32h7xx_hal_ltdc.c ****   return HAL_OK;
 2948              		.loc 1 1645 10 discriminator 2
 2949 007a 0023     		movs	r3, #0
 2950              	.L96:
1646:./Libraries/STM32H7xx_HAL_Driver/Src/stm32h7xx_hal_ltdc.c **** }
 2951              		.loc 1 1646 1
 2952 007c 1846     		mov	r0, r3
 2953 007e 1837     		adds	r7, r7, #24
 2954              	.LCFI154:
 2955              		.cfi_def_cfa_offset 8
 2956 0080 BD46     		mov	sp, r7
 2957              	.LCFI155:
 2958              		.cfi_def_cfa_register 13
 2959              		@ sp needed
 2960 0082 80BD     		pop	{r7, pc}
 2961              		.cfi_endproc
 2962              	.LFE358:
 2964              		.section	.text.HAL_LTDC_SetPixelFormat_NoReload,"ax",%progbits
 2965              		.align	1
ARM GAS  /tmp/cc7azozz.s 			page 81


 2966              		.global	HAL_LTDC_SetPixelFormat_NoReload
 2967              		.syntax unified
 2968              		.thumb
 2969              		.thumb_func
 2970              		.fpu fpv5-d16
 2972              	HAL_LTDC_SetPixelFormat_NoReload:
 2973              	.LFB359:
1647:./Libraries/STM32H7xx_HAL_Driver/Src/stm32h7xx_hal_ltdc.c **** 
1648:./Libraries/STM32H7xx_HAL_Driver/Src/stm32h7xx_hal_ltdc.c **** /**
1649:./Libraries/STM32H7xx_HAL_Driver/Src/stm32h7xx_hal_ltdc.c ****   * @brief  Reconfigure the pixel format without reloading.
1650:./Libraries/STM32H7xx_HAL_Driver/Src/stm32h7xx_hal_ltdc.c ****   *         Variant of the function HAL_LTDC_SetPixelFormat without immediate reload.
1651:./Libraries/STM32H7xx_HAL_Driver/Src/stm32h7xx_hal_ltdc.c ****   * @param  hltdc        pointer to a LTDC_HandleTypeDfef structure that contains
1652:./Libraries/STM32H7xx_HAL_Driver/Src/stm32h7xx_hal_ltdc.c ****   *                      the configuration information for the LTDC.
1653:./Libraries/STM32H7xx_HAL_Driver/Src/stm32h7xx_hal_ltdc.c ****   * @param  Pixelformat  new pixel format value.
1654:./Libraries/STM32H7xx_HAL_Driver/Src/stm32h7xx_hal_ltdc.c ****   * @param  LayerIdx     LTDC Layer index.
1655:./Libraries/STM32H7xx_HAL_Driver/Src/stm32h7xx_hal_ltdc.c ****   *                      This parameter can be one of the following values:
1656:./Libraries/STM32H7xx_HAL_Driver/Src/stm32h7xx_hal_ltdc.c ****   *                      LTDC_LAYER_1 (0) or LTDC_LAYER_2 (1).
1657:./Libraries/STM32H7xx_HAL_Driver/Src/stm32h7xx_hal_ltdc.c ****   * @retval  HAL status
1658:./Libraries/STM32H7xx_HAL_Driver/Src/stm32h7xx_hal_ltdc.c ****   */
1659:./Libraries/STM32H7xx_HAL_Driver/Src/stm32h7xx_hal_ltdc.c **** HAL_StatusTypeDef HAL_LTDC_SetPixelFormat_NoReload(LTDC_HandleTypeDef *hltdc, uint32_t Pixelformat,
1660:./Libraries/STM32H7xx_HAL_Driver/Src/stm32h7xx_hal_ltdc.c **** {
 2974              		.loc 1 1660 1
 2975              		.cfi_startproc
 2976              		@ args = 0, pretend = 0, frame = 24
 2977              		@ frame_needed = 1, uses_anonymous_args = 0
 2978 0000 80B5     		push	{r7, lr}
 2979              	.LCFI156:
 2980              		.cfi_def_cfa_offset 8
 2981              		.cfi_offset 7, -8
 2982              		.cfi_offset 14, -4
 2983 0002 86B0     		sub	sp, sp, #24
 2984              	.LCFI157:
 2985              		.cfi_def_cfa_offset 32
 2986 0004 00AF     		add	r7, sp, #0
 2987              	.LCFI158:
 2988              		.cfi_def_cfa_register 7
 2989 0006 F860     		str	r0, [r7, #12]
 2990 0008 B960     		str	r1, [r7, #8]
 2991 000a 7A60     		str	r2, [r7, #4]
1661:./Libraries/STM32H7xx_HAL_Driver/Src/stm32h7xx_hal_ltdc.c ****   LTDC_LayerCfgTypeDef *pLayerCfg;
1662:./Libraries/STM32H7xx_HAL_Driver/Src/stm32h7xx_hal_ltdc.c **** 
1663:./Libraries/STM32H7xx_HAL_Driver/Src/stm32h7xx_hal_ltdc.c ****   /* Check the parameters */
1664:./Libraries/STM32H7xx_HAL_Driver/Src/stm32h7xx_hal_ltdc.c ****   assert_param(IS_LTDC_PIXEL_FORMAT(Pixelformat));
1665:./Libraries/STM32H7xx_HAL_Driver/Src/stm32h7xx_hal_ltdc.c ****   assert_param(IS_LTDC_LAYER(LayerIdx));
1666:./Libraries/STM32H7xx_HAL_Driver/Src/stm32h7xx_hal_ltdc.c **** 
1667:./Libraries/STM32H7xx_HAL_Driver/Src/stm32h7xx_hal_ltdc.c ****   /* Process locked */
1668:./Libraries/STM32H7xx_HAL_Driver/Src/stm32h7xx_hal_ltdc.c ****   __HAL_LOCK(hltdc);
 2992              		.loc 1 1668 3
 2993 000c FB68     		ldr	r3, [r7, #12]
 2994 000e 93F8A030 		ldrb	r3, [r3, #160]	@ zero_extendqisi2
 2995 0012 012B     		cmp	r3, #1
 2996 0014 01D1     		bne	.L98
 2997              		.loc 1 1668 3 is_stmt 0 discriminator 1
 2998 0016 0223     		movs	r3, #2
 2999 0018 20E0     		b	.L99
 3000              	.L98:
 3001              		.loc 1 1668 3 discriminator 2
ARM GAS  /tmp/cc7azozz.s 			page 82


 3002 001a FB68     		ldr	r3, [r7, #12]
 3003 001c 0122     		movs	r2, #1
 3004 001e 83F8A020 		strb	r2, [r3, #160]
1669:./Libraries/STM32H7xx_HAL_Driver/Src/stm32h7xx_hal_ltdc.c **** 
1670:./Libraries/STM32H7xx_HAL_Driver/Src/stm32h7xx_hal_ltdc.c ****   /* Change LTDC peripheral state */
1671:./Libraries/STM32H7xx_HAL_Driver/Src/stm32h7xx_hal_ltdc.c ****   hltdc->State = HAL_LTDC_STATE_BUSY;
 3005              		.loc 1 1671 16 is_stmt 1 discriminator 2
 3006 0022 FB68     		ldr	r3, [r7, #12]
 3007 0024 0222     		movs	r2, #2
 3008 0026 83F8A120 		strb	r2, [r3, #161]
1672:./Libraries/STM32H7xx_HAL_Driver/Src/stm32h7xx_hal_ltdc.c **** 
1673:./Libraries/STM32H7xx_HAL_Driver/Src/stm32h7xx_hal_ltdc.c ****   /* Get layer configuration from handle structure */
1674:./Libraries/STM32H7xx_HAL_Driver/Src/stm32h7xx_hal_ltdc.c ****   pLayerCfg = &hltdc->LayerCfg[LayerIdx];
 3009              		.loc 1 1674 13 discriminator 2
 3010 002a 7B68     		ldr	r3, [r7, #4]
 3011 002c 3422     		movs	r2, #52
 3012 002e 02FB03F3 		mul	r3, r2, r3
 3013 0032 3833     		adds	r3, r3, #56
 3014 0034 FA68     		ldr	r2, [r7, #12]
 3015 0036 1344     		add	r3, r3, r2
 3016 0038 7B61     		str	r3, [r7, #20]
1675:./Libraries/STM32H7xx_HAL_Driver/Src/stm32h7xx_hal_ltdc.c **** 
1676:./Libraries/STM32H7xx_HAL_Driver/Src/stm32h7xx_hal_ltdc.c ****   /* Reconfigure the pixel format */
1677:./Libraries/STM32H7xx_HAL_Driver/Src/stm32h7xx_hal_ltdc.c ****   pLayerCfg->PixelFormat = Pixelformat;
 3017              		.loc 1 1677 26 discriminator 2
 3018 003a 7B69     		ldr	r3, [r7, #20]
 3019 003c BA68     		ldr	r2, [r7, #8]
 3020 003e 1A61     		str	r2, [r3, #16]
1678:./Libraries/STM32H7xx_HAL_Driver/Src/stm32h7xx_hal_ltdc.c **** 
1679:./Libraries/STM32H7xx_HAL_Driver/Src/stm32h7xx_hal_ltdc.c ****   /* Set LTDC parameters */
1680:./Libraries/STM32H7xx_HAL_Driver/Src/stm32h7xx_hal_ltdc.c ****   LTDC_SetConfig(hltdc, pLayerCfg, LayerIdx);
 3021              		.loc 1 1680 3 discriminator 2
 3022 0040 7A68     		ldr	r2, [r7, #4]
 3023 0042 7969     		ldr	r1, [r7, #20]
 3024 0044 F868     		ldr	r0, [r7, #12]
 3025 0046 FFF7FEFF 		bl	LTDC_SetConfig
1681:./Libraries/STM32H7xx_HAL_Driver/Src/stm32h7xx_hal_ltdc.c **** 
1682:./Libraries/STM32H7xx_HAL_Driver/Src/stm32h7xx_hal_ltdc.c ****   /* Change the LTDC state*/
1683:./Libraries/STM32H7xx_HAL_Driver/Src/stm32h7xx_hal_ltdc.c ****   hltdc->State = HAL_LTDC_STATE_READY;
 3026              		.loc 1 1683 16 discriminator 2
 3027 004a FB68     		ldr	r3, [r7, #12]
 3028 004c 0122     		movs	r2, #1
 3029 004e 83F8A120 		strb	r2, [r3, #161]
1684:./Libraries/STM32H7xx_HAL_Driver/Src/stm32h7xx_hal_ltdc.c **** 
1685:./Libraries/STM32H7xx_HAL_Driver/Src/stm32h7xx_hal_ltdc.c ****   /* Process unlocked */
1686:./Libraries/STM32H7xx_HAL_Driver/Src/stm32h7xx_hal_ltdc.c ****   __HAL_UNLOCK(hltdc);
 3030              		.loc 1 1686 3 discriminator 2
 3031 0052 FB68     		ldr	r3, [r7, #12]
 3032 0054 0022     		movs	r2, #0
 3033 0056 83F8A020 		strb	r2, [r3, #160]
1687:./Libraries/STM32H7xx_HAL_Driver/Src/stm32h7xx_hal_ltdc.c **** 
1688:./Libraries/STM32H7xx_HAL_Driver/Src/stm32h7xx_hal_ltdc.c ****   return HAL_OK;
 3034              		.loc 1 1688 10 discriminator 2
 3035 005a 0023     		movs	r3, #0
 3036              	.L99:
1689:./Libraries/STM32H7xx_HAL_Driver/Src/stm32h7xx_hal_ltdc.c **** }
 3037              		.loc 1 1689 1
ARM GAS  /tmp/cc7azozz.s 			page 83


 3038 005c 1846     		mov	r0, r3
 3039 005e 1837     		adds	r7, r7, #24
 3040              	.LCFI159:
 3041              		.cfi_def_cfa_offset 8
 3042 0060 BD46     		mov	sp, r7
 3043              	.LCFI160:
 3044              		.cfi_def_cfa_register 13
 3045              		@ sp needed
 3046 0062 80BD     		pop	{r7, pc}
 3047              		.cfi_endproc
 3048              	.LFE359:
 3050              		.section	.text.HAL_LTDC_SetAlpha_NoReload,"ax",%progbits
 3051              		.align	1
 3052              		.global	HAL_LTDC_SetAlpha_NoReload
 3053              		.syntax unified
 3054              		.thumb
 3055              		.thumb_func
 3056              		.fpu fpv5-d16
 3058              	HAL_LTDC_SetAlpha_NoReload:
 3059              	.LFB360:
1690:./Libraries/STM32H7xx_HAL_Driver/Src/stm32h7xx_hal_ltdc.c **** 
1691:./Libraries/STM32H7xx_HAL_Driver/Src/stm32h7xx_hal_ltdc.c **** /**
1692:./Libraries/STM32H7xx_HAL_Driver/Src/stm32h7xx_hal_ltdc.c ****   * @brief  Reconfigure the layer alpha value without reloading.
1693:./Libraries/STM32H7xx_HAL_Driver/Src/stm32h7xx_hal_ltdc.c ****   *         Variant of the function HAL_LTDC_SetAlpha without immediate reload.
1694:./Libraries/STM32H7xx_HAL_Driver/Src/stm32h7xx_hal_ltdc.c ****   * @param  hltdc     pointer to a LTDC_HandleTypeDef structure that contains
1695:./Libraries/STM32H7xx_HAL_Driver/Src/stm32h7xx_hal_ltdc.c ****   *                   the configuration information for the LTDC.
1696:./Libraries/STM32H7xx_HAL_Driver/Src/stm32h7xx_hal_ltdc.c ****   * @param  Alpha     new alpha value.
1697:./Libraries/STM32H7xx_HAL_Driver/Src/stm32h7xx_hal_ltdc.c ****   * @param  LayerIdx  LTDC Layer index.
1698:./Libraries/STM32H7xx_HAL_Driver/Src/stm32h7xx_hal_ltdc.c ****   *                   This parameter can be one of the following values:
1699:./Libraries/STM32H7xx_HAL_Driver/Src/stm32h7xx_hal_ltdc.c ****   *                   LTDC_LAYER_1 (0) or LTDC_LAYER_2 (1)
1700:./Libraries/STM32H7xx_HAL_Driver/Src/stm32h7xx_hal_ltdc.c ****   * @retval  HAL status
1701:./Libraries/STM32H7xx_HAL_Driver/Src/stm32h7xx_hal_ltdc.c ****   */
1702:./Libraries/STM32H7xx_HAL_Driver/Src/stm32h7xx_hal_ltdc.c **** HAL_StatusTypeDef HAL_LTDC_SetAlpha_NoReload(LTDC_HandleTypeDef *hltdc, uint32_t Alpha, uint32_t La
1703:./Libraries/STM32H7xx_HAL_Driver/Src/stm32h7xx_hal_ltdc.c **** {
 3060              		.loc 1 1703 1
 3061              		.cfi_startproc
 3062              		@ args = 0, pretend = 0, frame = 24
 3063              		@ frame_needed = 1, uses_anonymous_args = 0
 3064 0000 80B5     		push	{r7, lr}
 3065              	.LCFI161:
 3066              		.cfi_def_cfa_offset 8
 3067              		.cfi_offset 7, -8
 3068              		.cfi_offset 14, -4
 3069 0002 86B0     		sub	sp, sp, #24
 3070              	.LCFI162:
 3071              		.cfi_def_cfa_offset 32
 3072 0004 00AF     		add	r7, sp, #0
 3073              	.LCFI163:
 3074              		.cfi_def_cfa_register 7
 3075 0006 F860     		str	r0, [r7, #12]
 3076 0008 B960     		str	r1, [r7, #8]
 3077 000a 7A60     		str	r2, [r7, #4]
1704:./Libraries/STM32H7xx_HAL_Driver/Src/stm32h7xx_hal_ltdc.c ****   LTDC_LayerCfgTypeDef *pLayerCfg;
1705:./Libraries/STM32H7xx_HAL_Driver/Src/stm32h7xx_hal_ltdc.c **** 
1706:./Libraries/STM32H7xx_HAL_Driver/Src/stm32h7xx_hal_ltdc.c ****   /* Check the parameters */
1707:./Libraries/STM32H7xx_HAL_Driver/Src/stm32h7xx_hal_ltdc.c ****   assert_param(IS_LTDC_ALPHA(Alpha));
1708:./Libraries/STM32H7xx_HAL_Driver/Src/stm32h7xx_hal_ltdc.c ****   assert_param(IS_LTDC_LAYER(LayerIdx));
ARM GAS  /tmp/cc7azozz.s 			page 84


1709:./Libraries/STM32H7xx_HAL_Driver/Src/stm32h7xx_hal_ltdc.c **** 
1710:./Libraries/STM32H7xx_HAL_Driver/Src/stm32h7xx_hal_ltdc.c ****   /* Process locked */
1711:./Libraries/STM32H7xx_HAL_Driver/Src/stm32h7xx_hal_ltdc.c ****   __HAL_LOCK(hltdc);
 3078              		.loc 1 1711 3
 3079 000c FB68     		ldr	r3, [r7, #12]
 3080 000e 93F8A030 		ldrb	r3, [r3, #160]	@ zero_extendqisi2
 3081 0012 012B     		cmp	r3, #1
 3082 0014 01D1     		bne	.L101
 3083              		.loc 1 1711 3 is_stmt 0 discriminator 1
 3084 0016 0223     		movs	r3, #2
 3085 0018 20E0     		b	.L102
 3086              	.L101:
 3087              		.loc 1 1711 3 discriminator 2
 3088 001a FB68     		ldr	r3, [r7, #12]
 3089 001c 0122     		movs	r2, #1
 3090 001e 83F8A020 		strb	r2, [r3, #160]
1712:./Libraries/STM32H7xx_HAL_Driver/Src/stm32h7xx_hal_ltdc.c **** 
1713:./Libraries/STM32H7xx_HAL_Driver/Src/stm32h7xx_hal_ltdc.c ****   /* Change LTDC peripheral state */
1714:./Libraries/STM32H7xx_HAL_Driver/Src/stm32h7xx_hal_ltdc.c ****   hltdc->State = HAL_LTDC_STATE_BUSY;
 3091              		.loc 1 1714 16 is_stmt 1 discriminator 2
 3092 0022 FB68     		ldr	r3, [r7, #12]
 3093 0024 0222     		movs	r2, #2
 3094 0026 83F8A120 		strb	r2, [r3, #161]
1715:./Libraries/STM32H7xx_HAL_Driver/Src/stm32h7xx_hal_ltdc.c **** 
1716:./Libraries/STM32H7xx_HAL_Driver/Src/stm32h7xx_hal_ltdc.c ****   /* Get layer configuration from handle structure */
1717:./Libraries/STM32H7xx_HAL_Driver/Src/stm32h7xx_hal_ltdc.c ****   pLayerCfg = &hltdc->LayerCfg[LayerIdx];
 3095              		.loc 1 1717 13 discriminator 2
 3096 002a 7B68     		ldr	r3, [r7, #4]
 3097 002c 3422     		movs	r2, #52
 3098 002e 02FB03F3 		mul	r3, r2, r3
 3099 0032 3833     		adds	r3, r3, #56
 3100 0034 FA68     		ldr	r2, [r7, #12]
 3101 0036 1344     		add	r3, r3, r2
 3102 0038 7B61     		str	r3, [r7, #20]
1718:./Libraries/STM32H7xx_HAL_Driver/Src/stm32h7xx_hal_ltdc.c **** 
1719:./Libraries/STM32H7xx_HAL_Driver/Src/stm32h7xx_hal_ltdc.c ****   /* Reconfigure the Alpha value */
1720:./Libraries/STM32H7xx_HAL_Driver/Src/stm32h7xx_hal_ltdc.c ****   pLayerCfg->Alpha = Alpha;
 3103              		.loc 1 1720 20 discriminator 2
 3104 003a 7B69     		ldr	r3, [r7, #20]
 3105 003c BA68     		ldr	r2, [r7, #8]
 3106 003e 5A61     		str	r2, [r3, #20]
1721:./Libraries/STM32H7xx_HAL_Driver/Src/stm32h7xx_hal_ltdc.c **** 
1722:./Libraries/STM32H7xx_HAL_Driver/Src/stm32h7xx_hal_ltdc.c ****   /* Set LTDC parameters */
1723:./Libraries/STM32H7xx_HAL_Driver/Src/stm32h7xx_hal_ltdc.c ****   LTDC_SetConfig(hltdc, pLayerCfg, LayerIdx);
 3107              		.loc 1 1723 3 discriminator 2
 3108 0040 7A68     		ldr	r2, [r7, #4]
 3109 0042 7969     		ldr	r1, [r7, #20]
 3110 0044 F868     		ldr	r0, [r7, #12]
 3111 0046 FFF7FEFF 		bl	LTDC_SetConfig
1724:./Libraries/STM32H7xx_HAL_Driver/Src/stm32h7xx_hal_ltdc.c **** 
1725:./Libraries/STM32H7xx_HAL_Driver/Src/stm32h7xx_hal_ltdc.c ****   /* Change the LTDC state*/
1726:./Libraries/STM32H7xx_HAL_Driver/Src/stm32h7xx_hal_ltdc.c ****   hltdc->State = HAL_LTDC_STATE_READY;
 3112              		.loc 1 1726 16 discriminator 2
 3113 004a FB68     		ldr	r3, [r7, #12]
 3114 004c 0122     		movs	r2, #1
 3115 004e 83F8A120 		strb	r2, [r3, #161]
1727:./Libraries/STM32H7xx_HAL_Driver/Src/stm32h7xx_hal_ltdc.c **** 
ARM GAS  /tmp/cc7azozz.s 			page 85


1728:./Libraries/STM32H7xx_HAL_Driver/Src/stm32h7xx_hal_ltdc.c ****   /* Process unlocked */
1729:./Libraries/STM32H7xx_HAL_Driver/Src/stm32h7xx_hal_ltdc.c ****   __HAL_UNLOCK(hltdc);
 3116              		.loc 1 1729 3 discriminator 2
 3117 0052 FB68     		ldr	r3, [r7, #12]
 3118 0054 0022     		movs	r2, #0
 3119 0056 83F8A020 		strb	r2, [r3, #160]
1730:./Libraries/STM32H7xx_HAL_Driver/Src/stm32h7xx_hal_ltdc.c **** 
1731:./Libraries/STM32H7xx_HAL_Driver/Src/stm32h7xx_hal_ltdc.c ****   return HAL_OK;
 3120              		.loc 1 1731 10 discriminator 2
 3121 005a 0023     		movs	r3, #0
 3122              	.L102:
1732:./Libraries/STM32H7xx_HAL_Driver/Src/stm32h7xx_hal_ltdc.c **** }
 3123              		.loc 1 1732 1
 3124 005c 1846     		mov	r0, r3
 3125 005e 1837     		adds	r7, r7, #24
 3126              	.LCFI164:
 3127              		.cfi_def_cfa_offset 8
 3128 0060 BD46     		mov	sp, r7
 3129              	.LCFI165:
 3130              		.cfi_def_cfa_register 13
 3131              		@ sp needed
 3132 0062 80BD     		pop	{r7, pc}
 3133              		.cfi_endproc
 3134              	.LFE360:
 3136              		.section	.text.HAL_LTDC_SetAddress_NoReload,"ax",%progbits
 3137              		.align	1
 3138              		.global	HAL_LTDC_SetAddress_NoReload
 3139              		.syntax unified
 3140              		.thumb
 3141              		.thumb_func
 3142              		.fpu fpv5-d16
 3144              	HAL_LTDC_SetAddress_NoReload:
 3145              	.LFB361:
1733:./Libraries/STM32H7xx_HAL_Driver/Src/stm32h7xx_hal_ltdc.c **** 
1734:./Libraries/STM32H7xx_HAL_Driver/Src/stm32h7xx_hal_ltdc.c **** /**
1735:./Libraries/STM32H7xx_HAL_Driver/Src/stm32h7xx_hal_ltdc.c ****   * @brief  Reconfigure the frame buffer Address without reloading.
1736:./Libraries/STM32H7xx_HAL_Driver/Src/stm32h7xx_hal_ltdc.c ****   *         Variant of the function HAL_LTDC_SetAddress without immediate reload.
1737:./Libraries/STM32H7xx_HAL_Driver/Src/stm32h7xx_hal_ltdc.c ****   * @param  hltdc     pointer to a LTDC_HandleTypeDef structure that contains
1738:./Libraries/STM32H7xx_HAL_Driver/Src/stm32h7xx_hal_ltdc.c ****   *                   the configuration information for the LTDC.
1739:./Libraries/STM32H7xx_HAL_Driver/Src/stm32h7xx_hal_ltdc.c ****   * @param  Address   new address value.
1740:./Libraries/STM32H7xx_HAL_Driver/Src/stm32h7xx_hal_ltdc.c ****   * @param  LayerIdx  LTDC Layer index.
1741:./Libraries/STM32H7xx_HAL_Driver/Src/stm32h7xx_hal_ltdc.c ****   *                   This parameter can be one of the following values:
1742:./Libraries/STM32H7xx_HAL_Driver/Src/stm32h7xx_hal_ltdc.c ****   *                   LTDC_LAYER_1 (0) or LTDC_LAYER_2 (1).
1743:./Libraries/STM32H7xx_HAL_Driver/Src/stm32h7xx_hal_ltdc.c ****   * @retval  HAL status
1744:./Libraries/STM32H7xx_HAL_Driver/Src/stm32h7xx_hal_ltdc.c ****   */
1745:./Libraries/STM32H7xx_HAL_Driver/Src/stm32h7xx_hal_ltdc.c **** HAL_StatusTypeDef HAL_LTDC_SetAddress_NoReload(LTDC_HandleTypeDef *hltdc, uint32_t Address, uint32_
1746:./Libraries/STM32H7xx_HAL_Driver/Src/stm32h7xx_hal_ltdc.c **** {
 3146              		.loc 1 1746 1
 3147              		.cfi_startproc
 3148              		@ args = 0, pretend = 0, frame = 24
 3149              		@ frame_needed = 1, uses_anonymous_args = 0
 3150 0000 80B5     		push	{r7, lr}
 3151              	.LCFI166:
 3152              		.cfi_def_cfa_offset 8
 3153              		.cfi_offset 7, -8
 3154              		.cfi_offset 14, -4
 3155 0002 86B0     		sub	sp, sp, #24
ARM GAS  /tmp/cc7azozz.s 			page 86


 3156              	.LCFI167:
 3157              		.cfi_def_cfa_offset 32
 3158 0004 00AF     		add	r7, sp, #0
 3159              	.LCFI168:
 3160              		.cfi_def_cfa_register 7
 3161 0006 F860     		str	r0, [r7, #12]
 3162 0008 B960     		str	r1, [r7, #8]
 3163 000a 7A60     		str	r2, [r7, #4]
1747:./Libraries/STM32H7xx_HAL_Driver/Src/stm32h7xx_hal_ltdc.c ****   LTDC_LayerCfgTypeDef *pLayerCfg;
1748:./Libraries/STM32H7xx_HAL_Driver/Src/stm32h7xx_hal_ltdc.c **** 
1749:./Libraries/STM32H7xx_HAL_Driver/Src/stm32h7xx_hal_ltdc.c ****   /* Check the parameters */
1750:./Libraries/STM32H7xx_HAL_Driver/Src/stm32h7xx_hal_ltdc.c ****   assert_param(IS_LTDC_LAYER(LayerIdx));
1751:./Libraries/STM32H7xx_HAL_Driver/Src/stm32h7xx_hal_ltdc.c **** 
1752:./Libraries/STM32H7xx_HAL_Driver/Src/stm32h7xx_hal_ltdc.c ****   /* Process locked */
1753:./Libraries/STM32H7xx_HAL_Driver/Src/stm32h7xx_hal_ltdc.c ****   __HAL_LOCK(hltdc);
 3164              		.loc 1 1753 3
 3165 000c FB68     		ldr	r3, [r7, #12]
 3166 000e 93F8A030 		ldrb	r3, [r3, #160]	@ zero_extendqisi2
 3167 0012 012B     		cmp	r3, #1
 3168 0014 01D1     		bne	.L104
 3169              		.loc 1 1753 3 is_stmt 0 discriminator 1
 3170 0016 0223     		movs	r3, #2
 3171 0018 20E0     		b	.L105
 3172              	.L104:
 3173              		.loc 1 1753 3 discriminator 2
 3174 001a FB68     		ldr	r3, [r7, #12]
 3175 001c 0122     		movs	r2, #1
 3176 001e 83F8A020 		strb	r2, [r3, #160]
1754:./Libraries/STM32H7xx_HAL_Driver/Src/stm32h7xx_hal_ltdc.c **** 
1755:./Libraries/STM32H7xx_HAL_Driver/Src/stm32h7xx_hal_ltdc.c ****   /* Change LTDC peripheral state */
1756:./Libraries/STM32H7xx_HAL_Driver/Src/stm32h7xx_hal_ltdc.c ****   hltdc->State = HAL_LTDC_STATE_BUSY;
 3177              		.loc 1 1756 16 is_stmt 1 discriminator 2
 3178 0022 FB68     		ldr	r3, [r7, #12]
 3179 0024 0222     		movs	r2, #2
 3180 0026 83F8A120 		strb	r2, [r3, #161]
1757:./Libraries/STM32H7xx_HAL_Driver/Src/stm32h7xx_hal_ltdc.c **** 
1758:./Libraries/STM32H7xx_HAL_Driver/Src/stm32h7xx_hal_ltdc.c ****   /* Get layer configuration from handle structure */
1759:./Libraries/STM32H7xx_HAL_Driver/Src/stm32h7xx_hal_ltdc.c ****   pLayerCfg = &hltdc->LayerCfg[LayerIdx];
 3181              		.loc 1 1759 13 discriminator 2
 3182 002a 7B68     		ldr	r3, [r7, #4]
 3183 002c 3422     		movs	r2, #52
 3184 002e 02FB03F3 		mul	r3, r2, r3
 3185 0032 3833     		adds	r3, r3, #56
 3186 0034 FA68     		ldr	r2, [r7, #12]
 3187 0036 1344     		add	r3, r3, r2
 3188 0038 7B61     		str	r3, [r7, #20]
1760:./Libraries/STM32H7xx_HAL_Driver/Src/stm32h7xx_hal_ltdc.c **** 
1761:./Libraries/STM32H7xx_HAL_Driver/Src/stm32h7xx_hal_ltdc.c ****   /* Reconfigure the Address */
1762:./Libraries/STM32H7xx_HAL_Driver/Src/stm32h7xx_hal_ltdc.c ****   pLayerCfg->FBStartAdress = Address;
 3189              		.loc 1 1762 28 discriminator 2
 3190 003a 7B69     		ldr	r3, [r7, #20]
 3191 003c BA68     		ldr	r2, [r7, #8]
 3192 003e 5A62     		str	r2, [r3, #36]
1763:./Libraries/STM32H7xx_HAL_Driver/Src/stm32h7xx_hal_ltdc.c **** 
1764:./Libraries/STM32H7xx_HAL_Driver/Src/stm32h7xx_hal_ltdc.c ****   /* Set LTDC parameters */
1765:./Libraries/STM32H7xx_HAL_Driver/Src/stm32h7xx_hal_ltdc.c ****   LTDC_SetConfig(hltdc, pLayerCfg, LayerIdx);
 3193              		.loc 1 1765 3 discriminator 2
ARM GAS  /tmp/cc7azozz.s 			page 87


 3194 0040 7A68     		ldr	r2, [r7, #4]
 3195 0042 7969     		ldr	r1, [r7, #20]
 3196 0044 F868     		ldr	r0, [r7, #12]
 3197 0046 FFF7FEFF 		bl	LTDC_SetConfig
1766:./Libraries/STM32H7xx_HAL_Driver/Src/stm32h7xx_hal_ltdc.c **** 
1767:./Libraries/STM32H7xx_HAL_Driver/Src/stm32h7xx_hal_ltdc.c ****   /* Change the LTDC state*/
1768:./Libraries/STM32H7xx_HAL_Driver/Src/stm32h7xx_hal_ltdc.c ****   hltdc->State = HAL_LTDC_STATE_READY;
 3198              		.loc 1 1768 16 discriminator 2
 3199 004a FB68     		ldr	r3, [r7, #12]
 3200 004c 0122     		movs	r2, #1
 3201 004e 83F8A120 		strb	r2, [r3, #161]
1769:./Libraries/STM32H7xx_HAL_Driver/Src/stm32h7xx_hal_ltdc.c **** 
1770:./Libraries/STM32H7xx_HAL_Driver/Src/stm32h7xx_hal_ltdc.c ****   /* Process unlocked */
1771:./Libraries/STM32H7xx_HAL_Driver/Src/stm32h7xx_hal_ltdc.c ****   __HAL_UNLOCK(hltdc);
 3202              		.loc 1 1771 3 discriminator 2
 3203 0052 FB68     		ldr	r3, [r7, #12]
 3204 0054 0022     		movs	r2, #0
 3205 0056 83F8A020 		strb	r2, [r3, #160]
1772:./Libraries/STM32H7xx_HAL_Driver/Src/stm32h7xx_hal_ltdc.c **** 
1773:./Libraries/STM32H7xx_HAL_Driver/Src/stm32h7xx_hal_ltdc.c ****   return HAL_OK;
 3206              		.loc 1 1773 10 discriminator 2
 3207 005a 0023     		movs	r3, #0
 3208              	.L105:
1774:./Libraries/STM32H7xx_HAL_Driver/Src/stm32h7xx_hal_ltdc.c **** }
 3209              		.loc 1 1774 1
 3210 005c 1846     		mov	r0, r3
 3211 005e 1837     		adds	r7, r7, #24
 3212              	.LCFI169:
 3213              		.cfi_def_cfa_offset 8
 3214 0060 BD46     		mov	sp, r7
 3215              	.LCFI170:
 3216              		.cfi_def_cfa_register 13
 3217              		@ sp needed
 3218 0062 80BD     		pop	{r7, pc}
 3219              		.cfi_endproc
 3220              	.LFE361:
 3222              		.section	.text.HAL_LTDC_SetPitch_NoReload,"ax",%progbits
 3223              		.align	1
 3224              		.global	HAL_LTDC_SetPitch_NoReload
 3225              		.syntax unified
 3226              		.thumb
 3227              		.thumb_func
 3228              		.fpu fpv5-d16
 3230              	HAL_LTDC_SetPitch_NoReload:
 3231              	.LFB362:
1775:./Libraries/STM32H7xx_HAL_Driver/Src/stm32h7xx_hal_ltdc.c **** 
1776:./Libraries/STM32H7xx_HAL_Driver/Src/stm32h7xx_hal_ltdc.c **** /**
1777:./Libraries/STM32H7xx_HAL_Driver/Src/stm32h7xx_hal_ltdc.c ****   * @brief  Function used to reconfigure the pitch for specific cases where the attached LayerIdx b
1778:./Libraries/STM32H7xx_HAL_Driver/Src/stm32h7xx_hal_ltdc.c ****   *         larger than the one intended to be displayed on screen. Example of a buffer 800x480 att
1779:./Libraries/STM32H7xx_HAL_Driver/Src/stm32h7xx_hal_ltdc.c ****   *         want to read and display on screen only a portion 320x240 taken in the center of the bu
1780:./Libraries/STM32H7xx_HAL_Driver/Src/stm32h7xx_hal_ltdc.c ****   *         will be in that case 800 pixels and not 320 pixels as initially configured by previous 
1781:./Libraries/STM32H7xx_HAL_Driver/Src/stm32h7xx_hal_ltdc.c ****   * @note   This function should be called only after a previous call to HAL_LTDC_ConfigLayer() to 
1782:./Libraries/STM32H7xx_HAL_Driver/Src/stm32h7xx_hal_ltdc.c ****   *         configured by HAL_LTDC_ConfigLayer() when required (refer to example described just abo
1783:./Libraries/STM32H7xx_HAL_Driver/Src/stm32h7xx_hal_ltdc.c ****   *         Variant of the function HAL_LTDC_SetPitch without immediate reload.
1784:./Libraries/STM32H7xx_HAL_Driver/Src/stm32h7xx_hal_ltdc.c ****   * @param  hltdc              pointer to a LTDC_HandleTypeDef structure that contains
1785:./Libraries/STM32H7xx_HAL_Driver/Src/stm32h7xx_hal_ltdc.c ****   *                            the configuration information for the LTDC.
1786:./Libraries/STM32H7xx_HAL_Driver/Src/stm32h7xx_hal_ltdc.c ****   * @param  LinePitchInPixels  New line pitch in pixels to configure for LTDC layer 'LayerIdx'.
ARM GAS  /tmp/cc7azozz.s 			page 88


1787:./Libraries/STM32H7xx_HAL_Driver/Src/stm32h7xx_hal_ltdc.c ****   * @param  LayerIdx           LTDC layer index concerned by the modification of line pitch.
1788:./Libraries/STM32H7xx_HAL_Driver/Src/stm32h7xx_hal_ltdc.c ****   * @retval HAL status
1789:./Libraries/STM32H7xx_HAL_Driver/Src/stm32h7xx_hal_ltdc.c ****   */
1790:./Libraries/STM32H7xx_HAL_Driver/Src/stm32h7xx_hal_ltdc.c **** HAL_StatusTypeDef HAL_LTDC_SetPitch_NoReload(LTDC_HandleTypeDef *hltdc, uint32_t LinePitchInPixels,
1791:./Libraries/STM32H7xx_HAL_Driver/Src/stm32h7xx_hal_ltdc.c **** {
 3232              		.loc 1 1791 1
 3233              		.cfi_startproc
 3234              		@ args = 0, pretend = 0, frame = 32
 3235              		@ frame_needed = 1, uses_anonymous_args = 0
 3236              		@ link register save eliminated.
 3237 0000 80B4     		push	{r7}
 3238              	.LCFI171:
 3239              		.cfi_def_cfa_offset 4
 3240              		.cfi_offset 7, -4
 3241 0002 89B0     		sub	sp, sp, #36
 3242              	.LCFI172:
 3243              		.cfi_def_cfa_offset 40
 3244 0004 00AF     		add	r7, sp, #0
 3245              	.LCFI173:
 3246              		.cfi_def_cfa_register 7
 3247 0006 F860     		str	r0, [r7, #12]
 3248 0008 B960     		str	r1, [r7, #8]
 3249 000a 7A60     		str	r2, [r7, #4]
1792:./Libraries/STM32H7xx_HAL_Driver/Src/stm32h7xx_hal_ltdc.c ****   uint32_t tmp;
1793:./Libraries/STM32H7xx_HAL_Driver/Src/stm32h7xx_hal_ltdc.c ****   uint32_t pitchUpdate;
1794:./Libraries/STM32H7xx_HAL_Driver/Src/stm32h7xx_hal_ltdc.c ****   uint32_t pixelFormat;
1795:./Libraries/STM32H7xx_HAL_Driver/Src/stm32h7xx_hal_ltdc.c **** 
1796:./Libraries/STM32H7xx_HAL_Driver/Src/stm32h7xx_hal_ltdc.c ****   /* Check the parameters */
1797:./Libraries/STM32H7xx_HAL_Driver/Src/stm32h7xx_hal_ltdc.c ****   assert_param(IS_LTDC_LAYER(LayerIdx));
1798:./Libraries/STM32H7xx_HAL_Driver/Src/stm32h7xx_hal_ltdc.c **** 
1799:./Libraries/STM32H7xx_HAL_Driver/Src/stm32h7xx_hal_ltdc.c ****   /* Process locked */
1800:./Libraries/STM32H7xx_HAL_Driver/Src/stm32h7xx_hal_ltdc.c ****   __HAL_LOCK(hltdc);
 3250              		.loc 1 1800 3
 3251 000c FB68     		ldr	r3, [r7, #12]
 3252 000e 93F8A030 		ldrb	r3, [r3, #160]	@ zero_extendqisi2
 3253 0012 012B     		cmp	r3, #1
 3254 0014 01D1     		bne	.L107
 3255              		.loc 1 1800 3 is_stmt 0 discriminator 1
 3256 0016 0223     		movs	r3, #2
 3257 0018 62E0     		b	.L108
 3258              	.L107:
 3259              		.loc 1 1800 3 discriminator 2
 3260 001a FB68     		ldr	r3, [r7, #12]
 3261 001c 0122     		movs	r2, #1
 3262 001e 83F8A020 		strb	r2, [r3, #160]
1801:./Libraries/STM32H7xx_HAL_Driver/Src/stm32h7xx_hal_ltdc.c **** 
1802:./Libraries/STM32H7xx_HAL_Driver/Src/stm32h7xx_hal_ltdc.c ****   /* Change LTDC peripheral state */
1803:./Libraries/STM32H7xx_HAL_Driver/Src/stm32h7xx_hal_ltdc.c ****   hltdc->State = HAL_LTDC_STATE_BUSY;
 3263              		.loc 1 1803 16 is_stmt 1 discriminator 2
 3264 0022 FB68     		ldr	r3, [r7, #12]
 3265 0024 0222     		movs	r2, #2
 3266 0026 83F8A120 		strb	r2, [r3, #161]
1804:./Libraries/STM32H7xx_HAL_Driver/Src/stm32h7xx_hal_ltdc.c **** 
1805:./Libraries/STM32H7xx_HAL_Driver/Src/stm32h7xx_hal_ltdc.c ****   /* get LayerIdx used pixel format */
1806:./Libraries/STM32H7xx_HAL_Driver/Src/stm32h7xx_hal_ltdc.c ****   pixelFormat = hltdc->LayerCfg[LayerIdx].PixelFormat;
 3267              		.loc 1 1806 15 discriminator 2
 3268 002a FA68     		ldr	r2, [r7, #12]
ARM GAS  /tmp/cc7azozz.s 			page 89


 3269 002c 7B68     		ldr	r3, [r7, #4]
 3270 002e 3421     		movs	r1, #52
 3271 0030 01FB03F3 		mul	r3, r1, r3
 3272 0034 1344     		add	r3, r3, r2
 3273 0036 4833     		adds	r3, r3, #72
 3274 0038 1B68     		ldr	r3, [r3]
 3275 003a BB61     		str	r3, [r7, #24]
1807:./Libraries/STM32H7xx_HAL_Driver/Src/stm32h7xx_hal_ltdc.c **** 
1808:./Libraries/STM32H7xx_HAL_Driver/Src/stm32h7xx_hal_ltdc.c ****   if (pixelFormat == LTDC_PIXEL_FORMAT_ARGB8888)
 3276              		.loc 1 1808 6 discriminator 2
 3277 003c BB69     		ldr	r3, [r7, #24]
 3278 003e 002B     		cmp	r3, #0
 3279 0040 02D1     		bne	.L109
1809:./Libraries/STM32H7xx_HAL_Driver/Src/stm32h7xx_hal_ltdc.c ****   {
1810:./Libraries/STM32H7xx_HAL_Driver/Src/stm32h7xx_hal_ltdc.c ****     tmp = 4U;
 3280              		.loc 1 1810 9
 3281 0042 0423     		movs	r3, #4
 3282 0044 FB61     		str	r3, [r7, #28]
 3283 0046 16E0     		b	.L110
 3284              	.L109:
1811:./Libraries/STM32H7xx_HAL_Driver/Src/stm32h7xx_hal_ltdc.c ****   }
1812:./Libraries/STM32H7xx_HAL_Driver/Src/stm32h7xx_hal_ltdc.c ****   else if (pixelFormat == LTDC_PIXEL_FORMAT_RGB888)
 3285              		.loc 1 1812 11
 3286 0048 BB69     		ldr	r3, [r7, #24]
 3287 004a 012B     		cmp	r3, #1
 3288 004c 02D1     		bne	.L111
1813:./Libraries/STM32H7xx_HAL_Driver/Src/stm32h7xx_hal_ltdc.c ****   {
1814:./Libraries/STM32H7xx_HAL_Driver/Src/stm32h7xx_hal_ltdc.c ****     tmp = 3U;
 3289              		.loc 1 1814 9
 3290 004e 0323     		movs	r3, #3
 3291 0050 FB61     		str	r3, [r7, #28]
 3292 0052 10E0     		b	.L110
 3293              	.L111:
1815:./Libraries/STM32H7xx_HAL_Driver/Src/stm32h7xx_hal_ltdc.c ****   }
1816:./Libraries/STM32H7xx_HAL_Driver/Src/stm32h7xx_hal_ltdc.c ****   else if ((pixelFormat == LTDC_PIXEL_FORMAT_ARGB4444) || \
 3294              		.loc 1 1816 11
 3295 0054 BB69     		ldr	r3, [r7, #24]
 3296 0056 042B     		cmp	r3, #4
 3297 0058 08D0     		beq	.L112
 3298              		.loc 1 1816 56 discriminator 1
 3299 005a BB69     		ldr	r3, [r7, #24]
 3300 005c 022B     		cmp	r3, #2
 3301 005e 05D0     		beq	.L112
1817:./Libraries/STM32H7xx_HAL_Driver/Src/stm32h7xx_hal_ltdc.c ****            (pixelFormat == LTDC_PIXEL_FORMAT_RGB565)   || \
 3302              		.loc 1 1817 56
 3303 0060 BB69     		ldr	r3, [r7, #24]
 3304 0062 032B     		cmp	r3, #3
 3305 0064 02D0     		beq	.L112
1818:./Libraries/STM32H7xx_HAL_Driver/Src/stm32h7xx_hal_ltdc.c ****            (pixelFormat == LTDC_PIXEL_FORMAT_ARGB1555) || \
 3306              		.loc 1 1818 56
 3307 0066 BB69     		ldr	r3, [r7, #24]
 3308 0068 072B     		cmp	r3, #7
 3309 006a 02D1     		bne	.L113
 3310              	.L112:
1819:./Libraries/STM32H7xx_HAL_Driver/Src/stm32h7xx_hal_ltdc.c ****            (pixelFormat == LTDC_PIXEL_FORMAT_AL88))
1820:./Libraries/STM32H7xx_HAL_Driver/Src/stm32h7xx_hal_ltdc.c ****   {
1821:./Libraries/STM32H7xx_HAL_Driver/Src/stm32h7xx_hal_ltdc.c ****     tmp = 2U;
ARM GAS  /tmp/cc7azozz.s 			page 90


 3311              		.loc 1 1821 9
 3312 006c 0223     		movs	r3, #2
 3313 006e FB61     		str	r3, [r7, #28]
 3314 0070 01E0     		b	.L110
 3315              	.L113:
1822:./Libraries/STM32H7xx_HAL_Driver/Src/stm32h7xx_hal_ltdc.c ****   }
1823:./Libraries/STM32H7xx_HAL_Driver/Src/stm32h7xx_hal_ltdc.c ****   else
1824:./Libraries/STM32H7xx_HAL_Driver/Src/stm32h7xx_hal_ltdc.c ****   {
1825:./Libraries/STM32H7xx_HAL_Driver/Src/stm32h7xx_hal_ltdc.c ****     tmp = 1U;
 3316              		.loc 1 1825 9
 3317 0072 0123     		movs	r3, #1
 3318 0074 FB61     		str	r3, [r7, #28]
 3319              	.L110:
1826:./Libraries/STM32H7xx_HAL_Driver/Src/stm32h7xx_hal_ltdc.c ****   }
1827:./Libraries/STM32H7xx_HAL_Driver/Src/stm32h7xx_hal_ltdc.c **** 
1828:./Libraries/STM32H7xx_HAL_Driver/Src/stm32h7xx_hal_ltdc.c ****   pitchUpdate = ((LinePitchInPixels * tmp) << 16U);
 3320              		.loc 1 1828 37
 3321 0076 BB68     		ldr	r3, [r7, #8]
 3322 0078 FA69     		ldr	r2, [r7, #28]
 3323 007a 02FB03F3 		mul	r3, r2, r3
 3324              		.loc 1 1828 15
 3325 007e 1B04     		lsls	r3, r3, #16
 3326 0080 7B61     		str	r3, [r7, #20]
1829:./Libraries/STM32H7xx_HAL_Driver/Src/stm32h7xx_hal_ltdc.c **** 
1830:./Libraries/STM32H7xx_HAL_Driver/Src/stm32h7xx_hal_ltdc.c ****   /* Clear previously set standard pitch */
1831:./Libraries/STM32H7xx_HAL_Driver/Src/stm32h7xx_hal_ltdc.c ****   LTDC_LAYER(hltdc, LayerIdx)->CFBLR &= ~LTDC_LxCFBLR_CFBP;
 3327              		.loc 1 1831 3
 3328 0082 FB68     		ldr	r3, [r7, #12]
 3329 0084 1B68     		ldr	r3, [r3]
 3330              		.loc 1 1831 38
 3331 0086 1A46     		mov	r2, r3
 3332 0088 7B68     		ldr	r3, [r7, #4]
 3333 008a DB01     		lsls	r3, r3, #7
 3334 008c 1344     		add	r3, r3, r2
 3335 008e 8433     		adds	r3, r3, #132
 3336 0090 DA6A     		ldr	r2, [r3, #44]
 3337              		.loc 1 1831 3
 3338 0092 FB68     		ldr	r3, [r7, #12]
 3339 0094 1B68     		ldr	r3, [r3]
 3340              		.loc 1 1831 38
 3341 0096 1946     		mov	r1, r3
 3342 0098 7B68     		ldr	r3, [r7, #4]
 3343 009a DB01     		lsls	r3, r3, #7
 3344 009c 0B44     		add	r3, r3, r1
 3345 009e 8433     		adds	r3, r3, #132
 3346 00a0 1946     		mov	r1, r3
 3347 00a2 124B     		ldr	r3, .L114
 3348 00a4 1340     		ands	r3, r3, r2
 3349 00a6 CB62     		str	r3, [r1, #44]
1832:./Libraries/STM32H7xx_HAL_Driver/Src/stm32h7xx_hal_ltdc.c **** 
1833:./Libraries/STM32H7xx_HAL_Driver/Src/stm32h7xx_hal_ltdc.c ****   /* Set new line pitch value */
1834:./Libraries/STM32H7xx_HAL_Driver/Src/stm32h7xx_hal_ltdc.c ****   LTDC_LAYER(hltdc, LayerIdx)->CFBLR |= pitchUpdate;
 3350              		.loc 1 1834 3
 3351 00a8 FB68     		ldr	r3, [r7, #12]
 3352 00aa 1B68     		ldr	r3, [r3]
 3353              		.loc 1 1834 38
 3354 00ac 1A46     		mov	r2, r3
ARM GAS  /tmp/cc7azozz.s 			page 91


 3355 00ae 7B68     		ldr	r3, [r7, #4]
 3356 00b0 DB01     		lsls	r3, r3, #7
 3357 00b2 1344     		add	r3, r3, r2
 3358 00b4 8433     		adds	r3, r3, #132
 3359 00b6 DA6A     		ldr	r2, [r3, #44]
 3360              		.loc 1 1834 3
 3361 00b8 FB68     		ldr	r3, [r7, #12]
 3362 00ba 1B68     		ldr	r3, [r3]
 3363              		.loc 1 1834 38
 3364 00bc 1946     		mov	r1, r3
 3365 00be 7B68     		ldr	r3, [r7, #4]
 3366 00c0 DB01     		lsls	r3, r3, #7
 3367 00c2 0B44     		add	r3, r3, r1
 3368 00c4 8433     		adds	r3, r3, #132
 3369 00c6 1946     		mov	r1, r3
 3370 00c8 7B69     		ldr	r3, [r7, #20]
 3371 00ca 1343     		orrs	r3, r3, r2
 3372 00cc CB62     		str	r3, [r1, #44]
1835:./Libraries/STM32H7xx_HAL_Driver/Src/stm32h7xx_hal_ltdc.c **** 
1836:./Libraries/STM32H7xx_HAL_Driver/Src/stm32h7xx_hal_ltdc.c ****   /* Change the LTDC state*/
1837:./Libraries/STM32H7xx_HAL_Driver/Src/stm32h7xx_hal_ltdc.c ****   hltdc->State = HAL_LTDC_STATE_READY;
 3373              		.loc 1 1837 16
 3374 00ce FB68     		ldr	r3, [r7, #12]
 3375 00d0 0122     		movs	r2, #1
 3376 00d2 83F8A120 		strb	r2, [r3, #161]
1838:./Libraries/STM32H7xx_HAL_Driver/Src/stm32h7xx_hal_ltdc.c **** 
1839:./Libraries/STM32H7xx_HAL_Driver/Src/stm32h7xx_hal_ltdc.c ****   /* Process unlocked */
1840:./Libraries/STM32H7xx_HAL_Driver/Src/stm32h7xx_hal_ltdc.c ****   __HAL_UNLOCK(hltdc);
 3377              		.loc 1 1840 3
 3378 00d6 FB68     		ldr	r3, [r7, #12]
 3379 00d8 0022     		movs	r2, #0
 3380 00da 83F8A020 		strb	r2, [r3, #160]
1841:./Libraries/STM32H7xx_HAL_Driver/Src/stm32h7xx_hal_ltdc.c **** 
1842:./Libraries/STM32H7xx_HAL_Driver/Src/stm32h7xx_hal_ltdc.c ****   return HAL_OK;
 3381              		.loc 1 1842 10
 3382 00de 0023     		movs	r3, #0
 3383              	.L108:
1843:./Libraries/STM32H7xx_HAL_Driver/Src/stm32h7xx_hal_ltdc.c **** }
 3384              		.loc 1 1843 1
 3385 00e0 1846     		mov	r0, r3
 3386 00e2 2437     		adds	r7, r7, #36
 3387              	.LCFI174:
 3388              		.cfi_def_cfa_offset 4
 3389 00e4 BD46     		mov	sp, r7
 3390              	.LCFI175:
 3391              		.cfi_def_cfa_register 13
 3392              		@ sp needed
 3393 00e6 5DF8047B 		ldr	r7, [sp], #4
 3394              	.LCFI176:
 3395              		.cfi_restore 7
 3396              		.cfi_def_cfa_offset 0
 3397 00ea 7047     		bx	lr
 3398              	.L115:
 3399              		.align	2
 3400              	.L114:
 3401 00ec FFFF00E0 		.word	-536805377
 3402              		.cfi_endproc
ARM GAS  /tmp/cc7azozz.s 			page 92


 3403              	.LFE362:
 3405              		.section	.text.HAL_LTDC_ConfigColorKeying_NoReload,"ax",%progbits
 3406              		.align	1
 3407              		.global	HAL_LTDC_ConfigColorKeying_NoReload
 3408              		.syntax unified
 3409              		.thumb
 3410              		.thumb_func
 3411              		.fpu fpv5-d16
 3413              	HAL_LTDC_ConfigColorKeying_NoReload:
 3414              	.LFB363:
1844:./Libraries/STM32H7xx_HAL_Driver/Src/stm32h7xx_hal_ltdc.c **** 
1845:./Libraries/STM32H7xx_HAL_Driver/Src/stm32h7xx_hal_ltdc.c **** 
1846:./Libraries/STM32H7xx_HAL_Driver/Src/stm32h7xx_hal_ltdc.c **** /**
1847:./Libraries/STM32H7xx_HAL_Driver/Src/stm32h7xx_hal_ltdc.c ****   * @brief  Configure the color keying without reloading.
1848:./Libraries/STM32H7xx_HAL_Driver/Src/stm32h7xx_hal_ltdc.c ****   *         Variant of the function HAL_LTDC_ConfigColorKeying without immediate reload.
1849:./Libraries/STM32H7xx_HAL_Driver/Src/stm32h7xx_hal_ltdc.c ****   * @param  hltdc     pointer to a LTDC_HandleTypeDef structure that contains
1850:./Libraries/STM32H7xx_HAL_Driver/Src/stm32h7xx_hal_ltdc.c ****   *                   the configuration information for the LTDC.
1851:./Libraries/STM32H7xx_HAL_Driver/Src/stm32h7xx_hal_ltdc.c ****   * @param  RGBValue the color key value
1852:./Libraries/STM32H7xx_HAL_Driver/Src/stm32h7xx_hal_ltdc.c ****   * @param  LayerIdx  LTDC Layer index.
1853:./Libraries/STM32H7xx_HAL_Driver/Src/stm32h7xx_hal_ltdc.c ****   *                   This parameter can be one of the following values:
1854:./Libraries/STM32H7xx_HAL_Driver/Src/stm32h7xx_hal_ltdc.c ****   *                   LTDC_LAYER_1 (0) or LTDC_LAYER_2 (1)
1855:./Libraries/STM32H7xx_HAL_Driver/Src/stm32h7xx_hal_ltdc.c ****   * @retval HAL status
1856:./Libraries/STM32H7xx_HAL_Driver/Src/stm32h7xx_hal_ltdc.c ****   */
1857:./Libraries/STM32H7xx_HAL_Driver/Src/stm32h7xx_hal_ltdc.c **** HAL_StatusTypeDef HAL_LTDC_ConfigColorKeying_NoReload(LTDC_HandleTypeDef *hltdc, uint32_t RGBValue,
1858:./Libraries/STM32H7xx_HAL_Driver/Src/stm32h7xx_hal_ltdc.c **** {
 3415              		.loc 1 1858 1
 3416              		.cfi_startproc
 3417              		@ args = 0, pretend = 0, frame = 16
 3418              		@ frame_needed = 1, uses_anonymous_args = 0
 3419              		@ link register save eliminated.
 3420 0000 80B4     		push	{r7}
 3421              	.LCFI177:
 3422              		.cfi_def_cfa_offset 4
 3423              		.cfi_offset 7, -4
 3424 0002 85B0     		sub	sp, sp, #20
 3425              	.LCFI178:
 3426              		.cfi_def_cfa_offset 24
 3427 0004 00AF     		add	r7, sp, #0
 3428              	.LCFI179:
 3429              		.cfi_def_cfa_register 7
 3430 0006 F860     		str	r0, [r7, #12]
 3431 0008 B960     		str	r1, [r7, #8]
 3432 000a 7A60     		str	r2, [r7, #4]
1859:./Libraries/STM32H7xx_HAL_Driver/Src/stm32h7xx_hal_ltdc.c ****   /* Check the parameters */
1860:./Libraries/STM32H7xx_HAL_Driver/Src/stm32h7xx_hal_ltdc.c ****   assert_param(IS_LTDC_LAYER(LayerIdx));
1861:./Libraries/STM32H7xx_HAL_Driver/Src/stm32h7xx_hal_ltdc.c **** 
1862:./Libraries/STM32H7xx_HAL_Driver/Src/stm32h7xx_hal_ltdc.c ****   /* Process locked */
1863:./Libraries/STM32H7xx_HAL_Driver/Src/stm32h7xx_hal_ltdc.c ****   __HAL_LOCK(hltdc);
 3433              		.loc 1 1863 3
 3434 000c FB68     		ldr	r3, [r7, #12]
 3435 000e 93F8A030 		ldrb	r3, [r3, #160]	@ zero_extendqisi2
 3436 0012 012B     		cmp	r3, #1
 3437 0014 01D1     		bne	.L117
 3438              		.loc 1 1863 3 is_stmt 0 discriminator 1
 3439 0016 0223     		movs	r3, #2
 3440 0018 2CE0     		b	.L118
 3441              	.L117:
ARM GAS  /tmp/cc7azozz.s 			page 93


 3442              		.loc 1 1863 3 discriminator 2
 3443 001a FB68     		ldr	r3, [r7, #12]
 3444 001c 0122     		movs	r2, #1
 3445 001e 83F8A020 		strb	r2, [r3, #160]
1864:./Libraries/STM32H7xx_HAL_Driver/Src/stm32h7xx_hal_ltdc.c **** 
1865:./Libraries/STM32H7xx_HAL_Driver/Src/stm32h7xx_hal_ltdc.c ****   /* Change LTDC peripheral state */
1866:./Libraries/STM32H7xx_HAL_Driver/Src/stm32h7xx_hal_ltdc.c ****   hltdc->State = HAL_LTDC_STATE_BUSY;
 3446              		.loc 1 1866 16 is_stmt 1 discriminator 2
 3447 0022 FB68     		ldr	r3, [r7, #12]
 3448 0024 0222     		movs	r2, #2
 3449 0026 83F8A120 		strb	r2, [r3, #161]
1867:./Libraries/STM32H7xx_HAL_Driver/Src/stm32h7xx_hal_ltdc.c **** 
1868:./Libraries/STM32H7xx_HAL_Driver/Src/stm32h7xx_hal_ltdc.c ****   /* Configure the default color values */
1869:./Libraries/STM32H7xx_HAL_Driver/Src/stm32h7xx_hal_ltdc.c ****   LTDC_LAYER(hltdc, LayerIdx)->CKCR &=  ~(LTDC_LxCKCR_CKBLUE | LTDC_LxCKCR_CKGREEN | LTDC_LxCKCR_CK
 3450              		.loc 1 1869 3 discriminator 2
 3451 002a FB68     		ldr	r3, [r7, #12]
 3452 002c 1B68     		ldr	r3, [r3]
 3453              		.loc 1 1869 37 discriminator 2
 3454 002e 1A46     		mov	r2, r3
 3455 0030 7B68     		ldr	r3, [r7, #4]
 3456 0032 DB01     		lsls	r3, r3, #7
 3457 0034 1344     		add	r3, r3, r2
 3458 0036 8433     		adds	r3, r3, #132
 3459 0038 DB68     		ldr	r3, [r3, #12]
 3460              		.loc 1 1869 3 discriminator 2
 3461 003a FA68     		ldr	r2, [r7, #12]
 3462 003c 1268     		ldr	r2, [r2]
 3463              		.loc 1 1869 37 discriminator 2
 3464 003e 1146     		mov	r1, r2
 3465 0040 7A68     		ldr	r2, [r7, #4]
 3466 0042 D201     		lsls	r2, r2, #7
 3467 0044 0A44     		add	r2, r2, r1
 3468 0046 8432     		adds	r2, r2, #132
 3469 0048 03F07F43 		and	r3, r3, #-16777216
 3470 004c D360     		str	r3, [r2, #12]
1870:./Libraries/STM32H7xx_HAL_Driver/Src/stm32h7xx_hal_ltdc.c ****   LTDC_LAYER(hltdc, LayerIdx)->CKCR  = RGBValue;
 3471              		.loc 1 1870 3 discriminator 2
 3472 004e FB68     		ldr	r3, [r7, #12]
 3473 0050 1B68     		ldr	r3, [r3]
 3474 0052 1A46     		mov	r2, r3
 3475 0054 7B68     		ldr	r3, [r7, #4]
 3476 0056 DB01     		lsls	r3, r3, #7
 3477 0058 1344     		add	r3, r3, r2
 3478 005a 8433     		adds	r3, r3, #132
 3479 005c 1A46     		mov	r2, r3
 3480              		.loc 1 1870 38 discriminator 2
 3481 005e BB68     		ldr	r3, [r7, #8]
 3482 0060 D360     		str	r3, [r2, #12]
1871:./Libraries/STM32H7xx_HAL_Driver/Src/stm32h7xx_hal_ltdc.c **** 
1872:./Libraries/STM32H7xx_HAL_Driver/Src/stm32h7xx_hal_ltdc.c ****   /* Change the LTDC state*/
1873:./Libraries/STM32H7xx_HAL_Driver/Src/stm32h7xx_hal_ltdc.c ****   hltdc->State = HAL_LTDC_STATE_READY;
 3483              		.loc 1 1873 16 discriminator 2
 3484 0062 FB68     		ldr	r3, [r7, #12]
 3485 0064 0122     		movs	r2, #1
 3486 0066 83F8A120 		strb	r2, [r3, #161]
1874:./Libraries/STM32H7xx_HAL_Driver/Src/stm32h7xx_hal_ltdc.c **** 
1875:./Libraries/STM32H7xx_HAL_Driver/Src/stm32h7xx_hal_ltdc.c ****   /* Process unlocked */
ARM GAS  /tmp/cc7azozz.s 			page 94


1876:./Libraries/STM32H7xx_HAL_Driver/Src/stm32h7xx_hal_ltdc.c ****   __HAL_UNLOCK(hltdc);
 3487              		.loc 1 1876 3 discriminator 2
 3488 006a FB68     		ldr	r3, [r7, #12]
 3489 006c 0022     		movs	r2, #0
 3490 006e 83F8A020 		strb	r2, [r3, #160]
1877:./Libraries/STM32H7xx_HAL_Driver/Src/stm32h7xx_hal_ltdc.c **** 
1878:./Libraries/STM32H7xx_HAL_Driver/Src/stm32h7xx_hal_ltdc.c ****   return HAL_OK;
 3491              		.loc 1 1878 10 discriminator 2
 3492 0072 0023     		movs	r3, #0
 3493              	.L118:
1879:./Libraries/STM32H7xx_HAL_Driver/Src/stm32h7xx_hal_ltdc.c **** }
 3494              		.loc 1 1879 1
 3495 0074 1846     		mov	r0, r3
 3496 0076 1437     		adds	r7, r7, #20
 3497              	.LCFI180:
 3498              		.cfi_def_cfa_offset 4
 3499 0078 BD46     		mov	sp, r7
 3500              	.LCFI181:
 3501              		.cfi_def_cfa_register 13
 3502              		@ sp needed
 3503 007a 5DF8047B 		ldr	r7, [sp], #4
 3504              	.LCFI182:
 3505              		.cfi_restore 7
 3506              		.cfi_def_cfa_offset 0
 3507 007e 7047     		bx	lr
 3508              		.cfi_endproc
 3509              	.LFE363:
 3511              		.section	.text.HAL_LTDC_EnableColorKeying_NoReload,"ax",%progbits
 3512              		.align	1
 3513              		.global	HAL_LTDC_EnableColorKeying_NoReload
 3514              		.syntax unified
 3515              		.thumb
 3516              		.thumb_func
 3517              		.fpu fpv5-d16
 3519              	HAL_LTDC_EnableColorKeying_NoReload:
 3520              	.LFB364:
1880:./Libraries/STM32H7xx_HAL_Driver/Src/stm32h7xx_hal_ltdc.c **** 
1881:./Libraries/STM32H7xx_HAL_Driver/Src/stm32h7xx_hal_ltdc.c **** /**
1882:./Libraries/STM32H7xx_HAL_Driver/Src/stm32h7xx_hal_ltdc.c ****   * @brief  Enable the color keying without reloading.
1883:./Libraries/STM32H7xx_HAL_Driver/Src/stm32h7xx_hal_ltdc.c ****   *         Variant of the function HAL_LTDC_EnableColorKeying without immediate reload.
1884:./Libraries/STM32H7xx_HAL_Driver/Src/stm32h7xx_hal_ltdc.c ****   * @param  hltdc     pointer to a LTDC_HandleTypeDef structure that contains
1885:./Libraries/STM32H7xx_HAL_Driver/Src/stm32h7xx_hal_ltdc.c ****   *                   the configuration information for the LTDC.
1886:./Libraries/STM32H7xx_HAL_Driver/Src/stm32h7xx_hal_ltdc.c ****   * @param  LayerIdx  LTDC Layer index.
1887:./Libraries/STM32H7xx_HAL_Driver/Src/stm32h7xx_hal_ltdc.c ****   *                   This parameter can be one of the following values:
1888:./Libraries/STM32H7xx_HAL_Driver/Src/stm32h7xx_hal_ltdc.c ****   *                   LTDC_LAYER_1 (0) or LTDC_LAYER_2 (1)
1889:./Libraries/STM32H7xx_HAL_Driver/Src/stm32h7xx_hal_ltdc.c ****   * @retval  HAL status
1890:./Libraries/STM32H7xx_HAL_Driver/Src/stm32h7xx_hal_ltdc.c ****   */
1891:./Libraries/STM32H7xx_HAL_Driver/Src/stm32h7xx_hal_ltdc.c **** HAL_StatusTypeDef HAL_LTDC_EnableColorKeying_NoReload(LTDC_HandleTypeDef *hltdc, uint32_t LayerIdx)
1892:./Libraries/STM32H7xx_HAL_Driver/Src/stm32h7xx_hal_ltdc.c **** {
 3521              		.loc 1 1892 1
 3522              		.cfi_startproc
 3523              		@ args = 0, pretend = 0, frame = 8
 3524              		@ frame_needed = 1, uses_anonymous_args = 0
 3525              		@ link register save eliminated.
 3526 0000 80B4     		push	{r7}
 3527              	.LCFI183:
 3528              		.cfi_def_cfa_offset 4
ARM GAS  /tmp/cc7azozz.s 			page 95


 3529              		.cfi_offset 7, -4
 3530 0002 83B0     		sub	sp, sp, #12
 3531              	.LCFI184:
 3532              		.cfi_def_cfa_offset 16
 3533 0004 00AF     		add	r7, sp, #0
 3534              	.LCFI185:
 3535              		.cfi_def_cfa_register 7
 3536 0006 7860     		str	r0, [r7, #4]
 3537 0008 3960     		str	r1, [r7]
1893:./Libraries/STM32H7xx_HAL_Driver/Src/stm32h7xx_hal_ltdc.c ****   /* Check the parameters */
1894:./Libraries/STM32H7xx_HAL_Driver/Src/stm32h7xx_hal_ltdc.c ****   assert_param(IS_LTDC_LAYER(LayerIdx));
1895:./Libraries/STM32H7xx_HAL_Driver/Src/stm32h7xx_hal_ltdc.c **** 
1896:./Libraries/STM32H7xx_HAL_Driver/Src/stm32h7xx_hal_ltdc.c ****   /* Process locked */
1897:./Libraries/STM32H7xx_HAL_Driver/Src/stm32h7xx_hal_ltdc.c ****   __HAL_LOCK(hltdc);
 3538              		.loc 1 1897 3
 3539 000a 7B68     		ldr	r3, [r7, #4]
 3540 000c 93F8A030 		ldrb	r3, [r3, #160]	@ zero_extendqisi2
 3541 0010 012B     		cmp	r3, #1
 3542 0012 01D1     		bne	.L120
 3543              		.loc 1 1897 3 is_stmt 0 discriminator 1
 3544 0014 0223     		movs	r3, #2
 3545 0016 22E0     		b	.L121
 3546              	.L120:
 3547              		.loc 1 1897 3 discriminator 2
 3548 0018 7B68     		ldr	r3, [r7, #4]
 3549 001a 0122     		movs	r2, #1
 3550 001c 83F8A020 		strb	r2, [r3, #160]
1898:./Libraries/STM32H7xx_HAL_Driver/Src/stm32h7xx_hal_ltdc.c **** 
1899:./Libraries/STM32H7xx_HAL_Driver/Src/stm32h7xx_hal_ltdc.c ****   /* Change LTDC peripheral state */
1900:./Libraries/STM32H7xx_HAL_Driver/Src/stm32h7xx_hal_ltdc.c ****   hltdc->State = HAL_LTDC_STATE_BUSY;
 3551              		.loc 1 1900 16 is_stmt 1 discriminator 2
 3552 0020 7B68     		ldr	r3, [r7, #4]
 3553 0022 0222     		movs	r2, #2
 3554 0024 83F8A120 		strb	r2, [r3, #161]
1901:./Libraries/STM32H7xx_HAL_Driver/Src/stm32h7xx_hal_ltdc.c **** 
1902:./Libraries/STM32H7xx_HAL_Driver/Src/stm32h7xx_hal_ltdc.c ****   /* Enable LTDC color keying by setting COLKEN bit */
1903:./Libraries/STM32H7xx_HAL_Driver/Src/stm32h7xx_hal_ltdc.c ****   LTDC_LAYER(hltdc, LayerIdx)->CR |= (uint32_t)LTDC_LxCR_COLKEN;
 3555              		.loc 1 1903 3 discriminator 2
 3556 0028 7B68     		ldr	r3, [r7, #4]
 3557 002a 1B68     		ldr	r3, [r3]
 3558              		.loc 1 1903 35 discriminator 2
 3559 002c 1A46     		mov	r2, r3
 3560 002e 3B68     		ldr	r3, [r7]
 3561 0030 DB01     		lsls	r3, r3, #7
 3562 0032 1344     		add	r3, r3, r2
 3563 0034 8433     		adds	r3, r3, #132
 3564 0036 1B68     		ldr	r3, [r3]
 3565              		.loc 1 1903 3 discriminator 2
 3566 0038 7A68     		ldr	r2, [r7, #4]
 3567 003a 1268     		ldr	r2, [r2]
 3568              		.loc 1 1903 35 discriminator 2
 3569 003c 1146     		mov	r1, r2
 3570 003e 3A68     		ldr	r2, [r7]
 3571 0040 D201     		lsls	r2, r2, #7
 3572 0042 0A44     		add	r2, r2, r1
 3573 0044 8432     		adds	r2, r2, #132
 3574 0046 43F00203 		orr	r3, r3, #2
ARM GAS  /tmp/cc7azozz.s 			page 96


 3575 004a 1360     		str	r3, [r2]
1904:./Libraries/STM32H7xx_HAL_Driver/Src/stm32h7xx_hal_ltdc.c **** 
1905:./Libraries/STM32H7xx_HAL_Driver/Src/stm32h7xx_hal_ltdc.c ****   /* Change the LTDC state*/
1906:./Libraries/STM32H7xx_HAL_Driver/Src/stm32h7xx_hal_ltdc.c ****   hltdc->State = HAL_LTDC_STATE_READY;
 3576              		.loc 1 1906 16 discriminator 2
 3577 004c 7B68     		ldr	r3, [r7, #4]
 3578 004e 0122     		movs	r2, #1
 3579 0050 83F8A120 		strb	r2, [r3, #161]
1907:./Libraries/STM32H7xx_HAL_Driver/Src/stm32h7xx_hal_ltdc.c **** 
1908:./Libraries/STM32H7xx_HAL_Driver/Src/stm32h7xx_hal_ltdc.c ****   /* Process unlocked */
1909:./Libraries/STM32H7xx_HAL_Driver/Src/stm32h7xx_hal_ltdc.c ****   __HAL_UNLOCK(hltdc);
 3580              		.loc 1 1909 3 discriminator 2
 3581 0054 7B68     		ldr	r3, [r7, #4]
 3582 0056 0022     		movs	r2, #0
 3583 0058 83F8A020 		strb	r2, [r3, #160]
1910:./Libraries/STM32H7xx_HAL_Driver/Src/stm32h7xx_hal_ltdc.c **** 
1911:./Libraries/STM32H7xx_HAL_Driver/Src/stm32h7xx_hal_ltdc.c ****   return HAL_OK;
 3584              		.loc 1 1911 10 discriminator 2
 3585 005c 0023     		movs	r3, #0
 3586              	.L121:
1912:./Libraries/STM32H7xx_HAL_Driver/Src/stm32h7xx_hal_ltdc.c **** }
 3587              		.loc 1 1912 1
 3588 005e 1846     		mov	r0, r3
 3589 0060 0C37     		adds	r7, r7, #12
 3590              	.LCFI186:
 3591              		.cfi_def_cfa_offset 4
 3592 0062 BD46     		mov	sp, r7
 3593              	.LCFI187:
 3594              		.cfi_def_cfa_register 13
 3595              		@ sp needed
 3596 0064 5DF8047B 		ldr	r7, [sp], #4
 3597              	.LCFI188:
 3598              		.cfi_restore 7
 3599              		.cfi_def_cfa_offset 0
 3600 0068 7047     		bx	lr
 3601              		.cfi_endproc
 3602              	.LFE364:
 3604              		.section	.text.HAL_LTDC_DisableColorKeying_NoReload,"ax",%progbits
 3605              		.align	1
 3606              		.global	HAL_LTDC_DisableColorKeying_NoReload
 3607              		.syntax unified
 3608              		.thumb
 3609              		.thumb_func
 3610              		.fpu fpv5-d16
 3612              	HAL_LTDC_DisableColorKeying_NoReload:
 3613              	.LFB365:
1913:./Libraries/STM32H7xx_HAL_Driver/Src/stm32h7xx_hal_ltdc.c **** 
1914:./Libraries/STM32H7xx_HAL_Driver/Src/stm32h7xx_hal_ltdc.c **** /**
1915:./Libraries/STM32H7xx_HAL_Driver/Src/stm32h7xx_hal_ltdc.c ****   * @brief  Disable the color keying without reloading.
1916:./Libraries/STM32H7xx_HAL_Driver/Src/stm32h7xx_hal_ltdc.c ****   *         Variant of the function HAL_LTDC_DisableColorKeying without immediate reload.
1917:./Libraries/STM32H7xx_HAL_Driver/Src/stm32h7xx_hal_ltdc.c ****   * @param  hltdc     pointer to a LTDC_HandleTypeDef structure that contains
1918:./Libraries/STM32H7xx_HAL_Driver/Src/stm32h7xx_hal_ltdc.c ****   *                   the configuration information for the LTDC.
1919:./Libraries/STM32H7xx_HAL_Driver/Src/stm32h7xx_hal_ltdc.c ****   * @param  LayerIdx  LTDC Layer index.
1920:./Libraries/STM32H7xx_HAL_Driver/Src/stm32h7xx_hal_ltdc.c ****   *                   This parameter can be one of the following values:
1921:./Libraries/STM32H7xx_HAL_Driver/Src/stm32h7xx_hal_ltdc.c ****   *                   LTDC_LAYER_1 (0) or LTDC_LAYER_2 (1)
1922:./Libraries/STM32H7xx_HAL_Driver/Src/stm32h7xx_hal_ltdc.c ****   * @retval  HAL status
1923:./Libraries/STM32H7xx_HAL_Driver/Src/stm32h7xx_hal_ltdc.c ****   */
ARM GAS  /tmp/cc7azozz.s 			page 97


1924:./Libraries/STM32H7xx_HAL_Driver/Src/stm32h7xx_hal_ltdc.c **** HAL_StatusTypeDef HAL_LTDC_DisableColorKeying_NoReload(LTDC_HandleTypeDef *hltdc, uint32_t LayerIdx
1925:./Libraries/STM32H7xx_HAL_Driver/Src/stm32h7xx_hal_ltdc.c **** {
 3614              		.loc 1 1925 1
 3615              		.cfi_startproc
 3616              		@ args = 0, pretend = 0, frame = 8
 3617              		@ frame_needed = 1, uses_anonymous_args = 0
 3618              		@ link register save eliminated.
 3619 0000 80B4     		push	{r7}
 3620              	.LCFI189:
 3621              		.cfi_def_cfa_offset 4
 3622              		.cfi_offset 7, -4
 3623 0002 83B0     		sub	sp, sp, #12
 3624              	.LCFI190:
 3625              		.cfi_def_cfa_offset 16
 3626 0004 00AF     		add	r7, sp, #0
 3627              	.LCFI191:
 3628              		.cfi_def_cfa_register 7
 3629 0006 7860     		str	r0, [r7, #4]
 3630 0008 3960     		str	r1, [r7]
1926:./Libraries/STM32H7xx_HAL_Driver/Src/stm32h7xx_hal_ltdc.c ****   /* Check the parameters */
1927:./Libraries/STM32H7xx_HAL_Driver/Src/stm32h7xx_hal_ltdc.c ****   assert_param(IS_LTDC_LAYER(LayerIdx));
1928:./Libraries/STM32H7xx_HAL_Driver/Src/stm32h7xx_hal_ltdc.c **** 
1929:./Libraries/STM32H7xx_HAL_Driver/Src/stm32h7xx_hal_ltdc.c ****   /* Process locked */
1930:./Libraries/STM32H7xx_HAL_Driver/Src/stm32h7xx_hal_ltdc.c ****   __HAL_LOCK(hltdc);
 3631              		.loc 1 1930 3
 3632 000a 7B68     		ldr	r3, [r7, #4]
 3633 000c 93F8A030 		ldrb	r3, [r3, #160]	@ zero_extendqisi2
 3634 0010 012B     		cmp	r3, #1
 3635 0012 01D1     		bne	.L123
 3636              		.loc 1 1930 3 is_stmt 0 discriminator 1
 3637 0014 0223     		movs	r3, #2
 3638 0016 22E0     		b	.L124
 3639              	.L123:
 3640              		.loc 1 1930 3 discriminator 2
 3641 0018 7B68     		ldr	r3, [r7, #4]
 3642 001a 0122     		movs	r2, #1
 3643 001c 83F8A020 		strb	r2, [r3, #160]
1931:./Libraries/STM32H7xx_HAL_Driver/Src/stm32h7xx_hal_ltdc.c **** 
1932:./Libraries/STM32H7xx_HAL_Driver/Src/stm32h7xx_hal_ltdc.c ****   /* Change LTDC peripheral state */
1933:./Libraries/STM32H7xx_HAL_Driver/Src/stm32h7xx_hal_ltdc.c ****   hltdc->State = HAL_LTDC_STATE_BUSY;
 3644              		.loc 1 1933 16 is_stmt 1 discriminator 2
 3645 0020 7B68     		ldr	r3, [r7, #4]
 3646 0022 0222     		movs	r2, #2
 3647 0024 83F8A120 		strb	r2, [r3, #161]
1934:./Libraries/STM32H7xx_HAL_Driver/Src/stm32h7xx_hal_ltdc.c **** 
1935:./Libraries/STM32H7xx_HAL_Driver/Src/stm32h7xx_hal_ltdc.c ****   /* Disable LTDC color keying by setting COLKEN bit */
1936:./Libraries/STM32H7xx_HAL_Driver/Src/stm32h7xx_hal_ltdc.c ****   LTDC_LAYER(hltdc, LayerIdx)->CR &= ~(uint32_t)LTDC_LxCR_COLKEN;
 3648              		.loc 1 1936 3 discriminator 2
 3649 0028 7B68     		ldr	r3, [r7, #4]
 3650 002a 1B68     		ldr	r3, [r3]
 3651              		.loc 1 1936 35 discriminator 2
 3652 002c 1A46     		mov	r2, r3
 3653 002e 3B68     		ldr	r3, [r7]
 3654 0030 DB01     		lsls	r3, r3, #7
 3655 0032 1344     		add	r3, r3, r2
 3656 0034 8433     		adds	r3, r3, #132
 3657 0036 1B68     		ldr	r3, [r3]
ARM GAS  /tmp/cc7azozz.s 			page 98


 3658              		.loc 1 1936 3 discriminator 2
 3659 0038 7A68     		ldr	r2, [r7, #4]
 3660 003a 1268     		ldr	r2, [r2]
 3661              		.loc 1 1936 35 discriminator 2
 3662 003c 1146     		mov	r1, r2
 3663 003e 3A68     		ldr	r2, [r7]
 3664 0040 D201     		lsls	r2, r2, #7
 3665 0042 0A44     		add	r2, r2, r1
 3666 0044 8432     		adds	r2, r2, #132
 3667 0046 23F00203 		bic	r3, r3, #2
 3668 004a 1360     		str	r3, [r2]
1937:./Libraries/STM32H7xx_HAL_Driver/Src/stm32h7xx_hal_ltdc.c **** 
1938:./Libraries/STM32H7xx_HAL_Driver/Src/stm32h7xx_hal_ltdc.c ****   /* Change the LTDC state*/
1939:./Libraries/STM32H7xx_HAL_Driver/Src/stm32h7xx_hal_ltdc.c ****   hltdc->State = HAL_LTDC_STATE_READY;
 3669              		.loc 1 1939 16 discriminator 2
 3670 004c 7B68     		ldr	r3, [r7, #4]
 3671 004e 0122     		movs	r2, #1
 3672 0050 83F8A120 		strb	r2, [r3, #161]
1940:./Libraries/STM32H7xx_HAL_Driver/Src/stm32h7xx_hal_ltdc.c **** 
1941:./Libraries/STM32H7xx_HAL_Driver/Src/stm32h7xx_hal_ltdc.c ****   /* Process unlocked */
1942:./Libraries/STM32H7xx_HAL_Driver/Src/stm32h7xx_hal_ltdc.c ****   __HAL_UNLOCK(hltdc);
 3673              		.loc 1 1942 3 discriminator 2
 3674 0054 7B68     		ldr	r3, [r7, #4]
 3675 0056 0022     		movs	r2, #0
 3676 0058 83F8A020 		strb	r2, [r3, #160]
1943:./Libraries/STM32H7xx_HAL_Driver/Src/stm32h7xx_hal_ltdc.c **** 
1944:./Libraries/STM32H7xx_HAL_Driver/Src/stm32h7xx_hal_ltdc.c ****   return HAL_OK;
 3677              		.loc 1 1944 10 discriminator 2
 3678 005c 0023     		movs	r3, #0
 3679              	.L124:
1945:./Libraries/STM32H7xx_HAL_Driver/Src/stm32h7xx_hal_ltdc.c **** }
 3680              		.loc 1 1945 1
 3681 005e 1846     		mov	r0, r3
 3682 0060 0C37     		adds	r7, r7, #12
 3683              	.LCFI192:
 3684              		.cfi_def_cfa_offset 4
 3685 0062 BD46     		mov	sp, r7
 3686              	.LCFI193:
 3687              		.cfi_def_cfa_register 13
 3688              		@ sp needed
 3689 0064 5DF8047B 		ldr	r7, [sp], #4
 3690              	.LCFI194:
 3691              		.cfi_restore 7
 3692              		.cfi_def_cfa_offset 0
 3693 0068 7047     		bx	lr
 3694              		.cfi_endproc
 3695              	.LFE365:
 3697              		.section	.text.HAL_LTDC_EnableCLUT_NoReload,"ax",%progbits
 3698              		.align	1
 3699              		.global	HAL_LTDC_EnableCLUT_NoReload
 3700              		.syntax unified
 3701              		.thumb
 3702              		.thumb_func
 3703              		.fpu fpv5-d16
 3705              	HAL_LTDC_EnableCLUT_NoReload:
 3706              	.LFB366:
1946:./Libraries/STM32H7xx_HAL_Driver/Src/stm32h7xx_hal_ltdc.c **** 
ARM GAS  /tmp/cc7azozz.s 			page 99


1947:./Libraries/STM32H7xx_HAL_Driver/Src/stm32h7xx_hal_ltdc.c **** /**
1948:./Libraries/STM32H7xx_HAL_Driver/Src/stm32h7xx_hal_ltdc.c ****   * @brief  Enable the color lookup table without reloading.
1949:./Libraries/STM32H7xx_HAL_Driver/Src/stm32h7xx_hal_ltdc.c ****   *         Variant of the function HAL_LTDC_EnableCLUT without immediate reload.
1950:./Libraries/STM32H7xx_HAL_Driver/Src/stm32h7xx_hal_ltdc.c ****   * @param  hltdc     pointer to a LTDC_HandleTypeDef structure that contains
1951:./Libraries/STM32H7xx_HAL_Driver/Src/stm32h7xx_hal_ltdc.c ****   *                   the configuration information for the LTDC.
1952:./Libraries/STM32H7xx_HAL_Driver/Src/stm32h7xx_hal_ltdc.c ****   * @param  LayerIdx  LTDC Layer index.
1953:./Libraries/STM32H7xx_HAL_Driver/Src/stm32h7xx_hal_ltdc.c ****   *                   This parameter can be one of the following values:
1954:./Libraries/STM32H7xx_HAL_Driver/Src/stm32h7xx_hal_ltdc.c ****   *                   LTDC_LAYER_1 (0) or LTDC_LAYER_2 (1)
1955:./Libraries/STM32H7xx_HAL_Driver/Src/stm32h7xx_hal_ltdc.c ****   * @retval  HAL status
1956:./Libraries/STM32H7xx_HAL_Driver/Src/stm32h7xx_hal_ltdc.c ****   */
1957:./Libraries/STM32H7xx_HAL_Driver/Src/stm32h7xx_hal_ltdc.c **** HAL_StatusTypeDef HAL_LTDC_EnableCLUT_NoReload(LTDC_HandleTypeDef *hltdc, uint32_t LayerIdx)
1958:./Libraries/STM32H7xx_HAL_Driver/Src/stm32h7xx_hal_ltdc.c **** {
 3707              		.loc 1 1958 1
 3708              		.cfi_startproc
 3709              		@ args = 0, pretend = 0, frame = 8
 3710              		@ frame_needed = 1, uses_anonymous_args = 0
 3711              		@ link register save eliminated.
 3712 0000 80B4     		push	{r7}
 3713              	.LCFI195:
 3714              		.cfi_def_cfa_offset 4
 3715              		.cfi_offset 7, -4
 3716 0002 83B0     		sub	sp, sp, #12
 3717              	.LCFI196:
 3718              		.cfi_def_cfa_offset 16
 3719 0004 00AF     		add	r7, sp, #0
 3720              	.LCFI197:
 3721              		.cfi_def_cfa_register 7
 3722 0006 7860     		str	r0, [r7, #4]
 3723 0008 3960     		str	r1, [r7]
1959:./Libraries/STM32H7xx_HAL_Driver/Src/stm32h7xx_hal_ltdc.c ****   /* Check the parameters */
1960:./Libraries/STM32H7xx_HAL_Driver/Src/stm32h7xx_hal_ltdc.c ****   assert_param(IS_LTDC_LAYER(LayerIdx));
1961:./Libraries/STM32H7xx_HAL_Driver/Src/stm32h7xx_hal_ltdc.c **** 
1962:./Libraries/STM32H7xx_HAL_Driver/Src/stm32h7xx_hal_ltdc.c ****   /* Process locked */
1963:./Libraries/STM32H7xx_HAL_Driver/Src/stm32h7xx_hal_ltdc.c ****   __HAL_LOCK(hltdc);
 3724              		.loc 1 1963 3
 3725 000a 7B68     		ldr	r3, [r7, #4]
 3726 000c 93F8A030 		ldrb	r3, [r3, #160]	@ zero_extendqisi2
 3727 0010 012B     		cmp	r3, #1
 3728 0012 01D1     		bne	.L126
 3729              		.loc 1 1963 3 is_stmt 0 discriminator 1
 3730 0014 0223     		movs	r3, #2
 3731 0016 22E0     		b	.L127
 3732              	.L126:
 3733              		.loc 1 1963 3 discriminator 2
 3734 0018 7B68     		ldr	r3, [r7, #4]
 3735 001a 0122     		movs	r2, #1
 3736 001c 83F8A020 		strb	r2, [r3, #160]
1964:./Libraries/STM32H7xx_HAL_Driver/Src/stm32h7xx_hal_ltdc.c **** 
1965:./Libraries/STM32H7xx_HAL_Driver/Src/stm32h7xx_hal_ltdc.c ****   /* Change LTDC peripheral state */
1966:./Libraries/STM32H7xx_HAL_Driver/Src/stm32h7xx_hal_ltdc.c ****   hltdc->State = HAL_LTDC_STATE_BUSY;
 3737              		.loc 1 1966 16 is_stmt 1 discriminator 2
 3738 0020 7B68     		ldr	r3, [r7, #4]
 3739 0022 0222     		movs	r2, #2
 3740 0024 83F8A120 		strb	r2, [r3, #161]
1967:./Libraries/STM32H7xx_HAL_Driver/Src/stm32h7xx_hal_ltdc.c **** 
1968:./Libraries/STM32H7xx_HAL_Driver/Src/stm32h7xx_hal_ltdc.c ****   /* Disable LTDC color lookup table by setting CLUTEN bit */
1969:./Libraries/STM32H7xx_HAL_Driver/Src/stm32h7xx_hal_ltdc.c ****   LTDC_LAYER(hltdc, LayerIdx)->CR |= (uint32_t)LTDC_LxCR_CLUTEN;
ARM GAS  /tmp/cc7azozz.s 			page 100


 3741              		.loc 1 1969 3 discriminator 2
 3742 0028 7B68     		ldr	r3, [r7, #4]
 3743 002a 1B68     		ldr	r3, [r3]
 3744              		.loc 1 1969 35 discriminator 2
 3745 002c 1A46     		mov	r2, r3
 3746 002e 3B68     		ldr	r3, [r7]
 3747 0030 DB01     		lsls	r3, r3, #7
 3748 0032 1344     		add	r3, r3, r2
 3749 0034 8433     		adds	r3, r3, #132
 3750 0036 1B68     		ldr	r3, [r3]
 3751              		.loc 1 1969 3 discriminator 2
 3752 0038 7A68     		ldr	r2, [r7, #4]
 3753 003a 1268     		ldr	r2, [r2]
 3754              		.loc 1 1969 35 discriminator 2
 3755 003c 1146     		mov	r1, r2
 3756 003e 3A68     		ldr	r2, [r7]
 3757 0040 D201     		lsls	r2, r2, #7
 3758 0042 0A44     		add	r2, r2, r1
 3759 0044 8432     		adds	r2, r2, #132
 3760 0046 43F01003 		orr	r3, r3, #16
 3761 004a 1360     		str	r3, [r2]
1970:./Libraries/STM32H7xx_HAL_Driver/Src/stm32h7xx_hal_ltdc.c **** 
1971:./Libraries/STM32H7xx_HAL_Driver/Src/stm32h7xx_hal_ltdc.c ****   /* Change the LTDC state*/
1972:./Libraries/STM32H7xx_HAL_Driver/Src/stm32h7xx_hal_ltdc.c ****   hltdc->State = HAL_LTDC_STATE_READY;
 3762              		.loc 1 1972 16 discriminator 2
 3763 004c 7B68     		ldr	r3, [r7, #4]
 3764 004e 0122     		movs	r2, #1
 3765 0050 83F8A120 		strb	r2, [r3, #161]
1973:./Libraries/STM32H7xx_HAL_Driver/Src/stm32h7xx_hal_ltdc.c **** 
1974:./Libraries/STM32H7xx_HAL_Driver/Src/stm32h7xx_hal_ltdc.c ****   /* Process unlocked */
1975:./Libraries/STM32H7xx_HAL_Driver/Src/stm32h7xx_hal_ltdc.c ****   __HAL_UNLOCK(hltdc);
 3766              		.loc 1 1975 3 discriminator 2
 3767 0054 7B68     		ldr	r3, [r7, #4]
 3768 0056 0022     		movs	r2, #0
 3769 0058 83F8A020 		strb	r2, [r3, #160]
1976:./Libraries/STM32H7xx_HAL_Driver/Src/stm32h7xx_hal_ltdc.c **** 
1977:./Libraries/STM32H7xx_HAL_Driver/Src/stm32h7xx_hal_ltdc.c ****   return HAL_OK;
 3770              		.loc 1 1977 10 discriminator 2
 3771 005c 0023     		movs	r3, #0
 3772              	.L127:
1978:./Libraries/STM32H7xx_HAL_Driver/Src/stm32h7xx_hal_ltdc.c **** }
 3773              		.loc 1 1978 1
 3774 005e 1846     		mov	r0, r3
 3775 0060 0C37     		adds	r7, r7, #12
 3776              	.LCFI198:
 3777              		.cfi_def_cfa_offset 4
 3778 0062 BD46     		mov	sp, r7
 3779              	.LCFI199:
 3780              		.cfi_def_cfa_register 13
 3781              		@ sp needed
 3782 0064 5DF8047B 		ldr	r7, [sp], #4
 3783              	.LCFI200:
 3784              		.cfi_restore 7
 3785              		.cfi_def_cfa_offset 0
 3786 0068 7047     		bx	lr
 3787              		.cfi_endproc
 3788              	.LFE366:
ARM GAS  /tmp/cc7azozz.s 			page 101


 3790              		.section	.text.HAL_LTDC_DisableCLUT_NoReload,"ax",%progbits
 3791              		.align	1
 3792              		.global	HAL_LTDC_DisableCLUT_NoReload
 3793              		.syntax unified
 3794              		.thumb
 3795              		.thumb_func
 3796              		.fpu fpv5-d16
 3798              	HAL_LTDC_DisableCLUT_NoReload:
 3799              	.LFB367:
1979:./Libraries/STM32H7xx_HAL_Driver/Src/stm32h7xx_hal_ltdc.c **** 
1980:./Libraries/STM32H7xx_HAL_Driver/Src/stm32h7xx_hal_ltdc.c **** /**
1981:./Libraries/STM32H7xx_HAL_Driver/Src/stm32h7xx_hal_ltdc.c ****   * @brief  Disable the color lookup table without reloading.
1982:./Libraries/STM32H7xx_HAL_Driver/Src/stm32h7xx_hal_ltdc.c ****   *         Variant of the function HAL_LTDC_DisableCLUT without immediate reload.
1983:./Libraries/STM32H7xx_HAL_Driver/Src/stm32h7xx_hal_ltdc.c ****   * @param  hltdc     pointer to a LTDC_HandleTypeDef structure that contains
1984:./Libraries/STM32H7xx_HAL_Driver/Src/stm32h7xx_hal_ltdc.c ****   *                   the configuration information for the LTDC.
1985:./Libraries/STM32H7xx_HAL_Driver/Src/stm32h7xx_hal_ltdc.c ****   * @param  LayerIdx  LTDC Layer index.
1986:./Libraries/STM32H7xx_HAL_Driver/Src/stm32h7xx_hal_ltdc.c ****   *                   This parameter can be one of the following values:
1987:./Libraries/STM32H7xx_HAL_Driver/Src/stm32h7xx_hal_ltdc.c ****   *                   LTDC_LAYER_1 (0) or LTDC_LAYER_2 (1)
1988:./Libraries/STM32H7xx_HAL_Driver/Src/stm32h7xx_hal_ltdc.c ****   * @retval  HAL status
1989:./Libraries/STM32H7xx_HAL_Driver/Src/stm32h7xx_hal_ltdc.c ****   */
1990:./Libraries/STM32H7xx_HAL_Driver/Src/stm32h7xx_hal_ltdc.c **** HAL_StatusTypeDef HAL_LTDC_DisableCLUT_NoReload(LTDC_HandleTypeDef *hltdc, uint32_t LayerIdx)
1991:./Libraries/STM32H7xx_HAL_Driver/Src/stm32h7xx_hal_ltdc.c **** {
 3800              		.loc 1 1991 1
 3801              		.cfi_startproc
 3802              		@ args = 0, pretend = 0, frame = 8
 3803              		@ frame_needed = 1, uses_anonymous_args = 0
 3804              		@ link register save eliminated.
 3805 0000 80B4     		push	{r7}
 3806              	.LCFI201:
 3807              		.cfi_def_cfa_offset 4
 3808              		.cfi_offset 7, -4
 3809 0002 83B0     		sub	sp, sp, #12
 3810              	.LCFI202:
 3811              		.cfi_def_cfa_offset 16
 3812 0004 00AF     		add	r7, sp, #0
 3813              	.LCFI203:
 3814              		.cfi_def_cfa_register 7
 3815 0006 7860     		str	r0, [r7, #4]
 3816 0008 3960     		str	r1, [r7]
1992:./Libraries/STM32H7xx_HAL_Driver/Src/stm32h7xx_hal_ltdc.c ****   /* Check the parameters */
1993:./Libraries/STM32H7xx_HAL_Driver/Src/stm32h7xx_hal_ltdc.c ****   assert_param(IS_LTDC_LAYER(LayerIdx));
1994:./Libraries/STM32H7xx_HAL_Driver/Src/stm32h7xx_hal_ltdc.c **** 
1995:./Libraries/STM32H7xx_HAL_Driver/Src/stm32h7xx_hal_ltdc.c ****   /* Process locked */
1996:./Libraries/STM32H7xx_HAL_Driver/Src/stm32h7xx_hal_ltdc.c ****   __HAL_LOCK(hltdc);
 3817              		.loc 1 1996 3
 3818 000a 7B68     		ldr	r3, [r7, #4]
 3819 000c 93F8A030 		ldrb	r3, [r3, #160]	@ zero_extendqisi2
 3820 0010 012B     		cmp	r3, #1
 3821 0012 01D1     		bne	.L129
 3822              		.loc 1 1996 3 is_stmt 0 discriminator 1
 3823 0014 0223     		movs	r3, #2
 3824 0016 22E0     		b	.L130
 3825              	.L129:
 3826              		.loc 1 1996 3 discriminator 2
 3827 0018 7B68     		ldr	r3, [r7, #4]
 3828 001a 0122     		movs	r2, #1
 3829 001c 83F8A020 		strb	r2, [r3, #160]
ARM GAS  /tmp/cc7azozz.s 			page 102


1997:./Libraries/STM32H7xx_HAL_Driver/Src/stm32h7xx_hal_ltdc.c **** 
1998:./Libraries/STM32H7xx_HAL_Driver/Src/stm32h7xx_hal_ltdc.c ****   /* Change LTDC peripheral state */
1999:./Libraries/STM32H7xx_HAL_Driver/Src/stm32h7xx_hal_ltdc.c ****   hltdc->State = HAL_LTDC_STATE_BUSY;
 3830              		.loc 1 1999 16 is_stmt 1 discriminator 2
 3831 0020 7B68     		ldr	r3, [r7, #4]
 3832 0022 0222     		movs	r2, #2
 3833 0024 83F8A120 		strb	r2, [r3, #161]
2000:./Libraries/STM32H7xx_HAL_Driver/Src/stm32h7xx_hal_ltdc.c **** 
2001:./Libraries/STM32H7xx_HAL_Driver/Src/stm32h7xx_hal_ltdc.c ****   /* Disable LTDC color lookup table by setting CLUTEN bit */
2002:./Libraries/STM32H7xx_HAL_Driver/Src/stm32h7xx_hal_ltdc.c ****   LTDC_LAYER(hltdc, LayerIdx)->CR &= ~(uint32_t)LTDC_LxCR_CLUTEN;
 3834              		.loc 1 2002 3 discriminator 2
 3835 0028 7B68     		ldr	r3, [r7, #4]
 3836 002a 1B68     		ldr	r3, [r3]
 3837              		.loc 1 2002 35 discriminator 2
 3838 002c 1A46     		mov	r2, r3
 3839 002e 3B68     		ldr	r3, [r7]
 3840 0030 DB01     		lsls	r3, r3, #7
 3841 0032 1344     		add	r3, r3, r2
 3842 0034 8433     		adds	r3, r3, #132
 3843 0036 1B68     		ldr	r3, [r3]
 3844              		.loc 1 2002 3 discriminator 2
 3845 0038 7A68     		ldr	r2, [r7, #4]
 3846 003a 1268     		ldr	r2, [r2]
 3847              		.loc 1 2002 35 discriminator 2
 3848 003c 1146     		mov	r1, r2
 3849 003e 3A68     		ldr	r2, [r7]
 3850 0040 D201     		lsls	r2, r2, #7
 3851 0042 0A44     		add	r2, r2, r1
 3852 0044 8432     		adds	r2, r2, #132
 3853 0046 23F01003 		bic	r3, r3, #16
 3854 004a 1360     		str	r3, [r2]
2003:./Libraries/STM32H7xx_HAL_Driver/Src/stm32h7xx_hal_ltdc.c **** 
2004:./Libraries/STM32H7xx_HAL_Driver/Src/stm32h7xx_hal_ltdc.c ****   /* Change the LTDC state*/
2005:./Libraries/STM32H7xx_HAL_Driver/Src/stm32h7xx_hal_ltdc.c ****   hltdc->State = HAL_LTDC_STATE_READY;
 3855              		.loc 1 2005 16 discriminator 2
 3856 004c 7B68     		ldr	r3, [r7, #4]
 3857 004e 0122     		movs	r2, #1
 3858 0050 83F8A120 		strb	r2, [r3, #161]
2006:./Libraries/STM32H7xx_HAL_Driver/Src/stm32h7xx_hal_ltdc.c **** 
2007:./Libraries/STM32H7xx_HAL_Driver/Src/stm32h7xx_hal_ltdc.c ****   /* Process unlocked */
2008:./Libraries/STM32H7xx_HAL_Driver/Src/stm32h7xx_hal_ltdc.c ****   __HAL_UNLOCK(hltdc);
 3859              		.loc 1 2008 3 discriminator 2
 3860 0054 7B68     		ldr	r3, [r7, #4]
 3861 0056 0022     		movs	r2, #0
 3862 0058 83F8A020 		strb	r2, [r3, #160]
2009:./Libraries/STM32H7xx_HAL_Driver/Src/stm32h7xx_hal_ltdc.c **** 
2010:./Libraries/STM32H7xx_HAL_Driver/Src/stm32h7xx_hal_ltdc.c ****   return HAL_OK;
 3863              		.loc 1 2010 10 discriminator 2
 3864 005c 0023     		movs	r3, #0
 3865              	.L130:
2011:./Libraries/STM32H7xx_HAL_Driver/Src/stm32h7xx_hal_ltdc.c **** }
 3866              		.loc 1 2011 1
 3867 005e 1846     		mov	r0, r3
 3868 0060 0C37     		adds	r7, r7, #12
 3869              	.LCFI204:
 3870              		.cfi_def_cfa_offset 4
 3871 0062 BD46     		mov	sp, r7
ARM GAS  /tmp/cc7azozz.s 			page 103


 3872              	.LCFI205:
 3873              		.cfi_def_cfa_register 13
 3874              		@ sp needed
 3875 0064 5DF8047B 		ldr	r7, [sp], #4
 3876              	.LCFI206:
 3877              		.cfi_restore 7
 3878              		.cfi_def_cfa_offset 0
 3879 0068 7047     		bx	lr
 3880              		.cfi_endproc
 3881              	.LFE367:
 3883              		.section	.text.HAL_LTDC_GetState,"ax",%progbits
 3884              		.align	1
 3885              		.global	HAL_LTDC_GetState
 3886              		.syntax unified
 3887              		.thumb
 3888              		.thumb_func
 3889              		.fpu fpv5-d16
 3891              	HAL_LTDC_GetState:
 3892              	.LFB368:
2012:./Libraries/STM32H7xx_HAL_Driver/Src/stm32h7xx_hal_ltdc.c **** 
2013:./Libraries/STM32H7xx_HAL_Driver/Src/stm32h7xx_hal_ltdc.c **** /**
2014:./Libraries/STM32H7xx_HAL_Driver/Src/stm32h7xx_hal_ltdc.c ****   * @}
2015:./Libraries/STM32H7xx_HAL_Driver/Src/stm32h7xx_hal_ltdc.c ****   */
2016:./Libraries/STM32H7xx_HAL_Driver/Src/stm32h7xx_hal_ltdc.c **** 
2017:./Libraries/STM32H7xx_HAL_Driver/Src/stm32h7xx_hal_ltdc.c **** /** @defgroup LTDC_Exported_Functions_Group4 Peripheral State and Errors functions
2018:./Libraries/STM32H7xx_HAL_Driver/Src/stm32h7xx_hal_ltdc.c ****   *  @brief    Peripheral State and Errors functions
2019:./Libraries/STM32H7xx_HAL_Driver/Src/stm32h7xx_hal_ltdc.c ****   *
2020:./Libraries/STM32H7xx_HAL_Driver/Src/stm32h7xx_hal_ltdc.c **** @verbatim
2021:./Libraries/STM32H7xx_HAL_Driver/Src/stm32h7xx_hal_ltdc.c ****  ===============================================================================
2022:./Libraries/STM32H7xx_HAL_Driver/Src/stm32h7xx_hal_ltdc.c ****                   ##### Peripheral State and Errors functions #####
2023:./Libraries/STM32H7xx_HAL_Driver/Src/stm32h7xx_hal_ltdc.c ****  ===============================================================================
2024:./Libraries/STM32H7xx_HAL_Driver/Src/stm32h7xx_hal_ltdc.c ****     [..]
2025:./Libraries/STM32H7xx_HAL_Driver/Src/stm32h7xx_hal_ltdc.c ****     This subsection provides functions allowing to
2026:./Libraries/STM32H7xx_HAL_Driver/Src/stm32h7xx_hal_ltdc.c ****       (+) Check the LTDC handle state.
2027:./Libraries/STM32H7xx_HAL_Driver/Src/stm32h7xx_hal_ltdc.c ****       (+) Get the LTDC handle error code.
2028:./Libraries/STM32H7xx_HAL_Driver/Src/stm32h7xx_hal_ltdc.c **** 
2029:./Libraries/STM32H7xx_HAL_Driver/Src/stm32h7xx_hal_ltdc.c **** @endverbatim
2030:./Libraries/STM32H7xx_HAL_Driver/Src/stm32h7xx_hal_ltdc.c ****   * @{
2031:./Libraries/STM32H7xx_HAL_Driver/Src/stm32h7xx_hal_ltdc.c ****   */
2032:./Libraries/STM32H7xx_HAL_Driver/Src/stm32h7xx_hal_ltdc.c **** 
2033:./Libraries/STM32H7xx_HAL_Driver/Src/stm32h7xx_hal_ltdc.c **** /**
2034:./Libraries/STM32H7xx_HAL_Driver/Src/stm32h7xx_hal_ltdc.c ****   * @brief  Return the LTDC handle state.
2035:./Libraries/STM32H7xx_HAL_Driver/Src/stm32h7xx_hal_ltdc.c ****   * @param  hltdc  pointer to a LTDC_HandleTypeDef structure that contains
2036:./Libraries/STM32H7xx_HAL_Driver/Src/stm32h7xx_hal_ltdc.c ****   *                the configuration information for the LTDC.
2037:./Libraries/STM32H7xx_HAL_Driver/Src/stm32h7xx_hal_ltdc.c ****   * @retval HAL state
2038:./Libraries/STM32H7xx_HAL_Driver/Src/stm32h7xx_hal_ltdc.c ****   */
2039:./Libraries/STM32H7xx_HAL_Driver/Src/stm32h7xx_hal_ltdc.c **** HAL_LTDC_StateTypeDef HAL_LTDC_GetState(LTDC_HandleTypeDef *hltdc)
2040:./Libraries/STM32H7xx_HAL_Driver/Src/stm32h7xx_hal_ltdc.c **** {
 3893              		.loc 1 2040 1
 3894              		.cfi_startproc
 3895              		@ args = 0, pretend = 0, frame = 8
 3896              		@ frame_needed = 1, uses_anonymous_args = 0
 3897              		@ link register save eliminated.
 3898 0000 80B4     		push	{r7}
 3899              	.LCFI207:
 3900              		.cfi_def_cfa_offset 4
 3901              		.cfi_offset 7, -4
ARM GAS  /tmp/cc7azozz.s 			page 104


 3902 0002 83B0     		sub	sp, sp, #12
 3903              	.LCFI208:
 3904              		.cfi_def_cfa_offset 16
 3905 0004 00AF     		add	r7, sp, #0
 3906              	.LCFI209:
 3907              		.cfi_def_cfa_register 7
 3908 0006 7860     		str	r0, [r7, #4]
2041:./Libraries/STM32H7xx_HAL_Driver/Src/stm32h7xx_hal_ltdc.c ****   return hltdc->State;
 3909              		.loc 1 2041 15
 3910 0008 7B68     		ldr	r3, [r7, #4]
 3911 000a 93F8A130 		ldrb	r3, [r3, #161]
 3912 000e DBB2     		uxtb	r3, r3
2042:./Libraries/STM32H7xx_HAL_Driver/Src/stm32h7xx_hal_ltdc.c **** }
 3913              		.loc 1 2042 1
 3914 0010 1846     		mov	r0, r3
 3915 0012 0C37     		adds	r7, r7, #12
 3916              	.LCFI210:
 3917              		.cfi_def_cfa_offset 4
 3918 0014 BD46     		mov	sp, r7
 3919              	.LCFI211:
 3920              		.cfi_def_cfa_register 13
 3921              		@ sp needed
 3922 0016 5DF8047B 		ldr	r7, [sp], #4
 3923              	.LCFI212:
 3924              		.cfi_restore 7
 3925              		.cfi_def_cfa_offset 0
 3926 001a 7047     		bx	lr
 3927              		.cfi_endproc
 3928              	.LFE368:
 3930              		.section	.text.HAL_LTDC_GetError,"ax",%progbits
 3931              		.align	1
 3932              		.global	HAL_LTDC_GetError
 3933              		.syntax unified
 3934              		.thumb
 3935              		.thumb_func
 3936              		.fpu fpv5-d16
 3938              	HAL_LTDC_GetError:
 3939              	.LFB369:
2043:./Libraries/STM32H7xx_HAL_Driver/Src/stm32h7xx_hal_ltdc.c **** 
2044:./Libraries/STM32H7xx_HAL_Driver/Src/stm32h7xx_hal_ltdc.c **** /**
2045:./Libraries/STM32H7xx_HAL_Driver/Src/stm32h7xx_hal_ltdc.c ****   * @brief  Return the LTDC handle error code.
2046:./Libraries/STM32H7xx_HAL_Driver/Src/stm32h7xx_hal_ltdc.c ****   * @param  hltdc  pointer to a LTDC_HandleTypeDef structure that contains
2047:./Libraries/STM32H7xx_HAL_Driver/Src/stm32h7xx_hal_ltdc.c ****   *               the configuration information for the LTDC.
2048:./Libraries/STM32H7xx_HAL_Driver/Src/stm32h7xx_hal_ltdc.c ****   * @retval LTDC Error Code
2049:./Libraries/STM32H7xx_HAL_Driver/Src/stm32h7xx_hal_ltdc.c ****   */
2050:./Libraries/STM32H7xx_HAL_Driver/Src/stm32h7xx_hal_ltdc.c **** uint32_t HAL_LTDC_GetError(LTDC_HandleTypeDef *hltdc)
2051:./Libraries/STM32H7xx_HAL_Driver/Src/stm32h7xx_hal_ltdc.c **** {
 3940              		.loc 1 2051 1
 3941              		.cfi_startproc
 3942              		@ args = 0, pretend = 0, frame = 8
 3943              		@ frame_needed = 1, uses_anonymous_args = 0
 3944              		@ link register save eliminated.
 3945 0000 80B4     		push	{r7}
 3946              	.LCFI213:
 3947              		.cfi_def_cfa_offset 4
 3948              		.cfi_offset 7, -4
 3949 0002 83B0     		sub	sp, sp, #12
ARM GAS  /tmp/cc7azozz.s 			page 105


 3950              	.LCFI214:
 3951              		.cfi_def_cfa_offset 16
 3952 0004 00AF     		add	r7, sp, #0
 3953              	.LCFI215:
 3954              		.cfi_def_cfa_register 7
 3955 0006 7860     		str	r0, [r7, #4]
2052:./Libraries/STM32H7xx_HAL_Driver/Src/stm32h7xx_hal_ltdc.c ****   return hltdc->ErrorCode;
 3956              		.loc 1 2052 15
 3957 0008 7B68     		ldr	r3, [r7, #4]
 3958 000a D3F8A430 		ldr	r3, [r3, #164]
2053:./Libraries/STM32H7xx_HAL_Driver/Src/stm32h7xx_hal_ltdc.c **** }
 3959              		.loc 1 2053 1
 3960 000e 1846     		mov	r0, r3
 3961 0010 0C37     		adds	r7, r7, #12
 3962              	.LCFI216:
 3963              		.cfi_def_cfa_offset 4
 3964 0012 BD46     		mov	sp, r7
 3965              	.LCFI217:
 3966              		.cfi_def_cfa_register 13
 3967              		@ sp needed
 3968 0014 5DF8047B 		ldr	r7, [sp], #4
 3969              	.LCFI218:
 3970              		.cfi_restore 7
 3971              		.cfi_def_cfa_offset 0
 3972 0018 7047     		bx	lr
 3973              		.cfi_endproc
 3974              	.LFE369:
 3976              		.section	.text.LTDC_SetConfig,"ax",%progbits
 3977              		.align	1
 3978              		.syntax unified
 3979              		.thumb
 3980              		.thumb_func
 3981              		.fpu fpv5-d16
 3983              	LTDC_SetConfig:
 3984              	.LFB370:
2054:./Libraries/STM32H7xx_HAL_Driver/Src/stm32h7xx_hal_ltdc.c **** 
2055:./Libraries/STM32H7xx_HAL_Driver/Src/stm32h7xx_hal_ltdc.c **** /**
2056:./Libraries/STM32H7xx_HAL_Driver/Src/stm32h7xx_hal_ltdc.c ****   * @}
2057:./Libraries/STM32H7xx_HAL_Driver/Src/stm32h7xx_hal_ltdc.c ****   */
2058:./Libraries/STM32H7xx_HAL_Driver/Src/stm32h7xx_hal_ltdc.c **** 
2059:./Libraries/STM32H7xx_HAL_Driver/Src/stm32h7xx_hal_ltdc.c **** /**
2060:./Libraries/STM32H7xx_HAL_Driver/Src/stm32h7xx_hal_ltdc.c ****   * @}
2061:./Libraries/STM32H7xx_HAL_Driver/Src/stm32h7xx_hal_ltdc.c ****   */
2062:./Libraries/STM32H7xx_HAL_Driver/Src/stm32h7xx_hal_ltdc.c **** 
2063:./Libraries/STM32H7xx_HAL_Driver/Src/stm32h7xx_hal_ltdc.c **** /** @defgroup LTDC_Private_Functions LTDC Private Functions
2064:./Libraries/STM32H7xx_HAL_Driver/Src/stm32h7xx_hal_ltdc.c ****   * @{
2065:./Libraries/STM32H7xx_HAL_Driver/Src/stm32h7xx_hal_ltdc.c ****   */
2066:./Libraries/STM32H7xx_HAL_Driver/Src/stm32h7xx_hal_ltdc.c **** 
2067:./Libraries/STM32H7xx_HAL_Driver/Src/stm32h7xx_hal_ltdc.c **** /**
2068:./Libraries/STM32H7xx_HAL_Driver/Src/stm32h7xx_hal_ltdc.c ****   * @brief  Configure the LTDC peripheral
2069:./Libraries/STM32H7xx_HAL_Driver/Src/stm32h7xx_hal_ltdc.c ****   * @param  hltdc     Pointer to a LTDC_HandleTypeDef structure that contains
2070:./Libraries/STM32H7xx_HAL_Driver/Src/stm32h7xx_hal_ltdc.c ****   *                   the configuration information for the LTDC.
2071:./Libraries/STM32H7xx_HAL_Driver/Src/stm32h7xx_hal_ltdc.c ****   * @param  pLayerCfg Pointer LTDC Layer Configuration structure
2072:./Libraries/STM32H7xx_HAL_Driver/Src/stm32h7xx_hal_ltdc.c ****   * @param  LayerIdx  LTDC Layer index.
2073:./Libraries/STM32H7xx_HAL_Driver/Src/stm32h7xx_hal_ltdc.c ****   *                   This parameter can be one of the following values: LTDC_LAYER_1 (0) or LTDC_L
2074:./Libraries/STM32H7xx_HAL_Driver/Src/stm32h7xx_hal_ltdc.c ****   * @retval None
2075:./Libraries/STM32H7xx_HAL_Driver/Src/stm32h7xx_hal_ltdc.c ****   */
ARM GAS  /tmp/cc7azozz.s 			page 106


2076:./Libraries/STM32H7xx_HAL_Driver/Src/stm32h7xx_hal_ltdc.c **** static void LTDC_SetConfig(LTDC_HandleTypeDef *hltdc, LTDC_LayerCfgTypeDef *pLayerCfg, uint32_t Lay
2077:./Libraries/STM32H7xx_HAL_Driver/Src/stm32h7xx_hal_ltdc.c **** {
 3985              		.loc 1 2077 1
 3986              		.cfi_startproc
 3987              		@ args = 0, pretend = 0, frame = 32
 3988              		@ frame_needed = 1, uses_anonymous_args = 0
 3989              		@ link register save eliminated.
 3990 0000 80B4     		push	{r7}
 3991              	.LCFI219:
 3992              		.cfi_def_cfa_offset 4
 3993              		.cfi_offset 7, -4
 3994 0002 89B0     		sub	sp, sp, #36
 3995              	.LCFI220:
 3996              		.cfi_def_cfa_offset 40
 3997 0004 00AF     		add	r7, sp, #0
 3998              	.LCFI221:
 3999              		.cfi_def_cfa_register 7
 4000 0006 F860     		str	r0, [r7, #12]
 4001 0008 B960     		str	r1, [r7, #8]
 4002 000a 7A60     		str	r2, [r7, #4]
2078:./Libraries/STM32H7xx_HAL_Driver/Src/stm32h7xx_hal_ltdc.c ****   uint32_t tmp;
2079:./Libraries/STM32H7xx_HAL_Driver/Src/stm32h7xx_hal_ltdc.c ****   uint32_t tmp1;
2080:./Libraries/STM32H7xx_HAL_Driver/Src/stm32h7xx_hal_ltdc.c ****   uint32_t tmp2;
2081:./Libraries/STM32H7xx_HAL_Driver/Src/stm32h7xx_hal_ltdc.c **** 
2082:./Libraries/STM32H7xx_HAL_Driver/Src/stm32h7xx_hal_ltdc.c ****   /* Configure the horizontal start and stop position */
2083:./Libraries/STM32H7xx_HAL_Driver/Src/stm32h7xx_hal_ltdc.c ****   tmp = ((pLayerCfg->WindowX1 + ((hltdc->Instance->BPCR & LTDC_BPCR_AHBP) >> 16U)) << 16U);
 4003              		.loc 1 2083 20
 4004 000c BB68     		ldr	r3, [r7, #8]
 4005 000e 5A68     		ldr	r2, [r3, #4]
 4006              		.loc 1 2083 40
 4007 0010 FB68     		ldr	r3, [r7, #12]
 4008 0012 1B68     		ldr	r3, [r3]
 4009              		.loc 1 2083 50
 4010 0014 DB68     		ldr	r3, [r3, #12]
 4011              		.loc 1 2083 75
 4012 0016 1B0C     		lsrs	r3, r3, #16
 4013 0018 C3F30B03 		ubfx	r3, r3, #0, #12
 4014              		.loc 1 2083 31
 4015 001c 1344     		add	r3, r3, r2
 4016              		.loc 1 2083 7
 4017 001e 1B04     		lsls	r3, r3, #16
 4018 0020 FB61     		str	r3, [r7, #28]
2084:./Libraries/STM32H7xx_HAL_Driver/Src/stm32h7xx_hal_ltdc.c ****   LTDC_LAYER(hltdc, LayerIdx)->WHPCR &= ~(LTDC_LxWHPCR_WHSTPOS | LTDC_LxWHPCR_WHSPPOS);
 4019              		.loc 1 2084 3
 4020 0022 FB68     		ldr	r3, [r7, #12]
 4021 0024 1B68     		ldr	r3, [r3]
 4022              		.loc 1 2084 38
 4023 0026 1A46     		mov	r2, r3
 4024 0028 7B68     		ldr	r3, [r7, #4]
 4025 002a DB01     		lsls	r3, r3, #7
 4026 002c 1344     		add	r3, r3, r2
 4027 002e 8433     		adds	r3, r3, #132
 4028 0030 5B68     		ldr	r3, [r3, #4]
 4029              		.loc 1 2084 3
 4030 0032 FA68     		ldr	r2, [r7, #12]
 4031 0034 1268     		ldr	r2, [r2]
 4032              		.loc 1 2084 38
ARM GAS  /tmp/cc7azozz.s 			page 107


 4033 0036 1146     		mov	r1, r2
 4034 0038 7A68     		ldr	r2, [r7, #4]
 4035 003a D201     		lsls	r2, r2, #7
 4036 003c 0A44     		add	r2, r2, r1
 4037 003e 8432     		adds	r2, r2, #132
 4038 0040 03F47043 		and	r3, r3, #61440
 4039 0044 5360     		str	r3, [r2, #4]
2085:./Libraries/STM32H7xx_HAL_Driver/Src/stm32h7xx_hal_ltdc.c ****   LTDC_LAYER(hltdc, LayerIdx)->WHPCR = ((pLayerCfg->WindowX0 + ((hltdc->Instance->BPCR & LTDC_BPCR_
 4040              		.loc 1 2085 51
 4041 0046 BB68     		ldr	r3, [r7, #8]
 4042 0048 1A68     		ldr	r2, [r3]
 4043              		.loc 1 2085 71
 4044 004a FB68     		ldr	r3, [r7, #12]
 4045 004c 1B68     		ldr	r3, [r3]
 4046              		.loc 1 2085 81
 4047 004e DB68     		ldr	r3, [r3, #12]
 4048              		.loc 1 2085 106
 4049 0050 1B0C     		lsrs	r3, r3, #16
 4050 0052 C3F30B03 		ubfx	r3, r3, #0, #12
 4051              		.loc 1 2085 62
 4052 0056 1344     		add	r3, r3, r2
 4053              		.loc 1 2085 114
 4054 0058 5A1C     		adds	r2, r3, #1
 4055              		.loc 1 2085 3
 4056 005a FB68     		ldr	r3, [r7, #12]
 4057 005c 1B68     		ldr	r3, [r3]
 4058 005e 1946     		mov	r1, r3
 4059 0060 7B68     		ldr	r3, [r7, #4]
 4060 0062 DB01     		lsls	r3, r3, #7
 4061 0064 0B44     		add	r3, r3, r1
 4062 0066 8433     		adds	r3, r3, #132
 4063 0068 1946     		mov	r1, r3
 4064              		.loc 1 2085 120
 4065 006a FB69     		ldr	r3, [r7, #28]
 4066 006c 1343     		orrs	r3, r3, r2
 4067              		.loc 1 2085 38
 4068 006e 4B60     		str	r3, [r1, #4]
2086:./Libraries/STM32H7xx_HAL_Driver/Src/stm32h7xx_hal_ltdc.c **** 
2087:./Libraries/STM32H7xx_HAL_Driver/Src/stm32h7xx_hal_ltdc.c ****   /* Configure the vertical start and stop position */
2088:./Libraries/STM32H7xx_HAL_Driver/Src/stm32h7xx_hal_ltdc.c ****   tmp = ((pLayerCfg->WindowY1 + (hltdc->Instance->BPCR & LTDC_BPCR_AVBP)) << 16U);
 4069              		.loc 1 2088 20
 4070 0070 BB68     		ldr	r3, [r7, #8]
 4071 0072 DA68     		ldr	r2, [r3, #12]
 4072              		.loc 1 2088 39
 4073 0074 FB68     		ldr	r3, [r7, #12]
 4074 0076 1B68     		ldr	r3, [r3]
 4075              		.loc 1 2088 49
 4076 0078 DB68     		ldr	r3, [r3, #12]
 4077              		.loc 1 2088 56
 4078 007a C3F30A03 		ubfx	r3, r3, #0, #11
 4079              		.loc 1 2088 31
 4080 007e 1344     		add	r3, r3, r2
 4081              		.loc 1 2088 7
 4082 0080 1B04     		lsls	r3, r3, #16
 4083 0082 FB61     		str	r3, [r7, #28]
2089:./Libraries/STM32H7xx_HAL_Driver/Src/stm32h7xx_hal_ltdc.c ****   LTDC_LAYER(hltdc, LayerIdx)->WVPCR &= ~(LTDC_LxWVPCR_WVSTPOS | LTDC_LxWVPCR_WVSPPOS);
 4084              		.loc 1 2089 3
ARM GAS  /tmp/cc7azozz.s 			page 108


 4085 0084 FB68     		ldr	r3, [r7, #12]
 4086 0086 1B68     		ldr	r3, [r3]
 4087              		.loc 1 2089 38
 4088 0088 1A46     		mov	r2, r3
 4089 008a 7B68     		ldr	r3, [r7, #4]
 4090 008c DB01     		lsls	r3, r3, #7
 4091 008e 1344     		add	r3, r3, r2
 4092 0090 8433     		adds	r3, r3, #132
 4093 0092 9B68     		ldr	r3, [r3, #8]
 4094              		.loc 1 2089 3
 4095 0094 FA68     		ldr	r2, [r7, #12]
 4096 0096 1268     		ldr	r2, [r2]
 4097              		.loc 1 2089 38
 4098 0098 1146     		mov	r1, r2
 4099 009a 7A68     		ldr	r2, [r7, #4]
 4100 009c D201     		lsls	r2, r2, #7
 4101 009e 0A44     		add	r2, r2, r1
 4102 00a0 8432     		adds	r2, r2, #132
 4103 00a2 03F47043 		and	r3, r3, #61440
 4104 00a6 9360     		str	r3, [r2, #8]
2090:./Libraries/STM32H7xx_HAL_Driver/Src/stm32h7xx_hal_ltdc.c ****   LTDC_LAYER(hltdc, LayerIdx)->WVPCR  = ((pLayerCfg->WindowY0 + (hltdc->Instance->BPCR & LTDC_BPCR_
 4105              		.loc 1 2090 52
 4106 00a8 BB68     		ldr	r3, [r7, #8]
 4107 00aa 9A68     		ldr	r2, [r3, #8]
 4108              		.loc 1 2090 71
 4109 00ac FB68     		ldr	r3, [r7, #12]
 4110 00ae 1B68     		ldr	r3, [r3]
 4111              		.loc 1 2090 81
 4112 00b0 DB68     		ldr	r3, [r3, #12]
 4113              		.loc 1 2090 88
 4114 00b2 C3F30A03 		ubfx	r3, r3, #0, #11
 4115              		.loc 1 2090 63
 4116 00b6 1344     		add	r3, r3, r2
 4117              		.loc 1 2090 106
 4118 00b8 5A1C     		adds	r2, r3, #1
 4119              		.loc 1 2090 3
 4120 00ba FB68     		ldr	r3, [r7, #12]
 4121 00bc 1B68     		ldr	r3, [r3]
 4122 00be 1946     		mov	r1, r3
 4123 00c0 7B68     		ldr	r3, [r7, #4]
 4124 00c2 DB01     		lsls	r3, r3, #7
 4125 00c4 0B44     		add	r3, r3, r1
 4126 00c6 8433     		adds	r3, r3, #132
 4127 00c8 1946     		mov	r1, r3
 4128              		.loc 1 2090 112
 4129 00ca FB69     		ldr	r3, [r7, #28]
 4130 00cc 1343     		orrs	r3, r3, r2
 4131              		.loc 1 2090 39
 4132 00ce 8B60     		str	r3, [r1, #8]
2091:./Libraries/STM32H7xx_HAL_Driver/Src/stm32h7xx_hal_ltdc.c **** 
2092:./Libraries/STM32H7xx_HAL_Driver/Src/stm32h7xx_hal_ltdc.c ****   /* Specifies the pixel format */
2093:./Libraries/STM32H7xx_HAL_Driver/Src/stm32h7xx_hal_ltdc.c ****   LTDC_LAYER(hltdc, LayerIdx)->PFCR &= ~(LTDC_LxPFCR_PF);
 4133              		.loc 1 2093 3
 4134 00d0 FB68     		ldr	r3, [r7, #12]
 4135 00d2 1B68     		ldr	r3, [r3]
 4136              		.loc 1 2093 37
 4137 00d4 1A46     		mov	r2, r3
ARM GAS  /tmp/cc7azozz.s 			page 109


 4138 00d6 7B68     		ldr	r3, [r7, #4]
 4139 00d8 DB01     		lsls	r3, r3, #7
 4140 00da 1344     		add	r3, r3, r2
 4141 00dc 8433     		adds	r3, r3, #132
 4142 00de 1B69     		ldr	r3, [r3, #16]
 4143              		.loc 1 2093 3
 4144 00e0 FA68     		ldr	r2, [r7, #12]
 4145 00e2 1268     		ldr	r2, [r2]
 4146              		.loc 1 2093 37
 4147 00e4 1146     		mov	r1, r2
 4148 00e6 7A68     		ldr	r2, [r7, #4]
 4149 00e8 D201     		lsls	r2, r2, #7
 4150 00ea 0A44     		add	r2, r2, r1
 4151 00ec 8432     		adds	r2, r2, #132
 4152 00ee 23F00703 		bic	r3, r3, #7
 4153 00f2 1361     		str	r3, [r2, #16]
2094:./Libraries/STM32H7xx_HAL_Driver/Src/stm32h7xx_hal_ltdc.c ****   LTDC_LAYER(hltdc, LayerIdx)->PFCR = (pLayerCfg->PixelFormat);
 4154              		.loc 1 2094 3
 4155 00f4 FB68     		ldr	r3, [r7, #12]
 4156 00f6 1B68     		ldr	r3, [r3]
 4157 00f8 1A46     		mov	r2, r3
 4158 00fa 7B68     		ldr	r3, [r7, #4]
 4159 00fc DB01     		lsls	r3, r3, #7
 4160 00fe 1344     		add	r3, r3, r2
 4161 0100 8433     		adds	r3, r3, #132
 4162 0102 1A46     		mov	r2, r3
 4163              		.loc 1 2094 49
 4164 0104 BB68     		ldr	r3, [r7, #8]
 4165 0106 1B69     		ldr	r3, [r3, #16]
 4166              		.loc 1 2094 37
 4167 0108 1361     		str	r3, [r2, #16]
2095:./Libraries/STM32H7xx_HAL_Driver/Src/stm32h7xx_hal_ltdc.c **** 
2096:./Libraries/STM32H7xx_HAL_Driver/Src/stm32h7xx_hal_ltdc.c ****   /* Configure the default color values */
2097:./Libraries/STM32H7xx_HAL_Driver/Src/stm32h7xx_hal_ltdc.c ****   tmp = ((uint32_t)(pLayerCfg->Backcolor.Green) << 8U);
 4168              		.loc 1 2097 41
 4169 010a BB68     		ldr	r3, [r7, #8]
 4170 010c 93F83130 		ldrb	r3, [r3, #49]	@ zero_extendqisi2
 4171              		.loc 1 2097 7
 4172 0110 1B02     		lsls	r3, r3, #8
 4173 0112 FB61     		str	r3, [r7, #28]
2098:./Libraries/STM32H7xx_HAL_Driver/Src/stm32h7xx_hal_ltdc.c ****   tmp1 = ((uint32_t)(pLayerCfg->Backcolor.Red) << 16U);
 4174              		.loc 1 2098 42
 4175 0114 BB68     		ldr	r3, [r7, #8]
 4176 0116 93F83230 		ldrb	r3, [r3, #50]	@ zero_extendqisi2
 4177              		.loc 1 2098 8
 4178 011a 1B04     		lsls	r3, r3, #16
 4179 011c BB61     		str	r3, [r7, #24]
2099:./Libraries/STM32H7xx_HAL_Driver/Src/stm32h7xx_hal_ltdc.c ****   tmp2 = (pLayerCfg->Alpha0 << 24U);
 4180              		.loc 1 2099 20
 4181 011e BB68     		ldr	r3, [r7, #8]
 4182 0120 9B69     		ldr	r3, [r3, #24]
 4183              		.loc 1 2099 8
 4184 0122 1B06     		lsls	r3, r3, #24
 4185 0124 7B61     		str	r3, [r7, #20]
2100:./Libraries/STM32H7xx_HAL_Driver/Src/stm32h7xx_hal_ltdc.c ****   LTDC_LAYER(hltdc, LayerIdx)->DCCR &= ~(LTDC_LxDCCR_DCBLUE | LTDC_LxDCCR_DCGREEN | LTDC_LxDCCR_DCR
 4186              		.loc 1 2100 3
 4187 0126 FB68     		ldr	r3, [r7, #12]
ARM GAS  /tmp/cc7azozz.s 			page 110


 4188 0128 1B68     		ldr	r3, [r3]
 4189              		.loc 1 2100 37
 4190 012a 1A46     		mov	r2, r3
 4191 012c 7B68     		ldr	r3, [r7, #4]
 4192 012e DB01     		lsls	r3, r3, #7
 4193 0130 1344     		add	r3, r3, r2
 4194 0132 8433     		adds	r3, r3, #132
 4195 0134 9B69     		ldr	r3, [r3, #24]
 4196              		.loc 1 2100 3
 4197 0136 FB68     		ldr	r3, [r7, #12]
 4198 0138 1B68     		ldr	r3, [r3]
 4199              		.loc 1 2100 37
 4200 013a 1A46     		mov	r2, r3
 4201 013c 7B68     		ldr	r3, [r7, #4]
 4202 013e DB01     		lsls	r3, r3, #7
 4203 0140 1344     		add	r3, r3, r2
 4204 0142 8433     		adds	r3, r3, #132
 4205 0144 1A46     		mov	r2, r3
 4206 0146 0023     		movs	r3, #0
 4207 0148 9361     		str	r3, [r2, #24]
2101:./Libraries/STM32H7xx_HAL_Driver/Src/stm32h7xx_hal_ltdc.c ****   LTDC_LAYER(hltdc, LayerIdx)->DCCR = (pLayerCfg->Backcolor.Blue | tmp | tmp1 | tmp2);
 4208              		.loc 1 2101 60
 4209 014a BB68     		ldr	r3, [r7, #8]
 4210 014c 93F83030 		ldrb	r3, [r3, #48]	@ zero_extendqisi2
 4211 0150 1A46     		mov	r2, r3
 4212              		.loc 1 2101 66
 4213 0152 FB69     		ldr	r3, [r7, #28]
 4214 0154 1A43     		orrs	r2, r2, r3
 4215              		.loc 1 2101 72
 4216 0156 BB69     		ldr	r3, [r7, #24]
 4217 0158 1A43     		orrs	r2, r2, r3
 4218              		.loc 1 2101 3
 4219 015a FB68     		ldr	r3, [r7, #12]
 4220 015c 1B68     		ldr	r3, [r3]
 4221 015e 1946     		mov	r1, r3
 4222 0160 7B68     		ldr	r3, [r7, #4]
 4223 0162 DB01     		lsls	r3, r3, #7
 4224 0164 0B44     		add	r3, r3, r1
 4225 0166 8433     		adds	r3, r3, #132
 4226 0168 1946     		mov	r1, r3
 4227              		.loc 1 2101 79
 4228 016a 7B69     		ldr	r3, [r7, #20]
 4229 016c 1343     		orrs	r3, r3, r2
 4230              		.loc 1 2101 37
 4231 016e 8B61     		str	r3, [r1, #24]
2102:./Libraries/STM32H7xx_HAL_Driver/Src/stm32h7xx_hal_ltdc.c **** 
2103:./Libraries/STM32H7xx_HAL_Driver/Src/stm32h7xx_hal_ltdc.c ****   /* Specifies the constant alpha value */
2104:./Libraries/STM32H7xx_HAL_Driver/Src/stm32h7xx_hal_ltdc.c ****   LTDC_LAYER(hltdc, LayerIdx)->CACR &= ~(LTDC_LxCACR_CONSTA);
 4232              		.loc 1 2104 3
 4233 0170 FB68     		ldr	r3, [r7, #12]
 4234 0172 1B68     		ldr	r3, [r3]
 4235              		.loc 1 2104 37
 4236 0174 1A46     		mov	r2, r3
 4237 0176 7B68     		ldr	r3, [r7, #4]
 4238 0178 DB01     		lsls	r3, r3, #7
 4239 017a 1344     		add	r3, r3, r2
 4240 017c 8433     		adds	r3, r3, #132
ARM GAS  /tmp/cc7azozz.s 			page 111


 4241 017e 5B69     		ldr	r3, [r3, #20]
 4242              		.loc 1 2104 3
 4243 0180 FA68     		ldr	r2, [r7, #12]
 4244 0182 1268     		ldr	r2, [r2]
 4245              		.loc 1 2104 37
 4246 0184 1146     		mov	r1, r2
 4247 0186 7A68     		ldr	r2, [r7, #4]
 4248 0188 D201     		lsls	r2, r2, #7
 4249 018a 0A44     		add	r2, r2, r1
 4250 018c 8432     		adds	r2, r2, #132
 4251 018e 23F0FF03 		bic	r3, r3, #255
 4252 0192 5361     		str	r3, [r2, #20]
2105:./Libraries/STM32H7xx_HAL_Driver/Src/stm32h7xx_hal_ltdc.c ****   LTDC_LAYER(hltdc, LayerIdx)->CACR = (pLayerCfg->Alpha);
 4253              		.loc 1 2105 3
 4254 0194 FB68     		ldr	r3, [r7, #12]
 4255 0196 1B68     		ldr	r3, [r3]
 4256 0198 1A46     		mov	r2, r3
 4257 019a 7B68     		ldr	r3, [r7, #4]
 4258 019c DB01     		lsls	r3, r3, #7
 4259 019e 1344     		add	r3, r3, r2
 4260 01a0 8433     		adds	r3, r3, #132
 4261 01a2 1A46     		mov	r2, r3
 4262              		.loc 1 2105 49
 4263 01a4 BB68     		ldr	r3, [r7, #8]
 4264 01a6 5B69     		ldr	r3, [r3, #20]
 4265              		.loc 1 2105 37
 4266 01a8 5361     		str	r3, [r2, #20]
2106:./Libraries/STM32H7xx_HAL_Driver/Src/stm32h7xx_hal_ltdc.c **** 
2107:./Libraries/STM32H7xx_HAL_Driver/Src/stm32h7xx_hal_ltdc.c ****   /* Specifies the blending factors */
2108:./Libraries/STM32H7xx_HAL_Driver/Src/stm32h7xx_hal_ltdc.c ****   LTDC_LAYER(hltdc, LayerIdx)->BFCR &= ~(LTDC_LxBFCR_BF2 | LTDC_LxBFCR_BF1);
 4267              		.loc 1 2108 3
 4268 01aa FB68     		ldr	r3, [r7, #12]
 4269 01ac 1B68     		ldr	r3, [r3]
 4270              		.loc 1 2108 37
 4271 01ae 1A46     		mov	r2, r3
 4272 01b0 7B68     		ldr	r3, [r7, #4]
 4273 01b2 DB01     		lsls	r3, r3, #7
 4274 01b4 1344     		add	r3, r3, r2
 4275 01b6 8433     		adds	r3, r3, #132
 4276 01b8 DA69     		ldr	r2, [r3, #28]
 4277              		.loc 1 2108 3
 4278 01ba FB68     		ldr	r3, [r7, #12]
 4279 01bc 1B68     		ldr	r3, [r3]
 4280              		.loc 1 2108 37
 4281 01be 1946     		mov	r1, r3
 4282 01c0 7B68     		ldr	r3, [r7, #4]
 4283 01c2 DB01     		lsls	r3, r3, #7
 4284 01c4 0B44     		add	r3, r3, r1
 4285 01c6 8433     		adds	r3, r3, #132
 4286 01c8 1946     		mov	r1, r3
 4287 01ca 584B     		ldr	r3, .L141
 4288 01cc 1340     		ands	r3, r3, r2
 4289 01ce CB61     		str	r3, [r1, #28]
2109:./Libraries/STM32H7xx_HAL_Driver/Src/stm32h7xx_hal_ltdc.c ****   LTDC_LAYER(hltdc, LayerIdx)->BFCR = (pLayerCfg->BlendingFactor1 | pLayerCfg->BlendingFactor2);
 4290              		.loc 1 2109 49
 4291 01d0 BB68     		ldr	r3, [r7, #8]
 4292 01d2 DA69     		ldr	r2, [r3, #28]
ARM GAS  /tmp/cc7azozz.s 			page 112


 4293              		.loc 1 2109 78
 4294 01d4 BB68     		ldr	r3, [r7, #8]
 4295 01d6 1B6A     		ldr	r3, [r3, #32]
 4296              		.loc 1 2109 3
 4297 01d8 F968     		ldr	r1, [r7, #12]
 4298 01da 0968     		ldr	r1, [r1]
 4299 01dc 0846     		mov	r0, r1
 4300 01de 7968     		ldr	r1, [r7, #4]
 4301 01e0 C901     		lsls	r1, r1, #7
 4302 01e2 0144     		add	r1, r1, r0
 4303 01e4 8431     		adds	r1, r1, #132
 4304              		.loc 1 2109 67
 4305 01e6 1343     		orrs	r3, r3, r2
 4306              		.loc 1 2109 37
 4307 01e8 CB61     		str	r3, [r1, #28]
2110:./Libraries/STM32H7xx_HAL_Driver/Src/stm32h7xx_hal_ltdc.c **** 
2111:./Libraries/STM32H7xx_HAL_Driver/Src/stm32h7xx_hal_ltdc.c ****   /* Configure the color frame buffer start address */
2112:./Libraries/STM32H7xx_HAL_Driver/Src/stm32h7xx_hal_ltdc.c ****   LTDC_LAYER(hltdc, LayerIdx)->CFBAR &= ~(LTDC_LxCFBAR_CFBADD);
 4308              		.loc 1 2112 3
 4309 01ea FB68     		ldr	r3, [r7, #12]
 4310 01ec 1B68     		ldr	r3, [r3]
 4311              		.loc 1 2112 38
 4312 01ee 1A46     		mov	r2, r3
 4313 01f0 7B68     		ldr	r3, [r7, #4]
 4314 01f2 DB01     		lsls	r3, r3, #7
 4315 01f4 1344     		add	r3, r3, r2
 4316 01f6 8433     		adds	r3, r3, #132
 4317 01f8 9B6A     		ldr	r3, [r3, #40]
 4318              		.loc 1 2112 3
 4319 01fa FB68     		ldr	r3, [r7, #12]
 4320 01fc 1B68     		ldr	r3, [r3]
 4321              		.loc 1 2112 38
 4322 01fe 1A46     		mov	r2, r3
 4323 0200 7B68     		ldr	r3, [r7, #4]
 4324 0202 DB01     		lsls	r3, r3, #7
 4325 0204 1344     		add	r3, r3, r2
 4326 0206 8433     		adds	r3, r3, #132
 4327 0208 1A46     		mov	r2, r3
 4328 020a 0023     		movs	r3, #0
 4329 020c 9362     		str	r3, [r2, #40]
2113:./Libraries/STM32H7xx_HAL_Driver/Src/stm32h7xx_hal_ltdc.c ****   LTDC_LAYER(hltdc, LayerIdx)->CFBAR = (pLayerCfg->FBStartAdress);
 4330              		.loc 1 2113 3
 4331 020e FB68     		ldr	r3, [r7, #12]
 4332 0210 1B68     		ldr	r3, [r3]
 4333 0212 1A46     		mov	r2, r3
 4334 0214 7B68     		ldr	r3, [r7, #4]
 4335 0216 DB01     		lsls	r3, r3, #7
 4336 0218 1344     		add	r3, r3, r2
 4337 021a 8433     		adds	r3, r3, #132
 4338 021c 1A46     		mov	r2, r3
 4339              		.loc 1 2113 50
 4340 021e BB68     		ldr	r3, [r7, #8]
 4341 0220 5B6A     		ldr	r3, [r3, #36]
 4342              		.loc 1 2113 38
 4343 0222 9362     		str	r3, [r2, #40]
2114:./Libraries/STM32H7xx_HAL_Driver/Src/stm32h7xx_hal_ltdc.c **** 
2115:./Libraries/STM32H7xx_HAL_Driver/Src/stm32h7xx_hal_ltdc.c ****   if (pLayerCfg->PixelFormat == LTDC_PIXEL_FORMAT_ARGB8888)
ARM GAS  /tmp/cc7azozz.s 			page 113


 4344              		.loc 1 2115 16
 4345 0224 BB68     		ldr	r3, [r7, #8]
 4346 0226 1B69     		ldr	r3, [r3, #16]
 4347              		.loc 1 2115 6
 4348 0228 002B     		cmp	r3, #0
 4349 022a 02D1     		bne	.L136
2116:./Libraries/STM32H7xx_HAL_Driver/Src/stm32h7xx_hal_ltdc.c ****   {
2117:./Libraries/STM32H7xx_HAL_Driver/Src/stm32h7xx_hal_ltdc.c ****     tmp = 4U;
 4350              		.loc 1 2117 9
 4351 022c 0423     		movs	r3, #4
 4352 022e FB61     		str	r3, [r7, #28]
 4353 0230 1BE0     		b	.L137
 4354              	.L136:
2118:./Libraries/STM32H7xx_HAL_Driver/Src/stm32h7xx_hal_ltdc.c ****   }
2119:./Libraries/STM32H7xx_HAL_Driver/Src/stm32h7xx_hal_ltdc.c ****   else if (pLayerCfg->PixelFormat == LTDC_PIXEL_FORMAT_RGB888)
 4355              		.loc 1 2119 21
 4356 0232 BB68     		ldr	r3, [r7, #8]
 4357 0234 1B69     		ldr	r3, [r3, #16]
 4358              		.loc 1 2119 11
 4359 0236 012B     		cmp	r3, #1
 4360 0238 02D1     		bne	.L138
2120:./Libraries/STM32H7xx_HAL_Driver/Src/stm32h7xx_hal_ltdc.c ****   {
2121:./Libraries/STM32H7xx_HAL_Driver/Src/stm32h7xx_hal_ltdc.c ****     tmp = 3U;
 4361              		.loc 1 2121 9
 4362 023a 0323     		movs	r3, #3
 4363 023c FB61     		str	r3, [r7, #28]
 4364 023e 14E0     		b	.L137
 4365              	.L138:
2122:./Libraries/STM32H7xx_HAL_Driver/Src/stm32h7xx_hal_ltdc.c ****   }
2123:./Libraries/STM32H7xx_HAL_Driver/Src/stm32h7xx_hal_ltdc.c ****   else if ((pLayerCfg->PixelFormat == LTDC_PIXEL_FORMAT_ARGB4444) || \
 4366              		.loc 1 2123 22
 4367 0240 BB68     		ldr	r3, [r7, #8]
 4368 0242 1B69     		ldr	r3, [r3, #16]
 4369              		.loc 1 2123 11
 4370 0244 042B     		cmp	r3, #4
 4371 0246 0BD0     		beq	.L139
2124:./Libraries/STM32H7xx_HAL_Driver/Src/stm32h7xx_hal_ltdc.c ****            (pLayerCfg->PixelFormat == LTDC_PIXEL_FORMAT_RGB565)   || \
 4372              		.loc 1 2124 22 discriminator 1
 4373 0248 BB68     		ldr	r3, [r7, #8]
 4374 024a 1B69     		ldr	r3, [r3, #16]
2123:./Libraries/STM32H7xx_HAL_Driver/Src/stm32h7xx_hal_ltdc.c ****            (pLayerCfg->PixelFormat == LTDC_PIXEL_FORMAT_RGB565)   || \
 4375              		.loc 1 2123 67 discriminator 1
 4376 024c 022B     		cmp	r3, #2
 4377 024e 07D0     		beq	.L139
2125:./Libraries/STM32H7xx_HAL_Driver/Src/stm32h7xx_hal_ltdc.c ****            (pLayerCfg->PixelFormat == LTDC_PIXEL_FORMAT_ARGB1555) || \
 4378              		.loc 1 2125 22
 4379 0250 BB68     		ldr	r3, [r7, #8]
 4380 0252 1B69     		ldr	r3, [r3, #16]
2124:./Libraries/STM32H7xx_HAL_Driver/Src/stm32h7xx_hal_ltdc.c ****            (pLayerCfg->PixelFormat == LTDC_PIXEL_FORMAT_RGB565)   || \
 4381              		.loc 1 2124 67
 4382 0254 032B     		cmp	r3, #3
 4383 0256 03D0     		beq	.L139
2126:./Libraries/STM32H7xx_HAL_Driver/Src/stm32h7xx_hal_ltdc.c ****            (pLayerCfg->PixelFormat == LTDC_PIXEL_FORMAT_AL88))
 4384              		.loc 1 2126 22
 4385 0258 BB68     		ldr	r3, [r7, #8]
 4386 025a 1B69     		ldr	r3, [r3, #16]
2125:./Libraries/STM32H7xx_HAL_Driver/Src/stm32h7xx_hal_ltdc.c ****            (pLayerCfg->PixelFormat == LTDC_PIXEL_FORMAT_ARGB1555) || \
ARM GAS  /tmp/cc7azozz.s 			page 114


 4387              		.loc 1 2125 67
 4388 025c 072B     		cmp	r3, #7
 4389 025e 02D1     		bne	.L140
 4390              	.L139:
2127:./Libraries/STM32H7xx_HAL_Driver/Src/stm32h7xx_hal_ltdc.c ****   {
2128:./Libraries/STM32H7xx_HAL_Driver/Src/stm32h7xx_hal_ltdc.c ****     tmp = 2U;
 4391              		.loc 1 2128 9
 4392 0260 0223     		movs	r3, #2
 4393 0262 FB61     		str	r3, [r7, #28]
 4394 0264 01E0     		b	.L137
 4395              	.L140:
2129:./Libraries/STM32H7xx_HAL_Driver/Src/stm32h7xx_hal_ltdc.c ****   }
2130:./Libraries/STM32H7xx_HAL_Driver/Src/stm32h7xx_hal_ltdc.c ****   else
2131:./Libraries/STM32H7xx_HAL_Driver/Src/stm32h7xx_hal_ltdc.c ****   {
2132:./Libraries/STM32H7xx_HAL_Driver/Src/stm32h7xx_hal_ltdc.c ****     tmp = 1U;
 4396              		.loc 1 2132 9
 4397 0266 0123     		movs	r3, #1
 4398 0268 FB61     		str	r3, [r7, #28]
 4399              	.L137:
2133:./Libraries/STM32H7xx_HAL_Driver/Src/stm32h7xx_hal_ltdc.c ****   }
2134:./Libraries/STM32H7xx_HAL_Driver/Src/stm32h7xx_hal_ltdc.c **** 
2135:./Libraries/STM32H7xx_HAL_Driver/Src/stm32h7xx_hal_ltdc.c ****   /* Configure the color frame buffer pitch in byte */
2136:./Libraries/STM32H7xx_HAL_Driver/Src/stm32h7xx_hal_ltdc.c ****   LTDC_LAYER(hltdc, LayerIdx)->CFBLR  &= ~(LTDC_LxCFBLR_CFBLL | LTDC_LxCFBLR_CFBP);
 4400              		.loc 1 2136 3
 4401 026a FB68     		ldr	r3, [r7, #12]
 4402 026c 1B68     		ldr	r3, [r3]
 4403              		.loc 1 2136 39
 4404 026e 1A46     		mov	r2, r3
 4405 0270 7B68     		ldr	r3, [r7, #4]
 4406 0272 DB01     		lsls	r3, r3, #7
 4407 0274 1344     		add	r3, r3, r2
 4408 0276 8433     		adds	r3, r3, #132
 4409 0278 DB6A     		ldr	r3, [r3, #44]
 4410              		.loc 1 2136 3
 4411 027a FA68     		ldr	r2, [r7, #12]
 4412 027c 1268     		ldr	r2, [r2]
 4413              		.loc 1 2136 39
 4414 027e 1146     		mov	r1, r2
 4415 0280 7A68     		ldr	r2, [r7, #4]
 4416 0282 D201     		lsls	r2, r2, #7
 4417 0284 0A44     		add	r2, r2, r1
 4418 0286 8432     		adds	r2, r2, #132
 4419 0288 03F0E023 		and	r3, r3, #-536813568
 4420 028c D362     		str	r3, [r2, #44]
2137:./Libraries/STM32H7xx_HAL_Driver/Src/stm32h7xx_hal_ltdc.c ****   LTDC_LAYER(hltdc, LayerIdx)->CFBLR  = (((pLayerCfg->ImageWidth * tmp) << 16U) | (((pLayerCfg->Win
 4421              		.loc 1 2137 53
 4422 028e BB68     		ldr	r3, [r7, #8]
 4423 0290 9B6A     		ldr	r3, [r3, #40]
 4424              		.loc 1 2137 66
 4425 0292 FA69     		ldr	r2, [r7, #28]
 4426 0294 02FB03F3 		mul	r3, r2, r3
 4427              		.loc 1 2137 73
 4428 0298 1A04     		lsls	r2, r3, #16
 4429              		.loc 1 2137 95
 4430 029a BB68     		ldr	r3, [r7, #8]
 4431 029c 5968     		ldr	r1, [r3, #4]
 4432              		.loc 1 2137 117
ARM GAS  /tmp/cc7azozz.s 			page 115


 4433 029e BB68     		ldr	r3, [r7, #8]
 4434 02a0 1B68     		ldr	r3, [r3]
 4435              		.loc 1 2137 106
 4436 02a2 CB1A     		subs	r3, r1, r3
 4437              		.loc 1 2137 129
 4438 02a4 F969     		ldr	r1, [r7, #28]
 4439 02a6 01FB03F3 		mul	r3, r1, r3
 4440              		.loc 1 2137 137
 4441 02aa 0733     		adds	r3, r3, #7
 4442              		.loc 1 2137 3
 4443 02ac F968     		ldr	r1, [r7, #12]
 4444 02ae 0968     		ldr	r1, [r1]
 4445 02b0 0846     		mov	r0, r1
 4446 02b2 7968     		ldr	r1, [r7, #4]
 4447 02b4 C901     		lsls	r1, r1, #7
 4448 02b6 0144     		add	r1, r1, r0
 4449 02b8 8431     		adds	r1, r1, #132
 4450              		.loc 1 2137 81
 4451 02ba 1343     		orrs	r3, r3, r2
 4452              		.loc 1 2137 39
 4453 02bc CB62     		str	r3, [r1, #44]
2138:./Libraries/STM32H7xx_HAL_Driver/Src/stm32h7xx_hal_ltdc.c ****   /* Configure the frame buffer line number */
2139:./Libraries/STM32H7xx_HAL_Driver/Src/stm32h7xx_hal_ltdc.c ****   LTDC_LAYER(hltdc, LayerIdx)->CFBLNR  &= ~(LTDC_LxCFBLNR_CFBLNBR);
 4454              		.loc 1 2139 3
 4455 02be FB68     		ldr	r3, [r7, #12]
 4456 02c0 1B68     		ldr	r3, [r3]
 4457              		.loc 1 2139 40
 4458 02c2 1A46     		mov	r2, r3
 4459 02c4 7B68     		ldr	r3, [r7, #4]
 4460 02c6 DB01     		lsls	r3, r3, #7
 4461 02c8 1344     		add	r3, r3, r2
 4462 02ca 8433     		adds	r3, r3, #132
 4463 02cc 1A6B     		ldr	r2, [r3, #48]
 4464              		.loc 1 2139 3
 4465 02ce FB68     		ldr	r3, [r7, #12]
 4466 02d0 1B68     		ldr	r3, [r3]
 4467              		.loc 1 2139 40
 4468 02d2 1946     		mov	r1, r3
 4469 02d4 7B68     		ldr	r3, [r7, #4]
 4470 02d6 DB01     		lsls	r3, r3, #7
 4471 02d8 0B44     		add	r3, r3, r1
 4472 02da 8433     		adds	r3, r3, #132
 4473 02dc 1946     		mov	r1, r3
 4474 02de 144B     		ldr	r3, .L141+4
 4475 02e0 1340     		ands	r3, r3, r2
 4476 02e2 0B63     		str	r3, [r1, #48]
2140:./Libraries/STM32H7xx_HAL_Driver/Src/stm32h7xx_hal_ltdc.c ****   LTDC_LAYER(hltdc, LayerIdx)->CFBLNR  = (pLayerCfg->ImageHeight);
 4477              		.loc 1 2140 3
 4478 02e4 FB68     		ldr	r3, [r7, #12]
 4479 02e6 1B68     		ldr	r3, [r3]
 4480 02e8 1A46     		mov	r2, r3
 4481 02ea 7B68     		ldr	r3, [r7, #4]
 4482 02ec DB01     		lsls	r3, r3, #7
 4483 02ee 1344     		add	r3, r3, r2
 4484 02f0 8433     		adds	r3, r3, #132
 4485 02f2 1A46     		mov	r2, r3
 4486              		.loc 1 2140 52
ARM GAS  /tmp/cc7azozz.s 			page 116


 4487 02f4 BB68     		ldr	r3, [r7, #8]
 4488 02f6 DB6A     		ldr	r3, [r3, #44]
 4489              		.loc 1 2140 40
 4490 02f8 1363     		str	r3, [r2, #48]
2141:./Libraries/STM32H7xx_HAL_Driver/Src/stm32h7xx_hal_ltdc.c **** 
2142:./Libraries/STM32H7xx_HAL_Driver/Src/stm32h7xx_hal_ltdc.c ****   /* Enable LTDC_Layer by setting LEN bit */
2143:./Libraries/STM32H7xx_HAL_Driver/Src/stm32h7xx_hal_ltdc.c ****   LTDC_LAYER(hltdc, LayerIdx)->CR |= (uint32_t)LTDC_LxCR_LEN;
 4491              		.loc 1 2143 3
 4492 02fa FB68     		ldr	r3, [r7, #12]
 4493 02fc 1B68     		ldr	r3, [r3]
 4494              		.loc 1 2143 35
 4495 02fe 1A46     		mov	r2, r3
 4496 0300 7B68     		ldr	r3, [r7, #4]
 4497 0302 DB01     		lsls	r3, r3, #7
 4498 0304 1344     		add	r3, r3, r2
 4499 0306 8433     		adds	r3, r3, #132
 4500 0308 1B68     		ldr	r3, [r3]
 4501              		.loc 1 2143 3
 4502 030a FA68     		ldr	r2, [r7, #12]
 4503 030c 1268     		ldr	r2, [r2]
 4504              		.loc 1 2143 35
 4505 030e 1146     		mov	r1, r2
 4506 0310 7A68     		ldr	r2, [r7, #4]
 4507 0312 D201     		lsls	r2, r2, #7
 4508 0314 0A44     		add	r2, r2, r1
 4509 0316 8432     		adds	r2, r2, #132
 4510 0318 43F00103 		orr	r3, r3, #1
 4511 031c 1360     		str	r3, [r2]
2144:./Libraries/STM32H7xx_HAL_Driver/Src/stm32h7xx_hal_ltdc.c **** }
 4512              		.loc 1 2144 1
 4513 031e 00BF     		nop
 4514 0320 2437     		adds	r7, r7, #36
 4515              	.LCFI222:
 4516              		.cfi_def_cfa_offset 4
 4517 0322 BD46     		mov	sp, r7
 4518              	.LCFI223:
 4519              		.cfi_def_cfa_register 13
 4520              		@ sp needed
 4521 0324 5DF8047B 		ldr	r7, [sp], #4
 4522              	.LCFI224:
 4523              		.cfi_restore 7
 4524              		.cfi_def_cfa_offset 0
 4525 0328 7047     		bx	lr
 4526              	.L142:
 4527 032a 00BF     		.align	2
 4528              	.L141:
 4529 032c F8F8FFFF 		.word	-1800
 4530 0330 00F8FFFF 		.word	-2048
 4531              		.cfi_endproc
 4532              	.LFE370:
 4534              		.text
 4535              	.Letext0:
 4536              		.file 2 "/usr/lib/gcc/arm-none-eabi/9.2.1/include/stdint.h"
 4537              		.file 3 "./Libraries/CMSIS/Core/Include/core_cm7.h"
 4538              		.file 4 "./Libraries/CMSIS/Device/ST/STM32H7xx/Include/system_stm32h7xx.h"
 4539              		.file 5 "./Libraries/CMSIS/Device/ST/STM32H7xx/Include/stm32h747xx.h"
 4540              		.file 6 "/usr/lib/gcc/arm-none-eabi/9.2.1/include/stddef.h"
ARM GAS  /tmp/cc7azozz.s 			page 117


 4541              		.file 7 "/usr/include/newlib/sys/_types.h"
 4542              		.file 8 "/usr/include/newlib/sys/reent.h"
 4543              		.file 9 "/usr/include/newlib/sys/lock.h"
 4544              		.file 10 "/usr/include/newlib/math.h"
 4545              		.file 11 "./Libraries/STM32H7xx_HAL_Driver/Inc/stm32h7xx_hal_def.h"
 4546              		.file 12 "./Libraries/STM32H7xx_HAL_Driver/Inc/stm32h7xx_hal_flash.h"
 4547              		.file 13 "./Libraries/STM32H7xx_HAL_Driver/Inc/stm32h7xx_hal_ltdc.h"
 4548              		.file 14 "./Libraries/STM32H7xx_HAL_Driver/Inc/stm32h7xx_hal_uart.h"
 4549              		.file 15 "./Libraries/STM32H7xx_HAL_Driver/Inc/stm32h7xx_hal.h"
ARM GAS  /tmp/cc7azozz.s 			page 118


DEFINED SYMBOLS
                            *ABS*:0000000000000000 stm32h7xx_hal_ltdc.c
     /tmp/cc7azozz.s:17     .text.HAL_LTDC_Init:0000000000000000 $t
     /tmp/cc7azozz.s:25     .text.HAL_LTDC_Init:0000000000000000 HAL_LTDC_Init
     /tmp/cc7azozz.s:402    .text.HAL_LTDC_MspInit:0000000000000000 HAL_LTDC_MspInit
     /tmp/cc7azozz.s:334    .text.HAL_LTDC_Init:000000000000019c $d
     /tmp/cc7azozz.s:339    .text.HAL_LTDC_DeInit:0000000000000000 $t
     /tmp/cc7azozz.s:346    .text.HAL_LTDC_DeInit:0000000000000000 HAL_LTDC_DeInit
     /tmp/cc7azozz.s:445    .text.HAL_LTDC_MspDeInit:0000000000000000 HAL_LTDC_MspDeInit
     /tmp/cc7azozz.s:395    .text.HAL_LTDC_MspInit:0000000000000000 $t
     /tmp/cc7azozz.s:438    .text.HAL_LTDC_MspDeInit:0000000000000000 $t
     /tmp/cc7azozz.s:481    .text.HAL_LTDC_IRQHandler:0000000000000000 $t
     /tmp/cc7azozz.s:488    .text.HAL_LTDC_IRQHandler:0000000000000000 HAL_LTDC_IRQHandler
     /tmp/cc7azozz.s:699    .text.HAL_LTDC_ErrorCallback:0000000000000000 HAL_LTDC_ErrorCallback
     /tmp/cc7azozz.s:742    .text.HAL_LTDC_LineEventCallback:0000000000000000 HAL_LTDC_LineEventCallback
     /tmp/cc7azozz.s:785    .text.HAL_LTDC_ReloadEventCallback:0000000000000000 HAL_LTDC_ReloadEventCallback
     /tmp/cc7azozz.s:692    .text.HAL_LTDC_ErrorCallback:0000000000000000 $t
     /tmp/cc7azozz.s:735    .text.HAL_LTDC_LineEventCallback:0000000000000000 $t
     /tmp/cc7azozz.s:778    .text.HAL_LTDC_ReloadEventCallback:0000000000000000 $t
     /tmp/cc7azozz.s:821    .text.HAL_LTDC_ConfigLayer:0000000000000000 $t
     /tmp/cc7azozz.s:828    .text.HAL_LTDC_ConfigLayer:0000000000000000 HAL_LTDC_ConfigLayer
     /tmp/cc7azozz.s:3983   .text.LTDC_SetConfig:0000000000000000 LTDC_SetConfig
     /tmp/cc7azozz.s:921    .text.HAL_LTDC_ConfigColorKeying:0000000000000000 $t
     /tmp/cc7azozz.s:928    .text.HAL_LTDC_ConfigColorKeying:0000000000000000 HAL_LTDC_ConfigColorKeying
     /tmp/cc7azozz.s:1033   .text.HAL_LTDC_ConfigCLUT:0000000000000000 $t
     /tmp/cc7azozz.s:1040   .text.HAL_LTDC_ConfigCLUT:0000000000000000 HAL_LTDC_ConfigCLUT
     /tmp/cc7azozz.s:1210   .text.HAL_LTDC_EnableColorKeying:0000000000000000 $t
     /tmp/cc7azozz.s:1217   .text.HAL_LTDC_EnableColorKeying:0000000000000000 HAL_LTDC_EnableColorKeying
     /tmp/cc7azozz.s:1309   .text.HAL_LTDC_DisableColorKeying:0000000000000000 $t
     /tmp/cc7azozz.s:1316   .text.HAL_LTDC_DisableColorKeying:0000000000000000 HAL_LTDC_DisableColorKeying
     /tmp/cc7azozz.s:1408   .text.HAL_LTDC_EnableCLUT:0000000000000000 $t
     /tmp/cc7azozz.s:1415   .text.HAL_LTDC_EnableCLUT:0000000000000000 HAL_LTDC_EnableCLUT
     /tmp/cc7azozz.s:1507   .text.HAL_LTDC_DisableCLUT:0000000000000000 $t
     /tmp/cc7azozz.s:1514   .text.HAL_LTDC_DisableCLUT:0000000000000000 HAL_LTDC_DisableCLUT
     /tmp/cc7azozz.s:1606   .text.HAL_LTDC_EnableDither:0000000000000000 $t
     /tmp/cc7azozz.s:1613   .text.HAL_LTDC_EnableDither:0000000000000000 HAL_LTDC_EnableDither
     /tmp/cc7azozz.s:1682   .text.HAL_LTDC_EnableDither:0000000000000050 $d
     /tmp/cc7azozz.s:1687   .text.HAL_LTDC_DisableDither:0000000000000000 $t
     /tmp/cc7azozz.s:1694   .text.HAL_LTDC_DisableDither:0000000000000000 HAL_LTDC_DisableDither
     /tmp/cc7azozz.s:1763   .text.HAL_LTDC_DisableDither:0000000000000050 $d
     /tmp/cc7azozz.s:1768   .text.HAL_LTDC_SetWindowSize:0000000000000000 $t
     /tmp/cc7azozz.s:1775   .text.HAL_LTDC_SetWindowSize:0000000000000000 HAL_LTDC_SetWindowSize
     /tmp/cc7azozz.s:1883   .text.HAL_LTDC_SetWindowPosition:0000000000000000 $t
     /tmp/cc7azozz.s:1890   .text.HAL_LTDC_SetWindowPosition:0000000000000000 HAL_LTDC_SetWindowPosition
     /tmp/cc7azozz.s:1998   .text.HAL_LTDC_SetPixelFormat:0000000000000000 $t
     /tmp/cc7azozz.s:2005   .text.HAL_LTDC_SetPixelFormat:0000000000000000 HAL_LTDC_SetPixelFormat
     /tmp/cc7azozz.s:2090   .text.HAL_LTDC_SetAlpha:0000000000000000 $t
     /tmp/cc7azozz.s:2097   .text.HAL_LTDC_SetAlpha:0000000000000000 HAL_LTDC_SetAlpha
     /tmp/cc7azozz.s:2182   .text.HAL_LTDC_SetAddress:0000000000000000 $t
     /tmp/cc7azozz.s:2189   .text.HAL_LTDC_SetAddress:0000000000000000 HAL_LTDC_SetAddress
     /tmp/cc7azozz.s:2274   .text.HAL_LTDC_SetPitch:0000000000000000 $t
     /tmp/cc7azozz.s:2281   .text.HAL_LTDC_SetPitch:0000000000000000 HAL_LTDC_SetPitch
     /tmp/cc7azozz.s:2464   .text.HAL_LTDC_SetPitch:0000000000000104 $d
     /tmp/cc7azozz.s:2470   .text.HAL_LTDC_ProgramLineEvent:0000000000000000 $t
     /tmp/cc7azozz.s:2477   .text.HAL_LTDC_ProgramLineEvent:0000000000000000 HAL_LTDC_ProgramLineEvent
     /tmp/cc7azozz.s:2562   .text.HAL_LTDC_ProgramLineEvent:000000000000006c $d
     /tmp/cc7azozz.s:2567   .text.HAL_LTDC_Reload:0000000000000000 $t
ARM GAS  /tmp/cc7azozz.s 			page 119


     /tmp/cc7azozz.s:2574   .text.HAL_LTDC_Reload:0000000000000000 HAL_LTDC_Reload
     /tmp/cc7azozz.s:2653   .text.HAL_LTDC_ConfigLayer_NoReload:0000000000000000 $t
     /tmp/cc7azozz.s:2660   .text.HAL_LTDC_ConfigLayer_NoReload:0000000000000000 HAL_LTDC_ConfigLayer_NoReload
     /tmp/cc7azozz.s:2747   .text.HAL_LTDC_SetWindowSize_NoReload:0000000000000000 $t
     /tmp/cc7azozz.s:2754   .text.HAL_LTDC_SetWindowSize_NoReload:0000000000000000 HAL_LTDC_SetWindowSize_NoReload
     /tmp/cc7azozz.s:2856   .text.HAL_LTDC_SetWindowPosition_NoReload:0000000000000000 $t
     /tmp/cc7azozz.s:2863   .text.HAL_LTDC_SetWindowPosition_NoReload:0000000000000000 HAL_LTDC_SetWindowPosition_NoReload
     /tmp/cc7azozz.s:2965   .text.HAL_LTDC_SetPixelFormat_NoReload:0000000000000000 $t
     /tmp/cc7azozz.s:2972   .text.HAL_LTDC_SetPixelFormat_NoReload:0000000000000000 HAL_LTDC_SetPixelFormat_NoReload
     /tmp/cc7azozz.s:3051   .text.HAL_LTDC_SetAlpha_NoReload:0000000000000000 $t
     /tmp/cc7azozz.s:3058   .text.HAL_LTDC_SetAlpha_NoReload:0000000000000000 HAL_LTDC_SetAlpha_NoReload
     /tmp/cc7azozz.s:3137   .text.HAL_LTDC_SetAddress_NoReload:0000000000000000 $t
     /tmp/cc7azozz.s:3144   .text.HAL_LTDC_SetAddress_NoReload:0000000000000000 HAL_LTDC_SetAddress_NoReload
     /tmp/cc7azozz.s:3223   .text.HAL_LTDC_SetPitch_NoReload:0000000000000000 $t
     /tmp/cc7azozz.s:3230   .text.HAL_LTDC_SetPitch_NoReload:0000000000000000 HAL_LTDC_SetPitch_NoReload
     /tmp/cc7azozz.s:3401   .text.HAL_LTDC_SetPitch_NoReload:00000000000000ec $d
     /tmp/cc7azozz.s:3406   .text.HAL_LTDC_ConfigColorKeying_NoReload:0000000000000000 $t
     /tmp/cc7azozz.s:3413   .text.HAL_LTDC_ConfigColorKeying_NoReload:0000000000000000 HAL_LTDC_ConfigColorKeying_NoReload
     /tmp/cc7azozz.s:3512   .text.HAL_LTDC_EnableColorKeying_NoReload:0000000000000000 $t
     /tmp/cc7azozz.s:3519   .text.HAL_LTDC_EnableColorKeying_NoReload:0000000000000000 HAL_LTDC_EnableColorKeying_NoReload
     /tmp/cc7azozz.s:3605   .text.HAL_LTDC_DisableColorKeying_NoReload:0000000000000000 $t
     /tmp/cc7azozz.s:3612   .text.HAL_LTDC_DisableColorKeying_NoReload:0000000000000000 HAL_LTDC_DisableColorKeying_NoReload
     /tmp/cc7azozz.s:3698   .text.HAL_LTDC_EnableCLUT_NoReload:0000000000000000 $t
     /tmp/cc7azozz.s:3705   .text.HAL_LTDC_EnableCLUT_NoReload:0000000000000000 HAL_LTDC_EnableCLUT_NoReload
     /tmp/cc7azozz.s:3791   .text.HAL_LTDC_DisableCLUT_NoReload:0000000000000000 $t
     /tmp/cc7azozz.s:3798   .text.HAL_LTDC_DisableCLUT_NoReload:0000000000000000 HAL_LTDC_DisableCLUT_NoReload
     /tmp/cc7azozz.s:3884   .text.HAL_LTDC_GetState:0000000000000000 $t
     /tmp/cc7azozz.s:3891   .text.HAL_LTDC_GetState:0000000000000000 HAL_LTDC_GetState
     /tmp/cc7azozz.s:3931   .text.HAL_LTDC_GetError:0000000000000000 $t
     /tmp/cc7azozz.s:3938   .text.HAL_LTDC_GetError:0000000000000000 HAL_LTDC_GetError
     /tmp/cc7azozz.s:3977   .text.LTDC_SetConfig:0000000000000000 $t
     /tmp/cc7azozz.s:4529   .text.LTDC_SetConfig:000000000000032c $d

NO UNDEFINED SYMBOLS
