ARM GAS  /tmp/cc9oZLZ6.s 			page 1


   1              		.cpu cortex-m7
   2              		.eabi_attribute 28, 1
   3              		.eabi_attribute 20, 1
   4              		.eabi_attribute 21, 1
   5              		.eabi_attribute 23, 3
   6              		.eabi_attribute 24, 1
   7              		.eabi_attribute 25, 1
   8              		.eabi_attribute 26, 1
   9              		.eabi_attribute 30, 6
  10              		.eabi_attribute 34, 1
  11              		.eabi_attribute 18, 4
  12              		.file	"stm32h7xx_hal_dma_ex.c"
  13              		.text
  14              	.Ltext0:
  15              		.cfi_sections	.debug_frame
  16              		.section	.text.HAL_DMAEx_MultiBufferStart,"ax",%progbits
  17              		.align	1
  18              		.global	HAL_DMAEx_MultiBufferStart
  19              		.arch armv7e-m
  20              		.syntax unified
  21              		.thumb
  22              		.thumb_func
  23              		.fpu fpv5-d16
  25              	HAL_DMAEx_MultiBufferStart:
  26              	.LFB331:
  27              		.file 1 "./Libraries/STM32H7xx_HAL_Driver/Src/stm32h7xx_hal_dma_ex.c"
   1:./Libraries/STM32H7xx_HAL_Driver/Src/stm32h7xx_hal_dma_ex.c **** /**
   2:./Libraries/STM32H7xx_HAL_Driver/Src/stm32h7xx_hal_dma_ex.c ****   ******************************************************************************
   3:./Libraries/STM32H7xx_HAL_Driver/Src/stm32h7xx_hal_dma_ex.c ****   * @file    stm32h7xx_hal_dma_ex.c
   4:./Libraries/STM32H7xx_HAL_Driver/Src/stm32h7xx_hal_dma_ex.c ****   * @author  MCD Application Team
   5:./Libraries/STM32H7xx_HAL_Driver/Src/stm32h7xx_hal_dma_ex.c ****   * @brief   DMA Extension HAL module driver
   6:./Libraries/STM32H7xx_HAL_Driver/Src/stm32h7xx_hal_dma_ex.c ****   *          This file provides firmware functions to manage the following
   7:./Libraries/STM32H7xx_HAL_Driver/Src/stm32h7xx_hal_dma_ex.c ****   *          functionalities of the DMA Extension peripheral:
   8:./Libraries/STM32H7xx_HAL_Driver/Src/stm32h7xx_hal_dma_ex.c ****   *           + Extended features functions
   9:./Libraries/STM32H7xx_HAL_Driver/Src/stm32h7xx_hal_dma_ex.c ****   *
  10:./Libraries/STM32H7xx_HAL_Driver/Src/stm32h7xx_hal_dma_ex.c ****   @verbatim
  11:./Libraries/STM32H7xx_HAL_Driver/Src/stm32h7xx_hal_dma_ex.c ****   ==============================================================================
  12:./Libraries/STM32H7xx_HAL_Driver/Src/stm32h7xx_hal_dma_ex.c ****                         ##### How to use this driver #####
  13:./Libraries/STM32H7xx_HAL_Driver/Src/stm32h7xx_hal_dma_ex.c ****   ==============================================================================
  14:./Libraries/STM32H7xx_HAL_Driver/Src/stm32h7xx_hal_dma_ex.c ****   [..]
  15:./Libraries/STM32H7xx_HAL_Driver/Src/stm32h7xx_hal_dma_ex.c ****   The DMA Extension HAL driver can be used as follows:
  16:./Libraries/STM32H7xx_HAL_Driver/Src/stm32h7xx_hal_dma_ex.c ****    (+) Start a multi buffer transfer using the HAL_DMA_MultiBufferStart() function
  17:./Libraries/STM32H7xx_HAL_Driver/Src/stm32h7xx_hal_dma_ex.c ****        for polling mode or HAL_DMA_MultiBufferStart_IT() for interrupt mode.
  18:./Libraries/STM32H7xx_HAL_Driver/Src/stm32h7xx_hal_dma_ex.c **** 
  19:./Libraries/STM32H7xx_HAL_Driver/Src/stm32h7xx_hal_dma_ex.c ****    (+) Configure the DMA_MUX Synchronization Block using HAL_DMAEx_ConfigMuxSync function.
  20:./Libraries/STM32H7xx_HAL_Driver/Src/stm32h7xx_hal_dma_ex.c ****    (+) Configure the DMA_MUX Request Generator Block using HAL_DMAEx_ConfigMuxRequestGenerator func
  21:./Libraries/STM32H7xx_HAL_Driver/Src/stm32h7xx_hal_dma_ex.c ****        Functions HAL_DMAEx_EnableMuxRequestGenerator and HAL_DMAEx_DisableMuxRequestGenerator can t
  22:./Libraries/STM32H7xx_HAL_Driver/Src/stm32h7xx_hal_dma_ex.c ****        to respectively enable/disable the request generator.
  23:./Libraries/STM32H7xx_HAL_Driver/Src/stm32h7xx_hal_dma_ex.c **** 
  24:./Libraries/STM32H7xx_HAL_Driver/Src/stm32h7xx_hal_dma_ex.c ****    (+) To handle the DMAMUX Interrupts, the function  HAL_DMAEx_MUX_IRQHandler should be called fro
  25:./Libraries/STM32H7xx_HAL_Driver/Src/stm32h7xx_hal_dma_ex.c ****        the DMAMUX IRQ handler i.e DMAMUX1_OVR_IRQHandler or DMAMUX2_OVR_IRQHandler .
  26:./Libraries/STM32H7xx_HAL_Driver/Src/stm32h7xx_hal_dma_ex.c ****        As only one interrupt line is available for all DMAMUX channels and request generators , HAL
  27:./Libraries/STM32H7xx_HAL_Driver/Src/stm32h7xx_hal_dma_ex.c ****        called with, as parameter, the appropriate DMA handle as many as used DMAs in the user proje
  28:./Libraries/STM32H7xx_HAL_Driver/Src/stm32h7xx_hal_dma_ex.c ****       (exception done if a given DMA is not using the DMAMUX SYNC block neither a request generator
  29:./Libraries/STM32H7xx_HAL_Driver/Src/stm32h7xx_hal_dma_ex.c **** 
  30:./Libraries/STM32H7xx_HAL_Driver/Src/stm32h7xx_hal_dma_ex.c ****      -@-  In Memory-to-Memory transfer mode, Multi (Double) Buffer mode is not allowed.
  31:./Libraries/STM32H7xx_HAL_Driver/Src/stm32h7xx_hal_dma_ex.c ****      -@-  When Multi (Double) Buffer mode is enabled, the transfer is circular by default.
ARM GAS  /tmp/cc9oZLZ6.s 			page 2


  32:./Libraries/STM32H7xx_HAL_Driver/Src/stm32h7xx_hal_dma_ex.c ****      -@-  In Multi (Double) buffer mode, it is possible to update the base address for
  33:./Libraries/STM32H7xx_HAL_Driver/Src/stm32h7xx_hal_dma_ex.c ****           the AHB memory port on the fly (DMA_SxM0AR or DMA_SxM1AR) when the stream is enabled.
  34:./Libraries/STM32H7xx_HAL_Driver/Src/stm32h7xx_hal_dma_ex.c ****      -@-  Multi (Double) buffer mode is possible with DMA and BDMA instances.
  35:./Libraries/STM32H7xx_HAL_Driver/Src/stm32h7xx_hal_dma_ex.c **** 
  36:./Libraries/STM32H7xx_HAL_Driver/Src/stm32h7xx_hal_dma_ex.c ****   @endverbatim
  37:./Libraries/STM32H7xx_HAL_Driver/Src/stm32h7xx_hal_dma_ex.c ****   ******************************************************************************
  38:./Libraries/STM32H7xx_HAL_Driver/Src/stm32h7xx_hal_dma_ex.c ****   * @attention
  39:./Libraries/STM32H7xx_HAL_Driver/Src/stm32h7xx_hal_dma_ex.c ****   *
  40:./Libraries/STM32H7xx_HAL_Driver/Src/stm32h7xx_hal_dma_ex.c ****   * <h2><center>&copy; COPYRIGHT(c) 2017 STMicroelectronics.
  41:./Libraries/STM32H7xx_HAL_Driver/Src/stm32h7xx_hal_dma_ex.c ****   * All rights reserved.</center></h2>
  42:./Libraries/STM32H7xx_HAL_Driver/Src/stm32h7xx_hal_dma_ex.c ****   *
  43:./Libraries/STM32H7xx_HAL_Driver/Src/stm32h7xx_hal_dma_ex.c ****   * This software component is licensed by ST under BSD 3-Clause license,
  44:./Libraries/STM32H7xx_HAL_Driver/Src/stm32h7xx_hal_dma_ex.c ****   * the "License"; You may not use this file except in compliance with the
  45:./Libraries/STM32H7xx_HAL_Driver/Src/stm32h7xx_hal_dma_ex.c ****   * License. You may obtain a copy of the License at:
  46:./Libraries/STM32H7xx_HAL_Driver/Src/stm32h7xx_hal_dma_ex.c ****   *                        opensource.org/licenses/BSD-3-Clause
  47:./Libraries/STM32H7xx_HAL_Driver/Src/stm32h7xx_hal_dma_ex.c ****   *
  48:./Libraries/STM32H7xx_HAL_Driver/Src/stm32h7xx_hal_dma_ex.c ****   ******************************************************************************
  49:./Libraries/STM32H7xx_HAL_Driver/Src/stm32h7xx_hal_dma_ex.c ****   */
  50:./Libraries/STM32H7xx_HAL_Driver/Src/stm32h7xx_hal_dma_ex.c **** 
  51:./Libraries/STM32H7xx_HAL_Driver/Src/stm32h7xx_hal_dma_ex.c **** /* Includes ------------------------------------------------------------------*/
  52:./Libraries/STM32H7xx_HAL_Driver/Src/stm32h7xx_hal_dma_ex.c **** #include "stm32h7xx_hal.h"
  53:./Libraries/STM32H7xx_HAL_Driver/Src/stm32h7xx_hal_dma_ex.c **** 
  54:./Libraries/STM32H7xx_HAL_Driver/Src/stm32h7xx_hal_dma_ex.c **** /** @addtogroup STM32H7xx_HAL_Driver
  55:./Libraries/STM32H7xx_HAL_Driver/Src/stm32h7xx_hal_dma_ex.c ****   * @{
  56:./Libraries/STM32H7xx_HAL_Driver/Src/stm32h7xx_hal_dma_ex.c ****   */
  57:./Libraries/STM32H7xx_HAL_Driver/Src/stm32h7xx_hal_dma_ex.c **** 
  58:./Libraries/STM32H7xx_HAL_Driver/Src/stm32h7xx_hal_dma_ex.c **** /** @defgroup DMAEx DMAEx
  59:./Libraries/STM32H7xx_HAL_Driver/Src/stm32h7xx_hal_dma_ex.c ****   * @brief DMA Extended HAL module driver
  60:./Libraries/STM32H7xx_HAL_Driver/Src/stm32h7xx_hal_dma_ex.c ****   * @{
  61:./Libraries/STM32H7xx_HAL_Driver/Src/stm32h7xx_hal_dma_ex.c ****   */
  62:./Libraries/STM32H7xx_HAL_Driver/Src/stm32h7xx_hal_dma_ex.c **** 
  63:./Libraries/STM32H7xx_HAL_Driver/Src/stm32h7xx_hal_dma_ex.c **** #ifdef HAL_DMA_MODULE_ENABLED
  64:./Libraries/STM32H7xx_HAL_Driver/Src/stm32h7xx_hal_dma_ex.c **** 
  65:./Libraries/STM32H7xx_HAL_Driver/Src/stm32h7xx_hal_dma_ex.c **** /* Private types -------------------------------------------------------------*/
  66:./Libraries/STM32H7xx_HAL_Driver/Src/stm32h7xx_hal_dma_ex.c **** /* Private variables ---------------------------------------------------------*/
  67:./Libraries/STM32H7xx_HAL_Driver/Src/stm32h7xx_hal_dma_ex.c **** /* Private Constants ---------------------------------------------------------*/
  68:./Libraries/STM32H7xx_HAL_Driver/Src/stm32h7xx_hal_dma_ex.c **** /* Private macros ------------------------------------------------------------*/
  69:./Libraries/STM32H7xx_HAL_Driver/Src/stm32h7xx_hal_dma_ex.c **** /* Private functions ---------------------------------------------------------*/
  70:./Libraries/STM32H7xx_HAL_Driver/Src/stm32h7xx_hal_dma_ex.c **** /** @addtogroup DMAEx_Private_Functions
  71:./Libraries/STM32H7xx_HAL_Driver/Src/stm32h7xx_hal_dma_ex.c ****   * @{
  72:./Libraries/STM32H7xx_HAL_Driver/Src/stm32h7xx_hal_dma_ex.c ****   */
  73:./Libraries/STM32H7xx_HAL_Driver/Src/stm32h7xx_hal_dma_ex.c **** 
  74:./Libraries/STM32H7xx_HAL_Driver/Src/stm32h7xx_hal_dma_ex.c **** static void DMA_MultiBufferSetConfig(DMA_HandleTypeDef *hdma, uint32_t SrcAddress, uint32_t DstAddr
  75:./Libraries/STM32H7xx_HAL_Driver/Src/stm32h7xx_hal_dma_ex.c **** 
  76:./Libraries/STM32H7xx_HAL_Driver/Src/stm32h7xx_hal_dma_ex.c **** /**
  77:./Libraries/STM32H7xx_HAL_Driver/Src/stm32h7xx_hal_dma_ex.c ****   * @}
  78:./Libraries/STM32H7xx_HAL_Driver/Src/stm32h7xx_hal_dma_ex.c ****   */
  79:./Libraries/STM32H7xx_HAL_Driver/Src/stm32h7xx_hal_dma_ex.c **** 
  80:./Libraries/STM32H7xx_HAL_Driver/Src/stm32h7xx_hal_dma_ex.c **** /* Exported functions ---------------------------------------------------------*/
  81:./Libraries/STM32H7xx_HAL_Driver/Src/stm32h7xx_hal_dma_ex.c **** 
  82:./Libraries/STM32H7xx_HAL_Driver/Src/stm32h7xx_hal_dma_ex.c **** /** @addtogroup DMAEx_Exported_Functions
  83:./Libraries/STM32H7xx_HAL_Driver/Src/stm32h7xx_hal_dma_ex.c ****   * @{
  84:./Libraries/STM32H7xx_HAL_Driver/Src/stm32h7xx_hal_dma_ex.c ****   */
  85:./Libraries/STM32H7xx_HAL_Driver/Src/stm32h7xx_hal_dma_ex.c **** 
  86:./Libraries/STM32H7xx_HAL_Driver/Src/stm32h7xx_hal_dma_ex.c **** 
  87:./Libraries/STM32H7xx_HAL_Driver/Src/stm32h7xx_hal_dma_ex.c **** /** @addtogroup DMAEx_Exported_Functions_Group1
  88:./Libraries/STM32H7xx_HAL_Driver/Src/stm32h7xx_hal_dma_ex.c ****   *
ARM GAS  /tmp/cc9oZLZ6.s 			page 3


  89:./Libraries/STM32H7xx_HAL_Driver/Src/stm32h7xx_hal_dma_ex.c **** @verbatim
  90:./Libraries/STM32H7xx_HAL_Driver/Src/stm32h7xx_hal_dma_ex.c ****  ===============================================================================
  91:./Libraries/STM32H7xx_HAL_Driver/Src/stm32h7xx_hal_dma_ex.c ****                 #####  Extended features functions  #####
  92:./Libraries/STM32H7xx_HAL_Driver/Src/stm32h7xx_hal_dma_ex.c ****  ===============================================================================
  93:./Libraries/STM32H7xx_HAL_Driver/Src/stm32h7xx_hal_dma_ex.c ****     [..]  This section provides functions allowing to:
  94:./Libraries/STM32H7xx_HAL_Driver/Src/stm32h7xx_hal_dma_ex.c ****       (+) Configure the source, destination address and data length and
  95:./Libraries/STM32H7xx_HAL_Driver/Src/stm32h7xx_hal_dma_ex.c ****           Start MultiBuffer DMA transfer
  96:./Libraries/STM32H7xx_HAL_Driver/Src/stm32h7xx_hal_dma_ex.c ****       (+) Configure the source, destination address and data length and
  97:./Libraries/STM32H7xx_HAL_Driver/Src/stm32h7xx_hal_dma_ex.c ****           Start MultiBuffer DMA transfer with interrupt
  98:./Libraries/STM32H7xx_HAL_Driver/Src/stm32h7xx_hal_dma_ex.c ****       (+) Change on the fly the memory0 or memory1 address.
  99:./Libraries/STM32H7xx_HAL_Driver/Src/stm32h7xx_hal_dma_ex.c ****       (+) Configure the DMA_MUX Synchronization Block using HAL_DMAEx_ConfigMuxSync function.
 100:./Libraries/STM32H7xx_HAL_Driver/Src/stm32h7xx_hal_dma_ex.c ****       (+) Configure the DMA_MUX Request Generator Block using HAL_DMAEx_ConfigMuxRequestGenerator f
 101:./Libraries/STM32H7xx_HAL_Driver/Src/stm32h7xx_hal_dma_ex.c ****       (+) Functions HAL_DMAEx_EnableMuxRequestGenerator and HAL_DMAEx_DisableMuxRequestGenerator ca
 102:./Libraries/STM32H7xx_HAL_Driver/Src/stm32h7xx_hal_dma_ex.c ****           to respectively enable/disable the request generator.
 103:./Libraries/STM32H7xx_HAL_Driver/Src/stm32h7xx_hal_dma_ex.c ****       (+) Handle DMAMUX interrupts using HAL_DMAEx_MUX_IRQHandler : should be called from
 104:./Libraries/STM32H7xx_HAL_Driver/Src/stm32h7xx_hal_dma_ex.c ****           the DMAMUX IRQ handler i.e DMAMUX1_OVR_IRQHandler or DMAMUX2_OVR_IRQHandler
 105:./Libraries/STM32H7xx_HAL_Driver/Src/stm32h7xx_hal_dma_ex.c **** 
 106:./Libraries/STM32H7xx_HAL_Driver/Src/stm32h7xx_hal_dma_ex.c **** @endverbatim
 107:./Libraries/STM32H7xx_HAL_Driver/Src/stm32h7xx_hal_dma_ex.c ****   * @{
 108:./Libraries/STM32H7xx_HAL_Driver/Src/stm32h7xx_hal_dma_ex.c ****   */
 109:./Libraries/STM32H7xx_HAL_Driver/Src/stm32h7xx_hal_dma_ex.c **** 
 110:./Libraries/STM32H7xx_HAL_Driver/Src/stm32h7xx_hal_dma_ex.c **** 
 111:./Libraries/STM32H7xx_HAL_Driver/Src/stm32h7xx_hal_dma_ex.c **** /**
 112:./Libraries/STM32H7xx_HAL_Driver/Src/stm32h7xx_hal_dma_ex.c ****   * @brief  Starts the multi_buffer DMA Transfer.
 113:./Libraries/STM32H7xx_HAL_Driver/Src/stm32h7xx_hal_dma_ex.c ****   * @param  hdma      : pointer to a DMA_HandleTypeDef structure that contains
 114:./Libraries/STM32H7xx_HAL_Driver/Src/stm32h7xx_hal_dma_ex.c ****   *                     the configuration information for the specified DMA Stream.
 115:./Libraries/STM32H7xx_HAL_Driver/Src/stm32h7xx_hal_dma_ex.c ****   * @param  SrcAddress: The source memory Buffer address
 116:./Libraries/STM32H7xx_HAL_Driver/Src/stm32h7xx_hal_dma_ex.c ****   * @param  DstAddress: The destination memory Buffer address
 117:./Libraries/STM32H7xx_HAL_Driver/Src/stm32h7xx_hal_dma_ex.c ****   * @param  SecondMemAddress: The second memory Buffer address in case of multi buffer Transfer
 118:./Libraries/STM32H7xx_HAL_Driver/Src/stm32h7xx_hal_dma_ex.c ****   * @param  DataLength: The length of data to be transferred from source to destination
 119:./Libraries/STM32H7xx_HAL_Driver/Src/stm32h7xx_hal_dma_ex.c ****   * @retval HAL status
 120:./Libraries/STM32H7xx_HAL_Driver/Src/stm32h7xx_hal_dma_ex.c ****   */
 121:./Libraries/STM32H7xx_HAL_Driver/Src/stm32h7xx_hal_dma_ex.c **** HAL_StatusTypeDef HAL_DMAEx_MultiBufferStart(DMA_HandleTypeDef *hdma, uint32_t SrcAddress, uint32_t
 122:./Libraries/STM32H7xx_HAL_Driver/Src/stm32h7xx_hal_dma_ex.c **** {
  28              		.loc 1 122 1
  29              		.cfi_startproc
  30              		@ args = 4, pretend = 0, frame = 24
  31              		@ frame_needed = 1, uses_anonymous_args = 0
  32 0000 80B5     		push	{r7, lr}
  33              	.LCFI0:
  34              		.cfi_def_cfa_offset 8
  35              		.cfi_offset 7, -8
  36              		.cfi_offset 14, -4
  37 0002 86B0     		sub	sp, sp, #24
  38              	.LCFI1:
  39              		.cfi_def_cfa_offset 32
  40 0004 00AF     		add	r7, sp, #0
  41              	.LCFI2:
  42              		.cfi_def_cfa_register 7
  43 0006 F860     		str	r0, [r7, #12]
  44 0008 B960     		str	r1, [r7, #8]
  45 000a 7A60     		str	r2, [r7, #4]
  46 000c 3B60     		str	r3, [r7]
 123:./Libraries/STM32H7xx_HAL_Driver/Src/stm32h7xx_hal_dma_ex.c ****   HAL_StatusTypeDef status = HAL_OK;
  47              		.loc 1 123 21
  48 000e 0023     		movs	r3, #0
  49 0010 FB75     		strb	r3, [r7, #23]
ARM GAS  /tmp/cc9oZLZ6.s 			page 4


 124:./Libraries/STM32H7xx_HAL_Driver/Src/stm32h7xx_hal_dma_ex.c ****   __IO uint32_t *ifcRegister_Base; /* DMA Stream Interrupt Clear register */
 125:./Libraries/STM32H7xx_HAL_Driver/Src/stm32h7xx_hal_dma_ex.c **** 
 126:./Libraries/STM32H7xx_HAL_Driver/Src/stm32h7xx_hal_dma_ex.c ****   /* Check the parameters */
 127:./Libraries/STM32H7xx_HAL_Driver/Src/stm32h7xx_hal_dma_ex.c ****   assert_param(IS_DMA_BUFFER_SIZE(DataLength));
 128:./Libraries/STM32H7xx_HAL_Driver/Src/stm32h7xx_hal_dma_ex.c ****   assert_param(IS_DMA_ALL_INSTANCE(hdma->Instance));
 129:./Libraries/STM32H7xx_HAL_Driver/Src/stm32h7xx_hal_dma_ex.c **** 
 130:./Libraries/STM32H7xx_HAL_Driver/Src/stm32h7xx_hal_dma_ex.c ****   /* Memory-to-memory transfer not supported in double buffering mode */
 131:./Libraries/STM32H7xx_HAL_Driver/Src/stm32h7xx_hal_dma_ex.c ****   if (hdma->Init.Direction == DMA_MEMORY_TO_MEMORY)
  50              		.loc 1 131 17
  51 0012 FB68     		ldr	r3, [r7, #12]
  52 0014 9B68     		ldr	r3, [r3, #8]
  53              		.loc 1 131 6
  54 0016 802B     		cmp	r3, #128
  55 0018 06D1     		bne	.L2
 132:./Libraries/STM32H7xx_HAL_Driver/Src/stm32h7xx_hal_dma_ex.c ****   {
 133:./Libraries/STM32H7xx_HAL_Driver/Src/stm32h7xx_hal_dma_ex.c ****     hdma->ErrorCode = HAL_DMA_ERROR_NOT_SUPPORTED;
  56              		.loc 1 133 21
  57 001a FB68     		ldr	r3, [r7, #12]
  58 001c 4FF48072 		mov	r2, #256
  59 0020 5A65     		str	r2, [r3, #84]
 134:./Libraries/STM32H7xx_HAL_Driver/Src/stm32h7xx_hal_dma_ex.c ****     status = HAL_ERROR;
  60              		.loc 1 134 12
  61 0022 0123     		movs	r3, #1
  62 0024 FB75     		strb	r3, [r7, #23]
  63 0026 C8E1     		b	.L3
  64              	.L2:
 135:./Libraries/STM32H7xx_HAL_Driver/Src/stm32h7xx_hal_dma_ex.c ****   }
 136:./Libraries/STM32H7xx_HAL_Driver/Src/stm32h7xx_hal_dma_ex.c ****   else
 137:./Libraries/STM32H7xx_HAL_Driver/Src/stm32h7xx_hal_dma_ex.c ****   {
 138:./Libraries/STM32H7xx_HAL_Driver/Src/stm32h7xx_hal_dma_ex.c ****     /* Process Locked */
 139:./Libraries/STM32H7xx_HAL_Driver/Src/stm32h7xx_hal_dma_ex.c ****     __HAL_LOCK(hdma);
  65              		.loc 1 139 5
  66 0028 FB68     		ldr	r3, [r7, #12]
  67 002a 93F83430 		ldrb	r3, [r3, #52]	@ zero_extendqisi2
  68 002e 012B     		cmp	r3, #1
  69 0030 01D1     		bne	.L4
  70              		.loc 1 139 5 is_stmt 0 discriminator 1
  71 0032 0223     		movs	r3, #2
  72 0034 C2E1     		b	.L5
  73              	.L4:
  74              		.loc 1 139 5 discriminator 2
  75 0036 FB68     		ldr	r3, [r7, #12]
  76 0038 0122     		movs	r2, #1
  77 003a 83F83420 		strb	r2, [r3, #52]
 140:./Libraries/STM32H7xx_HAL_Driver/Src/stm32h7xx_hal_dma_ex.c **** 
 141:./Libraries/STM32H7xx_HAL_Driver/Src/stm32h7xx_hal_dma_ex.c ****     if(HAL_DMA_STATE_READY == hdma->State)
  78              		.loc 1 141 35 is_stmt 1 discriminator 2
  79 003e FB68     		ldr	r3, [r7, #12]
  80 0040 93F83530 		ldrb	r3, [r3, #53]
  81 0044 DBB2     		uxtb	r3, r3
  82              		.loc 1 141 7 discriminator 2
  83 0046 012B     		cmp	r3, #1
  84 0048 40F0B181 		bne	.L6
 142:./Libraries/STM32H7xx_HAL_Driver/Src/stm32h7xx_hal_dma_ex.c ****     {
 143:./Libraries/STM32H7xx_HAL_Driver/Src/stm32h7xx_hal_dma_ex.c ****       /* Change DMA peripheral state */
 144:./Libraries/STM32H7xx_HAL_Driver/Src/stm32h7xx_hal_dma_ex.c ****       hdma->State = HAL_DMA_STATE_BUSY;
  85              		.loc 1 144 19
ARM GAS  /tmp/cc9oZLZ6.s 			page 5


  86 004c FB68     		ldr	r3, [r7, #12]
  87 004e 0222     		movs	r2, #2
  88 0050 83F83520 		strb	r2, [r3, #53]
 145:./Libraries/STM32H7xx_HAL_Driver/Src/stm32h7xx_hal_dma_ex.c **** 
 146:./Libraries/STM32H7xx_HAL_Driver/Src/stm32h7xx_hal_dma_ex.c ****       /* Initialize the error code */
 147:./Libraries/STM32H7xx_HAL_Driver/Src/stm32h7xx_hal_dma_ex.c ****       hdma->ErrorCode = HAL_DMA_ERROR_NONE;
  89              		.loc 1 147 23
  90 0054 FB68     		ldr	r3, [r7, #12]
  91 0056 0022     		movs	r2, #0
  92 0058 5A65     		str	r2, [r3, #84]
 148:./Libraries/STM32H7xx_HAL_Driver/Src/stm32h7xx_hal_dma_ex.c **** 
 149:./Libraries/STM32H7xx_HAL_Driver/Src/stm32h7xx_hal_dma_ex.c ****       if(IS_DMA_STREAM_INSTANCE(hdma->Instance) != 0U) /* DMA1 or DMA2 instance */
  93              		.loc 1 149 10
  94 005a FB68     		ldr	r3, [r7, #12]
  95 005c 1B68     		ldr	r3, [r3]
  96 005e 7F4A     		ldr	r2, .L19
  97 0060 9342     		cmp	r3, r2
  98 0062 4AD0     		beq	.L7
  99              		.loc 1 149 10 is_stmt 0 discriminator 2
 100 0064 FB68     		ldr	r3, [r7, #12]
 101 0066 1B68     		ldr	r3, [r3]
 102 0068 7D4A     		ldr	r2, .L19+4
 103 006a 9342     		cmp	r3, r2
 104 006c 45D0     		beq	.L7
 105              		.loc 1 149 10 discriminator 4
 106 006e FB68     		ldr	r3, [r7, #12]
 107 0070 1B68     		ldr	r3, [r3]
 108 0072 7C4A     		ldr	r2, .L19+8
 109 0074 9342     		cmp	r3, r2
 110 0076 40D0     		beq	.L7
 111              		.loc 1 149 10 discriminator 6
 112 0078 FB68     		ldr	r3, [r7, #12]
 113 007a 1B68     		ldr	r3, [r3]
 114 007c 7A4A     		ldr	r2, .L19+12
 115 007e 9342     		cmp	r3, r2
 116 0080 3BD0     		beq	.L7
 117              		.loc 1 149 10 discriminator 8
 118 0082 FB68     		ldr	r3, [r7, #12]
 119 0084 1B68     		ldr	r3, [r3]
 120 0086 794A     		ldr	r2, .L19+16
 121 0088 9342     		cmp	r3, r2
 122 008a 36D0     		beq	.L7
 123              		.loc 1 149 10 discriminator 10
 124 008c FB68     		ldr	r3, [r7, #12]
 125 008e 1B68     		ldr	r3, [r3]
 126 0090 774A     		ldr	r2, .L19+20
 127 0092 9342     		cmp	r3, r2
 128 0094 31D0     		beq	.L7
 129              		.loc 1 149 10 discriminator 12
 130 0096 FB68     		ldr	r3, [r7, #12]
 131 0098 1B68     		ldr	r3, [r3]
 132 009a 764A     		ldr	r2, .L19+24
 133 009c 9342     		cmp	r3, r2
 134 009e 2CD0     		beq	.L7
 135              		.loc 1 149 10 discriminator 14
 136 00a0 FB68     		ldr	r3, [r7, #12]
 137 00a2 1B68     		ldr	r3, [r3]
ARM GAS  /tmp/cc9oZLZ6.s 			page 6


 138 00a4 744A     		ldr	r2, .L19+28
 139 00a6 9342     		cmp	r3, r2
 140 00a8 27D0     		beq	.L7
 141              		.loc 1 149 10 discriminator 16
 142 00aa FB68     		ldr	r3, [r7, #12]
 143 00ac 1B68     		ldr	r3, [r3]
 144 00ae 734A     		ldr	r2, .L19+32
 145 00b0 9342     		cmp	r3, r2
 146 00b2 22D0     		beq	.L7
 147              		.loc 1 149 10 discriminator 18
 148 00b4 FB68     		ldr	r3, [r7, #12]
 149 00b6 1B68     		ldr	r3, [r3]
 150 00b8 714A     		ldr	r2, .L19+36
 151 00ba 9342     		cmp	r3, r2
 152 00bc 1DD0     		beq	.L7
 153              		.loc 1 149 10 discriminator 20
 154 00be FB68     		ldr	r3, [r7, #12]
 155 00c0 1B68     		ldr	r3, [r3]
 156 00c2 704A     		ldr	r2, .L19+40
 157 00c4 9342     		cmp	r3, r2
 158 00c6 18D0     		beq	.L7
 159              		.loc 1 149 10 discriminator 22
 160 00c8 FB68     		ldr	r3, [r7, #12]
 161 00ca 1B68     		ldr	r3, [r3]
 162 00cc 6E4A     		ldr	r2, .L19+44
 163 00ce 9342     		cmp	r3, r2
 164 00d0 13D0     		beq	.L7
 165              		.loc 1 149 10 discriminator 24
 166 00d2 FB68     		ldr	r3, [r7, #12]
 167 00d4 1B68     		ldr	r3, [r3]
 168 00d6 6D4A     		ldr	r2, .L19+48
 169 00d8 9342     		cmp	r3, r2
 170 00da 0ED0     		beq	.L7
 171              		.loc 1 149 10 discriminator 26
 172 00dc FB68     		ldr	r3, [r7, #12]
 173 00de 1B68     		ldr	r3, [r3]
 174 00e0 6B4A     		ldr	r2, .L19+52
 175 00e2 9342     		cmp	r3, r2
 176 00e4 09D0     		beq	.L7
 177              		.loc 1 149 10 discriminator 28
 178 00e6 FB68     		ldr	r3, [r7, #12]
 179 00e8 1B68     		ldr	r3, [r3]
 180 00ea 6A4A     		ldr	r2, .L19+56
 181 00ec 9342     		cmp	r3, r2
 182 00ee 04D0     		beq	.L7
 183              		.loc 1 149 10 discriminator 30
 184 00f0 FB68     		ldr	r3, [r7, #12]
 185 00f2 1B68     		ldr	r3, [r3]
 186 00f4 684A     		ldr	r2, .L19+60
 187 00f6 9342     		cmp	r3, r2
 188 00f8 01D1     		bne	.L8
 189              	.L7:
 190              		.loc 1 149 10 discriminator 31
 191 00fa 0123     		movs	r3, #1
 192 00fc 00E0     		b	.L9
 193              	.L8:
 194              		.loc 1 149 10 discriminator 32
ARM GAS  /tmp/cc9oZLZ6.s 			page 7


 195 00fe 0023     		movs	r3, #0
 196              	.L9:
 197              		.loc 1 149 9 is_stmt 1 discriminator 34
 198 0100 002B     		cmp	r3, #0
 199 0102 18D0     		beq	.L10
 150:./Libraries/STM32H7xx_HAL_Driver/Src/stm32h7xx_hal_dma_ex.c ****       {
 151:./Libraries/STM32H7xx_HAL_Driver/Src/stm32h7xx_hal_dma_ex.c ****         /* Enable the Double buffer mode */
 152:./Libraries/STM32H7xx_HAL_Driver/Src/stm32h7xx_hal_dma_ex.c ****         ((DMA_Stream_TypeDef   *)hdma->Instance)->CR |= DMA_SxCR_DBM;
 200              		.loc 1 152 38
 201 0104 FB68     		ldr	r3, [r7, #12]
 202 0106 1B68     		ldr	r3, [r3]
 203              		.loc 1 152 54
 204 0108 1A68     		ldr	r2, [r3]
 205              		.loc 1 152 38
 206 010a FB68     		ldr	r3, [r7, #12]
 207 010c 1B68     		ldr	r3, [r3]
 208              		.loc 1 152 54
 209 010e 42F48022 		orr	r2, r2, #262144
 210 0112 1A60     		str	r2, [r3]
 153:./Libraries/STM32H7xx_HAL_Driver/Src/stm32h7xx_hal_dma_ex.c **** 
 154:./Libraries/STM32H7xx_HAL_Driver/Src/stm32h7xx_hal_dma_ex.c ****         /* Configure DMA Stream destination address */
 155:./Libraries/STM32H7xx_HAL_Driver/Src/stm32h7xx_hal_dma_ex.c ****         ((DMA_Stream_TypeDef   *)hdma->Instance)->M1AR = SecondMemAddress;
 211              		.loc 1 155 38
 212 0114 FB68     		ldr	r3, [r7, #12]
 213 0116 1B68     		ldr	r3, [r3]
 214              		.loc 1 155 56
 215 0118 3A68     		ldr	r2, [r7]
 216 011a 1A61     		str	r2, [r3, #16]
 156:./Libraries/STM32H7xx_HAL_Driver/Src/stm32h7xx_hal_dma_ex.c **** 
 157:./Libraries/STM32H7xx_HAL_Driver/Src/stm32h7xx_hal_dma_ex.c ****         /* Calculate the interrupt clear flag register (IFCR) base address  */
 158:./Libraries/STM32H7xx_HAL_Driver/Src/stm32h7xx_hal_dma_ex.c ****         ifcRegister_Base = (uint32_t *)((uint32_t)(hdma->StreamBaseAddress + 8U));
 217              		.loc 1 158 56
 218 011c FB68     		ldr	r3, [r7, #12]
 219 011e 9B6D     		ldr	r3, [r3, #88]
 220              		.loc 1 158 41
 221 0120 0833     		adds	r3, r3, #8
 222              		.loc 1 158 26
 223 0122 3B61     		str	r3, [r7, #16]
 159:./Libraries/STM32H7xx_HAL_Driver/Src/stm32h7xx_hal_dma_ex.c **** 
 160:./Libraries/STM32H7xx_HAL_Driver/Src/stm32h7xx_hal_dma_ex.c ****         /* Clear all flags */
 161:./Libraries/STM32H7xx_HAL_Driver/Src/stm32h7xx_hal_dma_ex.c ****         *ifcRegister_Base = 0x3FUL << (hdma->StreamIndex & 0x1FU);
 224              		.loc 1 161 44
 225 0124 FB68     		ldr	r3, [r7, #12]
 226 0126 DB6D     		ldr	r3, [r3, #92]
 227              		.loc 1 161 58
 228 0128 03F01F03 		and	r3, r3, #31
 229              		.loc 1 161 36
 230 012c 3F22     		movs	r2, #63
 231 012e 9A40     		lsls	r2, r2, r3
 232              		.loc 1 161 27
 233 0130 3B69     		ldr	r3, [r7, #16]
 234 0132 1A60     		str	r2, [r3]
 235 0134 18E0     		b	.L11
 236              	.L10:
 162:./Libraries/STM32H7xx_HAL_Driver/Src/stm32h7xx_hal_dma_ex.c ****       }
 163:./Libraries/STM32H7xx_HAL_Driver/Src/stm32h7xx_hal_dma_ex.c ****       else /* BDMA instance(s) */
 164:./Libraries/STM32H7xx_HAL_Driver/Src/stm32h7xx_hal_dma_ex.c ****       {
ARM GAS  /tmp/cc9oZLZ6.s 			page 8


 165:./Libraries/STM32H7xx_HAL_Driver/Src/stm32h7xx_hal_dma_ex.c ****         /* Enable the Double buffer mode */
 166:./Libraries/STM32H7xx_HAL_Driver/Src/stm32h7xx_hal_dma_ex.c ****         ((BDMA_Channel_TypeDef   *)hdma->Instance)->CCR |= (BDMA_CCR_DBM | BDMA_CCR_CIRC);
 237              		.loc 1 166 40
 238 0136 FB68     		ldr	r3, [r7, #12]
 239 0138 1B68     		ldr	r3, [r3]
 240              		.loc 1 166 57
 241 013a 1968     		ldr	r1, [r3]
 242              		.loc 1 166 40
 243 013c FB68     		ldr	r3, [r7, #12]
 244 013e 1A68     		ldr	r2, [r3]
 245              		.loc 1 166 57
 246 0140 48F22003 		movw	r3, #32800
 247 0144 0B43     		orrs	r3, r3, r1
 248 0146 1360     		str	r3, [r2]
 167:./Libraries/STM32H7xx_HAL_Driver/Src/stm32h7xx_hal_dma_ex.c **** 
 168:./Libraries/STM32H7xx_HAL_Driver/Src/stm32h7xx_hal_dma_ex.c ****         /* Configure DMA Stream destination address */
 169:./Libraries/STM32H7xx_HAL_Driver/Src/stm32h7xx_hal_dma_ex.c ****         ((BDMA_Channel_TypeDef   *)hdma->Instance)->CM1AR = SecondMemAddress;
 249              		.loc 1 169 40
 250 0148 FB68     		ldr	r3, [r7, #12]
 251 014a 1B68     		ldr	r3, [r3]
 252              		.loc 1 169 59
 253 014c 3A68     		ldr	r2, [r7]
 254 014e 1A61     		str	r2, [r3, #16]
 170:./Libraries/STM32H7xx_HAL_Driver/Src/stm32h7xx_hal_dma_ex.c **** 
 171:./Libraries/STM32H7xx_HAL_Driver/Src/stm32h7xx_hal_dma_ex.c ****         /* Calculate the interrupt clear flag register (IFCR) base address  */
 172:./Libraries/STM32H7xx_HAL_Driver/Src/stm32h7xx_hal_dma_ex.c ****         ifcRegister_Base = (uint32_t *)((uint32_t)(hdma->StreamBaseAddress + 4U));
 255              		.loc 1 172 56
 256 0150 FB68     		ldr	r3, [r7, #12]
 257 0152 9B6D     		ldr	r3, [r3, #88]
 258              		.loc 1 172 41
 259 0154 0433     		adds	r3, r3, #4
 260              		.loc 1 172 26
 261 0156 3B61     		str	r3, [r7, #16]
 173:./Libraries/STM32H7xx_HAL_Driver/Src/stm32h7xx_hal_dma_ex.c **** 
 174:./Libraries/STM32H7xx_HAL_Driver/Src/stm32h7xx_hal_dma_ex.c ****         /* Clear all flags */
 175:./Libraries/STM32H7xx_HAL_Driver/Src/stm32h7xx_hal_dma_ex.c ****         *ifcRegister_Base = (BDMA_ISR_GIF0) << (hdma->StreamIndex & 0x1FU);
 262              		.loc 1 175 53
 263 0158 FB68     		ldr	r3, [r7, #12]
 264 015a DB6D     		ldr	r3, [r3, #92]
 265              		.loc 1 175 67
 266 015c 03F01F03 		and	r3, r3, #31
 267              		.loc 1 175 45
 268 0160 0122     		movs	r2, #1
 269 0162 9A40     		lsls	r2, r2, r3
 270              		.loc 1 175 27
 271 0164 3B69     		ldr	r3, [r7, #16]
 272 0166 1A60     		str	r2, [r3]
 273              	.L11:
 176:./Libraries/STM32H7xx_HAL_Driver/Src/stm32h7xx_hal_dma_ex.c ****       }
 177:./Libraries/STM32H7xx_HAL_Driver/Src/stm32h7xx_hal_dma_ex.c **** 
 178:./Libraries/STM32H7xx_HAL_Driver/Src/stm32h7xx_hal_dma_ex.c ****       if(IS_DMA_DMAMUX_ALL_INSTANCE(hdma->Instance) != 0U) /* No DMAMUX available for BDMA1 */
 274              		.loc 1 178 10
 275 0168 FB68     		ldr	r3, [r7, #12]
 276 016a 1B68     		ldr	r3, [r3]
 277 016c 3B4A     		ldr	r2, .L19
 278 016e 9342     		cmp	r3, r2
 279 0170 72D0     		beq	.L12
ARM GAS  /tmp/cc9oZLZ6.s 			page 9


 280              		.loc 1 178 10 is_stmt 0 discriminator 2
 281 0172 FB68     		ldr	r3, [r7, #12]
 282 0174 1B68     		ldr	r3, [r3]
 283 0176 3A4A     		ldr	r2, .L19+4
 284 0178 9342     		cmp	r3, r2
 285 017a 6DD0     		beq	.L12
 286              		.loc 1 178 10 discriminator 4
 287 017c FB68     		ldr	r3, [r7, #12]
 288 017e 1B68     		ldr	r3, [r3]
 289 0180 384A     		ldr	r2, .L19+8
 290 0182 9342     		cmp	r3, r2
 291 0184 68D0     		beq	.L12
 292              		.loc 1 178 10 discriminator 6
 293 0186 FB68     		ldr	r3, [r7, #12]
 294 0188 1B68     		ldr	r3, [r3]
 295 018a 374A     		ldr	r2, .L19+12
 296 018c 9342     		cmp	r3, r2
 297 018e 63D0     		beq	.L12
 298              		.loc 1 178 10 discriminator 8
 299 0190 FB68     		ldr	r3, [r7, #12]
 300 0192 1B68     		ldr	r3, [r3]
 301 0194 354A     		ldr	r2, .L19+16
 302 0196 9342     		cmp	r3, r2
 303 0198 5ED0     		beq	.L12
 304              		.loc 1 178 10 discriminator 10
 305 019a FB68     		ldr	r3, [r7, #12]
 306 019c 1B68     		ldr	r3, [r3]
 307 019e 344A     		ldr	r2, .L19+20
 308 01a0 9342     		cmp	r3, r2
 309 01a2 59D0     		beq	.L12
 310              		.loc 1 178 10 discriminator 12
 311 01a4 FB68     		ldr	r3, [r7, #12]
 312 01a6 1B68     		ldr	r3, [r3]
 313 01a8 324A     		ldr	r2, .L19+24
 314 01aa 9342     		cmp	r3, r2
 315 01ac 54D0     		beq	.L12
 316              		.loc 1 178 10 discriminator 14
 317 01ae FB68     		ldr	r3, [r7, #12]
 318 01b0 1B68     		ldr	r3, [r3]
 319 01b2 314A     		ldr	r2, .L19+28
 320 01b4 9342     		cmp	r3, r2
 321 01b6 4FD0     		beq	.L12
 322              		.loc 1 178 10 discriminator 16
 323 01b8 FB68     		ldr	r3, [r7, #12]
 324 01ba 1B68     		ldr	r3, [r3]
 325 01bc 2F4A     		ldr	r2, .L19+32
 326 01be 9342     		cmp	r3, r2
 327 01c0 4AD0     		beq	.L12
 328              		.loc 1 178 10 discriminator 18
 329 01c2 FB68     		ldr	r3, [r7, #12]
 330 01c4 1B68     		ldr	r3, [r3]
 331 01c6 2E4A     		ldr	r2, .L19+36
 332 01c8 9342     		cmp	r3, r2
 333 01ca 45D0     		beq	.L12
 334              		.loc 1 178 10 discriminator 20
 335 01cc FB68     		ldr	r3, [r7, #12]
 336 01ce 1B68     		ldr	r3, [r3]
ARM GAS  /tmp/cc9oZLZ6.s 			page 10


 337 01d0 2C4A     		ldr	r2, .L19+40
 338 01d2 9342     		cmp	r3, r2
 339 01d4 40D0     		beq	.L12
 340              		.loc 1 178 10 discriminator 22
 341 01d6 FB68     		ldr	r3, [r7, #12]
 342 01d8 1B68     		ldr	r3, [r3]
 343 01da 2B4A     		ldr	r2, .L19+44
 344 01dc 9342     		cmp	r3, r2
 345 01de 3BD0     		beq	.L12
 346              		.loc 1 178 10 discriminator 24
 347 01e0 FB68     		ldr	r3, [r7, #12]
 348 01e2 1B68     		ldr	r3, [r3]
 349 01e4 294A     		ldr	r2, .L19+48
 350 01e6 9342     		cmp	r3, r2
 351 01e8 36D0     		beq	.L12
 352              		.loc 1 178 10 discriminator 26
 353 01ea FB68     		ldr	r3, [r7, #12]
 354 01ec 1B68     		ldr	r3, [r3]
 355 01ee 284A     		ldr	r2, .L19+52
 356 01f0 9342     		cmp	r3, r2
 357 01f2 31D0     		beq	.L12
 358              		.loc 1 178 10 discriminator 28
 359 01f4 FB68     		ldr	r3, [r7, #12]
 360 01f6 1B68     		ldr	r3, [r3]
 361 01f8 264A     		ldr	r2, .L19+56
 362 01fa 9342     		cmp	r3, r2
 363 01fc 2CD0     		beq	.L12
 364              		.loc 1 178 10 discriminator 30
 365 01fe FB68     		ldr	r3, [r7, #12]
 366 0200 1B68     		ldr	r3, [r3]
 367 0202 254A     		ldr	r2, .L19+60
 368 0204 9342     		cmp	r3, r2
 369 0206 27D0     		beq	.L12
 370              		.loc 1 178 10 discriminator 32
 371 0208 FB68     		ldr	r3, [r7, #12]
 372 020a 1B68     		ldr	r3, [r3]
 373 020c 234A     		ldr	r2, .L19+64
 374 020e 9342     		cmp	r3, r2
 375 0210 22D0     		beq	.L12
 376              		.loc 1 178 10 discriminator 34
 377 0212 FB68     		ldr	r3, [r7, #12]
 378 0214 1B68     		ldr	r3, [r3]
 379 0216 224A     		ldr	r2, .L19+68
 380 0218 9342     		cmp	r3, r2
 381 021a 1DD0     		beq	.L12
 382              		.loc 1 178 10 discriminator 36
 383 021c FB68     		ldr	r3, [r7, #12]
 384 021e 1B68     		ldr	r3, [r3]
 385 0220 204A     		ldr	r2, .L19+72
 386 0222 9342     		cmp	r3, r2
 387 0224 18D0     		beq	.L12
 388              		.loc 1 178 10 discriminator 38
 389 0226 FB68     		ldr	r3, [r7, #12]
 390 0228 1B68     		ldr	r3, [r3]
 391 022a 1F4A     		ldr	r2, .L19+76
 392 022c 9342     		cmp	r3, r2
 393 022e 13D0     		beq	.L12
ARM GAS  /tmp/cc9oZLZ6.s 			page 11


 394              		.loc 1 178 10 discriminator 40
 395 0230 FB68     		ldr	r3, [r7, #12]
 396 0232 1B68     		ldr	r3, [r3]
 397 0234 1D4A     		ldr	r2, .L19+80
 398 0236 9342     		cmp	r3, r2
 399 0238 0ED0     		beq	.L12
 400              		.loc 1 178 10 discriminator 42
 401 023a FB68     		ldr	r3, [r7, #12]
 402 023c 1B68     		ldr	r3, [r3]
 403 023e 1C4A     		ldr	r2, .L19+84
 404 0240 9342     		cmp	r3, r2
 405 0242 09D0     		beq	.L12
 406              		.loc 1 178 10 discriminator 44
 407 0244 FB68     		ldr	r3, [r7, #12]
 408 0246 1B68     		ldr	r3, [r3]
 409 0248 1A4A     		ldr	r2, .L19+88
 410 024a 9342     		cmp	r3, r2
 411 024c 04D0     		beq	.L12
 412              		.loc 1 178 10 discriminator 46
 413 024e FB68     		ldr	r3, [r7, #12]
 414 0250 1B68     		ldr	r3, [r3]
 415 0252 194A     		ldr	r2, .L19+92
 416 0254 9342     		cmp	r3, r2
 417 0256 31D1     		bne	.L13
 418              	.L12:
 419              		.loc 1 178 10 discriminator 47
 420 0258 0123     		movs	r3, #1
 421 025a 30E0     		b	.L14
 422              	.L20:
 423              		.align	2
 424              	.L19:
 425 025c 10000240 		.word	1073872912
 426 0260 28000240 		.word	1073872936
 427 0264 40000240 		.word	1073872960
 428 0268 58000240 		.word	1073872984
 429 026c 70000240 		.word	1073873008
 430 0270 88000240 		.word	1073873032
 431 0274 A0000240 		.word	1073873056
 432 0278 B8000240 		.word	1073873080
 433 027c 10040240 		.word	1073873936
 434 0280 28040240 		.word	1073873960
 435 0284 40040240 		.word	1073873984
 436 0288 58040240 		.word	1073874008
 437 028c 70040240 		.word	1073874032
 438 0290 88040240 		.word	1073874056
 439 0294 A0040240 		.word	1073874080
 440 0298 B8040240 		.word	1073874104
 441 029c 08540258 		.word	1476547592
 442 02a0 1C540258 		.word	1476547612
 443 02a4 30540258 		.word	1476547632
 444 02a8 44540258 		.word	1476547652
 445 02ac 58540258 		.word	1476547672
 446 02b0 6C540258 		.word	1476547692
 447 02b4 80540258 		.word	1476547712
 448 02b8 94540258 		.word	1476547732
 449              	.L13:
 450              		.loc 1 178 10 discriminator 48
ARM GAS  /tmp/cc9oZLZ6.s 			page 12


 451 02bc 0023     		movs	r3, #0
 452              	.L14:
 453              		.loc 1 178 9 is_stmt 1 discriminator 50
 454 02be 002B     		cmp	r3, #0
 455 02c0 13D0     		beq	.L15
 179:./Libraries/STM32H7xx_HAL_Driver/Src/stm32h7xx_hal_dma_ex.c ****       {
 180:./Libraries/STM32H7xx_HAL_Driver/Src/stm32h7xx_hal_dma_ex.c ****         /* Configure the source, destination address and the data length */
 181:./Libraries/STM32H7xx_HAL_Driver/Src/stm32h7xx_hal_dma_ex.c ****         DMA_MultiBufferSetConfig(hdma, SrcAddress, DstAddress, DataLength);
 456              		.loc 1 181 9
 457 02c2 3B6A     		ldr	r3, [r7, #32]
 458 02c4 7A68     		ldr	r2, [r7, #4]
 459 02c6 B968     		ldr	r1, [r7, #8]
 460 02c8 F868     		ldr	r0, [r7, #12]
 461 02ca FFF7FEFF 		bl	DMA_MultiBufferSetConfig
 182:./Libraries/STM32H7xx_HAL_Driver/Src/stm32h7xx_hal_dma_ex.c **** 
 183:./Libraries/STM32H7xx_HAL_Driver/Src/stm32h7xx_hal_dma_ex.c ****         /* Clear the DMAMUX synchro overrun flag */
 184:./Libraries/STM32H7xx_HAL_Driver/Src/stm32h7xx_hal_dma_ex.c ****         hdma->DMAmuxChannelStatus->CFR = hdma->DMAmuxChannelStatusMask;
 462              		.loc 1 184 13
 463 02ce FB68     		ldr	r3, [r7, #12]
 464 02d0 5B6E     		ldr	r3, [r3, #100]
 465              		.loc 1 184 46
 466 02d2 FA68     		ldr	r2, [r7, #12]
 467 02d4 926E     		ldr	r2, [r2, #104]
 468              		.loc 1 184 40
 469 02d6 5A60     		str	r2, [r3, #4]
 185:./Libraries/STM32H7xx_HAL_Driver/Src/stm32h7xx_hal_dma_ex.c **** 
 186:./Libraries/STM32H7xx_HAL_Driver/Src/stm32h7xx_hal_dma_ex.c ****         if(hdma->DMAmuxRequestGen != 0U)
 470              		.loc 1 186 16
 471 02d8 FB68     		ldr	r3, [r7, #12]
 472 02da DB6E     		ldr	r3, [r3, #108]
 473              		.loc 1 186 11
 474 02dc 002B     		cmp	r3, #0
 475 02de 04D0     		beq	.L15
 187:./Libraries/STM32H7xx_HAL_Driver/Src/stm32h7xx_hal_dma_ex.c ****         {
 188:./Libraries/STM32H7xx_HAL_Driver/Src/stm32h7xx_hal_dma_ex.c ****           /* Clear the DMAMUX request generator overrun flag */
 189:./Libraries/STM32H7xx_HAL_Driver/Src/stm32h7xx_hal_dma_ex.c ****           hdma->DMAmuxRequestGenStatus->RGCFR = hdma->DMAmuxRequestGenStatusMask;
 476              		.loc 1 189 15
 477 02e0 FB68     		ldr	r3, [r7, #12]
 478 02e2 1B6F     		ldr	r3, [r3, #112]
 479              		.loc 1 189 53
 480 02e4 FA68     		ldr	r2, [r7, #12]
 481 02e6 526F     		ldr	r2, [r2, #116]
 482              		.loc 1 189 47
 483 02e8 5A60     		str	r2, [r3, #4]
 484              	.L15:
 190:./Libraries/STM32H7xx_HAL_Driver/Src/stm32h7xx_hal_dma_ex.c ****         }
 191:./Libraries/STM32H7xx_HAL_Driver/Src/stm32h7xx_hal_dma_ex.c ****       }
 192:./Libraries/STM32H7xx_HAL_Driver/Src/stm32h7xx_hal_dma_ex.c **** 
 193:./Libraries/STM32H7xx_HAL_Driver/Src/stm32h7xx_hal_dma_ex.c ****       /* Enable the peripheral */
 194:./Libraries/STM32H7xx_HAL_Driver/Src/stm32h7xx_hal_dma_ex.c ****       __HAL_DMA_ENABLE(hdma);
 485              		.loc 1 194 7
 486 02ea FB68     		ldr	r3, [r7, #12]
 487 02ec 1B68     		ldr	r3, [r3]
 488 02ee 354A     		ldr	r2, .L21
 489 02f0 9342     		cmp	r3, r2
 490 02f2 4AD0     		beq	.L16
 491              		.loc 1 194 7 is_stmt 0 discriminator 2
ARM GAS  /tmp/cc9oZLZ6.s 			page 13


 492 02f4 FB68     		ldr	r3, [r7, #12]
 493 02f6 1B68     		ldr	r3, [r3]
 494 02f8 334A     		ldr	r2, .L21+4
 495 02fa 9342     		cmp	r3, r2
 496 02fc 45D0     		beq	.L16
 497              		.loc 1 194 7 discriminator 4
 498 02fe FB68     		ldr	r3, [r7, #12]
 499 0300 1B68     		ldr	r3, [r3]
 500 0302 324A     		ldr	r2, .L21+8
 501 0304 9342     		cmp	r3, r2
 502 0306 40D0     		beq	.L16
 503              		.loc 1 194 7 discriminator 6
 504 0308 FB68     		ldr	r3, [r7, #12]
 505 030a 1B68     		ldr	r3, [r3]
 506 030c 304A     		ldr	r2, .L21+12
 507 030e 9342     		cmp	r3, r2
 508 0310 3BD0     		beq	.L16
 509              		.loc 1 194 7 discriminator 8
 510 0312 FB68     		ldr	r3, [r7, #12]
 511 0314 1B68     		ldr	r3, [r3]
 512 0316 2F4A     		ldr	r2, .L21+16
 513 0318 9342     		cmp	r3, r2
 514 031a 36D0     		beq	.L16
 515              		.loc 1 194 7 discriminator 10
 516 031c FB68     		ldr	r3, [r7, #12]
 517 031e 1B68     		ldr	r3, [r3]
 518 0320 2D4A     		ldr	r2, .L21+20
 519 0322 9342     		cmp	r3, r2
 520 0324 31D0     		beq	.L16
 521              		.loc 1 194 7 discriminator 12
 522 0326 FB68     		ldr	r3, [r7, #12]
 523 0328 1B68     		ldr	r3, [r3]
 524 032a 2C4A     		ldr	r2, .L21+24
 525 032c 9342     		cmp	r3, r2
 526 032e 2CD0     		beq	.L16
 527              		.loc 1 194 7 discriminator 14
 528 0330 FB68     		ldr	r3, [r7, #12]
 529 0332 1B68     		ldr	r3, [r3]
 530 0334 2A4A     		ldr	r2, .L21+28
 531 0336 9342     		cmp	r3, r2
 532 0338 27D0     		beq	.L16
 533              		.loc 1 194 7 discriminator 16
 534 033a FB68     		ldr	r3, [r7, #12]
 535 033c 1B68     		ldr	r3, [r3]
 536 033e 294A     		ldr	r2, .L21+32
 537 0340 9342     		cmp	r3, r2
 538 0342 22D0     		beq	.L16
 539              		.loc 1 194 7 discriminator 18
 540 0344 FB68     		ldr	r3, [r7, #12]
 541 0346 1B68     		ldr	r3, [r3]
 542 0348 274A     		ldr	r2, .L21+36
 543 034a 9342     		cmp	r3, r2
 544 034c 1DD0     		beq	.L16
 545              		.loc 1 194 7 discriminator 20
 546 034e FB68     		ldr	r3, [r7, #12]
 547 0350 1B68     		ldr	r3, [r3]
 548 0352 264A     		ldr	r2, .L21+40
ARM GAS  /tmp/cc9oZLZ6.s 			page 14


 549 0354 9342     		cmp	r3, r2
 550 0356 18D0     		beq	.L16
 551              		.loc 1 194 7 discriminator 22
 552 0358 FB68     		ldr	r3, [r7, #12]
 553 035a 1B68     		ldr	r3, [r3]
 554 035c 244A     		ldr	r2, .L21+44
 555 035e 9342     		cmp	r3, r2
 556 0360 13D0     		beq	.L16
 557              		.loc 1 194 7 discriminator 24
 558 0362 FB68     		ldr	r3, [r7, #12]
 559 0364 1B68     		ldr	r3, [r3]
 560 0366 234A     		ldr	r2, .L21+48
 561 0368 9342     		cmp	r3, r2
 562 036a 0ED0     		beq	.L16
 563              		.loc 1 194 7 discriminator 26
 564 036c FB68     		ldr	r3, [r7, #12]
 565 036e 1B68     		ldr	r3, [r3]
 566 0370 214A     		ldr	r2, .L21+52
 567 0372 9342     		cmp	r3, r2
 568 0374 09D0     		beq	.L16
 569              		.loc 1 194 7 discriminator 28
 570 0376 FB68     		ldr	r3, [r7, #12]
 571 0378 1B68     		ldr	r3, [r3]
 572 037a 204A     		ldr	r2, .L21+56
 573 037c 9342     		cmp	r3, r2
 574 037e 04D0     		beq	.L16
 575              		.loc 1 194 7 discriminator 30
 576 0380 FB68     		ldr	r3, [r7, #12]
 577 0382 1B68     		ldr	r3, [r3]
 578 0384 1E4A     		ldr	r2, .L21+60
 579 0386 9342     		cmp	r3, r2
 580 0388 08D1     		bne	.L17
 581              	.L16:
 582              		.loc 1 194 7 discriminator 31
 583 038a FB68     		ldr	r3, [r7, #12]
 584 038c 1B68     		ldr	r3, [r3]
 585 038e 1A68     		ldr	r2, [r3]
 586 0390 FB68     		ldr	r3, [r7, #12]
 587 0392 1B68     		ldr	r3, [r3]
 588 0394 42F00102 		orr	r2, r2, #1
 589 0398 1A60     		str	r2, [r3]
 590 039a 0EE0     		b	.L3
 591              	.L17:
 592              		.loc 1 194 7 discriminator 32
 593 039c FB68     		ldr	r3, [r7, #12]
 594 039e 1B68     		ldr	r3, [r3]
 595 03a0 1A68     		ldr	r2, [r3]
 596 03a2 FB68     		ldr	r3, [r7, #12]
 597 03a4 1B68     		ldr	r3, [r3]
 598 03a6 42F00102 		orr	r2, r2, #1
 599 03aa 1A60     		str	r2, [r3]
 600 03ac 05E0     		b	.L3
 601              	.L6:
 195:./Libraries/STM32H7xx_HAL_Driver/Src/stm32h7xx_hal_dma_ex.c ****     }
 196:./Libraries/STM32H7xx_HAL_Driver/Src/stm32h7xx_hal_dma_ex.c ****     else
 197:./Libraries/STM32H7xx_HAL_Driver/Src/stm32h7xx_hal_dma_ex.c ****     {
 198:./Libraries/STM32H7xx_HAL_Driver/Src/stm32h7xx_hal_dma_ex.c ****       /* Set the error code to busy */
ARM GAS  /tmp/cc9oZLZ6.s 			page 15


 199:./Libraries/STM32H7xx_HAL_Driver/Src/stm32h7xx_hal_dma_ex.c ****       hdma->ErrorCode = HAL_DMA_ERROR_BUSY;
 602              		.loc 1 199 23 is_stmt 1
 603 03ae FB68     		ldr	r3, [r7, #12]
 604 03b0 4FF40062 		mov	r2, #2048
 605 03b4 5A65     		str	r2, [r3, #84]
 200:./Libraries/STM32H7xx_HAL_Driver/Src/stm32h7xx_hal_dma_ex.c **** 
 201:./Libraries/STM32H7xx_HAL_Driver/Src/stm32h7xx_hal_dma_ex.c ****       /* Return error status */
 202:./Libraries/STM32H7xx_HAL_Driver/Src/stm32h7xx_hal_dma_ex.c ****       status = HAL_ERROR;
 606              		.loc 1 202 14
 607 03b6 0123     		movs	r3, #1
 608 03b8 FB75     		strb	r3, [r7, #23]
 609              	.L3:
 203:./Libraries/STM32H7xx_HAL_Driver/Src/stm32h7xx_hal_dma_ex.c ****     }
 204:./Libraries/STM32H7xx_HAL_Driver/Src/stm32h7xx_hal_dma_ex.c ****   }
 205:./Libraries/STM32H7xx_HAL_Driver/Src/stm32h7xx_hal_dma_ex.c ****   return status;
 610              		.loc 1 205 10
 611 03ba FB7D     		ldrb	r3, [r7, #23]	@ zero_extendqisi2
 612              	.L5:
 206:./Libraries/STM32H7xx_HAL_Driver/Src/stm32h7xx_hal_dma_ex.c **** }
 613              		.loc 1 206 1
 614 03bc 1846     		mov	r0, r3
 615 03be 1837     		adds	r7, r7, #24
 616              	.LCFI3:
 617              		.cfi_def_cfa_offset 8
 618 03c0 BD46     		mov	sp, r7
 619              	.LCFI4:
 620              		.cfi_def_cfa_register 13
 621              		@ sp needed
 622 03c2 80BD     		pop	{r7, pc}
 623              	.L22:
 624              		.align	2
 625              	.L21:
 626 03c4 10000240 		.word	1073872912
 627 03c8 28000240 		.word	1073872936
 628 03cc 40000240 		.word	1073872960
 629 03d0 58000240 		.word	1073872984
 630 03d4 70000240 		.word	1073873008
 631 03d8 88000240 		.word	1073873032
 632 03dc A0000240 		.word	1073873056
 633 03e0 B8000240 		.word	1073873080
 634 03e4 10040240 		.word	1073873936
 635 03e8 28040240 		.word	1073873960
 636 03ec 40040240 		.word	1073873984
 637 03f0 58040240 		.word	1073874008
 638 03f4 70040240 		.word	1073874032
 639 03f8 88040240 		.word	1073874056
 640 03fc A0040240 		.word	1073874080
 641 0400 B8040240 		.word	1073874104
 642              		.cfi_endproc
 643              	.LFE331:
 645              		.section	.text.HAL_DMAEx_MultiBufferStart_IT,"ax",%progbits
 646              		.align	1
 647              		.global	HAL_DMAEx_MultiBufferStart_IT
 648              		.syntax unified
 649              		.thumb
 650              		.thumb_func
 651              		.fpu fpv5-d16
ARM GAS  /tmp/cc9oZLZ6.s 			page 16


 653              	HAL_DMAEx_MultiBufferStart_IT:
 654              	.LFB332:
 207:./Libraries/STM32H7xx_HAL_Driver/Src/stm32h7xx_hal_dma_ex.c **** 
 208:./Libraries/STM32H7xx_HAL_Driver/Src/stm32h7xx_hal_dma_ex.c **** /**
 209:./Libraries/STM32H7xx_HAL_Driver/Src/stm32h7xx_hal_dma_ex.c ****   * @brief  Starts the multi_buffer DMA Transfer with interrupt enabled.
 210:./Libraries/STM32H7xx_HAL_Driver/Src/stm32h7xx_hal_dma_ex.c ****   * @param  hdma:       pointer to a DMA_HandleTypeDef structure that contains
 211:./Libraries/STM32H7xx_HAL_Driver/Src/stm32h7xx_hal_dma_ex.c ****   *                     the configuration information for the specified DMA Stream.
 212:./Libraries/STM32H7xx_HAL_Driver/Src/stm32h7xx_hal_dma_ex.c ****   * @param  SrcAddress: The source memory Buffer address
 213:./Libraries/STM32H7xx_HAL_Driver/Src/stm32h7xx_hal_dma_ex.c ****   * @param  DstAddress: The destination memory Buffer address
 214:./Libraries/STM32H7xx_HAL_Driver/Src/stm32h7xx_hal_dma_ex.c ****   * @param  SecondMemAddress: The second memory Buffer address in case of multi buffer Transfer
 215:./Libraries/STM32H7xx_HAL_Driver/Src/stm32h7xx_hal_dma_ex.c ****   * @param  DataLength: The length of data to be transferred from source to destination
 216:./Libraries/STM32H7xx_HAL_Driver/Src/stm32h7xx_hal_dma_ex.c ****   * @retval HAL status
 217:./Libraries/STM32H7xx_HAL_Driver/Src/stm32h7xx_hal_dma_ex.c ****   */
 218:./Libraries/STM32H7xx_HAL_Driver/Src/stm32h7xx_hal_dma_ex.c **** HAL_StatusTypeDef HAL_DMAEx_MultiBufferStart_IT(DMA_HandleTypeDef *hdma, uint32_t SrcAddress, uint3
 219:./Libraries/STM32H7xx_HAL_Driver/Src/stm32h7xx_hal_dma_ex.c **** {
 655              		.loc 1 219 1
 656              		.cfi_startproc
 657              		@ args = 4, pretend = 0, frame = 24
 658              		@ frame_needed = 1, uses_anonymous_args = 0
 659 0000 80B5     		push	{r7, lr}
 660              	.LCFI5:
 661              		.cfi_def_cfa_offset 8
 662              		.cfi_offset 7, -8
 663              		.cfi_offset 14, -4
 664 0002 86B0     		sub	sp, sp, #24
 665              	.LCFI6:
 666              		.cfi_def_cfa_offset 32
 667 0004 00AF     		add	r7, sp, #0
 668              	.LCFI7:
 669              		.cfi_def_cfa_register 7
 670 0006 F860     		str	r0, [r7, #12]
 671 0008 B960     		str	r1, [r7, #8]
 672 000a 7A60     		str	r2, [r7, #4]
 673 000c 3B60     		str	r3, [r7]
 220:./Libraries/STM32H7xx_HAL_Driver/Src/stm32h7xx_hal_dma_ex.c ****   HAL_StatusTypeDef status = HAL_OK;
 674              		.loc 1 220 21
 675 000e 0023     		movs	r3, #0
 676 0010 FB75     		strb	r3, [r7, #23]
 221:./Libraries/STM32H7xx_HAL_Driver/Src/stm32h7xx_hal_dma_ex.c ****   __IO uint32_t *ifcRegister_Base; /* DMA Stream Interrupt Clear register */
 222:./Libraries/STM32H7xx_HAL_Driver/Src/stm32h7xx_hal_dma_ex.c **** 
 223:./Libraries/STM32H7xx_HAL_Driver/Src/stm32h7xx_hal_dma_ex.c ****   /* Check the parameters */
 224:./Libraries/STM32H7xx_HAL_Driver/Src/stm32h7xx_hal_dma_ex.c ****   assert_param(IS_DMA_BUFFER_SIZE(DataLength));
 225:./Libraries/STM32H7xx_HAL_Driver/Src/stm32h7xx_hal_dma_ex.c ****   assert_param(IS_DMA_ALL_INSTANCE(hdma->Instance));
 226:./Libraries/STM32H7xx_HAL_Driver/Src/stm32h7xx_hal_dma_ex.c **** 
 227:./Libraries/STM32H7xx_HAL_Driver/Src/stm32h7xx_hal_dma_ex.c ****   /* Memory-to-memory transfer not supported in double buffering mode */
 228:./Libraries/STM32H7xx_HAL_Driver/Src/stm32h7xx_hal_dma_ex.c ****   if(hdma->Init.Direction == DMA_MEMORY_TO_MEMORY)
 677              		.loc 1 228 16
 678 0012 FB68     		ldr	r3, [r7, #12]
 679 0014 9B68     		ldr	r3, [r3, #8]
 680              		.loc 1 228 5
 681 0016 802B     		cmp	r3, #128
 682 0018 05D1     		bne	.L24
 229:./Libraries/STM32H7xx_HAL_Driver/Src/stm32h7xx_hal_dma_ex.c ****   {
 230:./Libraries/STM32H7xx_HAL_Driver/Src/stm32h7xx_hal_dma_ex.c ****     hdma->ErrorCode = HAL_DMA_ERROR_NOT_SUPPORTED;
 683              		.loc 1 230 21
 684 001a FB68     		ldr	r3, [r7, #12]
 685 001c 4FF48072 		mov	r2, #256
ARM GAS  /tmp/cc9oZLZ6.s 			page 17


 686 0020 5A65     		str	r2, [r3, #84]
 231:./Libraries/STM32H7xx_HAL_Driver/Src/stm32h7xx_hal_dma_ex.c ****     return HAL_ERROR;
 687              		.loc 1 231 12
 688 0022 0123     		movs	r3, #1
 689 0024 25E3     		b	.L25
 690              	.L24:
 232:./Libraries/STM32H7xx_HAL_Driver/Src/stm32h7xx_hal_dma_ex.c ****   }
 233:./Libraries/STM32H7xx_HAL_Driver/Src/stm32h7xx_hal_dma_ex.c **** 
 234:./Libraries/STM32H7xx_HAL_Driver/Src/stm32h7xx_hal_dma_ex.c ****   /* Process locked */
 235:./Libraries/STM32H7xx_HAL_Driver/Src/stm32h7xx_hal_dma_ex.c ****   __HAL_LOCK(hdma);
 691              		.loc 1 235 3
 692 0026 FB68     		ldr	r3, [r7, #12]
 693 0028 93F83430 		ldrb	r3, [r3, #52]	@ zero_extendqisi2
 694 002c 012B     		cmp	r3, #1
 695 002e 01D1     		bne	.L26
 696              		.loc 1 235 3 is_stmt 0 discriminator 1
 697 0030 0223     		movs	r3, #2
 698 0032 1EE3     		b	.L25
 699              	.L26:
 700              		.loc 1 235 3 discriminator 2
 701 0034 FB68     		ldr	r3, [r7, #12]
 702 0036 0122     		movs	r2, #1
 703 0038 83F83420 		strb	r2, [r3, #52]
 236:./Libraries/STM32H7xx_HAL_Driver/Src/stm32h7xx_hal_dma_ex.c **** 
 237:./Libraries/STM32H7xx_HAL_Driver/Src/stm32h7xx_hal_dma_ex.c ****   if(HAL_DMA_STATE_READY == hdma->State)
 704              		.loc 1 237 33 is_stmt 1 discriminator 2
 705 003c FB68     		ldr	r3, [r7, #12]
 706 003e 93F83530 		ldrb	r3, [r3, #53]
 707 0042 DBB2     		uxtb	r3, r3
 708              		.loc 1 237 5 discriminator 2
 709 0044 012B     		cmp	r3, #1
 710 0046 40F00D83 		bne	.L27
 238:./Libraries/STM32H7xx_HAL_Driver/Src/stm32h7xx_hal_dma_ex.c ****   {
 239:./Libraries/STM32H7xx_HAL_Driver/Src/stm32h7xx_hal_dma_ex.c ****     /* Change DMA peripheral state */
 240:./Libraries/STM32H7xx_HAL_Driver/Src/stm32h7xx_hal_dma_ex.c ****     hdma->State = HAL_DMA_STATE_BUSY;
 711              		.loc 1 240 17
 712 004a FB68     		ldr	r3, [r7, #12]
 713 004c 0222     		movs	r2, #2
 714 004e 83F83520 		strb	r2, [r3, #53]
 241:./Libraries/STM32H7xx_HAL_Driver/Src/stm32h7xx_hal_dma_ex.c **** 
 242:./Libraries/STM32H7xx_HAL_Driver/Src/stm32h7xx_hal_dma_ex.c ****     /* Initialize the error code */
 243:./Libraries/STM32H7xx_HAL_Driver/Src/stm32h7xx_hal_dma_ex.c ****     hdma->ErrorCode = HAL_DMA_ERROR_NONE;
 715              		.loc 1 243 21
 716 0052 FB68     		ldr	r3, [r7, #12]
 717 0054 0022     		movs	r2, #0
 718 0056 5A65     		str	r2, [r3, #84]
 244:./Libraries/STM32H7xx_HAL_Driver/Src/stm32h7xx_hal_dma_ex.c **** 
 245:./Libraries/STM32H7xx_HAL_Driver/Src/stm32h7xx_hal_dma_ex.c ****     if(IS_DMA_STREAM_INSTANCE(hdma->Instance) != 0U) /* DMA1 or DMA2 instance */
 719              		.loc 1 245 8
 720 0058 FB68     		ldr	r3, [r7, #12]
 721 005a 1B68     		ldr	r3, [r3]
 722 005c 824A     		ldr	r2, .L53
 723 005e 9342     		cmp	r3, r2
 724 0060 4AD0     		beq	.L28
 725              		.loc 1 245 8 is_stmt 0 discriminator 2
 726 0062 FB68     		ldr	r3, [r7, #12]
 727 0064 1B68     		ldr	r3, [r3]
ARM GAS  /tmp/cc9oZLZ6.s 			page 18


 728 0066 814A     		ldr	r2, .L53+4
 729 0068 9342     		cmp	r3, r2
 730 006a 45D0     		beq	.L28
 731              		.loc 1 245 8 discriminator 4
 732 006c FB68     		ldr	r3, [r7, #12]
 733 006e 1B68     		ldr	r3, [r3]
 734 0070 7F4A     		ldr	r2, .L53+8
 735 0072 9342     		cmp	r3, r2
 736 0074 40D0     		beq	.L28
 737              		.loc 1 245 8 discriminator 6
 738 0076 FB68     		ldr	r3, [r7, #12]
 739 0078 1B68     		ldr	r3, [r3]
 740 007a 7E4A     		ldr	r2, .L53+12
 741 007c 9342     		cmp	r3, r2
 742 007e 3BD0     		beq	.L28
 743              		.loc 1 245 8 discriminator 8
 744 0080 FB68     		ldr	r3, [r7, #12]
 745 0082 1B68     		ldr	r3, [r3]
 746 0084 7C4A     		ldr	r2, .L53+16
 747 0086 9342     		cmp	r3, r2
 748 0088 36D0     		beq	.L28
 749              		.loc 1 245 8 discriminator 10
 750 008a FB68     		ldr	r3, [r7, #12]
 751 008c 1B68     		ldr	r3, [r3]
 752 008e 7B4A     		ldr	r2, .L53+20
 753 0090 9342     		cmp	r3, r2
 754 0092 31D0     		beq	.L28
 755              		.loc 1 245 8 discriminator 12
 756 0094 FB68     		ldr	r3, [r7, #12]
 757 0096 1B68     		ldr	r3, [r3]
 758 0098 794A     		ldr	r2, .L53+24
 759 009a 9342     		cmp	r3, r2
 760 009c 2CD0     		beq	.L28
 761              		.loc 1 245 8 discriminator 14
 762 009e FB68     		ldr	r3, [r7, #12]
 763 00a0 1B68     		ldr	r3, [r3]
 764 00a2 784A     		ldr	r2, .L53+28
 765 00a4 9342     		cmp	r3, r2
 766 00a6 27D0     		beq	.L28
 767              		.loc 1 245 8 discriminator 16
 768 00a8 FB68     		ldr	r3, [r7, #12]
 769 00aa 1B68     		ldr	r3, [r3]
 770 00ac 764A     		ldr	r2, .L53+32
 771 00ae 9342     		cmp	r3, r2
 772 00b0 22D0     		beq	.L28
 773              		.loc 1 245 8 discriminator 18
 774 00b2 FB68     		ldr	r3, [r7, #12]
 775 00b4 1B68     		ldr	r3, [r3]
 776 00b6 754A     		ldr	r2, .L53+36
 777 00b8 9342     		cmp	r3, r2
 778 00ba 1DD0     		beq	.L28
 779              		.loc 1 245 8 discriminator 20
 780 00bc FB68     		ldr	r3, [r7, #12]
 781 00be 1B68     		ldr	r3, [r3]
 782 00c0 734A     		ldr	r2, .L53+40
 783 00c2 9342     		cmp	r3, r2
 784 00c4 18D0     		beq	.L28
ARM GAS  /tmp/cc9oZLZ6.s 			page 19


 785              		.loc 1 245 8 discriminator 22
 786 00c6 FB68     		ldr	r3, [r7, #12]
 787 00c8 1B68     		ldr	r3, [r3]
 788 00ca 724A     		ldr	r2, .L53+44
 789 00cc 9342     		cmp	r3, r2
 790 00ce 13D0     		beq	.L28
 791              		.loc 1 245 8 discriminator 24
 792 00d0 FB68     		ldr	r3, [r7, #12]
 793 00d2 1B68     		ldr	r3, [r3]
 794 00d4 704A     		ldr	r2, .L53+48
 795 00d6 9342     		cmp	r3, r2
 796 00d8 0ED0     		beq	.L28
 797              		.loc 1 245 8 discriminator 26
 798 00da FB68     		ldr	r3, [r7, #12]
 799 00dc 1B68     		ldr	r3, [r3]
 800 00de 6F4A     		ldr	r2, .L53+52
 801 00e0 9342     		cmp	r3, r2
 802 00e2 09D0     		beq	.L28
 803              		.loc 1 245 8 discriminator 28
 804 00e4 FB68     		ldr	r3, [r7, #12]
 805 00e6 1B68     		ldr	r3, [r3]
 806 00e8 6D4A     		ldr	r2, .L53+56
 807 00ea 9342     		cmp	r3, r2
 808 00ec 04D0     		beq	.L28
 809              		.loc 1 245 8 discriminator 30
 810 00ee FB68     		ldr	r3, [r7, #12]
 811 00f0 1B68     		ldr	r3, [r3]
 812 00f2 6C4A     		ldr	r2, .L53+60
 813 00f4 9342     		cmp	r3, r2
 814 00f6 01D1     		bne	.L29
 815              	.L28:
 816              		.loc 1 245 8 discriminator 31
 817 00f8 0123     		movs	r3, #1
 818 00fa 00E0     		b	.L30
 819              	.L29:
 820              		.loc 1 245 8 discriminator 32
 821 00fc 0023     		movs	r3, #0
 822              	.L30:
 823              		.loc 1 245 7 is_stmt 1 discriminator 34
 824 00fe 002B     		cmp	r3, #0
 825 0100 18D0     		beq	.L31
 246:./Libraries/STM32H7xx_HAL_Driver/Src/stm32h7xx_hal_dma_ex.c ****     {
 247:./Libraries/STM32H7xx_HAL_Driver/Src/stm32h7xx_hal_dma_ex.c ****       /* Enable the Double buffer mode */
 248:./Libraries/STM32H7xx_HAL_Driver/Src/stm32h7xx_hal_dma_ex.c ****       ((DMA_Stream_TypeDef   *)hdma->Instance)->CR |= DMA_SxCR_DBM;
 826              		.loc 1 248 36
 827 0102 FB68     		ldr	r3, [r7, #12]
 828 0104 1B68     		ldr	r3, [r3]
 829              		.loc 1 248 52
 830 0106 1A68     		ldr	r2, [r3]
 831              		.loc 1 248 36
 832 0108 FB68     		ldr	r3, [r7, #12]
 833 010a 1B68     		ldr	r3, [r3]
 834              		.loc 1 248 52
 835 010c 42F48022 		orr	r2, r2, #262144
 836 0110 1A60     		str	r2, [r3]
 249:./Libraries/STM32H7xx_HAL_Driver/Src/stm32h7xx_hal_dma_ex.c **** 
 250:./Libraries/STM32H7xx_HAL_Driver/Src/stm32h7xx_hal_dma_ex.c ****       /* Configure DMA Stream destination address */
ARM GAS  /tmp/cc9oZLZ6.s 			page 20


 251:./Libraries/STM32H7xx_HAL_Driver/Src/stm32h7xx_hal_dma_ex.c ****       ((DMA_Stream_TypeDef   *)hdma->Instance)->M1AR = SecondMemAddress;
 837              		.loc 1 251 36
 838 0112 FB68     		ldr	r3, [r7, #12]
 839 0114 1B68     		ldr	r3, [r3]
 840              		.loc 1 251 54
 841 0116 3A68     		ldr	r2, [r7]
 842 0118 1A61     		str	r2, [r3, #16]
 252:./Libraries/STM32H7xx_HAL_Driver/Src/stm32h7xx_hal_dma_ex.c **** 
 253:./Libraries/STM32H7xx_HAL_Driver/Src/stm32h7xx_hal_dma_ex.c ****       /* Calculate the interrupt clear flag register (IFCR) base address  */
 254:./Libraries/STM32H7xx_HAL_Driver/Src/stm32h7xx_hal_dma_ex.c ****       ifcRegister_Base = (uint32_t *)((uint32_t)(hdma->StreamBaseAddress + 8U));
 843              		.loc 1 254 54
 844 011a FB68     		ldr	r3, [r7, #12]
 845 011c 9B6D     		ldr	r3, [r3, #88]
 846              		.loc 1 254 39
 847 011e 0833     		adds	r3, r3, #8
 848              		.loc 1 254 24
 849 0120 3B61     		str	r3, [r7, #16]
 255:./Libraries/STM32H7xx_HAL_Driver/Src/stm32h7xx_hal_dma_ex.c **** 
 256:./Libraries/STM32H7xx_HAL_Driver/Src/stm32h7xx_hal_dma_ex.c ****       /* Clear all flags */
 257:./Libraries/STM32H7xx_HAL_Driver/Src/stm32h7xx_hal_dma_ex.c ****       *ifcRegister_Base = 0x3FUL << (hdma->StreamIndex & 0x1FU);
 850              		.loc 1 257 42
 851 0122 FB68     		ldr	r3, [r7, #12]
 852 0124 DB6D     		ldr	r3, [r3, #92]
 853              		.loc 1 257 56
 854 0126 03F01F03 		and	r3, r3, #31
 855              		.loc 1 257 34
 856 012a 3F22     		movs	r2, #63
 857 012c 9A40     		lsls	r2, r2, r3
 858              		.loc 1 257 25
 859 012e 3B69     		ldr	r3, [r7, #16]
 860 0130 1A60     		str	r2, [r3]
 861 0132 18E0     		b	.L32
 862              	.L31:
 258:./Libraries/STM32H7xx_HAL_Driver/Src/stm32h7xx_hal_dma_ex.c ****     }
 259:./Libraries/STM32H7xx_HAL_Driver/Src/stm32h7xx_hal_dma_ex.c ****     else /* BDMA instance(s) */
 260:./Libraries/STM32H7xx_HAL_Driver/Src/stm32h7xx_hal_dma_ex.c ****     {
 261:./Libraries/STM32H7xx_HAL_Driver/Src/stm32h7xx_hal_dma_ex.c ****       /* Enable the Double buffer mode */
 262:./Libraries/STM32H7xx_HAL_Driver/Src/stm32h7xx_hal_dma_ex.c ****       ((BDMA_Channel_TypeDef   *)hdma->Instance)->CCR |= (BDMA_CCR_DBM | BDMA_CCR_CIRC);
 863              		.loc 1 262 38
 864 0134 FB68     		ldr	r3, [r7, #12]
 865 0136 1B68     		ldr	r3, [r3]
 866              		.loc 1 262 55
 867 0138 1968     		ldr	r1, [r3]
 868              		.loc 1 262 38
 869 013a FB68     		ldr	r3, [r7, #12]
 870 013c 1A68     		ldr	r2, [r3]
 871              		.loc 1 262 55
 872 013e 48F22003 		movw	r3, #32800
 873 0142 0B43     		orrs	r3, r3, r1
 874 0144 1360     		str	r3, [r2]
 263:./Libraries/STM32H7xx_HAL_Driver/Src/stm32h7xx_hal_dma_ex.c **** 
 264:./Libraries/STM32H7xx_HAL_Driver/Src/stm32h7xx_hal_dma_ex.c ****       /* Configure DMA Stream destination address */
 265:./Libraries/STM32H7xx_HAL_Driver/Src/stm32h7xx_hal_dma_ex.c ****       ((BDMA_Channel_TypeDef   *)hdma->Instance)->CM1AR = SecondMemAddress;
 875              		.loc 1 265 38
 876 0146 FB68     		ldr	r3, [r7, #12]
 877 0148 1B68     		ldr	r3, [r3]
 878              		.loc 1 265 57
ARM GAS  /tmp/cc9oZLZ6.s 			page 21


 879 014a 3A68     		ldr	r2, [r7]
 880 014c 1A61     		str	r2, [r3, #16]
 266:./Libraries/STM32H7xx_HAL_Driver/Src/stm32h7xx_hal_dma_ex.c **** 
 267:./Libraries/STM32H7xx_HAL_Driver/Src/stm32h7xx_hal_dma_ex.c ****       /* Calculate the interrupt clear flag register (IFCR) base address  */
 268:./Libraries/STM32H7xx_HAL_Driver/Src/stm32h7xx_hal_dma_ex.c ****       ifcRegister_Base = (uint32_t *)((uint32_t)(hdma->StreamBaseAddress + 4U));
 881              		.loc 1 268 54
 882 014e FB68     		ldr	r3, [r7, #12]
 883 0150 9B6D     		ldr	r3, [r3, #88]
 884              		.loc 1 268 39
 885 0152 0433     		adds	r3, r3, #4
 886              		.loc 1 268 24
 887 0154 3B61     		str	r3, [r7, #16]
 269:./Libraries/STM32H7xx_HAL_Driver/Src/stm32h7xx_hal_dma_ex.c **** 
 270:./Libraries/STM32H7xx_HAL_Driver/Src/stm32h7xx_hal_dma_ex.c ****       /* Clear all flags */
 271:./Libraries/STM32H7xx_HAL_Driver/Src/stm32h7xx_hal_dma_ex.c ****       *ifcRegister_Base = (BDMA_ISR_GIF0) << (hdma->StreamIndex & 0x1FU);
 888              		.loc 1 271 51
 889 0156 FB68     		ldr	r3, [r7, #12]
 890 0158 DB6D     		ldr	r3, [r3, #92]
 891              		.loc 1 271 65
 892 015a 03F01F03 		and	r3, r3, #31
 893              		.loc 1 271 43
 894 015e 0122     		movs	r2, #1
 895 0160 9A40     		lsls	r2, r2, r3
 896              		.loc 1 271 25
 897 0162 3B69     		ldr	r3, [r7, #16]
 898 0164 1A60     		str	r2, [r3]
 899              	.L32:
 272:./Libraries/STM32H7xx_HAL_Driver/Src/stm32h7xx_hal_dma_ex.c ****     }
 273:./Libraries/STM32H7xx_HAL_Driver/Src/stm32h7xx_hal_dma_ex.c **** 
 274:./Libraries/STM32H7xx_HAL_Driver/Src/stm32h7xx_hal_dma_ex.c ****     /* Configure the source, destination address and the data length */
 275:./Libraries/STM32H7xx_HAL_Driver/Src/stm32h7xx_hal_dma_ex.c ****     DMA_MultiBufferSetConfig(hdma, SrcAddress, DstAddress, DataLength);
 900              		.loc 1 275 5
 901 0166 3B6A     		ldr	r3, [r7, #32]
 902 0168 7A68     		ldr	r2, [r7, #4]
 903 016a B968     		ldr	r1, [r7, #8]
 904 016c F868     		ldr	r0, [r7, #12]
 905 016e FFF7FEFF 		bl	DMA_MultiBufferSetConfig
 276:./Libraries/STM32H7xx_HAL_Driver/Src/stm32h7xx_hal_dma_ex.c **** 
 277:./Libraries/STM32H7xx_HAL_Driver/Src/stm32h7xx_hal_dma_ex.c ****     if(IS_DMA_DMAMUX_ALL_INSTANCE(hdma->Instance) != 0U) /* No DMAMUX available for BDMA1 */
 906              		.loc 1 277 8
 907 0172 FB68     		ldr	r3, [r7, #12]
 908 0174 1B68     		ldr	r3, [r3]
 909 0176 3C4A     		ldr	r2, .L53
 910 0178 9342     		cmp	r3, r2
 911 017a 72D0     		beq	.L33
 912              		.loc 1 277 8 is_stmt 0 discriminator 2
 913 017c FB68     		ldr	r3, [r7, #12]
 914 017e 1B68     		ldr	r3, [r3]
 915 0180 3A4A     		ldr	r2, .L53+4
 916 0182 9342     		cmp	r3, r2
 917 0184 6DD0     		beq	.L33
 918              		.loc 1 277 8 discriminator 4
 919 0186 FB68     		ldr	r3, [r7, #12]
 920 0188 1B68     		ldr	r3, [r3]
 921 018a 394A     		ldr	r2, .L53+8
 922 018c 9342     		cmp	r3, r2
 923 018e 68D0     		beq	.L33
ARM GAS  /tmp/cc9oZLZ6.s 			page 22


 924              		.loc 1 277 8 discriminator 6
 925 0190 FB68     		ldr	r3, [r7, #12]
 926 0192 1B68     		ldr	r3, [r3]
 927 0194 374A     		ldr	r2, .L53+12
 928 0196 9342     		cmp	r3, r2
 929 0198 63D0     		beq	.L33
 930              		.loc 1 277 8 discriminator 8
 931 019a FB68     		ldr	r3, [r7, #12]
 932 019c 1B68     		ldr	r3, [r3]
 933 019e 364A     		ldr	r2, .L53+16
 934 01a0 9342     		cmp	r3, r2
 935 01a2 5ED0     		beq	.L33
 936              		.loc 1 277 8 discriminator 10
 937 01a4 FB68     		ldr	r3, [r7, #12]
 938 01a6 1B68     		ldr	r3, [r3]
 939 01a8 344A     		ldr	r2, .L53+20
 940 01aa 9342     		cmp	r3, r2
 941 01ac 59D0     		beq	.L33
 942              		.loc 1 277 8 discriminator 12
 943 01ae FB68     		ldr	r3, [r7, #12]
 944 01b0 1B68     		ldr	r3, [r3]
 945 01b2 334A     		ldr	r2, .L53+24
 946 01b4 9342     		cmp	r3, r2
 947 01b6 54D0     		beq	.L33
 948              		.loc 1 277 8 discriminator 14
 949 01b8 FB68     		ldr	r3, [r7, #12]
 950 01ba 1B68     		ldr	r3, [r3]
 951 01bc 314A     		ldr	r2, .L53+28
 952 01be 9342     		cmp	r3, r2
 953 01c0 4FD0     		beq	.L33
 954              		.loc 1 277 8 discriminator 16
 955 01c2 FB68     		ldr	r3, [r7, #12]
 956 01c4 1B68     		ldr	r3, [r3]
 957 01c6 304A     		ldr	r2, .L53+32
 958 01c8 9342     		cmp	r3, r2
 959 01ca 4AD0     		beq	.L33
 960              		.loc 1 277 8 discriminator 18
 961 01cc FB68     		ldr	r3, [r7, #12]
 962 01ce 1B68     		ldr	r3, [r3]
 963 01d0 2E4A     		ldr	r2, .L53+36
 964 01d2 9342     		cmp	r3, r2
 965 01d4 45D0     		beq	.L33
 966              		.loc 1 277 8 discriminator 20
 967 01d6 FB68     		ldr	r3, [r7, #12]
 968 01d8 1B68     		ldr	r3, [r3]
 969 01da 2D4A     		ldr	r2, .L53+40
 970 01dc 9342     		cmp	r3, r2
 971 01de 40D0     		beq	.L33
 972              		.loc 1 277 8 discriminator 22
 973 01e0 FB68     		ldr	r3, [r7, #12]
 974 01e2 1B68     		ldr	r3, [r3]
 975 01e4 2B4A     		ldr	r2, .L53+44
 976 01e6 9342     		cmp	r3, r2
 977 01e8 3BD0     		beq	.L33
 978              		.loc 1 277 8 discriminator 24
 979 01ea FB68     		ldr	r3, [r7, #12]
 980 01ec 1B68     		ldr	r3, [r3]
ARM GAS  /tmp/cc9oZLZ6.s 			page 23


 981 01ee 2A4A     		ldr	r2, .L53+48
 982 01f0 9342     		cmp	r3, r2
 983 01f2 36D0     		beq	.L33
 984              		.loc 1 277 8 discriminator 26
 985 01f4 FB68     		ldr	r3, [r7, #12]
 986 01f6 1B68     		ldr	r3, [r3]
 987 01f8 284A     		ldr	r2, .L53+52
 988 01fa 9342     		cmp	r3, r2
 989 01fc 31D0     		beq	.L33
 990              		.loc 1 277 8 discriminator 28
 991 01fe FB68     		ldr	r3, [r7, #12]
 992 0200 1B68     		ldr	r3, [r3]
 993 0202 274A     		ldr	r2, .L53+56
 994 0204 9342     		cmp	r3, r2
 995 0206 2CD0     		beq	.L33
 996              		.loc 1 277 8 discriminator 30
 997 0208 FB68     		ldr	r3, [r7, #12]
 998 020a 1B68     		ldr	r3, [r3]
 999 020c 254A     		ldr	r2, .L53+60
 1000 020e 9342     		cmp	r3, r2
 1001 0210 27D0     		beq	.L33
 1002              		.loc 1 277 8 discriminator 32
 1003 0212 FB68     		ldr	r3, [r7, #12]
 1004 0214 1B68     		ldr	r3, [r3]
 1005 0216 244A     		ldr	r2, .L53+64
 1006 0218 9342     		cmp	r3, r2
 1007 021a 22D0     		beq	.L33
 1008              		.loc 1 277 8 discriminator 34
 1009 021c FB68     		ldr	r3, [r7, #12]
 1010 021e 1B68     		ldr	r3, [r3]
 1011 0220 224A     		ldr	r2, .L53+68
 1012 0222 9342     		cmp	r3, r2
 1013 0224 1DD0     		beq	.L33
 1014              		.loc 1 277 8 discriminator 36
 1015 0226 FB68     		ldr	r3, [r7, #12]
 1016 0228 1B68     		ldr	r3, [r3]
 1017 022a 214A     		ldr	r2, .L53+72
 1018 022c 9342     		cmp	r3, r2
 1019 022e 18D0     		beq	.L33
 1020              		.loc 1 277 8 discriminator 38
 1021 0230 FB68     		ldr	r3, [r7, #12]
 1022 0232 1B68     		ldr	r3, [r3]
 1023 0234 1F4A     		ldr	r2, .L53+76
 1024 0236 9342     		cmp	r3, r2
 1025 0238 13D0     		beq	.L33
 1026              		.loc 1 277 8 discriminator 40
 1027 023a FB68     		ldr	r3, [r7, #12]
 1028 023c 1B68     		ldr	r3, [r3]
 1029 023e 1E4A     		ldr	r2, .L53+80
 1030 0240 9342     		cmp	r3, r2
 1031 0242 0ED0     		beq	.L33
 1032              		.loc 1 277 8 discriminator 42
 1033 0244 FB68     		ldr	r3, [r7, #12]
 1034 0246 1B68     		ldr	r3, [r3]
 1035 0248 1C4A     		ldr	r2, .L53+84
 1036 024a 9342     		cmp	r3, r2
 1037 024c 09D0     		beq	.L33
ARM GAS  /tmp/cc9oZLZ6.s 			page 24


 1038              		.loc 1 277 8 discriminator 44
 1039 024e FB68     		ldr	r3, [r7, #12]
 1040 0250 1B68     		ldr	r3, [r3]
 1041 0252 1B4A     		ldr	r2, .L53+88
 1042 0254 9342     		cmp	r3, r2
 1043 0256 04D0     		beq	.L33
 1044              		.loc 1 277 8 discriminator 46
 1045 0258 FB68     		ldr	r3, [r7, #12]
 1046 025a 1B68     		ldr	r3, [r3]
 1047 025c 194A     		ldr	r2, .L53+92
 1048 025e 9342     		cmp	r3, r2
 1049 0260 32D1     		bne	.L34
 1050              	.L33:
 1051              		.loc 1 277 8 discriminator 47
 1052 0262 0123     		movs	r3, #1
 1053 0264 31E0     		b	.L35
 1054              	.L54:
 1055 0266 00BF     		.align	2
 1056              	.L53:
 1057 0268 10000240 		.word	1073872912
 1058 026c 28000240 		.word	1073872936
 1059 0270 40000240 		.word	1073872960
 1060 0274 58000240 		.word	1073872984
 1061 0278 70000240 		.word	1073873008
 1062 027c 88000240 		.word	1073873032
 1063 0280 A0000240 		.word	1073873056
 1064 0284 B8000240 		.word	1073873080
 1065 0288 10040240 		.word	1073873936
 1066 028c 28040240 		.word	1073873960
 1067 0290 40040240 		.word	1073873984
 1068 0294 58040240 		.word	1073874008
 1069 0298 70040240 		.word	1073874032
 1070 029c 88040240 		.word	1073874056
 1071 02a0 A0040240 		.word	1073874080
 1072 02a4 B8040240 		.word	1073874104
 1073 02a8 08540258 		.word	1476547592
 1074 02ac 1C540258 		.word	1476547612
 1075 02b0 30540258 		.word	1476547632
 1076 02b4 44540258 		.word	1476547652
 1077 02b8 58540258 		.word	1476547672
 1078 02bc 6C540258 		.word	1476547692
 1079 02c0 80540258 		.word	1476547712
 1080 02c4 94540258 		.word	1476547732
 1081              	.L34:
 1082              		.loc 1 277 8 discriminator 48
 1083 02c8 0023     		movs	r3, #0
 1084              	.L35:
 1085              		.loc 1 277 7 is_stmt 1 discriminator 50
 1086 02ca 002B     		cmp	r3, #0
 1087 02cc 0DD0     		beq	.L36
 278:./Libraries/STM32H7xx_HAL_Driver/Src/stm32h7xx_hal_dma_ex.c ****     {
 279:./Libraries/STM32H7xx_HAL_Driver/Src/stm32h7xx_hal_dma_ex.c ****       /* Clear the DMAMUX synchro overrun flag */
 280:./Libraries/STM32H7xx_HAL_Driver/Src/stm32h7xx_hal_dma_ex.c ****       hdma->DMAmuxChannelStatus->CFR = hdma->DMAmuxChannelStatusMask;
 1088              		.loc 1 280 11
 1089 02ce FB68     		ldr	r3, [r7, #12]
 1090 02d0 5B6E     		ldr	r3, [r3, #100]
 1091              		.loc 1 280 44
ARM GAS  /tmp/cc9oZLZ6.s 			page 25


 1092 02d2 FA68     		ldr	r2, [r7, #12]
 1093 02d4 926E     		ldr	r2, [r2, #104]
 1094              		.loc 1 280 38
 1095 02d6 5A60     		str	r2, [r3, #4]
 281:./Libraries/STM32H7xx_HAL_Driver/Src/stm32h7xx_hal_dma_ex.c **** 
 282:./Libraries/STM32H7xx_HAL_Driver/Src/stm32h7xx_hal_dma_ex.c ****       if(hdma->DMAmuxRequestGen != 0U)
 1096              		.loc 1 282 14
 1097 02d8 FB68     		ldr	r3, [r7, #12]
 1098 02da DB6E     		ldr	r3, [r3, #108]
 1099              		.loc 1 282 9
 1100 02dc 002B     		cmp	r3, #0
 1101 02de 04D0     		beq	.L36
 283:./Libraries/STM32H7xx_HAL_Driver/Src/stm32h7xx_hal_dma_ex.c ****       {
 284:./Libraries/STM32H7xx_HAL_Driver/Src/stm32h7xx_hal_dma_ex.c ****         /* Clear the DMAMUX request generator overrun flag */
 285:./Libraries/STM32H7xx_HAL_Driver/Src/stm32h7xx_hal_dma_ex.c ****         hdma->DMAmuxRequestGenStatus->RGCFR = hdma->DMAmuxRequestGenStatusMask;
 1102              		.loc 1 285 13
 1103 02e0 FB68     		ldr	r3, [r7, #12]
 1104 02e2 1B6F     		ldr	r3, [r3, #112]
 1105              		.loc 1 285 51
 1106 02e4 FA68     		ldr	r2, [r7, #12]
 1107 02e6 526F     		ldr	r2, [r2, #116]
 1108              		.loc 1 285 45
 1109 02e8 5A60     		str	r2, [r3, #4]
 1110              	.L36:
 286:./Libraries/STM32H7xx_HAL_Driver/Src/stm32h7xx_hal_dma_ex.c ****       }
 287:./Libraries/STM32H7xx_HAL_Driver/Src/stm32h7xx_hal_dma_ex.c ****     }
 288:./Libraries/STM32H7xx_HAL_Driver/Src/stm32h7xx_hal_dma_ex.c **** 
 289:./Libraries/STM32H7xx_HAL_Driver/Src/stm32h7xx_hal_dma_ex.c ****     if(IS_DMA_STREAM_INSTANCE(hdma->Instance) != 0U) /* DMA1 or DMA2 instance */
 1111              		.loc 1 289 8
 1112 02ea FB68     		ldr	r3, [r7, #12]
 1113 02ec 1B68     		ldr	r3, [r3]
 1114 02ee 854A     		ldr	r2, .L55
 1115 02f0 9342     		cmp	r3, r2
 1116 02f2 4AD0     		beq	.L37
 1117              		.loc 1 289 8 is_stmt 0 discriminator 2
 1118 02f4 FB68     		ldr	r3, [r7, #12]
 1119 02f6 1B68     		ldr	r3, [r3]
 1120 02f8 834A     		ldr	r2, .L55+4
 1121 02fa 9342     		cmp	r3, r2
 1122 02fc 45D0     		beq	.L37
 1123              		.loc 1 289 8 discriminator 4
 1124 02fe FB68     		ldr	r3, [r7, #12]
 1125 0300 1B68     		ldr	r3, [r3]
 1126 0302 824A     		ldr	r2, .L55+8
 1127 0304 9342     		cmp	r3, r2
 1128 0306 40D0     		beq	.L37
 1129              		.loc 1 289 8 discriminator 6
 1130 0308 FB68     		ldr	r3, [r7, #12]
 1131 030a 1B68     		ldr	r3, [r3]
 1132 030c 804A     		ldr	r2, .L55+12
 1133 030e 9342     		cmp	r3, r2
 1134 0310 3BD0     		beq	.L37
 1135              		.loc 1 289 8 discriminator 8
 1136 0312 FB68     		ldr	r3, [r7, #12]
 1137 0314 1B68     		ldr	r3, [r3]
 1138 0316 7F4A     		ldr	r2, .L55+16
 1139 0318 9342     		cmp	r3, r2
ARM GAS  /tmp/cc9oZLZ6.s 			page 26


 1140 031a 36D0     		beq	.L37
 1141              		.loc 1 289 8 discriminator 10
 1142 031c FB68     		ldr	r3, [r7, #12]
 1143 031e 1B68     		ldr	r3, [r3]
 1144 0320 7D4A     		ldr	r2, .L55+20
 1145 0322 9342     		cmp	r3, r2
 1146 0324 31D0     		beq	.L37
 1147              		.loc 1 289 8 discriminator 12
 1148 0326 FB68     		ldr	r3, [r7, #12]
 1149 0328 1B68     		ldr	r3, [r3]
 1150 032a 7C4A     		ldr	r2, .L55+24
 1151 032c 9342     		cmp	r3, r2
 1152 032e 2CD0     		beq	.L37
 1153              		.loc 1 289 8 discriminator 14
 1154 0330 FB68     		ldr	r3, [r7, #12]
 1155 0332 1B68     		ldr	r3, [r3]
 1156 0334 7A4A     		ldr	r2, .L55+28
 1157 0336 9342     		cmp	r3, r2
 1158 0338 27D0     		beq	.L37
 1159              		.loc 1 289 8 discriminator 16
 1160 033a FB68     		ldr	r3, [r7, #12]
 1161 033c 1B68     		ldr	r3, [r3]
 1162 033e 794A     		ldr	r2, .L55+32
 1163 0340 9342     		cmp	r3, r2
 1164 0342 22D0     		beq	.L37
 1165              		.loc 1 289 8 discriminator 18
 1166 0344 FB68     		ldr	r3, [r7, #12]
 1167 0346 1B68     		ldr	r3, [r3]
 1168 0348 774A     		ldr	r2, .L55+36
 1169 034a 9342     		cmp	r3, r2
 1170 034c 1DD0     		beq	.L37
 1171              		.loc 1 289 8 discriminator 20
 1172 034e FB68     		ldr	r3, [r7, #12]
 1173 0350 1B68     		ldr	r3, [r3]
 1174 0352 764A     		ldr	r2, .L55+40
 1175 0354 9342     		cmp	r3, r2
 1176 0356 18D0     		beq	.L37
 1177              		.loc 1 289 8 discriminator 22
 1178 0358 FB68     		ldr	r3, [r7, #12]
 1179 035a 1B68     		ldr	r3, [r3]
 1180 035c 744A     		ldr	r2, .L55+44
 1181 035e 9342     		cmp	r3, r2
 1182 0360 13D0     		beq	.L37
 1183              		.loc 1 289 8 discriminator 24
 1184 0362 FB68     		ldr	r3, [r7, #12]
 1185 0364 1B68     		ldr	r3, [r3]
 1186 0366 734A     		ldr	r2, .L55+48
 1187 0368 9342     		cmp	r3, r2
 1188 036a 0ED0     		beq	.L37
 1189              		.loc 1 289 8 discriminator 26
 1190 036c FB68     		ldr	r3, [r7, #12]
 1191 036e 1B68     		ldr	r3, [r3]
 1192 0370 714A     		ldr	r2, .L55+52
 1193 0372 9342     		cmp	r3, r2
 1194 0374 09D0     		beq	.L37
 1195              		.loc 1 289 8 discriminator 28
 1196 0376 FB68     		ldr	r3, [r7, #12]
ARM GAS  /tmp/cc9oZLZ6.s 			page 27


 1197 0378 1B68     		ldr	r3, [r3]
 1198 037a 704A     		ldr	r2, .L55+56
 1199 037c 9342     		cmp	r3, r2
 1200 037e 04D0     		beq	.L37
 1201              		.loc 1 289 8 discriminator 30
 1202 0380 FB68     		ldr	r3, [r7, #12]
 1203 0382 1B68     		ldr	r3, [r3]
 1204 0384 6E4A     		ldr	r2, .L55+60
 1205 0386 9342     		cmp	r3, r2
 1206 0388 01D1     		bne	.L38
 1207              	.L37:
 1208              		.loc 1 289 8 discriminator 31
 1209 038a 0123     		movs	r3, #1
 1210 038c 00E0     		b	.L39
 1211              	.L38:
 1212              		.loc 1 289 8 discriminator 32
 1213 038e 0023     		movs	r3, #0
 1214              	.L39:
 1215              		.loc 1 289 7 is_stmt 1 discriminator 34
 1216 0390 002B     		cmp	r3, #0
 1217 0392 22D0     		beq	.L40
 290:./Libraries/STM32H7xx_HAL_Driver/Src/stm32h7xx_hal_dma_ex.c ****     {
 291:./Libraries/STM32H7xx_HAL_Driver/Src/stm32h7xx_hal_dma_ex.c ****       /* Enable Common interrupts*/
 292:./Libraries/STM32H7xx_HAL_Driver/Src/stm32h7xx_hal_dma_ex.c ****       MODIFY_REG(((DMA_Stream_TypeDef   *)hdma->Instance)->CR, (DMA_IT_TC | DMA_IT_TE | DMA_IT_DME 
 1218              		.loc 1 292 7
 1219 0394 FB68     		ldr	r3, [r7, #12]
 1220 0396 1B68     		ldr	r3, [r3]
 1221 0398 1B68     		ldr	r3, [r3]
 1222 039a 23F01E02 		bic	r2, r3, #30
 1223 039e FB68     		ldr	r3, [r7, #12]
 1224 03a0 1B68     		ldr	r3, [r3]
 1225 03a2 42F01602 		orr	r2, r2, #22
 1226 03a6 1A60     		str	r2, [r3]
 293:./Libraries/STM32H7xx_HAL_Driver/Src/stm32h7xx_hal_dma_ex.c ****       ((DMA_Stream_TypeDef   *)hdma->Instance)->FCR |= DMA_IT_FE;
 1227              		.loc 1 293 36
 1228 03a8 FB68     		ldr	r3, [r7, #12]
 1229 03aa 1B68     		ldr	r3, [r3]
 1230              		.loc 1 293 53
 1231 03ac 5A69     		ldr	r2, [r3, #20]
 1232              		.loc 1 293 36
 1233 03ae FB68     		ldr	r3, [r7, #12]
 1234 03b0 1B68     		ldr	r3, [r3]
 1235              		.loc 1 293 53
 1236 03b2 42F08002 		orr	r2, r2, #128
 1237 03b6 5A61     		str	r2, [r3, #20]
 294:./Libraries/STM32H7xx_HAL_Driver/Src/stm32h7xx_hal_dma_ex.c **** 
 295:./Libraries/STM32H7xx_HAL_Driver/Src/stm32h7xx_hal_dma_ex.c ****       if((hdma->XferHalfCpltCallback != NULL) || (hdma->XferM1HalfCpltCallback != NULL))
 1238              		.loc 1 295 15
 1239 03b8 FB68     		ldr	r3, [r7, #12]
 1240 03ba 1B6C     		ldr	r3, [r3, #64]
 1241              		.loc 1 295 9
 1242 03bc 002B     		cmp	r3, #0
 1243 03be 03D1     		bne	.L41
 1244              		.loc 1 295 55 discriminator 1
 1245 03c0 FB68     		ldr	r3, [r7, #12]
 1246 03c2 9B6C     		ldr	r3, [r3, #72]
 1247              		.loc 1 295 47 discriminator 1
ARM GAS  /tmp/cc9oZLZ6.s 			page 28


 1248 03c4 002B     		cmp	r3, #0
 1249 03c6 22D0     		beq	.L42
 1250              	.L41:
 296:./Libraries/STM32H7xx_HAL_Driver/Src/stm32h7xx_hal_dma_ex.c ****       {
 297:./Libraries/STM32H7xx_HAL_Driver/Src/stm32h7xx_hal_dma_ex.c ****         /*Enable Half Transfer IT if corresponding Callback is set*/
 298:./Libraries/STM32H7xx_HAL_Driver/Src/stm32h7xx_hal_dma_ex.c ****         ((DMA_Stream_TypeDef   *)hdma->Instance)->CR  |= DMA_IT_HT;
 1251              		.loc 1 298 38
 1252 03c8 FB68     		ldr	r3, [r7, #12]
 1253 03ca 1B68     		ldr	r3, [r3]
 1254              		.loc 1 298 55
 1255 03cc 1A68     		ldr	r2, [r3]
 1256              		.loc 1 298 38
 1257 03ce FB68     		ldr	r3, [r7, #12]
 1258 03d0 1B68     		ldr	r3, [r3]
 1259              		.loc 1 298 55
 1260 03d2 42F00802 		orr	r2, r2, #8
 1261 03d6 1A60     		str	r2, [r3]
 1262 03d8 19E0     		b	.L42
 1263              	.L40:
 299:./Libraries/STM32H7xx_HAL_Driver/Src/stm32h7xx_hal_dma_ex.c ****       }
 300:./Libraries/STM32H7xx_HAL_Driver/Src/stm32h7xx_hal_dma_ex.c ****     }
 301:./Libraries/STM32H7xx_HAL_Driver/Src/stm32h7xx_hal_dma_ex.c ****     else /* BDMA instance(s) */
 302:./Libraries/STM32H7xx_HAL_Driver/Src/stm32h7xx_hal_dma_ex.c ****     {
 303:./Libraries/STM32H7xx_HAL_Driver/Src/stm32h7xx_hal_dma_ex.c ****       /* Enable Common interrupts*/
 304:./Libraries/STM32H7xx_HAL_Driver/Src/stm32h7xx_hal_dma_ex.c ****       MODIFY_REG(((BDMA_Channel_TypeDef   *)hdma->Instance)->CCR, (BDMA_CCR_TCIE | BDMA_CCR_HTIE | 
 1264              		.loc 1 304 7
 1265 03da FB68     		ldr	r3, [r7, #12]
 1266 03dc 1B68     		ldr	r3, [r3]
 1267 03de 1B68     		ldr	r3, [r3]
 1268 03e0 23F00E02 		bic	r2, r3, #14
 1269 03e4 FB68     		ldr	r3, [r7, #12]
 1270 03e6 1B68     		ldr	r3, [r3]
 1271 03e8 42F00A02 		orr	r2, r2, #10
 1272 03ec 1A60     		str	r2, [r3]
 305:./Libraries/STM32H7xx_HAL_Driver/Src/stm32h7xx_hal_dma_ex.c **** 
 306:./Libraries/STM32H7xx_HAL_Driver/Src/stm32h7xx_hal_dma_ex.c ****       if((hdma->XferHalfCpltCallback != NULL) || (hdma->XferM1HalfCpltCallback != NULL))
 1273              		.loc 1 306 15
 1274 03ee FB68     		ldr	r3, [r7, #12]
 1275 03f0 1B6C     		ldr	r3, [r3, #64]
 1276              		.loc 1 306 9
 1277 03f2 002B     		cmp	r3, #0
 1278 03f4 03D1     		bne	.L43
 1279              		.loc 1 306 55 discriminator 1
 1280 03f6 FB68     		ldr	r3, [r7, #12]
 1281 03f8 9B6C     		ldr	r3, [r3, #72]
 1282              		.loc 1 306 47 discriminator 1
 1283 03fa 002B     		cmp	r3, #0
 1284 03fc 07D0     		beq	.L42
 1285              	.L43:
 307:./Libraries/STM32H7xx_HAL_Driver/Src/stm32h7xx_hal_dma_ex.c ****       {
 308:./Libraries/STM32H7xx_HAL_Driver/Src/stm32h7xx_hal_dma_ex.c ****         /*Enable Half Transfer IT if corresponding Callback is set*/
 309:./Libraries/STM32H7xx_HAL_Driver/Src/stm32h7xx_hal_dma_ex.c ****         ((BDMA_Channel_TypeDef   *)hdma->Instance)->CCR  |= BDMA_CCR_HTIE;
 1286              		.loc 1 309 40
 1287 03fe FB68     		ldr	r3, [r7, #12]
 1288 0400 1B68     		ldr	r3, [r3]
 1289              		.loc 1 309 58
 1290 0402 1A68     		ldr	r2, [r3]
ARM GAS  /tmp/cc9oZLZ6.s 			page 29


 1291              		.loc 1 309 40
 1292 0404 FB68     		ldr	r3, [r7, #12]
 1293 0406 1B68     		ldr	r3, [r3]
 1294              		.loc 1 309 58
 1295 0408 42F00402 		orr	r2, r2, #4
 1296 040c 1A60     		str	r2, [r3]
 1297              	.L42:
 310:./Libraries/STM32H7xx_HAL_Driver/Src/stm32h7xx_hal_dma_ex.c ****       }
 311:./Libraries/STM32H7xx_HAL_Driver/Src/stm32h7xx_hal_dma_ex.c ****     }
 312:./Libraries/STM32H7xx_HAL_Driver/Src/stm32h7xx_hal_dma_ex.c **** 
 313:./Libraries/STM32H7xx_HAL_Driver/Src/stm32h7xx_hal_dma_ex.c ****     if(IS_DMA_DMAMUX_ALL_INSTANCE(hdma->Instance) != 0U) /* No DMAMUX available for BDMA1 */
 1298              		.loc 1 313 8
 1299 040e FB68     		ldr	r3, [r7, #12]
 1300 0410 1B68     		ldr	r3, [r3]
 1301 0412 3C4A     		ldr	r2, .L55
 1302 0414 9342     		cmp	r3, r2
 1303 0416 72D0     		beq	.L44
 1304              		.loc 1 313 8 is_stmt 0 discriminator 2
 1305 0418 FB68     		ldr	r3, [r7, #12]
 1306 041a 1B68     		ldr	r3, [r3]
 1307 041c 3A4A     		ldr	r2, .L55+4
 1308 041e 9342     		cmp	r3, r2
 1309 0420 6DD0     		beq	.L44
 1310              		.loc 1 313 8 discriminator 4
 1311 0422 FB68     		ldr	r3, [r7, #12]
 1312 0424 1B68     		ldr	r3, [r3]
 1313 0426 394A     		ldr	r2, .L55+8
 1314 0428 9342     		cmp	r3, r2
 1315 042a 68D0     		beq	.L44
 1316              		.loc 1 313 8 discriminator 6
 1317 042c FB68     		ldr	r3, [r7, #12]
 1318 042e 1B68     		ldr	r3, [r3]
 1319 0430 374A     		ldr	r2, .L55+12
 1320 0432 9342     		cmp	r3, r2
 1321 0434 63D0     		beq	.L44
 1322              		.loc 1 313 8 discriminator 8
 1323 0436 FB68     		ldr	r3, [r7, #12]
 1324 0438 1B68     		ldr	r3, [r3]
 1325 043a 364A     		ldr	r2, .L55+16
 1326 043c 9342     		cmp	r3, r2
 1327 043e 5ED0     		beq	.L44
 1328              		.loc 1 313 8 discriminator 10
 1329 0440 FB68     		ldr	r3, [r7, #12]
 1330 0442 1B68     		ldr	r3, [r3]
 1331 0444 344A     		ldr	r2, .L55+20
 1332 0446 9342     		cmp	r3, r2
 1333 0448 59D0     		beq	.L44
 1334              		.loc 1 313 8 discriminator 12
 1335 044a FB68     		ldr	r3, [r7, #12]
 1336 044c 1B68     		ldr	r3, [r3]
 1337 044e 334A     		ldr	r2, .L55+24
 1338 0450 9342     		cmp	r3, r2
 1339 0452 54D0     		beq	.L44
 1340              		.loc 1 313 8 discriminator 14
 1341 0454 FB68     		ldr	r3, [r7, #12]
 1342 0456 1B68     		ldr	r3, [r3]
 1343 0458 314A     		ldr	r2, .L55+28
ARM GAS  /tmp/cc9oZLZ6.s 			page 30


 1344 045a 9342     		cmp	r3, r2
 1345 045c 4FD0     		beq	.L44
 1346              		.loc 1 313 8 discriminator 16
 1347 045e FB68     		ldr	r3, [r7, #12]
 1348 0460 1B68     		ldr	r3, [r3]
 1349 0462 304A     		ldr	r2, .L55+32
 1350 0464 9342     		cmp	r3, r2
 1351 0466 4AD0     		beq	.L44
 1352              		.loc 1 313 8 discriminator 18
 1353 0468 FB68     		ldr	r3, [r7, #12]
 1354 046a 1B68     		ldr	r3, [r3]
 1355 046c 2E4A     		ldr	r2, .L55+36
 1356 046e 9342     		cmp	r3, r2
 1357 0470 45D0     		beq	.L44
 1358              		.loc 1 313 8 discriminator 20
 1359 0472 FB68     		ldr	r3, [r7, #12]
 1360 0474 1B68     		ldr	r3, [r3]
 1361 0476 2D4A     		ldr	r2, .L55+40
 1362 0478 9342     		cmp	r3, r2
 1363 047a 40D0     		beq	.L44
 1364              		.loc 1 313 8 discriminator 22
 1365 047c FB68     		ldr	r3, [r7, #12]
 1366 047e 1B68     		ldr	r3, [r3]
 1367 0480 2B4A     		ldr	r2, .L55+44
 1368 0482 9342     		cmp	r3, r2
 1369 0484 3BD0     		beq	.L44
 1370              		.loc 1 313 8 discriminator 24
 1371 0486 FB68     		ldr	r3, [r7, #12]
 1372 0488 1B68     		ldr	r3, [r3]
 1373 048a 2A4A     		ldr	r2, .L55+48
 1374 048c 9342     		cmp	r3, r2
 1375 048e 36D0     		beq	.L44
 1376              		.loc 1 313 8 discriminator 26
 1377 0490 FB68     		ldr	r3, [r7, #12]
 1378 0492 1B68     		ldr	r3, [r3]
 1379 0494 284A     		ldr	r2, .L55+52
 1380 0496 9342     		cmp	r3, r2
 1381 0498 31D0     		beq	.L44
 1382              		.loc 1 313 8 discriminator 28
 1383 049a FB68     		ldr	r3, [r7, #12]
 1384 049c 1B68     		ldr	r3, [r3]
 1385 049e 274A     		ldr	r2, .L55+56
 1386 04a0 9342     		cmp	r3, r2
 1387 04a2 2CD0     		beq	.L44
 1388              		.loc 1 313 8 discriminator 30
 1389 04a4 FB68     		ldr	r3, [r7, #12]
 1390 04a6 1B68     		ldr	r3, [r3]
 1391 04a8 254A     		ldr	r2, .L55+60
 1392 04aa 9342     		cmp	r3, r2
 1393 04ac 27D0     		beq	.L44
 1394              		.loc 1 313 8 discriminator 32
 1395 04ae FB68     		ldr	r3, [r7, #12]
 1396 04b0 1B68     		ldr	r3, [r3]
 1397 04b2 244A     		ldr	r2, .L55+64
 1398 04b4 9342     		cmp	r3, r2
 1399 04b6 22D0     		beq	.L44
 1400              		.loc 1 313 8 discriminator 34
ARM GAS  /tmp/cc9oZLZ6.s 			page 31


 1401 04b8 FB68     		ldr	r3, [r7, #12]
 1402 04ba 1B68     		ldr	r3, [r3]
 1403 04bc 224A     		ldr	r2, .L55+68
 1404 04be 9342     		cmp	r3, r2
 1405 04c0 1DD0     		beq	.L44
 1406              		.loc 1 313 8 discriminator 36
 1407 04c2 FB68     		ldr	r3, [r7, #12]
 1408 04c4 1B68     		ldr	r3, [r3]
 1409 04c6 214A     		ldr	r2, .L55+72
 1410 04c8 9342     		cmp	r3, r2
 1411 04ca 18D0     		beq	.L44
 1412              		.loc 1 313 8 discriminator 38
 1413 04cc FB68     		ldr	r3, [r7, #12]
 1414 04ce 1B68     		ldr	r3, [r3]
 1415 04d0 1F4A     		ldr	r2, .L55+76
 1416 04d2 9342     		cmp	r3, r2
 1417 04d4 13D0     		beq	.L44
 1418              		.loc 1 313 8 discriminator 40
 1419 04d6 FB68     		ldr	r3, [r7, #12]
 1420 04d8 1B68     		ldr	r3, [r3]
 1421 04da 1E4A     		ldr	r2, .L55+80
 1422 04dc 9342     		cmp	r3, r2
 1423 04de 0ED0     		beq	.L44
 1424              		.loc 1 313 8 discriminator 42
 1425 04e0 FB68     		ldr	r3, [r7, #12]
 1426 04e2 1B68     		ldr	r3, [r3]
 1427 04e4 1C4A     		ldr	r2, .L55+84
 1428 04e6 9342     		cmp	r3, r2
 1429 04e8 09D0     		beq	.L44
 1430              		.loc 1 313 8 discriminator 44
 1431 04ea FB68     		ldr	r3, [r7, #12]
 1432 04ec 1B68     		ldr	r3, [r3]
 1433 04ee 1B4A     		ldr	r2, .L55+88
 1434 04f0 9342     		cmp	r3, r2
 1435 04f2 04D0     		beq	.L44
 1436              		.loc 1 313 8 discriminator 46
 1437 04f4 FB68     		ldr	r3, [r7, #12]
 1438 04f6 1B68     		ldr	r3, [r3]
 1439 04f8 194A     		ldr	r2, .L55+92
 1440 04fa 9342     		cmp	r3, r2
 1441 04fc 32D1     		bne	.L45
 1442              	.L44:
 1443              		.loc 1 313 8 discriminator 47
 1444 04fe 0123     		movs	r3, #1
 1445 0500 31E0     		b	.L46
 1446              	.L56:
 1447 0502 00BF     		.align	2
 1448              	.L55:
 1449 0504 10000240 		.word	1073872912
 1450 0508 28000240 		.word	1073872936
 1451 050c 40000240 		.word	1073872960
 1452 0510 58000240 		.word	1073872984
 1453 0514 70000240 		.word	1073873008
 1454 0518 88000240 		.word	1073873032
 1455 051c A0000240 		.word	1073873056
 1456 0520 B8000240 		.word	1073873080
 1457 0524 10040240 		.word	1073873936
ARM GAS  /tmp/cc9oZLZ6.s 			page 32


 1458 0528 28040240 		.word	1073873960
 1459 052c 40040240 		.word	1073873984
 1460 0530 58040240 		.word	1073874008
 1461 0534 70040240 		.word	1073874032
 1462 0538 88040240 		.word	1073874056
 1463 053c A0040240 		.word	1073874080
 1464 0540 B8040240 		.word	1073874104
 1465 0544 08540258 		.word	1476547592
 1466 0548 1C540258 		.word	1476547612
 1467 054c 30540258 		.word	1476547632
 1468 0550 44540258 		.word	1476547652
 1469 0554 58540258 		.word	1476547672
 1470 0558 6C540258 		.word	1476547692
 1471 055c 80540258 		.word	1476547712
 1472 0560 94540258 		.word	1476547732
 1473              	.L45:
 1474              		.loc 1 313 8 discriminator 48
 1475 0564 0023     		movs	r3, #0
 1476              	.L46:
 1477              		.loc 1 313 7 is_stmt 1 discriminator 50
 1478 0566 002B     		cmp	r3, #0
 1479 0568 1AD0     		beq	.L47
 314:./Libraries/STM32H7xx_HAL_Driver/Src/stm32h7xx_hal_dma_ex.c ****     {
 315:./Libraries/STM32H7xx_HAL_Driver/Src/stm32h7xx_hal_dma_ex.c ****       /* Check if DMAMUX Synchronization is enabled*/
 316:./Libraries/STM32H7xx_HAL_Driver/Src/stm32h7xx_hal_dma_ex.c ****       if((hdma->DMAmuxChannel->CCR & DMAMUX_CxCR_SE) != 0U)
 1480              		.loc 1 316 15
 1481 056a FB68     		ldr	r3, [r7, #12]
 1482 056c 1B6E     		ldr	r3, [r3, #96]
 1483              		.loc 1 316 30
 1484 056e 1B68     		ldr	r3, [r3]
 1485              		.loc 1 316 36
 1486 0570 03F48033 		and	r3, r3, #65536
 1487              		.loc 1 316 9
 1488 0574 002B     		cmp	r3, #0
 1489 0576 07D0     		beq	.L48
 317:./Libraries/STM32H7xx_HAL_Driver/Src/stm32h7xx_hal_dma_ex.c ****       {
 318:./Libraries/STM32H7xx_HAL_Driver/Src/stm32h7xx_hal_dma_ex.c ****         /* Enable DMAMUX sync overrun IT*/
 319:./Libraries/STM32H7xx_HAL_Driver/Src/stm32h7xx_hal_dma_ex.c ****         hdma->DMAmuxChannel->CCR |= DMAMUX_CxCR_SOIE;
 1490              		.loc 1 319 13
 1491 0578 FB68     		ldr	r3, [r7, #12]
 1492 057a 1B6E     		ldr	r3, [r3, #96]
 1493              		.loc 1 319 34
 1494 057c 1A68     		ldr	r2, [r3]
 1495              		.loc 1 319 13
 1496 057e FB68     		ldr	r3, [r7, #12]
 1497 0580 1B6E     		ldr	r3, [r3, #96]
 1498              		.loc 1 319 34
 1499 0582 42F48072 		orr	r2, r2, #256
 1500 0586 1A60     		str	r2, [r3]
 1501              	.L48:
 320:./Libraries/STM32H7xx_HAL_Driver/Src/stm32h7xx_hal_dma_ex.c ****       }
 321:./Libraries/STM32H7xx_HAL_Driver/Src/stm32h7xx_hal_dma_ex.c **** 
 322:./Libraries/STM32H7xx_HAL_Driver/Src/stm32h7xx_hal_dma_ex.c ****       if(hdma->DMAmuxRequestGen != 0U)
 1502              		.loc 1 322 14
 1503 0588 FB68     		ldr	r3, [r7, #12]
 1504 058a DB6E     		ldr	r3, [r3, #108]
 1505              		.loc 1 322 9
ARM GAS  /tmp/cc9oZLZ6.s 			page 33


 1506 058c 002B     		cmp	r3, #0
 1507 058e 07D0     		beq	.L47
 323:./Libraries/STM32H7xx_HAL_Driver/Src/stm32h7xx_hal_dma_ex.c ****       {
 324:./Libraries/STM32H7xx_HAL_Driver/Src/stm32h7xx_hal_dma_ex.c ****         /* if using DMAMUX request generator, enable the DMAMUX request generator overrun IT*/
 325:./Libraries/STM32H7xx_HAL_Driver/Src/stm32h7xx_hal_dma_ex.c ****         /* enable the request gen overrun IT*/
 326:./Libraries/STM32H7xx_HAL_Driver/Src/stm32h7xx_hal_dma_ex.c ****         hdma->DMAmuxRequestGen->RGCR |= DMAMUX_RGxCR_OIE;
 1508              		.loc 1 326 13
 1509 0590 FB68     		ldr	r3, [r7, #12]
 1510 0592 DB6E     		ldr	r3, [r3, #108]
 1511              		.loc 1 326 38
 1512 0594 1A68     		ldr	r2, [r3]
 1513              		.loc 1 326 13
 1514 0596 FB68     		ldr	r3, [r7, #12]
 1515 0598 DB6E     		ldr	r3, [r3, #108]
 1516              		.loc 1 326 38
 1517 059a 42F48072 		orr	r2, r2, #256
 1518 059e 1A60     		str	r2, [r3]
 1519              	.L47:
 327:./Libraries/STM32H7xx_HAL_Driver/Src/stm32h7xx_hal_dma_ex.c ****       }
 328:./Libraries/STM32H7xx_HAL_Driver/Src/stm32h7xx_hal_dma_ex.c ****     }
 329:./Libraries/STM32H7xx_HAL_Driver/Src/stm32h7xx_hal_dma_ex.c **** 
 330:./Libraries/STM32H7xx_HAL_Driver/Src/stm32h7xx_hal_dma_ex.c ****     /* Enable the peripheral */
 331:./Libraries/STM32H7xx_HAL_Driver/Src/stm32h7xx_hal_dma_ex.c ****     __HAL_DMA_ENABLE(hdma);
 1520              		.loc 1 331 5
 1521 05a0 FB68     		ldr	r3, [r7, #12]
 1522 05a2 1B68     		ldr	r3, [r3]
 1523 05a4 354A     		ldr	r2, .L57
 1524 05a6 9342     		cmp	r3, r2
 1525 05a8 4AD0     		beq	.L49
 1526              		.loc 1 331 5 is_stmt 0 discriminator 2
 1527 05aa FB68     		ldr	r3, [r7, #12]
 1528 05ac 1B68     		ldr	r3, [r3]
 1529 05ae 344A     		ldr	r2, .L57+4
 1530 05b0 9342     		cmp	r3, r2
 1531 05b2 45D0     		beq	.L49
 1532              		.loc 1 331 5 discriminator 4
 1533 05b4 FB68     		ldr	r3, [r7, #12]
 1534 05b6 1B68     		ldr	r3, [r3]
 1535 05b8 324A     		ldr	r2, .L57+8
 1536 05ba 9342     		cmp	r3, r2
 1537 05bc 40D0     		beq	.L49
 1538              		.loc 1 331 5 discriminator 6
 1539 05be FB68     		ldr	r3, [r7, #12]
 1540 05c0 1B68     		ldr	r3, [r3]
 1541 05c2 314A     		ldr	r2, .L57+12
 1542 05c4 9342     		cmp	r3, r2
 1543 05c6 3BD0     		beq	.L49
 1544              		.loc 1 331 5 discriminator 8
 1545 05c8 FB68     		ldr	r3, [r7, #12]
 1546 05ca 1B68     		ldr	r3, [r3]
 1547 05cc 2F4A     		ldr	r2, .L57+16
 1548 05ce 9342     		cmp	r3, r2
 1549 05d0 36D0     		beq	.L49
 1550              		.loc 1 331 5 discriminator 10
 1551 05d2 FB68     		ldr	r3, [r7, #12]
 1552 05d4 1B68     		ldr	r3, [r3]
 1553 05d6 2E4A     		ldr	r2, .L57+20
ARM GAS  /tmp/cc9oZLZ6.s 			page 34


 1554 05d8 9342     		cmp	r3, r2
 1555 05da 31D0     		beq	.L49
 1556              		.loc 1 331 5 discriminator 12
 1557 05dc FB68     		ldr	r3, [r7, #12]
 1558 05de 1B68     		ldr	r3, [r3]
 1559 05e0 2C4A     		ldr	r2, .L57+24
 1560 05e2 9342     		cmp	r3, r2
 1561 05e4 2CD0     		beq	.L49
 1562              		.loc 1 331 5 discriminator 14
 1563 05e6 FB68     		ldr	r3, [r7, #12]
 1564 05e8 1B68     		ldr	r3, [r3]
 1565 05ea 2B4A     		ldr	r2, .L57+28
 1566 05ec 9342     		cmp	r3, r2
 1567 05ee 27D0     		beq	.L49
 1568              		.loc 1 331 5 discriminator 16
 1569 05f0 FB68     		ldr	r3, [r7, #12]
 1570 05f2 1B68     		ldr	r3, [r3]
 1571 05f4 294A     		ldr	r2, .L57+32
 1572 05f6 9342     		cmp	r3, r2
 1573 05f8 22D0     		beq	.L49
 1574              		.loc 1 331 5 discriminator 18
 1575 05fa FB68     		ldr	r3, [r7, #12]
 1576 05fc 1B68     		ldr	r3, [r3]
 1577 05fe 284A     		ldr	r2, .L57+36
 1578 0600 9342     		cmp	r3, r2
 1579 0602 1DD0     		beq	.L49
 1580              		.loc 1 331 5 discriminator 20
 1581 0604 FB68     		ldr	r3, [r7, #12]
 1582 0606 1B68     		ldr	r3, [r3]
 1583 0608 264A     		ldr	r2, .L57+40
 1584 060a 9342     		cmp	r3, r2
 1585 060c 18D0     		beq	.L49
 1586              		.loc 1 331 5 discriminator 22
 1587 060e FB68     		ldr	r3, [r7, #12]
 1588 0610 1B68     		ldr	r3, [r3]
 1589 0612 254A     		ldr	r2, .L57+44
 1590 0614 9342     		cmp	r3, r2
 1591 0616 13D0     		beq	.L49
 1592              		.loc 1 331 5 discriminator 24
 1593 0618 FB68     		ldr	r3, [r7, #12]
 1594 061a 1B68     		ldr	r3, [r3]
 1595 061c 234A     		ldr	r2, .L57+48
 1596 061e 9342     		cmp	r3, r2
 1597 0620 0ED0     		beq	.L49
 1598              		.loc 1 331 5 discriminator 26
 1599 0622 FB68     		ldr	r3, [r7, #12]
 1600 0624 1B68     		ldr	r3, [r3]
 1601 0626 224A     		ldr	r2, .L57+52
 1602 0628 9342     		cmp	r3, r2
 1603 062a 09D0     		beq	.L49
 1604              		.loc 1 331 5 discriminator 28
 1605 062c FB68     		ldr	r3, [r7, #12]
 1606 062e 1B68     		ldr	r3, [r3]
 1607 0630 204A     		ldr	r2, .L57+56
 1608 0632 9342     		cmp	r3, r2
 1609 0634 04D0     		beq	.L49
 1610              		.loc 1 331 5 discriminator 30
ARM GAS  /tmp/cc9oZLZ6.s 			page 35


 1611 0636 FB68     		ldr	r3, [r7, #12]
 1612 0638 1B68     		ldr	r3, [r3]
 1613 063a 1F4A     		ldr	r2, .L57+60
 1614 063c 9342     		cmp	r3, r2
 1615 063e 08D1     		bne	.L50
 1616              	.L49:
 1617              		.loc 1 331 5 discriminator 31
 1618 0640 FB68     		ldr	r3, [r7, #12]
 1619 0642 1B68     		ldr	r3, [r3]
 1620 0644 1A68     		ldr	r2, [r3]
 1621 0646 FB68     		ldr	r3, [r7, #12]
 1622 0648 1B68     		ldr	r3, [r3]
 1623 064a 42F00102 		orr	r2, r2, #1
 1624 064e 1A60     		str	r2, [r3]
 1625 0650 0EE0     		b	.L52
 1626              	.L50:
 1627              		.loc 1 331 5 discriminator 32
 1628 0652 FB68     		ldr	r3, [r7, #12]
 1629 0654 1B68     		ldr	r3, [r3]
 1630 0656 1A68     		ldr	r2, [r3]
 1631 0658 FB68     		ldr	r3, [r7, #12]
 1632 065a 1B68     		ldr	r3, [r3]
 1633 065c 42F00102 		orr	r2, r2, #1
 1634 0660 1A60     		str	r2, [r3]
 1635 0662 05E0     		b	.L52
 1636              	.L27:
 332:./Libraries/STM32H7xx_HAL_Driver/Src/stm32h7xx_hal_dma_ex.c ****   }
 333:./Libraries/STM32H7xx_HAL_Driver/Src/stm32h7xx_hal_dma_ex.c ****   else
 334:./Libraries/STM32H7xx_HAL_Driver/Src/stm32h7xx_hal_dma_ex.c ****   {
 335:./Libraries/STM32H7xx_HAL_Driver/Src/stm32h7xx_hal_dma_ex.c ****     /* Set the error code to busy */
 336:./Libraries/STM32H7xx_HAL_Driver/Src/stm32h7xx_hal_dma_ex.c ****     hdma->ErrorCode = HAL_DMA_ERROR_BUSY;
 1637              		.loc 1 336 21 is_stmt 1
 1638 0664 FB68     		ldr	r3, [r7, #12]
 1639 0666 4FF40062 		mov	r2, #2048
 1640 066a 5A65     		str	r2, [r3, #84]
 337:./Libraries/STM32H7xx_HAL_Driver/Src/stm32h7xx_hal_dma_ex.c **** 
 338:./Libraries/STM32H7xx_HAL_Driver/Src/stm32h7xx_hal_dma_ex.c ****     /* Return error status */
 339:./Libraries/STM32H7xx_HAL_Driver/Src/stm32h7xx_hal_dma_ex.c ****     status = HAL_ERROR;
 1641              		.loc 1 339 12
 1642 066c 0123     		movs	r3, #1
 1643 066e FB75     		strb	r3, [r7, #23]
 1644              	.L52:
 340:./Libraries/STM32H7xx_HAL_Driver/Src/stm32h7xx_hal_dma_ex.c ****   }
 341:./Libraries/STM32H7xx_HAL_Driver/Src/stm32h7xx_hal_dma_ex.c ****   return status;
 1645              		.loc 1 341 10
 1646 0670 FB7D     		ldrb	r3, [r7, #23]	@ zero_extendqisi2
 1647              	.L25:
 342:./Libraries/STM32H7xx_HAL_Driver/Src/stm32h7xx_hal_dma_ex.c **** }
 1648              		.loc 1 342 1
 1649 0672 1846     		mov	r0, r3
 1650 0674 1837     		adds	r7, r7, #24
 1651              	.LCFI8:
 1652              		.cfi_def_cfa_offset 8
 1653 0676 BD46     		mov	sp, r7
 1654              	.LCFI9:
 1655              		.cfi_def_cfa_register 13
 1656              		@ sp needed
ARM GAS  /tmp/cc9oZLZ6.s 			page 36


 1657 0678 80BD     		pop	{r7, pc}
 1658              	.L58:
 1659 067a 00BF     		.align	2
 1660              	.L57:
 1661 067c 10000240 		.word	1073872912
 1662 0680 28000240 		.word	1073872936
 1663 0684 40000240 		.word	1073872960
 1664 0688 58000240 		.word	1073872984
 1665 068c 70000240 		.word	1073873008
 1666 0690 88000240 		.word	1073873032
 1667 0694 A0000240 		.word	1073873056
 1668 0698 B8000240 		.word	1073873080
 1669 069c 10040240 		.word	1073873936
 1670 06a0 28040240 		.word	1073873960
 1671 06a4 40040240 		.word	1073873984
 1672 06a8 58040240 		.word	1073874008
 1673 06ac 70040240 		.word	1073874032
 1674 06b0 88040240 		.word	1073874056
 1675 06b4 A0040240 		.word	1073874080
 1676 06b8 B8040240 		.word	1073874104
 1677              		.cfi_endproc
 1678              	.LFE332:
 1680              		.section	.text.HAL_DMAEx_ChangeMemory,"ax",%progbits
 1681              		.align	1
 1682              		.global	HAL_DMAEx_ChangeMemory
 1683              		.syntax unified
 1684              		.thumb
 1685              		.thumb_func
 1686              		.fpu fpv5-d16
 1688              	HAL_DMAEx_ChangeMemory:
 1689              	.LFB333:
 343:./Libraries/STM32H7xx_HAL_Driver/Src/stm32h7xx_hal_dma_ex.c **** 
 344:./Libraries/STM32H7xx_HAL_Driver/Src/stm32h7xx_hal_dma_ex.c **** /**
 345:./Libraries/STM32H7xx_HAL_Driver/Src/stm32h7xx_hal_dma_ex.c ****   * @brief  Change the memory0 or memory1 address on the fly.
 346:./Libraries/STM32H7xx_HAL_Driver/Src/stm32h7xx_hal_dma_ex.c ****   * @param  hdma:       pointer to a DMA_HandleTypeDef structure that contains
 347:./Libraries/STM32H7xx_HAL_Driver/Src/stm32h7xx_hal_dma_ex.c ****   *                     the configuration information for the specified DMA Stream.
 348:./Libraries/STM32H7xx_HAL_Driver/Src/stm32h7xx_hal_dma_ex.c ****   * @param  Address:    The new address
 349:./Libraries/STM32H7xx_HAL_Driver/Src/stm32h7xx_hal_dma_ex.c ****   * @param  memory:     the memory to be changed, This parameter can be one of
 350:./Libraries/STM32H7xx_HAL_Driver/Src/stm32h7xx_hal_dma_ex.c ****   *                     the following values:
 351:./Libraries/STM32H7xx_HAL_Driver/Src/stm32h7xx_hal_dma_ex.c ****   *                      MEMORY0 /
 352:./Libraries/STM32H7xx_HAL_Driver/Src/stm32h7xx_hal_dma_ex.c ****   *                      MEMORY1
 353:./Libraries/STM32H7xx_HAL_Driver/Src/stm32h7xx_hal_dma_ex.c ****   * @note   The MEMORY0 address can be changed only when the current transfer use
 354:./Libraries/STM32H7xx_HAL_Driver/Src/stm32h7xx_hal_dma_ex.c ****   *         MEMORY1 and the MEMORY1 address can be changed only when the current
 355:./Libraries/STM32H7xx_HAL_Driver/Src/stm32h7xx_hal_dma_ex.c ****   *         transfer use MEMORY0.
 356:./Libraries/STM32H7xx_HAL_Driver/Src/stm32h7xx_hal_dma_ex.c ****   * @retval HAL status
 357:./Libraries/STM32H7xx_HAL_Driver/Src/stm32h7xx_hal_dma_ex.c ****   */
 358:./Libraries/STM32H7xx_HAL_Driver/Src/stm32h7xx_hal_dma_ex.c **** HAL_StatusTypeDef HAL_DMAEx_ChangeMemory(DMA_HandleTypeDef *hdma, uint32_t Address, HAL_DMA_MemoryT
 359:./Libraries/STM32H7xx_HAL_Driver/Src/stm32h7xx_hal_dma_ex.c **** {
 1690              		.loc 1 359 1
 1691              		.cfi_startproc
 1692              		@ args = 0, pretend = 0, frame = 16
 1693              		@ frame_needed = 1, uses_anonymous_args = 0
 1694              		@ link register save eliminated.
 1695 0000 80B4     		push	{r7}
 1696              	.LCFI10:
 1697              		.cfi_def_cfa_offset 4
 1698              		.cfi_offset 7, -4
ARM GAS  /tmp/cc9oZLZ6.s 			page 37


 1699 0002 85B0     		sub	sp, sp, #20
 1700              	.LCFI11:
 1701              		.cfi_def_cfa_offset 24
 1702 0004 00AF     		add	r7, sp, #0
 1703              	.LCFI12:
 1704              		.cfi_def_cfa_register 7
 1705 0006 F860     		str	r0, [r7, #12]
 1706 0008 B960     		str	r1, [r7, #8]
 1707 000a 1346     		mov	r3, r2
 1708 000c FB71     		strb	r3, [r7, #7]
 360:./Libraries/STM32H7xx_HAL_Driver/Src/stm32h7xx_hal_dma_ex.c ****   if(IS_DMA_STREAM_INSTANCE(hdma->Instance) != 0U) /* DMA1 or DMA2 instance */
 1709              		.loc 1 360 6
 1710 000e FB68     		ldr	r3, [r7, #12]
 1711 0010 1B68     		ldr	r3, [r3]
 1712 0012 394A     		ldr	r2, .L68
 1713 0014 9342     		cmp	r3, r2
 1714 0016 4AD0     		beq	.L60
 1715              		.loc 1 360 6 is_stmt 0 discriminator 2
 1716 0018 FB68     		ldr	r3, [r7, #12]
 1717 001a 1B68     		ldr	r3, [r3]
 1718 001c 374A     		ldr	r2, .L68+4
 1719 001e 9342     		cmp	r3, r2
 1720 0020 45D0     		beq	.L60
 1721              		.loc 1 360 6 discriminator 4
 1722 0022 FB68     		ldr	r3, [r7, #12]
 1723 0024 1B68     		ldr	r3, [r3]
 1724 0026 364A     		ldr	r2, .L68+8
 1725 0028 9342     		cmp	r3, r2
 1726 002a 40D0     		beq	.L60
 1727              		.loc 1 360 6 discriminator 6
 1728 002c FB68     		ldr	r3, [r7, #12]
 1729 002e 1B68     		ldr	r3, [r3]
 1730 0030 344A     		ldr	r2, .L68+12
 1731 0032 9342     		cmp	r3, r2
 1732 0034 3BD0     		beq	.L60
 1733              		.loc 1 360 6 discriminator 8
 1734 0036 FB68     		ldr	r3, [r7, #12]
 1735 0038 1B68     		ldr	r3, [r3]
 1736 003a 334A     		ldr	r2, .L68+16
 1737 003c 9342     		cmp	r3, r2
 1738 003e 36D0     		beq	.L60
 1739              		.loc 1 360 6 discriminator 10
 1740 0040 FB68     		ldr	r3, [r7, #12]
 1741 0042 1B68     		ldr	r3, [r3]
 1742 0044 314A     		ldr	r2, .L68+20
 1743 0046 9342     		cmp	r3, r2
 1744 0048 31D0     		beq	.L60
 1745              		.loc 1 360 6 discriminator 12
 1746 004a FB68     		ldr	r3, [r7, #12]
 1747 004c 1B68     		ldr	r3, [r3]
 1748 004e 304A     		ldr	r2, .L68+24
 1749 0050 9342     		cmp	r3, r2
 1750 0052 2CD0     		beq	.L60
 1751              		.loc 1 360 6 discriminator 14
 1752 0054 FB68     		ldr	r3, [r7, #12]
 1753 0056 1B68     		ldr	r3, [r3]
 1754 0058 2E4A     		ldr	r2, .L68+28
ARM GAS  /tmp/cc9oZLZ6.s 			page 38


 1755 005a 9342     		cmp	r3, r2
 1756 005c 27D0     		beq	.L60
 1757              		.loc 1 360 6 discriminator 16
 1758 005e FB68     		ldr	r3, [r7, #12]
 1759 0060 1B68     		ldr	r3, [r3]
 1760 0062 2D4A     		ldr	r2, .L68+32
 1761 0064 9342     		cmp	r3, r2
 1762 0066 22D0     		beq	.L60
 1763              		.loc 1 360 6 discriminator 18
 1764 0068 FB68     		ldr	r3, [r7, #12]
 1765 006a 1B68     		ldr	r3, [r3]
 1766 006c 2B4A     		ldr	r2, .L68+36
 1767 006e 9342     		cmp	r3, r2
 1768 0070 1DD0     		beq	.L60
 1769              		.loc 1 360 6 discriminator 20
 1770 0072 FB68     		ldr	r3, [r7, #12]
 1771 0074 1B68     		ldr	r3, [r3]
 1772 0076 2A4A     		ldr	r2, .L68+40
 1773 0078 9342     		cmp	r3, r2
 1774 007a 18D0     		beq	.L60
 1775              		.loc 1 360 6 discriminator 22
 1776 007c FB68     		ldr	r3, [r7, #12]
 1777 007e 1B68     		ldr	r3, [r3]
 1778 0080 284A     		ldr	r2, .L68+44
 1779 0082 9342     		cmp	r3, r2
 1780 0084 13D0     		beq	.L60
 1781              		.loc 1 360 6 discriminator 24
 1782 0086 FB68     		ldr	r3, [r7, #12]
 1783 0088 1B68     		ldr	r3, [r3]
 1784 008a 274A     		ldr	r2, .L68+48
 1785 008c 9342     		cmp	r3, r2
 1786 008e 0ED0     		beq	.L60
 1787              		.loc 1 360 6 discriminator 26
 1788 0090 FB68     		ldr	r3, [r7, #12]
 1789 0092 1B68     		ldr	r3, [r3]
 1790 0094 254A     		ldr	r2, .L68+52
 1791 0096 9342     		cmp	r3, r2
 1792 0098 09D0     		beq	.L60
 1793              		.loc 1 360 6 discriminator 28
 1794 009a FB68     		ldr	r3, [r7, #12]
 1795 009c 1B68     		ldr	r3, [r3]
 1796 009e 244A     		ldr	r2, .L68+56
 1797 00a0 9342     		cmp	r3, r2
 1798 00a2 04D0     		beq	.L60
 1799              		.loc 1 360 6 discriminator 30
 1800 00a4 FB68     		ldr	r3, [r7, #12]
 1801 00a6 1B68     		ldr	r3, [r3]
 1802 00a8 224A     		ldr	r2, .L68+60
 1803 00aa 9342     		cmp	r3, r2
 1804 00ac 01D1     		bne	.L61
 1805              	.L60:
 1806              		.loc 1 360 6 discriminator 31
 1807 00ae 0123     		movs	r3, #1
 1808 00b0 00E0     		b	.L62
 1809              	.L61:
 1810              		.loc 1 360 6 discriminator 32
 1811 00b2 0023     		movs	r3, #0
ARM GAS  /tmp/cc9oZLZ6.s 			page 39


 1812              	.L62:
 1813              		.loc 1 360 5 is_stmt 1 discriminator 34
 1814 00b4 002B     		cmp	r3, #0
 1815 00b6 0CD0     		beq	.L63
 361:./Libraries/STM32H7xx_HAL_Driver/Src/stm32h7xx_hal_dma_ex.c ****   {
 362:./Libraries/STM32H7xx_HAL_Driver/Src/stm32h7xx_hal_dma_ex.c ****     if(memory == MEMORY0)
 1816              		.loc 1 362 7
 1817 00b8 FB79     		ldrb	r3, [r7, #7]	@ zero_extendqisi2
 1818 00ba 002B     		cmp	r3, #0
 1819 00bc 04D1     		bne	.L64
 363:./Libraries/STM32H7xx_HAL_Driver/Src/stm32h7xx_hal_dma_ex.c ****     {
 364:./Libraries/STM32H7xx_HAL_Driver/Src/stm32h7xx_hal_dma_ex.c ****       /* change the memory0 address */
 365:./Libraries/STM32H7xx_HAL_Driver/Src/stm32h7xx_hal_dma_ex.c ****       ((DMA_Stream_TypeDef   *)hdma->Instance)->M0AR = Address;
 1820              		.loc 1 365 36
 1821 00be FB68     		ldr	r3, [r7, #12]
 1822 00c0 1B68     		ldr	r3, [r3]
 1823              		.loc 1 365 54
 1824 00c2 BA68     		ldr	r2, [r7, #8]
 1825 00c4 DA60     		str	r2, [r3, #12]
 1826 00c6 10E0     		b	.L65
 1827              	.L64:
 366:./Libraries/STM32H7xx_HAL_Driver/Src/stm32h7xx_hal_dma_ex.c ****     }
 367:./Libraries/STM32H7xx_HAL_Driver/Src/stm32h7xx_hal_dma_ex.c ****     else
 368:./Libraries/STM32H7xx_HAL_Driver/Src/stm32h7xx_hal_dma_ex.c ****     {
 369:./Libraries/STM32H7xx_HAL_Driver/Src/stm32h7xx_hal_dma_ex.c ****       /* change the memory1 address */
 370:./Libraries/STM32H7xx_HAL_Driver/Src/stm32h7xx_hal_dma_ex.c ****       ((DMA_Stream_TypeDef   *)hdma->Instance)->M1AR = Address;
 1828              		.loc 1 370 36
 1829 00c8 FB68     		ldr	r3, [r7, #12]
 1830 00ca 1B68     		ldr	r3, [r3]
 1831              		.loc 1 370 54
 1832 00cc BA68     		ldr	r2, [r7, #8]
 1833 00ce 1A61     		str	r2, [r3, #16]
 1834 00d0 0BE0     		b	.L65
 1835              	.L63:
 371:./Libraries/STM32H7xx_HAL_Driver/Src/stm32h7xx_hal_dma_ex.c ****     }
 372:./Libraries/STM32H7xx_HAL_Driver/Src/stm32h7xx_hal_dma_ex.c ****   }
 373:./Libraries/STM32H7xx_HAL_Driver/Src/stm32h7xx_hal_dma_ex.c ****   else /* BDMA instance(s) */
 374:./Libraries/STM32H7xx_HAL_Driver/Src/stm32h7xx_hal_dma_ex.c ****   {
 375:./Libraries/STM32H7xx_HAL_Driver/Src/stm32h7xx_hal_dma_ex.c ****     if(memory == MEMORY0)
 1836              		.loc 1 375 7
 1837 00d2 FB79     		ldrb	r3, [r7, #7]	@ zero_extendqisi2
 1838 00d4 002B     		cmp	r3, #0
 1839 00d6 04D1     		bne	.L66
 376:./Libraries/STM32H7xx_HAL_Driver/Src/stm32h7xx_hal_dma_ex.c ****     {
 377:./Libraries/STM32H7xx_HAL_Driver/Src/stm32h7xx_hal_dma_ex.c ****       /* change the memory0 address */
 378:./Libraries/STM32H7xx_HAL_Driver/Src/stm32h7xx_hal_dma_ex.c ****       ((BDMA_Channel_TypeDef   *)hdma->Instance)->CM0AR = Address;
 1840              		.loc 1 378 38
 1841 00d8 FB68     		ldr	r3, [r7, #12]
 1842 00da 1B68     		ldr	r3, [r3]
 1843              		.loc 1 378 57
 1844 00dc BA68     		ldr	r2, [r7, #8]
 1845 00de DA60     		str	r2, [r3, #12]
 1846 00e0 03E0     		b	.L65
 1847              	.L66:
 379:./Libraries/STM32H7xx_HAL_Driver/Src/stm32h7xx_hal_dma_ex.c ****     }
 380:./Libraries/STM32H7xx_HAL_Driver/Src/stm32h7xx_hal_dma_ex.c ****     else
 381:./Libraries/STM32H7xx_HAL_Driver/Src/stm32h7xx_hal_dma_ex.c ****     {
ARM GAS  /tmp/cc9oZLZ6.s 			page 40


 382:./Libraries/STM32H7xx_HAL_Driver/Src/stm32h7xx_hal_dma_ex.c ****       /* change the memory1 address */
 383:./Libraries/STM32H7xx_HAL_Driver/Src/stm32h7xx_hal_dma_ex.c ****       ((BDMA_Channel_TypeDef   *)hdma->Instance)->CM1AR = Address;
 1848              		.loc 1 383 38
 1849 00e2 FB68     		ldr	r3, [r7, #12]
 1850 00e4 1B68     		ldr	r3, [r3]
 1851              		.loc 1 383 57
 1852 00e6 BA68     		ldr	r2, [r7, #8]
 1853 00e8 1A61     		str	r2, [r3, #16]
 1854              	.L65:
 384:./Libraries/STM32H7xx_HAL_Driver/Src/stm32h7xx_hal_dma_ex.c ****     }
 385:./Libraries/STM32H7xx_HAL_Driver/Src/stm32h7xx_hal_dma_ex.c ****   }
 386:./Libraries/STM32H7xx_HAL_Driver/Src/stm32h7xx_hal_dma_ex.c **** 
 387:./Libraries/STM32H7xx_HAL_Driver/Src/stm32h7xx_hal_dma_ex.c ****   return HAL_OK;
 1855              		.loc 1 387 10
 1856 00ea 0023     		movs	r3, #0
 388:./Libraries/STM32H7xx_HAL_Driver/Src/stm32h7xx_hal_dma_ex.c **** }
 1857              		.loc 1 388 1
 1858 00ec 1846     		mov	r0, r3
 1859 00ee 1437     		adds	r7, r7, #20
 1860              	.LCFI13:
 1861              		.cfi_def_cfa_offset 4
 1862 00f0 BD46     		mov	sp, r7
 1863              	.LCFI14:
 1864              		.cfi_def_cfa_register 13
 1865              		@ sp needed
 1866 00f2 5DF8047B 		ldr	r7, [sp], #4
 1867              	.LCFI15:
 1868              		.cfi_restore 7
 1869              		.cfi_def_cfa_offset 0
 1870 00f6 7047     		bx	lr
 1871              	.L69:
 1872              		.align	2
 1873              	.L68:
 1874 00f8 10000240 		.word	1073872912
 1875 00fc 28000240 		.word	1073872936
 1876 0100 40000240 		.word	1073872960
 1877 0104 58000240 		.word	1073872984
 1878 0108 70000240 		.word	1073873008
 1879 010c 88000240 		.word	1073873032
 1880 0110 A0000240 		.word	1073873056
 1881 0114 B8000240 		.word	1073873080
 1882 0118 10040240 		.word	1073873936
 1883 011c 28040240 		.word	1073873960
 1884 0120 40040240 		.word	1073873984
 1885 0124 58040240 		.word	1073874008
 1886 0128 70040240 		.word	1073874032
 1887 012c 88040240 		.word	1073874056
 1888 0130 A0040240 		.word	1073874080
 1889 0134 B8040240 		.word	1073874104
 1890              		.cfi_endproc
 1891              	.LFE333:
 1893              		.section	.text.HAL_DMAEx_ConfigMuxSync,"ax",%progbits
 1894              		.align	1
 1895              		.global	HAL_DMAEx_ConfigMuxSync
 1896              		.syntax unified
 1897              		.thumb
 1898              		.thumb_func
ARM GAS  /tmp/cc9oZLZ6.s 			page 41


 1899              		.fpu fpv5-d16
 1901              	HAL_DMAEx_ConfigMuxSync:
 1902              	.LFB334:
 389:./Libraries/STM32H7xx_HAL_Driver/Src/stm32h7xx_hal_dma_ex.c **** 
 390:./Libraries/STM32H7xx_HAL_Driver/Src/stm32h7xx_hal_dma_ex.c **** /**
 391:./Libraries/STM32H7xx_HAL_Driver/Src/stm32h7xx_hal_dma_ex.c ****   * @brief  Configure the DMAMUX synchronization parameters for a given DMA stream (instance).
 392:./Libraries/STM32H7xx_HAL_Driver/Src/stm32h7xx_hal_dma_ex.c ****   * @param  hdma:       pointer to a DMA_HandleTypeDef structure that contains
 393:./Libraries/STM32H7xx_HAL_Driver/Src/stm32h7xx_hal_dma_ex.c ****   *                     the configuration information for the specified DMA Stream.
 394:./Libraries/STM32H7xx_HAL_Driver/Src/stm32h7xx_hal_dma_ex.c ****   * @param  pSyncConfig : pointer to HAL_DMA_MuxSyncConfigTypeDef : contains the DMAMUX synchroniza
 395:./Libraries/STM32H7xx_HAL_Driver/Src/stm32h7xx_hal_dma_ex.c ****   * @retval HAL status
 396:./Libraries/STM32H7xx_HAL_Driver/Src/stm32h7xx_hal_dma_ex.c ****   */
 397:./Libraries/STM32H7xx_HAL_Driver/Src/stm32h7xx_hal_dma_ex.c **** HAL_StatusTypeDef HAL_DMAEx_ConfigMuxSync(DMA_HandleTypeDef *hdma, HAL_DMA_MuxSyncConfigTypeDef *pS
 398:./Libraries/STM32H7xx_HAL_Driver/Src/stm32h7xx_hal_dma_ex.c **** {
 1903              		.loc 1 398 1
 1904              		.cfi_startproc
 1905              		@ args = 0, pretend = 0, frame = 16
 1906              		@ frame_needed = 1, uses_anonymous_args = 0
 1907              		@ link register save eliminated.
 1908 0000 80B4     		push	{r7}
 1909              	.LCFI16:
 1910              		.cfi_def_cfa_offset 4
 1911              		.cfi_offset 7, -4
 1912 0002 85B0     		sub	sp, sp, #20
 1913              	.LCFI17:
 1914              		.cfi_def_cfa_offset 24
 1915 0004 00AF     		add	r7, sp, #0
 1916              	.LCFI18:
 1917              		.cfi_def_cfa_register 7
 1918 0006 7860     		str	r0, [r7, #4]
 1919 0008 3960     		str	r1, [r7]
 399:./Libraries/STM32H7xx_HAL_Driver/Src/stm32h7xx_hal_dma_ex.c ****   uint32_t syncSignalID = 0;
 1920              		.loc 1 399 12
 1921 000a 0023     		movs	r3, #0
 1922 000c FB60     		str	r3, [r7, #12]
 400:./Libraries/STM32H7xx_HAL_Driver/Src/stm32h7xx_hal_dma_ex.c ****   uint32_t syncPolarity = 0;
 1923              		.loc 1 400 12
 1924 000e 0023     		movs	r3, #0
 1925 0010 BB60     		str	r3, [r7, #8]
 401:./Libraries/STM32H7xx_HAL_Driver/Src/stm32h7xx_hal_dma_ex.c **** 
 402:./Libraries/STM32H7xx_HAL_Driver/Src/stm32h7xx_hal_dma_ex.c ****   /* Check the parameters */
 403:./Libraries/STM32H7xx_HAL_Driver/Src/stm32h7xx_hal_dma_ex.c ****   assert_param(IS_DMA_DMAMUX_ALL_INSTANCE(hdma->Instance));
 404:./Libraries/STM32H7xx_HAL_Driver/Src/stm32h7xx_hal_dma_ex.c ****   assert_param(IS_DMAMUX_SYNC_STATE(pSyncConfig->SyncEnable));
 405:./Libraries/STM32H7xx_HAL_Driver/Src/stm32h7xx_hal_dma_ex.c ****   assert_param(IS_DMAMUX_SYNC_EVENT(pSyncConfig->EventEnable));
 406:./Libraries/STM32H7xx_HAL_Driver/Src/stm32h7xx_hal_dma_ex.c ****   assert_param(IS_DMAMUX_SYNC_REQUEST_NUMBER(pSyncConfig->RequestNumber));
 407:./Libraries/STM32H7xx_HAL_Driver/Src/stm32h7xx_hal_dma_ex.c **** 
 408:./Libraries/STM32H7xx_HAL_Driver/Src/stm32h7xx_hal_dma_ex.c ****   if(pSyncConfig->SyncEnable == ENABLE)
 1926              		.loc 1 408 17
 1927 0012 3B68     		ldr	r3, [r7]
 1928 0014 1B7A     		ldrb	r3, [r3, #8]	@ zero_extendqisi2
 1929              		.loc 1 408 5
 1930 0016 012B     		cmp	r3, #1
 1931 0018 55D1     		bne	.L71
 409:./Libraries/STM32H7xx_HAL_Driver/Src/stm32h7xx_hal_dma_ex.c ****   {
 410:./Libraries/STM32H7xx_HAL_Driver/Src/stm32h7xx_hal_dma_ex.c ****     assert_param(IS_DMAMUX_SYNC_POLARITY(pSyncConfig->SyncPolarity));
 411:./Libraries/STM32H7xx_HAL_Driver/Src/stm32h7xx_hal_dma_ex.c **** 
 412:./Libraries/STM32H7xx_HAL_Driver/Src/stm32h7xx_hal_dma_ex.c ****     if(IS_DMA_STREAM_INSTANCE(hdma->Instance) != 0U) /* DMA1 or DMA2 instance */
 1932              		.loc 1 412 8
ARM GAS  /tmp/cc9oZLZ6.s 			page 42


 1933 001a 7B68     		ldr	r3, [r7, #4]
 1934 001c 1B68     		ldr	r3, [r3]
 1935 001e 4B4A     		ldr	r2, .L80
 1936 0020 9342     		cmp	r3, r2
 1937 0022 49D0     		beq	.L79
 1938              		.loc 1 412 8 is_stmt 0 discriminator 2
 1939 0024 7B68     		ldr	r3, [r7, #4]
 1940 0026 1B68     		ldr	r3, [r3]
 1941 0028 494A     		ldr	r2, .L80+4
 1942 002a 9342     		cmp	r3, r2
 1943 002c 44D0     		beq	.L79
 1944              		.loc 1 412 8 discriminator 4
 1945 002e 7B68     		ldr	r3, [r7, #4]
 1946 0030 1B68     		ldr	r3, [r3]
 1947 0032 484A     		ldr	r2, .L80+8
 1948 0034 9342     		cmp	r3, r2
 1949 0036 3FD0     		beq	.L79
 1950              		.loc 1 412 8 discriminator 6
 1951 0038 7B68     		ldr	r3, [r7, #4]
 1952 003a 1B68     		ldr	r3, [r3]
 1953 003c 464A     		ldr	r2, .L80+12
 1954 003e 9342     		cmp	r3, r2
 1955 0040 3AD0     		beq	.L79
 1956              		.loc 1 412 8 discriminator 8
 1957 0042 7B68     		ldr	r3, [r7, #4]
 1958 0044 1B68     		ldr	r3, [r3]
 1959 0046 454A     		ldr	r2, .L80+16
 1960 0048 9342     		cmp	r3, r2
 1961 004a 35D0     		beq	.L79
 1962              		.loc 1 412 8 discriminator 10
 1963 004c 7B68     		ldr	r3, [r7, #4]
 1964 004e 1B68     		ldr	r3, [r3]
 1965 0050 434A     		ldr	r2, .L80+20
 1966 0052 9342     		cmp	r3, r2
 1967 0054 30D0     		beq	.L79
 1968              		.loc 1 412 8 discriminator 12
 1969 0056 7B68     		ldr	r3, [r7, #4]
 1970 0058 1B68     		ldr	r3, [r3]
 1971 005a 424A     		ldr	r2, .L80+24
 1972 005c 9342     		cmp	r3, r2
 1973 005e 2BD0     		beq	.L79
 1974              		.loc 1 412 8 discriminator 14
 1975 0060 7B68     		ldr	r3, [r7, #4]
 1976 0062 1B68     		ldr	r3, [r3]
 1977 0064 404A     		ldr	r2, .L80+28
 1978 0066 9342     		cmp	r3, r2
 1979 0068 26D0     		beq	.L79
 1980              		.loc 1 412 8 discriminator 16
 1981 006a 7B68     		ldr	r3, [r7, #4]
 1982 006c 1B68     		ldr	r3, [r3]
 1983 006e 3F4A     		ldr	r2, .L80+32
 1984 0070 9342     		cmp	r3, r2
 1985 0072 21D0     		beq	.L79
 1986              		.loc 1 412 8 discriminator 18
 1987 0074 7B68     		ldr	r3, [r7, #4]
 1988 0076 1B68     		ldr	r3, [r3]
 1989 0078 3D4A     		ldr	r2, .L80+36
ARM GAS  /tmp/cc9oZLZ6.s 			page 43


 1990 007a 9342     		cmp	r3, r2
 1991 007c 1CD0     		beq	.L79
 1992              		.loc 1 412 8 discriminator 20
 1993 007e 7B68     		ldr	r3, [r7, #4]
 1994 0080 1B68     		ldr	r3, [r3]
 1995 0082 3C4A     		ldr	r2, .L80+40
 1996 0084 9342     		cmp	r3, r2
 1997 0086 17D0     		beq	.L79
 1998              		.loc 1 412 8 discriminator 22
 1999 0088 7B68     		ldr	r3, [r7, #4]
 2000 008a 1B68     		ldr	r3, [r3]
 2001 008c 3A4A     		ldr	r2, .L80+44
 2002 008e 9342     		cmp	r3, r2
 2003 0090 12D0     		beq	.L79
 2004              		.loc 1 412 8 discriminator 24
 2005 0092 7B68     		ldr	r3, [r7, #4]
 2006 0094 1B68     		ldr	r3, [r3]
 2007 0096 394A     		ldr	r2, .L80+48
 2008 0098 9342     		cmp	r3, r2
 2009 009a 0DD0     		beq	.L79
 2010              		.loc 1 412 8 discriminator 26
 2011 009c 7B68     		ldr	r3, [r7, #4]
 2012 009e 1B68     		ldr	r3, [r3]
 2013 00a0 374A     		ldr	r2, .L80+52
 2014 00a2 9342     		cmp	r3, r2
 2015 00a4 08D0     		beq	.L79
 2016              		.loc 1 412 8 discriminator 28
 2017 00a6 7B68     		ldr	r3, [r7, #4]
 2018 00a8 1B68     		ldr	r3, [r3]
 2019 00aa 364A     		ldr	r2, .L80+56
 2020 00ac 9342     		cmp	r3, r2
 2021 00ae 03D0     		beq	.L79
 2022              		.loc 1 412 8 discriminator 30
 2023 00b0 7B68     		ldr	r3, [r7, #4]
 2024 00b2 1B68     		ldr	r3, [r3]
 2025 00b4 344A     		ldr	r2, .L80+60
 2026 00b6 9342     		cmp	r3, r2
 2027              	.L79:
 2028              		.loc 1 412 8
 2029 00b8 00BF     		nop
 413:./Libraries/STM32H7xx_HAL_Driver/Src/stm32h7xx_hal_dma_ex.c ****     {
 414:./Libraries/STM32H7xx_HAL_Driver/Src/stm32h7xx_hal_dma_ex.c ****       assert_param(IS_DMA_DMAMUX_SYNC_SIGNAL_ID(pSyncConfig->SyncSignalID));
 415:./Libraries/STM32H7xx_HAL_Driver/Src/stm32h7xx_hal_dma_ex.c ****     }
 416:./Libraries/STM32H7xx_HAL_Driver/Src/stm32h7xx_hal_dma_ex.c ****     else
 417:./Libraries/STM32H7xx_HAL_Driver/Src/stm32h7xx_hal_dma_ex.c ****     {
 418:./Libraries/STM32H7xx_HAL_Driver/Src/stm32h7xx_hal_dma_ex.c ****       assert_param(IS_BDMA_DMAMUX_SYNC_SIGNAL_ID(pSyncConfig->SyncSignalID));
 419:./Libraries/STM32H7xx_HAL_Driver/Src/stm32h7xx_hal_dma_ex.c ****     }
 420:./Libraries/STM32H7xx_HAL_Driver/Src/stm32h7xx_hal_dma_ex.c ****     syncSignalID = pSyncConfig->SyncSignalID;
 2030              		.loc 1 420 18 is_stmt 1
 2031 00ba 3B68     		ldr	r3, [r7]
 2032 00bc 1B68     		ldr	r3, [r3]
 2033 00be FB60     		str	r3, [r7, #12]
 421:./Libraries/STM32H7xx_HAL_Driver/Src/stm32h7xx_hal_dma_ex.c ****     syncPolarity = pSyncConfig->SyncPolarity;
 2034              		.loc 1 421 18
 2035 00c0 3B68     		ldr	r3, [r7]
 2036 00c2 5B68     		ldr	r3, [r3, #4]
 2037 00c4 BB60     		str	r3, [r7, #8]
ARM GAS  /tmp/cc9oZLZ6.s 			page 44


 2038              	.L71:
 422:./Libraries/STM32H7xx_HAL_Driver/Src/stm32h7xx_hal_dma_ex.c ****   }
 423:./Libraries/STM32H7xx_HAL_Driver/Src/stm32h7xx_hal_dma_ex.c **** 
 424:./Libraries/STM32H7xx_HAL_Driver/Src/stm32h7xx_hal_dma_ex.c ****   /*Check if the DMA state is ready */
 425:./Libraries/STM32H7xx_HAL_Driver/Src/stm32h7xx_hal_dma_ex.c ****   if(hdma->State == HAL_DMA_STATE_READY)
 2039              		.loc 1 425 10
 2040 00c6 7B68     		ldr	r3, [r7, #4]
 2041 00c8 93F83530 		ldrb	r3, [r3, #53]
 2042 00cc DBB2     		uxtb	r3, r3
 2043              		.loc 1 425 5
 2044 00ce 012B     		cmp	r3, #1
 2045 00d0 31D1     		bne	.L75
 426:./Libraries/STM32H7xx_HAL_Driver/Src/stm32h7xx_hal_dma_ex.c ****   {
 427:./Libraries/STM32H7xx_HAL_Driver/Src/stm32h7xx_hal_dma_ex.c ****     /* Process Locked */
 428:./Libraries/STM32H7xx_HAL_Driver/Src/stm32h7xx_hal_dma_ex.c ****     __HAL_LOCK(hdma);
 2046              		.loc 1 428 5
 2047 00d2 7B68     		ldr	r3, [r7, #4]
 2048 00d4 93F83430 		ldrb	r3, [r3, #52]	@ zero_extendqisi2
 2049 00d8 012B     		cmp	r3, #1
 2050 00da 01D1     		bne	.L76
 2051              		.loc 1 428 5 is_stmt 0 discriminator 1
 2052 00dc 0223     		movs	r3, #2
 2053 00de 2FE0     		b	.L77
 2054              	.L76:
 2055              		.loc 1 428 5 discriminator 2
 2056 00e0 7B68     		ldr	r3, [r7, #4]
 2057 00e2 0122     		movs	r2, #1
 2058 00e4 83F83420 		strb	r2, [r3, #52]
 429:./Libraries/STM32H7xx_HAL_Driver/Src/stm32h7xx_hal_dma_ex.c **** 
 430:./Libraries/STM32H7xx_HAL_Driver/Src/stm32h7xx_hal_dma_ex.c ****     /* Disable the synchronization and event generation before applying a new config */
 431:./Libraries/STM32H7xx_HAL_Driver/Src/stm32h7xx_hal_dma_ex.c ****     CLEAR_BIT(hdma->DMAmuxChannel->CCR,(DMAMUX_CxCR_SE | DMAMUX_CxCR_EGE));
 2059              		.loc 1 431 5 is_stmt 1 discriminator 2
 2060 00e8 7B68     		ldr	r3, [r7, #4]
 2061 00ea 1B6E     		ldr	r3, [r3, #96]
 2062 00ec 1A68     		ldr	r2, [r3]
 2063 00ee 7B68     		ldr	r3, [r7, #4]
 2064 00f0 1B6E     		ldr	r3, [r3, #96]
 2065 00f2 22F48132 		bic	r2, r2, #66048
 2066 00f6 1A60     		str	r2, [r3]
 432:./Libraries/STM32H7xx_HAL_Driver/Src/stm32h7xx_hal_dma_ex.c **** 
 433:./Libraries/STM32H7xx_HAL_Driver/Src/stm32h7xx_hal_dma_ex.c ****     /* Set the new synchronization parameters (and keep the request ID filled during the Init)*/
 434:./Libraries/STM32H7xx_HAL_Driver/Src/stm32h7xx_hal_dma_ex.c ****     MODIFY_REG( hdma->DMAmuxChannel->CCR, \
 2067              		.loc 1 434 5 discriminator 2
 2068 00f8 7B68     		ldr	r3, [r7, #4]
 2069 00fa 1B6E     		ldr	r3, [r3, #96]
 2070 00fc 1B68     		ldr	r3, [r3]
 2071 00fe D9B2     		uxtb	r1, r3
 2072 0100 FB68     		ldr	r3, [r7, #12]
 2073 0102 1A06     		lsls	r2, r3, #24
 2074 0104 3B68     		ldr	r3, [r7]
 2075 0106 DB68     		ldr	r3, [r3, #12]
 2076 0108 013B     		subs	r3, r3, #1
 2077 010a DB04     		lsls	r3, r3, #19
 2078 010c 1A43     		orrs	r2, r2, r3
 2079 010e BB68     		ldr	r3, [r7, #8]
 2080 0110 1A43     		orrs	r2, r2, r3
 2081 0112 3B68     		ldr	r3, [r7]
ARM GAS  /tmp/cc9oZLZ6.s 			page 45


 2082 0114 1B7A     		ldrb	r3, [r3, #8]	@ zero_extendqisi2
 2083 0116 1B04     		lsls	r3, r3, #16
 2084 0118 1A43     		orrs	r2, r2, r3
 2085 011a 3B68     		ldr	r3, [r7]
 2086 011c 5B7A     		ldrb	r3, [r3, #9]	@ zero_extendqisi2
 2087 011e 5B02     		lsls	r3, r3, #9
 2088 0120 1A43     		orrs	r2, r2, r3
 2089 0122 7B68     		ldr	r3, [r7, #4]
 2090 0124 1B6E     		ldr	r3, [r3, #96]
 2091 0126 0A43     		orrs	r2, r2, r1
 2092 0128 1A60     		str	r2, [r3]
 435:./Libraries/STM32H7xx_HAL_Driver/Src/stm32h7xx_hal_dma_ex.c ****                (~DMAMUX_CxCR_DMAREQ_ID) , \
 436:./Libraries/STM32H7xx_HAL_Driver/Src/stm32h7xx_hal_dma_ex.c ****                (syncSignalID << DMAMUX_CxCR_SYNC_ID_Pos)       | \
 437:./Libraries/STM32H7xx_HAL_Driver/Src/stm32h7xx_hal_dma_ex.c ****                ((pSyncConfig->RequestNumber - 1U) << DMAMUX_CxCR_NBREQ_Pos) | \
 438:./Libraries/STM32H7xx_HAL_Driver/Src/stm32h7xx_hal_dma_ex.c ****                syncPolarity | ((uint32_t)pSyncConfig->SyncEnable << DMAMUX_CxCR_SE_Pos)    | \
 439:./Libraries/STM32H7xx_HAL_Driver/Src/stm32h7xx_hal_dma_ex.c ****                ((uint32_t)pSyncConfig->EventEnable << DMAMUX_CxCR_EGE_Pos));
 440:./Libraries/STM32H7xx_HAL_Driver/Src/stm32h7xx_hal_dma_ex.c **** 
 441:./Libraries/STM32H7xx_HAL_Driver/Src/stm32h7xx_hal_dma_ex.c ****       /* Process Locked */
 442:./Libraries/STM32H7xx_HAL_Driver/Src/stm32h7xx_hal_dma_ex.c ****     __HAL_UNLOCK(hdma);
 2093              		.loc 1 442 5 discriminator 2
 2094 012a 7B68     		ldr	r3, [r7, #4]
 2095 012c 0022     		movs	r2, #0
 2096 012e 83F83420 		strb	r2, [r3, #52]
 443:./Libraries/STM32H7xx_HAL_Driver/Src/stm32h7xx_hal_dma_ex.c **** 
 444:./Libraries/STM32H7xx_HAL_Driver/Src/stm32h7xx_hal_dma_ex.c ****     return HAL_OK;
 2097              		.loc 1 444 12 discriminator 2
 2098 0132 0023     		movs	r3, #0
 2099 0134 04E0     		b	.L77
 2100              	.L75:
 445:./Libraries/STM32H7xx_HAL_Driver/Src/stm32h7xx_hal_dma_ex.c ****   }
 446:./Libraries/STM32H7xx_HAL_Driver/Src/stm32h7xx_hal_dma_ex.c ****   else
 447:./Libraries/STM32H7xx_HAL_Driver/Src/stm32h7xx_hal_dma_ex.c ****   {
 448:./Libraries/STM32H7xx_HAL_Driver/Src/stm32h7xx_hal_dma_ex.c ****     /* Set the error code to busy */
 449:./Libraries/STM32H7xx_HAL_Driver/Src/stm32h7xx_hal_dma_ex.c ****     hdma->ErrorCode = HAL_DMA_ERROR_BUSY;
 2101              		.loc 1 449 21
 2102 0136 7B68     		ldr	r3, [r7, #4]
 2103 0138 4FF40062 		mov	r2, #2048
 2104 013c 5A65     		str	r2, [r3, #84]
 450:./Libraries/STM32H7xx_HAL_Driver/Src/stm32h7xx_hal_dma_ex.c **** 
 451:./Libraries/STM32H7xx_HAL_Driver/Src/stm32h7xx_hal_dma_ex.c ****     /* Return error status */
 452:./Libraries/STM32H7xx_HAL_Driver/Src/stm32h7xx_hal_dma_ex.c ****     return HAL_ERROR;
 2105              		.loc 1 452 12
 2106 013e 0123     		movs	r3, #1
 2107              	.L77:
 453:./Libraries/STM32H7xx_HAL_Driver/Src/stm32h7xx_hal_dma_ex.c ****   }
 454:./Libraries/STM32H7xx_HAL_Driver/Src/stm32h7xx_hal_dma_ex.c **** }
 2108              		.loc 1 454 1
 2109 0140 1846     		mov	r0, r3
 2110 0142 1437     		adds	r7, r7, #20
 2111              	.LCFI19:
 2112              		.cfi_def_cfa_offset 4
 2113 0144 BD46     		mov	sp, r7
 2114              	.LCFI20:
 2115              		.cfi_def_cfa_register 13
 2116              		@ sp needed
 2117 0146 5DF8047B 		ldr	r7, [sp], #4
 2118              	.LCFI21:
ARM GAS  /tmp/cc9oZLZ6.s 			page 46


 2119              		.cfi_restore 7
 2120              		.cfi_def_cfa_offset 0
 2121 014a 7047     		bx	lr
 2122              	.L81:
 2123              		.align	2
 2124              	.L80:
 2125 014c 10000240 		.word	1073872912
 2126 0150 28000240 		.word	1073872936
 2127 0154 40000240 		.word	1073872960
 2128 0158 58000240 		.word	1073872984
 2129 015c 70000240 		.word	1073873008
 2130 0160 88000240 		.word	1073873032
 2131 0164 A0000240 		.word	1073873056
 2132 0168 B8000240 		.word	1073873080
 2133 016c 10040240 		.word	1073873936
 2134 0170 28040240 		.word	1073873960
 2135 0174 40040240 		.word	1073873984
 2136 0178 58040240 		.word	1073874008
 2137 017c 70040240 		.word	1073874032
 2138 0180 88040240 		.word	1073874056
 2139 0184 A0040240 		.word	1073874080
 2140 0188 B8040240 		.word	1073874104
 2141              		.cfi_endproc
 2142              	.LFE334:
 2144              		.section	.text.HAL_DMAEx_ConfigMuxRequestGenerator,"ax",%progbits
 2145              		.align	1
 2146              		.global	HAL_DMAEx_ConfigMuxRequestGenerator
 2147              		.syntax unified
 2148              		.thumb
 2149              		.thumb_func
 2150              		.fpu fpv5-d16
 2152              	HAL_DMAEx_ConfigMuxRequestGenerator:
 2153              	.LFB335:
 455:./Libraries/STM32H7xx_HAL_Driver/Src/stm32h7xx_hal_dma_ex.c **** 
 456:./Libraries/STM32H7xx_HAL_Driver/Src/stm32h7xx_hal_dma_ex.c **** /**
 457:./Libraries/STM32H7xx_HAL_Driver/Src/stm32h7xx_hal_dma_ex.c ****   * @brief  Configure the DMAMUX request generator block used by the given DMA stream (instance).
 458:./Libraries/STM32H7xx_HAL_Driver/Src/stm32h7xx_hal_dma_ex.c ****   * @param  hdma:       pointer to a DMA_HandleTypeDef structure that contains
 459:./Libraries/STM32H7xx_HAL_Driver/Src/stm32h7xx_hal_dma_ex.c ****   *                     the configuration information for the specified DMA Stream.
 460:./Libraries/STM32H7xx_HAL_Driver/Src/stm32h7xx_hal_dma_ex.c ****   * @param  pRequestGeneratorConfig : pointer to HAL_DMA_MuxRequestGeneratorConfigTypeDef :
 461:./Libraries/STM32H7xx_HAL_Driver/Src/stm32h7xx_hal_dma_ex.c ****   *         contains the request generator parameters.
 462:./Libraries/STM32H7xx_HAL_Driver/Src/stm32h7xx_hal_dma_ex.c ****   *
 463:./Libraries/STM32H7xx_HAL_Driver/Src/stm32h7xx_hal_dma_ex.c ****   * @retval HAL status
 464:./Libraries/STM32H7xx_HAL_Driver/Src/stm32h7xx_hal_dma_ex.c ****   */
 465:./Libraries/STM32H7xx_HAL_Driver/Src/stm32h7xx_hal_dma_ex.c **** HAL_StatusTypeDef HAL_DMAEx_ConfigMuxRequestGenerator (DMA_HandleTypeDef *hdma, HAL_DMA_MuxRequestG
 466:./Libraries/STM32H7xx_HAL_Driver/Src/stm32h7xx_hal_dma_ex.c **** {
 2154              		.loc 1 466 1
 2155              		.cfi_startproc
 2156              		@ args = 0, pretend = 0, frame = 16
 2157              		@ frame_needed = 1, uses_anonymous_args = 0
 2158              		@ link register save eliminated.
 2159 0000 80B4     		push	{r7}
 2160              	.LCFI22:
 2161              		.cfi_def_cfa_offset 4
 2162              		.cfi_offset 7, -4
 2163 0002 85B0     		sub	sp, sp, #20
 2164              	.LCFI23:
 2165              		.cfi_def_cfa_offset 24
ARM GAS  /tmp/cc9oZLZ6.s 			page 47


 2166 0004 00AF     		add	r7, sp, #0
 2167              	.LCFI24:
 2168              		.cfi_def_cfa_register 7
 2169 0006 7860     		str	r0, [r7, #4]
 2170 0008 3960     		str	r1, [r7]
 467:./Libraries/STM32H7xx_HAL_Driver/Src/stm32h7xx_hal_dma_ex.c ****   HAL_StatusTypeDef status;
 468:./Libraries/STM32H7xx_HAL_Driver/Src/stm32h7xx_hal_dma_ex.c ****   HAL_DMA_StateTypeDef temp_state = hdma->State;
 2171              		.loc 1 468 24
 2172 000a 7B68     		ldr	r3, [r7, #4]
 2173 000c 93F83530 		ldrb	r3, [r3, #53]
 2174 0010 BB73     		strb	r3, [r7, #14]
 469:./Libraries/STM32H7xx_HAL_Driver/Src/stm32h7xx_hal_dma_ex.c **** 
 470:./Libraries/STM32H7xx_HAL_Driver/Src/stm32h7xx_hal_dma_ex.c ****   /* Check the parameters */
 471:./Libraries/STM32H7xx_HAL_Driver/Src/stm32h7xx_hal_dma_ex.c ****   assert_param(IS_DMA_DMAMUX_ALL_INSTANCE(hdma->Instance));
 472:./Libraries/STM32H7xx_HAL_Driver/Src/stm32h7xx_hal_dma_ex.c **** 
 473:./Libraries/STM32H7xx_HAL_Driver/Src/stm32h7xx_hal_dma_ex.c ****   if(IS_DMA_STREAM_INSTANCE(hdma->Instance) != 0U) /* DMA1 or DMA2 instance */
 2175              		.loc 1 473 6
 2176 0012 7B68     		ldr	r3, [r7, #4]
 2177 0014 1B68     		ldr	r3, [r3]
 2178 0016 474A     		ldr	r2, .L93
 2179 0018 9342     		cmp	r3, r2
 2180 001a 49D0     		beq	.L92
 2181              		.loc 1 473 6 is_stmt 0 discriminator 2
 2182 001c 7B68     		ldr	r3, [r7, #4]
 2183 001e 1B68     		ldr	r3, [r3]
 2184 0020 454A     		ldr	r2, .L93+4
 2185 0022 9342     		cmp	r3, r2
 2186 0024 44D0     		beq	.L92
 2187              		.loc 1 473 6 discriminator 4
 2188 0026 7B68     		ldr	r3, [r7, #4]
 2189 0028 1B68     		ldr	r3, [r3]
 2190 002a 444A     		ldr	r2, .L93+8
 2191 002c 9342     		cmp	r3, r2
 2192 002e 3FD0     		beq	.L92
 2193              		.loc 1 473 6 discriminator 6
 2194 0030 7B68     		ldr	r3, [r7, #4]
 2195 0032 1B68     		ldr	r3, [r3]
 2196 0034 424A     		ldr	r2, .L93+12
 2197 0036 9342     		cmp	r3, r2
 2198 0038 3AD0     		beq	.L92
 2199              		.loc 1 473 6 discriminator 8
 2200 003a 7B68     		ldr	r3, [r7, #4]
 2201 003c 1B68     		ldr	r3, [r3]
 2202 003e 414A     		ldr	r2, .L93+16
 2203 0040 9342     		cmp	r3, r2
 2204 0042 35D0     		beq	.L92
 2205              		.loc 1 473 6 discriminator 10
 2206 0044 7B68     		ldr	r3, [r7, #4]
 2207 0046 1B68     		ldr	r3, [r3]
 2208 0048 3F4A     		ldr	r2, .L93+20
 2209 004a 9342     		cmp	r3, r2
 2210 004c 30D0     		beq	.L92
 2211              		.loc 1 473 6 discriminator 12
 2212 004e 7B68     		ldr	r3, [r7, #4]
 2213 0050 1B68     		ldr	r3, [r3]
 2214 0052 3E4A     		ldr	r2, .L93+24
 2215 0054 9342     		cmp	r3, r2
ARM GAS  /tmp/cc9oZLZ6.s 			page 48


 2216 0056 2BD0     		beq	.L92
 2217              		.loc 1 473 6 discriminator 14
 2218 0058 7B68     		ldr	r3, [r7, #4]
 2219 005a 1B68     		ldr	r3, [r3]
 2220 005c 3C4A     		ldr	r2, .L93+28
 2221 005e 9342     		cmp	r3, r2
 2222 0060 26D0     		beq	.L92
 2223              		.loc 1 473 6 discriminator 16
 2224 0062 7B68     		ldr	r3, [r7, #4]
 2225 0064 1B68     		ldr	r3, [r3]
 2226 0066 3B4A     		ldr	r2, .L93+32
 2227 0068 9342     		cmp	r3, r2
 2228 006a 21D0     		beq	.L92
 2229              		.loc 1 473 6 discriminator 18
 2230 006c 7B68     		ldr	r3, [r7, #4]
 2231 006e 1B68     		ldr	r3, [r3]
 2232 0070 394A     		ldr	r2, .L93+36
 2233 0072 9342     		cmp	r3, r2
 2234 0074 1CD0     		beq	.L92
 2235              		.loc 1 473 6 discriminator 20
 2236 0076 7B68     		ldr	r3, [r7, #4]
 2237 0078 1B68     		ldr	r3, [r3]
 2238 007a 384A     		ldr	r2, .L93+40
 2239 007c 9342     		cmp	r3, r2
 2240 007e 17D0     		beq	.L92
 2241              		.loc 1 473 6 discriminator 22
 2242 0080 7B68     		ldr	r3, [r7, #4]
 2243 0082 1B68     		ldr	r3, [r3]
 2244 0084 364A     		ldr	r2, .L93+44
 2245 0086 9342     		cmp	r3, r2
 2246 0088 12D0     		beq	.L92
 2247              		.loc 1 473 6 discriminator 24
 2248 008a 7B68     		ldr	r3, [r7, #4]
 2249 008c 1B68     		ldr	r3, [r3]
 2250 008e 354A     		ldr	r2, .L93+48
 2251 0090 9342     		cmp	r3, r2
 2252 0092 0DD0     		beq	.L92
 2253              		.loc 1 473 6 discriminator 26
 2254 0094 7B68     		ldr	r3, [r7, #4]
 2255 0096 1B68     		ldr	r3, [r3]
 2256 0098 334A     		ldr	r2, .L93+52
 2257 009a 9342     		cmp	r3, r2
 2258 009c 08D0     		beq	.L92
 2259              		.loc 1 473 6 discriminator 28
 2260 009e 7B68     		ldr	r3, [r7, #4]
 2261 00a0 1B68     		ldr	r3, [r3]
 2262 00a2 324A     		ldr	r2, .L93+56
 2263 00a4 9342     		cmp	r3, r2
 2264 00a6 03D0     		beq	.L92
 2265              		.loc 1 473 6 discriminator 30
 2266 00a8 7B68     		ldr	r3, [r7, #4]
 2267 00aa 1B68     		ldr	r3, [r3]
 2268 00ac 304A     		ldr	r2, .L93+60
 2269 00ae 9342     		cmp	r3, r2
 2270              	.L92:
 2271              		.loc 1 473 6
 2272 00b0 00BF     		nop
ARM GAS  /tmp/cc9oZLZ6.s 			page 49


 474:./Libraries/STM32H7xx_HAL_Driver/Src/stm32h7xx_hal_dma_ex.c ****   {
 475:./Libraries/STM32H7xx_HAL_Driver/Src/stm32h7xx_hal_dma_ex.c ****     assert_param(IS_DMA_DMAMUX_REQUEST_GEN_SIGNAL_ID(pRequestGeneratorConfig->SignalID));
 476:./Libraries/STM32H7xx_HAL_Driver/Src/stm32h7xx_hal_dma_ex.c ****   }
 477:./Libraries/STM32H7xx_HAL_Driver/Src/stm32h7xx_hal_dma_ex.c ****   else
 478:./Libraries/STM32H7xx_HAL_Driver/Src/stm32h7xx_hal_dma_ex.c ****   {
 479:./Libraries/STM32H7xx_HAL_Driver/Src/stm32h7xx_hal_dma_ex.c ****     assert_param(IS_BDMA_DMAMUX_REQUEST_GEN_SIGNAL_ID(pRequestGeneratorConfig->SignalID));
 480:./Libraries/STM32H7xx_HAL_Driver/Src/stm32h7xx_hal_dma_ex.c ****   }
 481:./Libraries/STM32H7xx_HAL_Driver/Src/stm32h7xx_hal_dma_ex.c **** 
 482:./Libraries/STM32H7xx_HAL_Driver/Src/stm32h7xx_hal_dma_ex.c **** 
 483:./Libraries/STM32H7xx_HAL_Driver/Src/stm32h7xx_hal_dma_ex.c ****   assert_param(IS_DMAMUX_REQUEST_GEN_POLARITY(pRequestGeneratorConfig->Polarity));
 484:./Libraries/STM32H7xx_HAL_Driver/Src/stm32h7xx_hal_dma_ex.c ****   assert_param(IS_DMAMUX_REQUEST_GEN_REQUEST_NUMBER(pRequestGeneratorConfig->RequestNumber));
 485:./Libraries/STM32H7xx_HAL_Driver/Src/stm32h7xx_hal_dma_ex.c **** 
 486:./Libraries/STM32H7xx_HAL_Driver/Src/stm32h7xx_hal_dma_ex.c ****   /* check if the DMA state is ready
 487:./Libraries/STM32H7xx_HAL_Driver/Src/stm32h7xx_hal_dma_ex.c ****      and DMA is using a DMAMUX request generator block
 488:./Libraries/STM32H7xx_HAL_Driver/Src/stm32h7xx_hal_dma_ex.c ****   */
 489:./Libraries/STM32H7xx_HAL_Driver/Src/stm32h7xx_hal_dma_ex.c ****   if(hdma->DMAmuxRequestGen == 0U)
 2273              		.loc 1 489 10 is_stmt 1
 2274 00b2 7B68     		ldr	r3, [r7, #4]
 2275 00b4 DB6E     		ldr	r3, [r3, #108]
 2276              		.loc 1 489 5
 2277 00b6 002B     		cmp	r3, #0
 2278 00b8 05D1     		bne	.L86
 490:./Libraries/STM32H7xx_HAL_Driver/Src/stm32h7xx_hal_dma_ex.c ****   {
 491:./Libraries/STM32H7xx_HAL_Driver/Src/stm32h7xx_hal_dma_ex.c ****     /* Set the error code to busy */
 492:./Libraries/STM32H7xx_HAL_Driver/Src/stm32h7xx_hal_dma_ex.c ****     hdma->ErrorCode = HAL_DMA_ERROR_PARAM;
 2279              		.loc 1 492 21
 2280 00ba 7B68     		ldr	r3, [r7, #4]
 2281 00bc 4022     		movs	r2, #64
 2282 00be 5A65     		str	r2, [r3, #84]
 493:./Libraries/STM32H7xx_HAL_Driver/Src/stm32h7xx_hal_dma_ex.c **** 
 494:./Libraries/STM32H7xx_HAL_Driver/Src/stm32h7xx_hal_dma_ex.c ****     /* error status */
 495:./Libraries/STM32H7xx_HAL_Driver/Src/stm32h7xx_hal_dma_ex.c ****     status = HAL_ERROR;
 2283              		.loc 1 495 12
 2284 00c0 0123     		movs	r3, #1
 2285 00c2 FB73     		strb	r3, [r7, #15]
 2286 00c4 2EE0     		b	.L87
 2287              	.L86:
 496:./Libraries/STM32H7xx_HAL_Driver/Src/stm32h7xx_hal_dma_ex.c ****   }
 497:./Libraries/STM32H7xx_HAL_Driver/Src/stm32h7xx_hal_dma_ex.c ****   else if(((hdma->DMAmuxRequestGen->RGCR & DMAMUX_RGxCR_GE) == 0U) && (temp_state == HAL_DMA_STATE_
 2288              		.loc 1 497 17
 2289 00c6 7B68     		ldr	r3, [r7, #4]
 2290 00c8 DB6E     		ldr	r3, [r3, #108]
 2291              		.loc 1 497 35
 2292 00ca 1B68     		ldr	r3, [r3]
 2293              		.loc 1 497 42
 2294 00cc 03F48033 		and	r3, r3, #65536
 2295              		.loc 1 497 10
 2296 00d0 002B     		cmp	r3, #0
 2297 00d2 21D1     		bne	.L88
 2298              		.loc 1 497 68 discriminator 1
 2299 00d4 BB7B     		ldrb	r3, [r7, #14]	@ zero_extendqisi2
 2300 00d6 012B     		cmp	r3, #1
 2301 00d8 1ED1     		bne	.L88
 498:./Libraries/STM32H7xx_HAL_Driver/Src/stm32h7xx_hal_dma_ex.c ****   {
 499:./Libraries/STM32H7xx_HAL_Driver/Src/stm32h7xx_hal_dma_ex.c ****     /* RequestGenerator must be disable prior to the configuration i.e GE bit is 0 */
 500:./Libraries/STM32H7xx_HAL_Driver/Src/stm32h7xx_hal_dma_ex.c **** 
 501:./Libraries/STM32H7xx_HAL_Driver/Src/stm32h7xx_hal_dma_ex.c ****     /* Process Locked */
ARM GAS  /tmp/cc9oZLZ6.s 			page 50


 502:./Libraries/STM32H7xx_HAL_Driver/Src/stm32h7xx_hal_dma_ex.c ****     __HAL_LOCK(hdma);
 2302              		.loc 1 502 5
 2303 00da 7B68     		ldr	r3, [r7, #4]
 2304 00dc 93F83430 		ldrb	r3, [r3, #52]	@ zero_extendqisi2
 2305 00e0 012B     		cmp	r3, #1
 2306 00e2 01D1     		bne	.L89
 2307              		.loc 1 502 5 is_stmt 0 discriminator 1
 2308 00e4 0223     		movs	r3, #2
 2309 00e6 1EE0     		b	.L90
 2310              	.L89:
 2311              		.loc 1 502 5 discriminator 2
 2312 00e8 7B68     		ldr	r3, [r7, #4]
 2313 00ea 0122     		movs	r2, #1
 2314 00ec 83F83420 		strb	r2, [r3, #52]
 503:./Libraries/STM32H7xx_HAL_Driver/Src/stm32h7xx_hal_dma_ex.c **** 
 504:./Libraries/STM32H7xx_HAL_Driver/Src/stm32h7xx_hal_dma_ex.c ****     /* Set the request generator new parameters */
 505:./Libraries/STM32H7xx_HAL_Driver/Src/stm32h7xx_hal_dma_ex.c ****     hdma->DMAmuxRequestGen->RGCR = pRequestGeneratorConfig->SignalID | \
 2315              		.loc 1 505 59 is_stmt 1 discriminator 2
 2316 00f0 3B68     		ldr	r3, [r7]
 2317 00f2 1A68     		ldr	r2, [r3]
 506:./Libraries/STM32H7xx_HAL_Driver/Src/stm32h7xx_hal_dma_ex.c ****                                   ((pRequestGeneratorConfig->RequestNumber - 1U) << DMAMUX_RGxCR_GN
 2318              		.loc 1 506 60 discriminator 2
 2319 00f4 3B68     		ldr	r3, [r7]
 2320 00f6 9B68     		ldr	r3, [r3, #8]
 2321              		.loc 1 506 76 discriminator 2
 2322 00f8 013B     		subs	r3, r3, #1
 2323              		.loc 1 506 82 discriminator 2
 2324 00fa DB04     		lsls	r3, r3, #19
 505:./Libraries/STM32H7xx_HAL_Driver/Src/stm32h7xx_hal_dma_ex.c ****                                   ((pRequestGeneratorConfig->RequestNumber - 1U) << DMAMUX_RGxCR_GN
 2325              		.loc 1 505 70 discriminator 2
 2326 00fc 42EA0301 		orr	r1, r2, r3
 507:./Libraries/STM32H7xx_HAL_Driver/Src/stm32h7xx_hal_dma_ex.c ****                                   pRequestGeneratorConfig->Polarity;
 2327              		.loc 1 507 58 discriminator 2
 2328 0100 3B68     		ldr	r3, [r7]
 2329 0102 5A68     		ldr	r2, [r3, #4]
 505:./Libraries/STM32H7xx_HAL_Driver/Src/stm32h7xx_hal_dma_ex.c ****                                   ((pRequestGeneratorConfig->RequestNumber - 1U) << DMAMUX_RGxCR_GN
 2330              		.loc 1 505 9 discriminator 2
 2331 0104 7B68     		ldr	r3, [r7, #4]
 2332 0106 DB6E     		ldr	r3, [r3, #108]
 506:./Libraries/STM32H7xx_HAL_Driver/Src/stm32h7xx_hal_dma_ex.c ****                                   ((pRequestGeneratorConfig->RequestNumber - 1U) << DMAMUX_RGxCR_GN
 2333              		.loc 1 506 109 discriminator 2
 2334 0108 0A43     		orrs	r2, r2, r1
 505:./Libraries/STM32H7xx_HAL_Driver/Src/stm32h7xx_hal_dma_ex.c ****                                   ((pRequestGeneratorConfig->RequestNumber - 1U) << DMAMUX_RGxCR_GN
 2335              		.loc 1 505 34 discriminator 2
 2336 010a 1A60     		str	r2, [r3]
 508:./Libraries/STM32H7xx_HAL_Driver/Src/stm32h7xx_hal_dma_ex.c ****     /* Process Locked */
 509:./Libraries/STM32H7xx_HAL_Driver/Src/stm32h7xx_hal_dma_ex.c ****     __HAL_UNLOCK(hdma);
 2337              		.loc 1 509 5 discriminator 2
 2338 010c 7B68     		ldr	r3, [r7, #4]
 2339 010e 0022     		movs	r2, #0
 2340 0110 83F83420 		strb	r2, [r3, #52]
 510:./Libraries/STM32H7xx_HAL_Driver/Src/stm32h7xx_hal_dma_ex.c **** 
 511:./Libraries/STM32H7xx_HAL_Driver/Src/stm32h7xx_hal_dma_ex.c ****     return HAL_OK;
 2341              		.loc 1 511 12 discriminator 2
 2342 0114 0023     		movs	r3, #0
 2343 0116 06E0     		b	.L90
 2344              	.L88:
ARM GAS  /tmp/cc9oZLZ6.s 			page 51


 512:./Libraries/STM32H7xx_HAL_Driver/Src/stm32h7xx_hal_dma_ex.c ****   }
 513:./Libraries/STM32H7xx_HAL_Driver/Src/stm32h7xx_hal_dma_ex.c ****   else
 514:./Libraries/STM32H7xx_HAL_Driver/Src/stm32h7xx_hal_dma_ex.c ****   {
 515:./Libraries/STM32H7xx_HAL_Driver/Src/stm32h7xx_hal_dma_ex.c ****     /* Set the error code to busy */
 516:./Libraries/STM32H7xx_HAL_Driver/Src/stm32h7xx_hal_dma_ex.c ****     hdma->ErrorCode = HAL_DMA_ERROR_BUSY;
 2345              		.loc 1 516 21
 2346 0118 7B68     		ldr	r3, [r7, #4]
 2347 011a 4FF40062 		mov	r2, #2048
 2348 011e 5A65     		str	r2, [r3, #84]
 517:./Libraries/STM32H7xx_HAL_Driver/Src/stm32h7xx_hal_dma_ex.c **** 
 518:./Libraries/STM32H7xx_HAL_Driver/Src/stm32h7xx_hal_dma_ex.c ****     /* error status */
 519:./Libraries/STM32H7xx_HAL_Driver/Src/stm32h7xx_hal_dma_ex.c ****     status = HAL_ERROR;
 2349              		.loc 1 519 12
 2350 0120 0123     		movs	r3, #1
 2351 0122 FB73     		strb	r3, [r7, #15]
 2352              	.L87:
 520:./Libraries/STM32H7xx_HAL_Driver/Src/stm32h7xx_hal_dma_ex.c ****   }
 521:./Libraries/STM32H7xx_HAL_Driver/Src/stm32h7xx_hal_dma_ex.c **** 
 522:./Libraries/STM32H7xx_HAL_Driver/Src/stm32h7xx_hal_dma_ex.c ****   return status;
 2353              		.loc 1 522 10
 2354 0124 FB7B     		ldrb	r3, [r7, #15]	@ zero_extendqisi2
 2355              	.L90:
 523:./Libraries/STM32H7xx_HAL_Driver/Src/stm32h7xx_hal_dma_ex.c **** }
 2356              		.loc 1 523 1
 2357 0126 1846     		mov	r0, r3
 2358 0128 1437     		adds	r7, r7, #20
 2359              	.LCFI25:
 2360              		.cfi_def_cfa_offset 4
 2361 012a BD46     		mov	sp, r7
 2362              	.LCFI26:
 2363              		.cfi_def_cfa_register 13
 2364              		@ sp needed
 2365 012c 5DF8047B 		ldr	r7, [sp], #4
 2366              	.LCFI27:
 2367              		.cfi_restore 7
 2368              		.cfi_def_cfa_offset 0
 2369 0130 7047     		bx	lr
 2370              	.L94:
 2371 0132 00BF     		.align	2
 2372              	.L93:
 2373 0134 10000240 		.word	1073872912
 2374 0138 28000240 		.word	1073872936
 2375 013c 40000240 		.word	1073872960
 2376 0140 58000240 		.word	1073872984
 2377 0144 70000240 		.word	1073873008
 2378 0148 88000240 		.word	1073873032
 2379 014c A0000240 		.word	1073873056
 2380 0150 B8000240 		.word	1073873080
 2381 0154 10040240 		.word	1073873936
 2382 0158 28040240 		.word	1073873960
 2383 015c 40040240 		.word	1073873984
 2384 0160 58040240 		.word	1073874008
 2385 0164 70040240 		.word	1073874032
 2386 0168 88040240 		.word	1073874056
 2387 016c A0040240 		.word	1073874080
 2388 0170 B8040240 		.word	1073874104
 2389              		.cfi_endproc
ARM GAS  /tmp/cc9oZLZ6.s 			page 52


 2390              	.LFE335:
 2392              		.section	.text.HAL_DMAEx_EnableMuxRequestGenerator,"ax",%progbits
 2393              		.align	1
 2394              		.global	HAL_DMAEx_EnableMuxRequestGenerator
 2395              		.syntax unified
 2396              		.thumb
 2397              		.thumb_func
 2398              		.fpu fpv5-d16
 2400              	HAL_DMAEx_EnableMuxRequestGenerator:
 2401              	.LFB336:
 524:./Libraries/STM32H7xx_HAL_Driver/Src/stm32h7xx_hal_dma_ex.c **** 
 525:./Libraries/STM32H7xx_HAL_Driver/Src/stm32h7xx_hal_dma_ex.c **** /**
 526:./Libraries/STM32H7xx_HAL_Driver/Src/stm32h7xx_hal_dma_ex.c ****   * @brief  Enable the DMAMUX request generator block used by the given DMA stream (instance).
 527:./Libraries/STM32H7xx_HAL_Driver/Src/stm32h7xx_hal_dma_ex.c ****   * @param  hdma:       pointer to a DMA_HandleTypeDef structure that contains
 528:./Libraries/STM32H7xx_HAL_Driver/Src/stm32h7xx_hal_dma_ex.c ****   *                     the configuration information for the specified DMA Stream.
 529:./Libraries/STM32H7xx_HAL_Driver/Src/stm32h7xx_hal_dma_ex.c ****   * @retval HAL status
 530:./Libraries/STM32H7xx_HAL_Driver/Src/stm32h7xx_hal_dma_ex.c ****   */
 531:./Libraries/STM32H7xx_HAL_Driver/Src/stm32h7xx_hal_dma_ex.c **** HAL_StatusTypeDef HAL_DMAEx_EnableMuxRequestGenerator (DMA_HandleTypeDef *hdma)
 532:./Libraries/STM32H7xx_HAL_Driver/Src/stm32h7xx_hal_dma_ex.c **** {
 2402              		.loc 1 532 1
 2403              		.cfi_startproc
 2404              		@ args = 0, pretend = 0, frame = 8
 2405              		@ frame_needed = 1, uses_anonymous_args = 0
 2406              		@ link register save eliminated.
 2407 0000 80B4     		push	{r7}
 2408              	.LCFI28:
 2409              		.cfi_def_cfa_offset 4
 2410              		.cfi_offset 7, -4
 2411 0002 83B0     		sub	sp, sp, #12
 2412              	.LCFI29:
 2413              		.cfi_def_cfa_offset 16
 2414 0004 00AF     		add	r7, sp, #0
 2415              	.LCFI30:
 2416              		.cfi_def_cfa_register 7
 2417 0006 7860     		str	r0, [r7, #4]
 533:./Libraries/STM32H7xx_HAL_Driver/Src/stm32h7xx_hal_dma_ex.c ****   /* Check the parameters */
 534:./Libraries/STM32H7xx_HAL_Driver/Src/stm32h7xx_hal_dma_ex.c ****   assert_param(IS_DMA_DMAMUX_ALL_INSTANCE(hdma->Instance));
 535:./Libraries/STM32H7xx_HAL_Driver/Src/stm32h7xx_hal_dma_ex.c **** 
 536:./Libraries/STM32H7xx_HAL_Driver/Src/stm32h7xx_hal_dma_ex.c ****   /* check if the DMA state is ready
 537:./Libraries/STM32H7xx_HAL_Driver/Src/stm32h7xx_hal_dma_ex.c ****      and DMA is using a DMAMUX request generator block */
 538:./Libraries/STM32H7xx_HAL_Driver/Src/stm32h7xx_hal_dma_ex.c ****   if((hdma->State != HAL_DMA_STATE_RESET) && (hdma->DMAmuxRequestGen != 0U))
 2418              		.loc 1 538 11
 2419 0008 7B68     		ldr	r3, [r7, #4]
 2420 000a 93F83530 		ldrb	r3, [r3, #53]
 2421 000e DBB2     		uxtb	r3, r3
 2422              		.loc 1 538 5
 2423 0010 002B     		cmp	r3, #0
 2424 0012 0DD0     		beq	.L96
 2425              		.loc 1 538 51 discriminator 1
 2426 0014 7B68     		ldr	r3, [r7, #4]
 2427 0016 DB6E     		ldr	r3, [r3, #108]
 2428              		.loc 1 538 43 discriminator 1
 2429 0018 002B     		cmp	r3, #0
 2430 001a 09D0     		beq	.L96
 539:./Libraries/STM32H7xx_HAL_Driver/Src/stm32h7xx_hal_dma_ex.c ****   {
 540:./Libraries/STM32H7xx_HAL_Driver/Src/stm32h7xx_hal_dma_ex.c ****     /* Enable the request generator*/
 541:./Libraries/STM32H7xx_HAL_Driver/Src/stm32h7xx_hal_dma_ex.c ****     hdma->DMAmuxRequestGen->RGCR |= DMAMUX_RGxCR_GE;
ARM GAS  /tmp/cc9oZLZ6.s 			page 53


 2431              		.loc 1 541 9
 2432 001c 7B68     		ldr	r3, [r7, #4]
 2433 001e DB6E     		ldr	r3, [r3, #108]
 2434              		.loc 1 541 34
 2435 0020 1A68     		ldr	r2, [r3]
 2436              		.loc 1 541 9
 2437 0022 7B68     		ldr	r3, [r7, #4]
 2438 0024 DB6E     		ldr	r3, [r3, #108]
 2439              		.loc 1 541 34
 2440 0026 42F48032 		orr	r2, r2, #65536
 2441 002a 1A60     		str	r2, [r3]
 542:./Libraries/STM32H7xx_HAL_Driver/Src/stm32h7xx_hal_dma_ex.c **** 
 543:./Libraries/STM32H7xx_HAL_Driver/Src/stm32h7xx_hal_dma_ex.c ****    return HAL_OK;
 2442              		.loc 1 543 11
 2443 002c 0023     		movs	r3, #0
 2444 002e 00E0     		b	.L97
 2445              	.L96:
 544:./Libraries/STM32H7xx_HAL_Driver/Src/stm32h7xx_hal_dma_ex.c ****  }
 545:./Libraries/STM32H7xx_HAL_Driver/Src/stm32h7xx_hal_dma_ex.c ****  else
 546:./Libraries/STM32H7xx_HAL_Driver/Src/stm32h7xx_hal_dma_ex.c ****  {
 547:./Libraries/STM32H7xx_HAL_Driver/Src/stm32h7xx_hal_dma_ex.c ****    return HAL_ERROR;
 2446              		.loc 1 547 11
 2447 0030 0123     		movs	r3, #1
 2448              	.L97:
 548:./Libraries/STM32H7xx_HAL_Driver/Src/stm32h7xx_hal_dma_ex.c ****  }
 549:./Libraries/STM32H7xx_HAL_Driver/Src/stm32h7xx_hal_dma_ex.c **** }
 2449              		.loc 1 549 1
 2450 0032 1846     		mov	r0, r3
 2451 0034 0C37     		adds	r7, r7, #12
 2452              	.LCFI31:
 2453              		.cfi_def_cfa_offset 4
 2454 0036 BD46     		mov	sp, r7
 2455              	.LCFI32:
 2456              		.cfi_def_cfa_register 13
 2457              		@ sp needed
 2458 0038 5DF8047B 		ldr	r7, [sp], #4
 2459              	.LCFI33:
 2460              		.cfi_restore 7
 2461              		.cfi_def_cfa_offset 0
 2462 003c 7047     		bx	lr
 2463              		.cfi_endproc
 2464              	.LFE336:
 2466              		.section	.text.HAL_DMAEx_DisableMuxRequestGenerator,"ax",%progbits
 2467              		.align	1
 2468              		.global	HAL_DMAEx_DisableMuxRequestGenerator
 2469              		.syntax unified
 2470              		.thumb
 2471              		.thumb_func
 2472              		.fpu fpv5-d16
 2474              	HAL_DMAEx_DisableMuxRequestGenerator:
 2475              	.LFB337:
 550:./Libraries/STM32H7xx_HAL_Driver/Src/stm32h7xx_hal_dma_ex.c **** 
 551:./Libraries/STM32H7xx_HAL_Driver/Src/stm32h7xx_hal_dma_ex.c **** /**
 552:./Libraries/STM32H7xx_HAL_Driver/Src/stm32h7xx_hal_dma_ex.c ****   * @brief  Disable the DMAMUX request generator block used by the given DMA stream (instance).
 553:./Libraries/STM32H7xx_HAL_Driver/Src/stm32h7xx_hal_dma_ex.c ****   * @param  hdma:       pointer to a DMA_HandleTypeDef structure that contains
 554:./Libraries/STM32H7xx_HAL_Driver/Src/stm32h7xx_hal_dma_ex.c ****   *                     the configuration information for the specified DMA Stream.
 555:./Libraries/STM32H7xx_HAL_Driver/Src/stm32h7xx_hal_dma_ex.c ****   * @retval HAL status
ARM GAS  /tmp/cc9oZLZ6.s 			page 54


 556:./Libraries/STM32H7xx_HAL_Driver/Src/stm32h7xx_hal_dma_ex.c ****   */
 557:./Libraries/STM32H7xx_HAL_Driver/Src/stm32h7xx_hal_dma_ex.c **** HAL_StatusTypeDef HAL_DMAEx_DisableMuxRequestGenerator (DMA_HandleTypeDef *hdma)
 558:./Libraries/STM32H7xx_HAL_Driver/Src/stm32h7xx_hal_dma_ex.c **** {
 2476              		.loc 1 558 1
 2477              		.cfi_startproc
 2478              		@ args = 0, pretend = 0, frame = 8
 2479              		@ frame_needed = 1, uses_anonymous_args = 0
 2480              		@ link register save eliminated.
 2481 0000 80B4     		push	{r7}
 2482              	.LCFI34:
 2483              		.cfi_def_cfa_offset 4
 2484              		.cfi_offset 7, -4
 2485 0002 83B0     		sub	sp, sp, #12
 2486              	.LCFI35:
 2487              		.cfi_def_cfa_offset 16
 2488 0004 00AF     		add	r7, sp, #0
 2489              	.LCFI36:
 2490              		.cfi_def_cfa_register 7
 2491 0006 7860     		str	r0, [r7, #4]
 559:./Libraries/STM32H7xx_HAL_Driver/Src/stm32h7xx_hal_dma_ex.c ****   /* Check the parameters */
 560:./Libraries/STM32H7xx_HAL_Driver/Src/stm32h7xx_hal_dma_ex.c ****   assert_param(IS_DMA_DMAMUX_ALL_INSTANCE(hdma->Instance));
 561:./Libraries/STM32H7xx_HAL_Driver/Src/stm32h7xx_hal_dma_ex.c **** 
 562:./Libraries/STM32H7xx_HAL_Driver/Src/stm32h7xx_hal_dma_ex.c ****   /* check if the DMA state is ready
 563:./Libraries/STM32H7xx_HAL_Driver/Src/stm32h7xx_hal_dma_ex.c ****      and DMA is using a DMAMUX request generator block */
 564:./Libraries/STM32H7xx_HAL_Driver/Src/stm32h7xx_hal_dma_ex.c ****   if((hdma->State != HAL_DMA_STATE_RESET) && (hdma->DMAmuxRequestGen != 0U))
 2492              		.loc 1 564 11
 2493 0008 7B68     		ldr	r3, [r7, #4]
 2494 000a 93F83530 		ldrb	r3, [r3, #53]
 2495 000e DBB2     		uxtb	r3, r3
 2496              		.loc 1 564 5
 2497 0010 002B     		cmp	r3, #0
 2498 0012 0DD0     		beq	.L99
 2499              		.loc 1 564 51 discriminator 1
 2500 0014 7B68     		ldr	r3, [r7, #4]
 2501 0016 DB6E     		ldr	r3, [r3, #108]
 2502              		.loc 1 564 43 discriminator 1
 2503 0018 002B     		cmp	r3, #0
 2504 001a 09D0     		beq	.L99
 565:./Libraries/STM32H7xx_HAL_Driver/Src/stm32h7xx_hal_dma_ex.c ****   {
 566:./Libraries/STM32H7xx_HAL_Driver/Src/stm32h7xx_hal_dma_ex.c ****     /* Disable the request generator*/
 567:./Libraries/STM32H7xx_HAL_Driver/Src/stm32h7xx_hal_dma_ex.c ****     hdma->DMAmuxRequestGen->RGCR &= ~DMAMUX_RGxCR_GE;
 2505              		.loc 1 567 9
 2506 001c 7B68     		ldr	r3, [r7, #4]
 2507 001e DB6E     		ldr	r3, [r3, #108]
 2508              		.loc 1 567 34
 2509 0020 1A68     		ldr	r2, [r3]
 2510              		.loc 1 567 9
 2511 0022 7B68     		ldr	r3, [r7, #4]
 2512 0024 DB6E     		ldr	r3, [r3, #108]
 2513              		.loc 1 567 34
 2514 0026 22F48032 		bic	r2, r2, #65536
 2515 002a 1A60     		str	r2, [r3]
 568:./Libraries/STM32H7xx_HAL_Driver/Src/stm32h7xx_hal_dma_ex.c **** 
 569:./Libraries/STM32H7xx_HAL_Driver/Src/stm32h7xx_hal_dma_ex.c ****    return HAL_OK;
 2516              		.loc 1 569 11
 2517 002c 0023     		movs	r3, #0
 2518 002e 00E0     		b	.L100
ARM GAS  /tmp/cc9oZLZ6.s 			page 55


 2519              	.L99:
 570:./Libraries/STM32H7xx_HAL_Driver/Src/stm32h7xx_hal_dma_ex.c ****  }
 571:./Libraries/STM32H7xx_HAL_Driver/Src/stm32h7xx_hal_dma_ex.c ****  else
 572:./Libraries/STM32H7xx_HAL_Driver/Src/stm32h7xx_hal_dma_ex.c ****  {
 573:./Libraries/STM32H7xx_HAL_Driver/Src/stm32h7xx_hal_dma_ex.c ****    return HAL_ERROR;
 2520              		.loc 1 573 11
 2521 0030 0123     		movs	r3, #1
 2522              	.L100:
 574:./Libraries/STM32H7xx_HAL_Driver/Src/stm32h7xx_hal_dma_ex.c ****  }
 575:./Libraries/STM32H7xx_HAL_Driver/Src/stm32h7xx_hal_dma_ex.c **** }
 2523              		.loc 1 575 1
 2524 0032 1846     		mov	r0, r3
 2525 0034 0C37     		adds	r7, r7, #12
 2526              	.LCFI37:
 2527              		.cfi_def_cfa_offset 4
 2528 0036 BD46     		mov	sp, r7
 2529              	.LCFI38:
 2530              		.cfi_def_cfa_register 13
 2531              		@ sp needed
 2532 0038 5DF8047B 		ldr	r7, [sp], #4
 2533              	.LCFI39:
 2534              		.cfi_restore 7
 2535              		.cfi_def_cfa_offset 0
 2536 003c 7047     		bx	lr
 2537              		.cfi_endproc
 2538              	.LFE337:
 2540              		.section	.text.HAL_DMAEx_MUX_IRQHandler,"ax",%progbits
 2541              		.align	1
 2542              		.global	HAL_DMAEx_MUX_IRQHandler
 2543              		.syntax unified
 2544              		.thumb
 2545              		.thumb_func
 2546              		.fpu fpv5-d16
 2548              	HAL_DMAEx_MUX_IRQHandler:
 2549              	.LFB338:
 576:./Libraries/STM32H7xx_HAL_Driver/Src/stm32h7xx_hal_dma_ex.c **** 
 577:./Libraries/STM32H7xx_HAL_Driver/Src/stm32h7xx_hal_dma_ex.c **** /**
 578:./Libraries/STM32H7xx_HAL_Driver/Src/stm32h7xx_hal_dma_ex.c ****   * @brief  Handles DMAMUX interrupt request.
 579:./Libraries/STM32H7xx_HAL_Driver/Src/stm32h7xx_hal_dma_ex.c ****   * @param  hdma: pointer to a DMA_HandleTypeDef structure that contains
 580:./Libraries/STM32H7xx_HAL_Driver/Src/stm32h7xx_hal_dma_ex.c ****   *               the configuration information for the specified DMA Stream.
 581:./Libraries/STM32H7xx_HAL_Driver/Src/stm32h7xx_hal_dma_ex.c ****   * @retval None
 582:./Libraries/STM32H7xx_HAL_Driver/Src/stm32h7xx_hal_dma_ex.c ****   */
 583:./Libraries/STM32H7xx_HAL_Driver/Src/stm32h7xx_hal_dma_ex.c **** void HAL_DMAEx_MUX_IRQHandler(DMA_HandleTypeDef *hdma)
 584:./Libraries/STM32H7xx_HAL_Driver/Src/stm32h7xx_hal_dma_ex.c **** {
 2550              		.loc 1 584 1
 2551              		.cfi_startproc
 2552              		@ args = 0, pretend = 0, frame = 8
 2553              		@ frame_needed = 1, uses_anonymous_args = 0
 2554 0000 80B5     		push	{r7, lr}
 2555              	.LCFI40:
 2556              		.cfi_def_cfa_offset 8
 2557              		.cfi_offset 7, -8
 2558              		.cfi_offset 14, -4
 2559 0002 82B0     		sub	sp, sp, #8
 2560              	.LCFI41:
 2561              		.cfi_def_cfa_offset 16
 2562 0004 00AF     		add	r7, sp, #0
ARM GAS  /tmp/cc9oZLZ6.s 			page 56


 2563              	.LCFI42:
 2564              		.cfi_def_cfa_register 7
 2565 0006 7860     		str	r0, [r7, #4]
 585:./Libraries/STM32H7xx_HAL_Driver/Src/stm32h7xx_hal_dma_ex.c ****   /* Check for DMAMUX Synchronization overrun */
 586:./Libraries/STM32H7xx_HAL_Driver/Src/stm32h7xx_hal_dma_ex.c ****   if((hdma->DMAmuxChannelStatus->CSR & hdma->DMAmuxChannelStatusMask) != 0U)
 2566              		.loc 1 586 11
 2567 0008 7B68     		ldr	r3, [r7, #4]
 2568 000a 5B6E     		ldr	r3, [r3, #100]
 2569              		.loc 1 586 32
 2570 000c 1A68     		ldr	r2, [r3]
 2571              		.loc 1 586 44
 2572 000e 7B68     		ldr	r3, [r7, #4]
 2573 0010 9B6E     		ldr	r3, [r3, #104]
 2574              		.loc 1 586 38
 2575 0012 1340     		ands	r3, r3, r2
 2576              		.loc 1 586 5
 2577 0014 002B     		cmp	r3, #0
 2578 0016 1AD0     		beq	.L102
 587:./Libraries/STM32H7xx_HAL_Driver/Src/stm32h7xx_hal_dma_ex.c ****   {
 588:./Libraries/STM32H7xx_HAL_Driver/Src/stm32h7xx_hal_dma_ex.c ****     /* Disable the synchro overrun interrupt */
 589:./Libraries/STM32H7xx_HAL_Driver/Src/stm32h7xx_hal_dma_ex.c ****     hdma->DMAmuxChannel->CCR &= ~DMAMUX_CxCR_SOIE;
 2579              		.loc 1 589 9
 2580 0018 7B68     		ldr	r3, [r7, #4]
 2581 001a 1B6E     		ldr	r3, [r3, #96]
 2582              		.loc 1 589 30
 2583 001c 1A68     		ldr	r2, [r3]
 2584              		.loc 1 589 9
 2585 001e 7B68     		ldr	r3, [r7, #4]
 2586 0020 1B6E     		ldr	r3, [r3, #96]
 2587              		.loc 1 589 30
 2588 0022 22F48072 		bic	r2, r2, #256
 2589 0026 1A60     		str	r2, [r3]
 590:./Libraries/STM32H7xx_HAL_Driver/Src/stm32h7xx_hal_dma_ex.c **** 
 591:./Libraries/STM32H7xx_HAL_Driver/Src/stm32h7xx_hal_dma_ex.c ****     /* Clear the DMAMUX synchro overrun flag */
 592:./Libraries/STM32H7xx_HAL_Driver/Src/stm32h7xx_hal_dma_ex.c ****     hdma->DMAmuxChannelStatus->CFR = hdma->DMAmuxChannelStatusMask;
 2590              		.loc 1 592 9
 2591 0028 7B68     		ldr	r3, [r7, #4]
 2592 002a 5B6E     		ldr	r3, [r3, #100]
 2593              		.loc 1 592 42
 2594 002c 7A68     		ldr	r2, [r7, #4]
 2595 002e 926E     		ldr	r2, [r2, #104]
 2596              		.loc 1 592 36
 2597 0030 5A60     		str	r2, [r3, #4]
 593:./Libraries/STM32H7xx_HAL_Driver/Src/stm32h7xx_hal_dma_ex.c **** 
 594:./Libraries/STM32H7xx_HAL_Driver/Src/stm32h7xx_hal_dma_ex.c ****     /* Update error code */
 595:./Libraries/STM32H7xx_HAL_Driver/Src/stm32h7xx_hal_dma_ex.c ****     hdma->ErrorCode |= HAL_DMA_ERROR_SYNC;
 2598              		.loc 1 595 21
 2599 0032 7B68     		ldr	r3, [r7, #4]
 2600 0034 5B6D     		ldr	r3, [r3, #84]
 2601 0036 43F40072 		orr	r2, r3, #512
 2602 003a 7B68     		ldr	r3, [r7, #4]
 2603 003c 5A65     		str	r2, [r3, #84]
 596:./Libraries/STM32H7xx_HAL_Driver/Src/stm32h7xx_hal_dma_ex.c **** 
 597:./Libraries/STM32H7xx_HAL_Driver/Src/stm32h7xx_hal_dma_ex.c ****     if(hdma->XferErrorCallback != NULL)
 2604              		.loc 1 597 12
 2605 003e 7B68     		ldr	r3, [r7, #4]
 2606 0040 DB6C     		ldr	r3, [r3, #76]
ARM GAS  /tmp/cc9oZLZ6.s 			page 57


 2607              		.loc 1 597 7
 2608 0042 002B     		cmp	r3, #0
 2609 0044 03D0     		beq	.L102
 598:./Libraries/STM32H7xx_HAL_Driver/Src/stm32h7xx_hal_dma_ex.c ****     {
 599:./Libraries/STM32H7xx_HAL_Driver/Src/stm32h7xx_hal_dma_ex.c ****       /* Transfer error callback */
 600:./Libraries/STM32H7xx_HAL_Driver/Src/stm32h7xx_hal_dma_ex.c ****       hdma->XferErrorCallback(hdma);
 2610              		.loc 1 600 11
 2611 0046 7B68     		ldr	r3, [r7, #4]
 2612 0048 DB6C     		ldr	r3, [r3, #76]
 2613              		.loc 1 600 7
 2614 004a 7868     		ldr	r0, [r7, #4]
 2615 004c 9847     		blx	r3
 2616              	.LVL0:
 2617              	.L102:
 601:./Libraries/STM32H7xx_HAL_Driver/Src/stm32h7xx_hal_dma_ex.c ****     }
 602:./Libraries/STM32H7xx_HAL_Driver/Src/stm32h7xx_hal_dma_ex.c ****   }
 603:./Libraries/STM32H7xx_HAL_Driver/Src/stm32h7xx_hal_dma_ex.c **** 
 604:./Libraries/STM32H7xx_HAL_Driver/Src/stm32h7xx_hal_dma_ex.c ****   if(hdma->DMAmuxRequestGen != 0)
 2618              		.loc 1 604 10
 2619 004e 7B68     		ldr	r3, [r7, #4]
 2620 0050 DB6E     		ldr	r3, [r3, #108]
 2621              		.loc 1 604 5
 2622 0052 002B     		cmp	r3, #0
 2623 0054 22D0     		beq	.L104
 605:./Libraries/STM32H7xx_HAL_Driver/Src/stm32h7xx_hal_dma_ex.c ****   {
 606:./Libraries/STM32H7xx_HAL_Driver/Src/stm32h7xx_hal_dma_ex.c ****    /* if using a DMAMUX request generator block Check for DMAMUX request generator overrun */
 607:./Libraries/STM32H7xx_HAL_Driver/Src/stm32h7xx_hal_dma_ex.c ****     if((hdma->DMAmuxRequestGenStatus->RGSR & hdma->DMAmuxRequestGenStatusMask) != 0U)
 2624              		.loc 1 607 13
 2625 0056 7B68     		ldr	r3, [r7, #4]
 2626 0058 1B6F     		ldr	r3, [r3, #112]
 2627              		.loc 1 607 37
 2628 005a 1A68     		ldr	r2, [r3]
 2629              		.loc 1 607 50
 2630 005c 7B68     		ldr	r3, [r7, #4]
 2631 005e 5B6F     		ldr	r3, [r3, #116]
 2632              		.loc 1 607 44
 2633 0060 1340     		ands	r3, r3, r2
 2634              		.loc 1 607 7
 2635 0062 002B     		cmp	r3, #0
 2636 0064 1AD0     		beq	.L104
 608:./Libraries/STM32H7xx_HAL_Driver/Src/stm32h7xx_hal_dma_ex.c ****     {
 609:./Libraries/STM32H7xx_HAL_Driver/Src/stm32h7xx_hal_dma_ex.c ****       /* Disable the request gen overrun interrupt */
 610:./Libraries/STM32H7xx_HAL_Driver/Src/stm32h7xx_hal_dma_ex.c ****       hdma->DMAmuxRequestGen->RGCR &= ~DMAMUX_RGxCR_OIE;
 2637              		.loc 1 610 11
 2638 0066 7B68     		ldr	r3, [r7, #4]
 2639 0068 DB6E     		ldr	r3, [r3, #108]
 2640              		.loc 1 610 36
 2641 006a 1A68     		ldr	r2, [r3]
 2642              		.loc 1 610 11
 2643 006c 7B68     		ldr	r3, [r7, #4]
 2644 006e DB6E     		ldr	r3, [r3, #108]
 2645              		.loc 1 610 36
 2646 0070 22F48072 		bic	r2, r2, #256
 2647 0074 1A60     		str	r2, [r3]
 611:./Libraries/STM32H7xx_HAL_Driver/Src/stm32h7xx_hal_dma_ex.c **** 
 612:./Libraries/STM32H7xx_HAL_Driver/Src/stm32h7xx_hal_dma_ex.c ****       /* Clear the DMAMUX request generator overrun flag */
 613:./Libraries/STM32H7xx_HAL_Driver/Src/stm32h7xx_hal_dma_ex.c ****       hdma->DMAmuxRequestGenStatus->RGCFR = hdma->DMAmuxRequestGenStatusMask;
ARM GAS  /tmp/cc9oZLZ6.s 			page 58


 2648              		.loc 1 613 11
 2649 0076 7B68     		ldr	r3, [r7, #4]
 2650 0078 1B6F     		ldr	r3, [r3, #112]
 2651              		.loc 1 613 49
 2652 007a 7A68     		ldr	r2, [r7, #4]
 2653 007c 526F     		ldr	r2, [r2, #116]
 2654              		.loc 1 613 43
 2655 007e 5A60     		str	r2, [r3, #4]
 614:./Libraries/STM32H7xx_HAL_Driver/Src/stm32h7xx_hal_dma_ex.c **** 
 615:./Libraries/STM32H7xx_HAL_Driver/Src/stm32h7xx_hal_dma_ex.c ****       /* Update error code */
 616:./Libraries/STM32H7xx_HAL_Driver/Src/stm32h7xx_hal_dma_ex.c ****       hdma->ErrorCode |= HAL_DMA_ERROR_REQGEN;
 2656              		.loc 1 616 23
 2657 0080 7B68     		ldr	r3, [r7, #4]
 2658 0082 5B6D     		ldr	r3, [r3, #84]
 2659 0084 43F48062 		orr	r2, r3, #1024
 2660 0088 7B68     		ldr	r3, [r7, #4]
 2661 008a 5A65     		str	r2, [r3, #84]
 617:./Libraries/STM32H7xx_HAL_Driver/Src/stm32h7xx_hal_dma_ex.c **** 
 618:./Libraries/STM32H7xx_HAL_Driver/Src/stm32h7xx_hal_dma_ex.c ****       if(hdma->XferErrorCallback != NULL)
 2662              		.loc 1 618 14
 2663 008c 7B68     		ldr	r3, [r7, #4]
 2664 008e DB6C     		ldr	r3, [r3, #76]
 2665              		.loc 1 618 9
 2666 0090 002B     		cmp	r3, #0
 2667 0092 03D0     		beq	.L104
 619:./Libraries/STM32H7xx_HAL_Driver/Src/stm32h7xx_hal_dma_ex.c ****       {
 620:./Libraries/STM32H7xx_HAL_Driver/Src/stm32h7xx_hal_dma_ex.c ****         /* Transfer error callback */
 621:./Libraries/STM32H7xx_HAL_Driver/Src/stm32h7xx_hal_dma_ex.c ****         hdma->XferErrorCallback(hdma);
 2668              		.loc 1 621 13
 2669 0094 7B68     		ldr	r3, [r7, #4]
 2670 0096 DB6C     		ldr	r3, [r3, #76]
 2671              		.loc 1 621 9
 2672 0098 7868     		ldr	r0, [r7, #4]
 2673 009a 9847     		blx	r3
 2674              	.LVL1:
 2675              	.L104:
 622:./Libraries/STM32H7xx_HAL_Driver/Src/stm32h7xx_hal_dma_ex.c ****       }
 623:./Libraries/STM32H7xx_HAL_Driver/Src/stm32h7xx_hal_dma_ex.c ****     }
 624:./Libraries/STM32H7xx_HAL_Driver/Src/stm32h7xx_hal_dma_ex.c ****   }
 625:./Libraries/STM32H7xx_HAL_Driver/Src/stm32h7xx_hal_dma_ex.c **** }
 2676              		.loc 1 625 1
 2677 009c 00BF     		nop
 2678 009e 0837     		adds	r7, r7, #8
 2679              	.LCFI43:
 2680              		.cfi_def_cfa_offset 8
 2681 00a0 BD46     		mov	sp, r7
 2682              	.LCFI44:
 2683              		.cfi_def_cfa_register 13
 2684              		@ sp needed
 2685 00a2 80BD     		pop	{r7, pc}
 2686              		.cfi_endproc
 2687              	.LFE338:
 2689              		.section	.text.DMA_MultiBufferSetConfig,"ax",%progbits
 2690              		.align	1
 2691              		.syntax unified
 2692              		.thumb
 2693              		.thumb_func
ARM GAS  /tmp/cc9oZLZ6.s 			page 59


 2694              		.fpu fpv5-d16
 2696              	DMA_MultiBufferSetConfig:
 2697              	.LFB339:
 626:./Libraries/STM32H7xx_HAL_Driver/Src/stm32h7xx_hal_dma_ex.c **** 
 627:./Libraries/STM32H7xx_HAL_Driver/Src/stm32h7xx_hal_dma_ex.c **** 
 628:./Libraries/STM32H7xx_HAL_Driver/Src/stm32h7xx_hal_dma_ex.c **** /**
 629:./Libraries/STM32H7xx_HAL_Driver/Src/stm32h7xx_hal_dma_ex.c ****   * @}
 630:./Libraries/STM32H7xx_HAL_Driver/Src/stm32h7xx_hal_dma_ex.c ****   */
 631:./Libraries/STM32H7xx_HAL_Driver/Src/stm32h7xx_hal_dma_ex.c **** 
 632:./Libraries/STM32H7xx_HAL_Driver/Src/stm32h7xx_hal_dma_ex.c **** /**
 633:./Libraries/STM32H7xx_HAL_Driver/Src/stm32h7xx_hal_dma_ex.c ****   * @}
 634:./Libraries/STM32H7xx_HAL_Driver/Src/stm32h7xx_hal_dma_ex.c ****   */
 635:./Libraries/STM32H7xx_HAL_Driver/Src/stm32h7xx_hal_dma_ex.c **** 
 636:./Libraries/STM32H7xx_HAL_Driver/Src/stm32h7xx_hal_dma_ex.c **** /** @addtogroup DMAEx_Private_Functions
 637:./Libraries/STM32H7xx_HAL_Driver/Src/stm32h7xx_hal_dma_ex.c ****   * @{
 638:./Libraries/STM32H7xx_HAL_Driver/Src/stm32h7xx_hal_dma_ex.c ****   */
 639:./Libraries/STM32H7xx_HAL_Driver/Src/stm32h7xx_hal_dma_ex.c **** 
 640:./Libraries/STM32H7xx_HAL_Driver/Src/stm32h7xx_hal_dma_ex.c **** /**
 641:./Libraries/STM32H7xx_HAL_Driver/Src/stm32h7xx_hal_dma_ex.c ****   * @brief  Set the DMA Transfer parameter.
 642:./Libraries/STM32H7xx_HAL_Driver/Src/stm32h7xx_hal_dma_ex.c ****   * @param  hdma:       pointer to a DMA_HandleTypeDef structure that contains
 643:./Libraries/STM32H7xx_HAL_Driver/Src/stm32h7xx_hal_dma_ex.c ****   *                     the configuration information for the specified DMA Stream.
 644:./Libraries/STM32H7xx_HAL_Driver/Src/stm32h7xx_hal_dma_ex.c ****   * @param  SrcAddress: The source memory Buffer address
 645:./Libraries/STM32H7xx_HAL_Driver/Src/stm32h7xx_hal_dma_ex.c ****   * @param  DstAddress: The destination memory Buffer address
 646:./Libraries/STM32H7xx_HAL_Driver/Src/stm32h7xx_hal_dma_ex.c ****   * @param  DataLength: The length of data to be transferred from source to destination
 647:./Libraries/STM32H7xx_HAL_Driver/Src/stm32h7xx_hal_dma_ex.c ****   * @retval HAL status
 648:./Libraries/STM32H7xx_HAL_Driver/Src/stm32h7xx_hal_dma_ex.c ****   */
 649:./Libraries/STM32H7xx_HAL_Driver/Src/stm32h7xx_hal_dma_ex.c **** static void DMA_MultiBufferSetConfig(DMA_HandleTypeDef *hdma, uint32_t SrcAddress, uint32_t DstAddr
 650:./Libraries/STM32H7xx_HAL_Driver/Src/stm32h7xx_hal_dma_ex.c **** {
 2698              		.loc 1 650 1
 2699              		.cfi_startproc
 2700              		@ args = 0, pretend = 0, frame = 16
 2701              		@ frame_needed = 1, uses_anonymous_args = 0
 2702              		@ link register save eliminated.
 2703 0000 80B4     		push	{r7}
 2704              	.LCFI45:
 2705              		.cfi_def_cfa_offset 4
 2706              		.cfi_offset 7, -4
 2707 0002 85B0     		sub	sp, sp, #20
 2708              	.LCFI46:
 2709              		.cfi_def_cfa_offset 24
 2710 0004 00AF     		add	r7, sp, #0
 2711              	.LCFI47:
 2712              		.cfi_def_cfa_register 7
 2713 0006 F860     		str	r0, [r7, #12]
 2714 0008 B960     		str	r1, [r7, #8]
 2715 000a 7A60     		str	r2, [r7, #4]
 2716 000c 3B60     		str	r3, [r7]
 651:./Libraries/STM32H7xx_HAL_Driver/Src/stm32h7xx_hal_dma_ex.c ****   if(IS_DMA_STREAM_INSTANCE(hdma->Instance) != 0U) /* DMA1 or DMA2 instance */
 2717              		.loc 1 651 6
 2718 000e FB68     		ldr	r3, [r7, #12]
 2719 0010 1B68     		ldr	r3, [r3]
 2720 0012 464A     		ldr	r2, .L114
 2721 0014 9342     		cmp	r3, r2
 2722 0016 4AD0     		beq	.L106
 2723              		.loc 1 651 6 is_stmt 0 discriminator 2
 2724 0018 FB68     		ldr	r3, [r7, #12]
 2725 001a 1B68     		ldr	r3, [r3]
ARM GAS  /tmp/cc9oZLZ6.s 			page 60


 2726 001c 444A     		ldr	r2, .L114+4
 2727 001e 9342     		cmp	r3, r2
 2728 0020 45D0     		beq	.L106
 2729              		.loc 1 651 6 discriminator 4
 2730 0022 FB68     		ldr	r3, [r7, #12]
 2731 0024 1B68     		ldr	r3, [r3]
 2732 0026 434A     		ldr	r2, .L114+8
 2733 0028 9342     		cmp	r3, r2
 2734 002a 40D0     		beq	.L106
 2735              		.loc 1 651 6 discriminator 6
 2736 002c FB68     		ldr	r3, [r7, #12]
 2737 002e 1B68     		ldr	r3, [r3]
 2738 0030 414A     		ldr	r2, .L114+12
 2739 0032 9342     		cmp	r3, r2
 2740 0034 3BD0     		beq	.L106
 2741              		.loc 1 651 6 discriminator 8
 2742 0036 FB68     		ldr	r3, [r7, #12]
 2743 0038 1B68     		ldr	r3, [r3]
 2744 003a 404A     		ldr	r2, .L114+16
 2745 003c 9342     		cmp	r3, r2
 2746 003e 36D0     		beq	.L106
 2747              		.loc 1 651 6 discriminator 10
 2748 0040 FB68     		ldr	r3, [r7, #12]
 2749 0042 1B68     		ldr	r3, [r3]
 2750 0044 3E4A     		ldr	r2, .L114+20
 2751 0046 9342     		cmp	r3, r2
 2752 0048 31D0     		beq	.L106
 2753              		.loc 1 651 6 discriminator 12
 2754 004a FB68     		ldr	r3, [r7, #12]
 2755 004c 1B68     		ldr	r3, [r3]
 2756 004e 3D4A     		ldr	r2, .L114+24
 2757 0050 9342     		cmp	r3, r2
 2758 0052 2CD0     		beq	.L106
 2759              		.loc 1 651 6 discriminator 14
 2760 0054 FB68     		ldr	r3, [r7, #12]
 2761 0056 1B68     		ldr	r3, [r3]
 2762 0058 3B4A     		ldr	r2, .L114+28
 2763 005a 9342     		cmp	r3, r2
 2764 005c 27D0     		beq	.L106
 2765              		.loc 1 651 6 discriminator 16
 2766 005e FB68     		ldr	r3, [r7, #12]
 2767 0060 1B68     		ldr	r3, [r3]
 2768 0062 3A4A     		ldr	r2, .L114+32
 2769 0064 9342     		cmp	r3, r2
 2770 0066 22D0     		beq	.L106
 2771              		.loc 1 651 6 discriminator 18
 2772 0068 FB68     		ldr	r3, [r7, #12]
 2773 006a 1B68     		ldr	r3, [r3]
 2774 006c 384A     		ldr	r2, .L114+36
 2775 006e 9342     		cmp	r3, r2
 2776 0070 1DD0     		beq	.L106
 2777              		.loc 1 651 6 discriminator 20
 2778 0072 FB68     		ldr	r3, [r7, #12]
 2779 0074 1B68     		ldr	r3, [r3]
 2780 0076 374A     		ldr	r2, .L114+40
 2781 0078 9342     		cmp	r3, r2
 2782 007a 18D0     		beq	.L106
ARM GAS  /tmp/cc9oZLZ6.s 			page 61


 2783              		.loc 1 651 6 discriminator 22
 2784 007c FB68     		ldr	r3, [r7, #12]
 2785 007e 1B68     		ldr	r3, [r3]
 2786 0080 354A     		ldr	r2, .L114+44
 2787 0082 9342     		cmp	r3, r2
 2788 0084 13D0     		beq	.L106
 2789              		.loc 1 651 6 discriminator 24
 2790 0086 FB68     		ldr	r3, [r7, #12]
 2791 0088 1B68     		ldr	r3, [r3]
 2792 008a 344A     		ldr	r2, .L114+48
 2793 008c 9342     		cmp	r3, r2
 2794 008e 0ED0     		beq	.L106
 2795              		.loc 1 651 6 discriminator 26
 2796 0090 FB68     		ldr	r3, [r7, #12]
 2797 0092 1B68     		ldr	r3, [r3]
 2798 0094 324A     		ldr	r2, .L114+52
 2799 0096 9342     		cmp	r3, r2
 2800 0098 09D0     		beq	.L106
 2801              		.loc 1 651 6 discriminator 28
 2802 009a FB68     		ldr	r3, [r7, #12]
 2803 009c 1B68     		ldr	r3, [r3]
 2804 009e 314A     		ldr	r2, .L114+56
 2805 00a0 9342     		cmp	r3, r2
 2806 00a2 04D0     		beq	.L106
 2807              		.loc 1 651 6 discriminator 30
 2808 00a4 FB68     		ldr	r3, [r7, #12]
 2809 00a6 1B68     		ldr	r3, [r3]
 2810 00a8 2F4A     		ldr	r2, .L114+60
 2811 00aa 9342     		cmp	r3, r2
 2812 00ac 01D1     		bne	.L107
 2813              	.L106:
 2814              		.loc 1 651 6 discriminator 31
 2815 00ae 0123     		movs	r3, #1
 2816 00b0 00E0     		b	.L108
 2817              	.L107:
 2818              		.loc 1 651 6 discriminator 32
 2819 00b2 0023     		movs	r3, #0
 2820              	.L108:
 2821              		.loc 1 651 5 is_stmt 1 discriminator 34
 2822 00b4 002B     		cmp	r3, #0
 2823 00b6 19D0     		beq	.L109
 652:./Libraries/STM32H7xx_HAL_Driver/Src/stm32h7xx_hal_dma_ex.c ****   {
 653:./Libraries/STM32H7xx_HAL_Driver/Src/stm32h7xx_hal_dma_ex.c ****     /* Configure DMA Stream data length */
 654:./Libraries/STM32H7xx_HAL_Driver/Src/stm32h7xx_hal_dma_ex.c ****     ((DMA_Stream_TypeDef   *)hdma->Instance)->NDTR = DataLength;
 2824              		.loc 1 654 34
 2825 00b8 FB68     		ldr	r3, [r7, #12]
 2826 00ba 1B68     		ldr	r3, [r3]
 2827              		.loc 1 654 52
 2828 00bc 3A68     		ldr	r2, [r7]
 2829 00be 5A60     		str	r2, [r3, #4]
 655:./Libraries/STM32H7xx_HAL_Driver/Src/stm32h7xx_hal_dma_ex.c **** 
 656:./Libraries/STM32H7xx_HAL_Driver/Src/stm32h7xx_hal_dma_ex.c ****     /* Peripheral to Memory */
 657:./Libraries/STM32H7xx_HAL_Driver/Src/stm32h7xx_hal_dma_ex.c ****     if((hdma->Init.Direction) == DMA_MEMORY_TO_PERIPH)
 2830              		.loc 1 657 19
 2831 00c0 FB68     		ldr	r3, [r7, #12]
 2832 00c2 9B68     		ldr	r3, [r3, #8]
 2833              		.loc 1 657 7
ARM GAS  /tmp/cc9oZLZ6.s 			page 62


 2834 00c4 402B     		cmp	r3, #64
 2835 00c6 08D1     		bne	.L110
 658:./Libraries/STM32H7xx_HAL_Driver/Src/stm32h7xx_hal_dma_ex.c ****     {
 659:./Libraries/STM32H7xx_HAL_Driver/Src/stm32h7xx_hal_dma_ex.c ****       /* Configure DMA Stream destination address */
 660:./Libraries/STM32H7xx_HAL_Driver/Src/stm32h7xx_hal_dma_ex.c ****       ((DMA_Stream_TypeDef   *)hdma->Instance)->PAR = DstAddress;
 2836              		.loc 1 660 36
 2837 00c8 FB68     		ldr	r3, [r7, #12]
 2838 00ca 1B68     		ldr	r3, [r3]
 2839              		.loc 1 660 53
 2840 00cc 7A68     		ldr	r2, [r7, #4]
 2841 00ce 9A60     		str	r2, [r3, #8]
 661:./Libraries/STM32H7xx_HAL_Driver/Src/stm32h7xx_hal_dma_ex.c **** 
 662:./Libraries/STM32H7xx_HAL_Driver/Src/stm32h7xx_hal_dma_ex.c ****       /* Configure DMA Stream source address */
 663:./Libraries/STM32H7xx_HAL_Driver/Src/stm32h7xx_hal_dma_ex.c ****       ((DMA_Stream_TypeDef   *)hdma->Instance)->M0AR = SrcAddress;
 2842              		.loc 1 663 36
 2843 00d0 FB68     		ldr	r3, [r7, #12]
 2844 00d2 1B68     		ldr	r3, [r3]
 2845              		.loc 1 663 54
 2846 00d4 BA68     		ldr	r2, [r7, #8]
 2847 00d6 DA60     		str	r2, [r3, #12]
 664:./Libraries/STM32H7xx_HAL_Driver/Src/stm32h7xx_hal_dma_ex.c ****     }
 665:./Libraries/STM32H7xx_HAL_Driver/Src/stm32h7xx_hal_dma_ex.c ****     /* Memory to Peripheral */
 666:./Libraries/STM32H7xx_HAL_Driver/Src/stm32h7xx_hal_dma_ex.c ****     else
 667:./Libraries/STM32H7xx_HAL_Driver/Src/stm32h7xx_hal_dma_ex.c ****     {
 668:./Libraries/STM32H7xx_HAL_Driver/Src/stm32h7xx_hal_dma_ex.c ****       /* Configure DMA Stream source address */
 669:./Libraries/STM32H7xx_HAL_Driver/Src/stm32h7xx_hal_dma_ex.c ****       ((DMA_Stream_TypeDef   *)hdma->Instance)->PAR = SrcAddress;
 670:./Libraries/STM32H7xx_HAL_Driver/Src/stm32h7xx_hal_dma_ex.c **** 
 671:./Libraries/STM32H7xx_HAL_Driver/Src/stm32h7xx_hal_dma_ex.c ****       /* Configure DMA Stream destination address */
 672:./Libraries/STM32H7xx_HAL_Driver/Src/stm32h7xx_hal_dma_ex.c ****       ((DMA_Stream_TypeDef   *)hdma->Instance)->M0AR = DstAddress;
 673:./Libraries/STM32H7xx_HAL_Driver/Src/stm32h7xx_hal_dma_ex.c ****     }
 674:./Libraries/STM32H7xx_HAL_Driver/Src/stm32h7xx_hal_dma_ex.c ****   }
 675:./Libraries/STM32H7xx_HAL_Driver/Src/stm32h7xx_hal_dma_ex.c ****   else /* BDMA instance(s) */
 676:./Libraries/STM32H7xx_HAL_Driver/Src/stm32h7xx_hal_dma_ex.c ****   {
 677:./Libraries/STM32H7xx_HAL_Driver/Src/stm32h7xx_hal_dma_ex.c ****     /* Configure DMA Stream data length */
 678:./Libraries/STM32H7xx_HAL_Driver/Src/stm32h7xx_hal_dma_ex.c ****     ((BDMA_Channel_TypeDef   *)hdma->Instance)->CNDTR = DataLength;
 679:./Libraries/STM32H7xx_HAL_Driver/Src/stm32h7xx_hal_dma_ex.c **** 
 680:./Libraries/STM32H7xx_HAL_Driver/Src/stm32h7xx_hal_dma_ex.c ****     /* Peripheral to Memory */
 681:./Libraries/STM32H7xx_HAL_Driver/Src/stm32h7xx_hal_dma_ex.c ****     if((hdma->Init.Direction) == DMA_MEMORY_TO_PERIPH)
 682:./Libraries/STM32H7xx_HAL_Driver/Src/stm32h7xx_hal_dma_ex.c ****     {
 683:./Libraries/STM32H7xx_HAL_Driver/Src/stm32h7xx_hal_dma_ex.c ****       /* Configure DMA Stream destination address */
 684:./Libraries/STM32H7xx_HAL_Driver/Src/stm32h7xx_hal_dma_ex.c ****       ((BDMA_Channel_TypeDef   *)hdma->Instance)->CPAR = DstAddress;
 685:./Libraries/STM32H7xx_HAL_Driver/Src/stm32h7xx_hal_dma_ex.c **** 
 686:./Libraries/STM32H7xx_HAL_Driver/Src/stm32h7xx_hal_dma_ex.c ****       /* Configure DMA Stream source address */
 687:./Libraries/STM32H7xx_HAL_Driver/Src/stm32h7xx_hal_dma_ex.c ****       ((BDMA_Channel_TypeDef   *)hdma->Instance)->CM0AR = SrcAddress;
 688:./Libraries/STM32H7xx_HAL_Driver/Src/stm32h7xx_hal_dma_ex.c ****     }
 689:./Libraries/STM32H7xx_HAL_Driver/Src/stm32h7xx_hal_dma_ex.c ****     /* Memory to Peripheral */
 690:./Libraries/STM32H7xx_HAL_Driver/Src/stm32h7xx_hal_dma_ex.c ****     else
 691:./Libraries/STM32H7xx_HAL_Driver/Src/stm32h7xx_hal_dma_ex.c ****     {
 692:./Libraries/STM32H7xx_HAL_Driver/Src/stm32h7xx_hal_dma_ex.c ****       /* Configure DMA Stream source address */
 693:./Libraries/STM32H7xx_HAL_Driver/Src/stm32h7xx_hal_dma_ex.c ****       ((BDMA_Channel_TypeDef   *)hdma->Instance)->CPAR = SrcAddress;
 694:./Libraries/STM32H7xx_HAL_Driver/Src/stm32h7xx_hal_dma_ex.c **** 
 695:./Libraries/STM32H7xx_HAL_Driver/Src/stm32h7xx_hal_dma_ex.c ****       /* Configure DMA Stream destination address */
 696:./Libraries/STM32H7xx_HAL_Driver/Src/stm32h7xx_hal_dma_ex.c ****       ((BDMA_Channel_TypeDef   *)hdma->Instance)->CM0AR = DstAddress;
 697:./Libraries/STM32H7xx_HAL_Driver/Src/stm32h7xx_hal_dma_ex.c ****     }
 698:./Libraries/STM32H7xx_HAL_Driver/Src/stm32h7xx_hal_dma_ex.c ****   }
 699:./Libraries/STM32H7xx_HAL_Driver/Src/stm32h7xx_hal_dma_ex.c **** }
 2848              		.loc 1 699 1
ARM GAS  /tmp/cc9oZLZ6.s 			page 63


 2849 00d8 21E0     		b	.L113
 2850              	.L110:
 669:./Libraries/STM32H7xx_HAL_Driver/Src/stm32h7xx_hal_dma_ex.c **** 
 2851              		.loc 1 669 36
 2852 00da FB68     		ldr	r3, [r7, #12]
 2853 00dc 1B68     		ldr	r3, [r3]
 669:./Libraries/STM32H7xx_HAL_Driver/Src/stm32h7xx_hal_dma_ex.c **** 
 2854              		.loc 1 669 53
 2855 00de BA68     		ldr	r2, [r7, #8]
 2856 00e0 9A60     		str	r2, [r3, #8]
 672:./Libraries/STM32H7xx_HAL_Driver/Src/stm32h7xx_hal_dma_ex.c ****     }
 2857              		.loc 1 672 36
 2858 00e2 FB68     		ldr	r3, [r7, #12]
 2859 00e4 1B68     		ldr	r3, [r3]
 672:./Libraries/STM32H7xx_HAL_Driver/Src/stm32h7xx_hal_dma_ex.c ****     }
 2860              		.loc 1 672 54
 2861 00e6 7A68     		ldr	r2, [r7, #4]
 2862 00e8 DA60     		str	r2, [r3, #12]
 2863              		.loc 1 699 1
 2864 00ea 18E0     		b	.L113
 2865              	.L109:
 678:./Libraries/STM32H7xx_HAL_Driver/Src/stm32h7xx_hal_dma_ex.c **** 
 2866              		.loc 1 678 36
 2867 00ec FB68     		ldr	r3, [r7, #12]
 2868 00ee 1B68     		ldr	r3, [r3]
 678:./Libraries/STM32H7xx_HAL_Driver/Src/stm32h7xx_hal_dma_ex.c **** 
 2869              		.loc 1 678 55
 2870 00f0 3A68     		ldr	r2, [r7]
 2871 00f2 5A60     		str	r2, [r3, #4]
 681:./Libraries/STM32H7xx_HAL_Driver/Src/stm32h7xx_hal_dma_ex.c ****     {
 2872              		.loc 1 681 19
 2873 00f4 FB68     		ldr	r3, [r7, #12]
 2874 00f6 9B68     		ldr	r3, [r3, #8]
 681:./Libraries/STM32H7xx_HAL_Driver/Src/stm32h7xx_hal_dma_ex.c ****     {
 2875              		.loc 1 681 7
 2876 00f8 402B     		cmp	r3, #64
 2877 00fa 08D1     		bne	.L112
 684:./Libraries/STM32H7xx_HAL_Driver/Src/stm32h7xx_hal_dma_ex.c **** 
 2878              		.loc 1 684 38
 2879 00fc FB68     		ldr	r3, [r7, #12]
 2880 00fe 1B68     		ldr	r3, [r3]
 684:./Libraries/STM32H7xx_HAL_Driver/Src/stm32h7xx_hal_dma_ex.c **** 
 2881              		.loc 1 684 56
 2882 0100 7A68     		ldr	r2, [r7, #4]
 2883 0102 9A60     		str	r2, [r3, #8]
 687:./Libraries/STM32H7xx_HAL_Driver/Src/stm32h7xx_hal_dma_ex.c ****     }
 2884              		.loc 1 687 38
 2885 0104 FB68     		ldr	r3, [r7, #12]
 2886 0106 1B68     		ldr	r3, [r3]
 687:./Libraries/STM32H7xx_HAL_Driver/Src/stm32h7xx_hal_dma_ex.c ****     }
 2887              		.loc 1 687 57
 2888 0108 BA68     		ldr	r2, [r7, #8]
 2889 010a DA60     		str	r2, [r3, #12]
 2890              		.loc 1 699 1
 2891 010c 07E0     		b	.L113
 2892              	.L112:
 693:./Libraries/STM32H7xx_HAL_Driver/Src/stm32h7xx_hal_dma_ex.c **** 
ARM GAS  /tmp/cc9oZLZ6.s 			page 64


 2893              		.loc 1 693 38
 2894 010e FB68     		ldr	r3, [r7, #12]
 2895 0110 1B68     		ldr	r3, [r3]
 693:./Libraries/STM32H7xx_HAL_Driver/Src/stm32h7xx_hal_dma_ex.c **** 
 2896              		.loc 1 693 56
 2897 0112 BA68     		ldr	r2, [r7, #8]
 2898 0114 9A60     		str	r2, [r3, #8]
 696:./Libraries/STM32H7xx_HAL_Driver/Src/stm32h7xx_hal_dma_ex.c ****     }
 2899              		.loc 1 696 38
 2900 0116 FB68     		ldr	r3, [r7, #12]
 2901 0118 1B68     		ldr	r3, [r3]
 696:./Libraries/STM32H7xx_HAL_Driver/Src/stm32h7xx_hal_dma_ex.c ****     }
 2902              		.loc 1 696 57
 2903 011a 7A68     		ldr	r2, [r7, #4]
 2904 011c DA60     		str	r2, [r3, #12]
 2905              	.L113:
 2906              		.loc 1 699 1
 2907 011e 00BF     		nop
 2908 0120 1437     		adds	r7, r7, #20
 2909              	.LCFI48:
 2910              		.cfi_def_cfa_offset 4
 2911 0122 BD46     		mov	sp, r7
 2912              	.LCFI49:
 2913              		.cfi_def_cfa_register 13
 2914              		@ sp needed
 2915 0124 5DF8047B 		ldr	r7, [sp], #4
 2916              	.LCFI50:
 2917              		.cfi_restore 7
 2918              		.cfi_def_cfa_offset 0
 2919 0128 7047     		bx	lr
 2920              	.L115:
 2921 012a 00BF     		.align	2
 2922              	.L114:
 2923 012c 10000240 		.word	1073872912
 2924 0130 28000240 		.word	1073872936
 2925 0134 40000240 		.word	1073872960
 2926 0138 58000240 		.word	1073872984
 2927 013c 70000240 		.word	1073873008
 2928 0140 88000240 		.word	1073873032
 2929 0144 A0000240 		.word	1073873056
 2930 0148 B8000240 		.word	1073873080
 2931 014c 10040240 		.word	1073873936
 2932 0150 28040240 		.word	1073873960
 2933 0154 40040240 		.word	1073873984
 2934 0158 58040240 		.word	1073874008
 2935 015c 70040240 		.word	1073874032
 2936 0160 88040240 		.word	1073874056
 2937 0164 A0040240 		.word	1073874080
 2938 0168 B8040240 		.word	1073874104
 2939              		.cfi_endproc
 2940              	.LFE339:
 2942              		.text
 2943              	.Letext0:
 2944              		.file 2 "/usr/lib/gcc/arm-none-eabi/9.2.1/include/stdint.h"
 2945              		.file 3 "./Libraries/CMSIS/Core/Include/core_cm7.h"
 2946              		.file 4 "./Libraries/CMSIS/Device/ST/STM32H7xx/Include/system_stm32h7xx.h"
 2947              		.file 5 "./Libraries/CMSIS/Device/ST/STM32H7xx/Include/stm32h747xx.h"
ARM GAS  /tmp/cc9oZLZ6.s 			page 65


 2948              		.file 6 "./Libraries/CMSIS/Device/ST/STM32H7xx/Include/stm32h7xx.h"
 2949              		.file 7 "/usr/lib/gcc/arm-none-eabi/9.2.1/include/stddef.h"
 2950              		.file 8 "/usr/include/newlib/sys/_types.h"
 2951              		.file 9 "/usr/include/newlib/sys/reent.h"
 2952              		.file 10 "/usr/include/newlib/sys/lock.h"
 2953              		.file 11 "/usr/include/newlib/math.h"
 2954              		.file 12 "./Libraries/STM32H7xx_HAL_Driver/Inc/stm32h7xx_hal_def.h"
 2955              		.file 13 "./Libraries/STM32H7xx_HAL_Driver/Inc/stm32h7xx_hal_dma.h"
 2956              		.file 14 "./Libraries/STM32H7xx_HAL_Driver/Inc/stm32h7xx_hal_dma_ex.h"
 2957              		.file 15 "./Libraries/STM32H7xx_HAL_Driver/Inc/stm32h7xx_hal_flash.h"
 2958              		.file 16 "./Libraries/STM32H7xx_HAL_Driver/Inc/stm32h7xx_hal_uart.h"
 2959              		.file 17 "./Libraries/STM32H7xx_HAL_Driver/Inc/stm32h7xx_hal.h"
ARM GAS  /tmp/cc9oZLZ6.s 			page 66

