ARM GAS  /tmp/ccPqq78O.s 			page 1


   1              		.cpu cortex-m7
   2              		.eabi_attribute 28, 1
   3              		.eabi_attribute 20, 1
   4              		.eabi_attribute 21, 1
   5              		.eabi_attribute 23, 3
   6              		.eabi_attribute 24, 1
   7              		.eabi_attribute 25, 1
   8              		.eabi_attribute 26, 1
   9              		.eabi_attribute 30, 6
  10              		.eabi_attribute 34, 1
  11              		.eabi_attribute 18, 4
  12              		.file	"stm32h7xx_hal_ltdc_ex.c"
  13              		.text
  14              	.Ltext0:
  15              		.cfi_sections	.debug_frame
  16              		.section	.text.HAL_LTDCEx_StructInitFromVideoConfig,"ax",%progbits
  17              		.align	1
  18              		.global	HAL_LTDCEx_StructInitFromVideoConfig
  19              		.arch armv7e-m
  20              		.syntax unified
  21              		.thumb
  22              		.thumb_func
  23              		.fpu fpv5-d16
  25              	HAL_LTDCEx_StructInitFromVideoConfig:
  26              	.LFB331:
  27              		.file 1 "./Libraries/STM32H7xx_HAL_Driver/Src/stm32h7xx_hal_ltdc_ex.c"
   1:./Libraries/STM32H7xx_HAL_Driver/Src/stm32h7xx_hal_ltdc_ex.c **** /**
   2:./Libraries/STM32H7xx_HAL_Driver/Src/stm32h7xx_hal_ltdc_ex.c ****   ******************************************************************************
   3:./Libraries/STM32H7xx_HAL_Driver/Src/stm32h7xx_hal_ltdc_ex.c ****   * @file    stm32h7xx_hal_ltdc_ex.c
   4:./Libraries/STM32H7xx_HAL_Driver/Src/stm32h7xx_hal_ltdc_ex.c ****   * @author  MCD Application Team
   5:./Libraries/STM32H7xx_HAL_Driver/Src/stm32h7xx_hal_ltdc_ex.c ****   * @brief   LTDC Extension HAL module driver.
   6:./Libraries/STM32H7xx_HAL_Driver/Src/stm32h7xx_hal_ltdc_ex.c ****   ******************************************************************************
   7:./Libraries/STM32H7xx_HAL_Driver/Src/stm32h7xx_hal_ltdc_ex.c ****   * @attention
   8:./Libraries/STM32H7xx_HAL_Driver/Src/stm32h7xx_hal_ltdc_ex.c ****   *
   9:./Libraries/STM32H7xx_HAL_Driver/Src/stm32h7xx_hal_ltdc_ex.c ****   * <h2><center>&copy; Copyright (c) 2017 STMicroelectronics.
  10:./Libraries/STM32H7xx_HAL_Driver/Src/stm32h7xx_hal_ltdc_ex.c ****   * All rights reserved.</center></h2>
  11:./Libraries/STM32H7xx_HAL_Driver/Src/stm32h7xx_hal_ltdc_ex.c ****   *
  12:./Libraries/STM32H7xx_HAL_Driver/Src/stm32h7xx_hal_ltdc_ex.c ****   * This software component is licensed by ST under BSD 3-Clause license,
  13:./Libraries/STM32H7xx_HAL_Driver/Src/stm32h7xx_hal_ltdc_ex.c ****   * the "License"; You may not use this file except in compliance with the
  14:./Libraries/STM32H7xx_HAL_Driver/Src/stm32h7xx_hal_ltdc_ex.c ****   * License. You may obtain a copy of the License at:
  15:./Libraries/STM32H7xx_HAL_Driver/Src/stm32h7xx_hal_ltdc_ex.c ****   *                        opensource.org/licenses/BSD-3-Clause
  16:./Libraries/STM32H7xx_HAL_Driver/Src/stm32h7xx_hal_ltdc_ex.c ****   *
  17:./Libraries/STM32H7xx_HAL_Driver/Src/stm32h7xx_hal_ltdc_ex.c ****   ******************************************************************************
  18:./Libraries/STM32H7xx_HAL_Driver/Src/stm32h7xx_hal_ltdc_ex.c ****   */
  19:./Libraries/STM32H7xx_HAL_Driver/Src/stm32h7xx_hal_ltdc_ex.c **** 
  20:./Libraries/STM32H7xx_HAL_Driver/Src/stm32h7xx_hal_ltdc_ex.c **** /* Includes ------------------------------------------------------------------*/
  21:./Libraries/STM32H7xx_HAL_Driver/Src/stm32h7xx_hal_ltdc_ex.c **** #include "stm32h7xx_hal.h"
  22:./Libraries/STM32H7xx_HAL_Driver/Src/stm32h7xx_hal_ltdc_ex.c **** 
  23:./Libraries/STM32H7xx_HAL_Driver/Src/stm32h7xx_hal_ltdc_ex.c **** /** @addtogroup STM32H7xx_HAL_Driver
  24:./Libraries/STM32H7xx_HAL_Driver/Src/stm32h7xx_hal_ltdc_ex.c ****   * @{
  25:./Libraries/STM32H7xx_HAL_Driver/Src/stm32h7xx_hal_ltdc_ex.c ****   */
  26:./Libraries/STM32H7xx_HAL_Driver/Src/stm32h7xx_hal_ltdc_ex.c **** 
  27:./Libraries/STM32H7xx_HAL_Driver/Src/stm32h7xx_hal_ltdc_ex.c **** #if defined(HAL_LTDC_MODULE_ENABLED) && defined(HAL_DSI_MODULE_ENABLED)
  28:./Libraries/STM32H7xx_HAL_Driver/Src/stm32h7xx_hal_ltdc_ex.c **** 
  29:./Libraries/STM32H7xx_HAL_Driver/Src/stm32h7xx_hal_ltdc_ex.c **** #if defined (LTDC) && defined (DSI)
  30:./Libraries/STM32H7xx_HAL_Driver/Src/stm32h7xx_hal_ltdc_ex.c **** 
  31:./Libraries/STM32H7xx_HAL_Driver/Src/stm32h7xx_hal_ltdc_ex.c **** /** @defgroup LTDCEx LTDCEx
ARM GAS  /tmp/ccPqq78O.s 			page 2


  32:./Libraries/STM32H7xx_HAL_Driver/Src/stm32h7xx_hal_ltdc_ex.c ****   * @brief LTDC HAL module driver
  33:./Libraries/STM32H7xx_HAL_Driver/Src/stm32h7xx_hal_ltdc_ex.c ****   * @{
  34:./Libraries/STM32H7xx_HAL_Driver/Src/stm32h7xx_hal_ltdc_ex.c ****   */
  35:./Libraries/STM32H7xx_HAL_Driver/Src/stm32h7xx_hal_ltdc_ex.c **** 
  36:./Libraries/STM32H7xx_HAL_Driver/Src/stm32h7xx_hal_ltdc_ex.c **** /* Private typedef -----------------------------------------------------------*/
  37:./Libraries/STM32H7xx_HAL_Driver/Src/stm32h7xx_hal_ltdc_ex.c **** /* Private define ------------------------------------------------------------*/
  38:./Libraries/STM32H7xx_HAL_Driver/Src/stm32h7xx_hal_ltdc_ex.c **** /* Private macro -------------------------------------------------------------*/
  39:./Libraries/STM32H7xx_HAL_Driver/Src/stm32h7xx_hal_ltdc_ex.c **** /* Private variables ---------------------------------------------------------*/
  40:./Libraries/STM32H7xx_HAL_Driver/Src/stm32h7xx_hal_ltdc_ex.c **** /* Private function prototypes -----------------------------------------------*/
  41:./Libraries/STM32H7xx_HAL_Driver/Src/stm32h7xx_hal_ltdc_ex.c **** /* Exported functions --------------------------------------------------------*/
  42:./Libraries/STM32H7xx_HAL_Driver/Src/stm32h7xx_hal_ltdc_ex.c **** 
  43:./Libraries/STM32H7xx_HAL_Driver/Src/stm32h7xx_hal_ltdc_ex.c **** /** @defgroup LTDCEx_Exported_Functions LTDC Extended Exported Functions
  44:./Libraries/STM32H7xx_HAL_Driver/Src/stm32h7xx_hal_ltdc_ex.c ****   * @{
  45:./Libraries/STM32H7xx_HAL_Driver/Src/stm32h7xx_hal_ltdc_ex.c ****   */
  46:./Libraries/STM32H7xx_HAL_Driver/Src/stm32h7xx_hal_ltdc_ex.c **** 
  47:./Libraries/STM32H7xx_HAL_Driver/Src/stm32h7xx_hal_ltdc_ex.c **** /** @defgroup LTDCEx_Exported_Functions_Group1 Initialization and Configuration functions
  48:./Libraries/STM32H7xx_HAL_Driver/Src/stm32h7xx_hal_ltdc_ex.c ****   *  @brief   Initialization and Configuration functions
  49:./Libraries/STM32H7xx_HAL_Driver/Src/stm32h7xx_hal_ltdc_ex.c ****   *
  50:./Libraries/STM32H7xx_HAL_Driver/Src/stm32h7xx_hal_ltdc_ex.c **** @verbatim
  51:./Libraries/STM32H7xx_HAL_Driver/Src/stm32h7xx_hal_ltdc_ex.c ****  ===============================================================================
  52:./Libraries/STM32H7xx_HAL_Driver/Src/stm32h7xx_hal_ltdc_ex.c ****                 ##### Initialization and Configuration functions #####
  53:./Libraries/STM32H7xx_HAL_Driver/Src/stm32h7xx_hal_ltdc_ex.c ****  ===============================================================================
  54:./Libraries/STM32H7xx_HAL_Driver/Src/stm32h7xx_hal_ltdc_ex.c ****     [..]  This section provides functions allowing to:
  55:./Libraries/STM32H7xx_HAL_Driver/Src/stm32h7xx_hal_ltdc_ex.c ****       (+) Initialize and configure the LTDC
  56:./Libraries/STM32H7xx_HAL_Driver/Src/stm32h7xx_hal_ltdc_ex.c **** 
  57:./Libraries/STM32H7xx_HAL_Driver/Src/stm32h7xx_hal_ltdc_ex.c **** @endverbatim
  58:./Libraries/STM32H7xx_HAL_Driver/Src/stm32h7xx_hal_ltdc_ex.c ****   * @{
  59:./Libraries/STM32H7xx_HAL_Driver/Src/stm32h7xx_hal_ltdc_ex.c ****   */
  60:./Libraries/STM32H7xx_HAL_Driver/Src/stm32h7xx_hal_ltdc_ex.c **** 
  61:./Libraries/STM32H7xx_HAL_Driver/Src/stm32h7xx_hal_ltdc_ex.c **** /**
  62:./Libraries/STM32H7xx_HAL_Driver/Src/stm32h7xx_hal_ltdc_ex.c ****   * @brief  Retrieve common parameters from DSI Video mode configuration structure
  63:./Libraries/STM32H7xx_HAL_Driver/Src/stm32h7xx_hal_ltdc_ex.c ****   * @param  hltdc   pointer to a LTDC_HandleTypeDef structure that contains
  64:./Libraries/STM32H7xx_HAL_Driver/Src/stm32h7xx_hal_ltdc_ex.c ****   *                 the configuration information for the LTDC.
  65:./Libraries/STM32H7xx_HAL_Driver/Src/stm32h7xx_hal_ltdc_ex.c ****   * @param  VidCfg  pointer to a DSI_VidCfgTypeDef structure that contains
  66:./Libraries/STM32H7xx_HAL_Driver/Src/stm32h7xx_hal_ltdc_ex.c ****   *                 the DSI video mode configuration parameters
  67:./Libraries/STM32H7xx_HAL_Driver/Src/stm32h7xx_hal_ltdc_ex.c ****   * @note   The implementation of this function is taking into account the LTDC
  68:./Libraries/STM32H7xx_HAL_Driver/Src/stm32h7xx_hal_ltdc_ex.c ****   *         polarities inversion as described in the current LTDC specification
  69:./Libraries/STM32H7xx_HAL_Driver/Src/stm32h7xx_hal_ltdc_ex.c ****   * @retval HAL status
  70:./Libraries/STM32H7xx_HAL_Driver/Src/stm32h7xx_hal_ltdc_ex.c ****   */
  71:./Libraries/STM32H7xx_HAL_Driver/Src/stm32h7xx_hal_ltdc_ex.c **** HAL_StatusTypeDef HAL_LTDCEx_StructInitFromVideoConfig(LTDC_HandleTypeDef *hltdc, DSI_VidCfgTypeDef
  72:./Libraries/STM32H7xx_HAL_Driver/Src/stm32h7xx_hal_ltdc_ex.c **** {
  28              		.loc 1 72 1
  29              		.cfi_startproc
  30              		@ args = 0, pretend = 0, frame = 8
  31              		@ frame_needed = 1, uses_anonymous_args = 0
  32              		@ link register save eliminated.
  33 0000 80B4     		push	{r7}
  34              	.LCFI0:
  35              		.cfi_def_cfa_offset 4
  36              		.cfi_offset 7, -4
  37 0002 83B0     		sub	sp, sp, #12
  38              	.LCFI1:
  39              		.cfi_def_cfa_offset 16
  40 0004 00AF     		add	r7, sp, #0
  41              	.LCFI2:
  42              		.cfi_def_cfa_register 7
  43 0006 7860     		str	r0, [r7, #4]
ARM GAS  /tmp/ccPqq78O.s 			page 3


  44 0008 3960     		str	r1, [r7]
  73:./Libraries/STM32H7xx_HAL_Driver/Src/stm32h7xx_hal_ltdc_ex.c ****   /* Retrieve signal polarities from DSI */
  74:./Libraries/STM32H7xx_HAL_Driver/Src/stm32h7xx_hal_ltdc_ex.c **** 
  75:./Libraries/STM32H7xx_HAL_Driver/Src/stm32h7xx_hal_ltdc_ex.c ****   /* The following polarity is inverted:
  76:./Libraries/STM32H7xx_HAL_Driver/Src/stm32h7xx_hal_ltdc_ex.c ****                      LTDC_DEPOLARITY_AL <-> LTDC_DEPOLARITY_AH */
  77:./Libraries/STM32H7xx_HAL_Driver/Src/stm32h7xx_hal_ltdc_ex.c **** 
  78:./Libraries/STM32H7xx_HAL_Driver/Src/stm32h7xx_hal_ltdc_ex.c ****   /* Note 1 : Code in line w/ Current LTDC specification */
  79:./Libraries/STM32H7xx_HAL_Driver/Src/stm32h7xx_hal_ltdc_ex.c ****   hltdc->Init.DEPolarity = (VidCfg->DEPolarity == DSI_DATA_ENABLE_ACTIVE_HIGH) ? LTDC_DEPOLARITY_AL
  45              		.loc 1 79 35
  46 000a 3B68     		ldr	r3, [r7]
  47 000c 5B6A     		ldr	r3, [r3, #36]
  48              		.loc 1 79 101
  49 000e 002B     		cmp	r3, #0
  50 0010 01D1     		bne	.L2
  51              		.loc 1 79 101 is_stmt 0 discriminator 1
  52 0012 0022     		movs	r2, #0
  53 0014 01E0     		b	.L3
  54              	.L2:
  55              		.loc 1 79 101 discriminator 2
  56 0016 4FF00052 		mov	r2, #536870912
  57              	.L3:
  58              		.loc 1 79 26 is_stmt 1 discriminator 4
  59 001a 7B68     		ldr	r3, [r7, #4]
  60 001c DA60     		str	r2, [r3, #12]
  80:./Libraries/STM32H7xx_HAL_Driver/Src/stm32h7xx_hal_ltdc_ex.c ****   hltdc->Init.VSPolarity = (VidCfg->VSPolarity == DSI_VSYNC_ACTIVE_HIGH) ? LTDC_VSPOLARITY_AH : LTD
  61              		.loc 1 80 35 discriminator 4
  62 001e 3B68     		ldr	r3, [r7]
  63 0020 1B6A     		ldr	r3, [r3, #32]
  64              		.loc 1 80 95 discriminator 4
  65 0022 002B     		cmp	r3, #0
  66 0024 02D1     		bne	.L4
  67              		.loc 1 80 95 is_stmt 0 discriminator 1
  68 0026 4FF08042 		mov	r2, #1073741824
  69 002a 00E0     		b	.L5
  70              	.L4:
  71              		.loc 1 80 95 discriminator 2
  72 002c 0022     		movs	r2, #0
  73              	.L5:
  74              		.loc 1 80 26 is_stmt 1 discriminator 4
  75 002e 7B68     		ldr	r3, [r7, #4]
  76 0030 9A60     		str	r2, [r3, #8]
  81:./Libraries/STM32H7xx_HAL_Driver/Src/stm32h7xx_hal_ltdc_ex.c ****   hltdc->Init.HSPolarity = (VidCfg->HSPolarity == DSI_HSYNC_ACTIVE_HIGH) ? LTDC_HSPOLARITY_AH : LTD
  77              		.loc 1 81 35 discriminator 4
  78 0032 3B68     		ldr	r3, [r7]
  79 0034 DB69     		ldr	r3, [r3, #28]
  80              		.loc 1 81 95 discriminator 4
  81 0036 002B     		cmp	r3, #0
  82 0038 02D1     		bne	.L6
  83              		.loc 1 81 95 is_stmt 0 discriminator 1
  84 003a 4FF00042 		mov	r2, #-2147483648
  85 003e 00E0     		b	.L7
  86              	.L6:
  87              		.loc 1 81 95 discriminator 2
  88 0040 0022     		movs	r2, #0
  89              	.L7:
  90              		.loc 1 81 26 is_stmt 1 discriminator 4
  91 0042 7B68     		ldr	r3, [r7, #4]
ARM GAS  /tmp/ccPqq78O.s 			page 4


  92 0044 5A60     		str	r2, [r3, #4]
  82:./Libraries/STM32H7xx_HAL_Driver/Src/stm32h7xx_hal_ltdc_ex.c **** 
  83:./Libraries/STM32H7xx_HAL_Driver/Src/stm32h7xx_hal_ltdc_ex.c ****   /* Note 2: Code to be used in case LTDC polarities inversion updated in the specification */
  84:./Libraries/STM32H7xx_HAL_Driver/Src/stm32h7xx_hal_ltdc_ex.c ****   /* hltdc->Init.DEPolarity = VidCfg->DEPolarity << 29;
  85:./Libraries/STM32H7xx_HAL_Driver/Src/stm32h7xx_hal_ltdc_ex.c ****      hltdc->Init.VSPolarity = VidCfg->VSPolarity << 29;
  86:./Libraries/STM32H7xx_HAL_Driver/Src/stm32h7xx_hal_ltdc_ex.c ****      hltdc->Init.HSPolarity = VidCfg->HSPolarity << 29; */
  87:./Libraries/STM32H7xx_HAL_Driver/Src/stm32h7xx_hal_ltdc_ex.c **** 
  88:./Libraries/STM32H7xx_HAL_Driver/Src/stm32h7xx_hal_ltdc_ex.c ****   /* Retrieve vertical timing parameters from DSI */
  89:./Libraries/STM32H7xx_HAL_Driver/Src/stm32h7xx_hal_ltdc_ex.c ****   hltdc->Init.VerticalSync       = VidCfg->VerticalSyncActive - 1U;
  93              		.loc 1 89 42 discriminator 4
  94 0046 3B68     		ldr	r3, [r7]
  95 0048 5B6B     		ldr	r3, [r3, #52]
  96              		.loc 1 89 63 discriminator 4
  97 004a 5A1E     		subs	r2, r3, #1
  98              		.loc 1 89 34 discriminator 4
  99 004c 7B68     		ldr	r3, [r7, #4]
 100 004e 9A61     		str	r2, [r3, #24]
  90:./Libraries/STM32H7xx_HAL_Driver/Src/stm32h7xx_hal_ltdc_ex.c ****   hltdc->Init.AccumulatedVBP     = VidCfg->VerticalSyncActive + VidCfg->VerticalBackPorch - 1U;
 101              		.loc 1 90 42 discriminator 4
 102 0050 3B68     		ldr	r3, [r7]
 103 0052 5A6B     		ldr	r2, [r3, #52]
 104              		.loc 1 90 71 discriminator 4
 105 0054 3B68     		ldr	r3, [r7]
 106 0056 9B6B     		ldr	r3, [r3, #56]
 107              		.loc 1 90 63 discriminator 4
 108 0058 1344     		add	r3, r3, r2
 109              		.loc 1 90 91 discriminator 4
 110 005a 5A1E     		subs	r2, r3, #1
 111              		.loc 1 90 34 discriminator 4
 112 005c 7B68     		ldr	r3, [r7, #4]
 113 005e 1A62     		str	r2, [r3, #32]
  91:./Libraries/STM32H7xx_HAL_Driver/Src/stm32h7xx_hal_ltdc_ex.c ****   hltdc->Init.AccumulatedActiveH = VidCfg->VerticalSyncActive + VidCfg->VerticalBackPorch + VidCfg-
 114              		.loc 1 91 42 discriminator 4
 115 0060 3B68     		ldr	r3, [r7]
 116 0062 5A6B     		ldr	r2, [r3, #52]
 117              		.loc 1 91 71 discriminator 4
 118 0064 3B68     		ldr	r3, [r7]
 119 0066 9B6B     		ldr	r3, [r3, #56]
 120              		.loc 1 91 63 discriminator 4
 121 0068 1A44     		add	r2, r2, r3
 122              		.loc 1 91 99 discriminator 4
 123 006a 3B68     		ldr	r3, [r7]
 124 006c 1B6C     		ldr	r3, [r3, #64]
 125              		.loc 1 91 91 discriminator 4
 126 006e 1344     		add	r3, r3, r2
 127              		.loc 1 91 116 discriminator 4
 128 0070 5A1E     		subs	r2, r3, #1
 129              		.loc 1 91 34 discriminator 4
 130 0072 7B68     		ldr	r3, [r7, #4]
 131 0074 9A62     		str	r2, [r3, #40]
  92:./Libraries/STM32H7xx_HAL_Driver/Src/stm32h7xx_hal_ltdc_ex.c ****   hltdc->Init.TotalHeigh         = VidCfg->VerticalSyncActive + VidCfg->VerticalBackPorch + VidCfg-
 132              		.loc 1 92 42 discriminator 4
 133 0076 3B68     		ldr	r3, [r7]
 134 0078 5A6B     		ldr	r2, [r3, #52]
 135              		.loc 1 92 71 discriminator 4
 136 007a 3B68     		ldr	r3, [r7]
 137 007c 9B6B     		ldr	r3, [r3, #56]
ARM GAS  /tmp/ccPqq78O.s 			page 5


 138              		.loc 1 92 63 discriminator 4
 139 007e 1A44     		add	r2, r2, r3
 140              		.loc 1 92 99 discriminator 4
 141 0080 3B68     		ldr	r3, [r7]
 142 0082 1B6C     		ldr	r3, [r3, #64]
 143              		.loc 1 92 91 discriminator 4
 144 0084 1A44     		add	r2, r2, r3
 145              		.loc 1 92 124 discriminator 4
 146 0086 3B68     		ldr	r3, [r7]
 147 0088 DB6B     		ldr	r3, [r3, #60]
 148              		.loc 1 92 116 discriminator 4
 149 008a 1344     		add	r3, r3, r2
 150              		.loc 1 92 145 discriminator 4
 151 008c 5A1E     		subs	r2, r3, #1
 152              		.loc 1 92 34 discriminator 4
 153 008e 7B68     		ldr	r3, [r7, #4]
 154 0090 1A63     		str	r2, [r3, #48]
  93:./Libraries/STM32H7xx_HAL_Driver/Src/stm32h7xx_hal_ltdc_ex.c **** 
  94:./Libraries/STM32H7xx_HAL_Driver/Src/stm32h7xx_hal_ltdc_ex.c ****   return HAL_OK;
 155              		.loc 1 94 10 discriminator 4
 156 0092 0023     		movs	r3, #0
  95:./Libraries/STM32H7xx_HAL_Driver/Src/stm32h7xx_hal_ltdc_ex.c **** }
 157              		.loc 1 95 1 discriminator 4
 158 0094 1846     		mov	r0, r3
 159 0096 0C37     		adds	r7, r7, #12
 160              	.LCFI3:
 161              		.cfi_def_cfa_offset 4
 162 0098 BD46     		mov	sp, r7
 163              	.LCFI4:
 164              		.cfi_def_cfa_register 13
 165              		@ sp needed
 166 009a 5DF8047B 		ldr	r7, [sp], #4
 167              	.LCFI5:
 168              		.cfi_restore 7
 169              		.cfi_def_cfa_offset 0
 170 009e 7047     		bx	lr
 171              		.cfi_endproc
 172              	.LFE331:
 174              		.section	.text.HAL_LTDCEx_StructInitFromAdaptedCommandConfig,"ax",%progbits
 175              		.align	1
 176              		.global	HAL_LTDCEx_StructInitFromAdaptedCommandConfig
 177              		.syntax unified
 178              		.thumb
 179              		.thumb_func
 180              		.fpu fpv5-d16
 182              	HAL_LTDCEx_StructInitFromAdaptedCommandConfig:
 183              	.LFB332:
  96:./Libraries/STM32H7xx_HAL_Driver/Src/stm32h7xx_hal_ltdc_ex.c **** 
  97:./Libraries/STM32H7xx_HAL_Driver/Src/stm32h7xx_hal_ltdc_ex.c **** /**
  98:./Libraries/STM32H7xx_HAL_Driver/Src/stm32h7xx_hal_ltdc_ex.c ****   * @brief  Retrieve common parameters from DSI Adapted command mode configuration structure
  99:./Libraries/STM32H7xx_HAL_Driver/Src/stm32h7xx_hal_ltdc_ex.c ****   * @param  hltdc   pointer to a LTDC_HandleTypeDef structure that contains
 100:./Libraries/STM32H7xx_HAL_Driver/Src/stm32h7xx_hal_ltdc_ex.c ****   *                 the configuration information for the LTDC.
 101:./Libraries/STM32H7xx_HAL_Driver/Src/stm32h7xx_hal_ltdc_ex.c ****   * @param  CmdCfg  pointer to a DSI_CmdCfgTypeDef structure that contains
 102:./Libraries/STM32H7xx_HAL_Driver/Src/stm32h7xx_hal_ltdc_ex.c ****   *                 the DSI command mode configuration parameters
 103:./Libraries/STM32H7xx_HAL_Driver/Src/stm32h7xx_hal_ltdc_ex.c ****   * @note   The implementation of this function is taking into account the LTDC
 104:./Libraries/STM32H7xx_HAL_Driver/Src/stm32h7xx_hal_ltdc_ex.c ****   *         polarities inversion as described in the current LTDC specification
 105:./Libraries/STM32H7xx_HAL_Driver/Src/stm32h7xx_hal_ltdc_ex.c ****   * @retval HAL status
ARM GAS  /tmp/ccPqq78O.s 			page 6


 106:./Libraries/STM32H7xx_HAL_Driver/Src/stm32h7xx_hal_ltdc_ex.c ****   */
 107:./Libraries/STM32H7xx_HAL_Driver/Src/stm32h7xx_hal_ltdc_ex.c **** HAL_StatusTypeDef HAL_LTDCEx_StructInitFromAdaptedCommandConfig(LTDC_HandleTypeDef *hltdc, DSI_CmdC
 108:./Libraries/STM32H7xx_HAL_Driver/Src/stm32h7xx_hal_ltdc_ex.c **** {
 184              		.loc 1 108 1
 185              		.cfi_startproc
 186              		@ args = 0, pretend = 0, frame = 8
 187              		@ frame_needed = 1, uses_anonymous_args = 0
 188              		@ link register save eliminated.
 189 0000 80B4     		push	{r7}
 190              	.LCFI6:
 191              		.cfi_def_cfa_offset 4
 192              		.cfi_offset 7, -4
 193 0002 83B0     		sub	sp, sp, #12
 194              	.LCFI7:
 195              		.cfi_def_cfa_offset 16
 196 0004 00AF     		add	r7, sp, #0
 197              	.LCFI8:
 198              		.cfi_def_cfa_register 7
 199 0006 7860     		str	r0, [r7, #4]
 200 0008 3960     		str	r1, [r7]
 109:./Libraries/STM32H7xx_HAL_Driver/Src/stm32h7xx_hal_ltdc_ex.c ****   /* Retrieve signal polarities from DSI */
 110:./Libraries/STM32H7xx_HAL_Driver/Src/stm32h7xx_hal_ltdc_ex.c **** 
 111:./Libraries/STM32H7xx_HAL_Driver/Src/stm32h7xx_hal_ltdc_ex.c ****   /* The following polarities are inverted:
 112:./Libraries/STM32H7xx_HAL_Driver/Src/stm32h7xx_hal_ltdc_ex.c ****                      LTDC_DEPOLARITY_AL <-> LTDC_DEPOLARITY_AH
 113:./Libraries/STM32H7xx_HAL_Driver/Src/stm32h7xx_hal_ltdc_ex.c ****                      LTDC_VSPOLARITY_AL <-> LTDC_VSPOLARITY_AH
 114:./Libraries/STM32H7xx_HAL_Driver/Src/stm32h7xx_hal_ltdc_ex.c ****                      LTDC_HSPOLARITY_AL <-> LTDC_HSPOLARITY_AH)*/
 115:./Libraries/STM32H7xx_HAL_Driver/Src/stm32h7xx_hal_ltdc_ex.c **** 
 116:./Libraries/STM32H7xx_HAL_Driver/Src/stm32h7xx_hal_ltdc_ex.c ****   /* Note 1 : Code in line w/ Current LTDC specification */
 117:./Libraries/STM32H7xx_HAL_Driver/Src/stm32h7xx_hal_ltdc_ex.c ****   hltdc->Init.DEPolarity = (CmdCfg->DEPolarity == DSI_DATA_ENABLE_ACTIVE_HIGH) ? LTDC_DEPOLARITY_AL
 201              		.loc 1 117 35
 202 000a 3B68     		ldr	r3, [r7]
 203 000c DB69     		ldr	r3, [r3, #28]
 204              		.loc 1 117 101
 205 000e 002B     		cmp	r3, #0
 206 0010 01D1     		bne	.L10
 207              		.loc 1 117 101 is_stmt 0 discriminator 1
 208 0012 0022     		movs	r2, #0
 209 0014 01E0     		b	.L11
 210              	.L10:
 211              		.loc 1 117 101 discriminator 2
 212 0016 4FF00052 		mov	r2, #536870912
 213              	.L11:
 214              		.loc 1 117 26 is_stmt 1 discriminator 4
 215 001a 7B68     		ldr	r3, [r7, #4]
 216 001c DA60     		str	r2, [r3, #12]
 118:./Libraries/STM32H7xx_HAL_Driver/Src/stm32h7xx_hal_ltdc_ex.c ****   hltdc->Init.VSPolarity = (CmdCfg->VSPolarity == DSI_VSYNC_ACTIVE_HIGH) ? LTDC_VSPOLARITY_AL : LTD
 217              		.loc 1 118 35 discriminator 4
 218 001e 3B68     		ldr	r3, [r7]
 219 0020 9B69     		ldr	r3, [r3, #24]
 220              		.loc 1 118 95 discriminator 4
 221 0022 002B     		cmp	r3, #0
 222 0024 01D1     		bne	.L12
 223              		.loc 1 118 95 is_stmt 0 discriminator 1
 224 0026 0022     		movs	r2, #0
 225 0028 01E0     		b	.L13
 226              	.L12:
 227              		.loc 1 118 95 discriminator 2
ARM GAS  /tmp/ccPqq78O.s 			page 7


 228 002a 4FF08042 		mov	r2, #1073741824
 229              	.L13:
 230              		.loc 1 118 26 is_stmt 1 discriminator 4
 231 002e 7B68     		ldr	r3, [r7, #4]
 232 0030 9A60     		str	r2, [r3, #8]
 119:./Libraries/STM32H7xx_HAL_Driver/Src/stm32h7xx_hal_ltdc_ex.c ****   hltdc->Init.HSPolarity = (CmdCfg->HSPolarity == DSI_HSYNC_ACTIVE_HIGH) ? LTDC_HSPOLARITY_AL : LTD
 233              		.loc 1 119 35 discriminator 4
 234 0032 3B68     		ldr	r3, [r7]
 235 0034 5B69     		ldr	r3, [r3, #20]
 236              		.loc 1 119 95 discriminator 4
 237 0036 002B     		cmp	r3, #0
 238 0038 01D1     		bne	.L14
 239              		.loc 1 119 95 is_stmt 0 discriminator 1
 240 003a 0022     		movs	r2, #0
 241 003c 01E0     		b	.L15
 242              	.L14:
 243              		.loc 1 119 95 discriminator 2
 244 003e 4FF00042 		mov	r2, #-2147483648
 245              	.L15:
 246              		.loc 1 119 26 is_stmt 1 discriminator 4
 247 0042 7B68     		ldr	r3, [r7, #4]
 248 0044 5A60     		str	r2, [r3, #4]
 120:./Libraries/STM32H7xx_HAL_Driver/Src/stm32h7xx_hal_ltdc_ex.c **** 
 121:./Libraries/STM32H7xx_HAL_Driver/Src/stm32h7xx_hal_ltdc_ex.c ****   /* Note 2: Code to be used in case LTDC polarities inversion updated in the specification */
 122:./Libraries/STM32H7xx_HAL_Driver/Src/stm32h7xx_hal_ltdc_ex.c ****   /* hltdc->Init.DEPolarity = CmdCfg->DEPolarity << 29;
 123:./Libraries/STM32H7xx_HAL_Driver/Src/stm32h7xx_hal_ltdc_ex.c ****      hltdc->Init.VSPolarity = CmdCfg->VSPolarity << 29;
 124:./Libraries/STM32H7xx_HAL_Driver/Src/stm32h7xx_hal_ltdc_ex.c ****      hltdc->Init.HSPolarity = CmdCfg->HSPolarity << 29; */
 125:./Libraries/STM32H7xx_HAL_Driver/Src/stm32h7xx_hal_ltdc_ex.c **** 
 126:./Libraries/STM32H7xx_HAL_Driver/Src/stm32h7xx_hal_ltdc_ex.c ****   return HAL_OK;
 249              		.loc 1 126 10 discriminator 4
 250 0046 0023     		movs	r3, #0
 127:./Libraries/STM32H7xx_HAL_Driver/Src/stm32h7xx_hal_ltdc_ex.c **** }
 251              		.loc 1 127 1 discriminator 4
 252 0048 1846     		mov	r0, r3
 253 004a 0C37     		adds	r7, r7, #12
 254              	.LCFI9:
 255              		.cfi_def_cfa_offset 4
 256 004c BD46     		mov	sp, r7
 257              	.LCFI10:
 258              		.cfi_def_cfa_register 13
 259              		@ sp needed
 260 004e 5DF8047B 		ldr	r7, [sp], #4
 261              	.LCFI11:
 262              		.cfi_restore 7
 263              		.cfi_def_cfa_offset 0
 264 0052 7047     		bx	lr
 265              		.cfi_endproc
 266              	.LFE332:
 268              		.text
 269              	.Letext0:
 270              		.file 2 "/usr/lib/gcc/arm-none-eabi/9.2.1/include/stdint.h"
 271              		.file 3 "./Libraries/CMSIS/Core/Include/core_cm7.h"
 272              		.file 4 "./Libraries/CMSIS/Device/ST/STM32H7xx/Include/system_stm32h7xx.h"
 273              		.file 5 "./Libraries/CMSIS/Device/ST/STM32H7xx/Include/stm32h747xx.h"
 274              		.file 6 "/usr/lib/gcc/arm-none-eabi/9.2.1/include/stddef.h"
 275              		.file 7 "/usr/include/newlib/sys/_types.h"
 276              		.file 8 "/usr/include/newlib/sys/reent.h"
ARM GAS  /tmp/ccPqq78O.s 			page 8


 277              		.file 9 "/usr/include/newlib/sys/lock.h"
 278              		.file 10 "/usr/include/newlib/math.h"
 279              		.file 11 "./Libraries/STM32H7xx_HAL_Driver/Inc/stm32h7xx_hal_def.h"
 280              		.file 12 "./Libraries/STM32H7xx_HAL_Driver/Inc/stm32h7xx_hal_dsi.h"
 281              		.file 13 "./Libraries/STM32H7xx_HAL_Driver/Inc/stm32h7xx_hal_flash.h"
 282              		.file 14 "./Libraries/STM32H7xx_HAL_Driver/Inc/stm32h7xx_hal_ltdc.h"
 283              		.file 15 "./Libraries/STM32H7xx_HAL_Driver/Inc/stm32h7xx_hal_uart.h"
 284              		.file 16 "./Libraries/STM32H7xx_HAL_Driver/Inc/stm32h7xx_hal.h"
ARM GAS  /tmp/ccPqq78O.s 			page 9

