ARM GAS  /tmp/ccZsyCUo.s 			page 1


   1              		.cpu cortex-m7
   2              		.eabi_attribute 28, 1
   3              		.eabi_attribute 20, 1
   4              		.eabi_attribute 21, 1
   5              		.eabi_attribute 23, 3
   6              		.eabi_attribute 24, 1
   7              		.eabi_attribute 25, 1
   8              		.eabi_attribute 26, 1
   9              		.eabi_attribute 30, 6
  10              		.eabi_attribute 34, 1
  11              		.eabi_attribute 18, 4
  12              		.file	"stm32h7xx_hal_mdma.c"
  13              		.text
  14              	.Ltext0:
  15              		.cfi_sections	.debug_frame
  16              		.section	.text.HAL_MDMA_Init,"ax",%progbits
  17              		.align	1
  18              		.global	HAL_MDMA_Init
  19              		.arch armv7e-m
  20              		.syntax unified
  21              		.thumb
  22              		.thumb_func
  23              		.fpu fpv5-d16
  25              	HAL_MDMA_Init:
  26              	.LFB331:
  27              		.file 1 "./Libraries/STM32H7xx_HAL_Driver/Src/stm32h7xx_hal_mdma.c"
   1:./Libraries/STM32H7xx_HAL_Driver/Src/stm32h7xx_hal_mdma.c **** /**
   2:./Libraries/STM32H7xx_HAL_Driver/Src/stm32h7xx_hal_mdma.c ****   ******************************************************************************
   3:./Libraries/STM32H7xx_HAL_Driver/Src/stm32h7xx_hal_mdma.c ****   * @file    stm32h7xx_hal_mdma.c
   4:./Libraries/STM32H7xx_HAL_Driver/Src/stm32h7xx_hal_mdma.c ****   * @author  MCD Application Team
   5:./Libraries/STM32H7xx_HAL_Driver/Src/stm32h7xx_hal_mdma.c ****   * @brief  This file provides firmware functions to manage the following
   6:./Libraries/STM32H7xx_HAL_Driver/Src/stm32h7xx_hal_mdma.c ****   *         functionalities of the Master Direct Memory Access (MDMA) peripheral:
   7:./Libraries/STM32H7xx_HAL_Driver/Src/stm32h7xx_hal_mdma.c ****   *           + Initialization/de-initialization functions
   8:./Libraries/STM32H7xx_HAL_Driver/Src/stm32h7xx_hal_mdma.c ****   *           + I/O operation functions
   9:./Libraries/STM32H7xx_HAL_Driver/Src/stm32h7xx_hal_mdma.c ****   *           + Peripheral State and errors functions
  10:./Libraries/STM32H7xx_HAL_Driver/Src/stm32h7xx_hal_mdma.c ****   @verbatim
  11:./Libraries/STM32H7xx_HAL_Driver/Src/stm32h7xx_hal_mdma.c ****   ==============================================================================
  12:./Libraries/STM32H7xx_HAL_Driver/Src/stm32h7xx_hal_mdma.c ****                         ##### How to use this driver #####
  13:./Libraries/STM32H7xx_HAL_Driver/Src/stm32h7xx_hal_mdma.c ****   ==============================================================================
  14:./Libraries/STM32H7xx_HAL_Driver/Src/stm32h7xx_hal_mdma.c ****   [..]
  15:./Libraries/STM32H7xx_HAL_Driver/Src/stm32h7xx_hal_mdma.c ****    (#) Enable and configure the peripheral to be connected to the MDMA Channel
  16:./Libraries/STM32H7xx_HAL_Driver/Src/stm32h7xx_hal_mdma.c ****        (except for internal SRAM/FLASH memories: no initialization is
  17:./Libraries/STM32H7xx_HAL_Driver/Src/stm32h7xx_hal_mdma.c ****        necessary) please refer to Reference manual for connection between peripherals
  18:./Libraries/STM32H7xx_HAL_Driver/Src/stm32h7xx_hal_mdma.c ****        and MDMA requests.
  19:./Libraries/STM32H7xx_HAL_Driver/Src/stm32h7xx_hal_mdma.c **** 
  20:./Libraries/STM32H7xx_HAL_Driver/Src/stm32h7xx_hal_mdma.c ****    (#)
  21:./Libraries/STM32H7xx_HAL_Driver/Src/stm32h7xx_hal_mdma.c ****        For a given Channel use HAL_MDMA_Init function to program the required configuration through
  22:./Libraries/STM32H7xx_HAL_Driver/Src/stm32h7xx_hal_mdma.c ****        transfer request , channel priority, data endianness, Source increment, destination incremen
  23:./Libraries/STM32H7xx_HAL_Driver/Src/stm32h7xx_hal_mdma.c ****        source data size, destination data size, data alignment, source Burst, destination Burst ,
  24:./Libraries/STM32H7xx_HAL_Driver/Src/stm32h7xx_hal_mdma.c ****        buffer Transfer Length, Transfer Trigger Mode (buffer transfer, block transfer, repeated blo
  25:./Libraries/STM32H7xx_HAL_Driver/Src/stm32h7xx_hal_mdma.c ****        or full transfer) source and destination block address offset, mask address and data.
  26:./Libraries/STM32H7xx_HAL_Driver/Src/stm32h7xx_hal_mdma.c **** 
  27:./Libraries/STM32H7xx_HAL_Driver/Src/stm32h7xx_hal_mdma.c ****        If using the MDMA in linked list mode then use function HAL_MDMA_LinkedList_CreateNode to fi
  28:./Libraries/STM32H7xx_HAL_Driver/Src/stm32h7xx_hal_mdma.c ****        Note that parameters given to the function HAL_MDMA_Init corresponds always to the node zero
  29:./Libraries/STM32H7xx_HAL_Driver/Src/stm32h7xx_hal_mdma.c ****        Use function HAL_MDMA_LinkedList_AddNode to connect the created node to the linked list at a
  30:./Libraries/STM32H7xx_HAL_Driver/Src/stm32h7xx_hal_mdma.c ****        User can make a linked list circular using function HAL_MDMA_LinkedList_EnableCircularMode ,
  31:./Libraries/STM32H7xx_HAL_Driver/Src/stm32h7xx_hal_mdma.c ****        last node of the list to the first one in order to make the list circular.
ARM GAS  /tmp/ccZsyCUo.s 			page 2


  32:./Libraries/STM32H7xx_HAL_Driver/Src/stm32h7xx_hal_mdma.c ****        In this case the linked list will loop on node 1 : first node connected after the initial tr
  33:./Libraries/STM32H7xx_HAL_Driver/Src/stm32h7xx_hal_mdma.c **** 
  34:./Libraries/STM32H7xx_HAL_Driver/Src/stm32h7xx_hal_mdma.c ****       -@-   The initial transfer itself (node 0 corresponding to the Init).
  35:./Libraries/STM32H7xx_HAL_Driver/Src/stm32h7xx_hal_mdma.c ****             User can disable the circular mode using function HAL_MDMA_LinkedList_DisableCircularMo
  36:./Libraries/STM32H7xx_HAL_Driver/Src/stm32h7xx_hal_mdma.c ****             the connection between last node and first one.
  37:./Libraries/STM32H7xx_HAL_Driver/Src/stm32h7xx_hal_mdma.c **** 
  38:./Libraries/STM32H7xx_HAL_Driver/Src/stm32h7xx_hal_mdma.c ****        Function HAL_MDMA_LinkedList_RemoveNode can be used to remove (disconnect) a node from the t
  39:./Libraries/STM32H7xx_HAL_Driver/Src/stm32h7xx_hal_mdma.c ****        When a linked list is circular (last node connected to first one), if removing node1  (node 
  40:./Libraries/STM32H7xx_HAL_Driver/Src/stm32h7xx_hal_mdma.c ****        the linked list remains circular and node 2 becomes the first one.
  41:./Libraries/STM32H7xx_HAL_Driver/Src/stm32h7xx_hal_mdma.c ****        Note that if the linked list is made circular the transfer will loop infinitely (or until ab
  42:./Libraries/STM32H7xx_HAL_Driver/Src/stm32h7xx_hal_mdma.c **** 
  43:./Libraries/STM32H7xx_HAL_Driver/Src/stm32h7xx_hal_mdma.c ****     [..]
  44:./Libraries/STM32H7xx_HAL_Driver/Src/stm32h7xx_hal_mdma.c ****        (+) User can select the transfer trigger mode (parameter TransferTriggerMode) to define the 
  45:./Libraries/STM32H7xx_HAL_Driver/Src/stm32h7xx_hal_mdma.c ****            transfer upon a request :
  46:./Libraries/STM32H7xx_HAL_Driver/Src/stm32h7xx_hal_mdma.c ****              (++) MDMA_BUFFER_TRANSFER : each request triggers a transfer of BufferTransferLength d
  47:./Libraries/STM32H7xx_HAL_Driver/Src/stm32h7xx_hal_mdma.c ****                with BufferTransferLength defined within the HAL_MDMA_Init.
  48:./Libraries/STM32H7xx_HAL_Driver/Src/stm32h7xx_hal_mdma.c ****              (++) MDMA_BLOCK_TRANSFER : each request triggers a transfer of a block
  49:./Libraries/STM32H7xx_HAL_Driver/Src/stm32h7xx_hal_mdma.c ****                with block size defined within the function HAL_MDMA_Start/HAL_MDMA_Start_IT
  50:./Libraries/STM32H7xx_HAL_Driver/Src/stm32h7xx_hal_mdma.c ****                or within the current linked list node parameters.
  51:./Libraries/STM32H7xx_HAL_Driver/Src/stm32h7xx_hal_mdma.c ****              (++) MDMA_REPEAT_BLOCK_TRANSFER : each request triggers a transfer of a number of bloc
  52:./Libraries/STM32H7xx_HAL_Driver/Src/stm32h7xx_hal_mdma.c ****                with block size and number of blocks defined within the function HAL_MDMA_Start/HAL_
  53:./Libraries/STM32H7xx_HAL_Driver/Src/stm32h7xx_hal_mdma.c ****                or within the current linked list node parameters.
  54:./Libraries/STM32H7xx_HAL_Driver/Src/stm32h7xx_hal_mdma.c ****              (++) MDMA_FULL_TRANSFER : each request triggers a full transfer
  55:./Libraries/STM32H7xx_HAL_Driver/Src/stm32h7xx_hal_mdma.c ****               all blocks and all nodes(if a linked list has been created using HAL_MDMA_LinkedList_
  56:./Libraries/STM32H7xx_HAL_Driver/Src/stm32h7xx_hal_mdma.c **** 
  57:./Libraries/STM32H7xx_HAL_Driver/Src/stm32h7xx_hal_mdma.c ****      *** Polling mode IO operation ***
  58:./Libraries/STM32H7xx_HAL_Driver/Src/stm32h7xx_hal_mdma.c ****      =================================
  59:./Libraries/STM32H7xx_HAL_Driver/Src/stm32h7xx_hal_mdma.c ****     [..]
  60:./Libraries/STM32H7xx_HAL_Driver/Src/stm32h7xx_hal_mdma.c ****           (+) Use HAL_MDMA_Start() to start MDMA transfer after the configuration of Source
  61:./Libraries/STM32H7xx_HAL_Driver/Src/stm32h7xx_hal_mdma.c ****               address and destination address and the Length of data to be transferred.
  62:./Libraries/STM32H7xx_HAL_Driver/Src/stm32h7xx_hal_mdma.c ****           (+) Use HAL_MDMA_PollForTransfer() to poll for the end of current transfer or a transfer 
  63:./Libraries/STM32H7xx_HAL_Driver/Src/stm32h7xx_hal_mdma.c ****              In this case a fixed Timeout can be configured by User depending from his application.
  64:./Libraries/STM32H7xx_HAL_Driver/Src/stm32h7xx_hal_mdma.c ****           (+) Use HAL_MDMA_Abort() function to abort the current transfer : blocking method this AP
  65:./Libraries/STM32H7xx_HAL_Driver/Src/stm32h7xx_hal_mdma.c ****               when the abort ends or timeout (should not be called from an interrupt service routin
  66:./Libraries/STM32H7xx_HAL_Driver/Src/stm32h7xx_hal_mdma.c **** 
  67:./Libraries/STM32H7xx_HAL_Driver/Src/stm32h7xx_hal_mdma.c ****      *** Interrupt mode IO operation ***
  68:./Libraries/STM32H7xx_HAL_Driver/Src/stm32h7xx_hal_mdma.c ****      ===================================
  69:./Libraries/STM32H7xx_HAL_Driver/Src/stm32h7xx_hal_mdma.c ****     [..]
  70:./Libraries/STM32H7xx_HAL_Driver/Src/stm32h7xx_hal_mdma.c ****           (+) Configure the MDMA interrupt priority using HAL_NVIC_SetPriority()
  71:./Libraries/STM32H7xx_HAL_Driver/Src/stm32h7xx_hal_mdma.c ****           (+) Enable the MDMA IRQ handler using HAL_NVIC_EnableIRQ()
  72:./Libraries/STM32H7xx_HAL_Driver/Src/stm32h7xx_hal_mdma.c ****           (+) Use HAL_MDMA_Start_IT() to start MDMA transfer after the configuration of
  73:./Libraries/STM32H7xx_HAL_Driver/Src/stm32h7xx_hal_mdma.c ****               Source address and destination address and the Length of data to be transferred. In t
  74:./Libraries/STM32H7xx_HAL_Driver/Src/stm32h7xx_hal_mdma.c ****               case the MDMA interrupt is configured.
  75:./Libraries/STM32H7xx_HAL_Driver/Src/stm32h7xx_hal_mdma.c ****           (+) Use HAL_MDMA_IRQHandler() called under MDMA_IRQHandler() Interrupt subroutine
  76:./Libraries/STM32H7xx_HAL_Driver/Src/stm32h7xx_hal_mdma.c ****           (+) At the end of data transfer HAL_MDMA_IRQHandler() function is executed and user can
  77:./Libraries/STM32H7xx_HAL_Driver/Src/stm32h7xx_hal_mdma.c ****               add his own function by customization of function pointer XferCpltCallback and
  78:./Libraries/STM32H7xx_HAL_Driver/Src/stm32h7xx_hal_mdma.c ****               XferErrorCallback (i.e a member of MDMA handle structure).
  79:./Libraries/STM32H7xx_HAL_Driver/Src/stm32h7xx_hal_mdma.c **** 
  80:./Libraries/STM32H7xx_HAL_Driver/Src/stm32h7xx_hal_mdma.c ****           (+) Use HAL_MDMA_Abort_IT() function to abort the current transfer : non-blocking method.
  81:./Libraries/STM32H7xx_HAL_Driver/Src/stm32h7xx_hal_mdma.c ****               then the callback XferAbortCallback (if specified  by the user) is asserted once the 
  82:./Libraries/STM32H7xx_HAL_Driver/Src/stm32h7xx_hal_mdma.c ****               (could be called from an interrupt service routine).
  83:./Libraries/STM32H7xx_HAL_Driver/Src/stm32h7xx_hal_mdma.c **** 
  84:./Libraries/STM32H7xx_HAL_Driver/Src/stm32h7xx_hal_mdma.c ****           (+) Use functions HAL_MDMA_RegisterCallback and HAL_MDMA_UnRegisterCallback respectevely 
  85:./Libraries/STM32H7xx_HAL_Driver/Src/stm32h7xx_hal_mdma.c ****               from the following list :
  86:./Libraries/STM32H7xx_HAL_Driver/Src/stm32h7xx_hal_mdma.c ****               (++) XferCpltCallback            : transfer complete callback.
  87:./Libraries/STM32H7xx_HAL_Driver/Src/stm32h7xx_hal_mdma.c ****               (++) XferBufferCpltCallback      : buffer transfer complete callback.
  88:./Libraries/STM32H7xx_HAL_Driver/Src/stm32h7xx_hal_mdma.c ****               (++) XferBlockCpltCallback       : block transfer complete callback.
ARM GAS  /tmp/ccZsyCUo.s 			page 3


  89:./Libraries/STM32H7xx_HAL_Driver/Src/stm32h7xx_hal_mdma.c ****               (++) XferRepeatBlockCpltCallback : repeated block transfer complete callback.
  90:./Libraries/STM32H7xx_HAL_Driver/Src/stm32h7xx_hal_mdma.c ****               (++) XferErrorCallback           : transfer error callback.
  91:./Libraries/STM32H7xx_HAL_Driver/Src/stm32h7xx_hal_mdma.c ****               (++) XferAbortCallback           : transfer abort complete callback.
  92:./Libraries/STM32H7xx_HAL_Driver/Src/stm32h7xx_hal_mdma.c **** 
  93:./Libraries/STM32H7xx_HAL_Driver/Src/stm32h7xx_hal_mdma.c ****     [..]
  94:./Libraries/STM32H7xx_HAL_Driver/Src/stm32h7xx_hal_mdma.c ****          (+)  If the transfer Request corresponds to SW request (MDMA_REQUEST_SW) User can use func
  95:./Libraries/STM32H7xx_HAL_Driver/Src/stm32h7xx_hal_mdma.c ****               trigger requests manually. Function HAL_MDMA_GenerateSWRequest must be used with the 
  96:./Libraries/STM32H7xx_HAL_Driver/Src/stm32h7xx_hal_mdma.c ****               (++) This function returns an error if used while the Transfer has ended or not start
  97:./Libraries/STM32H7xx_HAL_Driver/Src/stm32h7xx_hal_mdma.c ****               (++) If used while the current request has not been served yet (current request trans
  98:./Libraries/STM32H7xx_HAL_Driver/Src/stm32h7xx_hal_mdma.c ****                 this function returns an error and the new request is ignored.
  99:./Libraries/STM32H7xx_HAL_Driver/Src/stm32h7xx_hal_mdma.c **** 
 100:./Libraries/STM32H7xx_HAL_Driver/Src/stm32h7xx_hal_mdma.c ****               Generally this function should be used in conjunctions with the MDMA callbacks:
 101:./Libraries/STM32H7xx_HAL_Driver/Src/stm32h7xx_hal_mdma.c ****               (++) example 1:
 102:./Libraries/STM32H7xx_HAL_Driver/Src/stm32h7xx_hal_mdma.c ****                  (+++) Configure a transfer with request set to MDMA_REQUEST_SW and trigger mode se
 103:./Libraries/STM32H7xx_HAL_Driver/Src/stm32h7xx_hal_mdma.c ****                  (+++) Register a callback for buffer transfer complete (using callback ID set to H
 104:./Libraries/STM32H7xx_HAL_Driver/Src/stm32h7xx_hal_mdma.c ****                  (+++) After calling HAL_MDMA_Start_IT the MDMA will issue the transfer of a first 
 105:./Libraries/STM32H7xx_HAL_Driver/Src/stm32h7xx_hal_mdma.c ****                  (+++) When the buffer transfer complete callback is asserted first buffer has been
 106:./Libraries/STM32H7xx_HAL_Driver/Src/stm32h7xx_hal_mdma.c ****                    request using HAL_MDMA_GenerateSWRequest.
 107:./Libraries/STM32H7xx_HAL_Driver/Src/stm32h7xx_hal_mdma.c **** 
 108:./Libraries/STM32H7xx_HAL_Driver/Src/stm32h7xx_hal_mdma.c ****               (++) example 2:
 109:./Libraries/STM32H7xx_HAL_Driver/Src/stm32h7xx_hal_mdma.c ****                  (+++) Configure a transfer with request set to MDMA_REQUEST_SW and trigger mode se
 110:./Libraries/STM32H7xx_HAL_Driver/Src/stm32h7xx_hal_mdma.c ****                  (+++) Register a callback for block transfer complete (using callback ID HAL_MDMA_
 111:./Libraries/STM32H7xx_HAL_Driver/Src/stm32h7xx_hal_mdma.c ****                  (+++) After calling HAL_MDMA_Start_IT the MDMA will issue the transfer of a first 
 112:./Libraries/STM32H7xx_HAL_Driver/Src/stm32h7xx_hal_mdma.c ****                  (+++) When the block transfer complete callback is asserted the first block has be
 113:./Libraries/STM32H7xx_HAL_Driver/Src/stm32h7xx_hal_mdma.c ****                    for a new block transfer request using HAL_MDMA_GenerateSWRequest.
 114:./Libraries/STM32H7xx_HAL_Driver/Src/stm32h7xx_hal_mdma.c **** 
 115:./Libraries/STM32H7xx_HAL_Driver/Src/stm32h7xx_hal_mdma.c ****     [..]  Use HAL_MDMA_GetState() function to return the MDMA state and HAL_MDMA_GetError() in case
 116:./Libraries/STM32H7xx_HAL_Driver/Src/stm32h7xx_hal_mdma.c **** 
 117:./Libraries/STM32H7xx_HAL_Driver/Src/stm32h7xx_hal_mdma.c ****      *** MDMA HAL driver macros list ***
 118:./Libraries/STM32H7xx_HAL_Driver/Src/stm32h7xx_hal_mdma.c ****      =============================================
 119:./Libraries/STM32H7xx_HAL_Driver/Src/stm32h7xx_hal_mdma.c ****      [..]
 120:./Libraries/STM32H7xx_HAL_Driver/Src/stm32h7xx_hal_mdma.c ****        Below the list of most used macros in MDMA HAL driver.
 121:./Libraries/STM32H7xx_HAL_Driver/Src/stm32h7xx_hal_mdma.c **** 
 122:./Libraries/STM32H7xx_HAL_Driver/Src/stm32h7xx_hal_mdma.c ****       (+) __HAL_MDMA_ENABLE: Enable the specified MDMA Channel.
 123:./Libraries/STM32H7xx_HAL_Driver/Src/stm32h7xx_hal_mdma.c ****       (+) __HAL_MDMA_DISABLE: Disable the specified MDMA Channel.
 124:./Libraries/STM32H7xx_HAL_Driver/Src/stm32h7xx_hal_mdma.c ****       (+) __HAL_MDMA_GET_FLAG: Get the MDMA Channel pending flags.
 125:./Libraries/STM32H7xx_HAL_Driver/Src/stm32h7xx_hal_mdma.c ****       (+) __HAL_MDMA_CLEAR_FLAG: Clear the MDMA Channel pending flags.
 126:./Libraries/STM32H7xx_HAL_Driver/Src/stm32h7xx_hal_mdma.c ****       (+) __HAL_MDMA_ENABLE_IT: Enable the specified MDMA Channel interrupts.
 127:./Libraries/STM32H7xx_HAL_Driver/Src/stm32h7xx_hal_mdma.c ****       (+) __HAL_MDMA_DISABLE_IT: Disable the specified MDMA Channel interrupts.
 128:./Libraries/STM32H7xx_HAL_Driver/Src/stm32h7xx_hal_mdma.c ****       (+) __HAL_MDMA_GET_IT_SOURCE: Check whether the specified MDMA Channel interrupt has occurred
 129:./Libraries/STM32H7xx_HAL_Driver/Src/stm32h7xx_hal_mdma.c **** 
 130:./Libraries/STM32H7xx_HAL_Driver/Src/stm32h7xx_hal_mdma.c ****      [..]
 131:./Libraries/STM32H7xx_HAL_Driver/Src/stm32h7xx_hal_mdma.c ****       (@) You can refer to the header file of the MDMA HAL driver for more useful macros.
 132:./Libraries/STM32H7xx_HAL_Driver/Src/stm32h7xx_hal_mdma.c **** 
 133:./Libraries/STM32H7xx_HAL_Driver/Src/stm32h7xx_hal_mdma.c ****     [..]
 134:./Libraries/STM32H7xx_HAL_Driver/Src/stm32h7xx_hal_mdma.c **** 
 135:./Libraries/STM32H7xx_HAL_Driver/Src/stm32h7xx_hal_mdma.c ****     @endverbatim
 136:./Libraries/STM32H7xx_HAL_Driver/Src/stm32h7xx_hal_mdma.c ****   ******************************************************************************
 137:./Libraries/STM32H7xx_HAL_Driver/Src/stm32h7xx_hal_mdma.c ****   * @attention
 138:./Libraries/STM32H7xx_HAL_Driver/Src/stm32h7xx_hal_mdma.c ****   *
 139:./Libraries/STM32H7xx_HAL_Driver/Src/stm32h7xx_hal_mdma.c ****   * <h2><center>&copy; COPYRIGHT(c) 2017 STMicroelectronics.
 140:./Libraries/STM32H7xx_HAL_Driver/Src/stm32h7xx_hal_mdma.c ****   * All rights reserved.</center></h2>
 141:./Libraries/STM32H7xx_HAL_Driver/Src/stm32h7xx_hal_mdma.c ****   *
 142:./Libraries/STM32H7xx_HAL_Driver/Src/stm32h7xx_hal_mdma.c ****   * This software component is licensed by ST under BSD 3-Clause license,
 143:./Libraries/STM32H7xx_HAL_Driver/Src/stm32h7xx_hal_mdma.c ****   * the "License"; You may not use this file except in compliance with the
 144:./Libraries/STM32H7xx_HAL_Driver/Src/stm32h7xx_hal_mdma.c ****   * License. You may obtain a copy of the License at:
 145:./Libraries/STM32H7xx_HAL_Driver/Src/stm32h7xx_hal_mdma.c ****   *                        opensource.org/licenses/BSD-3-Clause
ARM GAS  /tmp/ccZsyCUo.s 			page 4


 146:./Libraries/STM32H7xx_HAL_Driver/Src/stm32h7xx_hal_mdma.c ****   *
 147:./Libraries/STM32H7xx_HAL_Driver/Src/stm32h7xx_hal_mdma.c ****   ******************************************************************************
 148:./Libraries/STM32H7xx_HAL_Driver/Src/stm32h7xx_hal_mdma.c ****   */
 149:./Libraries/STM32H7xx_HAL_Driver/Src/stm32h7xx_hal_mdma.c **** 
 150:./Libraries/STM32H7xx_HAL_Driver/Src/stm32h7xx_hal_mdma.c **** /* Includes ------------------------------------------------------------------*/
 151:./Libraries/STM32H7xx_HAL_Driver/Src/stm32h7xx_hal_mdma.c **** #include "stm32h7xx_hal.h"
 152:./Libraries/STM32H7xx_HAL_Driver/Src/stm32h7xx_hal_mdma.c **** 
 153:./Libraries/STM32H7xx_HAL_Driver/Src/stm32h7xx_hal_mdma.c **** /** @addtogroup STM32H7xx_HAL_Driver
 154:./Libraries/STM32H7xx_HAL_Driver/Src/stm32h7xx_hal_mdma.c ****   * @{
 155:./Libraries/STM32H7xx_HAL_Driver/Src/stm32h7xx_hal_mdma.c ****   */
 156:./Libraries/STM32H7xx_HAL_Driver/Src/stm32h7xx_hal_mdma.c **** 
 157:./Libraries/STM32H7xx_HAL_Driver/Src/stm32h7xx_hal_mdma.c **** /** @defgroup MDMA  MDMA
 158:./Libraries/STM32H7xx_HAL_Driver/Src/stm32h7xx_hal_mdma.c ****   * @brief MDMA HAL module driver
 159:./Libraries/STM32H7xx_HAL_Driver/Src/stm32h7xx_hal_mdma.c ****   * @{
 160:./Libraries/STM32H7xx_HAL_Driver/Src/stm32h7xx_hal_mdma.c ****   */
 161:./Libraries/STM32H7xx_HAL_Driver/Src/stm32h7xx_hal_mdma.c **** 
 162:./Libraries/STM32H7xx_HAL_Driver/Src/stm32h7xx_hal_mdma.c **** #ifdef HAL_MDMA_MODULE_ENABLED
 163:./Libraries/STM32H7xx_HAL_Driver/Src/stm32h7xx_hal_mdma.c **** 
 164:./Libraries/STM32H7xx_HAL_Driver/Src/stm32h7xx_hal_mdma.c **** /* Private typedef -----------------------------------------------------------*/
 165:./Libraries/STM32H7xx_HAL_Driver/Src/stm32h7xx_hal_mdma.c **** /* Private constants ---------------------------------------------------------*/
 166:./Libraries/STM32H7xx_HAL_Driver/Src/stm32h7xx_hal_mdma.c **** /** @addtogroup MDMA_Private_Constants
 167:./Libraries/STM32H7xx_HAL_Driver/Src/stm32h7xx_hal_mdma.c ****  * @{
 168:./Libraries/STM32H7xx_HAL_Driver/Src/stm32h7xx_hal_mdma.c ****  */
 169:./Libraries/STM32H7xx_HAL_Driver/Src/stm32h7xx_hal_mdma.c **** #define HAL_TIMEOUT_MDMA_ABORT    5U    /* 5 ms */
 170:./Libraries/STM32H7xx_HAL_Driver/Src/stm32h7xx_hal_mdma.c **** #define HAL_MDMA_CHANNEL_SIZE     0x40U /* an MDMA instance channel size is 64 byte  */
 171:./Libraries/STM32H7xx_HAL_Driver/Src/stm32h7xx_hal_mdma.c **** /**
 172:./Libraries/STM32H7xx_HAL_Driver/Src/stm32h7xx_hal_mdma.c ****   * @}
 173:./Libraries/STM32H7xx_HAL_Driver/Src/stm32h7xx_hal_mdma.c ****   */
 174:./Libraries/STM32H7xx_HAL_Driver/Src/stm32h7xx_hal_mdma.c **** /* Private macro -------------------------------------------------------------*/
 175:./Libraries/STM32H7xx_HAL_Driver/Src/stm32h7xx_hal_mdma.c **** /* Private variables ---------------------------------------------------------*/
 176:./Libraries/STM32H7xx_HAL_Driver/Src/stm32h7xx_hal_mdma.c **** /* Private function prototypes -----------------------------------------------*/
 177:./Libraries/STM32H7xx_HAL_Driver/Src/stm32h7xx_hal_mdma.c **** /** @addtogroup MDMA_Private_Functions_Prototypes
 178:./Libraries/STM32H7xx_HAL_Driver/Src/stm32h7xx_hal_mdma.c ****   * @{
 179:./Libraries/STM32H7xx_HAL_Driver/Src/stm32h7xx_hal_mdma.c ****   */
 180:./Libraries/STM32H7xx_HAL_Driver/Src/stm32h7xx_hal_mdma.c **** static void MDMA_SetConfig(MDMA_HandleTypeDef *hmdma, uint32_t SrcAddress, uint32_t DstAddress, uin
 181:./Libraries/STM32H7xx_HAL_Driver/Src/stm32h7xx_hal_mdma.c **** static void MDMA_Init(MDMA_HandleTypeDef *hmdma);
 182:./Libraries/STM32H7xx_HAL_Driver/Src/stm32h7xx_hal_mdma.c **** 
 183:./Libraries/STM32H7xx_HAL_Driver/Src/stm32h7xx_hal_mdma.c **** /**
 184:./Libraries/STM32H7xx_HAL_Driver/Src/stm32h7xx_hal_mdma.c ****   * @}
 185:./Libraries/STM32H7xx_HAL_Driver/Src/stm32h7xx_hal_mdma.c ****   */
 186:./Libraries/STM32H7xx_HAL_Driver/Src/stm32h7xx_hal_mdma.c **** 
 187:./Libraries/STM32H7xx_HAL_Driver/Src/stm32h7xx_hal_mdma.c **** /** @addtogroup MDMA_Exported_Functions MDMA Exported Functions
 188:./Libraries/STM32H7xx_HAL_Driver/Src/stm32h7xx_hal_mdma.c ****   * @{
 189:./Libraries/STM32H7xx_HAL_Driver/Src/stm32h7xx_hal_mdma.c ****   */
 190:./Libraries/STM32H7xx_HAL_Driver/Src/stm32h7xx_hal_mdma.c **** 
 191:./Libraries/STM32H7xx_HAL_Driver/Src/stm32h7xx_hal_mdma.c **** /** @addtogroup MDMA_Exported_Functions_Group1
 192:./Libraries/STM32H7xx_HAL_Driver/Src/stm32h7xx_hal_mdma.c ****   *
 193:./Libraries/STM32H7xx_HAL_Driver/Src/stm32h7xx_hal_mdma.c **** @verbatim
 194:./Libraries/STM32H7xx_HAL_Driver/Src/stm32h7xx_hal_mdma.c ****  ===============================================================================
 195:./Libraries/STM32H7xx_HAL_Driver/Src/stm32h7xx_hal_mdma.c ****              ##### Initialization and de-initialization functions  #####
 196:./Libraries/STM32H7xx_HAL_Driver/Src/stm32h7xx_hal_mdma.c ****  ===============================================================================
 197:./Libraries/STM32H7xx_HAL_Driver/Src/stm32h7xx_hal_mdma.c ****     [..]
 198:./Libraries/STM32H7xx_HAL_Driver/Src/stm32h7xx_hal_mdma.c ****     This section provides functions allowing to :
 199:./Libraries/STM32H7xx_HAL_Driver/Src/stm32h7xx_hal_mdma.c ****       Initialize and de-initialize the MDMA channel.
 200:./Libraries/STM32H7xx_HAL_Driver/Src/stm32h7xx_hal_mdma.c ****       Register and Unregister MDMA callbacks
 201:./Libraries/STM32H7xx_HAL_Driver/Src/stm32h7xx_hal_mdma.c ****     [..]
 202:./Libraries/STM32H7xx_HAL_Driver/Src/stm32h7xx_hal_mdma.c ****     The HAL_MDMA_Init() function follows the MDMA channel configuration procedures as described in
ARM GAS  /tmp/ccZsyCUo.s 			page 5


 203:./Libraries/STM32H7xx_HAL_Driver/Src/stm32h7xx_hal_mdma.c ****     reference manual.
 204:./Libraries/STM32H7xx_HAL_Driver/Src/stm32h7xx_hal_mdma.c ****     The HAL_MDMA_DeInit function allows to deinitialize the MDMA channel.
 205:./Libraries/STM32H7xx_HAL_Driver/Src/stm32h7xx_hal_mdma.c ****     HAL_MDMA_RegisterCallback and  HAL_MDMA_UnRegisterCallback functions allows
 206:./Libraries/STM32H7xx_HAL_Driver/Src/stm32h7xx_hal_mdma.c ****     respectevely to register/unregister an MDMA callback function.
 207:./Libraries/STM32H7xx_HAL_Driver/Src/stm32h7xx_hal_mdma.c **** 
 208:./Libraries/STM32H7xx_HAL_Driver/Src/stm32h7xx_hal_mdma.c **** @endverbatim
 209:./Libraries/STM32H7xx_HAL_Driver/Src/stm32h7xx_hal_mdma.c ****   * @{
 210:./Libraries/STM32H7xx_HAL_Driver/Src/stm32h7xx_hal_mdma.c ****   */
 211:./Libraries/STM32H7xx_HAL_Driver/Src/stm32h7xx_hal_mdma.c **** 
 212:./Libraries/STM32H7xx_HAL_Driver/Src/stm32h7xx_hal_mdma.c **** /**
 213:./Libraries/STM32H7xx_HAL_Driver/Src/stm32h7xx_hal_mdma.c ****   * @brief  Initializes the MDMA according to the specified
 214:./Libraries/STM32H7xx_HAL_Driver/Src/stm32h7xx_hal_mdma.c ****   *         parameters in the MDMA_InitTypeDef and create the associated handle.
 215:./Libraries/STM32H7xx_HAL_Driver/Src/stm32h7xx_hal_mdma.c ****   * @param  hmdma: Pointer to a MDMA_HandleTypeDef structure that contains
 216:./Libraries/STM32H7xx_HAL_Driver/Src/stm32h7xx_hal_mdma.c ****   *               the configuration information for the specified MDMA Channel.
 217:./Libraries/STM32H7xx_HAL_Driver/Src/stm32h7xx_hal_mdma.c ****   * @retval HAL status
 218:./Libraries/STM32H7xx_HAL_Driver/Src/stm32h7xx_hal_mdma.c ****   */
 219:./Libraries/STM32H7xx_HAL_Driver/Src/stm32h7xx_hal_mdma.c **** HAL_StatusTypeDef HAL_MDMA_Init(MDMA_HandleTypeDef *hmdma)
 220:./Libraries/STM32H7xx_HAL_Driver/Src/stm32h7xx_hal_mdma.c **** {
  28              		.loc 1 220 1
  29              		.cfi_startproc
  30              		@ args = 0, pretend = 0, frame = 16
  31              		@ frame_needed = 1, uses_anonymous_args = 0
  32 0000 80B5     		push	{r7, lr}
  33              	.LCFI0:
  34              		.cfi_def_cfa_offset 8
  35              		.cfi_offset 7, -8
  36              		.cfi_offset 14, -4
  37 0002 84B0     		sub	sp, sp, #16
  38              	.LCFI1:
  39              		.cfi_def_cfa_offset 24
  40 0004 00AF     		add	r7, sp, #0
  41              	.LCFI2:
  42              		.cfi_def_cfa_register 7
  43 0006 7860     		str	r0, [r7, #4]
 221:./Libraries/STM32H7xx_HAL_Driver/Src/stm32h7xx_hal_mdma.c ****   uint32_t tickstart = HAL_GetTick();
  44              		.loc 1 221 24
  45 0008 FFF7FEFF 		bl	HAL_GetTick
  46 000c F860     		str	r0, [r7, #12]
 222:./Libraries/STM32H7xx_HAL_Driver/Src/stm32h7xx_hal_mdma.c **** 
 223:./Libraries/STM32H7xx_HAL_Driver/Src/stm32h7xx_hal_mdma.c ****   /* Check the MDMA peripheral handle */
 224:./Libraries/STM32H7xx_HAL_Driver/Src/stm32h7xx_hal_mdma.c ****   if(hmdma == NULL)
  47              		.loc 1 224 5
  48 000e 7B68     		ldr	r3, [r7, #4]
  49 0010 002B     		cmp	r3, #0
  50 0012 01D1     		bne	.L2
 225:./Libraries/STM32H7xx_HAL_Driver/Src/stm32h7xx_hal_mdma.c ****   {
 226:./Libraries/STM32H7xx_HAL_Driver/Src/stm32h7xx_hal_mdma.c ****     return HAL_ERROR;
  51              		.loc 1 226 12
  52 0014 0123     		movs	r3, #1
  53 0016 3BE0     		b	.L3
  54              	.L2:
 227:./Libraries/STM32H7xx_HAL_Driver/Src/stm32h7xx_hal_mdma.c ****   }
 228:./Libraries/STM32H7xx_HAL_Driver/Src/stm32h7xx_hal_mdma.c **** 
 229:./Libraries/STM32H7xx_HAL_Driver/Src/stm32h7xx_hal_mdma.c ****   /* Check the parameters */
 230:./Libraries/STM32H7xx_HAL_Driver/Src/stm32h7xx_hal_mdma.c ****   assert_param(IS_MDMA_STREAM_ALL_INSTANCE(hmdma->Instance));
 231:./Libraries/STM32H7xx_HAL_Driver/Src/stm32h7xx_hal_mdma.c ****   assert_param(IS_MDMA_PRIORITY(hmdma->Init.Priority));
 232:./Libraries/STM32H7xx_HAL_Driver/Src/stm32h7xx_hal_mdma.c ****   assert_param(IS_MDMA_ENDIANNESS_MODE(hmdma->Init.Endianness));
ARM GAS  /tmp/ccZsyCUo.s 			page 6


 233:./Libraries/STM32H7xx_HAL_Driver/Src/stm32h7xx_hal_mdma.c ****   assert_param(IS_MDMA_REQUEST(hmdma->Init.Request));
 234:./Libraries/STM32H7xx_HAL_Driver/Src/stm32h7xx_hal_mdma.c ****   assert_param(IS_MDMA_SOURCE_INC(hmdma->Init.SourceInc));
 235:./Libraries/STM32H7xx_HAL_Driver/Src/stm32h7xx_hal_mdma.c ****   assert_param(IS_MDMA_DESTINATION_INC(hmdma->Init.DestinationInc));
 236:./Libraries/STM32H7xx_HAL_Driver/Src/stm32h7xx_hal_mdma.c ****   assert_param(IS_MDMA_SOURCE_DATASIZE(hmdma->Init.SourceDataSize));
 237:./Libraries/STM32H7xx_HAL_Driver/Src/stm32h7xx_hal_mdma.c ****   assert_param(IS_MDMA_DESTINATION_DATASIZE(hmdma->Init.DestDataSize));
 238:./Libraries/STM32H7xx_HAL_Driver/Src/stm32h7xx_hal_mdma.c ****   assert_param(IS_MDMA_DATA_ALIGNMENT(hmdma->Init.DataAlignment));
 239:./Libraries/STM32H7xx_HAL_Driver/Src/stm32h7xx_hal_mdma.c ****   assert_param(IS_MDMA_SOURCE_BURST(hmdma->Init.SourceBurst));
 240:./Libraries/STM32H7xx_HAL_Driver/Src/stm32h7xx_hal_mdma.c ****   assert_param(IS_MDMA_DESTINATION_BURST(hmdma->Init.DestBurst));
 241:./Libraries/STM32H7xx_HAL_Driver/Src/stm32h7xx_hal_mdma.c ****   assert_param(IS_MDMA_BUFFER_TRANSFER_LENGTH(hmdma->Init.BufferTransferLength));
 242:./Libraries/STM32H7xx_HAL_Driver/Src/stm32h7xx_hal_mdma.c ****   assert_param(IS_MDMA_TRANSFER_TRIGGER_MODE(hmdma->Init.TransferTriggerMode));
 243:./Libraries/STM32H7xx_HAL_Driver/Src/stm32h7xx_hal_mdma.c ****   assert_param(IS_MDMA_BLOCK_ADDR_OFFSET(hmdma->Init.SourceBlockAddressOffset));
 244:./Libraries/STM32H7xx_HAL_Driver/Src/stm32h7xx_hal_mdma.c ****   assert_param(IS_MDMA_BLOCK_ADDR_OFFSET(hmdma->Init.DestBlockAddressOffset));
 245:./Libraries/STM32H7xx_HAL_Driver/Src/stm32h7xx_hal_mdma.c **** 
 246:./Libraries/STM32H7xx_HAL_Driver/Src/stm32h7xx_hal_mdma.c **** 
 247:./Libraries/STM32H7xx_HAL_Driver/Src/stm32h7xx_hal_mdma.c ****   /* Allocate lock resource */
 248:./Libraries/STM32H7xx_HAL_Driver/Src/stm32h7xx_hal_mdma.c ****   __HAL_UNLOCK(hmdma);
  55              		.loc 1 248 3
  56 0018 7B68     		ldr	r3, [r7, #4]
  57 001a 0022     		movs	r2, #0
  58 001c 83F83C20 		strb	r2, [r3, #60]
 249:./Libraries/STM32H7xx_HAL_Driver/Src/stm32h7xx_hal_mdma.c **** 
 250:./Libraries/STM32H7xx_HAL_Driver/Src/stm32h7xx_hal_mdma.c ****   /* Change MDMA peripheral state */
 251:./Libraries/STM32H7xx_HAL_Driver/Src/stm32h7xx_hal_mdma.c ****   hmdma->State = HAL_MDMA_STATE_BUSY;
  59              		.loc 1 251 16
  60 0020 7B68     		ldr	r3, [r7, #4]
  61 0022 0222     		movs	r2, #2
  62 0024 83F83D20 		strb	r2, [r3, #61]
 252:./Libraries/STM32H7xx_HAL_Driver/Src/stm32h7xx_hal_mdma.c **** 
 253:./Libraries/STM32H7xx_HAL_Driver/Src/stm32h7xx_hal_mdma.c ****   /* Disable the MDMA channel */
 254:./Libraries/STM32H7xx_HAL_Driver/Src/stm32h7xx_hal_mdma.c ****   __HAL_MDMA_DISABLE(hmdma);
  63              		.loc 1 254 3
  64 0028 7B68     		ldr	r3, [r7, #4]
  65 002a 1B68     		ldr	r3, [r3]
  66 002c DA68     		ldr	r2, [r3, #12]
  67 002e 7B68     		ldr	r3, [r7, #4]
  68 0030 1B68     		ldr	r3, [r3]
  69 0032 22F00102 		bic	r2, r2, #1
  70 0036 DA60     		str	r2, [r3, #12]
 255:./Libraries/STM32H7xx_HAL_Driver/Src/stm32h7xx_hal_mdma.c **** 
 256:./Libraries/STM32H7xx_HAL_Driver/Src/stm32h7xx_hal_mdma.c ****   /* Check if the MDMA channel is effectively disabled */
 257:./Libraries/STM32H7xx_HAL_Driver/Src/stm32h7xx_hal_mdma.c ****   while((hmdma->Instance->CCR & MDMA_CCR_EN) != 0U)
  71              		.loc 1 257 8
  72 0038 0FE0     		b	.L4
  73              	.L5:
 258:./Libraries/STM32H7xx_HAL_Driver/Src/stm32h7xx_hal_mdma.c ****   {
 259:./Libraries/STM32H7xx_HAL_Driver/Src/stm32h7xx_hal_mdma.c ****     /* Check for the Timeout */
 260:./Libraries/STM32H7xx_HAL_Driver/Src/stm32h7xx_hal_mdma.c ****     if((HAL_GetTick() - tickstart ) > HAL_TIMEOUT_MDMA_ABORT)
  74              		.loc 1 260 9
  75 003a FFF7FEFF 		bl	HAL_GetTick
  76 003e 0246     		mov	r2, r0
  77              		.loc 1 260 23
  78 0040 FB68     		ldr	r3, [r7, #12]
  79 0042 D31A     		subs	r3, r2, r3
  80              		.loc 1 260 7
  81 0044 052B     		cmp	r3, #5
  82 0046 08D9     		bls	.L4
 261:./Libraries/STM32H7xx_HAL_Driver/Src/stm32h7xx_hal_mdma.c ****     {
ARM GAS  /tmp/ccZsyCUo.s 			page 7


 262:./Libraries/STM32H7xx_HAL_Driver/Src/stm32h7xx_hal_mdma.c ****       /* Update error code */
 263:./Libraries/STM32H7xx_HAL_Driver/Src/stm32h7xx_hal_mdma.c ****       hmdma->ErrorCode = HAL_MDMA_ERROR_TIMEOUT;
  83              		.loc 1 263 24
  84 0048 7B68     		ldr	r3, [r7, #4]
  85 004a 4022     		movs	r2, #64
  86 004c 9A66     		str	r2, [r3, #104]
 264:./Libraries/STM32H7xx_HAL_Driver/Src/stm32h7xx_hal_mdma.c **** 
 265:./Libraries/STM32H7xx_HAL_Driver/Src/stm32h7xx_hal_mdma.c ****       /* Change the MDMA state */
 266:./Libraries/STM32H7xx_HAL_Driver/Src/stm32h7xx_hal_mdma.c ****       hmdma->State = HAL_MDMA_STATE_ERROR;
  87              		.loc 1 266 20
  88 004e 7B68     		ldr	r3, [r7, #4]
  89 0050 0322     		movs	r2, #3
  90 0052 83F83D20 		strb	r2, [r3, #61]
 267:./Libraries/STM32H7xx_HAL_Driver/Src/stm32h7xx_hal_mdma.c **** 
 268:./Libraries/STM32H7xx_HAL_Driver/Src/stm32h7xx_hal_mdma.c ****       return HAL_ERROR;
  91              		.loc 1 268 14
  92 0056 0123     		movs	r3, #1
  93 0058 1AE0     		b	.L3
  94              	.L4:
 257:./Libraries/STM32H7xx_HAL_Driver/Src/stm32h7xx_hal_mdma.c ****   {
  95              		.loc 1 257 15
  96 005a 7B68     		ldr	r3, [r7, #4]
  97 005c 1B68     		ldr	r3, [r3]
 257:./Libraries/STM32H7xx_HAL_Driver/Src/stm32h7xx_hal_mdma.c ****   {
  98              		.loc 1 257 25
  99 005e DB68     		ldr	r3, [r3, #12]
 257:./Libraries/STM32H7xx_HAL_Driver/Src/stm32h7xx_hal_mdma.c ****   {
 100              		.loc 1 257 31
 101 0060 03F00103 		and	r3, r3, #1
 257:./Libraries/STM32H7xx_HAL_Driver/Src/stm32h7xx_hal_mdma.c ****   {
 102              		.loc 1 257 8
 103 0064 002B     		cmp	r3, #0
 104 0066 E8D1     		bne	.L5
 269:./Libraries/STM32H7xx_HAL_Driver/Src/stm32h7xx_hal_mdma.c ****     }
 270:./Libraries/STM32H7xx_HAL_Driver/Src/stm32h7xx_hal_mdma.c ****   }
 271:./Libraries/STM32H7xx_HAL_Driver/Src/stm32h7xx_hal_mdma.c **** 
 272:./Libraries/STM32H7xx_HAL_Driver/Src/stm32h7xx_hal_mdma.c ****   /* Initialize the MDMA channel registers */
 273:./Libraries/STM32H7xx_HAL_Driver/Src/stm32h7xx_hal_mdma.c ****   MDMA_Init(hmdma);
 105              		.loc 1 273 3
 106 0068 7868     		ldr	r0, [r7, #4]
 107 006a FFF7FEFF 		bl	MDMA_Init
 274:./Libraries/STM32H7xx_HAL_Driver/Src/stm32h7xx_hal_mdma.c **** 
 275:./Libraries/STM32H7xx_HAL_Driver/Src/stm32h7xx_hal_mdma.c ****   /* Reset the MDMA first/last linkedlist node addresses and node counter */
 276:./Libraries/STM32H7xx_HAL_Driver/Src/stm32h7xx_hal_mdma.c ****   hmdma->FirstLinkedListNodeAddress  = 0;
 108              		.loc 1 276 38
 109 006e 7B68     		ldr	r3, [r7, #4]
 110 0070 0022     		movs	r2, #0
 111 0072 DA65     		str	r2, [r3, #92]
 277:./Libraries/STM32H7xx_HAL_Driver/Src/stm32h7xx_hal_mdma.c ****   hmdma->LastLinkedListNodeAddress   = 0;
 112              		.loc 1 277 38
 113 0074 7B68     		ldr	r3, [r7, #4]
 114 0076 0022     		movs	r2, #0
 115 0078 1A66     		str	r2, [r3, #96]
 278:./Libraries/STM32H7xx_HAL_Driver/Src/stm32h7xx_hal_mdma.c ****   hmdma->LinkedListNodeCounter  = 0;
 116              		.loc 1 278 33
 117 007a 7B68     		ldr	r3, [r7, #4]
 118 007c 0022     		movs	r2, #0
ARM GAS  /tmp/ccZsyCUo.s 			page 8


 119 007e 5A66     		str	r2, [r3, #100]
 279:./Libraries/STM32H7xx_HAL_Driver/Src/stm32h7xx_hal_mdma.c **** 
 280:./Libraries/STM32H7xx_HAL_Driver/Src/stm32h7xx_hal_mdma.c ****   /* Initialize the error code */
 281:./Libraries/STM32H7xx_HAL_Driver/Src/stm32h7xx_hal_mdma.c ****   hmdma->ErrorCode = HAL_MDMA_ERROR_NONE;
 120              		.loc 1 281 20
 121 0080 7B68     		ldr	r3, [r7, #4]
 122 0082 0022     		movs	r2, #0
 123 0084 9A66     		str	r2, [r3, #104]
 282:./Libraries/STM32H7xx_HAL_Driver/Src/stm32h7xx_hal_mdma.c **** 
 283:./Libraries/STM32H7xx_HAL_Driver/Src/stm32h7xx_hal_mdma.c ****   /* Initialize the MDMA state */
 284:./Libraries/STM32H7xx_HAL_Driver/Src/stm32h7xx_hal_mdma.c ****   hmdma->State = HAL_MDMA_STATE_READY;
 124              		.loc 1 284 16
 125 0086 7B68     		ldr	r3, [r7, #4]
 126 0088 0122     		movs	r2, #1
 127 008a 83F83D20 		strb	r2, [r3, #61]
 285:./Libraries/STM32H7xx_HAL_Driver/Src/stm32h7xx_hal_mdma.c **** 
 286:./Libraries/STM32H7xx_HAL_Driver/Src/stm32h7xx_hal_mdma.c ****   return HAL_OK;
 128              		.loc 1 286 10
 129 008e 0023     		movs	r3, #0
 130              	.L3:
 287:./Libraries/STM32H7xx_HAL_Driver/Src/stm32h7xx_hal_mdma.c **** }
 131              		.loc 1 287 1
 132 0090 1846     		mov	r0, r3
 133 0092 1037     		adds	r7, r7, #16
 134              	.LCFI3:
 135              		.cfi_def_cfa_offset 8
 136 0094 BD46     		mov	sp, r7
 137              	.LCFI4:
 138              		.cfi_def_cfa_register 13
 139              		@ sp needed
 140 0096 80BD     		pop	{r7, pc}
 141              		.cfi_endproc
 142              	.LFE331:
 144              		.section	.text.HAL_MDMA_DeInit,"ax",%progbits
 145              		.align	1
 146              		.global	HAL_MDMA_DeInit
 147              		.syntax unified
 148              		.thumb
 149              		.thumb_func
 150              		.fpu fpv5-d16
 152              	HAL_MDMA_DeInit:
 153              	.LFB332:
 288:./Libraries/STM32H7xx_HAL_Driver/Src/stm32h7xx_hal_mdma.c **** 
 289:./Libraries/STM32H7xx_HAL_Driver/Src/stm32h7xx_hal_mdma.c **** /**
 290:./Libraries/STM32H7xx_HAL_Driver/Src/stm32h7xx_hal_mdma.c ****   * @brief  DeInitializes the MDMA peripheral
 291:./Libraries/STM32H7xx_HAL_Driver/Src/stm32h7xx_hal_mdma.c ****   * @param  hmdma: pointer to a MDMA_HandleTypeDef structure that contains
 292:./Libraries/STM32H7xx_HAL_Driver/Src/stm32h7xx_hal_mdma.c ****   *               the configuration information for the specified MDMA Channel.
 293:./Libraries/STM32H7xx_HAL_Driver/Src/stm32h7xx_hal_mdma.c ****   * @retval HAL status
 294:./Libraries/STM32H7xx_HAL_Driver/Src/stm32h7xx_hal_mdma.c ****   */
 295:./Libraries/STM32H7xx_HAL_Driver/Src/stm32h7xx_hal_mdma.c **** HAL_StatusTypeDef HAL_MDMA_DeInit(MDMA_HandleTypeDef *hmdma)
 296:./Libraries/STM32H7xx_HAL_Driver/Src/stm32h7xx_hal_mdma.c **** {
 154              		.loc 1 296 1
 155              		.cfi_startproc
 156              		@ args = 0, pretend = 0, frame = 8
 157              		@ frame_needed = 1, uses_anonymous_args = 0
 158              		@ link register save eliminated.
 159 0000 80B4     		push	{r7}
ARM GAS  /tmp/ccZsyCUo.s 			page 9


 160              	.LCFI5:
 161              		.cfi_def_cfa_offset 4
 162              		.cfi_offset 7, -4
 163 0002 83B0     		sub	sp, sp, #12
 164              	.LCFI6:
 165              		.cfi_def_cfa_offset 16
 166 0004 00AF     		add	r7, sp, #0
 167              	.LCFI7:
 168              		.cfi_def_cfa_register 7
 169 0006 7860     		str	r0, [r7, #4]
 297:./Libraries/STM32H7xx_HAL_Driver/Src/stm32h7xx_hal_mdma.c **** 
 298:./Libraries/STM32H7xx_HAL_Driver/Src/stm32h7xx_hal_mdma.c ****   /* Check the MDMA peripheral handle */
 299:./Libraries/STM32H7xx_HAL_Driver/Src/stm32h7xx_hal_mdma.c ****   if(hmdma == NULL)
 170              		.loc 1 299 5
 171 0008 7B68     		ldr	r3, [r7, #4]
 172 000a 002B     		cmp	r3, #0
 173 000c 01D1     		bne	.L7
 300:./Libraries/STM32H7xx_HAL_Driver/Src/stm32h7xx_hal_mdma.c ****   {
 301:./Libraries/STM32H7xx_HAL_Driver/Src/stm32h7xx_hal_mdma.c ****     return HAL_ERROR;
 174              		.loc 1 301 12
 175 000e 0123     		movs	r3, #1
 176 0010 48E0     		b	.L8
 177              	.L7:
 302:./Libraries/STM32H7xx_HAL_Driver/Src/stm32h7xx_hal_mdma.c ****   }
 303:./Libraries/STM32H7xx_HAL_Driver/Src/stm32h7xx_hal_mdma.c **** 
 304:./Libraries/STM32H7xx_HAL_Driver/Src/stm32h7xx_hal_mdma.c ****   /* Disable the selected MDMA Channelx */
 305:./Libraries/STM32H7xx_HAL_Driver/Src/stm32h7xx_hal_mdma.c ****   __HAL_MDMA_DISABLE(hmdma);
 178              		.loc 1 305 3
 179 0012 7B68     		ldr	r3, [r7, #4]
 180 0014 1B68     		ldr	r3, [r3]
 181 0016 DA68     		ldr	r2, [r3, #12]
 182 0018 7B68     		ldr	r3, [r7, #4]
 183 001a 1B68     		ldr	r3, [r3]
 184 001c 22F00102 		bic	r2, r2, #1
 185 0020 DA60     		str	r2, [r3, #12]
 306:./Libraries/STM32H7xx_HAL_Driver/Src/stm32h7xx_hal_mdma.c **** 
 307:./Libraries/STM32H7xx_HAL_Driver/Src/stm32h7xx_hal_mdma.c ****   /* Reset MDMA Channel control register */
 308:./Libraries/STM32H7xx_HAL_Driver/Src/stm32h7xx_hal_mdma.c ****   hmdma->Instance->CCR  = 0;
 186              		.loc 1 308 8
 187 0022 7B68     		ldr	r3, [r7, #4]
 188 0024 1B68     		ldr	r3, [r3]
 189              		.loc 1 308 25
 190 0026 0022     		movs	r2, #0
 191 0028 DA60     		str	r2, [r3, #12]
 309:./Libraries/STM32H7xx_HAL_Driver/Src/stm32h7xx_hal_mdma.c ****   hmdma->Instance->CTCR = 0;
 192              		.loc 1 309 8
 193 002a 7B68     		ldr	r3, [r7, #4]
 194 002c 1B68     		ldr	r3, [r3]
 195              		.loc 1 309 25
 196 002e 0022     		movs	r2, #0
 197 0030 1A61     		str	r2, [r3, #16]
 310:./Libraries/STM32H7xx_HAL_Driver/Src/stm32h7xx_hal_mdma.c ****   hmdma->Instance->CBNDTR = 0;
 198              		.loc 1 310 8
 199 0032 7B68     		ldr	r3, [r7, #4]
 200 0034 1B68     		ldr	r3, [r3]
 201              		.loc 1 310 27
 202 0036 0022     		movs	r2, #0
ARM GAS  /tmp/ccZsyCUo.s 			page 10


 203 0038 5A61     		str	r2, [r3, #20]
 311:./Libraries/STM32H7xx_HAL_Driver/Src/stm32h7xx_hal_mdma.c ****   hmdma->Instance->CSAR = 0;
 204              		.loc 1 311 8
 205 003a 7B68     		ldr	r3, [r7, #4]
 206 003c 1B68     		ldr	r3, [r3]
 207              		.loc 1 311 25
 208 003e 0022     		movs	r2, #0
 209 0040 9A61     		str	r2, [r3, #24]
 312:./Libraries/STM32H7xx_HAL_Driver/Src/stm32h7xx_hal_mdma.c ****   hmdma->Instance->CDAR = 0;
 210              		.loc 1 312 8
 211 0042 7B68     		ldr	r3, [r7, #4]
 212 0044 1B68     		ldr	r3, [r3]
 213              		.loc 1 312 25
 214 0046 0022     		movs	r2, #0
 215 0048 DA61     		str	r2, [r3, #28]
 313:./Libraries/STM32H7xx_HAL_Driver/Src/stm32h7xx_hal_mdma.c ****   hmdma->Instance->CBRUR = 0;
 216              		.loc 1 313 8
 217 004a 7B68     		ldr	r3, [r7, #4]
 218 004c 1B68     		ldr	r3, [r3]
 219              		.loc 1 313 26
 220 004e 0022     		movs	r2, #0
 221 0050 1A62     		str	r2, [r3, #32]
 314:./Libraries/STM32H7xx_HAL_Driver/Src/stm32h7xx_hal_mdma.c ****   hmdma->Instance->CLAR = 0;
 222              		.loc 1 314 8
 223 0052 7B68     		ldr	r3, [r7, #4]
 224 0054 1B68     		ldr	r3, [r3]
 225              		.loc 1 314 25
 226 0056 0022     		movs	r2, #0
 227 0058 5A62     		str	r2, [r3, #36]
 315:./Libraries/STM32H7xx_HAL_Driver/Src/stm32h7xx_hal_mdma.c ****   hmdma->Instance->CTBR = 0;
 228              		.loc 1 315 8
 229 005a 7B68     		ldr	r3, [r7, #4]
 230 005c 1B68     		ldr	r3, [r3]
 231              		.loc 1 315 25
 232 005e 0022     		movs	r2, #0
 233 0060 9A62     		str	r2, [r3, #40]
 316:./Libraries/STM32H7xx_HAL_Driver/Src/stm32h7xx_hal_mdma.c ****   hmdma->Instance->CMAR = 0;
 234              		.loc 1 316 8
 235 0062 7B68     		ldr	r3, [r7, #4]
 236 0064 1B68     		ldr	r3, [r3]
 237              		.loc 1 316 25
 238 0066 0022     		movs	r2, #0
 239 0068 1A63     		str	r2, [r3, #48]
 317:./Libraries/STM32H7xx_HAL_Driver/Src/stm32h7xx_hal_mdma.c ****   hmdma->Instance->CMDR = 0;
 240              		.loc 1 317 8
 241 006a 7B68     		ldr	r3, [r7, #4]
 242 006c 1B68     		ldr	r3, [r3]
 243              		.loc 1 317 25
 244 006e 0022     		movs	r2, #0
 245 0070 5A63     		str	r2, [r3, #52]
 318:./Libraries/STM32H7xx_HAL_Driver/Src/stm32h7xx_hal_mdma.c **** 
 319:./Libraries/STM32H7xx_HAL_Driver/Src/stm32h7xx_hal_mdma.c ****   /* Clear all flags */
 320:./Libraries/STM32H7xx_HAL_Driver/Src/stm32h7xx_hal_mdma.c ****   __HAL_MDMA_CLEAR_FLAG(hmdma,(MDMA_FLAG_TE | MDMA_FLAG_CTC | MDMA_FLAG_BRT | MDMA_FLAG_BT | MDMA_F
 246              		.loc 1 320 3
 247 0072 7B68     		ldr	r3, [r7, #4]
 248 0074 1B68     		ldr	r3, [r3]
 249 0076 1F22     		movs	r2, #31
ARM GAS  /tmp/ccZsyCUo.s 			page 11


 250 0078 5A60     		str	r2, [r3, #4]
 321:./Libraries/STM32H7xx_HAL_Driver/Src/stm32h7xx_hal_mdma.c **** 
 322:./Libraries/STM32H7xx_HAL_Driver/Src/stm32h7xx_hal_mdma.c ****   /* Reset the  MDMA first/last linkedlist node addresses and node counter */
 323:./Libraries/STM32H7xx_HAL_Driver/Src/stm32h7xx_hal_mdma.c ****   hmdma->FirstLinkedListNodeAddress  = 0;
 251              		.loc 1 323 38
 252 007a 7B68     		ldr	r3, [r7, #4]
 253 007c 0022     		movs	r2, #0
 254 007e DA65     		str	r2, [r3, #92]
 324:./Libraries/STM32H7xx_HAL_Driver/Src/stm32h7xx_hal_mdma.c ****   hmdma->LastLinkedListNodeAddress   = 0;
 255              		.loc 1 324 38
 256 0080 7B68     		ldr	r3, [r7, #4]
 257 0082 0022     		movs	r2, #0
 258 0084 1A66     		str	r2, [r3, #96]
 325:./Libraries/STM32H7xx_HAL_Driver/Src/stm32h7xx_hal_mdma.c ****   hmdma->LinkedListNodeCounter  = 0;
 259              		.loc 1 325 33
 260 0086 7B68     		ldr	r3, [r7, #4]
 261 0088 0022     		movs	r2, #0
 262 008a 5A66     		str	r2, [r3, #100]
 326:./Libraries/STM32H7xx_HAL_Driver/Src/stm32h7xx_hal_mdma.c **** 
 327:./Libraries/STM32H7xx_HAL_Driver/Src/stm32h7xx_hal_mdma.c ****   /* Initialize the error code */
 328:./Libraries/STM32H7xx_HAL_Driver/Src/stm32h7xx_hal_mdma.c ****   hmdma->ErrorCode = HAL_MDMA_ERROR_NONE;
 263              		.loc 1 328 20
 264 008c 7B68     		ldr	r3, [r7, #4]
 265 008e 0022     		movs	r2, #0
 266 0090 9A66     		str	r2, [r3, #104]
 329:./Libraries/STM32H7xx_HAL_Driver/Src/stm32h7xx_hal_mdma.c **** 
 330:./Libraries/STM32H7xx_HAL_Driver/Src/stm32h7xx_hal_mdma.c ****   /* Initialize the MDMA state */
 331:./Libraries/STM32H7xx_HAL_Driver/Src/stm32h7xx_hal_mdma.c ****   hmdma->State = HAL_MDMA_STATE_RESET;
 267              		.loc 1 331 16
 268 0092 7B68     		ldr	r3, [r7, #4]
 269 0094 0022     		movs	r2, #0
 270 0096 83F83D20 		strb	r2, [r3, #61]
 332:./Libraries/STM32H7xx_HAL_Driver/Src/stm32h7xx_hal_mdma.c **** 
 333:./Libraries/STM32H7xx_HAL_Driver/Src/stm32h7xx_hal_mdma.c ****   /* Release Lock */
 334:./Libraries/STM32H7xx_HAL_Driver/Src/stm32h7xx_hal_mdma.c ****   __HAL_UNLOCK(hmdma);
 271              		.loc 1 334 3
 272 009a 7B68     		ldr	r3, [r7, #4]
 273 009c 0022     		movs	r2, #0
 274 009e 83F83C20 		strb	r2, [r3, #60]
 335:./Libraries/STM32H7xx_HAL_Driver/Src/stm32h7xx_hal_mdma.c **** 
 336:./Libraries/STM32H7xx_HAL_Driver/Src/stm32h7xx_hal_mdma.c ****   return HAL_OK;
 275              		.loc 1 336 10
 276 00a2 0023     		movs	r3, #0
 277              	.L8:
 337:./Libraries/STM32H7xx_HAL_Driver/Src/stm32h7xx_hal_mdma.c **** }
 278              		.loc 1 337 1
 279 00a4 1846     		mov	r0, r3
 280 00a6 0C37     		adds	r7, r7, #12
 281              	.LCFI8:
 282              		.cfi_def_cfa_offset 4
 283 00a8 BD46     		mov	sp, r7
 284              	.LCFI9:
 285              		.cfi_def_cfa_register 13
 286              		@ sp needed
 287 00aa 5DF8047B 		ldr	r7, [sp], #4
 288              	.LCFI10:
 289              		.cfi_restore 7
ARM GAS  /tmp/ccZsyCUo.s 			page 12


 290              		.cfi_def_cfa_offset 0
 291 00ae 7047     		bx	lr
 292              		.cfi_endproc
 293              	.LFE332:
 295              		.section	.text.HAL_MDMA_ConfigPostRequestMask,"ax",%progbits
 296              		.align	1
 297              		.global	HAL_MDMA_ConfigPostRequestMask
 298              		.syntax unified
 299              		.thumb
 300              		.thumb_func
 301              		.fpu fpv5-d16
 303              	HAL_MDMA_ConfigPostRequestMask:
 304              	.LFB333:
 338:./Libraries/STM32H7xx_HAL_Driver/Src/stm32h7xx_hal_mdma.c **** 
 339:./Libraries/STM32H7xx_HAL_Driver/Src/stm32h7xx_hal_mdma.c **** /**
 340:./Libraries/STM32H7xx_HAL_Driver/Src/stm32h7xx_hal_mdma.c ****   * @brief  Config the Post request Mask address and Mask data
 341:./Libraries/STM32H7xx_HAL_Driver/Src/stm32h7xx_hal_mdma.c ****   * @param  hmdma      : pointer to a MDMA_HandleTypeDef structure that contains
 342:./Libraries/STM32H7xx_HAL_Driver/Src/stm32h7xx_hal_mdma.c ****   *                               the configuration information for the specified MDMA Channel.
 343:./Libraries/STM32H7xx_HAL_Driver/Src/stm32h7xx_hal_mdma.c ****   * @param  MaskAddress: specifies the address to be updated (written) with MaskData after a reques
 344:./Libraries/STM32H7xx_HAL_Driver/Src/stm32h7xx_hal_mdma.c ****   * @param  MaskData:    specifies the value to be written to MaskAddress after a request is served
 345:./Libraries/STM32H7xx_HAL_Driver/Src/stm32h7xx_hal_mdma.c ****   *                      MaskAddress and MaskData could be used to automatically clear a peripheral
 346:./Libraries/STM32H7xx_HAL_Driver/Src/stm32h7xx_hal_mdma.c ****   * @retval HAL status
 347:./Libraries/STM32H7xx_HAL_Driver/Src/stm32h7xx_hal_mdma.c ****   */
 348:./Libraries/STM32H7xx_HAL_Driver/Src/stm32h7xx_hal_mdma.c **** HAL_StatusTypeDef HAL_MDMA_ConfigPostRequestMask(MDMA_HandleTypeDef *hmdma, uint32_t MaskAddress, u
 349:./Libraries/STM32H7xx_HAL_Driver/Src/stm32h7xx_hal_mdma.c **** {
 305              		.loc 1 349 1
 306              		.cfi_startproc
 307              		@ args = 0, pretend = 0, frame = 24
 308              		@ frame_needed = 1, uses_anonymous_args = 0
 309              		@ link register save eliminated.
 310 0000 80B4     		push	{r7}
 311              	.LCFI11:
 312              		.cfi_def_cfa_offset 4
 313              		.cfi_offset 7, -4
 314 0002 87B0     		sub	sp, sp, #28
 315              	.LCFI12:
 316              		.cfi_def_cfa_offset 32
 317 0004 00AF     		add	r7, sp, #0
 318              	.LCFI13:
 319              		.cfi_def_cfa_register 7
 320 0006 F860     		str	r0, [r7, #12]
 321 0008 B960     		str	r1, [r7, #8]
 322 000a 7A60     		str	r2, [r7, #4]
 350:./Libraries/STM32H7xx_HAL_Driver/Src/stm32h7xx_hal_mdma.c ****   HAL_StatusTypeDef  status = HAL_OK;
 323              		.loc 1 350 22
 324 000c 0023     		movs	r3, #0
 325 000e FB75     		strb	r3, [r7, #23]
 351:./Libraries/STM32H7xx_HAL_Driver/Src/stm32h7xx_hal_mdma.c **** 
 352:./Libraries/STM32H7xx_HAL_Driver/Src/stm32h7xx_hal_mdma.c ****   /* Check the MDMA peripheral handle */
 353:./Libraries/STM32H7xx_HAL_Driver/Src/stm32h7xx_hal_mdma.c ****   if(hmdma == NULL)
 326              		.loc 1 353 5
 327 0010 FB68     		ldr	r3, [r7, #12]
 328 0012 002B     		cmp	r3, #0
 329 0014 01D1     		bne	.L10
 354:./Libraries/STM32H7xx_HAL_Driver/Src/stm32h7xx_hal_mdma.c ****   {
 355:./Libraries/STM32H7xx_HAL_Driver/Src/stm32h7xx_hal_mdma.c ****     return HAL_ERROR;
 330              		.loc 1 355 12
ARM GAS  /tmp/ccZsyCUo.s 			page 13


 331 0016 0123     		movs	r3, #1
 332 0018 3EE0     		b	.L11
 333              	.L10:
 356:./Libraries/STM32H7xx_HAL_Driver/Src/stm32h7xx_hal_mdma.c ****   }
 357:./Libraries/STM32H7xx_HAL_Driver/Src/stm32h7xx_hal_mdma.c **** 
 358:./Libraries/STM32H7xx_HAL_Driver/Src/stm32h7xx_hal_mdma.c ****   /* Process locked */
 359:./Libraries/STM32H7xx_HAL_Driver/Src/stm32h7xx_hal_mdma.c ****   __HAL_LOCK(hmdma);
 334              		.loc 1 359 3
 335 001a FB68     		ldr	r3, [r7, #12]
 336 001c 93F83C30 		ldrb	r3, [r3, #60]	@ zero_extendqisi2
 337 0020 012B     		cmp	r3, #1
 338 0022 01D1     		bne	.L12
 339              		.loc 1 359 3 is_stmt 0 discriminator 1
 340 0024 0223     		movs	r3, #2
 341 0026 37E0     		b	.L11
 342              	.L12:
 343              		.loc 1 359 3 discriminator 2
 344 0028 FB68     		ldr	r3, [r7, #12]
 345 002a 0122     		movs	r2, #1
 346 002c 83F83C20 		strb	r2, [r3, #60]
 360:./Libraries/STM32H7xx_HAL_Driver/Src/stm32h7xx_hal_mdma.c **** 
 361:./Libraries/STM32H7xx_HAL_Driver/Src/stm32h7xx_hal_mdma.c ****   if(HAL_MDMA_STATE_READY == hmdma->State)
 347              		.loc 1 361 35 is_stmt 1 discriminator 2
 348 0030 FB68     		ldr	r3, [r7, #12]
 349 0032 93F83D30 		ldrb	r3, [r3, #61]
 350 0036 DBB2     		uxtb	r3, r3
 351              		.loc 1 361 5 discriminator 2
 352 0038 012B     		cmp	r3, #1
 353 003a 26D1     		bne	.L13
 362:./Libraries/STM32H7xx_HAL_Driver/Src/stm32h7xx_hal_mdma.c ****   {
 363:./Libraries/STM32H7xx_HAL_Driver/Src/stm32h7xx_hal_mdma.c ****     /* if HW request set Post Request MaskAddress and MaskData,  */
 364:./Libraries/STM32H7xx_HAL_Driver/Src/stm32h7xx_hal_mdma.c ****     if((hmdma->Instance->CTCR & MDMA_CTCR_SWRM) == 0U)
 354              		.loc 1 364 14
 355 003c FB68     		ldr	r3, [r7, #12]
 356 003e 1B68     		ldr	r3, [r3]
 357              		.loc 1 364 24
 358 0040 1B69     		ldr	r3, [r3, #16]
 359              		.loc 1 364 31
 360 0042 03F08043 		and	r3, r3, #1073741824
 361              		.loc 1 364 7
 362 0046 002B     		cmp	r3, #0
 363 0048 1CD1     		bne	.L14
 365:./Libraries/STM32H7xx_HAL_Driver/Src/stm32h7xx_hal_mdma.c ****     {
 366:./Libraries/STM32H7xx_HAL_Driver/Src/stm32h7xx_hal_mdma.c ****       /* Set the HW request clear Mask and Data */
 367:./Libraries/STM32H7xx_HAL_Driver/Src/stm32h7xx_hal_mdma.c ****       hmdma->Instance->CMAR = MaskAddress;
 364              		.loc 1 367 12
 365 004a FB68     		ldr	r3, [r7, #12]
 366 004c 1B68     		ldr	r3, [r3]
 367              		.loc 1 367 29
 368 004e BA68     		ldr	r2, [r7, #8]
 369 0050 1A63     		str	r2, [r3, #48]
 368:./Libraries/STM32H7xx_HAL_Driver/Src/stm32h7xx_hal_mdma.c ****       hmdma->Instance->CMDR = MaskData;
 370              		.loc 1 368 12
 371 0052 FB68     		ldr	r3, [r7, #12]
 372 0054 1B68     		ldr	r3, [r3]
 373              		.loc 1 368 29
 374 0056 7A68     		ldr	r2, [r7, #4]
ARM GAS  /tmp/ccZsyCUo.s 			page 14


 375 0058 5A63     		str	r2, [r3, #52]
 369:./Libraries/STM32H7xx_HAL_Driver/Src/stm32h7xx_hal_mdma.c **** 
 370:./Libraries/STM32H7xx_HAL_Driver/Src/stm32h7xx_hal_mdma.c ****       /*
 371:./Libraries/STM32H7xx_HAL_Driver/Src/stm32h7xx_hal_mdma.c ****       -If the request is done by SW : BWM could be set to 1 or 0.
 372:./Libraries/STM32H7xx_HAL_Driver/Src/stm32h7xx_hal_mdma.c ****       -If the request is done by a peripheral :
 373:./Libraries/STM32H7xx_HAL_Driver/Src/stm32h7xx_hal_mdma.c ****          If mask address not set (0) => BWM must be set to 0
 374:./Libraries/STM32H7xx_HAL_Driver/Src/stm32h7xx_hal_mdma.c ****          If mask address set (different than 0) => BWM could be set to 1 or 0
 375:./Libraries/STM32H7xx_HAL_Driver/Src/stm32h7xx_hal_mdma.c ****       */
 376:./Libraries/STM32H7xx_HAL_Driver/Src/stm32h7xx_hal_mdma.c ****       if(MaskAddress == 0U)
 376              		.loc 1 376 9
 377 005a BB68     		ldr	r3, [r7, #8]
 378 005c 002B     		cmp	r3, #0
 379 005e 08D1     		bne	.L15
 377:./Libraries/STM32H7xx_HAL_Driver/Src/stm32h7xx_hal_mdma.c ****       {
 378:./Libraries/STM32H7xx_HAL_Driver/Src/stm32h7xx_hal_mdma.c ****         hmdma->Instance->CTCR &=  ~MDMA_CTCR_BWM;
 380              		.loc 1 378 14
 381 0060 FB68     		ldr	r3, [r7, #12]
 382 0062 1B68     		ldr	r3, [r3]
 383              		.loc 1 378 31
 384 0064 1A69     		ldr	r2, [r3, #16]
 385              		.loc 1 378 14
 386 0066 FB68     		ldr	r3, [r7, #12]
 387 0068 1B68     		ldr	r3, [r3]
 388              		.loc 1 378 31
 389 006a 22F00042 		bic	r2, r2, #-2147483648
 390 006e 1A61     		str	r2, [r3, #16]
 391 0070 0DE0     		b	.L16
 392              	.L15:
 379:./Libraries/STM32H7xx_HAL_Driver/Src/stm32h7xx_hal_mdma.c ****       }
 380:./Libraries/STM32H7xx_HAL_Driver/Src/stm32h7xx_hal_mdma.c ****       else
 381:./Libraries/STM32H7xx_HAL_Driver/Src/stm32h7xx_hal_mdma.c ****       {
 382:./Libraries/STM32H7xx_HAL_Driver/Src/stm32h7xx_hal_mdma.c ****         hmdma->Instance->CTCR |=  MDMA_CTCR_BWM;
 393              		.loc 1 382 14
 394 0072 FB68     		ldr	r3, [r7, #12]
 395 0074 1B68     		ldr	r3, [r3]
 396              		.loc 1 382 31
 397 0076 1A69     		ldr	r2, [r3, #16]
 398              		.loc 1 382 14
 399 0078 FB68     		ldr	r3, [r7, #12]
 400 007a 1B68     		ldr	r3, [r3]
 401              		.loc 1 382 31
 402 007c 42F00042 		orr	r2, r2, #-2147483648
 403 0080 1A61     		str	r2, [r3, #16]
 404 0082 04E0     		b	.L16
 405              	.L14:
 383:./Libraries/STM32H7xx_HAL_Driver/Src/stm32h7xx_hal_mdma.c ****       }
 384:./Libraries/STM32H7xx_HAL_Driver/Src/stm32h7xx_hal_mdma.c ****     }
 385:./Libraries/STM32H7xx_HAL_Driver/Src/stm32h7xx_hal_mdma.c ****     else
 386:./Libraries/STM32H7xx_HAL_Driver/Src/stm32h7xx_hal_mdma.c ****     {
 387:./Libraries/STM32H7xx_HAL_Driver/Src/stm32h7xx_hal_mdma.c ****       /* Return error status */
 388:./Libraries/STM32H7xx_HAL_Driver/Src/stm32h7xx_hal_mdma.c ****       status =  HAL_ERROR;
 406              		.loc 1 388 14
 407 0084 0123     		movs	r3, #1
 408 0086 FB75     		strb	r3, [r7, #23]
 409 0088 01E0     		b	.L16
 410              	.L13:
 389:./Libraries/STM32H7xx_HAL_Driver/Src/stm32h7xx_hal_mdma.c ****     }
ARM GAS  /tmp/ccZsyCUo.s 			page 15


 390:./Libraries/STM32H7xx_HAL_Driver/Src/stm32h7xx_hal_mdma.c ****   }
 391:./Libraries/STM32H7xx_HAL_Driver/Src/stm32h7xx_hal_mdma.c ****   else
 392:./Libraries/STM32H7xx_HAL_Driver/Src/stm32h7xx_hal_mdma.c ****   {
 393:./Libraries/STM32H7xx_HAL_Driver/Src/stm32h7xx_hal_mdma.c ****     /* Return error status */
 394:./Libraries/STM32H7xx_HAL_Driver/Src/stm32h7xx_hal_mdma.c ****     status =  HAL_ERROR;
 411              		.loc 1 394 12
 412 008a 0123     		movs	r3, #1
 413 008c FB75     		strb	r3, [r7, #23]
 414              	.L16:
 395:./Libraries/STM32H7xx_HAL_Driver/Src/stm32h7xx_hal_mdma.c ****   }
 396:./Libraries/STM32H7xx_HAL_Driver/Src/stm32h7xx_hal_mdma.c ****   /* Release Lock */
 397:./Libraries/STM32H7xx_HAL_Driver/Src/stm32h7xx_hal_mdma.c ****   __HAL_UNLOCK(hmdma);
 415              		.loc 1 397 3
 416 008e FB68     		ldr	r3, [r7, #12]
 417 0090 0022     		movs	r2, #0
 418 0092 83F83C20 		strb	r2, [r3, #60]
 398:./Libraries/STM32H7xx_HAL_Driver/Src/stm32h7xx_hal_mdma.c **** 
 399:./Libraries/STM32H7xx_HAL_Driver/Src/stm32h7xx_hal_mdma.c ****   return status;
 419              		.loc 1 399 10
 420 0096 FB7D     		ldrb	r3, [r7, #23]	@ zero_extendqisi2
 421              	.L11:
 400:./Libraries/STM32H7xx_HAL_Driver/Src/stm32h7xx_hal_mdma.c **** }
 422              		.loc 1 400 1
 423 0098 1846     		mov	r0, r3
 424 009a 1C37     		adds	r7, r7, #28
 425              	.LCFI14:
 426              		.cfi_def_cfa_offset 4
 427 009c BD46     		mov	sp, r7
 428              	.LCFI15:
 429              		.cfi_def_cfa_register 13
 430              		@ sp needed
 431 009e 5DF8047B 		ldr	r7, [sp], #4
 432              	.LCFI16:
 433              		.cfi_restore 7
 434              		.cfi_def_cfa_offset 0
 435 00a2 7047     		bx	lr
 436              		.cfi_endproc
 437              	.LFE333:
 439              		.section	.text.HAL_MDMA_RegisterCallback,"ax",%progbits
 440              		.align	1
 441              		.global	HAL_MDMA_RegisterCallback
 442              		.syntax unified
 443              		.thumb
 444              		.thumb_func
 445              		.fpu fpv5-d16
 447              	HAL_MDMA_RegisterCallback:
 448              	.LFB334:
 401:./Libraries/STM32H7xx_HAL_Driver/Src/stm32h7xx_hal_mdma.c **** 
 402:./Libraries/STM32H7xx_HAL_Driver/Src/stm32h7xx_hal_mdma.c **** /**
 403:./Libraries/STM32H7xx_HAL_Driver/Src/stm32h7xx_hal_mdma.c ****   * @brief  Register callbacks
 404:./Libraries/STM32H7xx_HAL_Driver/Src/stm32h7xx_hal_mdma.c ****   * @param  hmdma:                pointer to a MDMA_HandleTypeDef structure that contains
 405:./Libraries/STM32H7xx_HAL_Driver/Src/stm32h7xx_hal_mdma.c ****   *                               the configuration information for the specified MDMA Channel.
 406:./Libraries/STM32H7xx_HAL_Driver/Src/stm32h7xx_hal_mdma.c ****   * @param  CallbackID:           User Callback identifier
 407:./Libraries/STM32H7xx_HAL_Driver/Src/stm32h7xx_hal_mdma.c ****   * @param  pCallback:            pointer to callbacsk function.
 408:./Libraries/STM32H7xx_HAL_Driver/Src/stm32h7xx_hal_mdma.c ****   * @retval HAL status
 409:./Libraries/STM32H7xx_HAL_Driver/Src/stm32h7xx_hal_mdma.c ****   */
 410:./Libraries/STM32H7xx_HAL_Driver/Src/stm32h7xx_hal_mdma.c **** HAL_StatusTypeDef HAL_MDMA_RegisterCallback(MDMA_HandleTypeDef *hmdma, HAL_MDMA_CallbackIDTypeDef C
ARM GAS  /tmp/ccZsyCUo.s 			page 16


 411:./Libraries/STM32H7xx_HAL_Driver/Src/stm32h7xx_hal_mdma.c **** {
 449              		.loc 1 411 1
 450              		.cfi_startproc
 451              		@ args = 0, pretend = 0, frame = 24
 452              		@ frame_needed = 1, uses_anonymous_args = 0
 453              		@ link register save eliminated.
 454 0000 80B4     		push	{r7}
 455              	.LCFI17:
 456              		.cfi_def_cfa_offset 4
 457              		.cfi_offset 7, -4
 458 0002 87B0     		sub	sp, sp, #28
 459              	.LCFI18:
 460              		.cfi_def_cfa_offset 32
 461 0004 00AF     		add	r7, sp, #0
 462              	.LCFI19:
 463              		.cfi_def_cfa_register 7
 464 0006 F860     		str	r0, [r7, #12]
 465 0008 0B46     		mov	r3, r1
 466 000a 7A60     		str	r2, [r7, #4]
 467 000c FB72     		strb	r3, [r7, #11]
 412:./Libraries/STM32H7xx_HAL_Driver/Src/stm32h7xx_hal_mdma.c ****   HAL_StatusTypeDef status = HAL_OK;
 468              		.loc 1 412 21
 469 000e 0023     		movs	r3, #0
 470 0010 FB75     		strb	r3, [r7, #23]
 413:./Libraries/STM32H7xx_HAL_Driver/Src/stm32h7xx_hal_mdma.c **** 
 414:./Libraries/STM32H7xx_HAL_Driver/Src/stm32h7xx_hal_mdma.c ****   /* Check the MDMA peripheral handle */
 415:./Libraries/STM32H7xx_HAL_Driver/Src/stm32h7xx_hal_mdma.c ****   if(hmdma == NULL)
 471              		.loc 1 415 5
 472 0012 FB68     		ldr	r3, [r7, #12]
 473 0014 002B     		cmp	r3, #0
 474 0016 01D1     		bne	.L18
 416:./Libraries/STM32H7xx_HAL_Driver/Src/stm32h7xx_hal_mdma.c ****   {
 417:./Libraries/STM32H7xx_HAL_Driver/Src/stm32h7xx_hal_mdma.c ****     return HAL_ERROR;
 475              		.loc 1 417 12
 476 0018 0123     		movs	r3, #1
 477 001a 44E0     		b	.L19
 478              	.L18:
 418:./Libraries/STM32H7xx_HAL_Driver/Src/stm32h7xx_hal_mdma.c ****   }
 419:./Libraries/STM32H7xx_HAL_Driver/Src/stm32h7xx_hal_mdma.c **** 
 420:./Libraries/STM32H7xx_HAL_Driver/Src/stm32h7xx_hal_mdma.c ****   /* Process locked */
 421:./Libraries/STM32H7xx_HAL_Driver/Src/stm32h7xx_hal_mdma.c ****   __HAL_LOCK(hmdma);
 479              		.loc 1 421 3
 480 001c FB68     		ldr	r3, [r7, #12]
 481 001e 93F83C30 		ldrb	r3, [r3, #60]	@ zero_extendqisi2
 482 0022 012B     		cmp	r3, #1
 483 0024 01D1     		bne	.L20
 484              		.loc 1 421 3 is_stmt 0 discriminator 1
 485 0026 0223     		movs	r3, #2
 486 0028 3DE0     		b	.L19
 487              	.L20:
 488              		.loc 1 421 3 discriminator 2
 489 002a FB68     		ldr	r3, [r7, #12]
 490 002c 0122     		movs	r2, #1
 491 002e 83F83C20 		strb	r2, [r3, #60]
 422:./Libraries/STM32H7xx_HAL_Driver/Src/stm32h7xx_hal_mdma.c **** 
 423:./Libraries/STM32H7xx_HAL_Driver/Src/stm32h7xx_hal_mdma.c ****   if(HAL_MDMA_STATE_READY == hmdma->State)
 492              		.loc 1 423 35 is_stmt 1 discriminator 2
ARM GAS  /tmp/ccZsyCUo.s 			page 17


 493 0032 FB68     		ldr	r3, [r7, #12]
 494 0034 93F83D30 		ldrb	r3, [r3, #61]
 495 0038 DBB2     		uxtb	r3, r3
 496              		.loc 1 423 5 discriminator 2
 497 003a 012B     		cmp	r3, #1
 498 003c 2AD1     		bne	.L21
 424:./Libraries/STM32H7xx_HAL_Driver/Src/stm32h7xx_hal_mdma.c ****   {
 425:./Libraries/STM32H7xx_HAL_Driver/Src/stm32h7xx_hal_mdma.c ****     switch (CallbackID)
 499              		.loc 1 425 5
 500 003e FB7A     		ldrb	r3, [r7, #11]	@ zero_extendqisi2
 501 0040 052B     		cmp	r3, #5
 502 0042 2AD8     		bhi	.L32
 503 0044 01A2     		adr	r2, .L24
 504 0046 52F823F0 		ldr	pc, [r2, r3, lsl #2]
 505 004a 00BF     		.p2align 2
 506              	.L24:
 507 004c 65000000 		.word	.L29+1
 508 0050 6D000000 		.word	.L28+1
 509 0054 75000000 		.word	.L27+1
 510 0058 7D000000 		.word	.L26+1
 511 005c 85000000 		.word	.L25+1
 512 0060 8D000000 		.word	.L23+1
 513              		.p2align 1
 514              	.L29:
 426:./Libraries/STM32H7xx_HAL_Driver/Src/stm32h7xx_hal_mdma.c ****     {
 427:./Libraries/STM32H7xx_HAL_Driver/Src/stm32h7xx_hal_mdma.c ****     case  HAL_MDMA_XFER_CPLT_CB_ID:
 428:./Libraries/STM32H7xx_HAL_Driver/Src/stm32h7xx_hal_mdma.c ****       hmdma->XferCpltCallback = pCallback;
 515              		.loc 1 428 31
 516 0064 FB68     		ldr	r3, [r7, #12]
 517 0066 7A68     		ldr	r2, [r7, #4]
 518 0068 5A64     		str	r2, [r3, #68]
 429:./Libraries/STM32H7xx_HAL_Driver/Src/stm32h7xx_hal_mdma.c ****       break;
 519              		.loc 1 429 7
 520 006a 17E0     		b	.L31
 521              	.L28:
 430:./Libraries/STM32H7xx_HAL_Driver/Src/stm32h7xx_hal_mdma.c **** 
 431:./Libraries/STM32H7xx_HAL_Driver/Src/stm32h7xx_hal_mdma.c ****     case  HAL_MDMA_XFER_BUFFERCPLT_CB_ID:
 432:./Libraries/STM32H7xx_HAL_Driver/Src/stm32h7xx_hal_mdma.c ****       hmdma->XferBufferCpltCallback = pCallback;
 522              		.loc 1 432 37
 523 006c FB68     		ldr	r3, [r7, #12]
 524 006e 7A68     		ldr	r2, [r7, #4]
 525 0070 9A64     		str	r2, [r3, #72]
 433:./Libraries/STM32H7xx_HAL_Driver/Src/stm32h7xx_hal_mdma.c ****       break;
 526              		.loc 1 433 7
 527 0072 13E0     		b	.L31
 528              	.L27:
 434:./Libraries/STM32H7xx_HAL_Driver/Src/stm32h7xx_hal_mdma.c **** 
 435:./Libraries/STM32H7xx_HAL_Driver/Src/stm32h7xx_hal_mdma.c ****     case  HAL_MDMA_XFER_BLOCKCPLT_CB_ID:
 436:./Libraries/STM32H7xx_HAL_Driver/Src/stm32h7xx_hal_mdma.c ****       hmdma->XferBlockCpltCallback = pCallback;
 529              		.loc 1 436 36
 530 0074 FB68     		ldr	r3, [r7, #12]
 531 0076 7A68     		ldr	r2, [r7, #4]
 532 0078 DA64     		str	r2, [r3, #76]
 437:./Libraries/STM32H7xx_HAL_Driver/Src/stm32h7xx_hal_mdma.c ****       break;
 533              		.loc 1 437 7
 534 007a 0FE0     		b	.L31
 535              	.L26:
ARM GAS  /tmp/ccZsyCUo.s 			page 18


 438:./Libraries/STM32H7xx_HAL_Driver/Src/stm32h7xx_hal_mdma.c **** 
 439:./Libraries/STM32H7xx_HAL_Driver/Src/stm32h7xx_hal_mdma.c ****     case  HAL_MDMA_XFER_REPBLOCKCPLT_CB_ID:
 440:./Libraries/STM32H7xx_HAL_Driver/Src/stm32h7xx_hal_mdma.c ****       hmdma->XferRepeatBlockCpltCallback = pCallback;
 536              		.loc 1 440 42
 537 007c FB68     		ldr	r3, [r7, #12]
 538 007e 7A68     		ldr	r2, [r7, #4]
 539 0080 1A65     		str	r2, [r3, #80]
 441:./Libraries/STM32H7xx_HAL_Driver/Src/stm32h7xx_hal_mdma.c ****       break;
 540              		.loc 1 441 7
 541 0082 0BE0     		b	.L31
 542              	.L25:
 442:./Libraries/STM32H7xx_HAL_Driver/Src/stm32h7xx_hal_mdma.c **** 
 443:./Libraries/STM32H7xx_HAL_Driver/Src/stm32h7xx_hal_mdma.c ****     case  HAL_MDMA_XFER_ERROR_CB_ID:
 444:./Libraries/STM32H7xx_HAL_Driver/Src/stm32h7xx_hal_mdma.c ****       hmdma->XferErrorCallback = pCallback;
 543              		.loc 1 444 32
 544 0084 FB68     		ldr	r3, [r7, #12]
 545 0086 7A68     		ldr	r2, [r7, #4]
 546 0088 5A65     		str	r2, [r3, #84]
 445:./Libraries/STM32H7xx_HAL_Driver/Src/stm32h7xx_hal_mdma.c ****       break;
 547              		.loc 1 445 7
 548 008a 07E0     		b	.L31
 549              	.L23:
 446:./Libraries/STM32H7xx_HAL_Driver/Src/stm32h7xx_hal_mdma.c **** 
 447:./Libraries/STM32H7xx_HAL_Driver/Src/stm32h7xx_hal_mdma.c ****     case  HAL_MDMA_XFER_ABORT_CB_ID:
 448:./Libraries/STM32H7xx_HAL_Driver/Src/stm32h7xx_hal_mdma.c ****       hmdma->XferAbortCallback = pCallback;
 550              		.loc 1 448 32
 551 008c FB68     		ldr	r3, [r7, #12]
 552 008e 7A68     		ldr	r2, [r7, #4]
 553 0090 9A65     		str	r2, [r3, #88]
 449:./Libraries/STM32H7xx_HAL_Driver/Src/stm32h7xx_hal_mdma.c ****       break;
 554              		.loc 1 449 7
 555 0092 03E0     		b	.L31
 556              	.L21:
 450:./Libraries/STM32H7xx_HAL_Driver/Src/stm32h7xx_hal_mdma.c **** 
 451:./Libraries/STM32H7xx_HAL_Driver/Src/stm32h7xx_hal_mdma.c ****     default:
 452:./Libraries/STM32H7xx_HAL_Driver/Src/stm32h7xx_hal_mdma.c ****       break;
 453:./Libraries/STM32H7xx_HAL_Driver/Src/stm32h7xx_hal_mdma.c ****     }
 454:./Libraries/STM32H7xx_HAL_Driver/Src/stm32h7xx_hal_mdma.c ****   }
 455:./Libraries/STM32H7xx_HAL_Driver/Src/stm32h7xx_hal_mdma.c ****   else
 456:./Libraries/STM32H7xx_HAL_Driver/Src/stm32h7xx_hal_mdma.c ****   {
 457:./Libraries/STM32H7xx_HAL_Driver/Src/stm32h7xx_hal_mdma.c ****     /* Return error status */
 458:./Libraries/STM32H7xx_HAL_Driver/Src/stm32h7xx_hal_mdma.c ****     status =  HAL_ERROR;
 557              		.loc 1 458 12
 558 0094 0123     		movs	r3, #1
 559 0096 FB75     		strb	r3, [r7, #23]
 560 0098 00E0     		b	.L31
 561              	.L32:
 452:./Libraries/STM32H7xx_HAL_Driver/Src/stm32h7xx_hal_mdma.c ****     }
 562              		.loc 1 452 7
 563 009a 00BF     		nop
 564              	.L31:
 459:./Libraries/STM32H7xx_HAL_Driver/Src/stm32h7xx_hal_mdma.c ****   }
 460:./Libraries/STM32H7xx_HAL_Driver/Src/stm32h7xx_hal_mdma.c **** 
 461:./Libraries/STM32H7xx_HAL_Driver/Src/stm32h7xx_hal_mdma.c ****   /* Release Lock */
 462:./Libraries/STM32H7xx_HAL_Driver/Src/stm32h7xx_hal_mdma.c ****   __HAL_UNLOCK(hmdma);
 565              		.loc 1 462 3
 566 009c FB68     		ldr	r3, [r7, #12]
ARM GAS  /tmp/ccZsyCUo.s 			page 19


 567 009e 0022     		movs	r2, #0
 568 00a0 83F83C20 		strb	r2, [r3, #60]
 463:./Libraries/STM32H7xx_HAL_Driver/Src/stm32h7xx_hal_mdma.c **** 
 464:./Libraries/STM32H7xx_HAL_Driver/Src/stm32h7xx_hal_mdma.c ****   return status;
 569              		.loc 1 464 10
 570 00a4 FB7D     		ldrb	r3, [r7, #23]	@ zero_extendqisi2
 571              	.L19:
 465:./Libraries/STM32H7xx_HAL_Driver/Src/stm32h7xx_hal_mdma.c **** }
 572              		.loc 1 465 1
 573 00a6 1846     		mov	r0, r3
 574 00a8 1C37     		adds	r7, r7, #28
 575              	.LCFI20:
 576              		.cfi_def_cfa_offset 4
 577 00aa BD46     		mov	sp, r7
 578              	.LCFI21:
 579              		.cfi_def_cfa_register 13
 580              		@ sp needed
 581 00ac 5DF8047B 		ldr	r7, [sp], #4
 582              	.LCFI22:
 583              		.cfi_restore 7
 584              		.cfi_def_cfa_offset 0
 585 00b0 7047     		bx	lr
 586              		.cfi_endproc
 587              	.LFE334:
 589 00b2 00BF     		.section	.text.HAL_MDMA_UnRegisterCallback,"ax",%progbits
 590              		.align	1
 591              		.global	HAL_MDMA_UnRegisterCallback
 592              		.syntax unified
 593              		.thumb
 594              		.thumb_func
 595              		.fpu fpv5-d16
 597              	HAL_MDMA_UnRegisterCallback:
 598              	.LFB335:
 466:./Libraries/STM32H7xx_HAL_Driver/Src/stm32h7xx_hal_mdma.c **** 
 467:./Libraries/STM32H7xx_HAL_Driver/Src/stm32h7xx_hal_mdma.c **** /**
 468:./Libraries/STM32H7xx_HAL_Driver/Src/stm32h7xx_hal_mdma.c ****   * @brief  UnRegister callbacks
 469:./Libraries/STM32H7xx_HAL_Driver/Src/stm32h7xx_hal_mdma.c ****   * @param  hmdma:                 pointer to a MDMA_HandleTypeDef structure that contains
 470:./Libraries/STM32H7xx_HAL_Driver/Src/stm32h7xx_hal_mdma.c ****   *                               the configuration information for the specified MDMA Channel.
 471:./Libraries/STM32H7xx_HAL_Driver/Src/stm32h7xx_hal_mdma.c ****   * @param  CallbackID:           User Callback identifier
 472:./Libraries/STM32H7xx_HAL_Driver/Src/stm32h7xx_hal_mdma.c ****   *                               a HAL_MDMA_CallbackIDTypeDef ENUM as parameter.
 473:./Libraries/STM32H7xx_HAL_Driver/Src/stm32h7xx_hal_mdma.c ****   * @retval HAL status
 474:./Libraries/STM32H7xx_HAL_Driver/Src/stm32h7xx_hal_mdma.c ****   */
 475:./Libraries/STM32H7xx_HAL_Driver/Src/stm32h7xx_hal_mdma.c **** HAL_StatusTypeDef HAL_MDMA_UnRegisterCallback(MDMA_HandleTypeDef *hmdma, HAL_MDMA_CallbackIDTypeDef
 476:./Libraries/STM32H7xx_HAL_Driver/Src/stm32h7xx_hal_mdma.c **** {
 599              		.loc 1 476 1
 600              		.cfi_startproc
 601              		@ args = 0, pretend = 0, frame = 16
 602              		@ frame_needed = 1, uses_anonymous_args = 0
 603              		@ link register save eliminated.
 604 0000 80B4     		push	{r7}
 605              	.LCFI23:
 606              		.cfi_def_cfa_offset 4
 607              		.cfi_offset 7, -4
 608 0002 85B0     		sub	sp, sp, #20
 609              	.LCFI24:
 610              		.cfi_def_cfa_offset 24
 611 0004 00AF     		add	r7, sp, #0
ARM GAS  /tmp/ccZsyCUo.s 			page 20


 612              	.LCFI25:
 613              		.cfi_def_cfa_register 7
 614 0006 7860     		str	r0, [r7, #4]
 615 0008 0B46     		mov	r3, r1
 616 000a FB70     		strb	r3, [r7, #3]
 477:./Libraries/STM32H7xx_HAL_Driver/Src/stm32h7xx_hal_mdma.c ****   HAL_StatusTypeDef status = HAL_OK;
 617              		.loc 1 477 21
 618 000c 0023     		movs	r3, #0
 619 000e FB73     		strb	r3, [r7, #15]
 478:./Libraries/STM32H7xx_HAL_Driver/Src/stm32h7xx_hal_mdma.c **** 
 479:./Libraries/STM32H7xx_HAL_Driver/Src/stm32h7xx_hal_mdma.c ****   /* Check the MDMA peripheral handle */
 480:./Libraries/STM32H7xx_HAL_Driver/Src/stm32h7xx_hal_mdma.c ****   if(hmdma == NULL)
 620              		.loc 1 480 5
 621 0010 7B68     		ldr	r3, [r7, #4]
 622 0012 002B     		cmp	r3, #0
 623 0014 01D1     		bne	.L34
 481:./Libraries/STM32H7xx_HAL_Driver/Src/stm32h7xx_hal_mdma.c ****   {
 482:./Libraries/STM32H7xx_HAL_Driver/Src/stm32h7xx_hal_mdma.c ****     return HAL_ERROR;
 624              		.loc 1 482 12
 625 0016 0123     		movs	r3, #1
 626 0018 59E0     		b	.L35
 627              	.L34:
 483:./Libraries/STM32H7xx_HAL_Driver/Src/stm32h7xx_hal_mdma.c ****   }
 484:./Libraries/STM32H7xx_HAL_Driver/Src/stm32h7xx_hal_mdma.c **** 
 485:./Libraries/STM32H7xx_HAL_Driver/Src/stm32h7xx_hal_mdma.c ****   /* Process locked */
 486:./Libraries/STM32H7xx_HAL_Driver/Src/stm32h7xx_hal_mdma.c ****   __HAL_LOCK(hmdma);
 628              		.loc 1 486 3
 629 001a 7B68     		ldr	r3, [r7, #4]
 630 001c 93F83C30 		ldrb	r3, [r3, #60]	@ zero_extendqisi2
 631 0020 012B     		cmp	r3, #1
 632 0022 01D1     		bne	.L36
 633              		.loc 1 486 3 is_stmt 0 discriminator 1
 634 0024 0223     		movs	r3, #2
 635 0026 52E0     		b	.L35
 636              	.L36:
 637              		.loc 1 486 3 discriminator 2
 638 0028 7B68     		ldr	r3, [r7, #4]
 639 002a 0122     		movs	r2, #1
 640 002c 83F83C20 		strb	r2, [r3, #60]
 487:./Libraries/STM32H7xx_HAL_Driver/Src/stm32h7xx_hal_mdma.c **** 
 488:./Libraries/STM32H7xx_HAL_Driver/Src/stm32h7xx_hal_mdma.c ****   if(HAL_MDMA_STATE_READY == hmdma->State)
 641              		.loc 1 488 35 is_stmt 1 discriminator 2
 642 0030 7B68     		ldr	r3, [r7, #4]
 643 0032 93F83D30 		ldrb	r3, [r3, #61]
 644 0036 DBB2     		uxtb	r3, r3
 645              		.loc 1 488 5 discriminator 2
 646 0038 012B     		cmp	r3, #1
 647 003a 41D1     		bne	.L37
 489:./Libraries/STM32H7xx_HAL_Driver/Src/stm32h7xx_hal_mdma.c ****   {
 490:./Libraries/STM32H7xx_HAL_Driver/Src/stm32h7xx_hal_mdma.c ****     switch (CallbackID)
 648              		.loc 1 490 5
 649 003c FB78     		ldrb	r3, [r7, #3]	@ zero_extendqisi2
 650 003e 062B     		cmp	r3, #6
 651 0040 3BD8     		bhi	.L38
 652 0042 01A2     		adr	r2, .L40
 653 0044 52F823F0 		ldr	pc, [r2, r3, lsl #2]
 654              		.p2align 2
ARM GAS  /tmp/ccZsyCUo.s 			page 21


 655              	.L40:
 656 0048 65000000 		.word	.L46+1
 657 004c 6D000000 		.word	.L45+1
 658 0050 75000000 		.word	.L44+1
 659 0054 7D000000 		.word	.L43+1
 660 0058 85000000 		.word	.L42+1
 661 005c 8D000000 		.word	.L41+1
 662 0060 95000000 		.word	.L39+1
 663              		.p2align 1
 664              	.L46:
 491:./Libraries/STM32H7xx_HAL_Driver/Src/stm32h7xx_hal_mdma.c ****     {
 492:./Libraries/STM32H7xx_HAL_Driver/Src/stm32h7xx_hal_mdma.c ****     case  HAL_MDMA_XFER_CPLT_CB_ID:
 493:./Libraries/STM32H7xx_HAL_Driver/Src/stm32h7xx_hal_mdma.c ****       hmdma->XferCpltCallback = NULL;
 665              		.loc 1 493 31
 666 0064 7B68     		ldr	r3, [r7, #4]
 667 0066 0022     		movs	r2, #0
 668 0068 5A64     		str	r2, [r3, #68]
 494:./Libraries/STM32H7xx_HAL_Driver/Src/stm32h7xx_hal_mdma.c ****       break;
 669              		.loc 1 494 7
 670 006a 2BE0     		b	.L48
 671              	.L45:
 495:./Libraries/STM32H7xx_HAL_Driver/Src/stm32h7xx_hal_mdma.c **** 
 496:./Libraries/STM32H7xx_HAL_Driver/Src/stm32h7xx_hal_mdma.c ****     case  HAL_MDMA_XFER_BUFFERCPLT_CB_ID:
 497:./Libraries/STM32H7xx_HAL_Driver/Src/stm32h7xx_hal_mdma.c ****       hmdma->XferBufferCpltCallback = NULL;
 672              		.loc 1 497 37
 673 006c 7B68     		ldr	r3, [r7, #4]
 674 006e 0022     		movs	r2, #0
 675 0070 9A64     		str	r2, [r3, #72]
 498:./Libraries/STM32H7xx_HAL_Driver/Src/stm32h7xx_hal_mdma.c ****       break;
 676              		.loc 1 498 7
 677 0072 27E0     		b	.L48
 678              	.L44:
 499:./Libraries/STM32H7xx_HAL_Driver/Src/stm32h7xx_hal_mdma.c **** 
 500:./Libraries/STM32H7xx_HAL_Driver/Src/stm32h7xx_hal_mdma.c ****     case  HAL_MDMA_XFER_BLOCKCPLT_CB_ID:
 501:./Libraries/STM32H7xx_HAL_Driver/Src/stm32h7xx_hal_mdma.c ****       hmdma->XferBlockCpltCallback = NULL;
 679              		.loc 1 501 36
 680 0074 7B68     		ldr	r3, [r7, #4]
 681 0076 0022     		movs	r2, #0
 682 0078 DA64     		str	r2, [r3, #76]
 502:./Libraries/STM32H7xx_HAL_Driver/Src/stm32h7xx_hal_mdma.c ****       break;
 683              		.loc 1 502 7
 684 007a 23E0     		b	.L48
 685              	.L43:
 503:./Libraries/STM32H7xx_HAL_Driver/Src/stm32h7xx_hal_mdma.c **** 
 504:./Libraries/STM32H7xx_HAL_Driver/Src/stm32h7xx_hal_mdma.c ****     case  HAL_MDMA_XFER_REPBLOCKCPLT_CB_ID:
 505:./Libraries/STM32H7xx_HAL_Driver/Src/stm32h7xx_hal_mdma.c ****       hmdma->XferRepeatBlockCpltCallback = NULL;
 686              		.loc 1 505 42
 687 007c 7B68     		ldr	r3, [r7, #4]
 688 007e 0022     		movs	r2, #0
 689 0080 1A65     		str	r2, [r3, #80]
 506:./Libraries/STM32H7xx_HAL_Driver/Src/stm32h7xx_hal_mdma.c ****       break;
 690              		.loc 1 506 7
 691 0082 1FE0     		b	.L48
 692              	.L42:
 507:./Libraries/STM32H7xx_HAL_Driver/Src/stm32h7xx_hal_mdma.c **** 
 508:./Libraries/STM32H7xx_HAL_Driver/Src/stm32h7xx_hal_mdma.c ****     case  HAL_MDMA_XFER_ERROR_CB_ID:
 509:./Libraries/STM32H7xx_HAL_Driver/Src/stm32h7xx_hal_mdma.c ****       hmdma->XferErrorCallback = NULL;
ARM GAS  /tmp/ccZsyCUo.s 			page 22


 693              		.loc 1 509 32
 694 0084 7B68     		ldr	r3, [r7, #4]
 695 0086 0022     		movs	r2, #0
 696 0088 5A65     		str	r2, [r3, #84]
 510:./Libraries/STM32H7xx_HAL_Driver/Src/stm32h7xx_hal_mdma.c ****       break;
 697              		.loc 1 510 7
 698 008a 1BE0     		b	.L48
 699              	.L41:
 511:./Libraries/STM32H7xx_HAL_Driver/Src/stm32h7xx_hal_mdma.c **** 
 512:./Libraries/STM32H7xx_HAL_Driver/Src/stm32h7xx_hal_mdma.c ****     case  HAL_MDMA_XFER_ABORT_CB_ID:
 513:./Libraries/STM32H7xx_HAL_Driver/Src/stm32h7xx_hal_mdma.c ****       hmdma->XferAbortCallback = NULL;
 700              		.loc 1 513 32
 701 008c 7B68     		ldr	r3, [r7, #4]
 702 008e 0022     		movs	r2, #0
 703 0090 9A65     		str	r2, [r3, #88]
 514:./Libraries/STM32H7xx_HAL_Driver/Src/stm32h7xx_hal_mdma.c ****       break;
 704              		.loc 1 514 7
 705 0092 17E0     		b	.L48
 706              	.L39:
 515:./Libraries/STM32H7xx_HAL_Driver/Src/stm32h7xx_hal_mdma.c **** 
 516:./Libraries/STM32H7xx_HAL_Driver/Src/stm32h7xx_hal_mdma.c ****     case   HAL_MDMA_XFER_ALL_CB_ID:
 517:./Libraries/STM32H7xx_HAL_Driver/Src/stm32h7xx_hal_mdma.c ****       hmdma->XferCpltCallback = NULL;
 707              		.loc 1 517 31
 708 0094 7B68     		ldr	r3, [r7, #4]
 709 0096 0022     		movs	r2, #0
 710 0098 5A64     		str	r2, [r3, #68]
 518:./Libraries/STM32H7xx_HAL_Driver/Src/stm32h7xx_hal_mdma.c ****       hmdma->XferBufferCpltCallback = NULL;
 711              		.loc 1 518 37
 712 009a 7B68     		ldr	r3, [r7, #4]
 713 009c 0022     		movs	r2, #0
 714 009e 9A64     		str	r2, [r3, #72]
 519:./Libraries/STM32H7xx_HAL_Driver/Src/stm32h7xx_hal_mdma.c ****       hmdma->XferBlockCpltCallback = NULL;
 715              		.loc 1 519 36
 716 00a0 7B68     		ldr	r3, [r7, #4]
 717 00a2 0022     		movs	r2, #0
 718 00a4 DA64     		str	r2, [r3, #76]
 520:./Libraries/STM32H7xx_HAL_Driver/Src/stm32h7xx_hal_mdma.c ****       hmdma->XferRepeatBlockCpltCallback = NULL;
 719              		.loc 1 520 42
 720 00a6 7B68     		ldr	r3, [r7, #4]
 721 00a8 0022     		movs	r2, #0
 722 00aa 1A65     		str	r2, [r3, #80]
 521:./Libraries/STM32H7xx_HAL_Driver/Src/stm32h7xx_hal_mdma.c ****       hmdma->XferErrorCallback = NULL;
 723              		.loc 1 521 32
 724 00ac 7B68     		ldr	r3, [r7, #4]
 725 00ae 0022     		movs	r2, #0
 726 00b0 5A65     		str	r2, [r3, #84]
 522:./Libraries/STM32H7xx_HAL_Driver/Src/stm32h7xx_hal_mdma.c ****       hmdma->XferAbortCallback = NULL;
 727              		.loc 1 522 32
 728 00b2 7B68     		ldr	r3, [r7, #4]
 729 00b4 0022     		movs	r2, #0
 730 00b6 9A65     		str	r2, [r3, #88]
 523:./Libraries/STM32H7xx_HAL_Driver/Src/stm32h7xx_hal_mdma.c ****       break;
 731              		.loc 1 523 7
 732 00b8 04E0     		b	.L48
 733              	.L38:
 524:./Libraries/STM32H7xx_HAL_Driver/Src/stm32h7xx_hal_mdma.c **** 
 525:./Libraries/STM32H7xx_HAL_Driver/Src/stm32h7xx_hal_mdma.c ****     default:
ARM GAS  /tmp/ccZsyCUo.s 			page 23


 526:./Libraries/STM32H7xx_HAL_Driver/Src/stm32h7xx_hal_mdma.c ****       status = HAL_ERROR;
 734              		.loc 1 526 14
 735 00ba 0123     		movs	r3, #1
 736 00bc FB73     		strb	r3, [r7, #15]
 527:./Libraries/STM32H7xx_HAL_Driver/Src/stm32h7xx_hal_mdma.c ****       break;
 737              		.loc 1 527 7
 738 00be 01E0     		b	.L48
 739              	.L37:
 528:./Libraries/STM32H7xx_HAL_Driver/Src/stm32h7xx_hal_mdma.c ****     }
 529:./Libraries/STM32H7xx_HAL_Driver/Src/stm32h7xx_hal_mdma.c ****   }
 530:./Libraries/STM32H7xx_HAL_Driver/Src/stm32h7xx_hal_mdma.c ****   else
 531:./Libraries/STM32H7xx_HAL_Driver/Src/stm32h7xx_hal_mdma.c ****   {
 532:./Libraries/STM32H7xx_HAL_Driver/Src/stm32h7xx_hal_mdma.c ****     status = HAL_ERROR;
 740              		.loc 1 532 12
 741 00c0 0123     		movs	r3, #1
 742 00c2 FB73     		strb	r3, [r7, #15]
 743              	.L48:
 533:./Libraries/STM32H7xx_HAL_Driver/Src/stm32h7xx_hal_mdma.c ****   }
 534:./Libraries/STM32H7xx_HAL_Driver/Src/stm32h7xx_hal_mdma.c **** 
 535:./Libraries/STM32H7xx_HAL_Driver/Src/stm32h7xx_hal_mdma.c ****   /* Release Lock */
 536:./Libraries/STM32H7xx_HAL_Driver/Src/stm32h7xx_hal_mdma.c ****   __HAL_UNLOCK(hmdma);
 744              		.loc 1 536 3
 745 00c4 7B68     		ldr	r3, [r7, #4]
 746 00c6 0022     		movs	r2, #0
 747 00c8 83F83C20 		strb	r2, [r3, #60]
 537:./Libraries/STM32H7xx_HAL_Driver/Src/stm32h7xx_hal_mdma.c **** 
 538:./Libraries/STM32H7xx_HAL_Driver/Src/stm32h7xx_hal_mdma.c ****   return status;
 748              		.loc 1 538 10
 749 00cc FB7B     		ldrb	r3, [r7, #15]	@ zero_extendqisi2
 750              	.L35:
 539:./Libraries/STM32H7xx_HAL_Driver/Src/stm32h7xx_hal_mdma.c **** }
 751              		.loc 1 539 1
 752 00ce 1846     		mov	r0, r3
 753 00d0 1437     		adds	r7, r7, #20
 754              	.LCFI26:
 755              		.cfi_def_cfa_offset 4
 756 00d2 BD46     		mov	sp, r7
 757              	.LCFI27:
 758              		.cfi_def_cfa_register 13
 759              		@ sp needed
 760 00d4 5DF8047B 		ldr	r7, [sp], #4
 761              	.LCFI28:
 762              		.cfi_restore 7
 763              		.cfi_def_cfa_offset 0
 764 00d8 7047     		bx	lr
 765              		.cfi_endproc
 766              	.LFE335:
 768 00da 00BF     		.section	.text.HAL_MDMA_LinkedList_CreateNode,"ax",%progbits
 769              		.align	1
 770              		.global	HAL_MDMA_LinkedList_CreateNode
 771              		.syntax unified
 772              		.thumb
 773              		.thumb_func
 774              		.fpu fpv5-d16
 776              	HAL_MDMA_LinkedList_CreateNode:
 777              	.LFB336:
 540:./Libraries/STM32H7xx_HAL_Driver/Src/stm32h7xx_hal_mdma.c **** 
ARM GAS  /tmp/ccZsyCUo.s 			page 24


 541:./Libraries/STM32H7xx_HAL_Driver/Src/stm32h7xx_hal_mdma.c **** /**
 542:./Libraries/STM32H7xx_HAL_Driver/Src/stm32h7xx_hal_mdma.c ****   * @}
 543:./Libraries/STM32H7xx_HAL_Driver/Src/stm32h7xx_hal_mdma.c ****   */
 544:./Libraries/STM32H7xx_HAL_Driver/Src/stm32h7xx_hal_mdma.c **** 
 545:./Libraries/STM32H7xx_HAL_Driver/Src/stm32h7xx_hal_mdma.c **** /** @addtogroup MDMA_Exported_Functions_Group2
 546:./Libraries/STM32H7xx_HAL_Driver/Src/stm32h7xx_hal_mdma.c ****  *
 547:./Libraries/STM32H7xx_HAL_Driver/Src/stm32h7xx_hal_mdma.c **** @verbatim
 548:./Libraries/STM32H7xx_HAL_Driver/Src/stm32h7xx_hal_mdma.c ****  ===============================================================================
 549:./Libraries/STM32H7xx_HAL_Driver/Src/stm32h7xx_hal_mdma.c ****                       #####  Linked list operation functions  #####
 550:./Libraries/STM32H7xx_HAL_Driver/Src/stm32h7xx_hal_mdma.c ****  ===============================================================================
 551:./Libraries/STM32H7xx_HAL_Driver/Src/stm32h7xx_hal_mdma.c ****     [..]  This section provides functions allowing to:
 552:./Libraries/STM32H7xx_HAL_Driver/Src/stm32h7xx_hal_mdma.c ****       (+) Create a linked list node
 553:./Libraries/STM32H7xx_HAL_Driver/Src/stm32h7xx_hal_mdma.c ****       (+) Add a node to the MDMA linked list
 554:./Libraries/STM32H7xx_HAL_Driver/Src/stm32h7xx_hal_mdma.c ****       (+) Remove a node from the MDMA linked list
 555:./Libraries/STM32H7xx_HAL_Driver/Src/stm32h7xx_hal_mdma.c ****       (+) Enable/Disable linked list circular mode
 556:./Libraries/STM32H7xx_HAL_Driver/Src/stm32h7xx_hal_mdma.c **** @endverbatim
 557:./Libraries/STM32H7xx_HAL_Driver/Src/stm32h7xx_hal_mdma.c ****   * @{
 558:./Libraries/STM32H7xx_HAL_Driver/Src/stm32h7xx_hal_mdma.c ****   */
 559:./Libraries/STM32H7xx_HAL_Driver/Src/stm32h7xx_hal_mdma.c **** 
 560:./Libraries/STM32H7xx_HAL_Driver/Src/stm32h7xx_hal_mdma.c **** /**
 561:./Libraries/STM32H7xx_HAL_Driver/Src/stm32h7xx_hal_mdma.c ****   * @brief  Initializes an MDMA Link Node according to the specified
 562:./Libraries/STM32H7xx_HAL_Driver/Src/stm32h7xx_hal_mdma.c ****   *         parameters in the pMDMA_LinkedListNodeConfig .
 563:./Libraries/STM32H7xx_HAL_Driver/Src/stm32h7xx_hal_mdma.c ****   * @param  pNode: Pointer to a MDMA_LinkNodeTypeDef structure that contains Linked list node
 564:./Libraries/STM32H7xx_HAL_Driver/Src/stm32h7xx_hal_mdma.c ****   *         registers configurations.
 565:./Libraries/STM32H7xx_HAL_Driver/Src/stm32h7xx_hal_mdma.c ****   * @param  pNodeConfig: Pointer to a MDMA_LinkNodeConfTypeDef structure that contains
 566:./Libraries/STM32H7xx_HAL_Driver/Src/stm32h7xx_hal_mdma.c ****   *               the configuration information for the specified MDMA Linked List Node.
 567:./Libraries/STM32H7xx_HAL_Driver/Src/stm32h7xx_hal_mdma.c ****   * @retval HAL status
 568:./Libraries/STM32H7xx_HAL_Driver/Src/stm32h7xx_hal_mdma.c ****   */
 569:./Libraries/STM32H7xx_HAL_Driver/Src/stm32h7xx_hal_mdma.c **** HAL_StatusTypeDef HAL_MDMA_LinkedList_CreateNode(MDMA_LinkNodeTypeDef *pNode, MDMA_LinkNodeConfType
 570:./Libraries/STM32H7xx_HAL_Driver/Src/stm32h7xx_hal_mdma.c **** {
 778              		.loc 1 570 1
 779              		.cfi_startproc
 780              		@ args = 0, pretend = 0, frame = 16
 781              		@ frame_needed = 1, uses_anonymous_args = 0
 782              		@ link register save eliminated.
 783 0000 80B4     		push	{r7}
 784              	.LCFI29:
 785              		.cfi_def_cfa_offset 4
 786              		.cfi_offset 7, -4
 787 0002 85B0     		sub	sp, sp, #20
 788              	.LCFI30:
 789              		.cfi_def_cfa_offset 24
 790 0004 00AF     		add	r7, sp, #0
 791              	.LCFI31:
 792              		.cfi_def_cfa_register 7
 793 0006 7860     		str	r0, [r7, #4]
 794 0008 3960     		str	r1, [r7]
 571:./Libraries/STM32H7xx_HAL_Driver/Src/stm32h7xx_hal_mdma.c ****   uint32_t addressMask;
 572:./Libraries/STM32H7xx_HAL_Driver/Src/stm32h7xx_hal_mdma.c ****   uint32_t blockoffset;
 573:./Libraries/STM32H7xx_HAL_Driver/Src/stm32h7xx_hal_mdma.c **** 
 574:./Libraries/STM32H7xx_HAL_Driver/Src/stm32h7xx_hal_mdma.c ****   /* Check the MDMA peripheral state */
 575:./Libraries/STM32H7xx_HAL_Driver/Src/stm32h7xx_hal_mdma.c ****   if((pNode == NULL) || (pNodeConfig == NULL))
 795              		.loc 1 575 5
 796 000a 7B68     		ldr	r3, [r7, #4]
 797 000c 002B     		cmp	r3, #0
 798 000e 02D0     		beq	.L50
 799              		.loc 1 575 22 discriminator 1
ARM GAS  /tmp/ccZsyCUo.s 			page 25


 800 0010 3B68     		ldr	r3, [r7]
 801 0012 002B     		cmp	r3, #0
 802 0014 01D1     		bne	.L51
 803              	.L50:
 576:./Libraries/STM32H7xx_HAL_Driver/Src/stm32h7xx_hal_mdma.c ****   {
 577:./Libraries/STM32H7xx_HAL_Driver/Src/stm32h7xx_hal_mdma.c ****     return HAL_ERROR;
 804              		.loc 1 577 12
 805 0016 0123     		movs	r3, #1
 806 0018 C8E0     		b	.L52
 807              	.L51:
 578:./Libraries/STM32H7xx_HAL_Driver/Src/stm32h7xx_hal_mdma.c ****   }
 579:./Libraries/STM32H7xx_HAL_Driver/Src/stm32h7xx_hal_mdma.c **** 
 580:./Libraries/STM32H7xx_HAL_Driver/Src/stm32h7xx_hal_mdma.c ****   /* Check the parameters */
 581:./Libraries/STM32H7xx_HAL_Driver/Src/stm32h7xx_hal_mdma.c ****   assert_param(IS_MDMA_PRIORITY(pNodeConfig->Init.Priority));
 582:./Libraries/STM32H7xx_HAL_Driver/Src/stm32h7xx_hal_mdma.c ****   assert_param(IS_MDMA_ENDIANNESS_MODE(pNodeConfig->Init.Endianness));
 583:./Libraries/STM32H7xx_HAL_Driver/Src/stm32h7xx_hal_mdma.c ****   assert_param(IS_MDMA_REQUEST(pNodeConfig->Init.Request));
 584:./Libraries/STM32H7xx_HAL_Driver/Src/stm32h7xx_hal_mdma.c ****   assert_param(IS_MDMA_SOURCE_INC(pNodeConfig->Init.SourceInc));
 585:./Libraries/STM32H7xx_HAL_Driver/Src/stm32h7xx_hal_mdma.c ****   assert_param(IS_MDMA_DESTINATION_INC(pNodeConfig->Init.DestinationInc));
 586:./Libraries/STM32H7xx_HAL_Driver/Src/stm32h7xx_hal_mdma.c ****   assert_param(IS_MDMA_SOURCE_DATASIZE(pNodeConfig->Init.SourceDataSize));
 587:./Libraries/STM32H7xx_HAL_Driver/Src/stm32h7xx_hal_mdma.c ****   assert_param(IS_MDMA_DESTINATION_DATASIZE(pNodeConfig->Init.DestDataSize));
 588:./Libraries/STM32H7xx_HAL_Driver/Src/stm32h7xx_hal_mdma.c ****   assert_param(IS_MDMA_DATA_ALIGNMENT(pNodeConfig->Init.DataAlignment));
 589:./Libraries/STM32H7xx_HAL_Driver/Src/stm32h7xx_hal_mdma.c ****   assert_param(IS_MDMA_SOURCE_BURST(pNodeConfig->Init.SourceBurst));
 590:./Libraries/STM32H7xx_HAL_Driver/Src/stm32h7xx_hal_mdma.c ****   assert_param(IS_MDMA_DESTINATION_BURST(pNodeConfig->Init.DestBurst));
 591:./Libraries/STM32H7xx_HAL_Driver/Src/stm32h7xx_hal_mdma.c ****   assert_param(IS_MDMA_BUFFER_TRANSFER_LENGTH(pNodeConfig->Init.BufferTransferLength));
 592:./Libraries/STM32H7xx_HAL_Driver/Src/stm32h7xx_hal_mdma.c ****   assert_param(IS_MDMA_TRANSFER_TRIGGER_MODE(pNodeConfig->Init.TransferTriggerMode));
 593:./Libraries/STM32H7xx_HAL_Driver/Src/stm32h7xx_hal_mdma.c ****   assert_param(IS_MDMA_BLOCK_ADDR_OFFSET(pNodeConfig->Init.SourceBlockAddressOffset));
 594:./Libraries/STM32H7xx_HAL_Driver/Src/stm32h7xx_hal_mdma.c ****   assert_param(IS_MDMA_BLOCK_ADDR_OFFSET(pNodeConfig->Init.DestBlockAddressOffset));
 595:./Libraries/STM32H7xx_HAL_Driver/Src/stm32h7xx_hal_mdma.c **** 
 596:./Libraries/STM32H7xx_HAL_Driver/Src/stm32h7xx_hal_mdma.c ****   assert_param(IS_MDMA_TRANSFER_LENGTH(pNodeConfig->BlockDataLength));
 597:./Libraries/STM32H7xx_HAL_Driver/Src/stm32h7xx_hal_mdma.c ****   assert_param(IS_MDMA_BLOCK_COUNT(pNodeConfig->BlockCount));
 598:./Libraries/STM32H7xx_HAL_Driver/Src/stm32h7xx_hal_mdma.c **** 
 599:./Libraries/STM32H7xx_HAL_Driver/Src/stm32h7xx_hal_mdma.c **** 
 600:./Libraries/STM32H7xx_HAL_Driver/Src/stm32h7xx_hal_mdma.c ****   /* Configure next Link node Address Register to zero */
 601:./Libraries/STM32H7xx_HAL_Driver/Src/stm32h7xx_hal_mdma.c ****   pNode->CLAR =  0;
 808              		.loc 1 601 15
 809 001a 7B68     		ldr	r3, [r7, #4]
 810 001c 0022     		movs	r2, #0
 811 001e 5A61     		str	r2, [r3, #20]
 602:./Libraries/STM32H7xx_HAL_Driver/Src/stm32h7xx_hal_mdma.c **** 
 603:./Libraries/STM32H7xx_HAL_Driver/Src/stm32h7xx_hal_mdma.c ****   /* Configure the Link Node registers*/
 604:./Libraries/STM32H7xx_HAL_Driver/Src/stm32h7xx_hal_mdma.c ****   pNode->CTBR   = 0;
 812              		.loc 1 604 17
 813 0020 7B68     		ldr	r3, [r7, #4]
 814 0022 0022     		movs	r2, #0
 815 0024 9A61     		str	r2, [r3, #24]
 605:./Libraries/STM32H7xx_HAL_Driver/Src/stm32h7xx_hal_mdma.c ****   pNode->CMAR   = 0;
 816              		.loc 1 605 17
 817 0026 7B68     		ldr	r3, [r7, #4]
 818 0028 0022     		movs	r2, #0
 819 002a 1A62     		str	r2, [r3, #32]
 606:./Libraries/STM32H7xx_HAL_Driver/Src/stm32h7xx_hal_mdma.c ****   pNode->CMDR   = 0;
 820              		.loc 1 606 17
 821 002c 7B68     		ldr	r3, [r7, #4]
 822 002e 0022     		movs	r2, #0
 823 0030 5A62     		str	r2, [r3, #36]
 607:./Libraries/STM32H7xx_HAL_Driver/Src/stm32h7xx_hal_mdma.c ****   pNode->Reserved = 0;
 824              		.loc 1 607 19
ARM GAS  /tmp/ccZsyCUo.s 			page 26


 825 0032 7B68     		ldr	r3, [r7, #4]
 826 0034 0022     		movs	r2, #0
 827 0036 DA61     		str	r2, [r3, #28]
 608:./Libraries/STM32H7xx_HAL_Driver/Src/stm32h7xx_hal_mdma.c **** 
 609:./Libraries/STM32H7xx_HAL_Driver/Src/stm32h7xx_hal_mdma.c ****   /* Write new CTCR Register value */
 610:./Libraries/STM32H7xx_HAL_Driver/Src/stm32h7xx_hal_mdma.c ****   pNode->CTCR =  pNodeConfig->Init.SourceInc | pNodeConfig->Init.DestinationInc | \
 828              		.loc 1 610 35
 829 0038 3B68     		ldr	r3, [r7]
 830 003a 1A69     		ldr	r2, [r3, #16]
 831              		.loc 1 610 65
 832 003c 3B68     		ldr	r3, [r7]
 833 003e 5B69     		ldr	r3, [r3, #20]
 834              		.loc 1 610 46
 835 0040 1A43     		orrs	r2, r2, r3
 611:./Libraries/STM32H7xx_HAL_Driver/Src/stm32h7xx_hal_mdma.c ****     pNodeConfig->Init.SourceDataSize | pNodeConfig->Init.DestDataSize           | \
 836              		.loc 1 611 22
 837 0042 3B68     		ldr	r3, [r7]
 838 0044 9B69     		ldr	r3, [r3, #24]
 610:./Libraries/STM32H7xx_HAL_Driver/Src/stm32h7xx_hal_mdma.c ****     pNodeConfig->Init.SourceDataSize | pNodeConfig->Init.DestDataSize           | \
 839              		.loc 1 610 81
 840 0046 1A43     		orrs	r2, r2, r3
 841              		.loc 1 611 57
 842 0048 3B68     		ldr	r3, [r7]
 843 004a DB69     		ldr	r3, [r3, #28]
 844              		.loc 1 611 38
 845 004c 1A43     		orrs	r2, r2, r3
 612:./Libraries/STM32H7xx_HAL_Driver/Src/stm32h7xx_hal_mdma.c ****       pNodeConfig->Init.DataAlignment| pNodeConfig->Init.SourceBurst            | \
 846              		.loc 1 612 24
 847 004e 3B68     		ldr	r3, [r7]
 848 0050 1B6A     		ldr	r3, [r3, #32]
 611:./Libraries/STM32H7xx_HAL_Driver/Src/stm32h7xx_hal_mdma.c ****     pNodeConfig->Init.SourceDataSize | pNodeConfig->Init.DestDataSize           | \
 849              		.loc 1 611 81
 850 0052 1A43     		orrs	r2, r2, r3
 851              		.loc 1 612 57
 852 0054 3B68     		ldr	r3, [r7]
 853 0056 9B6A     		ldr	r3, [r3, #40]
 854              		.loc 1 612 38
 855 0058 1A43     		orrs	r2, r2, r3
 613:./Libraries/STM32H7xx_HAL_Driver/Src/stm32h7xx_hal_mdma.c ****         pNodeConfig->Init.DestBurst                                             | \
 856              		.loc 1 613 26
 857 005a 3B68     		ldr	r3, [r7]
 858 005c DB6A     		ldr	r3, [r3, #44]
 612:./Libraries/STM32H7xx_HAL_Driver/Src/stm32h7xx_hal_mdma.c ****       pNodeConfig->Init.DataAlignment| pNodeConfig->Init.SourceBurst            | \
 859              		.loc 1 612 81
 860 005e 1A43     		orrs	r2, r2, r3
 614:./Libraries/STM32H7xx_HAL_Driver/Src/stm32h7xx_hal_mdma.c ****           ((pNodeConfig->Init.BufferTransferLength - 1U) << MDMA_CTCR_TLEN_Pos) | \
 861              		.loc 1 614 30
 862 0060 3B68     		ldr	r3, [r7]
 863 0062 5B6A     		ldr	r3, [r3, #36]
 864              		.loc 1 614 52
 865 0064 013B     		subs	r3, r3, #1
 866              		.loc 1 614 58
 867 0066 9B04     		lsls	r3, r3, #18
 613:./Libraries/STM32H7xx_HAL_Driver/Src/stm32h7xx_hal_mdma.c ****         pNodeConfig->Init.DestBurst                                             | \
 868              		.loc 1 613 81
 869 0068 1A43     		orrs	r2, r2, r3
 615:./Libraries/STM32H7xx_HAL_Driver/Src/stm32h7xx_hal_mdma.c ****             pNodeConfig->Init.TransferTriggerMode;
ARM GAS  /tmp/ccZsyCUo.s 			page 27


 870              		.loc 1 615 30
 871 006a 3B68     		ldr	r3, [r7]
 872 006c 5B68     		ldr	r3, [r3, #4]
 614:./Libraries/STM32H7xx_HAL_Driver/Src/stm32h7xx_hal_mdma.c ****           ((pNodeConfig->Init.BufferTransferLength - 1U) << MDMA_CTCR_TLEN_Pos) | \
 873              		.loc 1 614 81
 874 006e 1A43     		orrs	r2, r2, r3
 610:./Libraries/STM32H7xx_HAL_Driver/Src/stm32h7xx_hal_mdma.c ****     pNodeConfig->Init.SourceDataSize | pNodeConfig->Init.DestDataSize           | \
 875              		.loc 1 610 15
 876 0070 7B68     		ldr	r3, [r7, #4]
 877 0072 1A60     		str	r2, [r3]
 616:./Libraries/STM32H7xx_HAL_Driver/Src/stm32h7xx_hal_mdma.c **** 
 617:./Libraries/STM32H7xx_HAL_Driver/Src/stm32h7xx_hal_mdma.c ****   /* If SW request set the CTCR register to SW Request Mode*/
 618:./Libraries/STM32H7xx_HAL_Driver/Src/stm32h7xx_hal_mdma.c ****   if(pNodeConfig->Init.Request == MDMA_REQUEST_SW)
 878              		.loc 1 618 23
 879 0074 3B68     		ldr	r3, [r7]
 880 0076 1B68     		ldr	r3, [r3]
 881              		.loc 1 618 5
 882 0078 B3F1804F 		cmp	r3, #1073741824
 883 007c 05D1     		bne	.L53
 619:./Libraries/STM32H7xx_HAL_Driver/Src/stm32h7xx_hal_mdma.c ****   {
 620:./Libraries/STM32H7xx_HAL_Driver/Src/stm32h7xx_hal_mdma.c ****     pNode->CTCR |= MDMA_CTCR_SWRM;
 884              		.loc 1 620 17
 885 007e 7B68     		ldr	r3, [r7, #4]
 886 0080 1B68     		ldr	r3, [r3]
 887 0082 43F08042 		orr	r2, r3, #1073741824
 888 0086 7B68     		ldr	r3, [r7, #4]
 889 0088 1A60     		str	r2, [r3]
 890              	.L53:
 621:./Libraries/STM32H7xx_HAL_Driver/Src/stm32h7xx_hal_mdma.c ****   }
 622:./Libraries/STM32H7xx_HAL_Driver/Src/stm32h7xx_hal_mdma.c **** 
 623:./Libraries/STM32H7xx_HAL_Driver/Src/stm32h7xx_hal_mdma.c ****   /*
 624:./Libraries/STM32H7xx_HAL_Driver/Src/stm32h7xx_hal_mdma.c ****   -If the request is done by SW : BWM could be set to 1 or 0.
 625:./Libraries/STM32H7xx_HAL_Driver/Src/stm32h7xx_hal_mdma.c ****   -If the request is done by a peripheral :
 626:./Libraries/STM32H7xx_HAL_Driver/Src/stm32h7xx_hal_mdma.c ****      If mask address not set (0) => BWM must be set to 0
 627:./Libraries/STM32H7xx_HAL_Driver/Src/stm32h7xx_hal_mdma.c ****      If mask address set (different than 0) => BWM could be set to 1 or 0
 628:./Libraries/STM32H7xx_HAL_Driver/Src/stm32h7xx_hal_mdma.c ****   */
 629:./Libraries/STM32H7xx_HAL_Driver/Src/stm32h7xx_hal_mdma.c ****   if((pNodeConfig->Init.Request == MDMA_REQUEST_SW) || (pNodeConfig->PostRequestMaskAddress != 0U))
 891              		.loc 1 629 24
 892 008a 3B68     		ldr	r3, [r7]
 893 008c 1B68     		ldr	r3, [r3]
 894              		.loc 1 629 5
 895 008e B3F1804F 		cmp	r3, #1073741824
 896 0092 03D0     		beq	.L54
 897              		.loc 1 629 68 discriminator 1
 898 0094 3B68     		ldr	r3, [r7]
 899 0096 9B6C     		ldr	r3, [r3, #72]
 900              		.loc 1 629 53 discriminator 1
 901 0098 002B     		cmp	r3, #0
 902 009a 05D0     		beq	.L55
 903              	.L54:
 630:./Libraries/STM32H7xx_HAL_Driver/Src/stm32h7xx_hal_mdma.c ****   {
 631:./Libraries/STM32H7xx_HAL_Driver/Src/stm32h7xx_hal_mdma.c ****     pNode->CTCR |=  MDMA_CTCR_BWM;
 904              		.loc 1 631 17
 905 009c 7B68     		ldr	r3, [r7, #4]
 906 009e 1B68     		ldr	r3, [r3]
 907 00a0 43F00042 		orr	r2, r3, #-2147483648
 908 00a4 7B68     		ldr	r3, [r7, #4]
ARM GAS  /tmp/ccZsyCUo.s 			page 28


 909 00a6 1A60     		str	r2, [r3]
 910              	.L55:
 632:./Libraries/STM32H7xx_HAL_Driver/Src/stm32h7xx_hal_mdma.c ****   }
 633:./Libraries/STM32H7xx_HAL_Driver/Src/stm32h7xx_hal_mdma.c **** 
 634:./Libraries/STM32H7xx_HAL_Driver/Src/stm32h7xx_hal_mdma.c ****   /* Set the new CBNDTR Register value */
 635:./Libraries/STM32H7xx_HAL_Driver/Src/stm32h7xx_hal_mdma.c ****   pNode->CBNDTR = ((pNodeConfig->BlockCount - 1U) << MDMA_CBNDTR_BRC_Pos) & MDMA_CBNDTR_BRC;
 911              		.loc 1 635 32
 912 00a8 3B68     		ldr	r3, [r7]
 913 00aa 5B6C     		ldr	r3, [r3, #68]
 914              		.loc 1 635 45
 915 00ac 013B     		subs	r3, r3, #1
 916              		.loc 1 635 75
 917 00ae 1A05     		lsls	r2, r3, #20
 918              		.loc 1 635 17
 919 00b0 7B68     		ldr	r3, [r7, #4]
 920 00b2 5A60     		str	r2, [r3, #4]
 636:./Libraries/STM32H7xx_HAL_Driver/Src/stm32h7xx_hal_mdma.c **** 
 637:./Libraries/STM32H7xx_HAL_Driver/Src/stm32h7xx_hal_mdma.c ****   /* if block source address offset is negative set the Block Repeat Source address Update Mode to 
 638:./Libraries/STM32H7xx_HAL_Driver/Src/stm32h7xx_hal_mdma.c ****   if(pNodeConfig->Init.SourceBlockAddressOffset < 0)
 921              		.loc 1 638 23
 922 00b4 3B68     		ldr	r3, [r7]
 923 00b6 1B6B     		ldr	r3, [r3, #48]
 924              		.loc 1 638 5
 925 00b8 002B     		cmp	r3, #0
 926 00ba 0EDA     		bge	.L56
 639:./Libraries/STM32H7xx_HAL_Driver/Src/stm32h7xx_hal_mdma.c ****   {
 640:./Libraries/STM32H7xx_HAL_Driver/Src/stm32h7xx_hal_mdma.c ****     pNode->CBNDTR |= MDMA_CBNDTR_BRSUM;
 927              		.loc 1 640 19
 928 00bc 7B68     		ldr	r3, [r7, #4]
 929 00be 5B68     		ldr	r3, [r3, #4]
 930 00c0 43F48022 		orr	r2, r3, #262144
 931 00c4 7B68     		ldr	r3, [r7, #4]
 932 00c6 5A60     		str	r2, [r3, #4]
 641:./Libraries/STM32H7xx_HAL_Driver/Src/stm32h7xx_hal_mdma.c ****     /*write new CBRUR Register value : source repeat block offset */
 642:./Libraries/STM32H7xx_HAL_Driver/Src/stm32h7xx_hal_mdma.c ****     blockoffset = (uint32_t)(- pNodeConfig->Init.SourceBlockAddressOffset);
 933              		.loc 1 642 49
 934 00c8 3B68     		ldr	r3, [r7]
 935 00ca 1B6B     		ldr	r3, [r3, #48]
 936              		.loc 1 642 30
 937 00cc 5B42     		rsbs	r3, r3, #0
 938              		.loc 1 642 17
 939 00ce FB60     		str	r3, [r7, #12]
 643:./Libraries/STM32H7xx_HAL_Driver/Src/stm32h7xx_hal_mdma.c ****     pNode->CBRUR = blockoffset & 0x0000FFFFU;
 940              		.loc 1 643 32
 941 00d0 FB68     		ldr	r3, [r7, #12]
 942 00d2 9AB2     		uxth	r2, r3
 943              		.loc 1 643 18
 944 00d4 7B68     		ldr	r3, [r7, #4]
 945 00d6 1A61     		str	r2, [r3, #16]
 946 00d8 04E0     		b	.L57
 947              	.L56:
 644:./Libraries/STM32H7xx_HAL_Driver/Src/stm32h7xx_hal_mdma.c ****   }
 645:./Libraries/STM32H7xx_HAL_Driver/Src/stm32h7xx_hal_mdma.c ****   else
 646:./Libraries/STM32H7xx_HAL_Driver/Src/stm32h7xx_hal_mdma.c ****   {
 647:./Libraries/STM32H7xx_HAL_Driver/Src/stm32h7xx_hal_mdma.c ****     /*write new CBRUR Register value : source repeat block offset */
 648:./Libraries/STM32H7xx_HAL_Driver/Src/stm32h7xx_hal_mdma.c ****     pNode->CBRUR = (((uint32_t) pNodeConfig->Init.SourceBlockAddressOffset) & 0x0000FFFFU);
 948              		.loc 1 648 50
ARM GAS  /tmp/ccZsyCUo.s 			page 29


 949 00da 3B68     		ldr	r3, [r7]
 950 00dc 1B6B     		ldr	r3, [r3, #48]
 951              		.loc 1 648 77
 952 00de 9AB2     		uxth	r2, r3
 953              		.loc 1 648 18
 954 00e0 7B68     		ldr	r3, [r7, #4]
 955 00e2 1A61     		str	r2, [r3, #16]
 956              	.L57:
 649:./Libraries/STM32H7xx_HAL_Driver/Src/stm32h7xx_hal_mdma.c ****   }
 650:./Libraries/STM32H7xx_HAL_Driver/Src/stm32h7xx_hal_mdma.c **** 
 651:./Libraries/STM32H7xx_HAL_Driver/Src/stm32h7xx_hal_mdma.c ****   /* if block destination address offset is negative set the Block Repeat destination address Updat
 652:./Libraries/STM32H7xx_HAL_Driver/Src/stm32h7xx_hal_mdma.c ****   if(pNodeConfig->Init.DestBlockAddressOffset < 0)
 957              		.loc 1 652 23
 958 00e4 3B68     		ldr	r3, [r7]
 959 00e6 5B6B     		ldr	r3, [r3, #52]
 960              		.loc 1 652 5
 961 00e8 002B     		cmp	r3, #0
 962 00ea 11DA     		bge	.L58
 653:./Libraries/STM32H7xx_HAL_Driver/Src/stm32h7xx_hal_mdma.c ****   {
 654:./Libraries/STM32H7xx_HAL_Driver/Src/stm32h7xx_hal_mdma.c ****     pNode->CBNDTR |= MDMA_CBNDTR_BRDUM;
 963              		.loc 1 654 19
 964 00ec 7B68     		ldr	r3, [r7, #4]
 965 00ee 5B68     		ldr	r3, [r3, #4]
 966 00f0 43F40022 		orr	r2, r3, #524288
 967 00f4 7B68     		ldr	r3, [r7, #4]
 968 00f6 5A60     		str	r2, [r3, #4]
 655:./Libraries/STM32H7xx_HAL_Driver/Src/stm32h7xx_hal_mdma.c ****     /*write new CBRUR Register value : destination repeat block offset */
 656:./Libraries/STM32H7xx_HAL_Driver/Src/stm32h7xx_hal_mdma.c ****     blockoffset = (uint32_t)(- pNodeConfig->Init.DestBlockAddressOffset);
 969              		.loc 1 656 49
 970 00f8 3B68     		ldr	r3, [r7]
 971 00fa 5B6B     		ldr	r3, [r3, #52]
 972              		.loc 1 656 30
 973 00fc 5B42     		rsbs	r3, r3, #0
 974              		.loc 1 656 17
 975 00fe FB60     		str	r3, [r7, #12]
 657:./Libraries/STM32H7xx_HAL_Driver/Src/stm32h7xx_hal_mdma.c ****     pNode->CBRUR |= ((blockoffset & 0x0000FFFFU) << MDMA_CBRUR_DUV_Pos);
 976              		.loc 1 657 18
 977 0100 7B68     		ldr	r3, [r7, #4]
 978 0102 1A69     		ldr	r2, [r3, #16]
 979              		.loc 1 657 50
 980 0104 FB68     		ldr	r3, [r7, #12]
 981 0106 1B04     		lsls	r3, r3, #16
 982              		.loc 1 657 18
 983 0108 1A43     		orrs	r2, r2, r3
 984 010a 7B68     		ldr	r3, [r7, #4]
 985 010c 1A61     		str	r2, [r3, #16]
 986 010e 07E0     		b	.L59
 987              	.L58:
 658:./Libraries/STM32H7xx_HAL_Driver/Src/stm32h7xx_hal_mdma.c ****   }
 659:./Libraries/STM32H7xx_HAL_Driver/Src/stm32h7xx_hal_mdma.c ****   else
 660:./Libraries/STM32H7xx_HAL_Driver/Src/stm32h7xx_hal_mdma.c ****   {
 661:./Libraries/STM32H7xx_HAL_Driver/Src/stm32h7xx_hal_mdma.c ****     /*write new CBRUR Register value : destination repeat block offset */
 662:./Libraries/STM32H7xx_HAL_Driver/Src/stm32h7xx_hal_mdma.c ****     pNode->CBRUR |= ((((uint32_t)pNodeConfig->Init.DestBlockAddressOffset) & 0x0000FFFFU) << MDMA_C
 988              		.loc 1 662 18
 989 0110 7B68     		ldr	r3, [r7, #4]
 990 0112 1A69     		ldr	r2, [r3, #16]
 991              		.loc 1 662 51
ARM GAS  /tmp/ccZsyCUo.s 			page 30


 992 0114 3B68     		ldr	r3, [r7]
 993 0116 5B6B     		ldr	r3, [r3, #52]
 994              		.loc 1 662 91
 995 0118 1B04     		lsls	r3, r3, #16
 996              		.loc 1 662 18
 997 011a 1A43     		orrs	r2, r2, r3
 998 011c 7B68     		ldr	r3, [r7, #4]
 999 011e 1A61     		str	r2, [r3, #16]
 1000              	.L59:
 663:./Libraries/STM32H7xx_HAL_Driver/Src/stm32h7xx_hal_mdma.c ****   }
 664:./Libraries/STM32H7xx_HAL_Driver/Src/stm32h7xx_hal_mdma.c **** 
 665:./Libraries/STM32H7xx_HAL_Driver/Src/stm32h7xx_hal_mdma.c ****   /* Configure MDMA Link Node data length */
 666:./Libraries/STM32H7xx_HAL_Driver/Src/stm32h7xx_hal_mdma.c ****   pNode->CBNDTR |=  pNodeConfig->BlockDataLength;
 1001              		.loc 1 666 17
 1002 0120 7B68     		ldr	r3, [r7, #4]
 1003 0122 5A68     		ldr	r2, [r3, #4]
 1004              		.loc 1 666 32
 1005 0124 3B68     		ldr	r3, [r7]
 1006 0126 1B6C     		ldr	r3, [r3, #64]
 1007              		.loc 1 666 17
 1008 0128 1A43     		orrs	r2, r2, r3
 1009 012a 7B68     		ldr	r3, [r7, #4]
 1010 012c 5A60     		str	r2, [r3, #4]
 667:./Libraries/STM32H7xx_HAL_Driver/Src/stm32h7xx_hal_mdma.c **** 
 668:./Libraries/STM32H7xx_HAL_Driver/Src/stm32h7xx_hal_mdma.c ****   /* Configure MDMA Link Node destination address */
 669:./Libraries/STM32H7xx_HAL_Driver/Src/stm32h7xx_hal_mdma.c ****   pNode->CDAR = pNodeConfig->DstAddress;
 1011              		.loc 1 669 28
 1012 012e 3B68     		ldr	r3, [r7]
 1013 0130 DA6B     		ldr	r2, [r3, #60]
 1014              		.loc 1 669 15
 1015 0132 7B68     		ldr	r3, [r7, #4]
 1016 0134 DA60     		str	r2, [r3, #12]
 670:./Libraries/STM32H7xx_HAL_Driver/Src/stm32h7xx_hal_mdma.c **** 
 671:./Libraries/STM32H7xx_HAL_Driver/Src/stm32h7xx_hal_mdma.c ****   /* Configure MDMA Link Node Source address */
 672:./Libraries/STM32H7xx_HAL_Driver/Src/stm32h7xx_hal_mdma.c ****   pNode->CSAR = pNodeConfig->SrcAddress;
 1017              		.loc 1 672 28
 1018 0136 3B68     		ldr	r3, [r7]
 1019 0138 9A6B     		ldr	r2, [r3, #56]
 1020              		.loc 1 672 15
 1021 013a 7B68     		ldr	r3, [r7, #4]
 1022 013c 9A60     		str	r2, [r3, #8]
 673:./Libraries/STM32H7xx_HAL_Driver/Src/stm32h7xx_hal_mdma.c **** 
 674:./Libraries/STM32H7xx_HAL_Driver/Src/stm32h7xx_hal_mdma.c ****   /* if HW request set the HW request and the requet CleraMask and ClearData MaskData,  */
 675:./Libraries/STM32H7xx_HAL_Driver/Src/stm32h7xx_hal_mdma.c ****   if(pNodeConfig->Init.Request != MDMA_REQUEST_SW)
 1023              		.loc 1 675 23
 1024 013e 3B68     		ldr	r3, [r7]
 1025 0140 1B68     		ldr	r3, [r3]
 1026              		.loc 1 675 5
 1027 0142 B3F1804F 		cmp	r3, #1073741824
 1028 0146 0CD0     		beq	.L60
 676:./Libraries/STM32H7xx_HAL_Driver/Src/stm32h7xx_hal_mdma.c ****   {
 677:./Libraries/STM32H7xx_HAL_Driver/Src/stm32h7xx_hal_mdma.c ****     /* Set the HW request in CTBR register  */
 678:./Libraries/STM32H7xx_HAL_Driver/Src/stm32h7xx_hal_mdma.c ****     pNode->CTBR = pNodeConfig->Init.Request & MDMA_CTBR_TSEL;
 1029              		.loc 1 678 36
 1030 0148 3B68     		ldr	r3, [r7]
 1031 014a 1B68     		ldr	r3, [r3]
 1032              		.loc 1 678 45
ARM GAS  /tmp/ccZsyCUo.s 			page 31


 1033 014c DAB2     		uxtb	r2, r3
 1034              		.loc 1 678 17
 1035 014e 7B68     		ldr	r3, [r7, #4]
 1036 0150 9A61     		str	r2, [r3, #24]
 679:./Libraries/STM32H7xx_HAL_Driver/Src/stm32h7xx_hal_mdma.c ****     /* Set the HW request clear Mask and Data */
 680:./Libraries/STM32H7xx_HAL_Driver/Src/stm32h7xx_hal_mdma.c ****     pNode->CMAR = pNodeConfig->PostRequestMaskAddress;
 1037              		.loc 1 680 30
 1038 0152 3B68     		ldr	r3, [r7]
 1039 0154 9A6C     		ldr	r2, [r3, #72]
 1040              		.loc 1 680 17
 1041 0156 7B68     		ldr	r3, [r7, #4]
 1042 0158 1A62     		str	r2, [r3, #32]
 681:./Libraries/STM32H7xx_HAL_Driver/Src/stm32h7xx_hal_mdma.c ****     pNode->CMDR = pNodeConfig->PostRequestMaskData;
 1043              		.loc 1 681 30
 1044 015a 3B68     		ldr	r3, [r7]
 1045 015c DA6C     		ldr	r2, [r3, #76]
 1046              		.loc 1 681 17
 1047 015e 7B68     		ldr	r3, [r7, #4]
 1048 0160 5A62     		str	r2, [r3, #36]
 1049              	.L60:
 682:./Libraries/STM32H7xx_HAL_Driver/Src/stm32h7xx_hal_mdma.c ****   }
 683:./Libraries/STM32H7xx_HAL_Driver/Src/stm32h7xx_hal_mdma.c **** 
 684:./Libraries/STM32H7xx_HAL_Driver/Src/stm32h7xx_hal_mdma.c ****   addressMask = pNodeConfig->SrcAddress & 0xFF000000U;
 1050              		.loc 1 684 28
 1051 0162 3B68     		ldr	r3, [r7]
 1052 0164 9B6B     		ldr	r3, [r3, #56]
 1053              		.loc 1 684 15
 1054 0166 03F07F43 		and	r3, r3, #-16777216
 1055 016a BB60     		str	r3, [r7, #8]
 685:./Libraries/STM32H7xx_HAL_Driver/Src/stm32h7xx_hal_mdma.c ****   if((addressMask == 0x20000000U) || (addressMask == 0x00000000U))
 1056              		.loc 1 685 5
 1057 016c BB68     		ldr	r3, [r7, #8]
 1058 016e B3F1005F 		cmp	r3, #536870912
 1059 0172 02D0     		beq	.L61
 1060              		.loc 1 685 35 discriminator 1
 1061 0174 BB68     		ldr	r3, [r7, #8]
 1062 0176 002B     		cmp	r3, #0
 1063 0178 05D1     		bne	.L62
 1064              	.L61:
 686:./Libraries/STM32H7xx_HAL_Driver/Src/stm32h7xx_hal_mdma.c ****   {
 687:./Libraries/STM32H7xx_HAL_Driver/Src/stm32h7xx_hal_mdma.c ****     /*The AHBSbus is used as source (read operation) on channel x */
 688:./Libraries/STM32H7xx_HAL_Driver/Src/stm32h7xx_hal_mdma.c ****     pNode->CTBR |= MDMA_CTBR_SBUS;
 1065              		.loc 1 688 17
 1066 017a 7B68     		ldr	r3, [r7, #4]
 1067 017c 9B69     		ldr	r3, [r3, #24]
 1068 017e 43F48032 		orr	r2, r3, #65536
 1069 0182 7B68     		ldr	r3, [r7, #4]
 1070 0184 9A61     		str	r2, [r3, #24]
 1071              	.L62:
 689:./Libraries/STM32H7xx_HAL_Driver/Src/stm32h7xx_hal_mdma.c ****   }
 690:./Libraries/STM32H7xx_HAL_Driver/Src/stm32h7xx_hal_mdma.c **** 
 691:./Libraries/STM32H7xx_HAL_Driver/Src/stm32h7xx_hal_mdma.c ****   addressMask = pNodeConfig->DstAddress & 0xFF000000U;
 1072              		.loc 1 691 28
 1073 0186 3B68     		ldr	r3, [r7]
 1074 0188 DB6B     		ldr	r3, [r3, #60]
 1075              		.loc 1 691 15
 1076 018a 03F07F43 		and	r3, r3, #-16777216
ARM GAS  /tmp/ccZsyCUo.s 			page 32


 1077 018e BB60     		str	r3, [r7, #8]
 692:./Libraries/STM32H7xx_HAL_Driver/Src/stm32h7xx_hal_mdma.c ****   if((addressMask == 0x20000000U) || (addressMask == 0x00000000U))
 1078              		.loc 1 692 5
 1079 0190 BB68     		ldr	r3, [r7, #8]
 1080 0192 B3F1005F 		cmp	r3, #536870912
 1081 0196 02D0     		beq	.L63
 1082              		.loc 1 692 35 discriminator 1
 1083 0198 BB68     		ldr	r3, [r7, #8]
 1084 019a 002B     		cmp	r3, #0
 1085 019c 05D1     		bne	.L64
 1086              	.L63:
 693:./Libraries/STM32H7xx_HAL_Driver/Src/stm32h7xx_hal_mdma.c ****   {
 694:./Libraries/STM32H7xx_HAL_Driver/Src/stm32h7xx_hal_mdma.c ****     /*The AHB bus is used as destination (write operation) on channel x */
 695:./Libraries/STM32H7xx_HAL_Driver/Src/stm32h7xx_hal_mdma.c ****     pNode->CTBR |= MDMA_CTBR_DBUS;
 1087              		.loc 1 695 17
 1088 019e 7B68     		ldr	r3, [r7, #4]
 1089 01a0 9B69     		ldr	r3, [r3, #24]
 1090 01a2 43F40032 		orr	r2, r3, #131072
 1091 01a6 7B68     		ldr	r3, [r7, #4]
 1092 01a8 9A61     		str	r2, [r3, #24]
 1093              	.L64:
 696:./Libraries/STM32H7xx_HAL_Driver/Src/stm32h7xx_hal_mdma.c ****   }
 697:./Libraries/STM32H7xx_HAL_Driver/Src/stm32h7xx_hal_mdma.c **** 
 698:./Libraries/STM32H7xx_HAL_Driver/Src/stm32h7xx_hal_mdma.c ****   return HAL_OK;
 1094              		.loc 1 698 10
 1095 01aa 0023     		movs	r3, #0
 1096              	.L52:
 699:./Libraries/STM32H7xx_HAL_Driver/Src/stm32h7xx_hal_mdma.c **** }
 1097              		.loc 1 699 1
 1098 01ac 1846     		mov	r0, r3
 1099 01ae 1437     		adds	r7, r7, #20
 1100              	.LCFI32:
 1101              		.cfi_def_cfa_offset 4
 1102 01b0 BD46     		mov	sp, r7
 1103              	.LCFI33:
 1104              		.cfi_def_cfa_register 13
 1105              		@ sp needed
 1106 01b2 5DF8047B 		ldr	r7, [sp], #4
 1107              	.LCFI34:
 1108              		.cfi_restore 7
 1109              		.cfi_def_cfa_offset 0
 1110 01b6 7047     		bx	lr
 1111              		.cfi_endproc
 1112              	.LFE336:
 1114              		.section	.text.HAL_MDMA_LinkedList_AddNode,"ax",%progbits
 1115              		.align	1
 1116              		.global	HAL_MDMA_LinkedList_AddNode
 1117              		.syntax unified
 1118              		.thumb
 1119              		.thumb_func
 1120              		.fpu fpv5-d16
 1122              	HAL_MDMA_LinkedList_AddNode:
 1123              	.LFB337:
 700:./Libraries/STM32H7xx_HAL_Driver/Src/stm32h7xx_hal_mdma.c **** 
 701:./Libraries/STM32H7xx_HAL_Driver/Src/stm32h7xx_hal_mdma.c **** /**
 702:./Libraries/STM32H7xx_HAL_Driver/Src/stm32h7xx_hal_mdma.c ****   * @brief  Connect a node to the linked list.
 703:./Libraries/STM32H7xx_HAL_Driver/Src/stm32h7xx_hal_mdma.c ****   * @param  hmdma    : Pointer to a MDMA_HandleTypeDef structure that contains
ARM GAS  /tmp/ccZsyCUo.s 			page 33


 704:./Libraries/STM32H7xx_HAL_Driver/Src/stm32h7xx_hal_mdma.c ****   *                    the configuration information for the specified MDMA Channel.
 705:./Libraries/STM32H7xx_HAL_Driver/Src/stm32h7xx_hal_mdma.c ****   * @param  pNewNode : Pointer to a MDMA_LinkNodeTypeDef structure that contains Linked list node
 706:./Libraries/STM32H7xx_HAL_Driver/Src/stm32h7xx_hal_mdma.c ****   *                    to be add to the list.
 707:./Libraries/STM32H7xx_HAL_Driver/Src/stm32h7xx_hal_mdma.c ****   * @param pPrevNode : Pointer to the new node position in the linked list or zero to insert the ne
 708:./Libraries/STM32H7xx_HAL_Driver/Src/stm32h7xx_hal_mdma.c ****   *                    at the end of the list
 709:./Libraries/STM32H7xx_HAL_Driver/Src/stm32h7xx_hal_mdma.c ****   *
 710:./Libraries/STM32H7xx_HAL_Driver/Src/stm32h7xx_hal_mdma.c ****   * @retval HAL status
 711:./Libraries/STM32H7xx_HAL_Driver/Src/stm32h7xx_hal_mdma.c ****   */
 712:./Libraries/STM32H7xx_HAL_Driver/Src/stm32h7xx_hal_mdma.c **** HAL_StatusTypeDef HAL_MDMA_LinkedList_AddNode(MDMA_HandleTypeDef *hmdma, MDMA_LinkNodeTypeDef *pNew
 713:./Libraries/STM32H7xx_HAL_Driver/Src/stm32h7xx_hal_mdma.c **** {
 1124              		.loc 1 713 1
 1125              		.cfi_startproc
 1126              		@ args = 0, pretend = 0, frame = 32
 1127              		@ frame_needed = 1, uses_anonymous_args = 0
 1128              		@ link register save eliminated.
 1129 0000 80B4     		push	{r7}
 1130              	.LCFI35:
 1131              		.cfi_def_cfa_offset 4
 1132              		.cfi_offset 7, -4
 1133 0002 89B0     		sub	sp, sp, #36
 1134              	.LCFI36:
 1135              		.cfi_def_cfa_offset 40
 1136 0004 00AF     		add	r7, sp, #0
 1137              	.LCFI37:
 1138              		.cfi_def_cfa_register 7
 1139 0006 F860     		str	r0, [r7, #12]
 1140 0008 B960     		str	r1, [r7, #8]
 1141 000a 7A60     		str	r2, [r7, #4]
 714:./Libraries/STM32H7xx_HAL_Driver/Src/stm32h7xx_hal_mdma.c ****   MDMA_LinkNodeTypeDef *pNode;
 715:./Libraries/STM32H7xx_HAL_Driver/Src/stm32h7xx_hal_mdma.c ****   uint32_t counter = 0, nodeInserted = 0;
 1142              		.loc 1 715 12
 1143 000c 0023     		movs	r3, #0
 1144 000e BB61     		str	r3, [r7, #24]
 1145              		.loc 1 715 25
 1146 0010 0023     		movs	r3, #0
 1147 0012 7B61     		str	r3, [r7, #20]
 716:./Libraries/STM32H7xx_HAL_Driver/Src/stm32h7xx_hal_mdma.c ****   HAL_StatusTypeDef hal_status = HAL_OK;
 1148              		.loc 1 716 21
 1149 0014 0023     		movs	r3, #0
 1150 0016 FB74     		strb	r3, [r7, #19]
 717:./Libraries/STM32H7xx_HAL_Driver/Src/stm32h7xx_hal_mdma.c **** 
 718:./Libraries/STM32H7xx_HAL_Driver/Src/stm32h7xx_hal_mdma.c ****   /* Check the MDMA peripheral handle */
 719:./Libraries/STM32H7xx_HAL_Driver/Src/stm32h7xx_hal_mdma.c ****   if((hmdma == NULL) || (pNewNode == NULL))
 1151              		.loc 1 719 5
 1152 0018 FB68     		ldr	r3, [r7, #12]
 1153 001a 002B     		cmp	r3, #0
 1154 001c 02D0     		beq	.L66
 1155              		.loc 1 719 22 discriminator 1
 1156 001e BB68     		ldr	r3, [r7, #8]
 1157 0020 002B     		cmp	r3, #0
 1158 0022 01D1     		bne	.L67
 1159              	.L66:
 720:./Libraries/STM32H7xx_HAL_Driver/Src/stm32h7xx_hal_mdma.c ****   {
 721:./Libraries/STM32H7xx_HAL_Driver/Src/stm32h7xx_hal_mdma.c ****     return HAL_ERROR;
 1160              		.loc 1 721 12
 1161 0024 0123     		movs	r3, #1
 1162 0026 A9E0     		b	.L68
ARM GAS  /tmp/ccZsyCUo.s 			page 34


 1163              	.L67:
 722:./Libraries/STM32H7xx_HAL_Driver/Src/stm32h7xx_hal_mdma.c ****   }
 723:./Libraries/STM32H7xx_HAL_Driver/Src/stm32h7xx_hal_mdma.c **** 
 724:./Libraries/STM32H7xx_HAL_Driver/Src/stm32h7xx_hal_mdma.c ****   /* Process locked */
 725:./Libraries/STM32H7xx_HAL_Driver/Src/stm32h7xx_hal_mdma.c ****   __HAL_LOCK(hmdma);
 1164              		.loc 1 725 3
 1165 0028 FB68     		ldr	r3, [r7, #12]
 1166 002a 93F83C30 		ldrb	r3, [r3, #60]	@ zero_extendqisi2
 1167 002e 012B     		cmp	r3, #1
 1168 0030 01D1     		bne	.L69
 1169              		.loc 1 725 3 is_stmt 0 discriminator 1
 1170 0032 0223     		movs	r3, #2
 1171 0034 A2E0     		b	.L68
 1172              	.L69:
 1173              		.loc 1 725 3 discriminator 2
 1174 0036 FB68     		ldr	r3, [r7, #12]
 1175 0038 0122     		movs	r2, #1
 1176 003a 83F83C20 		strb	r2, [r3, #60]
 726:./Libraries/STM32H7xx_HAL_Driver/Src/stm32h7xx_hal_mdma.c **** 
 727:./Libraries/STM32H7xx_HAL_Driver/Src/stm32h7xx_hal_mdma.c ****   if(HAL_MDMA_STATE_READY == hmdma->State)
 1177              		.loc 1 727 35 is_stmt 1 discriminator 2
 1178 003e FB68     		ldr	r3, [r7, #12]
 1179 0040 93F83D30 		ldrb	r3, [r3, #61]
 1180 0044 DBB2     		uxtb	r3, r3
 1181              		.loc 1 727 5 discriminator 2
 1182 0046 012B     		cmp	r3, #1
 1183 0048 40F09380 		bne	.L70
 728:./Libraries/STM32H7xx_HAL_Driver/Src/stm32h7xx_hal_mdma.c ****   {
 729:./Libraries/STM32H7xx_HAL_Driver/Src/stm32h7xx_hal_mdma.c ****     /* Change MDMA peripheral state */
 730:./Libraries/STM32H7xx_HAL_Driver/Src/stm32h7xx_hal_mdma.c ****     hmdma->State = HAL_MDMA_STATE_BUSY;
 1184              		.loc 1 730 18
 1185 004c FB68     		ldr	r3, [r7, #12]
 1186 004e 0222     		movs	r2, #2
 1187 0050 83F83D20 		strb	r2, [r3, #61]
 731:./Libraries/STM32H7xx_HAL_Driver/Src/stm32h7xx_hal_mdma.c **** 
 732:./Libraries/STM32H7xx_HAL_Driver/Src/stm32h7xx_hal_mdma.c ****     /* Check if this is the first node (after the Inititlization node) */
 733:./Libraries/STM32H7xx_HAL_Driver/Src/stm32h7xx_hal_mdma.c ****     if((uint32_t)hmdma->FirstLinkedListNodeAddress == 0U)
 1188              		.loc 1 733 23
 1189 0054 FB68     		ldr	r3, [r7, #12]
 1190 0056 DB6D     		ldr	r3, [r3, #92]
 1191              		.loc 1 733 7
 1192 0058 002B     		cmp	r3, #0
 1193 005a 16D1     		bne	.L71
 734:./Libraries/STM32H7xx_HAL_Driver/Src/stm32h7xx_hal_mdma.c ****     {
 735:./Libraries/STM32H7xx_HAL_Driver/Src/stm32h7xx_hal_mdma.c ****       if(pPrevNode == NULL)
 1194              		.loc 1 735 9
 1195 005c 7B68     		ldr	r3, [r7, #4]
 1196 005e 002B     		cmp	r3, #0
 1197 0060 10D1     		bne	.L72
 736:./Libraries/STM32H7xx_HAL_Driver/Src/stm32h7xx_hal_mdma.c ****       {
 737:./Libraries/STM32H7xx_HAL_Driver/Src/stm32h7xx_hal_mdma.c ****         /* if this is the first node after the initialization
 738:./Libraries/STM32H7xx_HAL_Driver/Src/stm32h7xx_hal_mdma.c ****         connect this node to the node 0 by updating
 739:./Libraries/STM32H7xx_HAL_Driver/Src/stm32h7xx_hal_mdma.c ****         the MDMA channel CLAR register to this node address */
 740:./Libraries/STM32H7xx_HAL_Driver/Src/stm32h7xx_hal_mdma.c ****         hmdma->Instance->CLAR = (uint32_t)pNewNode;
 1198              		.loc 1 740 14
 1199 0062 FB68     		ldr	r3, [r7, #12]
 1200 0064 1B68     		ldr	r3, [r3]
ARM GAS  /tmp/ccZsyCUo.s 			page 35


 1201              		.loc 1 740 33
 1202 0066 BA68     		ldr	r2, [r7, #8]
 1203              		.loc 1 740 31
 1204 0068 5A62     		str	r2, [r3, #36]
 741:./Libraries/STM32H7xx_HAL_Driver/Src/stm32h7xx_hal_mdma.c ****         /* Set the MDMA handle First linked List node*/
 742:./Libraries/STM32H7xx_HAL_Driver/Src/stm32h7xx_hal_mdma.c ****         hmdma->FirstLinkedListNodeAddress = pNewNode;
 1205              		.loc 1 742 43
 1206 006a FB68     		ldr	r3, [r7, #12]
 1207 006c BA68     		ldr	r2, [r7, #8]
 1208 006e DA65     		str	r2, [r3, #92]
 743:./Libraries/STM32H7xx_HAL_Driver/Src/stm32h7xx_hal_mdma.c **** 
 744:./Libraries/STM32H7xx_HAL_Driver/Src/stm32h7xx_hal_mdma.c ****         /*reset New node link */
 745:./Libraries/STM32H7xx_HAL_Driver/Src/stm32h7xx_hal_mdma.c ****         pNewNode->CLAR = 0;
 1209              		.loc 1 745 24
 1210 0070 BB68     		ldr	r3, [r7, #8]
 1211 0072 0022     		movs	r2, #0
 1212 0074 5A61     		str	r2, [r3, #20]
 746:./Libraries/STM32H7xx_HAL_Driver/Src/stm32h7xx_hal_mdma.c **** 
 747:./Libraries/STM32H7xx_HAL_Driver/Src/stm32h7xx_hal_mdma.c ****         /* Update the Handle last node address */
 748:./Libraries/STM32H7xx_HAL_Driver/Src/stm32h7xx_hal_mdma.c ****         hmdma->LastLinkedListNodeAddress = pNewNode;
 1213              		.loc 1 748 42
 1214 0076 FB68     		ldr	r3, [r7, #12]
 1215 0078 BA68     		ldr	r2, [r7, #8]
 1216 007a 1A66     		str	r2, [r3, #96]
 749:./Libraries/STM32H7xx_HAL_Driver/Src/stm32h7xx_hal_mdma.c **** 
 750:./Libraries/STM32H7xx_HAL_Driver/Src/stm32h7xx_hal_mdma.c ****         hmdma->LinkedListNodeCounter = 1;
 1217              		.loc 1 750 38
 1218 007c FB68     		ldr	r3, [r7, #12]
 1219 007e 0122     		movs	r2, #1
 1220 0080 5A66     		str	r2, [r3, #100]
 1221 0082 6CE0     		b	.L73
 1222              	.L72:
 751:./Libraries/STM32H7xx_HAL_Driver/Src/stm32h7xx_hal_mdma.c ****       }
 752:./Libraries/STM32H7xx_HAL_Driver/Src/stm32h7xx_hal_mdma.c ****       else
 753:./Libraries/STM32H7xx_HAL_Driver/Src/stm32h7xx_hal_mdma.c ****       {
 754:./Libraries/STM32H7xx_HAL_Driver/Src/stm32h7xx_hal_mdma.c ****         hal_status = HAL_ERROR;
 1223              		.loc 1 754 20
 1224 0084 0123     		movs	r3, #1
 1225 0086 FB74     		strb	r3, [r7, #19]
 1226 0088 69E0     		b	.L73
 1227              	.L71:
 755:./Libraries/STM32H7xx_HAL_Driver/Src/stm32h7xx_hal_mdma.c ****       }
 756:./Libraries/STM32H7xx_HAL_Driver/Src/stm32h7xx_hal_mdma.c ****     }
 757:./Libraries/STM32H7xx_HAL_Driver/Src/stm32h7xx_hal_mdma.c ****     else if(hmdma->FirstLinkedListNodeAddress != pNewNode)
 1228              		.loc 1 757 18
 1229 008a FB68     		ldr	r3, [r7, #12]
 1230 008c DB6D     		ldr	r3, [r3, #92]
 1231              		.loc 1 757 12
 1232 008e BA68     		ldr	r2, [r7, #8]
 1233 0090 9A42     		cmp	r2, r3
 1234 0092 62D0     		beq	.L74
 758:./Libraries/STM32H7xx_HAL_Driver/Src/stm32h7xx_hal_mdma.c ****     {
 759:./Libraries/STM32H7xx_HAL_Driver/Src/stm32h7xx_hal_mdma.c ****       /* Check if the node to insert already exists*/
 760:./Libraries/STM32H7xx_HAL_Driver/Src/stm32h7xx_hal_mdma.c ****       pNode = hmdma->FirstLinkedListNodeAddress;
 1235              		.loc 1 760 13
 1236 0094 FB68     		ldr	r3, [r7, #12]
 1237 0096 DB6D     		ldr	r3, [r3, #92]
ARM GAS  /tmp/ccZsyCUo.s 			page 36


 1238 0098 FB61     		str	r3, [r7, #28]
 761:./Libraries/STM32H7xx_HAL_Driver/Src/stm32h7xx_hal_mdma.c ****       while((counter < hmdma->LinkedListNodeCounter) && (hal_status == HAL_OK))
 1239              		.loc 1 761 12
 1240 009a 0CE0     		b	.L75
 1241              	.L78:
 762:./Libraries/STM32H7xx_HAL_Driver/Src/stm32h7xx_hal_mdma.c ****       {
 763:./Libraries/STM32H7xx_HAL_Driver/Src/stm32h7xx_hal_mdma.c ****         if(pNode->CLAR == (uint32_t)pNewNode)
 1242              		.loc 1 763 17
 1243 009c FB69     		ldr	r3, [r7, #28]
 1244 009e 5A69     		ldr	r2, [r3, #20]
 1245              		.loc 1 763 24
 1246 00a0 BB68     		ldr	r3, [r7, #8]
 1247              		.loc 1 763 11
 1248 00a2 9A42     		cmp	r2, r3
 1249 00a4 01D1     		bne	.L76
 764:./Libraries/STM32H7xx_HAL_Driver/Src/stm32h7xx_hal_mdma.c ****         {
 765:./Libraries/STM32H7xx_HAL_Driver/Src/stm32h7xx_hal_mdma.c ****           hal_status = HAL_ERROR; /* error this node already exist in the linked list and it is not
 1250              		.loc 1 765 22
 1251 00a6 0123     		movs	r3, #1
 1252 00a8 FB74     		strb	r3, [r7, #19]
 1253              	.L76:
 766:./Libraries/STM32H7xx_HAL_Driver/Src/stm32h7xx_hal_mdma.c ****         }
 767:./Libraries/STM32H7xx_HAL_Driver/Src/stm32h7xx_hal_mdma.c ****         pNode = (MDMA_LinkNodeTypeDef *)pNode->CLAR;
 1254              		.loc 1 767 46
 1255 00aa FB69     		ldr	r3, [r7, #28]
 1256 00ac 5B69     		ldr	r3, [r3, #20]
 1257              		.loc 1 767 15
 1258 00ae FB61     		str	r3, [r7, #28]
 768:./Libraries/STM32H7xx_HAL_Driver/Src/stm32h7xx_hal_mdma.c ****         counter++;
 1259              		.loc 1 768 16
 1260 00b0 BB69     		ldr	r3, [r7, #24]
 1261 00b2 0133     		adds	r3, r3, #1
 1262 00b4 BB61     		str	r3, [r7, #24]
 1263              	.L75:
 761:./Libraries/STM32H7xx_HAL_Driver/Src/stm32h7xx_hal_mdma.c ****       {
 1264              		.loc 1 761 29
 1265 00b6 FB68     		ldr	r3, [r7, #12]
 1266 00b8 5B6E     		ldr	r3, [r3, #100]
 761:./Libraries/STM32H7xx_HAL_Driver/Src/stm32h7xx_hal_mdma.c ****       {
 1267              		.loc 1 761 12
 1268 00ba BA69     		ldr	r2, [r7, #24]
 1269 00bc 9A42     		cmp	r2, r3
 1270 00be 02D2     		bcs	.L77
 761:./Libraries/STM32H7xx_HAL_Driver/Src/stm32h7xx_hal_mdma.c ****       {
 1271              		.loc 1 761 54 discriminator 1
 1272 00c0 FB7C     		ldrb	r3, [r7, #19]	@ zero_extendqisi2
 1273 00c2 002B     		cmp	r3, #0
 1274 00c4 EAD0     		beq	.L78
 1275              	.L77:
 769:./Libraries/STM32H7xx_HAL_Driver/Src/stm32h7xx_hal_mdma.c ****       }
 770:./Libraries/STM32H7xx_HAL_Driver/Src/stm32h7xx_hal_mdma.c **** 
 771:./Libraries/STM32H7xx_HAL_Driver/Src/stm32h7xx_hal_mdma.c ****       if(hal_status == HAL_OK)
 1276              		.loc 1 771 9
 1277 00c6 FB7C     		ldrb	r3, [r7, #19]	@ zero_extendqisi2
 1278 00c8 002B     		cmp	r3, #0
 1279 00ca 48D1     		bne	.L73
 772:./Libraries/STM32H7xx_HAL_Driver/Src/stm32h7xx_hal_mdma.c ****       {
ARM GAS  /tmp/ccZsyCUo.s 			page 37


 773:./Libraries/STM32H7xx_HAL_Driver/Src/stm32h7xx_hal_mdma.c ****         /* Check if the previous node is the last one in the current list or zero */
 774:./Libraries/STM32H7xx_HAL_Driver/Src/stm32h7xx_hal_mdma.c ****         if((pPrevNode == hmdma->LastLinkedListNodeAddress) || (pPrevNode == NULL))
 1280              		.loc 1 774 31
 1281 00cc FB68     		ldr	r3, [r7, #12]
 1282 00ce 1B6E     		ldr	r3, [r3, #96]
 1283              		.loc 1 774 11
 1284 00d0 7A68     		ldr	r2, [r7, #4]
 1285 00d2 9A42     		cmp	r2, r3
 1286 00d4 02D0     		beq	.L80
 1287              		.loc 1 774 60 discriminator 1
 1288 00d6 7B68     		ldr	r3, [r7, #4]
 1289 00d8 002B     		cmp	r3, #0
 1290 00da 11D1     		bne	.L81
 1291              	.L80:
 775:./Libraries/STM32H7xx_HAL_Driver/Src/stm32h7xx_hal_mdma.c ****         {
 776:./Libraries/STM32H7xx_HAL_Driver/Src/stm32h7xx_hal_mdma.c ****           /* insert the new node at the end of the list */
 777:./Libraries/STM32H7xx_HAL_Driver/Src/stm32h7xx_hal_mdma.c ****           pNewNode->CLAR = hmdma->LastLinkedListNodeAddress->CLAR;
 1292              		.loc 1 777 33
 1293 00dc FB68     		ldr	r3, [r7, #12]
 1294 00de 1B6E     		ldr	r3, [r3, #96]
 1295              		.loc 1 777 60
 1296 00e0 5A69     		ldr	r2, [r3, #20]
 1297              		.loc 1 777 26
 1298 00e2 BB68     		ldr	r3, [r7, #8]
 1299 00e4 5A61     		str	r2, [r3, #20]
 778:./Libraries/STM32H7xx_HAL_Driver/Src/stm32h7xx_hal_mdma.c ****           hmdma->LastLinkedListNodeAddress->CLAR = (uint32_t)pNewNode;
 1300              		.loc 1 778 16
 1301 00e6 FB68     		ldr	r3, [r7, #12]
 1302 00e8 1B6E     		ldr	r3, [r3, #96]
 1303              		.loc 1 778 52
 1304 00ea BA68     		ldr	r2, [r7, #8]
 1305              		.loc 1 778 50
 1306 00ec 5A61     		str	r2, [r3, #20]
 779:./Libraries/STM32H7xx_HAL_Driver/Src/stm32h7xx_hal_mdma.c ****           /* Update the Handle last node address */
 780:./Libraries/STM32H7xx_HAL_Driver/Src/stm32h7xx_hal_mdma.c ****           hmdma->LastLinkedListNodeAddress = pNewNode;
 1307              		.loc 1 780 44
 1308 00ee FB68     		ldr	r3, [r7, #12]
 1309 00f0 BA68     		ldr	r2, [r7, #8]
 1310 00f2 1A66     		str	r2, [r3, #96]
 781:./Libraries/STM32H7xx_HAL_Driver/Src/stm32h7xx_hal_mdma.c ****           /* Increment the linked list node counter */
 782:./Libraries/STM32H7xx_HAL_Driver/Src/stm32h7xx_hal_mdma.c ****           hmdma->LinkedListNodeCounter++;
 1311              		.loc 1 782 16
 1312 00f4 FB68     		ldr	r3, [r7, #12]
 1313 00f6 5B6E     		ldr	r3, [r3, #100]
 1314              		.loc 1 782 39
 1315 00f8 5A1C     		adds	r2, r3, #1
 1316 00fa FB68     		ldr	r3, [r7, #12]
 1317 00fc 5A66     		str	r2, [r3, #100]
 1318 00fe 2EE0     		b	.L73
 1319              	.L81:
 783:./Libraries/STM32H7xx_HAL_Driver/Src/stm32h7xx_hal_mdma.c ****         }
 784:./Libraries/STM32H7xx_HAL_Driver/Src/stm32h7xx_hal_mdma.c ****         else
 785:./Libraries/STM32H7xx_HAL_Driver/Src/stm32h7xx_hal_mdma.c ****         {
 786:./Libraries/STM32H7xx_HAL_Driver/Src/stm32h7xx_hal_mdma.c ****           /*insert the new node after the pPreviousNode node */
 787:./Libraries/STM32H7xx_HAL_Driver/Src/stm32h7xx_hal_mdma.c ****           pNode = hmdma->FirstLinkedListNodeAddress;
 1320              		.loc 1 787 17
 1321 0100 FB68     		ldr	r3, [r7, #12]
ARM GAS  /tmp/ccZsyCUo.s 			page 38


 1322 0102 DB6D     		ldr	r3, [r3, #92]
 1323 0104 FB61     		str	r3, [r7, #28]
 788:./Libraries/STM32H7xx_HAL_Driver/Src/stm32h7xx_hal_mdma.c ****           counter = 0;
 1324              		.loc 1 788 19
 1325 0106 0023     		movs	r3, #0
 1326 0108 BB61     		str	r3, [r7, #24]
 789:./Libraries/STM32H7xx_HAL_Driver/Src/stm32h7xx_hal_mdma.c ****           while((counter < hmdma->LinkedListNodeCounter) && (nodeInserted == 0U))
 1327              		.loc 1 789 16
 1328 010a 18E0     		b	.L82
 1329              	.L85:
 790:./Libraries/STM32H7xx_HAL_Driver/Src/stm32h7xx_hal_mdma.c ****           {
 791:./Libraries/STM32H7xx_HAL_Driver/Src/stm32h7xx_hal_mdma.c ****             counter++;
 1330              		.loc 1 791 20
 1331 010c BB69     		ldr	r3, [r7, #24]
 1332 010e 0133     		adds	r3, r3, #1
 1333 0110 BB61     		str	r3, [r7, #24]
 792:./Libraries/STM32H7xx_HAL_Driver/Src/stm32h7xx_hal_mdma.c ****             if(pNode == pPrevNode)
 1334              		.loc 1 792 15
 1335 0112 FA69     		ldr	r2, [r7, #28]
 1336 0114 7B68     		ldr	r3, [r7, #4]
 1337 0116 9A42     		cmp	r2, r3
 1338 0118 0ED1     		bne	.L83
 793:./Libraries/STM32H7xx_HAL_Driver/Src/stm32h7xx_hal_mdma.c ****             {
 794:./Libraries/STM32H7xx_HAL_Driver/Src/stm32h7xx_hal_mdma.c ****               /*Insert the new node after the previous one */
 795:./Libraries/STM32H7xx_HAL_Driver/Src/stm32h7xx_hal_mdma.c ****               pNewNode->CLAR = pNode->CLAR;
 1339              		.loc 1 795 37
 1340 011a FB69     		ldr	r3, [r7, #28]
 1341 011c 5A69     		ldr	r2, [r3, #20]
 1342              		.loc 1 795 30
 1343 011e BB68     		ldr	r3, [r7, #8]
 1344 0120 5A61     		str	r2, [r3, #20]
 796:./Libraries/STM32H7xx_HAL_Driver/Src/stm32h7xx_hal_mdma.c ****               pNode->CLAR = (uint32_t)pNewNode;
 1345              		.loc 1 796 29
 1346 0122 BA68     		ldr	r2, [r7, #8]
 1347              		.loc 1 796 27
 1348 0124 FB69     		ldr	r3, [r7, #28]
 1349 0126 5A61     		str	r2, [r3, #20]
 797:./Libraries/STM32H7xx_HAL_Driver/Src/stm32h7xx_hal_mdma.c ****               /* Increment the linked list node counter */
 798:./Libraries/STM32H7xx_HAL_Driver/Src/stm32h7xx_hal_mdma.c ****               hmdma->LinkedListNodeCounter++;
 1350              		.loc 1 798 20
 1351 0128 FB68     		ldr	r3, [r7, #12]
 1352 012a 5B6E     		ldr	r3, [r3, #100]
 1353              		.loc 1 798 43
 1354 012c 5A1C     		adds	r2, r3, #1
 1355 012e FB68     		ldr	r3, [r7, #12]
 1356 0130 5A66     		str	r2, [r3, #100]
 799:./Libraries/STM32H7xx_HAL_Driver/Src/stm32h7xx_hal_mdma.c ****               nodeInserted = 1;
 1357              		.loc 1 799 28
 1358 0132 0123     		movs	r3, #1
 1359 0134 7B61     		str	r3, [r7, #20]
 1360 0136 02E0     		b	.L82
 1361              	.L83:
 800:./Libraries/STM32H7xx_HAL_Driver/Src/stm32h7xx_hal_mdma.c ****             }
 801:./Libraries/STM32H7xx_HAL_Driver/Src/stm32h7xx_hal_mdma.c ****             else
 802:./Libraries/STM32H7xx_HAL_Driver/Src/stm32h7xx_hal_mdma.c ****             {
 803:./Libraries/STM32H7xx_HAL_Driver/Src/stm32h7xx_hal_mdma.c ****               pNode = (MDMA_LinkNodeTypeDef *)pNode->CLAR;
 1362              		.loc 1 803 52
ARM GAS  /tmp/ccZsyCUo.s 			page 39


 1363 0138 FB69     		ldr	r3, [r7, #28]
 1364 013a 5B69     		ldr	r3, [r3, #20]
 1365              		.loc 1 803 21
 1366 013c FB61     		str	r3, [r7, #28]
 1367              	.L82:
 789:./Libraries/STM32H7xx_HAL_Driver/Src/stm32h7xx_hal_mdma.c ****           {
 1368              		.loc 1 789 33
 1369 013e FB68     		ldr	r3, [r7, #12]
 1370 0140 5B6E     		ldr	r3, [r3, #100]
 789:./Libraries/STM32H7xx_HAL_Driver/Src/stm32h7xx_hal_mdma.c ****           {
 1371              		.loc 1 789 16
 1372 0142 BA69     		ldr	r2, [r7, #24]
 1373 0144 9A42     		cmp	r2, r3
 1374 0146 02D2     		bcs	.L84
 789:./Libraries/STM32H7xx_HAL_Driver/Src/stm32h7xx_hal_mdma.c ****           {
 1375              		.loc 1 789 58 discriminator 1
 1376 0148 7B69     		ldr	r3, [r7, #20]
 1377 014a 002B     		cmp	r3, #0
 1378 014c DED0     		beq	.L85
 1379              	.L84:
 804:./Libraries/STM32H7xx_HAL_Driver/Src/stm32h7xx_hal_mdma.c ****             }
 805:./Libraries/STM32H7xx_HAL_Driver/Src/stm32h7xx_hal_mdma.c ****           }
 806:./Libraries/STM32H7xx_HAL_Driver/Src/stm32h7xx_hal_mdma.c **** 
 807:./Libraries/STM32H7xx_HAL_Driver/Src/stm32h7xx_hal_mdma.c ****           if(nodeInserted == 0U)
 1380              		.loc 1 807 13
 1381 014e 7B69     		ldr	r3, [r7, #20]
 1382 0150 002B     		cmp	r3, #0
 1383 0152 04D1     		bne	.L73
 808:./Libraries/STM32H7xx_HAL_Driver/Src/stm32h7xx_hal_mdma.c ****           {
 809:./Libraries/STM32H7xx_HAL_Driver/Src/stm32h7xx_hal_mdma.c ****             hal_status = HAL_ERROR;
 1384              		.loc 1 809 24
 1385 0154 0123     		movs	r3, #1
 1386 0156 FB74     		strb	r3, [r7, #19]
 1387 0158 01E0     		b	.L73
 1388              	.L74:
 810:./Libraries/STM32H7xx_HAL_Driver/Src/stm32h7xx_hal_mdma.c ****           }
 811:./Libraries/STM32H7xx_HAL_Driver/Src/stm32h7xx_hal_mdma.c ****         }
 812:./Libraries/STM32H7xx_HAL_Driver/Src/stm32h7xx_hal_mdma.c ****       }
 813:./Libraries/STM32H7xx_HAL_Driver/Src/stm32h7xx_hal_mdma.c ****     }
 814:./Libraries/STM32H7xx_HAL_Driver/Src/stm32h7xx_hal_mdma.c ****     else
 815:./Libraries/STM32H7xx_HAL_Driver/Src/stm32h7xx_hal_mdma.c ****     {
 816:./Libraries/STM32H7xx_HAL_Driver/Src/stm32h7xx_hal_mdma.c ****       hal_status = HAL_ERROR;
 1389              		.loc 1 816 18
 1390 015a 0123     		movs	r3, #1
 1391 015c FB74     		strb	r3, [r7, #19]
 1392              	.L73:
 817:./Libraries/STM32H7xx_HAL_Driver/Src/stm32h7xx_hal_mdma.c ****     }
 818:./Libraries/STM32H7xx_HAL_Driver/Src/stm32h7xx_hal_mdma.c **** 
 819:./Libraries/STM32H7xx_HAL_Driver/Src/stm32h7xx_hal_mdma.c ****     /* Process unlocked */
 820:./Libraries/STM32H7xx_HAL_Driver/Src/stm32h7xx_hal_mdma.c ****     __HAL_UNLOCK(hmdma);
 1393              		.loc 1 820 5
 1394 015e FB68     		ldr	r3, [r7, #12]
 1395 0160 0022     		movs	r2, #0
 1396 0162 83F83C20 		strb	r2, [r3, #60]
 821:./Libraries/STM32H7xx_HAL_Driver/Src/stm32h7xx_hal_mdma.c **** 
 822:./Libraries/STM32H7xx_HAL_Driver/Src/stm32h7xx_hal_mdma.c ****     hmdma->State = HAL_MDMA_STATE_READY;
 1397              		.loc 1 822 18
ARM GAS  /tmp/ccZsyCUo.s 			page 40


 1398 0166 FB68     		ldr	r3, [r7, #12]
 1399 0168 0122     		movs	r2, #1
 1400 016a 83F83D20 		strb	r2, [r3, #61]
 823:./Libraries/STM32H7xx_HAL_Driver/Src/stm32h7xx_hal_mdma.c **** 
 824:./Libraries/STM32H7xx_HAL_Driver/Src/stm32h7xx_hal_mdma.c ****     return hal_status;
 1401              		.loc 1 824 12
 1402 016e FB7C     		ldrb	r3, [r7, #19]	@ zero_extendqisi2
 1403 0170 04E0     		b	.L68
 1404              	.L70:
 825:./Libraries/STM32H7xx_HAL_Driver/Src/stm32h7xx_hal_mdma.c ****   }
 826:./Libraries/STM32H7xx_HAL_Driver/Src/stm32h7xx_hal_mdma.c ****   else
 827:./Libraries/STM32H7xx_HAL_Driver/Src/stm32h7xx_hal_mdma.c ****   {
 828:./Libraries/STM32H7xx_HAL_Driver/Src/stm32h7xx_hal_mdma.c ****     /* Process unlocked */
 829:./Libraries/STM32H7xx_HAL_Driver/Src/stm32h7xx_hal_mdma.c ****     __HAL_UNLOCK(hmdma);
 1405              		.loc 1 829 5
 1406 0172 FB68     		ldr	r3, [r7, #12]
 1407 0174 0022     		movs	r2, #0
 1408 0176 83F83C20 		strb	r2, [r3, #60]
 830:./Libraries/STM32H7xx_HAL_Driver/Src/stm32h7xx_hal_mdma.c **** 
 831:./Libraries/STM32H7xx_HAL_Driver/Src/stm32h7xx_hal_mdma.c ****     /* Return error status */
 832:./Libraries/STM32H7xx_HAL_Driver/Src/stm32h7xx_hal_mdma.c ****     return HAL_BUSY;
 1409              		.loc 1 832 12
 1410 017a 0223     		movs	r3, #2
 1411              	.L68:
 833:./Libraries/STM32H7xx_HAL_Driver/Src/stm32h7xx_hal_mdma.c ****   }
 834:./Libraries/STM32H7xx_HAL_Driver/Src/stm32h7xx_hal_mdma.c **** }
 1412              		.loc 1 834 1
 1413 017c 1846     		mov	r0, r3
 1414 017e 2437     		adds	r7, r7, #36
 1415              	.LCFI38:
 1416              		.cfi_def_cfa_offset 4
 1417 0180 BD46     		mov	sp, r7
 1418              	.LCFI39:
 1419              		.cfi_def_cfa_register 13
 1420              		@ sp needed
 1421 0182 5DF8047B 		ldr	r7, [sp], #4
 1422              	.LCFI40:
 1423              		.cfi_restore 7
 1424              		.cfi_def_cfa_offset 0
 1425 0186 7047     		bx	lr
 1426              		.cfi_endproc
 1427              	.LFE337:
 1429              		.section	.text.HAL_MDMA_LinkedList_RemoveNode,"ax",%progbits
 1430              		.align	1
 1431              		.global	HAL_MDMA_LinkedList_RemoveNode
 1432              		.syntax unified
 1433              		.thumb
 1434              		.thumb_func
 1435              		.fpu fpv5-d16
 1437              	HAL_MDMA_LinkedList_RemoveNode:
 1438              	.LFB338:
 835:./Libraries/STM32H7xx_HAL_Driver/Src/stm32h7xx_hal_mdma.c **** 
 836:./Libraries/STM32H7xx_HAL_Driver/Src/stm32h7xx_hal_mdma.c **** /**
 837:./Libraries/STM32H7xx_HAL_Driver/Src/stm32h7xx_hal_mdma.c ****   * @brief  Disconnect/Remove a node from the transfer linked list.
 838:./Libraries/STM32H7xx_HAL_Driver/Src/stm32h7xx_hal_mdma.c ****   * @param  hmdma : Pointer to a MDMA_HandleTypeDef structure that contains
 839:./Libraries/STM32H7xx_HAL_Driver/Src/stm32h7xx_hal_mdma.c ****   *                 the configuration information for the specified MDMA Channel.
 840:./Libraries/STM32H7xx_HAL_Driver/Src/stm32h7xx_hal_mdma.c ****   * @param  pNode : Pointer to a MDMA_LinkNodeTypeDef structure that contains Linked list node
ARM GAS  /tmp/ccZsyCUo.s 			page 41


 841:./Libraries/STM32H7xx_HAL_Driver/Src/stm32h7xx_hal_mdma.c ****   *                 to be removed from the list.
 842:./Libraries/STM32H7xx_HAL_Driver/Src/stm32h7xx_hal_mdma.c ****   *
 843:./Libraries/STM32H7xx_HAL_Driver/Src/stm32h7xx_hal_mdma.c ****   * @retval HAL status
 844:./Libraries/STM32H7xx_HAL_Driver/Src/stm32h7xx_hal_mdma.c ****   */
 845:./Libraries/STM32H7xx_HAL_Driver/Src/stm32h7xx_hal_mdma.c **** HAL_StatusTypeDef HAL_MDMA_LinkedList_RemoveNode(MDMA_HandleTypeDef *hmdma, MDMA_LinkNodeTypeDef *p
 846:./Libraries/STM32H7xx_HAL_Driver/Src/stm32h7xx_hal_mdma.c **** {
 1439              		.loc 1 846 1
 1440              		.cfi_startproc
 1441              		@ args = 0, pretend = 0, frame = 24
 1442              		@ frame_needed = 1, uses_anonymous_args = 0
 1443              		@ link register save eliminated.
 1444 0000 80B4     		push	{r7}
 1445              	.LCFI41:
 1446              		.cfi_def_cfa_offset 4
 1447              		.cfi_offset 7, -4
 1448 0002 87B0     		sub	sp, sp, #28
 1449              	.LCFI42:
 1450              		.cfi_def_cfa_offset 32
 1451 0004 00AF     		add	r7, sp, #0
 1452              	.LCFI43:
 1453              		.cfi_def_cfa_register 7
 1454 0006 7860     		str	r0, [r7, #4]
 1455 0008 3960     		str	r1, [r7]
 847:./Libraries/STM32H7xx_HAL_Driver/Src/stm32h7xx_hal_mdma.c ****   MDMA_LinkNodeTypeDef *ptmpNode;
 848:./Libraries/STM32H7xx_HAL_Driver/Src/stm32h7xx_hal_mdma.c ****   uint32_t counter = 0, nodeDeleted = 0;
 1456              		.loc 1 848 12
 1457 000a 0023     		movs	r3, #0
 1458 000c 3B61     		str	r3, [r7, #16]
 1459              		.loc 1 848 25
 1460 000e 0023     		movs	r3, #0
 1461 0010 FB60     		str	r3, [r7, #12]
 849:./Libraries/STM32H7xx_HAL_Driver/Src/stm32h7xx_hal_mdma.c ****   HAL_StatusTypeDef hal_status = HAL_OK;
 1462              		.loc 1 849 21
 1463 0012 0023     		movs	r3, #0
 1464 0014 FB72     		strb	r3, [r7, #11]
 850:./Libraries/STM32H7xx_HAL_Driver/Src/stm32h7xx_hal_mdma.c **** 
 851:./Libraries/STM32H7xx_HAL_Driver/Src/stm32h7xx_hal_mdma.c ****   /* Check the MDMA peripheral handle */
 852:./Libraries/STM32H7xx_HAL_Driver/Src/stm32h7xx_hal_mdma.c ****   if((hmdma == NULL) || (pNode == NULL))
 1465              		.loc 1 852 5
 1466 0016 7B68     		ldr	r3, [r7, #4]
 1467 0018 002B     		cmp	r3, #0
 1468 001a 02D0     		beq	.L87
 1469              		.loc 1 852 22 discriminator 1
 1470 001c 3B68     		ldr	r3, [r7]
 1471 001e 002B     		cmp	r3, #0
 1472 0020 01D1     		bne	.L88
 1473              	.L87:
 853:./Libraries/STM32H7xx_HAL_Driver/Src/stm32h7xx_hal_mdma.c ****   {
 854:./Libraries/STM32H7xx_HAL_Driver/Src/stm32h7xx_hal_mdma.c ****     return HAL_ERROR;
 1474              		.loc 1 854 12
 1475 0022 0123     		movs	r3, #1
 1476 0024 99E0     		b	.L89
 1477              	.L88:
 855:./Libraries/STM32H7xx_HAL_Driver/Src/stm32h7xx_hal_mdma.c ****   }
 856:./Libraries/STM32H7xx_HAL_Driver/Src/stm32h7xx_hal_mdma.c **** 
 857:./Libraries/STM32H7xx_HAL_Driver/Src/stm32h7xx_hal_mdma.c ****   /* Process locked */
 858:./Libraries/STM32H7xx_HAL_Driver/Src/stm32h7xx_hal_mdma.c ****   __HAL_LOCK(hmdma);
ARM GAS  /tmp/ccZsyCUo.s 			page 42


 1478              		.loc 1 858 3
 1479 0026 7B68     		ldr	r3, [r7, #4]
 1480 0028 93F83C30 		ldrb	r3, [r3, #60]	@ zero_extendqisi2
 1481 002c 012B     		cmp	r3, #1
 1482 002e 01D1     		bne	.L90
 1483              		.loc 1 858 3 is_stmt 0 discriminator 1
 1484 0030 0223     		movs	r3, #2
 1485 0032 92E0     		b	.L89
 1486              	.L90:
 1487              		.loc 1 858 3 discriminator 2
 1488 0034 7B68     		ldr	r3, [r7, #4]
 1489 0036 0122     		movs	r2, #1
 1490 0038 83F83C20 		strb	r2, [r3, #60]
 859:./Libraries/STM32H7xx_HAL_Driver/Src/stm32h7xx_hal_mdma.c **** 
 860:./Libraries/STM32H7xx_HAL_Driver/Src/stm32h7xx_hal_mdma.c ****   if(HAL_MDMA_STATE_READY == hmdma->State)
 1491              		.loc 1 860 35 is_stmt 1 discriminator 2
 1492 003c 7B68     		ldr	r3, [r7, #4]
 1493 003e 93F83D30 		ldrb	r3, [r3, #61]
 1494 0042 DBB2     		uxtb	r3, r3
 1495              		.loc 1 860 5 discriminator 2
 1496 0044 012B     		cmp	r3, #1
 1497 0046 40F08380 		bne	.L91
 861:./Libraries/STM32H7xx_HAL_Driver/Src/stm32h7xx_hal_mdma.c ****   {
 862:./Libraries/STM32H7xx_HAL_Driver/Src/stm32h7xx_hal_mdma.c ****     /* Change MDMA peripheral state */
 863:./Libraries/STM32H7xx_HAL_Driver/Src/stm32h7xx_hal_mdma.c ****     hmdma->State = HAL_MDMA_STATE_BUSY;
 1498              		.loc 1 863 18
 1499 004a 7B68     		ldr	r3, [r7, #4]
 1500 004c 0222     		movs	r2, #2
 1501 004e 83F83D20 		strb	r2, [r3, #61]
 864:./Libraries/STM32H7xx_HAL_Driver/Src/stm32h7xx_hal_mdma.c **** 
 865:./Libraries/STM32H7xx_HAL_Driver/Src/stm32h7xx_hal_mdma.c ****     /* If first and last node are null (no nodes in the list) : return error*/
 866:./Libraries/STM32H7xx_HAL_Driver/Src/stm32h7xx_hal_mdma.c ****     if(((uint32_t)hmdma->FirstLinkedListNodeAddress == 0U) || ((uint32_t)hmdma->LastLinkedListNodeA
 1502              		.loc 1 866 24
 1503 0052 7B68     		ldr	r3, [r7, #4]
 1504 0054 DB6D     		ldr	r3, [r3, #92]
 1505              		.loc 1 866 7
 1506 0056 002B     		cmp	r3, #0
 1507 0058 07D0     		beq	.L92
 1508              		.loc 1 866 79 discriminator 1
 1509 005a 7B68     		ldr	r3, [r7, #4]
 1510 005c 1B6E     		ldr	r3, [r3, #96]
 1511              		.loc 1 866 60 discriminator 1
 1512 005e 002B     		cmp	r3, #0
 1513 0060 03D0     		beq	.L92
 1514              		.loc 1 866 123 discriminator 2
 1515 0062 7B68     		ldr	r3, [r7, #4]
 1516 0064 5B6E     		ldr	r3, [r3, #100]
 1517              		.loc 1 866 114 discriminator 2
 1518 0066 002B     		cmp	r3, #0
 1519 0068 02D1     		bne	.L93
 1520              	.L92:
 867:./Libraries/STM32H7xx_HAL_Driver/Src/stm32h7xx_hal_mdma.c ****     {
 868:./Libraries/STM32H7xx_HAL_Driver/Src/stm32h7xx_hal_mdma.c ****       hal_status = HAL_ERROR;
 1521              		.loc 1 868 18
 1522 006a 0123     		movs	r3, #1
 1523 006c FB72     		strb	r3, [r7, #11]
 1524 006e 65E0     		b	.L94
ARM GAS  /tmp/ccZsyCUo.s 			page 43


 1525              	.L93:
 869:./Libraries/STM32H7xx_HAL_Driver/Src/stm32h7xx_hal_mdma.c ****     }
 870:./Libraries/STM32H7xx_HAL_Driver/Src/stm32h7xx_hal_mdma.c ****     else if(hmdma->FirstLinkedListNodeAddress == pNode) /* Deleting first node */
 1526              		.loc 1 870 18
 1527 0070 7B68     		ldr	r3, [r7, #4]
 1528 0072 DB6D     		ldr	r3, [r3, #92]
 1529              		.loc 1 870 12
 1530 0074 3A68     		ldr	r2, [r7]
 1531 0076 9A42     		cmp	r2, r3
 1532 0078 30D1     		bne	.L95
 871:./Libraries/STM32H7xx_HAL_Driver/Src/stm32h7xx_hal_mdma.c ****     {
 872:./Libraries/STM32H7xx_HAL_Driver/Src/stm32h7xx_hal_mdma.c ****       /* Delete 1st node */
 873:./Libraries/STM32H7xx_HAL_Driver/Src/stm32h7xx_hal_mdma.c ****       if(hmdma->LastLinkedListNodeAddress == pNode)
 1533              		.loc 1 873 15
 1534 007a 7B68     		ldr	r3, [r7, #4]
 1535 007c 1B6E     		ldr	r3, [r3, #96]
 1536              		.loc 1 873 9
 1537 007e 3A68     		ldr	r2, [r7]
 1538 0080 9A42     		cmp	r2, r3
 1539 0082 0DD1     		bne	.L96
 874:./Libraries/STM32H7xx_HAL_Driver/Src/stm32h7xx_hal_mdma.c ****       {
 875:./Libraries/STM32H7xx_HAL_Driver/Src/stm32h7xx_hal_mdma.c ****         /*if the last node is at the same time the first one (1 single node after the init node 0)
 876:./Libraries/STM32H7xx_HAL_Driver/Src/stm32h7xx_hal_mdma.c ****         then update the last node too */
 877:./Libraries/STM32H7xx_HAL_Driver/Src/stm32h7xx_hal_mdma.c **** 
 878:./Libraries/STM32H7xx_HAL_Driver/Src/stm32h7xx_hal_mdma.c ****         hmdma->FirstLinkedListNodeAddress = 0;
 1540              		.loc 1 878 43
 1541 0084 7B68     		ldr	r3, [r7, #4]
 1542 0086 0022     		movs	r2, #0
 1543 0088 DA65     		str	r2, [r3, #92]
 879:./Libraries/STM32H7xx_HAL_Driver/Src/stm32h7xx_hal_mdma.c ****         hmdma->LastLinkedListNodeAddress  = 0;
 1544              		.loc 1 879 43
 1545 008a 7B68     		ldr	r3, [r7, #4]
 1546 008c 0022     		movs	r2, #0
 1547 008e 1A66     		str	r2, [r3, #96]
 880:./Libraries/STM32H7xx_HAL_Driver/Src/stm32h7xx_hal_mdma.c ****         hmdma->LinkedListNodeCounter = 0;
 1548              		.loc 1 880 38
 1549 0090 7B68     		ldr	r3, [r7, #4]
 1550 0092 0022     		movs	r2, #0
 1551 0094 5A66     		str	r2, [r3, #100]
 881:./Libraries/STM32H7xx_HAL_Driver/Src/stm32h7xx_hal_mdma.c **** 
 882:./Libraries/STM32H7xx_HAL_Driver/Src/stm32h7xx_hal_mdma.c ****         hmdma->Instance->CLAR = 0;
 1552              		.loc 1 882 14
 1553 0096 7B68     		ldr	r3, [r7, #4]
 1554 0098 1B68     		ldr	r3, [r3]
 1555              		.loc 1 882 31
 1556 009a 0022     		movs	r2, #0
 1557 009c 5A62     		str	r2, [r3, #36]
 1558 009e 4DE0     		b	.L94
 1559              	.L96:
 883:./Libraries/STM32H7xx_HAL_Driver/Src/stm32h7xx_hal_mdma.c ****       }
 884:./Libraries/STM32H7xx_HAL_Driver/Src/stm32h7xx_hal_mdma.c ****       else
 885:./Libraries/STM32H7xx_HAL_Driver/Src/stm32h7xx_hal_mdma.c ****       {
 886:./Libraries/STM32H7xx_HAL_Driver/Src/stm32h7xx_hal_mdma.c ****         if((uint32_t)hmdma->FirstLinkedListNodeAddress == hmdma->LastLinkedListNodeAddress->CLAR)
 1560              		.loc 1 886 27
 1561 00a0 7B68     		ldr	r3, [r7, #4]
 1562 00a2 DB6D     		ldr	r3, [r3, #92]
 1563              		.loc 1 886 12
ARM GAS  /tmp/ccZsyCUo.s 			page 44


 1564 00a4 1A46     		mov	r2, r3
 1565              		.loc 1 886 64
 1566 00a6 7B68     		ldr	r3, [r7, #4]
 1567 00a8 1B6E     		ldr	r3, [r3, #96]
 1568              		.loc 1 886 91
 1569 00aa 5B69     		ldr	r3, [r3, #20]
 1570              		.loc 1 886 11
 1571 00ac 9A42     		cmp	r2, r3
 1572 00ae 04D1     		bne	.L97
 887:./Libraries/STM32H7xx_HAL_Driver/Src/stm32h7xx_hal_mdma.c ****         {
 888:./Libraries/STM32H7xx_HAL_Driver/Src/stm32h7xx_hal_mdma.c ****           /* if last node is looping to first (circular list) one update the last node connection *
 889:./Libraries/STM32H7xx_HAL_Driver/Src/stm32h7xx_hal_mdma.c ****           hmdma->LastLinkedListNodeAddress->CLAR = pNode->CLAR;
 1573              		.loc 1 889 16
 1574 00b0 7B68     		ldr	r3, [r7, #4]
 1575 00b2 1B6E     		ldr	r3, [r3, #96]
 1576              		.loc 1 889 57
 1577 00b4 3A68     		ldr	r2, [r7]
 1578 00b6 5269     		ldr	r2, [r2, #20]
 1579              		.loc 1 889 50
 1580 00b8 5A61     		str	r2, [r3, #20]
 1581              	.L97:
 890:./Libraries/STM32H7xx_HAL_Driver/Src/stm32h7xx_hal_mdma.c ****         }
 891:./Libraries/STM32H7xx_HAL_Driver/Src/stm32h7xx_hal_mdma.c **** 
 892:./Libraries/STM32H7xx_HAL_Driver/Src/stm32h7xx_hal_mdma.c ****         /* if deleting the first node after the initialization
 893:./Libraries/STM32H7xx_HAL_Driver/Src/stm32h7xx_hal_mdma.c ****         connect the next node to the node 0 by updating
 894:./Libraries/STM32H7xx_HAL_Driver/Src/stm32h7xx_hal_mdma.c ****         the MDMA channel CLAR register to this node address */
 895:./Libraries/STM32H7xx_HAL_Driver/Src/stm32h7xx_hal_mdma.c ****         hmdma->Instance->CLAR = pNode->CLAR;
 1582              		.loc 1 895 14
 1583 00ba 7B68     		ldr	r3, [r7, #4]
 1584 00bc 1B68     		ldr	r3, [r3]
 1585              		.loc 1 895 38
 1586 00be 3A68     		ldr	r2, [r7]
 1587 00c0 5269     		ldr	r2, [r2, #20]
 1588              		.loc 1 895 31
 1589 00c2 5A62     		str	r2, [r3, #36]
 896:./Libraries/STM32H7xx_HAL_Driver/Src/stm32h7xx_hal_mdma.c ****         hmdma->FirstLinkedListNodeAddress = (MDMA_LinkNodeTypeDef *)hmdma->Instance->CLAR;
 1590              		.loc 1 896 74
 1591 00c4 7B68     		ldr	r3, [r7, #4]
 1592 00c6 1B68     		ldr	r3, [r3]
 1593              		.loc 1 896 84
 1594 00c8 5B6A     		ldr	r3, [r3, #36]
 1595              		.loc 1 896 45
 1596 00ca 1A46     		mov	r2, r3
 1597              		.loc 1 896 43
 1598 00cc 7B68     		ldr	r3, [r7, #4]
 1599 00ce DA65     		str	r2, [r3, #92]
 897:./Libraries/STM32H7xx_HAL_Driver/Src/stm32h7xx_hal_mdma.c ****         /* Update the Handle node counter */
 898:./Libraries/STM32H7xx_HAL_Driver/Src/stm32h7xx_hal_mdma.c ****         hmdma->LinkedListNodeCounter--;
 1600              		.loc 1 898 14
 1601 00d0 7B68     		ldr	r3, [r7, #4]
 1602 00d2 5B6E     		ldr	r3, [r3, #100]
 1603              		.loc 1 898 37
 1604 00d4 5A1E     		subs	r2, r3, #1
 1605 00d6 7B68     		ldr	r3, [r7, #4]
 1606 00d8 5A66     		str	r2, [r3, #100]
 1607 00da 2FE0     		b	.L94
 1608              	.L95:
ARM GAS  /tmp/ccZsyCUo.s 			page 45


 899:./Libraries/STM32H7xx_HAL_Driver/Src/stm32h7xx_hal_mdma.c ****       }
 900:./Libraries/STM32H7xx_HAL_Driver/Src/stm32h7xx_hal_mdma.c ****     }
 901:./Libraries/STM32H7xx_HAL_Driver/Src/stm32h7xx_hal_mdma.c ****     else /* Deleting any other node */
 902:./Libraries/STM32H7xx_HAL_Driver/Src/stm32h7xx_hal_mdma.c ****     {
 903:./Libraries/STM32H7xx_HAL_Driver/Src/stm32h7xx_hal_mdma.c ****       /*Deleted node is not the first one : find it  */
 904:./Libraries/STM32H7xx_HAL_Driver/Src/stm32h7xx_hal_mdma.c ****       ptmpNode = hmdma->FirstLinkedListNodeAddress;
 1609              		.loc 1 904 16
 1610 00dc 7B68     		ldr	r3, [r7, #4]
 1611 00de DB6D     		ldr	r3, [r3, #92]
 1612 00e0 7B61     		str	r3, [r7, #20]
 905:./Libraries/STM32H7xx_HAL_Driver/Src/stm32h7xx_hal_mdma.c ****       while((counter < hmdma->LinkedListNodeCounter) && (nodeDeleted == 0U))
 1613              		.loc 1 905 12
 1614 00e2 1EE0     		b	.L98
 1615              	.L102:
 906:./Libraries/STM32H7xx_HAL_Driver/Src/stm32h7xx_hal_mdma.c ****       {
 907:./Libraries/STM32H7xx_HAL_Driver/Src/stm32h7xx_hal_mdma.c ****         counter++;
 1616              		.loc 1 907 16
 1617 00e4 3B69     		ldr	r3, [r7, #16]
 1618 00e6 0133     		adds	r3, r3, #1
 1619 00e8 3B61     		str	r3, [r7, #16]
 908:./Libraries/STM32H7xx_HAL_Driver/Src/stm32h7xx_hal_mdma.c ****         if(ptmpNode->CLAR == ((uint32_t)pNode))
 1620              		.loc 1 908 20
 1621 00ea 7B69     		ldr	r3, [r7, #20]
 1622 00ec 5A69     		ldr	r2, [r3, #20]
 1623              		.loc 1 908 27
 1624 00ee 3B68     		ldr	r3, [r7]
 1625              		.loc 1 908 11
 1626 00f0 9A42     		cmp	r2, r3
 1627 00f2 13D1     		bne	.L99
 909:./Libraries/STM32H7xx_HAL_Driver/Src/stm32h7xx_hal_mdma.c ****         {
 910:./Libraries/STM32H7xx_HAL_Driver/Src/stm32h7xx_hal_mdma.c ****           /* if deleting the last node */
 911:./Libraries/STM32H7xx_HAL_Driver/Src/stm32h7xx_hal_mdma.c ****           if(pNode == hmdma->LastLinkedListNodeAddress)
 1628              		.loc 1 911 28
 1629 00f4 7B68     		ldr	r3, [r7, #4]
 1630 00f6 1B6E     		ldr	r3, [r3, #96]
 1631              		.loc 1 911 13
 1632 00f8 3A68     		ldr	r2, [r7]
 1633 00fa 9A42     		cmp	r2, r3
 1634 00fc 02D1     		bne	.L100
 912:./Libraries/STM32H7xx_HAL_Driver/Src/stm32h7xx_hal_mdma.c ****           {
 913:./Libraries/STM32H7xx_HAL_Driver/Src/stm32h7xx_hal_mdma.c ****             /*Update the linked list last node address in the handle*/
 914:./Libraries/STM32H7xx_HAL_Driver/Src/stm32h7xx_hal_mdma.c ****             hmdma->LastLinkedListNodeAddress = ptmpNode;
 1635              		.loc 1 914 46
 1636 00fe 7B68     		ldr	r3, [r7, #4]
 1637 0100 7A69     		ldr	r2, [r7, #20]
 1638 0102 1A66     		str	r2, [r3, #96]
 1639              	.L100:
 915:./Libraries/STM32H7xx_HAL_Driver/Src/stm32h7xx_hal_mdma.c ****           }
 916:./Libraries/STM32H7xx_HAL_Driver/Src/stm32h7xx_hal_mdma.c ****           /* update the next node link after deleting pMDMA_LinkedListNode */
 917:./Libraries/STM32H7xx_HAL_Driver/Src/stm32h7xx_hal_mdma.c ****           ptmpNode->CLAR = pNode->CLAR;
 1640              		.loc 1 917 33
 1641 0104 3B68     		ldr	r3, [r7]
 1642 0106 5A69     		ldr	r2, [r3, #20]
 1643              		.loc 1 917 26
 1644 0108 7B69     		ldr	r3, [r7, #20]
 1645 010a 5A61     		str	r2, [r3, #20]
 918:./Libraries/STM32H7xx_HAL_Driver/Src/stm32h7xx_hal_mdma.c ****           nodeDeleted = 1;
ARM GAS  /tmp/ccZsyCUo.s 			page 46


 1646              		.loc 1 918 23
 1647 010c 0123     		movs	r3, #1
 1648 010e FB60     		str	r3, [r7, #12]
 919:./Libraries/STM32H7xx_HAL_Driver/Src/stm32h7xx_hal_mdma.c ****           /* Update the Handle node counter */
 920:./Libraries/STM32H7xx_HAL_Driver/Src/stm32h7xx_hal_mdma.c ****           hmdma->LinkedListNodeCounter--;
 1649              		.loc 1 920 16
 1650 0110 7B68     		ldr	r3, [r7, #4]
 1651 0112 5B6E     		ldr	r3, [r3, #100]
 1652              		.loc 1 920 39
 1653 0114 5A1E     		subs	r2, r3, #1
 1654 0116 7B68     		ldr	r3, [r7, #4]
 1655 0118 5A66     		str	r2, [r3, #100]
 1656 011a 02E0     		b	.L98
 1657              	.L99:
 921:./Libraries/STM32H7xx_HAL_Driver/Src/stm32h7xx_hal_mdma.c ****         }
 922:./Libraries/STM32H7xx_HAL_Driver/Src/stm32h7xx_hal_mdma.c ****         else
 923:./Libraries/STM32H7xx_HAL_Driver/Src/stm32h7xx_hal_mdma.c ****         {
 924:./Libraries/STM32H7xx_HAL_Driver/Src/stm32h7xx_hal_mdma.c ****           ptmpNode = (MDMA_LinkNodeTypeDef *)ptmpNode->CLAR;
 1658              		.loc 1 924 54
 1659 011c 7B69     		ldr	r3, [r7, #20]
 1660 011e 5B69     		ldr	r3, [r3, #20]
 1661              		.loc 1 924 20
 1662 0120 7B61     		str	r3, [r7, #20]
 1663              	.L98:
 905:./Libraries/STM32H7xx_HAL_Driver/Src/stm32h7xx_hal_mdma.c ****       {
 1664              		.loc 1 905 29
 1665 0122 7B68     		ldr	r3, [r7, #4]
 1666 0124 5B6E     		ldr	r3, [r3, #100]
 905:./Libraries/STM32H7xx_HAL_Driver/Src/stm32h7xx_hal_mdma.c ****       {
 1667              		.loc 1 905 12
 1668 0126 3A69     		ldr	r2, [r7, #16]
 1669 0128 9A42     		cmp	r2, r3
 1670 012a 02D2     		bcs	.L101
 905:./Libraries/STM32H7xx_HAL_Driver/Src/stm32h7xx_hal_mdma.c ****       {
 1671              		.loc 1 905 54 discriminator 1
 1672 012c FB68     		ldr	r3, [r7, #12]
 1673 012e 002B     		cmp	r3, #0
 1674 0130 D8D0     		beq	.L102
 1675              	.L101:
 925:./Libraries/STM32H7xx_HAL_Driver/Src/stm32h7xx_hal_mdma.c ****         }
 926:./Libraries/STM32H7xx_HAL_Driver/Src/stm32h7xx_hal_mdma.c ****       }
 927:./Libraries/STM32H7xx_HAL_Driver/Src/stm32h7xx_hal_mdma.c **** 
 928:./Libraries/STM32H7xx_HAL_Driver/Src/stm32h7xx_hal_mdma.c ****       if(nodeDeleted == 0U)
 1676              		.loc 1 928 9
 1677 0132 FB68     		ldr	r3, [r7, #12]
 1678 0134 002B     		cmp	r3, #0
 1679 0136 01D1     		bne	.L94
 929:./Libraries/STM32H7xx_HAL_Driver/Src/stm32h7xx_hal_mdma.c ****       {
 930:./Libraries/STM32H7xx_HAL_Driver/Src/stm32h7xx_hal_mdma.c ****         /* last node reashed without finding the node to delete : return error */
 931:./Libraries/STM32H7xx_HAL_Driver/Src/stm32h7xx_hal_mdma.c ****         hal_status = HAL_ERROR;
 1680              		.loc 1 931 20
 1681 0138 0123     		movs	r3, #1
 1682 013a FB72     		strb	r3, [r7, #11]
 1683              	.L94:
 932:./Libraries/STM32H7xx_HAL_Driver/Src/stm32h7xx_hal_mdma.c ****       }
 933:./Libraries/STM32H7xx_HAL_Driver/Src/stm32h7xx_hal_mdma.c ****     }
 934:./Libraries/STM32H7xx_HAL_Driver/Src/stm32h7xx_hal_mdma.c **** 
ARM GAS  /tmp/ccZsyCUo.s 			page 47


 935:./Libraries/STM32H7xx_HAL_Driver/Src/stm32h7xx_hal_mdma.c ****     /* Process unlocked */
 936:./Libraries/STM32H7xx_HAL_Driver/Src/stm32h7xx_hal_mdma.c ****     __HAL_UNLOCK(hmdma);
 1684              		.loc 1 936 5
 1685 013c 7B68     		ldr	r3, [r7, #4]
 1686 013e 0022     		movs	r2, #0
 1687 0140 83F83C20 		strb	r2, [r3, #60]
 937:./Libraries/STM32H7xx_HAL_Driver/Src/stm32h7xx_hal_mdma.c **** 
 938:./Libraries/STM32H7xx_HAL_Driver/Src/stm32h7xx_hal_mdma.c ****     hmdma->State = HAL_MDMA_STATE_READY;
 1688              		.loc 1 938 18
 1689 0144 7B68     		ldr	r3, [r7, #4]
 1690 0146 0122     		movs	r2, #1
 1691 0148 83F83D20 		strb	r2, [r3, #61]
 939:./Libraries/STM32H7xx_HAL_Driver/Src/stm32h7xx_hal_mdma.c **** 
 940:./Libraries/STM32H7xx_HAL_Driver/Src/stm32h7xx_hal_mdma.c ****     return hal_status;
 1692              		.loc 1 940 12
 1693 014c FB7A     		ldrb	r3, [r7, #11]	@ zero_extendqisi2
 1694 014e 04E0     		b	.L89
 1695              	.L91:
 941:./Libraries/STM32H7xx_HAL_Driver/Src/stm32h7xx_hal_mdma.c ****   }
 942:./Libraries/STM32H7xx_HAL_Driver/Src/stm32h7xx_hal_mdma.c ****   else
 943:./Libraries/STM32H7xx_HAL_Driver/Src/stm32h7xx_hal_mdma.c ****   {
 944:./Libraries/STM32H7xx_HAL_Driver/Src/stm32h7xx_hal_mdma.c ****     /* Process unlocked */
 945:./Libraries/STM32H7xx_HAL_Driver/Src/stm32h7xx_hal_mdma.c ****     __HAL_UNLOCK(hmdma);
 1696              		.loc 1 945 5
 1697 0150 7B68     		ldr	r3, [r7, #4]
 1698 0152 0022     		movs	r2, #0
 1699 0154 83F83C20 		strb	r2, [r3, #60]
 946:./Libraries/STM32H7xx_HAL_Driver/Src/stm32h7xx_hal_mdma.c **** 
 947:./Libraries/STM32H7xx_HAL_Driver/Src/stm32h7xx_hal_mdma.c ****     /* Return error status */
 948:./Libraries/STM32H7xx_HAL_Driver/Src/stm32h7xx_hal_mdma.c ****     return HAL_BUSY;
 1700              		.loc 1 948 12
 1701 0158 0223     		movs	r3, #2
 1702              	.L89:
 949:./Libraries/STM32H7xx_HAL_Driver/Src/stm32h7xx_hal_mdma.c ****   }
 950:./Libraries/STM32H7xx_HAL_Driver/Src/stm32h7xx_hal_mdma.c **** }
 1703              		.loc 1 950 1
 1704 015a 1846     		mov	r0, r3
 1705 015c 1C37     		adds	r7, r7, #28
 1706              	.LCFI44:
 1707              		.cfi_def_cfa_offset 4
 1708 015e BD46     		mov	sp, r7
 1709              	.LCFI45:
 1710              		.cfi_def_cfa_register 13
 1711              		@ sp needed
 1712 0160 5DF8047B 		ldr	r7, [sp], #4
 1713              	.LCFI46:
 1714              		.cfi_restore 7
 1715              		.cfi_def_cfa_offset 0
 1716 0164 7047     		bx	lr
 1717              		.cfi_endproc
 1718              	.LFE338:
 1720              		.section	.text.HAL_MDMA_LinkedList_EnableCircularMode,"ax",%progbits
 1721              		.align	1
 1722              		.global	HAL_MDMA_LinkedList_EnableCircularMode
 1723              		.syntax unified
 1724              		.thumb
 1725              		.thumb_func
ARM GAS  /tmp/ccZsyCUo.s 			page 48


 1726              		.fpu fpv5-d16
 1728              	HAL_MDMA_LinkedList_EnableCircularMode:
 1729              	.LFB339:
 951:./Libraries/STM32H7xx_HAL_Driver/Src/stm32h7xx_hal_mdma.c **** 
 952:./Libraries/STM32H7xx_HAL_Driver/Src/stm32h7xx_hal_mdma.c **** /**
 953:./Libraries/STM32H7xx_HAL_Driver/Src/stm32h7xx_hal_mdma.c ****   * @brief  Make the linked list circular by connecting the last node to the first.
 954:./Libraries/STM32H7xx_HAL_Driver/Src/stm32h7xx_hal_mdma.c ****   * @param  hmdma : Pointer to a MDMA_HandleTypeDef structure that contains
 955:./Libraries/STM32H7xx_HAL_Driver/Src/stm32h7xx_hal_mdma.c ****   *                 the configuration information for the specified MDMA Channel.
 956:./Libraries/STM32H7xx_HAL_Driver/Src/stm32h7xx_hal_mdma.c ****   * @retval HAL status
 957:./Libraries/STM32H7xx_HAL_Driver/Src/stm32h7xx_hal_mdma.c ****   */
 958:./Libraries/STM32H7xx_HAL_Driver/Src/stm32h7xx_hal_mdma.c **** HAL_StatusTypeDef HAL_MDMA_LinkedList_EnableCircularMode(MDMA_HandleTypeDef *hmdma)
 959:./Libraries/STM32H7xx_HAL_Driver/Src/stm32h7xx_hal_mdma.c **** {
 1730              		.loc 1 959 1
 1731              		.cfi_startproc
 1732              		@ args = 0, pretend = 0, frame = 16
 1733              		@ frame_needed = 1, uses_anonymous_args = 0
 1734              		@ link register save eliminated.
 1735 0000 80B4     		push	{r7}
 1736              	.LCFI47:
 1737              		.cfi_def_cfa_offset 4
 1738              		.cfi_offset 7, -4
 1739 0002 85B0     		sub	sp, sp, #20
 1740              	.LCFI48:
 1741              		.cfi_def_cfa_offset 24
 1742 0004 00AF     		add	r7, sp, #0
 1743              	.LCFI49:
 1744              		.cfi_def_cfa_register 7
 1745 0006 7860     		str	r0, [r7, #4]
 960:./Libraries/STM32H7xx_HAL_Driver/Src/stm32h7xx_hal_mdma.c ****   HAL_StatusTypeDef hal_status = HAL_OK;
 1746              		.loc 1 960 21
 1747 0008 0023     		movs	r3, #0
 1748 000a FB73     		strb	r3, [r7, #15]
 961:./Libraries/STM32H7xx_HAL_Driver/Src/stm32h7xx_hal_mdma.c **** 
 962:./Libraries/STM32H7xx_HAL_Driver/Src/stm32h7xx_hal_mdma.c ****   /* Check the MDMA peripheral handle */
 963:./Libraries/STM32H7xx_HAL_Driver/Src/stm32h7xx_hal_mdma.c ****   if(hmdma == NULL)
 1749              		.loc 1 963 5
 1750 000c 7B68     		ldr	r3, [r7, #4]
 1751 000e 002B     		cmp	r3, #0
 1752 0010 01D1     		bne	.L104
 964:./Libraries/STM32H7xx_HAL_Driver/Src/stm32h7xx_hal_mdma.c ****   {
 965:./Libraries/STM32H7xx_HAL_Driver/Src/stm32h7xx_hal_mdma.c ****     return HAL_ERROR;
 1753              		.loc 1 965 12
 1754 0012 0123     		movs	r3, #1
 1755 0014 31E0     		b	.L105
 1756              	.L104:
 966:./Libraries/STM32H7xx_HAL_Driver/Src/stm32h7xx_hal_mdma.c ****   }
 967:./Libraries/STM32H7xx_HAL_Driver/Src/stm32h7xx_hal_mdma.c **** 
 968:./Libraries/STM32H7xx_HAL_Driver/Src/stm32h7xx_hal_mdma.c ****   /* Process locked */
 969:./Libraries/STM32H7xx_HAL_Driver/Src/stm32h7xx_hal_mdma.c ****   __HAL_LOCK(hmdma);
 1757              		.loc 1 969 3
 1758 0016 7B68     		ldr	r3, [r7, #4]
 1759 0018 93F83C30 		ldrb	r3, [r3, #60]	@ zero_extendqisi2
 1760 001c 012B     		cmp	r3, #1
 1761 001e 01D1     		bne	.L106
 1762              		.loc 1 969 3 is_stmt 0 discriminator 1
 1763 0020 0223     		movs	r3, #2
 1764 0022 2AE0     		b	.L105
ARM GAS  /tmp/ccZsyCUo.s 			page 49


 1765              	.L106:
 1766              		.loc 1 969 3 discriminator 2
 1767 0024 7B68     		ldr	r3, [r7, #4]
 1768 0026 0122     		movs	r2, #1
 1769 0028 83F83C20 		strb	r2, [r3, #60]
 970:./Libraries/STM32H7xx_HAL_Driver/Src/stm32h7xx_hal_mdma.c **** 
 971:./Libraries/STM32H7xx_HAL_Driver/Src/stm32h7xx_hal_mdma.c ****   if(HAL_MDMA_STATE_READY == hmdma->State)
 1770              		.loc 1 971 35 is_stmt 1 discriminator 2
 1771 002c 7B68     		ldr	r3, [r7, #4]
 1772 002e 93F83D30 		ldrb	r3, [r3, #61]
 1773 0032 DBB2     		uxtb	r3, r3
 1774              		.loc 1 971 5 discriminator 2
 1775 0034 012B     		cmp	r3, #1
 1776 0036 17D1     		bne	.L107
 972:./Libraries/STM32H7xx_HAL_Driver/Src/stm32h7xx_hal_mdma.c ****   {
 973:./Libraries/STM32H7xx_HAL_Driver/Src/stm32h7xx_hal_mdma.c ****     /* Change MDMA peripheral state */
 974:./Libraries/STM32H7xx_HAL_Driver/Src/stm32h7xx_hal_mdma.c ****     hmdma->State = HAL_MDMA_STATE_BUSY;
 1777              		.loc 1 974 18
 1778 0038 7B68     		ldr	r3, [r7, #4]
 1779 003a 0222     		movs	r2, #2
 1780 003c 83F83D20 		strb	r2, [r3, #61]
 975:./Libraries/STM32H7xx_HAL_Driver/Src/stm32h7xx_hal_mdma.c **** 
 976:./Libraries/STM32H7xx_HAL_Driver/Src/stm32h7xx_hal_mdma.c ****     /* If first and last node are null (no nodes in the list) : return error*/
 977:./Libraries/STM32H7xx_HAL_Driver/Src/stm32h7xx_hal_mdma.c ****     if(((uint32_t)hmdma->FirstLinkedListNodeAddress == 0U) || ((uint32_t)hmdma->LastLinkedListNodeA
 1781              		.loc 1 977 24
 1782 0040 7B68     		ldr	r3, [r7, #4]
 1783 0042 DB6D     		ldr	r3, [r3, #92]
 1784              		.loc 1 977 7
 1785 0044 002B     		cmp	r3, #0
 1786 0046 07D0     		beq	.L108
 1787              		.loc 1 977 79 discriminator 1
 1788 0048 7B68     		ldr	r3, [r7, #4]
 1789 004a 1B6E     		ldr	r3, [r3, #96]
 1790              		.loc 1 977 60 discriminator 1
 1791 004c 002B     		cmp	r3, #0
 1792 004e 03D0     		beq	.L108
 1793              		.loc 1 977 123 discriminator 2
 1794 0050 7B68     		ldr	r3, [r7, #4]
 1795 0052 5B6E     		ldr	r3, [r3, #100]
 1796              		.loc 1 977 114 discriminator 2
 1797 0054 002B     		cmp	r3, #0
 1798 0056 02D1     		bne	.L109
 1799              	.L108:
 978:./Libraries/STM32H7xx_HAL_Driver/Src/stm32h7xx_hal_mdma.c ****     {
 979:./Libraries/STM32H7xx_HAL_Driver/Src/stm32h7xx_hal_mdma.c ****       hal_status = HAL_ERROR;
 1800              		.loc 1 979 18
 1801 0058 0123     		movs	r3, #1
 1802 005a FB73     		strb	r3, [r7, #15]
 1803 005c 04E0     		b	.L107
 1804              	.L109:
 980:./Libraries/STM32H7xx_HAL_Driver/Src/stm32h7xx_hal_mdma.c ****     }
 981:./Libraries/STM32H7xx_HAL_Driver/Src/stm32h7xx_hal_mdma.c ****     else
 982:./Libraries/STM32H7xx_HAL_Driver/Src/stm32h7xx_hal_mdma.c ****     {
 983:./Libraries/STM32H7xx_HAL_Driver/Src/stm32h7xx_hal_mdma.c ****       /* to enable circular mode Last Node should be connected to first node */
 984:./Libraries/STM32H7xx_HAL_Driver/Src/stm32h7xx_hal_mdma.c ****       hmdma->LastLinkedListNodeAddress->CLAR = (uint32_t)hmdma->FirstLinkedListNodeAddress;
 1805              		.loc 1 984 63
 1806 005e 7B68     		ldr	r3, [r7, #4]
ARM GAS  /tmp/ccZsyCUo.s 			page 50


 1807 0060 DA6D     		ldr	r2, [r3, #92]
 1808              		.loc 1 984 12
 1809 0062 7B68     		ldr	r3, [r7, #4]
 1810 0064 1B6E     		ldr	r3, [r3, #96]
 1811              		.loc 1 984 46
 1812 0066 5A61     		str	r2, [r3, #20]
 1813              	.L107:
 985:./Libraries/STM32H7xx_HAL_Driver/Src/stm32h7xx_hal_mdma.c ****     }
 986:./Libraries/STM32H7xx_HAL_Driver/Src/stm32h7xx_hal_mdma.c **** 
 987:./Libraries/STM32H7xx_HAL_Driver/Src/stm32h7xx_hal_mdma.c ****   }
 988:./Libraries/STM32H7xx_HAL_Driver/Src/stm32h7xx_hal_mdma.c ****   /* Process unlocked */
 989:./Libraries/STM32H7xx_HAL_Driver/Src/stm32h7xx_hal_mdma.c ****   __HAL_UNLOCK(hmdma);
 1814              		.loc 1 989 3
 1815 0068 7B68     		ldr	r3, [r7, #4]
 1816 006a 0022     		movs	r2, #0
 1817 006c 83F83C20 		strb	r2, [r3, #60]
 990:./Libraries/STM32H7xx_HAL_Driver/Src/stm32h7xx_hal_mdma.c **** 
 991:./Libraries/STM32H7xx_HAL_Driver/Src/stm32h7xx_hal_mdma.c ****   hmdma->State = HAL_MDMA_STATE_READY;
 1818              		.loc 1 991 16
 1819 0070 7B68     		ldr	r3, [r7, #4]
 1820 0072 0122     		movs	r2, #1
 1821 0074 83F83D20 		strb	r2, [r3, #61]
 992:./Libraries/STM32H7xx_HAL_Driver/Src/stm32h7xx_hal_mdma.c **** 
 993:./Libraries/STM32H7xx_HAL_Driver/Src/stm32h7xx_hal_mdma.c ****   return hal_status;
 1822              		.loc 1 993 10
 1823 0078 FB7B     		ldrb	r3, [r7, #15]	@ zero_extendqisi2
 1824              	.L105:
 994:./Libraries/STM32H7xx_HAL_Driver/Src/stm32h7xx_hal_mdma.c **** }
 1825              		.loc 1 994 1
 1826 007a 1846     		mov	r0, r3
 1827 007c 1437     		adds	r7, r7, #20
 1828              	.LCFI50:
 1829              		.cfi_def_cfa_offset 4
 1830 007e BD46     		mov	sp, r7
 1831              	.LCFI51:
 1832              		.cfi_def_cfa_register 13
 1833              		@ sp needed
 1834 0080 5DF8047B 		ldr	r7, [sp], #4
 1835              	.LCFI52:
 1836              		.cfi_restore 7
 1837              		.cfi_def_cfa_offset 0
 1838 0084 7047     		bx	lr
 1839              		.cfi_endproc
 1840              	.LFE339:
 1842              		.section	.text.HAL_MDMA_LinkedList_DisableCircularMode,"ax",%progbits
 1843              		.align	1
 1844              		.global	HAL_MDMA_LinkedList_DisableCircularMode
 1845              		.syntax unified
 1846              		.thumb
 1847              		.thumb_func
 1848              		.fpu fpv5-d16
 1850              	HAL_MDMA_LinkedList_DisableCircularMode:
 1851              	.LFB340:
 995:./Libraries/STM32H7xx_HAL_Driver/Src/stm32h7xx_hal_mdma.c **** 
 996:./Libraries/STM32H7xx_HAL_Driver/Src/stm32h7xx_hal_mdma.c **** /**
 997:./Libraries/STM32H7xx_HAL_Driver/Src/stm32h7xx_hal_mdma.c ****   * @brief  Disable the linked list circular mode by setting the last node connection to null
 998:./Libraries/STM32H7xx_HAL_Driver/Src/stm32h7xx_hal_mdma.c ****   * @param  hmdma : Pointer to a MDMA_HandleTypeDef structure that contains
ARM GAS  /tmp/ccZsyCUo.s 			page 51


 999:./Libraries/STM32H7xx_HAL_Driver/Src/stm32h7xx_hal_mdma.c ****   *                 the configuration information for the specified MDMA Channel.
1000:./Libraries/STM32H7xx_HAL_Driver/Src/stm32h7xx_hal_mdma.c ****   * @retval HAL status
1001:./Libraries/STM32H7xx_HAL_Driver/Src/stm32h7xx_hal_mdma.c ****   */
1002:./Libraries/STM32H7xx_HAL_Driver/Src/stm32h7xx_hal_mdma.c **** HAL_StatusTypeDef HAL_MDMA_LinkedList_DisableCircularMode(MDMA_HandleTypeDef *hmdma)
1003:./Libraries/STM32H7xx_HAL_Driver/Src/stm32h7xx_hal_mdma.c **** {
 1852              		.loc 1 1003 1
 1853              		.cfi_startproc
 1854              		@ args = 0, pretend = 0, frame = 16
 1855              		@ frame_needed = 1, uses_anonymous_args = 0
 1856              		@ link register save eliminated.
 1857 0000 80B4     		push	{r7}
 1858              	.LCFI53:
 1859              		.cfi_def_cfa_offset 4
 1860              		.cfi_offset 7, -4
 1861 0002 85B0     		sub	sp, sp, #20
 1862              	.LCFI54:
 1863              		.cfi_def_cfa_offset 24
 1864 0004 00AF     		add	r7, sp, #0
 1865              	.LCFI55:
 1866              		.cfi_def_cfa_register 7
 1867 0006 7860     		str	r0, [r7, #4]
1004:./Libraries/STM32H7xx_HAL_Driver/Src/stm32h7xx_hal_mdma.c ****   HAL_StatusTypeDef hal_status = HAL_OK;
 1868              		.loc 1 1004 21
 1869 0008 0023     		movs	r3, #0
 1870 000a FB73     		strb	r3, [r7, #15]
1005:./Libraries/STM32H7xx_HAL_Driver/Src/stm32h7xx_hal_mdma.c **** 
1006:./Libraries/STM32H7xx_HAL_Driver/Src/stm32h7xx_hal_mdma.c ****   /* Check the MDMA peripheral handle */
1007:./Libraries/STM32H7xx_HAL_Driver/Src/stm32h7xx_hal_mdma.c ****   if(hmdma == NULL)
 1871              		.loc 1 1007 5
 1872 000c 7B68     		ldr	r3, [r7, #4]
 1873 000e 002B     		cmp	r3, #0
 1874 0010 01D1     		bne	.L111
1008:./Libraries/STM32H7xx_HAL_Driver/Src/stm32h7xx_hal_mdma.c ****   {
1009:./Libraries/STM32H7xx_HAL_Driver/Src/stm32h7xx_hal_mdma.c ****     return HAL_ERROR;
 1875              		.loc 1 1009 12
 1876 0012 0123     		movs	r3, #1
 1877 0014 30E0     		b	.L112
 1878              	.L111:
1010:./Libraries/STM32H7xx_HAL_Driver/Src/stm32h7xx_hal_mdma.c ****   }
1011:./Libraries/STM32H7xx_HAL_Driver/Src/stm32h7xx_hal_mdma.c **** 
1012:./Libraries/STM32H7xx_HAL_Driver/Src/stm32h7xx_hal_mdma.c ****   /* Process locked */
1013:./Libraries/STM32H7xx_HAL_Driver/Src/stm32h7xx_hal_mdma.c ****   __HAL_LOCK(hmdma);
 1879              		.loc 1 1013 3
 1880 0016 7B68     		ldr	r3, [r7, #4]
 1881 0018 93F83C30 		ldrb	r3, [r3, #60]	@ zero_extendqisi2
 1882 001c 012B     		cmp	r3, #1
 1883 001e 01D1     		bne	.L113
 1884              		.loc 1 1013 3 is_stmt 0 discriminator 1
 1885 0020 0223     		movs	r3, #2
 1886 0022 29E0     		b	.L112
 1887              	.L113:
 1888              		.loc 1 1013 3 discriminator 2
 1889 0024 7B68     		ldr	r3, [r7, #4]
 1890 0026 0122     		movs	r2, #1
 1891 0028 83F83C20 		strb	r2, [r3, #60]
1014:./Libraries/STM32H7xx_HAL_Driver/Src/stm32h7xx_hal_mdma.c **** 
1015:./Libraries/STM32H7xx_HAL_Driver/Src/stm32h7xx_hal_mdma.c ****   if(HAL_MDMA_STATE_READY == hmdma->State)
ARM GAS  /tmp/ccZsyCUo.s 			page 52


 1892              		.loc 1 1015 35 is_stmt 1 discriminator 2
 1893 002c 7B68     		ldr	r3, [r7, #4]
 1894 002e 93F83D30 		ldrb	r3, [r3, #61]
 1895 0032 DBB2     		uxtb	r3, r3
 1896              		.loc 1 1015 5 discriminator 2
 1897 0034 012B     		cmp	r3, #1
 1898 0036 16D1     		bne	.L114
1016:./Libraries/STM32H7xx_HAL_Driver/Src/stm32h7xx_hal_mdma.c ****   {
1017:./Libraries/STM32H7xx_HAL_Driver/Src/stm32h7xx_hal_mdma.c ****     /* Change MDMA peripheral state */
1018:./Libraries/STM32H7xx_HAL_Driver/Src/stm32h7xx_hal_mdma.c ****     hmdma->State = HAL_MDMA_STATE_BUSY;
 1899              		.loc 1 1018 18
 1900 0038 7B68     		ldr	r3, [r7, #4]
 1901 003a 0222     		movs	r2, #2
 1902 003c 83F83D20 		strb	r2, [r3, #61]
1019:./Libraries/STM32H7xx_HAL_Driver/Src/stm32h7xx_hal_mdma.c **** 
1020:./Libraries/STM32H7xx_HAL_Driver/Src/stm32h7xx_hal_mdma.c ****     /* If first and last node are null (no nodes in the list) : return error*/
1021:./Libraries/STM32H7xx_HAL_Driver/Src/stm32h7xx_hal_mdma.c ****     if(((uint32_t)hmdma->FirstLinkedListNodeAddress == 0U) || ((uint32_t)hmdma->LastLinkedListNodeA
 1903              		.loc 1 1021 24
 1904 0040 7B68     		ldr	r3, [r7, #4]
 1905 0042 DB6D     		ldr	r3, [r3, #92]
 1906              		.loc 1 1021 7
 1907 0044 002B     		cmp	r3, #0
 1908 0046 07D0     		beq	.L115
 1909              		.loc 1 1021 79 discriminator 1
 1910 0048 7B68     		ldr	r3, [r7, #4]
 1911 004a 1B6E     		ldr	r3, [r3, #96]
 1912              		.loc 1 1021 60 discriminator 1
 1913 004c 002B     		cmp	r3, #0
 1914 004e 03D0     		beq	.L115
 1915              		.loc 1 1021 123 discriminator 2
 1916 0050 7B68     		ldr	r3, [r7, #4]
 1917 0052 5B6E     		ldr	r3, [r3, #100]
 1918              		.loc 1 1021 114 discriminator 2
 1919 0054 002B     		cmp	r3, #0
 1920 0056 02D1     		bne	.L116
 1921              	.L115:
1022:./Libraries/STM32H7xx_HAL_Driver/Src/stm32h7xx_hal_mdma.c ****     {
1023:./Libraries/STM32H7xx_HAL_Driver/Src/stm32h7xx_hal_mdma.c ****       hal_status = HAL_ERROR;
 1922              		.loc 1 1023 18
 1923 0058 0123     		movs	r3, #1
 1924 005a FB73     		strb	r3, [r7, #15]
 1925 005c 03E0     		b	.L114
 1926              	.L116:
1024:./Libraries/STM32H7xx_HAL_Driver/Src/stm32h7xx_hal_mdma.c ****     }
1025:./Libraries/STM32H7xx_HAL_Driver/Src/stm32h7xx_hal_mdma.c ****     else
1026:./Libraries/STM32H7xx_HAL_Driver/Src/stm32h7xx_hal_mdma.c ****     {
1027:./Libraries/STM32H7xx_HAL_Driver/Src/stm32h7xx_hal_mdma.c ****       /* to disable circular mode Last Node should be connected to NULL */
1028:./Libraries/STM32H7xx_HAL_Driver/Src/stm32h7xx_hal_mdma.c ****       hmdma->LastLinkedListNodeAddress->CLAR = 0;
 1927              		.loc 1 1028 12
 1928 005e 7B68     		ldr	r3, [r7, #4]
 1929 0060 1B6E     		ldr	r3, [r3, #96]
 1930              		.loc 1 1028 46
 1931 0062 0022     		movs	r2, #0
 1932 0064 5A61     		str	r2, [r3, #20]
 1933              	.L114:
1029:./Libraries/STM32H7xx_HAL_Driver/Src/stm32h7xx_hal_mdma.c ****     }
1030:./Libraries/STM32H7xx_HAL_Driver/Src/stm32h7xx_hal_mdma.c **** 
ARM GAS  /tmp/ccZsyCUo.s 			page 53


1031:./Libraries/STM32H7xx_HAL_Driver/Src/stm32h7xx_hal_mdma.c ****   }
1032:./Libraries/STM32H7xx_HAL_Driver/Src/stm32h7xx_hal_mdma.c ****   /* Process unlocked */
1033:./Libraries/STM32H7xx_HAL_Driver/Src/stm32h7xx_hal_mdma.c ****   __HAL_UNLOCK(hmdma);
 1934              		.loc 1 1033 3
 1935 0066 7B68     		ldr	r3, [r7, #4]
 1936 0068 0022     		movs	r2, #0
 1937 006a 83F83C20 		strb	r2, [r3, #60]
1034:./Libraries/STM32H7xx_HAL_Driver/Src/stm32h7xx_hal_mdma.c **** 
1035:./Libraries/STM32H7xx_HAL_Driver/Src/stm32h7xx_hal_mdma.c ****   hmdma->State = HAL_MDMA_STATE_READY;
 1938              		.loc 1 1035 16
 1939 006e 7B68     		ldr	r3, [r7, #4]
 1940 0070 0122     		movs	r2, #1
 1941 0072 83F83D20 		strb	r2, [r3, #61]
1036:./Libraries/STM32H7xx_HAL_Driver/Src/stm32h7xx_hal_mdma.c **** 
1037:./Libraries/STM32H7xx_HAL_Driver/Src/stm32h7xx_hal_mdma.c ****   return hal_status;
 1942              		.loc 1 1037 10
 1943 0076 FB7B     		ldrb	r3, [r7, #15]	@ zero_extendqisi2
 1944              	.L112:
1038:./Libraries/STM32H7xx_HAL_Driver/Src/stm32h7xx_hal_mdma.c **** }
 1945              		.loc 1 1038 1
 1946 0078 1846     		mov	r0, r3
 1947 007a 1437     		adds	r7, r7, #20
 1948              	.LCFI56:
 1949              		.cfi_def_cfa_offset 4
 1950 007c BD46     		mov	sp, r7
 1951              	.LCFI57:
 1952              		.cfi_def_cfa_register 13
 1953              		@ sp needed
 1954 007e 5DF8047B 		ldr	r7, [sp], #4
 1955              	.LCFI58:
 1956              		.cfi_restore 7
 1957              		.cfi_def_cfa_offset 0
 1958 0082 7047     		bx	lr
 1959              		.cfi_endproc
 1960              	.LFE340:
 1962              		.section	.text.HAL_MDMA_Start,"ax",%progbits
 1963              		.align	1
 1964              		.global	HAL_MDMA_Start
 1965              		.syntax unified
 1966              		.thumb
 1967              		.thumb_func
 1968              		.fpu fpv5-d16
 1970              	HAL_MDMA_Start:
 1971              	.LFB341:
1039:./Libraries/STM32H7xx_HAL_Driver/Src/stm32h7xx_hal_mdma.c **** 
1040:./Libraries/STM32H7xx_HAL_Driver/Src/stm32h7xx_hal_mdma.c **** /**
1041:./Libraries/STM32H7xx_HAL_Driver/Src/stm32h7xx_hal_mdma.c ****   * @}
1042:./Libraries/STM32H7xx_HAL_Driver/Src/stm32h7xx_hal_mdma.c ****   */
1043:./Libraries/STM32H7xx_HAL_Driver/Src/stm32h7xx_hal_mdma.c **** 
1044:./Libraries/STM32H7xx_HAL_Driver/Src/stm32h7xx_hal_mdma.c **** /** @addtogroup MDMA_Exported_Functions_Group3
1045:./Libraries/STM32H7xx_HAL_Driver/Src/stm32h7xx_hal_mdma.c ****  *
1046:./Libraries/STM32H7xx_HAL_Driver/Src/stm32h7xx_hal_mdma.c **** @verbatim
1047:./Libraries/STM32H7xx_HAL_Driver/Src/stm32h7xx_hal_mdma.c ****  ===============================================================================
1048:./Libraries/STM32H7xx_HAL_Driver/Src/stm32h7xx_hal_mdma.c ****                       #####  IO operation functions  #####
1049:./Libraries/STM32H7xx_HAL_Driver/Src/stm32h7xx_hal_mdma.c ****  ===============================================================================
1050:./Libraries/STM32H7xx_HAL_Driver/Src/stm32h7xx_hal_mdma.c ****     [..]  This section provides functions allowing to:
1051:./Libraries/STM32H7xx_HAL_Driver/Src/stm32h7xx_hal_mdma.c ****       (+) Configure the source, destination address and data length and Start MDMA transfer
ARM GAS  /tmp/ccZsyCUo.s 			page 54


1052:./Libraries/STM32H7xx_HAL_Driver/Src/stm32h7xx_hal_mdma.c ****       (+) Configure the source, destination address and data length and
1053:./Libraries/STM32H7xx_HAL_Driver/Src/stm32h7xx_hal_mdma.c ****           Start MDMA transfer with interrupt
1054:./Libraries/STM32H7xx_HAL_Driver/Src/stm32h7xx_hal_mdma.c ****       (+) Abort MDMA transfer
1055:./Libraries/STM32H7xx_HAL_Driver/Src/stm32h7xx_hal_mdma.c ****       (+) Poll for transfer complete
1056:./Libraries/STM32H7xx_HAL_Driver/Src/stm32h7xx_hal_mdma.c ****       (+) Generate a SW request (when Request is set to MDMA_REQUEST_SW)
1057:./Libraries/STM32H7xx_HAL_Driver/Src/stm32h7xx_hal_mdma.c ****       (+) Handle MDMA interrupt request
1058:./Libraries/STM32H7xx_HAL_Driver/Src/stm32h7xx_hal_mdma.c **** 
1059:./Libraries/STM32H7xx_HAL_Driver/Src/stm32h7xx_hal_mdma.c **** @endverbatim
1060:./Libraries/STM32H7xx_HAL_Driver/Src/stm32h7xx_hal_mdma.c ****   * @{
1061:./Libraries/STM32H7xx_HAL_Driver/Src/stm32h7xx_hal_mdma.c ****   */
1062:./Libraries/STM32H7xx_HAL_Driver/Src/stm32h7xx_hal_mdma.c **** 
1063:./Libraries/STM32H7xx_HAL_Driver/Src/stm32h7xx_hal_mdma.c **** /**
1064:./Libraries/STM32H7xx_HAL_Driver/Src/stm32h7xx_hal_mdma.c ****   * @brief  Starts the MDMA Transfer.
1065:./Libraries/STM32H7xx_HAL_Driver/Src/stm32h7xx_hal_mdma.c ****   * @param  hmdma           : pointer to a MDMA_HandleTypeDef structure that contains
1066:./Libraries/STM32H7xx_HAL_Driver/Src/stm32h7xx_hal_mdma.c ****   *                           the configuration information for the specified MDMA Channel.
1067:./Libraries/STM32H7xx_HAL_Driver/Src/stm32h7xx_hal_mdma.c ****   * @param  SrcAddress      : The source memory Buffer address
1068:./Libraries/STM32H7xx_HAL_Driver/Src/stm32h7xx_hal_mdma.c ****   * @param  DstAddress      : The destination memory Buffer address
1069:./Libraries/STM32H7xx_HAL_Driver/Src/stm32h7xx_hal_mdma.c ****   * @param  BlockDataLength : The length of a block transfer in bytes
1070:./Libraries/STM32H7xx_HAL_Driver/Src/stm32h7xx_hal_mdma.c ****   * @param  BlockCount      : The number of a blocks to be transfer
1071:./Libraries/STM32H7xx_HAL_Driver/Src/stm32h7xx_hal_mdma.c ****   * @retval HAL status
1072:./Libraries/STM32H7xx_HAL_Driver/Src/stm32h7xx_hal_mdma.c ****   */
1073:./Libraries/STM32H7xx_HAL_Driver/Src/stm32h7xx_hal_mdma.c **** HAL_StatusTypeDef HAL_MDMA_Start(MDMA_HandleTypeDef *hmdma, uint32_t SrcAddress, uint32_t DstAddres
1074:./Libraries/STM32H7xx_HAL_Driver/Src/stm32h7xx_hal_mdma.c **** {
 1972              		.loc 1 1074 1
 1973              		.cfi_startproc
 1974              		@ args = 4, pretend = 0, frame = 16
 1975              		@ frame_needed = 1, uses_anonymous_args = 0
 1976 0000 80B5     		push	{r7, lr}
 1977              	.LCFI59:
 1978              		.cfi_def_cfa_offset 8
 1979              		.cfi_offset 7, -8
 1980              		.cfi_offset 14, -4
 1981 0002 86B0     		sub	sp, sp, #24
 1982              	.LCFI60:
 1983              		.cfi_def_cfa_offset 32
 1984 0004 02AF     		add	r7, sp, #8
 1985              	.LCFI61:
 1986              		.cfi_def_cfa 7, 24
 1987 0006 F860     		str	r0, [r7, #12]
 1988 0008 B960     		str	r1, [r7, #8]
 1989 000a 7A60     		str	r2, [r7, #4]
 1990 000c 3B60     		str	r3, [r7]
1075:./Libraries/STM32H7xx_HAL_Driver/Src/stm32h7xx_hal_mdma.c ****   /* Check the parameters */
1076:./Libraries/STM32H7xx_HAL_Driver/Src/stm32h7xx_hal_mdma.c ****   assert_param(IS_MDMA_TRANSFER_LENGTH(BlockDataLength));
1077:./Libraries/STM32H7xx_HAL_Driver/Src/stm32h7xx_hal_mdma.c ****   assert_param(IS_MDMA_BLOCK_COUNT(BlockCount));
1078:./Libraries/STM32H7xx_HAL_Driver/Src/stm32h7xx_hal_mdma.c **** 
1079:./Libraries/STM32H7xx_HAL_Driver/Src/stm32h7xx_hal_mdma.c ****   /* Check the MDMA peripheral handle */
1080:./Libraries/STM32H7xx_HAL_Driver/Src/stm32h7xx_hal_mdma.c ****   if(hmdma == NULL)
 1991              		.loc 1 1080 5
 1992 000e FB68     		ldr	r3, [r7, #12]
 1993 0010 002B     		cmp	r3, #0
 1994 0012 01D1     		bne	.L118
1081:./Libraries/STM32H7xx_HAL_Driver/Src/stm32h7xx_hal_mdma.c ****   {
1082:./Libraries/STM32H7xx_HAL_Driver/Src/stm32h7xx_hal_mdma.c ****     return HAL_ERROR;
 1995              		.loc 1 1082 12
 1996 0014 0123     		movs	r3, #1
 1997 0016 44E0     		b	.L119
ARM GAS  /tmp/ccZsyCUo.s 			page 55


 1998              	.L118:
1083:./Libraries/STM32H7xx_HAL_Driver/Src/stm32h7xx_hal_mdma.c ****   }
1084:./Libraries/STM32H7xx_HAL_Driver/Src/stm32h7xx_hal_mdma.c **** 
1085:./Libraries/STM32H7xx_HAL_Driver/Src/stm32h7xx_hal_mdma.c ****   /* Process locked */
1086:./Libraries/STM32H7xx_HAL_Driver/Src/stm32h7xx_hal_mdma.c ****   __HAL_LOCK(hmdma);
 1999              		.loc 1 1086 3
 2000 0018 FB68     		ldr	r3, [r7, #12]
 2001 001a 93F83C30 		ldrb	r3, [r3, #60]	@ zero_extendqisi2
 2002 001e 012B     		cmp	r3, #1
 2003 0020 01D1     		bne	.L120
 2004              		.loc 1 1086 3 is_stmt 0 discriminator 1
 2005 0022 0223     		movs	r3, #2
 2006 0024 3DE0     		b	.L119
 2007              	.L120:
 2008              		.loc 1 1086 3 discriminator 2
 2009 0026 FB68     		ldr	r3, [r7, #12]
 2010 0028 0122     		movs	r2, #1
 2011 002a 83F83C20 		strb	r2, [r3, #60]
1087:./Libraries/STM32H7xx_HAL_Driver/Src/stm32h7xx_hal_mdma.c **** 
1088:./Libraries/STM32H7xx_HAL_Driver/Src/stm32h7xx_hal_mdma.c ****   if(HAL_MDMA_STATE_READY == hmdma->State)
 2012              		.loc 1 1088 35 is_stmt 1 discriminator 2
 2013 002e FB68     		ldr	r3, [r7, #12]
 2014 0030 93F83D30 		ldrb	r3, [r3, #61]
 2015 0034 DBB2     		uxtb	r3, r3
 2016              		.loc 1 1088 5 discriminator 2
 2017 0036 012B     		cmp	r3, #1
 2018 0038 2CD1     		bne	.L121
1089:./Libraries/STM32H7xx_HAL_Driver/Src/stm32h7xx_hal_mdma.c ****   {
1090:./Libraries/STM32H7xx_HAL_Driver/Src/stm32h7xx_hal_mdma.c ****     /* Change MDMA peripheral state */
1091:./Libraries/STM32H7xx_HAL_Driver/Src/stm32h7xx_hal_mdma.c ****     hmdma->State = HAL_MDMA_STATE_BUSY;
 2019              		.loc 1 1091 18
 2020 003a FB68     		ldr	r3, [r7, #12]
 2021 003c 0222     		movs	r2, #2
 2022 003e 83F83D20 		strb	r2, [r3, #61]
1092:./Libraries/STM32H7xx_HAL_Driver/Src/stm32h7xx_hal_mdma.c **** 
1093:./Libraries/STM32H7xx_HAL_Driver/Src/stm32h7xx_hal_mdma.c ****     /* Initialize the error code */
1094:./Libraries/STM32H7xx_HAL_Driver/Src/stm32h7xx_hal_mdma.c ****     hmdma->ErrorCode = HAL_MDMA_ERROR_NONE;
 2023              		.loc 1 1094 22
 2024 0042 FB68     		ldr	r3, [r7, #12]
 2025 0044 0022     		movs	r2, #0
 2026 0046 9A66     		str	r2, [r3, #104]
1095:./Libraries/STM32H7xx_HAL_Driver/Src/stm32h7xx_hal_mdma.c **** 
1096:./Libraries/STM32H7xx_HAL_Driver/Src/stm32h7xx_hal_mdma.c ****     /* Disable the peripheral */
1097:./Libraries/STM32H7xx_HAL_Driver/Src/stm32h7xx_hal_mdma.c ****     __HAL_MDMA_DISABLE(hmdma);
 2027              		.loc 1 1097 5
 2028 0048 FB68     		ldr	r3, [r7, #12]
 2029 004a 1B68     		ldr	r3, [r3]
 2030 004c DA68     		ldr	r2, [r3, #12]
 2031 004e FB68     		ldr	r3, [r7, #12]
 2032 0050 1B68     		ldr	r3, [r3]
 2033 0052 22F00102 		bic	r2, r2, #1
 2034 0056 DA60     		str	r2, [r3, #12]
1098:./Libraries/STM32H7xx_HAL_Driver/Src/stm32h7xx_hal_mdma.c **** 
1099:./Libraries/STM32H7xx_HAL_Driver/Src/stm32h7xx_hal_mdma.c ****     /* Configure the source, destination address and the data length */
1100:./Libraries/STM32H7xx_HAL_Driver/Src/stm32h7xx_hal_mdma.c ****     MDMA_SetConfig(hmdma, SrcAddress, DstAddress, BlockDataLength, BlockCount);
 2035              		.loc 1 1100 5
 2036 0058 BB69     		ldr	r3, [r7, #24]
ARM GAS  /tmp/ccZsyCUo.s 			page 56


 2037 005a 0093     		str	r3, [sp]
 2038 005c 3B68     		ldr	r3, [r7]
 2039 005e 7A68     		ldr	r2, [r7, #4]
 2040 0060 B968     		ldr	r1, [r7, #8]
 2041 0062 F868     		ldr	r0, [r7, #12]
 2042 0064 FFF7FEFF 		bl	MDMA_SetConfig
1101:./Libraries/STM32H7xx_HAL_Driver/Src/stm32h7xx_hal_mdma.c **** 
1102:./Libraries/STM32H7xx_HAL_Driver/Src/stm32h7xx_hal_mdma.c ****     /* Enable the Peripheral */
1103:./Libraries/STM32H7xx_HAL_Driver/Src/stm32h7xx_hal_mdma.c ****     __HAL_MDMA_ENABLE(hmdma);
 2043              		.loc 1 1103 5
 2044 0068 FB68     		ldr	r3, [r7, #12]
 2045 006a 1B68     		ldr	r3, [r3]
 2046 006c DA68     		ldr	r2, [r3, #12]
 2047 006e FB68     		ldr	r3, [r7, #12]
 2048 0070 1B68     		ldr	r3, [r3]
 2049 0072 42F00102 		orr	r2, r2, #1
 2050 0076 DA60     		str	r2, [r3, #12]
1104:./Libraries/STM32H7xx_HAL_Driver/Src/stm32h7xx_hal_mdma.c **** 
1105:./Libraries/STM32H7xx_HAL_Driver/Src/stm32h7xx_hal_mdma.c ****     if(hmdma->Init.Request == MDMA_REQUEST_SW)
 2051              		.loc 1 1105 19
 2052 0078 FB68     		ldr	r3, [r7, #12]
 2053 007a 5B68     		ldr	r3, [r3, #4]
 2054              		.loc 1 1105 7
 2055 007c B3F1804F 		cmp	r3, #1073741824
 2056 0080 0ED1     		bne	.L122
1106:./Libraries/STM32H7xx_HAL_Driver/Src/stm32h7xx_hal_mdma.c ****     {
1107:./Libraries/STM32H7xx_HAL_Driver/Src/stm32h7xx_hal_mdma.c ****       /* activate If SW request mode*/
1108:./Libraries/STM32H7xx_HAL_Driver/Src/stm32h7xx_hal_mdma.c ****       hmdma->Instance->CCR |=  MDMA_CCR_SWRQ;
 2057              		.loc 1 1108 12
 2058 0082 FB68     		ldr	r3, [r7, #12]
 2059 0084 1B68     		ldr	r3, [r3]
 2060              		.loc 1 1108 28
 2061 0086 DA68     		ldr	r2, [r3, #12]
 2062              		.loc 1 1108 12
 2063 0088 FB68     		ldr	r3, [r7, #12]
 2064 008a 1B68     		ldr	r3, [r3]
 2065              		.loc 1 1108 28
 2066 008c 42F48032 		orr	r2, r2, #65536
 2067 0090 DA60     		str	r2, [r3, #12]
 2068 0092 05E0     		b	.L122
 2069              	.L121:
1109:./Libraries/STM32H7xx_HAL_Driver/Src/stm32h7xx_hal_mdma.c ****     }
1110:./Libraries/STM32H7xx_HAL_Driver/Src/stm32h7xx_hal_mdma.c ****   }
1111:./Libraries/STM32H7xx_HAL_Driver/Src/stm32h7xx_hal_mdma.c ****   else
1112:./Libraries/STM32H7xx_HAL_Driver/Src/stm32h7xx_hal_mdma.c ****   {
1113:./Libraries/STM32H7xx_HAL_Driver/Src/stm32h7xx_hal_mdma.c ****     /* Process unlocked */
1114:./Libraries/STM32H7xx_HAL_Driver/Src/stm32h7xx_hal_mdma.c ****     __HAL_UNLOCK(hmdma);
 2070              		.loc 1 1114 5
 2071 0094 FB68     		ldr	r3, [r7, #12]
 2072 0096 0022     		movs	r2, #0
 2073 0098 83F83C20 		strb	r2, [r3, #60]
1115:./Libraries/STM32H7xx_HAL_Driver/Src/stm32h7xx_hal_mdma.c **** 
1116:./Libraries/STM32H7xx_HAL_Driver/Src/stm32h7xx_hal_mdma.c ****     /* Return error status */
1117:./Libraries/STM32H7xx_HAL_Driver/Src/stm32h7xx_hal_mdma.c ****     return HAL_BUSY;
 2074              		.loc 1 1117 12
 2075 009c 0223     		movs	r3, #2
 2076 009e 00E0     		b	.L119
ARM GAS  /tmp/ccZsyCUo.s 			page 57


 2077              	.L122:
1118:./Libraries/STM32H7xx_HAL_Driver/Src/stm32h7xx_hal_mdma.c ****   }
1119:./Libraries/STM32H7xx_HAL_Driver/Src/stm32h7xx_hal_mdma.c **** 
1120:./Libraries/STM32H7xx_HAL_Driver/Src/stm32h7xx_hal_mdma.c ****   return HAL_OK;
 2078              		.loc 1 1120 10
 2079 00a0 0023     		movs	r3, #0
 2080              	.L119:
1121:./Libraries/STM32H7xx_HAL_Driver/Src/stm32h7xx_hal_mdma.c **** }
 2081              		.loc 1 1121 1
 2082 00a2 1846     		mov	r0, r3
 2083 00a4 1037     		adds	r7, r7, #16
 2084              	.LCFI62:
 2085              		.cfi_def_cfa_offset 8
 2086 00a6 BD46     		mov	sp, r7
 2087              	.LCFI63:
 2088              		.cfi_def_cfa_register 13
 2089              		@ sp needed
 2090 00a8 80BD     		pop	{r7, pc}
 2091              		.cfi_endproc
 2092              	.LFE341:
 2094              		.section	.text.HAL_MDMA_Start_IT,"ax",%progbits
 2095              		.align	1
 2096              		.global	HAL_MDMA_Start_IT
 2097              		.syntax unified
 2098              		.thumb
 2099              		.thumb_func
 2100              		.fpu fpv5-d16
 2102              	HAL_MDMA_Start_IT:
 2103              	.LFB342:
1122:./Libraries/STM32H7xx_HAL_Driver/Src/stm32h7xx_hal_mdma.c **** 
1123:./Libraries/STM32H7xx_HAL_Driver/Src/stm32h7xx_hal_mdma.c **** /**
1124:./Libraries/STM32H7xx_HAL_Driver/Src/stm32h7xx_hal_mdma.c ****   * @brief  Starts the MDMA Transfer with interrupts enabled.
1125:./Libraries/STM32H7xx_HAL_Driver/Src/stm32h7xx_hal_mdma.c ****   * @param  hmdma           : pointer to a MDMA_HandleTypeDef structure that contains
1126:./Libraries/STM32H7xx_HAL_Driver/Src/stm32h7xx_hal_mdma.c ****   *                           the configuration information for the specified MDMA Channel.
1127:./Libraries/STM32H7xx_HAL_Driver/Src/stm32h7xx_hal_mdma.c ****   * @param  SrcAddress      : The source memory Buffer address
1128:./Libraries/STM32H7xx_HAL_Driver/Src/stm32h7xx_hal_mdma.c ****   * @param  DstAddress      : The destination memory Buffer address
1129:./Libraries/STM32H7xx_HAL_Driver/Src/stm32h7xx_hal_mdma.c ****   * @param  BlockDataLength : The length of a block transfer in bytes
1130:./Libraries/STM32H7xx_HAL_Driver/Src/stm32h7xx_hal_mdma.c ****   * @param  BlockCount      : The number of a blocks to be transfer
1131:./Libraries/STM32H7xx_HAL_Driver/Src/stm32h7xx_hal_mdma.c ****   * @retval HAL status
1132:./Libraries/STM32H7xx_HAL_Driver/Src/stm32h7xx_hal_mdma.c ****   */
1133:./Libraries/STM32H7xx_HAL_Driver/Src/stm32h7xx_hal_mdma.c **** HAL_StatusTypeDef HAL_MDMA_Start_IT(MDMA_HandleTypeDef *hmdma, uint32_t SrcAddress, uint32_t DstAdd
1134:./Libraries/STM32H7xx_HAL_Driver/Src/stm32h7xx_hal_mdma.c **** {
 2104              		.loc 1 1134 1
 2105              		.cfi_startproc
 2106              		@ args = 4, pretend = 0, frame = 16
 2107              		@ frame_needed = 1, uses_anonymous_args = 0
 2108 0000 80B5     		push	{r7, lr}
 2109              	.LCFI64:
 2110              		.cfi_def_cfa_offset 8
 2111              		.cfi_offset 7, -8
 2112              		.cfi_offset 14, -4
 2113 0002 86B0     		sub	sp, sp, #24
 2114              	.LCFI65:
 2115              		.cfi_def_cfa_offset 32
 2116 0004 02AF     		add	r7, sp, #8
 2117              	.LCFI66:
 2118              		.cfi_def_cfa 7, 24
ARM GAS  /tmp/ccZsyCUo.s 			page 58


 2119 0006 F860     		str	r0, [r7, #12]
 2120 0008 B960     		str	r1, [r7, #8]
 2121 000a 7A60     		str	r2, [r7, #4]
 2122 000c 3B60     		str	r3, [r7]
1135:./Libraries/STM32H7xx_HAL_Driver/Src/stm32h7xx_hal_mdma.c ****   /* Check the parameters */
1136:./Libraries/STM32H7xx_HAL_Driver/Src/stm32h7xx_hal_mdma.c ****   assert_param(IS_MDMA_TRANSFER_LENGTH(BlockDataLength));
1137:./Libraries/STM32H7xx_HAL_Driver/Src/stm32h7xx_hal_mdma.c ****   assert_param(IS_MDMA_BLOCK_COUNT(BlockCount));
1138:./Libraries/STM32H7xx_HAL_Driver/Src/stm32h7xx_hal_mdma.c **** 
1139:./Libraries/STM32H7xx_HAL_Driver/Src/stm32h7xx_hal_mdma.c ****   /* Check the MDMA peripheral handle */
1140:./Libraries/STM32H7xx_HAL_Driver/Src/stm32h7xx_hal_mdma.c ****   if(hmdma == NULL)
 2123              		.loc 1 1140 5
 2124 000e FB68     		ldr	r3, [r7, #12]
 2125 0010 002B     		cmp	r3, #0
 2126 0012 01D1     		bne	.L124
1141:./Libraries/STM32H7xx_HAL_Driver/Src/stm32h7xx_hal_mdma.c ****   {
1142:./Libraries/STM32H7xx_HAL_Driver/Src/stm32h7xx_hal_mdma.c ****     return HAL_ERROR;
 2127              		.loc 1 1142 12
 2128 0014 0123     		movs	r3, #1
 2129 0016 70E0     		b	.L125
 2130              	.L124:
1143:./Libraries/STM32H7xx_HAL_Driver/Src/stm32h7xx_hal_mdma.c ****   }
1144:./Libraries/STM32H7xx_HAL_Driver/Src/stm32h7xx_hal_mdma.c **** 
1145:./Libraries/STM32H7xx_HAL_Driver/Src/stm32h7xx_hal_mdma.c ****   /* Process locked */
1146:./Libraries/STM32H7xx_HAL_Driver/Src/stm32h7xx_hal_mdma.c ****   __HAL_LOCK(hmdma);
 2131              		.loc 1 1146 3
 2132 0018 FB68     		ldr	r3, [r7, #12]
 2133 001a 93F83C30 		ldrb	r3, [r3, #60]	@ zero_extendqisi2
 2134 001e 012B     		cmp	r3, #1
 2135 0020 01D1     		bne	.L126
 2136              		.loc 1 1146 3 is_stmt 0 discriminator 1
 2137 0022 0223     		movs	r3, #2
 2138 0024 69E0     		b	.L125
 2139              	.L126:
 2140              		.loc 1 1146 3 discriminator 2
 2141 0026 FB68     		ldr	r3, [r7, #12]
 2142 0028 0122     		movs	r2, #1
 2143 002a 83F83C20 		strb	r2, [r3, #60]
1147:./Libraries/STM32H7xx_HAL_Driver/Src/stm32h7xx_hal_mdma.c **** 
1148:./Libraries/STM32H7xx_HAL_Driver/Src/stm32h7xx_hal_mdma.c ****   if(HAL_MDMA_STATE_READY == hmdma->State)
 2144              		.loc 1 1148 35 is_stmt 1 discriminator 2
 2145 002e FB68     		ldr	r3, [r7, #12]
 2146 0030 93F83D30 		ldrb	r3, [r3, #61]
 2147 0034 DBB2     		uxtb	r3, r3
 2148              		.loc 1 1148 5 discriminator 2
 2149 0036 012B     		cmp	r3, #1
 2150 0038 58D1     		bne	.L127
1149:./Libraries/STM32H7xx_HAL_Driver/Src/stm32h7xx_hal_mdma.c ****   {
1150:./Libraries/STM32H7xx_HAL_Driver/Src/stm32h7xx_hal_mdma.c ****     /* Change MDMA peripheral state */
1151:./Libraries/STM32H7xx_HAL_Driver/Src/stm32h7xx_hal_mdma.c ****     hmdma->State = HAL_MDMA_STATE_BUSY;
 2151              		.loc 1 1151 18
 2152 003a FB68     		ldr	r3, [r7, #12]
 2153 003c 0222     		movs	r2, #2
 2154 003e 83F83D20 		strb	r2, [r3, #61]
1152:./Libraries/STM32H7xx_HAL_Driver/Src/stm32h7xx_hal_mdma.c **** 
1153:./Libraries/STM32H7xx_HAL_Driver/Src/stm32h7xx_hal_mdma.c ****     /* Initialize the error code */
1154:./Libraries/STM32H7xx_HAL_Driver/Src/stm32h7xx_hal_mdma.c ****     hmdma->ErrorCode = HAL_MDMA_ERROR_NONE;
 2155              		.loc 1 1154 22
ARM GAS  /tmp/ccZsyCUo.s 			page 59


 2156 0042 FB68     		ldr	r3, [r7, #12]
 2157 0044 0022     		movs	r2, #0
 2158 0046 9A66     		str	r2, [r3, #104]
1155:./Libraries/STM32H7xx_HAL_Driver/Src/stm32h7xx_hal_mdma.c **** 
1156:./Libraries/STM32H7xx_HAL_Driver/Src/stm32h7xx_hal_mdma.c ****     /* Disable the peripheral */
1157:./Libraries/STM32H7xx_HAL_Driver/Src/stm32h7xx_hal_mdma.c ****     __HAL_MDMA_DISABLE(hmdma);
 2159              		.loc 1 1157 5
 2160 0048 FB68     		ldr	r3, [r7, #12]
 2161 004a 1B68     		ldr	r3, [r3]
 2162 004c DA68     		ldr	r2, [r3, #12]
 2163 004e FB68     		ldr	r3, [r7, #12]
 2164 0050 1B68     		ldr	r3, [r3]
 2165 0052 22F00102 		bic	r2, r2, #1
 2166 0056 DA60     		str	r2, [r3, #12]
1158:./Libraries/STM32H7xx_HAL_Driver/Src/stm32h7xx_hal_mdma.c **** 
1159:./Libraries/STM32H7xx_HAL_Driver/Src/stm32h7xx_hal_mdma.c ****     /* Configure the source, destination address and the data length */
1160:./Libraries/STM32H7xx_HAL_Driver/Src/stm32h7xx_hal_mdma.c ****     MDMA_SetConfig(hmdma, SrcAddress, DstAddress, BlockDataLength, BlockCount);
 2167              		.loc 1 1160 5
 2168 0058 BB69     		ldr	r3, [r7, #24]
 2169 005a 0093     		str	r3, [sp]
 2170 005c 3B68     		ldr	r3, [r7]
 2171 005e 7A68     		ldr	r2, [r7, #4]
 2172 0060 B968     		ldr	r1, [r7, #8]
 2173 0062 F868     		ldr	r0, [r7, #12]
 2174 0064 FFF7FEFF 		bl	MDMA_SetConfig
1161:./Libraries/STM32H7xx_HAL_Driver/Src/stm32h7xx_hal_mdma.c **** 
1162:./Libraries/STM32H7xx_HAL_Driver/Src/stm32h7xx_hal_mdma.c ****     /* Enable Common interrupts i.e Transfer Error IT and Channel Transfer Complete IT*/
1163:./Libraries/STM32H7xx_HAL_Driver/Src/stm32h7xx_hal_mdma.c ****     __HAL_MDMA_ENABLE_IT(hmdma, (MDMA_IT_TE | MDMA_IT_CTC));
 2175              		.loc 1 1163 5
 2176 0068 FB68     		ldr	r3, [r7, #12]
 2177 006a 1B68     		ldr	r3, [r3]
 2178 006c DA68     		ldr	r2, [r3, #12]
 2179 006e FB68     		ldr	r3, [r7, #12]
 2180 0070 1B68     		ldr	r3, [r3]
 2181 0072 42F00602 		orr	r2, r2, #6
 2182 0076 DA60     		str	r2, [r3, #12]
1164:./Libraries/STM32H7xx_HAL_Driver/Src/stm32h7xx_hal_mdma.c **** 
1165:./Libraries/STM32H7xx_HAL_Driver/Src/stm32h7xx_hal_mdma.c ****     if(hmdma->XferBlockCpltCallback != NULL)
 2183              		.loc 1 1165 13
 2184 0078 FB68     		ldr	r3, [r7, #12]
 2185 007a DB6C     		ldr	r3, [r3, #76]
 2186              		.loc 1 1165 7
 2187 007c 002B     		cmp	r3, #0
 2188 007e 07D0     		beq	.L128
1166:./Libraries/STM32H7xx_HAL_Driver/Src/stm32h7xx_hal_mdma.c ****     {
1167:./Libraries/STM32H7xx_HAL_Driver/Src/stm32h7xx_hal_mdma.c ****       /* if Block transfer complete Callback is set enable the corresponding IT*/
1168:./Libraries/STM32H7xx_HAL_Driver/Src/stm32h7xx_hal_mdma.c ****       __HAL_MDMA_ENABLE_IT(hmdma, MDMA_IT_BT);
 2189              		.loc 1 1168 7
 2190 0080 FB68     		ldr	r3, [r7, #12]
 2191 0082 1B68     		ldr	r3, [r3]
 2192 0084 DA68     		ldr	r2, [r3, #12]
 2193 0086 FB68     		ldr	r3, [r7, #12]
 2194 0088 1B68     		ldr	r3, [r3]
 2195 008a 42F01002 		orr	r2, r2, #16
 2196 008e DA60     		str	r2, [r3, #12]
 2197              	.L128:
1169:./Libraries/STM32H7xx_HAL_Driver/Src/stm32h7xx_hal_mdma.c ****     }
ARM GAS  /tmp/ccZsyCUo.s 			page 60


1170:./Libraries/STM32H7xx_HAL_Driver/Src/stm32h7xx_hal_mdma.c **** 
1171:./Libraries/STM32H7xx_HAL_Driver/Src/stm32h7xx_hal_mdma.c ****     if(hmdma->XferRepeatBlockCpltCallback != NULL)
 2198              		.loc 1 1171 13
 2199 0090 FB68     		ldr	r3, [r7, #12]
 2200 0092 1B6D     		ldr	r3, [r3, #80]
 2201              		.loc 1 1171 7
 2202 0094 002B     		cmp	r3, #0
 2203 0096 07D0     		beq	.L129
1172:./Libraries/STM32H7xx_HAL_Driver/Src/stm32h7xx_hal_mdma.c ****     {
1173:./Libraries/STM32H7xx_HAL_Driver/Src/stm32h7xx_hal_mdma.c ****       /* if Repeated Block transfer complete Callback is set enable the corresponding IT*/
1174:./Libraries/STM32H7xx_HAL_Driver/Src/stm32h7xx_hal_mdma.c ****       __HAL_MDMA_ENABLE_IT(hmdma, MDMA_IT_BRT);
 2204              		.loc 1 1174 7
 2205 0098 FB68     		ldr	r3, [r7, #12]
 2206 009a 1B68     		ldr	r3, [r3]
 2207 009c DA68     		ldr	r2, [r3, #12]
 2208 009e FB68     		ldr	r3, [r7, #12]
 2209 00a0 1B68     		ldr	r3, [r3]
 2210 00a2 42F00802 		orr	r2, r2, #8
 2211 00a6 DA60     		str	r2, [r3, #12]
 2212              	.L129:
1175:./Libraries/STM32H7xx_HAL_Driver/Src/stm32h7xx_hal_mdma.c ****     }
1176:./Libraries/STM32H7xx_HAL_Driver/Src/stm32h7xx_hal_mdma.c **** 
1177:./Libraries/STM32H7xx_HAL_Driver/Src/stm32h7xx_hal_mdma.c ****     if(hmdma->XferBufferCpltCallback != NULL)
 2213              		.loc 1 1177 13
 2214 00a8 FB68     		ldr	r3, [r7, #12]
 2215 00aa 9B6C     		ldr	r3, [r3, #72]
 2216              		.loc 1 1177 7
 2217 00ac 002B     		cmp	r3, #0
 2218 00ae 07D0     		beq	.L130
1178:./Libraries/STM32H7xx_HAL_Driver/Src/stm32h7xx_hal_mdma.c ****     {
1179:./Libraries/STM32H7xx_HAL_Driver/Src/stm32h7xx_hal_mdma.c ****       /* if buffer transfer complete Callback is set enable the corresponding IT*/
1180:./Libraries/STM32H7xx_HAL_Driver/Src/stm32h7xx_hal_mdma.c ****       __HAL_MDMA_ENABLE_IT(hmdma, MDMA_IT_BFTC);
 2219              		.loc 1 1180 7
 2220 00b0 FB68     		ldr	r3, [r7, #12]
 2221 00b2 1B68     		ldr	r3, [r3]
 2222 00b4 DA68     		ldr	r2, [r3, #12]
 2223 00b6 FB68     		ldr	r3, [r7, #12]
 2224 00b8 1B68     		ldr	r3, [r3]
 2225 00ba 42F02002 		orr	r2, r2, #32
 2226 00be DA60     		str	r2, [r3, #12]
 2227              	.L130:
1181:./Libraries/STM32H7xx_HAL_Driver/Src/stm32h7xx_hal_mdma.c ****     }
1182:./Libraries/STM32H7xx_HAL_Driver/Src/stm32h7xx_hal_mdma.c **** 
1183:./Libraries/STM32H7xx_HAL_Driver/Src/stm32h7xx_hal_mdma.c ****     /* Enable the Peripheral */
1184:./Libraries/STM32H7xx_HAL_Driver/Src/stm32h7xx_hal_mdma.c ****     __HAL_MDMA_ENABLE(hmdma);
 2228              		.loc 1 1184 5
 2229 00c0 FB68     		ldr	r3, [r7, #12]
 2230 00c2 1B68     		ldr	r3, [r3]
 2231 00c4 DA68     		ldr	r2, [r3, #12]
 2232 00c6 FB68     		ldr	r3, [r7, #12]
 2233 00c8 1B68     		ldr	r3, [r3]
 2234 00ca 42F00102 		orr	r2, r2, #1
 2235 00ce DA60     		str	r2, [r3, #12]
1185:./Libraries/STM32H7xx_HAL_Driver/Src/stm32h7xx_hal_mdma.c **** 
1186:./Libraries/STM32H7xx_HAL_Driver/Src/stm32h7xx_hal_mdma.c ****     if(hmdma->Init.Request == MDMA_REQUEST_SW)
 2236              		.loc 1 1186 19
 2237 00d0 FB68     		ldr	r3, [r7, #12]
ARM GAS  /tmp/ccZsyCUo.s 			page 61


 2238 00d2 5B68     		ldr	r3, [r3, #4]
 2239              		.loc 1 1186 7
 2240 00d4 B3F1804F 		cmp	r3, #1073741824
 2241 00d8 0ED1     		bne	.L131
1187:./Libraries/STM32H7xx_HAL_Driver/Src/stm32h7xx_hal_mdma.c ****     {
1188:./Libraries/STM32H7xx_HAL_Driver/Src/stm32h7xx_hal_mdma.c ****       /* activate If SW request mode*/
1189:./Libraries/STM32H7xx_HAL_Driver/Src/stm32h7xx_hal_mdma.c ****       hmdma->Instance->CCR |=  MDMA_CCR_SWRQ;
 2242              		.loc 1 1189 12
 2243 00da FB68     		ldr	r3, [r7, #12]
 2244 00dc 1B68     		ldr	r3, [r3]
 2245              		.loc 1 1189 28
 2246 00de DA68     		ldr	r2, [r3, #12]
 2247              		.loc 1 1189 12
 2248 00e0 FB68     		ldr	r3, [r7, #12]
 2249 00e2 1B68     		ldr	r3, [r3]
 2250              		.loc 1 1189 28
 2251 00e4 42F48032 		orr	r2, r2, #65536
 2252 00e8 DA60     		str	r2, [r3, #12]
 2253 00ea 05E0     		b	.L131
 2254              	.L127:
1190:./Libraries/STM32H7xx_HAL_Driver/Src/stm32h7xx_hal_mdma.c ****     }
1191:./Libraries/STM32H7xx_HAL_Driver/Src/stm32h7xx_hal_mdma.c ****   }
1192:./Libraries/STM32H7xx_HAL_Driver/Src/stm32h7xx_hal_mdma.c ****   else
1193:./Libraries/STM32H7xx_HAL_Driver/Src/stm32h7xx_hal_mdma.c ****   {
1194:./Libraries/STM32H7xx_HAL_Driver/Src/stm32h7xx_hal_mdma.c ****     /* Process unlocked */
1195:./Libraries/STM32H7xx_HAL_Driver/Src/stm32h7xx_hal_mdma.c ****     __HAL_UNLOCK(hmdma);
 2255              		.loc 1 1195 5
 2256 00ec FB68     		ldr	r3, [r7, #12]
 2257 00ee 0022     		movs	r2, #0
 2258 00f0 83F83C20 		strb	r2, [r3, #60]
1196:./Libraries/STM32H7xx_HAL_Driver/Src/stm32h7xx_hal_mdma.c **** 
1197:./Libraries/STM32H7xx_HAL_Driver/Src/stm32h7xx_hal_mdma.c ****     /* Return error status */
1198:./Libraries/STM32H7xx_HAL_Driver/Src/stm32h7xx_hal_mdma.c ****     return HAL_BUSY;
 2259              		.loc 1 1198 12
 2260 00f4 0223     		movs	r3, #2
 2261 00f6 00E0     		b	.L125
 2262              	.L131:
1199:./Libraries/STM32H7xx_HAL_Driver/Src/stm32h7xx_hal_mdma.c ****   }
1200:./Libraries/STM32H7xx_HAL_Driver/Src/stm32h7xx_hal_mdma.c **** 
1201:./Libraries/STM32H7xx_HAL_Driver/Src/stm32h7xx_hal_mdma.c ****   return HAL_OK;
 2263              		.loc 1 1201 10
 2264 00f8 0023     		movs	r3, #0
 2265              	.L125:
1202:./Libraries/STM32H7xx_HAL_Driver/Src/stm32h7xx_hal_mdma.c **** }
 2266              		.loc 1 1202 1
 2267 00fa 1846     		mov	r0, r3
 2268 00fc 1037     		adds	r7, r7, #16
 2269              	.LCFI67:
 2270              		.cfi_def_cfa_offset 8
 2271 00fe BD46     		mov	sp, r7
 2272              	.LCFI68:
 2273              		.cfi_def_cfa_register 13
 2274              		@ sp needed
 2275 0100 80BD     		pop	{r7, pc}
 2276              		.cfi_endproc
 2277              	.LFE342:
 2279              		.section	.text.HAL_MDMA_Abort,"ax",%progbits
ARM GAS  /tmp/ccZsyCUo.s 			page 62


 2280              		.align	1
 2281              		.global	HAL_MDMA_Abort
 2282              		.syntax unified
 2283              		.thumb
 2284              		.thumb_func
 2285              		.fpu fpv5-d16
 2287              	HAL_MDMA_Abort:
 2288              	.LFB343:
1203:./Libraries/STM32H7xx_HAL_Driver/Src/stm32h7xx_hal_mdma.c **** 
1204:./Libraries/STM32H7xx_HAL_Driver/Src/stm32h7xx_hal_mdma.c **** /**
1205:./Libraries/STM32H7xx_HAL_Driver/Src/stm32h7xx_hal_mdma.c ****   * @brief  Aborts the MDMA Transfer.
1206:./Libraries/STM32H7xx_HAL_Driver/Src/stm32h7xx_hal_mdma.c ****   * @param  hmdma  : pointer to a MDMA_HandleTypeDef structure that contains
1207:./Libraries/STM32H7xx_HAL_Driver/Src/stm32h7xx_hal_mdma.c ****   *                 the configuration information for the specified MDMA Channel.
1208:./Libraries/STM32H7xx_HAL_Driver/Src/stm32h7xx_hal_mdma.c ****   *
1209:./Libraries/STM32H7xx_HAL_Driver/Src/stm32h7xx_hal_mdma.c ****   * @note  After disabling a MDMA Channel, a check for wait until the MDMA Channel is
1210:./Libraries/STM32H7xx_HAL_Driver/Src/stm32h7xx_hal_mdma.c ****   *        effectively disabled is added. If a Channel is disabled
1211:./Libraries/STM32H7xx_HAL_Driver/Src/stm32h7xx_hal_mdma.c ****   *        while a data transfer is ongoing, the current data will be transferred
1212:./Libraries/STM32H7xx_HAL_Driver/Src/stm32h7xx_hal_mdma.c ****   *        and the Channel will be effectively disabled only after the transfer of
1213:./Libraries/STM32H7xx_HAL_Driver/Src/stm32h7xx_hal_mdma.c ****   *        this single data is finished.
1214:./Libraries/STM32H7xx_HAL_Driver/Src/stm32h7xx_hal_mdma.c ****   * @retval HAL status
1215:./Libraries/STM32H7xx_HAL_Driver/Src/stm32h7xx_hal_mdma.c ****   */
1216:./Libraries/STM32H7xx_HAL_Driver/Src/stm32h7xx_hal_mdma.c **** HAL_StatusTypeDef HAL_MDMA_Abort(MDMA_HandleTypeDef *hmdma)
1217:./Libraries/STM32H7xx_HAL_Driver/Src/stm32h7xx_hal_mdma.c **** {
 2289              		.loc 1 1217 1
 2290              		.cfi_startproc
 2291              		@ args = 0, pretend = 0, frame = 16
 2292              		@ frame_needed = 1, uses_anonymous_args = 0
 2293 0000 80B5     		push	{r7, lr}
 2294              	.LCFI69:
 2295              		.cfi_def_cfa_offset 8
 2296              		.cfi_offset 7, -8
 2297              		.cfi_offset 14, -4
 2298 0002 84B0     		sub	sp, sp, #16
 2299              	.LCFI70:
 2300              		.cfi_def_cfa_offset 24
 2301 0004 00AF     		add	r7, sp, #0
 2302              	.LCFI71:
 2303              		.cfi_def_cfa_register 7
 2304 0006 7860     		str	r0, [r7, #4]
1218:./Libraries/STM32H7xx_HAL_Driver/Src/stm32h7xx_hal_mdma.c ****   uint32_t tickstart =  HAL_GetTick();
 2305              		.loc 1 1218 25
 2306 0008 FFF7FEFF 		bl	HAL_GetTick
 2307 000c F860     		str	r0, [r7, #12]
1219:./Libraries/STM32H7xx_HAL_Driver/Src/stm32h7xx_hal_mdma.c **** 
1220:./Libraries/STM32H7xx_HAL_Driver/Src/stm32h7xx_hal_mdma.c ****   /* Check the MDMA peripheral handle */
1221:./Libraries/STM32H7xx_HAL_Driver/Src/stm32h7xx_hal_mdma.c ****   if(hmdma == NULL)
 2308              		.loc 1 1221 5
 2309 000e 7B68     		ldr	r3, [r7, #4]
 2310 0010 002B     		cmp	r3, #0
 2311 0012 01D1     		bne	.L133
1222:./Libraries/STM32H7xx_HAL_Driver/Src/stm32h7xx_hal_mdma.c ****   {
1223:./Libraries/STM32H7xx_HAL_Driver/Src/stm32h7xx_hal_mdma.c ****     return HAL_ERROR;
 2312              		.loc 1 1223 12
 2313 0014 0123     		movs	r3, #1
 2314 0016 4AE0     		b	.L134
 2315              	.L133:
1224:./Libraries/STM32H7xx_HAL_Driver/Src/stm32h7xx_hal_mdma.c ****   }
ARM GAS  /tmp/ccZsyCUo.s 			page 63


1225:./Libraries/STM32H7xx_HAL_Driver/Src/stm32h7xx_hal_mdma.c **** 
1226:./Libraries/STM32H7xx_HAL_Driver/Src/stm32h7xx_hal_mdma.c ****   if(HAL_MDMA_STATE_BUSY != hmdma->State)
 2316              		.loc 1 1226 34
 2317 0018 7B68     		ldr	r3, [r7, #4]
 2318 001a 93F83D30 		ldrb	r3, [r3, #61]
 2319 001e DBB2     		uxtb	r3, r3
 2320              		.loc 1 1226 5
 2321 0020 022B     		cmp	r3, #2
 2322 0022 08D0     		beq	.L135
1227:./Libraries/STM32H7xx_HAL_Driver/Src/stm32h7xx_hal_mdma.c ****   {
1228:./Libraries/STM32H7xx_HAL_Driver/Src/stm32h7xx_hal_mdma.c ****     hmdma->ErrorCode = HAL_MDMA_ERROR_NO_XFER;
 2323              		.loc 1 1228 22
 2324 0024 7B68     		ldr	r3, [r7, #4]
 2325 0026 8022     		movs	r2, #128
 2326 0028 9A66     		str	r2, [r3, #104]
1229:./Libraries/STM32H7xx_HAL_Driver/Src/stm32h7xx_hal_mdma.c **** 
1230:./Libraries/STM32H7xx_HAL_Driver/Src/stm32h7xx_hal_mdma.c ****     /* Process Unlocked */
1231:./Libraries/STM32H7xx_HAL_Driver/Src/stm32h7xx_hal_mdma.c ****     __HAL_UNLOCK(hmdma);
 2327              		.loc 1 1231 5
 2328 002a 7B68     		ldr	r3, [r7, #4]
 2329 002c 0022     		movs	r2, #0
 2330 002e 83F83C20 		strb	r2, [r3, #60]
1232:./Libraries/STM32H7xx_HAL_Driver/Src/stm32h7xx_hal_mdma.c **** 
1233:./Libraries/STM32H7xx_HAL_Driver/Src/stm32h7xx_hal_mdma.c ****     return HAL_ERROR;
 2331              		.loc 1 1233 12
 2332 0032 0123     		movs	r3, #1
 2333 0034 3BE0     		b	.L134
 2334              	.L135:
1234:./Libraries/STM32H7xx_HAL_Driver/Src/stm32h7xx_hal_mdma.c ****   }
1235:./Libraries/STM32H7xx_HAL_Driver/Src/stm32h7xx_hal_mdma.c ****   else
1236:./Libraries/STM32H7xx_HAL_Driver/Src/stm32h7xx_hal_mdma.c ****   {
1237:./Libraries/STM32H7xx_HAL_Driver/Src/stm32h7xx_hal_mdma.c ****     /* Disable all the transfer interrupts */
1238:./Libraries/STM32H7xx_HAL_Driver/Src/stm32h7xx_hal_mdma.c ****     __HAL_MDMA_DISABLE_IT(hmdma, (MDMA_IT_TE | MDMA_IT_CTC | MDMA_IT_BT | MDMA_IT_BRT | MDMA_IT_BFT
 2335              		.loc 1 1238 5
 2336 0036 7B68     		ldr	r3, [r7, #4]
 2337 0038 1B68     		ldr	r3, [r3]
 2338 003a DA68     		ldr	r2, [r3, #12]
 2339 003c 7B68     		ldr	r3, [r7, #4]
 2340 003e 1B68     		ldr	r3, [r3]
 2341 0040 22F03E02 		bic	r2, r2, #62
 2342 0044 DA60     		str	r2, [r3, #12]
1239:./Libraries/STM32H7xx_HAL_Driver/Src/stm32h7xx_hal_mdma.c **** 
1240:./Libraries/STM32H7xx_HAL_Driver/Src/stm32h7xx_hal_mdma.c ****     /* Disable the channel */
1241:./Libraries/STM32H7xx_HAL_Driver/Src/stm32h7xx_hal_mdma.c ****     __HAL_MDMA_DISABLE(hmdma);
 2343              		.loc 1 1241 5
 2344 0046 7B68     		ldr	r3, [r7, #4]
 2345 0048 1B68     		ldr	r3, [r3]
 2346 004a DA68     		ldr	r2, [r3, #12]
 2347 004c 7B68     		ldr	r3, [r7, #4]
 2348 004e 1B68     		ldr	r3, [r3]
 2349 0050 22F00102 		bic	r2, r2, #1
 2350 0054 DA60     		str	r2, [r3, #12]
1242:./Libraries/STM32H7xx_HAL_Driver/Src/stm32h7xx_hal_mdma.c **** 
1243:./Libraries/STM32H7xx_HAL_Driver/Src/stm32h7xx_hal_mdma.c ****     /* Check if the MDMA Channel is effectively disabled */
1244:./Libraries/STM32H7xx_HAL_Driver/Src/stm32h7xx_hal_mdma.c ****     while((hmdma->Instance->CCR & MDMA_CCR_EN) != 0U)
 2351              		.loc 1 1244 10
 2352 0056 16E0     		b	.L136
ARM GAS  /tmp/ccZsyCUo.s 			page 64


 2353              	.L137:
1245:./Libraries/STM32H7xx_HAL_Driver/Src/stm32h7xx_hal_mdma.c ****     {
1246:./Libraries/STM32H7xx_HAL_Driver/Src/stm32h7xx_hal_mdma.c ****       /* Check for the Timeout */
1247:./Libraries/STM32H7xx_HAL_Driver/Src/stm32h7xx_hal_mdma.c ****       if( (HAL_GetTick()  - tickstart ) > HAL_TIMEOUT_MDMA_ABORT)
 2354              		.loc 1 1247 12
 2355 0058 FFF7FEFF 		bl	HAL_GetTick
 2356 005c 0246     		mov	r2, r0
 2357              		.loc 1 1247 27
 2358 005e FB68     		ldr	r3, [r7, #12]
 2359 0060 D31A     		subs	r3, r2, r3
 2360              		.loc 1 1247 9
 2361 0062 052B     		cmp	r3, #5
 2362 0064 0FD9     		bls	.L136
1248:./Libraries/STM32H7xx_HAL_Driver/Src/stm32h7xx_hal_mdma.c ****       {
1249:./Libraries/STM32H7xx_HAL_Driver/Src/stm32h7xx_hal_mdma.c ****         /* Update error code */
1250:./Libraries/STM32H7xx_HAL_Driver/Src/stm32h7xx_hal_mdma.c ****         hmdma->ErrorCode |= HAL_MDMA_ERROR_TIMEOUT;
 2363              		.loc 1 1250 26
 2364 0066 7B68     		ldr	r3, [r7, #4]
 2365 0068 9B6E     		ldr	r3, [r3, #104]
 2366 006a 43F04002 		orr	r2, r3, #64
 2367 006e 7B68     		ldr	r3, [r7, #4]
 2368 0070 9A66     		str	r2, [r3, #104]
1251:./Libraries/STM32H7xx_HAL_Driver/Src/stm32h7xx_hal_mdma.c **** 
1252:./Libraries/STM32H7xx_HAL_Driver/Src/stm32h7xx_hal_mdma.c ****         /* Process Unlocked */
1253:./Libraries/STM32H7xx_HAL_Driver/Src/stm32h7xx_hal_mdma.c ****         __HAL_UNLOCK(hmdma);
 2369              		.loc 1 1253 9
 2370 0072 7B68     		ldr	r3, [r7, #4]
 2371 0074 0022     		movs	r2, #0
 2372 0076 83F83C20 		strb	r2, [r3, #60]
1254:./Libraries/STM32H7xx_HAL_Driver/Src/stm32h7xx_hal_mdma.c **** 
1255:./Libraries/STM32H7xx_HAL_Driver/Src/stm32h7xx_hal_mdma.c ****         /* Change the MDMA state */
1256:./Libraries/STM32H7xx_HAL_Driver/Src/stm32h7xx_hal_mdma.c ****         hmdma->State = HAL_MDMA_STATE_ERROR;
 2373              		.loc 1 1256 22
 2374 007a 7B68     		ldr	r3, [r7, #4]
 2375 007c 0322     		movs	r2, #3
 2376 007e 83F83D20 		strb	r2, [r3, #61]
1257:./Libraries/STM32H7xx_HAL_Driver/Src/stm32h7xx_hal_mdma.c **** 
1258:./Libraries/STM32H7xx_HAL_Driver/Src/stm32h7xx_hal_mdma.c ****         return HAL_ERROR;
 2377              		.loc 1 1258 16
 2378 0082 0123     		movs	r3, #1
 2379 0084 13E0     		b	.L134
 2380              	.L136:
1244:./Libraries/STM32H7xx_HAL_Driver/Src/stm32h7xx_hal_mdma.c ****     {
 2381              		.loc 1 1244 17
 2382 0086 7B68     		ldr	r3, [r7, #4]
 2383 0088 1B68     		ldr	r3, [r3]
1244:./Libraries/STM32H7xx_HAL_Driver/Src/stm32h7xx_hal_mdma.c ****     {
 2384              		.loc 1 1244 27
 2385 008a DB68     		ldr	r3, [r3, #12]
1244:./Libraries/STM32H7xx_HAL_Driver/Src/stm32h7xx_hal_mdma.c ****     {
 2386              		.loc 1 1244 33
 2387 008c 03F00103 		and	r3, r3, #1
1244:./Libraries/STM32H7xx_HAL_Driver/Src/stm32h7xx_hal_mdma.c ****     {
 2388              		.loc 1 1244 10
 2389 0090 002B     		cmp	r3, #0
 2390 0092 E1D1     		bne	.L137
1259:./Libraries/STM32H7xx_HAL_Driver/Src/stm32h7xx_hal_mdma.c ****       }
ARM GAS  /tmp/ccZsyCUo.s 			page 65


1260:./Libraries/STM32H7xx_HAL_Driver/Src/stm32h7xx_hal_mdma.c ****     }
1261:./Libraries/STM32H7xx_HAL_Driver/Src/stm32h7xx_hal_mdma.c **** 
1262:./Libraries/STM32H7xx_HAL_Driver/Src/stm32h7xx_hal_mdma.c ****     /* Clear all interrupt flags */
1263:./Libraries/STM32H7xx_HAL_Driver/Src/stm32h7xx_hal_mdma.c ****     __HAL_MDMA_CLEAR_FLAG(hmdma, (MDMA_FLAG_TE | MDMA_FLAG_CTC | MDMA_FLAG_BT | MDMA_FLAG_BRT | MDM
 2391              		.loc 1 1263 5
 2392 0094 7B68     		ldr	r3, [r7, #4]
 2393 0096 1B68     		ldr	r3, [r3]
 2394 0098 1F22     		movs	r2, #31
 2395 009a 5A60     		str	r2, [r3, #4]
1264:./Libraries/STM32H7xx_HAL_Driver/Src/stm32h7xx_hal_mdma.c **** 
1265:./Libraries/STM32H7xx_HAL_Driver/Src/stm32h7xx_hal_mdma.c ****     /* Process Unlocked */
1266:./Libraries/STM32H7xx_HAL_Driver/Src/stm32h7xx_hal_mdma.c ****     __HAL_UNLOCK(hmdma);
 2396              		.loc 1 1266 5
 2397 009c 7B68     		ldr	r3, [r7, #4]
 2398 009e 0022     		movs	r2, #0
 2399 00a0 83F83C20 		strb	r2, [r3, #60]
1267:./Libraries/STM32H7xx_HAL_Driver/Src/stm32h7xx_hal_mdma.c **** 
1268:./Libraries/STM32H7xx_HAL_Driver/Src/stm32h7xx_hal_mdma.c ****     /* Change the MDMA state*/
1269:./Libraries/STM32H7xx_HAL_Driver/Src/stm32h7xx_hal_mdma.c ****     hmdma->State = HAL_MDMA_STATE_READY;
 2400              		.loc 1 1269 18
 2401 00a4 7B68     		ldr	r3, [r7, #4]
 2402 00a6 0122     		movs	r2, #1
 2403 00a8 83F83D20 		strb	r2, [r3, #61]
1270:./Libraries/STM32H7xx_HAL_Driver/Src/stm32h7xx_hal_mdma.c ****   }
1271:./Libraries/STM32H7xx_HAL_Driver/Src/stm32h7xx_hal_mdma.c **** 
1272:./Libraries/STM32H7xx_HAL_Driver/Src/stm32h7xx_hal_mdma.c ****   return HAL_OK;
 2404              		.loc 1 1272 10
 2405 00ac 0023     		movs	r3, #0
 2406              	.L134:
1273:./Libraries/STM32H7xx_HAL_Driver/Src/stm32h7xx_hal_mdma.c **** }
 2407              		.loc 1 1273 1
 2408 00ae 1846     		mov	r0, r3
 2409 00b0 1037     		adds	r7, r7, #16
 2410              	.LCFI72:
 2411              		.cfi_def_cfa_offset 8
 2412 00b2 BD46     		mov	sp, r7
 2413              	.LCFI73:
 2414              		.cfi_def_cfa_register 13
 2415              		@ sp needed
 2416 00b4 80BD     		pop	{r7, pc}
 2417              		.cfi_endproc
 2418              	.LFE343:
 2420              		.section	.text.HAL_MDMA_Abort_IT,"ax",%progbits
 2421              		.align	1
 2422              		.global	HAL_MDMA_Abort_IT
 2423              		.syntax unified
 2424              		.thumb
 2425              		.thumb_func
 2426              		.fpu fpv5-d16
 2428              	HAL_MDMA_Abort_IT:
 2429              	.LFB344:
1274:./Libraries/STM32H7xx_HAL_Driver/Src/stm32h7xx_hal_mdma.c **** 
1275:./Libraries/STM32H7xx_HAL_Driver/Src/stm32h7xx_hal_mdma.c **** /**
1276:./Libraries/STM32H7xx_HAL_Driver/Src/stm32h7xx_hal_mdma.c ****   * @brief  Aborts the MDMA Transfer in Interrupt mode.
1277:./Libraries/STM32H7xx_HAL_Driver/Src/stm32h7xx_hal_mdma.c ****   * @param  hmdma  : pointer to a MDMA_HandleTypeDef structure that contains
1278:./Libraries/STM32H7xx_HAL_Driver/Src/stm32h7xx_hal_mdma.c ****   *                 the configuration information for the specified MDMA Channel.
1279:./Libraries/STM32H7xx_HAL_Driver/Src/stm32h7xx_hal_mdma.c ****   * @retval HAL status
ARM GAS  /tmp/ccZsyCUo.s 			page 66


1280:./Libraries/STM32H7xx_HAL_Driver/Src/stm32h7xx_hal_mdma.c ****   */
1281:./Libraries/STM32H7xx_HAL_Driver/Src/stm32h7xx_hal_mdma.c **** HAL_StatusTypeDef HAL_MDMA_Abort_IT(MDMA_HandleTypeDef *hmdma)
1282:./Libraries/STM32H7xx_HAL_Driver/Src/stm32h7xx_hal_mdma.c **** {
 2430              		.loc 1 1282 1
 2431              		.cfi_startproc
 2432              		@ args = 0, pretend = 0, frame = 8
 2433              		@ frame_needed = 1, uses_anonymous_args = 0
 2434              		@ link register save eliminated.
 2435 0000 80B4     		push	{r7}
 2436              	.LCFI74:
 2437              		.cfi_def_cfa_offset 4
 2438              		.cfi_offset 7, -4
 2439 0002 83B0     		sub	sp, sp, #12
 2440              	.LCFI75:
 2441              		.cfi_def_cfa_offset 16
 2442 0004 00AF     		add	r7, sp, #0
 2443              	.LCFI76:
 2444              		.cfi_def_cfa_register 7
 2445 0006 7860     		str	r0, [r7, #4]
1283:./Libraries/STM32H7xx_HAL_Driver/Src/stm32h7xx_hal_mdma.c ****   /* Check the MDMA peripheral handle */
1284:./Libraries/STM32H7xx_HAL_Driver/Src/stm32h7xx_hal_mdma.c ****   if(hmdma == NULL)
 2446              		.loc 1 1284 5
 2447 0008 7B68     		ldr	r3, [r7, #4]
 2448 000a 002B     		cmp	r3, #0
 2449 000c 01D1     		bne	.L139
1285:./Libraries/STM32H7xx_HAL_Driver/Src/stm32h7xx_hal_mdma.c ****   {
1286:./Libraries/STM32H7xx_HAL_Driver/Src/stm32h7xx_hal_mdma.c ****     return HAL_ERROR;
 2450              		.loc 1 1286 12
 2451 000e 0123     		movs	r3, #1
 2452 0010 17E0     		b	.L140
 2453              	.L139:
1287:./Libraries/STM32H7xx_HAL_Driver/Src/stm32h7xx_hal_mdma.c ****   }
1288:./Libraries/STM32H7xx_HAL_Driver/Src/stm32h7xx_hal_mdma.c **** 
1289:./Libraries/STM32H7xx_HAL_Driver/Src/stm32h7xx_hal_mdma.c ****   if(HAL_MDMA_STATE_BUSY != hmdma->State)
 2454              		.loc 1 1289 34
 2455 0012 7B68     		ldr	r3, [r7, #4]
 2456 0014 93F83D30 		ldrb	r3, [r3, #61]
 2457 0018 DBB2     		uxtb	r3, r3
 2458              		.loc 1 1289 5
 2459 001a 022B     		cmp	r3, #2
 2460 001c 04D0     		beq	.L141
1290:./Libraries/STM32H7xx_HAL_Driver/Src/stm32h7xx_hal_mdma.c ****   {
1291:./Libraries/STM32H7xx_HAL_Driver/Src/stm32h7xx_hal_mdma.c ****     /* No transfer ongoing */
1292:./Libraries/STM32H7xx_HAL_Driver/Src/stm32h7xx_hal_mdma.c ****     hmdma->ErrorCode = HAL_MDMA_ERROR_NO_XFER;
 2461              		.loc 1 1292 22
 2462 001e 7B68     		ldr	r3, [r7, #4]
 2463 0020 8022     		movs	r2, #128
 2464 0022 9A66     		str	r2, [r3, #104]
1293:./Libraries/STM32H7xx_HAL_Driver/Src/stm32h7xx_hal_mdma.c **** 
1294:./Libraries/STM32H7xx_HAL_Driver/Src/stm32h7xx_hal_mdma.c ****     return HAL_ERROR;
 2465              		.loc 1 1294 12
 2466 0024 0123     		movs	r3, #1
 2467 0026 0CE0     		b	.L140
 2468              	.L141:
1295:./Libraries/STM32H7xx_HAL_Driver/Src/stm32h7xx_hal_mdma.c ****   }
1296:./Libraries/STM32H7xx_HAL_Driver/Src/stm32h7xx_hal_mdma.c ****   else
1297:./Libraries/STM32H7xx_HAL_Driver/Src/stm32h7xx_hal_mdma.c ****   {
ARM GAS  /tmp/ccZsyCUo.s 			page 67


1298:./Libraries/STM32H7xx_HAL_Driver/Src/stm32h7xx_hal_mdma.c ****     /* Set Abort State  */
1299:./Libraries/STM32H7xx_HAL_Driver/Src/stm32h7xx_hal_mdma.c ****     hmdma->State = HAL_MDMA_STATE_ABORT;
 2469              		.loc 1 1299 18
 2470 0028 7B68     		ldr	r3, [r7, #4]
 2471 002a 0422     		movs	r2, #4
 2472 002c 83F83D20 		strb	r2, [r3, #61]
1300:./Libraries/STM32H7xx_HAL_Driver/Src/stm32h7xx_hal_mdma.c **** 
1301:./Libraries/STM32H7xx_HAL_Driver/Src/stm32h7xx_hal_mdma.c ****     /* Disable the stream */
1302:./Libraries/STM32H7xx_HAL_Driver/Src/stm32h7xx_hal_mdma.c ****     __HAL_MDMA_DISABLE(hmdma);
 2473              		.loc 1 1302 5
 2474 0030 7B68     		ldr	r3, [r7, #4]
 2475 0032 1B68     		ldr	r3, [r3]
 2476 0034 DA68     		ldr	r2, [r3, #12]
 2477 0036 7B68     		ldr	r3, [r7, #4]
 2478 0038 1B68     		ldr	r3, [r3]
 2479 003a 22F00102 		bic	r2, r2, #1
 2480 003e DA60     		str	r2, [r3, #12]
1303:./Libraries/STM32H7xx_HAL_Driver/Src/stm32h7xx_hal_mdma.c ****   }
1304:./Libraries/STM32H7xx_HAL_Driver/Src/stm32h7xx_hal_mdma.c **** 
1305:./Libraries/STM32H7xx_HAL_Driver/Src/stm32h7xx_hal_mdma.c ****   return HAL_OK;
 2481              		.loc 1 1305 10
 2482 0040 0023     		movs	r3, #0
 2483              	.L140:
1306:./Libraries/STM32H7xx_HAL_Driver/Src/stm32h7xx_hal_mdma.c **** }
 2484              		.loc 1 1306 1
 2485 0042 1846     		mov	r0, r3
 2486 0044 0C37     		adds	r7, r7, #12
 2487              	.LCFI77:
 2488              		.cfi_def_cfa_offset 4
 2489 0046 BD46     		mov	sp, r7
 2490              	.LCFI78:
 2491              		.cfi_def_cfa_register 13
 2492              		@ sp needed
 2493 0048 5DF8047B 		ldr	r7, [sp], #4
 2494              	.LCFI79:
 2495              		.cfi_restore 7
 2496              		.cfi_def_cfa_offset 0
 2497 004c 7047     		bx	lr
 2498              		.cfi_endproc
 2499              	.LFE344:
 2501              		.section	.text.HAL_MDMA_PollForTransfer,"ax",%progbits
 2502              		.align	1
 2503              		.global	HAL_MDMA_PollForTransfer
 2504              		.syntax unified
 2505              		.thumb
 2506              		.thumb_func
 2507              		.fpu fpv5-d16
 2509              	HAL_MDMA_PollForTransfer:
 2510              	.LFB345:
1307:./Libraries/STM32H7xx_HAL_Driver/Src/stm32h7xx_hal_mdma.c **** 
1308:./Libraries/STM32H7xx_HAL_Driver/Src/stm32h7xx_hal_mdma.c **** /**
1309:./Libraries/STM32H7xx_HAL_Driver/Src/stm32h7xx_hal_mdma.c ****   * @brief  Polling for transfer complete.
1310:./Libraries/STM32H7xx_HAL_Driver/Src/stm32h7xx_hal_mdma.c ****   * @param  hmdma:          pointer to a MDMA_HandleTypeDef structure that contains
1311:./Libraries/STM32H7xx_HAL_Driver/Src/stm32h7xx_hal_mdma.c ****   *                        the configuration information for the specified MDMA Channel.
1312:./Libraries/STM32H7xx_HAL_Driver/Src/stm32h7xx_hal_mdma.c ****   * @param  CompleteLevel: Specifies the MDMA level complete.
1313:./Libraries/STM32H7xx_HAL_Driver/Src/stm32h7xx_hal_mdma.c ****   * @param  Timeout:       Timeout duration.
1314:./Libraries/STM32H7xx_HAL_Driver/Src/stm32h7xx_hal_mdma.c ****   * @retval HAL status
ARM GAS  /tmp/ccZsyCUo.s 			page 68


1315:./Libraries/STM32H7xx_HAL_Driver/Src/stm32h7xx_hal_mdma.c ****   */
1316:./Libraries/STM32H7xx_HAL_Driver/Src/stm32h7xx_hal_mdma.c **** HAL_StatusTypeDef HAL_MDMA_PollForTransfer(MDMA_HandleTypeDef *hmdma, HAL_MDMA_LevelCompleteTypeDef
1317:./Libraries/STM32H7xx_HAL_Driver/Src/stm32h7xx_hal_mdma.c **** {
 2511              		.loc 1 1317 1
 2512              		.cfi_startproc
 2513              		@ args = 0, pretend = 0, frame = 32
 2514              		@ frame_needed = 1, uses_anonymous_args = 0
 2515 0000 80B5     		push	{r7, lr}
 2516              	.LCFI80:
 2517              		.cfi_def_cfa_offset 8
 2518              		.cfi_offset 7, -8
 2519              		.cfi_offset 14, -4
 2520 0002 88B0     		sub	sp, sp, #32
 2521              	.LCFI81:
 2522              		.cfi_def_cfa_offset 40
 2523 0004 00AF     		add	r7, sp, #0
 2524              	.LCFI82:
 2525              		.cfi_def_cfa_register 7
 2526 0006 F860     		str	r0, [r7, #12]
 2527 0008 0B46     		mov	r3, r1
 2528 000a 7A60     		str	r2, [r7, #4]
 2529 000c FB72     		strb	r3, [r7, #11]
1318:./Libraries/STM32H7xx_HAL_Driver/Src/stm32h7xx_hal_mdma.c ****   uint32_t levelFlag, errorFlag;
1319:./Libraries/STM32H7xx_HAL_Driver/Src/stm32h7xx_hal_mdma.c ****   uint32_t tickstart;
1320:./Libraries/STM32H7xx_HAL_Driver/Src/stm32h7xx_hal_mdma.c **** 
1321:./Libraries/STM32H7xx_HAL_Driver/Src/stm32h7xx_hal_mdma.c ****   /* Check the parameters */
1322:./Libraries/STM32H7xx_HAL_Driver/Src/stm32h7xx_hal_mdma.c ****   assert_param(IS_MDMA_LEVEL_COMPLETE(CompleteLevel));
1323:./Libraries/STM32H7xx_HAL_Driver/Src/stm32h7xx_hal_mdma.c **** 
1324:./Libraries/STM32H7xx_HAL_Driver/Src/stm32h7xx_hal_mdma.c ****   /* Check the MDMA peripheral handle */
1325:./Libraries/STM32H7xx_HAL_Driver/Src/stm32h7xx_hal_mdma.c ****   if(hmdma == NULL)
 2530              		.loc 1 1325 5
 2531 000e FB68     		ldr	r3, [r7, #12]
 2532 0010 002B     		cmp	r3, #0
 2533 0012 01D1     		bne	.L143
1326:./Libraries/STM32H7xx_HAL_Driver/Src/stm32h7xx_hal_mdma.c ****   {
1327:./Libraries/STM32H7xx_HAL_Driver/Src/stm32h7xx_hal_mdma.c ****     return HAL_ERROR;
 2534              		.loc 1 1327 12
 2535 0014 0123     		movs	r3, #1
 2536 0016 B9E0     		b	.L144
 2537              	.L143:
1328:./Libraries/STM32H7xx_HAL_Driver/Src/stm32h7xx_hal_mdma.c ****   }
1329:./Libraries/STM32H7xx_HAL_Driver/Src/stm32h7xx_hal_mdma.c **** 
1330:./Libraries/STM32H7xx_HAL_Driver/Src/stm32h7xx_hal_mdma.c ****   if(HAL_MDMA_STATE_BUSY != hmdma->State)
 2538              		.loc 1 1330 34
 2539 0018 FB68     		ldr	r3, [r7, #12]
 2540 001a 93F83D30 		ldrb	r3, [r3, #61]
 2541 001e DBB2     		uxtb	r3, r3
 2542              		.loc 1 1330 5
 2543 0020 022B     		cmp	r3, #2
 2544 0022 04D0     		beq	.L145
1331:./Libraries/STM32H7xx_HAL_Driver/Src/stm32h7xx_hal_mdma.c ****   {
1332:./Libraries/STM32H7xx_HAL_Driver/Src/stm32h7xx_hal_mdma.c ****     /* No transfer ongoing */
1333:./Libraries/STM32H7xx_HAL_Driver/Src/stm32h7xx_hal_mdma.c ****     hmdma->ErrorCode = HAL_MDMA_ERROR_NO_XFER;
 2545              		.loc 1 1333 22
 2546 0024 FB68     		ldr	r3, [r7, #12]
 2547 0026 8022     		movs	r2, #128
 2548 0028 9A66     		str	r2, [r3, #104]
ARM GAS  /tmp/ccZsyCUo.s 			page 69


1334:./Libraries/STM32H7xx_HAL_Driver/Src/stm32h7xx_hal_mdma.c **** 
1335:./Libraries/STM32H7xx_HAL_Driver/Src/stm32h7xx_hal_mdma.c ****     return HAL_ERROR;
 2549              		.loc 1 1335 12
 2550 002a 0123     		movs	r3, #1
 2551 002c AEE0     		b	.L144
 2552              	.L145:
1336:./Libraries/STM32H7xx_HAL_Driver/Src/stm32h7xx_hal_mdma.c ****   }
1337:./Libraries/STM32H7xx_HAL_Driver/Src/stm32h7xx_hal_mdma.c **** 
1338:./Libraries/STM32H7xx_HAL_Driver/Src/stm32h7xx_hal_mdma.c ****   /* Get the level transfer complete flag */
1339:./Libraries/STM32H7xx_HAL_Driver/Src/stm32h7xx_hal_mdma.c ****   levelFlag = ((CompleteLevel == HAL_MDMA_FULL_TRANSFER)  ? MDMA_FLAG_CTC  : \
 2553              		.loc 1 1339 76
 2554 002e FB7A     		ldrb	r3, [r7, #11]	@ zero_extendqisi2
 2555 0030 002B     		cmp	r3, #0
 2556 0032 0BD0     		beq	.L146
1340:./Libraries/STM32H7xx_HAL_Driver/Src/stm32h7xx_hal_mdma.c ****                (CompleteLevel == HAL_MDMA_BUFFER_TRANSFER)? MDMA_FLAG_BFTC : \
 2557              		.loc 1 1340 76
 2558 0034 FB7A     		ldrb	r3, [r7, #11]	@ zero_extendqisi2
 2559 0036 012B     		cmp	r3, #1
 2560 0038 06D0     		beq	.L147
1341:./Libraries/STM32H7xx_HAL_Driver/Src/stm32h7xx_hal_mdma.c ****                (CompleteLevel == HAL_MDMA_BLOCK_TRANSFER) ? MDMA_FLAG_BT   : \
 2561              		.loc 1 1341 76
 2562 003a FB7A     		ldrb	r3, [r7, #11]	@ zero_extendqisi2
 2563 003c 022B     		cmp	r3, #2
 2564 003e 01D1     		bne	.L148
 2565              		.loc 1 1341 76 is_stmt 0 discriminator 1
 2566 0040 0823     		movs	r3, #8
 2567 0042 04E0     		b	.L151
 2568              	.L148:
 2569              		.loc 1 1341 76 discriminator 2
 2570 0044 0423     		movs	r3, #4
 2571 0046 02E0     		b	.L151
 2572              	.L147:
1340:./Libraries/STM32H7xx_HAL_Driver/Src/stm32h7xx_hal_mdma.c ****                (CompleteLevel == HAL_MDMA_BUFFER_TRANSFER)? MDMA_FLAG_BFTC : \
 2573              		.loc 1 1340 76 is_stmt 1 discriminator 1
 2574 0048 1023     		movs	r3, #16
 2575 004a 00E0     		b	.L151
 2576              	.L146:
1339:./Libraries/STM32H7xx_HAL_Driver/Src/stm32h7xx_hal_mdma.c ****                (CompleteLevel == HAL_MDMA_BUFFER_TRANSFER)? MDMA_FLAG_BFTC : \
 2577              		.loc 1 1339 76 discriminator 1
 2578 004c 0223     		movs	r3, #2
 2579              	.L151:
1339:./Libraries/STM32H7xx_HAL_Driver/Src/stm32h7xx_hal_mdma.c ****                (CompleteLevel == HAL_MDMA_BUFFER_TRANSFER)? MDMA_FLAG_BFTC : \
 2580              		.loc 1 1339 13 discriminator 3
 2581 004e FB61     		str	r3, [r7, #28]
1342:./Libraries/STM32H7xx_HAL_Driver/Src/stm32h7xx_hal_mdma.c ****                MDMA_FLAG_BRT);
1343:./Libraries/STM32H7xx_HAL_Driver/Src/stm32h7xx_hal_mdma.c **** 
1344:./Libraries/STM32H7xx_HAL_Driver/Src/stm32h7xx_hal_mdma.c **** 
1345:./Libraries/STM32H7xx_HAL_Driver/Src/stm32h7xx_hal_mdma.c ****   /* Get timeout */
1346:./Libraries/STM32H7xx_HAL_Driver/Src/stm32h7xx_hal_mdma.c ****   tickstart = HAL_GetTick();
 2582              		.loc 1 1346 15 discriminator 3
 2583 0050 FFF7FEFF 		bl	HAL_GetTick
 2584 0054 B861     		str	r0, [r7, #24]
1347:./Libraries/STM32H7xx_HAL_Driver/Src/stm32h7xx_hal_mdma.c **** 
1348:./Libraries/STM32H7xx_HAL_Driver/Src/stm32h7xx_hal_mdma.c ****   while(__HAL_MDMA_GET_FLAG(hmdma, levelFlag) == 0U)
 2585              		.loc 1 1348 8 discriminator 3
 2586 0056 67E0     		b	.L152
 2587              	.L161:
ARM GAS  /tmp/ccZsyCUo.s 			page 70


1349:./Libraries/STM32H7xx_HAL_Driver/Src/stm32h7xx_hal_mdma.c ****   {
1350:./Libraries/STM32H7xx_HAL_Driver/Src/stm32h7xx_hal_mdma.c ****     if((__HAL_MDMA_GET_FLAG(hmdma, MDMA_FLAG_TE) != 0U))
 2588              		.loc 1 1350 9
 2589 0058 FB68     		ldr	r3, [r7, #12]
 2590 005a 1B68     		ldr	r3, [r3]
 2591 005c 1B68     		ldr	r3, [r3]
 2592 005e 03F00103 		and	r3, r3, #1
 2593              		.loc 1 1350 7
 2594 0062 002B     		cmp	r3, #0
 2595 0064 46D0     		beq	.L153
1351:./Libraries/STM32H7xx_HAL_Driver/Src/stm32h7xx_hal_mdma.c ****     {
1352:./Libraries/STM32H7xx_HAL_Driver/Src/stm32h7xx_hal_mdma.c ****       /* Get the transfer error source flag */
1353:./Libraries/STM32H7xx_HAL_Driver/Src/stm32h7xx_hal_mdma.c ****       errorFlag = hmdma->Instance->CESR;
 2596              		.loc 1 1353 24
 2597 0066 FB68     		ldr	r3, [r7, #12]
 2598 0068 1B68     		ldr	r3, [r3]
 2599              		.loc 1 1353 17
 2600 006a 9B68     		ldr	r3, [r3, #8]
 2601 006c 7B61     		str	r3, [r7, #20]
1354:./Libraries/STM32H7xx_HAL_Driver/Src/stm32h7xx_hal_mdma.c **** 
1355:./Libraries/STM32H7xx_HAL_Driver/Src/stm32h7xx_hal_mdma.c ****       if((errorFlag & MDMA_CESR_TED) == 0U)
 2602              		.loc 1 1355 21
 2603 006e 7B69     		ldr	r3, [r7, #20]
 2604 0070 03F08003 		and	r3, r3, #128
 2605              		.loc 1 1355 9
 2606 0074 002B     		cmp	r3, #0
 2607 0076 06D1     		bne	.L154
1356:./Libraries/STM32H7xx_HAL_Driver/Src/stm32h7xx_hal_mdma.c ****       {
1357:./Libraries/STM32H7xx_HAL_Driver/Src/stm32h7xx_hal_mdma.c ****         /* Update error code : Read Transfer error  */
1358:./Libraries/STM32H7xx_HAL_Driver/Src/stm32h7xx_hal_mdma.c ****         hmdma->ErrorCode |= HAL_MDMA_ERROR_READ_XFER;
 2608              		.loc 1 1358 26
 2609 0078 FB68     		ldr	r3, [r7, #12]
 2610 007a 9B6E     		ldr	r3, [r3, #104]
 2611 007c 43F00102 		orr	r2, r3, #1
 2612 0080 FB68     		ldr	r3, [r7, #12]
 2613 0082 9A66     		str	r2, [r3, #104]
 2614 0084 05E0     		b	.L155
 2615              	.L154:
1359:./Libraries/STM32H7xx_HAL_Driver/Src/stm32h7xx_hal_mdma.c ****       }
1360:./Libraries/STM32H7xx_HAL_Driver/Src/stm32h7xx_hal_mdma.c ****       else
1361:./Libraries/STM32H7xx_HAL_Driver/Src/stm32h7xx_hal_mdma.c ****       {
1362:./Libraries/STM32H7xx_HAL_Driver/Src/stm32h7xx_hal_mdma.c ****         /* Update error code : Write Transfer error */
1363:./Libraries/STM32H7xx_HAL_Driver/Src/stm32h7xx_hal_mdma.c ****         hmdma->ErrorCode |= HAL_MDMA_ERROR_WRITE_XFER;
 2616              		.loc 1 1363 26
 2617 0086 FB68     		ldr	r3, [r7, #12]
 2618 0088 9B6E     		ldr	r3, [r3, #104]
 2619 008a 43F00202 		orr	r2, r3, #2
 2620 008e FB68     		ldr	r3, [r7, #12]
 2621 0090 9A66     		str	r2, [r3, #104]
 2622              	.L155:
1364:./Libraries/STM32H7xx_HAL_Driver/Src/stm32h7xx_hal_mdma.c ****       }
1365:./Libraries/STM32H7xx_HAL_Driver/Src/stm32h7xx_hal_mdma.c **** 
1366:./Libraries/STM32H7xx_HAL_Driver/Src/stm32h7xx_hal_mdma.c ****       if((errorFlag & MDMA_CESR_TEMD) != 0U)
 2623              		.loc 1 1366 21
 2624 0092 7B69     		ldr	r3, [r7, #20]
 2625 0094 03F40073 		and	r3, r3, #512
 2626              		.loc 1 1366 9
ARM GAS  /tmp/ccZsyCUo.s 			page 71


 2627 0098 002B     		cmp	r3, #0
 2628 009a 05D0     		beq	.L156
1367:./Libraries/STM32H7xx_HAL_Driver/Src/stm32h7xx_hal_mdma.c ****       {
1368:./Libraries/STM32H7xx_HAL_Driver/Src/stm32h7xx_hal_mdma.c ****         /* Update error code : Error Mask Data */
1369:./Libraries/STM32H7xx_HAL_Driver/Src/stm32h7xx_hal_mdma.c ****         hmdma->ErrorCode |= HAL_MDMA_ERROR_MASK_DATA;
 2629              		.loc 1 1369 26
 2630 009c FB68     		ldr	r3, [r7, #12]
 2631 009e 9B6E     		ldr	r3, [r3, #104]
 2632 00a0 43F00402 		orr	r2, r3, #4
 2633 00a4 FB68     		ldr	r3, [r7, #12]
 2634 00a6 9A66     		str	r2, [r3, #104]
 2635              	.L156:
1370:./Libraries/STM32H7xx_HAL_Driver/Src/stm32h7xx_hal_mdma.c ****       }
1371:./Libraries/STM32H7xx_HAL_Driver/Src/stm32h7xx_hal_mdma.c **** 
1372:./Libraries/STM32H7xx_HAL_Driver/Src/stm32h7xx_hal_mdma.c ****       if((errorFlag & MDMA_CESR_TELD) != 0U)
 2636              		.loc 1 1372 21
 2637 00a8 7B69     		ldr	r3, [r7, #20]
 2638 00aa 03F48073 		and	r3, r3, #256
 2639              		.loc 1 1372 9
 2640 00ae 002B     		cmp	r3, #0
 2641 00b0 05D0     		beq	.L157
1373:./Libraries/STM32H7xx_HAL_Driver/Src/stm32h7xx_hal_mdma.c ****       {
1374:./Libraries/STM32H7xx_HAL_Driver/Src/stm32h7xx_hal_mdma.c ****         /* Update error code : Error Linked list */
1375:./Libraries/STM32H7xx_HAL_Driver/Src/stm32h7xx_hal_mdma.c ****         hmdma->ErrorCode |= HAL_MDMA_ERROR_LINKED_LIST;
 2642              		.loc 1 1375 26
 2643 00b2 FB68     		ldr	r3, [r7, #12]
 2644 00b4 9B6E     		ldr	r3, [r3, #104]
 2645 00b6 43F00802 		orr	r2, r3, #8
 2646 00ba FB68     		ldr	r3, [r7, #12]
 2647 00bc 9A66     		str	r2, [r3, #104]
 2648              	.L157:
1376:./Libraries/STM32H7xx_HAL_Driver/Src/stm32h7xx_hal_mdma.c ****       }
1377:./Libraries/STM32H7xx_HAL_Driver/Src/stm32h7xx_hal_mdma.c **** 
1378:./Libraries/STM32H7xx_HAL_Driver/Src/stm32h7xx_hal_mdma.c ****       if((errorFlag & MDMA_CESR_ASE) != 0U)
 2649              		.loc 1 1378 21
 2650 00be 7B69     		ldr	r3, [r7, #20]
 2651 00c0 03F48063 		and	r3, r3, #1024
 2652              		.loc 1 1378 9
 2653 00c4 002B     		cmp	r3, #0
 2654 00c6 05D0     		beq	.L158
1379:./Libraries/STM32H7xx_HAL_Driver/Src/stm32h7xx_hal_mdma.c ****       {
1380:./Libraries/STM32H7xx_HAL_Driver/Src/stm32h7xx_hal_mdma.c ****         /* Update error code : Address/Size alignment error */
1381:./Libraries/STM32H7xx_HAL_Driver/Src/stm32h7xx_hal_mdma.c ****         hmdma->ErrorCode |= HAL_MDMA_ERROR_ALIGNMENT;
 2655              		.loc 1 1381 26
 2656 00c8 FB68     		ldr	r3, [r7, #12]
 2657 00ca 9B6E     		ldr	r3, [r3, #104]
 2658 00cc 43F01002 		orr	r2, r3, #16
 2659 00d0 FB68     		ldr	r3, [r7, #12]
 2660 00d2 9A66     		str	r2, [r3, #104]
 2661              	.L158:
1382:./Libraries/STM32H7xx_HAL_Driver/Src/stm32h7xx_hal_mdma.c ****       }
1383:./Libraries/STM32H7xx_HAL_Driver/Src/stm32h7xx_hal_mdma.c **** 
1384:./Libraries/STM32H7xx_HAL_Driver/Src/stm32h7xx_hal_mdma.c ****       if((errorFlag & MDMA_CESR_BSE) != 0U)
 2662              		.loc 1 1384 21
 2663 00d4 7B69     		ldr	r3, [r7, #20]
 2664 00d6 03F40063 		and	r3, r3, #2048
 2665              		.loc 1 1384 9
ARM GAS  /tmp/ccZsyCUo.s 			page 72


 2666 00da 002B     		cmp	r3, #0
 2667 00dc 05D0     		beq	.L159
1385:./Libraries/STM32H7xx_HAL_Driver/Src/stm32h7xx_hal_mdma.c ****       {
1386:./Libraries/STM32H7xx_HAL_Driver/Src/stm32h7xx_hal_mdma.c ****         /* Update error code : Block Size error */
1387:./Libraries/STM32H7xx_HAL_Driver/Src/stm32h7xx_hal_mdma.c ****         hmdma->ErrorCode |= HAL_MDMA_ERROR_BLOCK_SIZE;
 2668              		.loc 1 1387 26
 2669 00de FB68     		ldr	r3, [r7, #12]
 2670 00e0 9B6E     		ldr	r3, [r3, #104]
 2671 00e2 43F02002 		orr	r2, r3, #32
 2672 00e6 FB68     		ldr	r3, [r7, #12]
 2673 00e8 9A66     		str	r2, [r3, #104]
 2674              	.L159:
1388:./Libraries/STM32H7xx_HAL_Driver/Src/stm32h7xx_hal_mdma.c ****       }
1389:./Libraries/STM32H7xx_HAL_Driver/Src/stm32h7xx_hal_mdma.c **** 
1390:./Libraries/STM32H7xx_HAL_Driver/Src/stm32h7xx_hal_mdma.c ****       (void) HAL_MDMA_Abort(hmdma); /* if error then abort the current transfer */
 2675              		.loc 1 1390 14
 2676 00ea F868     		ldr	r0, [r7, #12]
 2677 00ec FFF7FEFF 		bl	HAL_MDMA_Abort
1391:./Libraries/STM32H7xx_HAL_Driver/Src/stm32h7xx_hal_mdma.c **** 
1392:./Libraries/STM32H7xx_HAL_Driver/Src/stm32h7xx_hal_mdma.c ****       /*
1393:./Libraries/STM32H7xx_HAL_Driver/Src/stm32h7xx_hal_mdma.c ****         Note that the Abort function will
1394:./Libraries/STM32H7xx_HAL_Driver/Src/stm32h7xx_hal_mdma.c ****           - Clear all transfer flags
1395:./Libraries/STM32H7xx_HAL_Driver/Src/stm32h7xx_hal_mdma.c ****           - Unlock
1396:./Libraries/STM32H7xx_HAL_Driver/Src/stm32h7xx_hal_mdma.c ****           - Set the State
1397:./Libraries/STM32H7xx_HAL_Driver/Src/stm32h7xx_hal_mdma.c ****       */
1398:./Libraries/STM32H7xx_HAL_Driver/Src/stm32h7xx_hal_mdma.c **** 
1399:./Libraries/STM32H7xx_HAL_Driver/Src/stm32h7xx_hal_mdma.c ****       return HAL_ERROR;
 2678              		.loc 1 1399 14
 2679 00f0 0123     		movs	r3, #1
 2680 00f2 4BE0     		b	.L144
 2681              	.L153:
1400:./Libraries/STM32H7xx_HAL_Driver/Src/stm32h7xx_hal_mdma.c **** 
1401:./Libraries/STM32H7xx_HAL_Driver/Src/stm32h7xx_hal_mdma.c ****     }
1402:./Libraries/STM32H7xx_HAL_Driver/Src/stm32h7xx_hal_mdma.c **** 
1403:./Libraries/STM32H7xx_HAL_Driver/Src/stm32h7xx_hal_mdma.c ****     /* Check for the Timeout */
1404:./Libraries/STM32H7xx_HAL_Driver/Src/stm32h7xx_hal_mdma.c ****     if(Timeout != HAL_MAX_DELAY)
 2682              		.loc 1 1404 7
 2683 00f4 7B68     		ldr	r3, [r7, #4]
 2684 00f6 B3F1FF3F 		cmp	r3, #-1
 2685 00fa 15D0     		beq	.L152
1405:./Libraries/STM32H7xx_HAL_Driver/Src/stm32h7xx_hal_mdma.c ****     {
1406:./Libraries/STM32H7xx_HAL_Driver/Src/stm32h7xx_hal_mdma.c ****       if(((HAL_GetTick() - tickstart ) > Timeout) || (Timeout == 0U))
 2686              		.loc 1 1406 12
 2687 00fc FFF7FEFF 		bl	HAL_GetTick
 2688 0100 0246     		mov	r2, r0
 2689              		.loc 1 1406 26
 2690 0102 BB69     		ldr	r3, [r7, #24]
 2691 0104 D31A     		subs	r3, r2, r3
 2692              		.loc 1 1406 9
 2693 0106 7A68     		ldr	r2, [r7, #4]
 2694 0108 9A42     		cmp	r2, r3
 2695 010a 02D3     		bcc	.L160
 2696              		.loc 1 1406 51 discriminator 1
 2697 010c 7B68     		ldr	r3, [r7, #4]
 2698 010e 002B     		cmp	r3, #0
 2699 0110 0AD1     		bne	.L152
 2700              	.L160:
ARM GAS  /tmp/ccZsyCUo.s 			page 73


1407:./Libraries/STM32H7xx_HAL_Driver/Src/stm32h7xx_hal_mdma.c ****       {
1408:./Libraries/STM32H7xx_HAL_Driver/Src/stm32h7xx_hal_mdma.c ****         /* Update error code */
1409:./Libraries/STM32H7xx_HAL_Driver/Src/stm32h7xx_hal_mdma.c ****         hmdma->ErrorCode |= HAL_MDMA_ERROR_TIMEOUT;
 2701              		.loc 1 1409 26
 2702 0112 FB68     		ldr	r3, [r7, #12]
 2703 0114 9B6E     		ldr	r3, [r3, #104]
 2704 0116 43F04002 		orr	r2, r3, #64
 2705 011a FB68     		ldr	r3, [r7, #12]
 2706 011c 9A66     		str	r2, [r3, #104]
1410:./Libraries/STM32H7xx_HAL_Driver/Src/stm32h7xx_hal_mdma.c **** 
1411:./Libraries/STM32H7xx_HAL_Driver/Src/stm32h7xx_hal_mdma.c ****         (void) HAL_MDMA_Abort(hmdma); /* if timeout then abort the current transfer */
 2707              		.loc 1 1411 16
 2708 011e F868     		ldr	r0, [r7, #12]
 2709 0120 FFF7FEFF 		bl	HAL_MDMA_Abort
1412:./Libraries/STM32H7xx_HAL_Driver/Src/stm32h7xx_hal_mdma.c **** 
1413:./Libraries/STM32H7xx_HAL_Driver/Src/stm32h7xx_hal_mdma.c ****         /*
1414:./Libraries/STM32H7xx_HAL_Driver/Src/stm32h7xx_hal_mdma.c ****           Note that the Abort function will
1415:./Libraries/STM32H7xx_HAL_Driver/Src/stm32h7xx_hal_mdma.c ****             - Clear all transfer flags
1416:./Libraries/STM32H7xx_HAL_Driver/Src/stm32h7xx_hal_mdma.c ****             - Unlock
1417:./Libraries/STM32H7xx_HAL_Driver/Src/stm32h7xx_hal_mdma.c ****             - Set the State
1418:./Libraries/STM32H7xx_HAL_Driver/Src/stm32h7xx_hal_mdma.c ****         */
1419:./Libraries/STM32H7xx_HAL_Driver/Src/stm32h7xx_hal_mdma.c **** 
1420:./Libraries/STM32H7xx_HAL_Driver/Src/stm32h7xx_hal_mdma.c ****         return HAL_ERROR;
 2710              		.loc 1 1420 16
 2711 0124 0123     		movs	r3, #1
 2712 0126 31E0     		b	.L144
 2713              	.L152:
1348:./Libraries/STM32H7xx_HAL_Driver/Src/stm32h7xx_hal_mdma.c ****   {
 2714              		.loc 1 1348 9
 2715 0128 FB68     		ldr	r3, [r7, #12]
 2716 012a 1B68     		ldr	r3, [r3]
 2717 012c 1A68     		ldr	r2, [r3]
 2718 012e FB69     		ldr	r3, [r7, #28]
 2719 0130 1340     		ands	r3, r3, r2
1348:./Libraries/STM32H7xx_HAL_Driver/Src/stm32h7xx_hal_mdma.c ****   {
 2720              		.loc 1 1348 8
 2721 0132 002B     		cmp	r3, #0
 2722 0134 90D0     		beq	.L161
1421:./Libraries/STM32H7xx_HAL_Driver/Src/stm32h7xx_hal_mdma.c ****       }
1422:./Libraries/STM32H7xx_HAL_Driver/Src/stm32h7xx_hal_mdma.c ****     }
1423:./Libraries/STM32H7xx_HAL_Driver/Src/stm32h7xx_hal_mdma.c ****   }
1424:./Libraries/STM32H7xx_HAL_Driver/Src/stm32h7xx_hal_mdma.c **** 
1425:./Libraries/STM32H7xx_HAL_Driver/Src/stm32h7xx_hal_mdma.c ****   /* Clear the transfer level flag */
1426:./Libraries/STM32H7xx_HAL_Driver/Src/stm32h7xx_hal_mdma.c ****   if(CompleteLevel == HAL_MDMA_BUFFER_TRANSFER)
 2723              		.loc 1 1426 5
 2724 0136 FB7A     		ldrb	r3, [r7, #11]	@ zero_extendqisi2
 2725 0138 012B     		cmp	r3, #1
 2726 013a 04D1     		bne	.L162
1427:./Libraries/STM32H7xx_HAL_Driver/Src/stm32h7xx_hal_mdma.c ****   {
1428:./Libraries/STM32H7xx_HAL_Driver/Src/stm32h7xx_hal_mdma.c ****     __HAL_MDMA_CLEAR_FLAG(hmdma, MDMA_FLAG_BFTC);
 2727              		.loc 1 1428 5
 2728 013c FB68     		ldr	r3, [r7, #12]
 2729 013e 1B68     		ldr	r3, [r3]
 2730 0140 1022     		movs	r2, #16
 2731 0142 5A60     		str	r2, [r3, #4]
 2732 0144 21E0     		b	.L163
 2733              	.L162:
ARM GAS  /tmp/ccZsyCUo.s 			page 74


1429:./Libraries/STM32H7xx_HAL_Driver/Src/stm32h7xx_hal_mdma.c **** 
1430:./Libraries/STM32H7xx_HAL_Driver/Src/stm32h7xx_hal_mdma.c ****   }
1431:./Libraries/STM32H7xx_HAL_Driver/Src/stm32h7xx_hal_mdma.c ****   else if(CompleteLevel == HAL_MDMA_BLOCK_TRANSFER)
 2734              		.loc 1 1431 10
 2735 0146 FB7A     		ldrb	r3, [r7, #11]	@ zero_extendqisi2
 2736 0148 022B     		cmp	r3, #2
 2737 014a 04D1     		bne	.L164
1432:./Libraries/STM32H7xx_HAL_Driver/Src/stm32h7xx_hal_mdma.c ****   {
1433:./Libraries/STM32H7xx_HAL_Driver/Src/stm32h7xx_hal_mdma.c ****     __HAL_MDMA_CLEAR_FLAG(hmdma, (MDMA_FLAG_BFTC | MDMA_FLAG_BT));
